	.arch armv8-a
	.file	"Group50.cpp"
	.text
	.align	2
	.p2align 4,,11
	.global	_ZN8opendnp311Group50Var1C2Ev
	.type	_ZN8opendnp311Group50Var1C2Ev, %function
_ZN8opendnp311Group50Var1C2Ev:
.LFB390:
	.cfi_startproc
	str	xzr, [x0]
	ret
	.cfi_endproc
.LFE390:
	.size	_ZN8opendnp311Group50Var1C2Ev, .-_ZN8opendnp311Group50Var1C2Ev
	.global	_ZN8opendnp311Group50Var1C1Ev
	.set	_ZN8opendnp311Group50Var1C1Ev,_ZN8opendnp311Group50Var1C2Ev
	.align	2
	.p2align 4,,11
	.global	_ZN8opendnp311Group50Var14ReadERN7openpal6RSliceERS0_
	.type	_ZN8opendnp311Group50Var14ReadERN7openpal6RSliceERS0_, %function
_ZN8opendnp311Group50Var14ReadERN7openpal6RSliceERS0_:
.LFB392:
	.cfi_startproc
	b	_ZN7openpal5Parse4ReadERNS_6RSliceERNS_10UInt48TypeE
	.cfi_endproc
.LFE392:
	.size	_ZN8opendnp311Group50Var14ReadERN7openpal6RSliceERS0_, .-_ZN8opendnp311Group50Var14ReadERN7openpal6RSliceERS0_
	.align	2
	.p2align 4,,11
	.global	_ZN8opendnp311Group50Var15WriteERKS0_RN7openpal6WSliceE
	.type	_ZN8opendnp311Group50Var15WriteERKS0_RN7openpal6WSliceE, %function
_ZN8opendnp311Group50Var15WriteERKS0_RN7openpal6WSliceE:
.LFB393:
	.cfi_startproc
	mov	x2, x0
	mov	x0, x1
	mov	x1, x2
	b	_ZN7openpal6Format5WriteERNS_6WSliceERKNS_10UInt48TypeE
	.cfi_endproc
.LFE393:
	.size	_ZN8opendnp311Group50Var15WriteERKS0_RN7openpal6WSliceE, .-_ZN8opendnp311Group50Var15WriteERKS0_RN7openpal6WSliceE
	.align	2
	.p2align 4,,11
	.global	_ZN8opendnp311Group50Var4C2Ev
	.type	_ZN8opendnp311Group50Var4C2Ev, %function
_ZN8opendnp311Group50Var4C2Ev:
.LFB395:
	.cfi_startproc
	str	xzr, [x0]
	str	wzr, [x0, 8]
	strb	wzr, [x0, 12]
	ret
	.cfi_endproc
.LFE395:
	.size	_ZN8opendnp311Group50Var4C2Ev, .-_ZN8opendnp311Group50Var4C2Ev
	.global	_ZN8opendnp311Group50Var4C1Ev
	.set	_ZN8opendnp311Group50Var4C1Ev,_ZN8opendnp311Group50Var4C2Ev
	.align	2
	.p2align 4,,11
	.global	_ZN8opendnp311Group50Var44ReadERN7openpal6RSliceERS0_
	.type	_ZN8opendnp311Group50Var44ReadERN7openpal6RSliceERS0_, %function
_ZN8opendnp311Group50Var44ReadERN7openpal6RSliceERS0_:
.LFB397:
	.cfi_startproc
	stp	x29, x30, [sp, -32]!
	.cfi_def_cfa_offset 32
	.cfi_offset 29, -32
	.cfi_offset 30, -24
	mov	x29, sp
	stp	x19, x20, [sp, 16]
	.cfi_offset 19, -16
	.cfi_offset 20, -8
	mov	x19, x0
	mov	x20, x1
	bl	_ZN7openpal5Parse4ReadERNS_6RSliceERNS_10UInt48TypeE
	tst	w0, 255
	bne	.L14
.L8:
	mov	w0, 0
	ldp	x19, x20, [sp, 16]
	ldp	x29, x30, [sp], 32
	.cfi_remember_state
	.cfi_restore 30
	.cfi_restore 29
	.cfi_restore 19
	.cfi_restore 20
	.cfi_def_cfa_offset 0
	ret
	.p2align 2,,3
.L14:
	.cfi_restore_state
	add	x1, x20, 8
	mov	x0, x19
	bl	_ZN7openpal5Parse4ReadERNS_6RSliceERj
	tst	w0, 255
	beq	.L8
	add	x1, x20, 12
	mov	x0, x19
	ldp	x19, x20, [sp, 16]
	ldp	x29, x30, [sp], 32
	.cfi_restore 30
	.cfi_restore 29
	.cfi_restore 19
	.cfi_restore 20
	.cfi_def_cfa_offset 0
	b	_ZN7openpal5Parse4ReadERNS_6RSliceERh
	.cfi_endproc
.LFE397:
	.size	_ZN8opendnp311Group50Var44ReadERN7openpal6RSliceERS0_, .-_ZN8opendnp311Group50Var44ReadERN7openpal6RSliceERS0_
	.align	2
	.p2align 4,,11
	.global	_ZN8opendnp311Group50Var45WriteERKS0_RN7openpal6WSliceE
	.type	_ZN8opendnp311Group50Var45WriteERKS0_RN7openpal6WSliceE, %function
_ZN8opendnp311Group50Var45WriteERKS0_RN7openpal6WSliceE:
.LFB398:
	.cfi_startproc
	stp	x29, x30, [sp, -32]!
	.cfi_def_cfa_offset 32
	.cfi_offset 29, -32
	.cfi_offset 30, -24
	mov	x29, sp
	stp	x19, x20, [sp, 16]
	.cfi_offset 19, -16
	.cfi_offset 20, -8
	mov	x19, x1
	mov	x20, x0
	mov	x1, x0
	mov	x0, x19
	bl	_ZN7openpal6Format5WriteERNS_6WSliceERKNS_10UInt48TypeE
	tst	w0, 255
	bne	.L23
.L17:
	mov	w0, 0
	ldp	x19, x20, [sp, 16]
	ldp	x29, x30, [sp], 32
	.cfi_remember_state
	.cfi_restore 30
	.cfi_restore 29
	.cfi_restore 19
	.cfi_restore 20
	.cfi_def_cfa_offset 0
	ret
	.p2align 2,,3
.L23:
	.cfi_restore_state
	add	x1, x20, 8
	mov	x0, x19
	bl	_ZN7openpal6Format5WriteERNS_6WSliceERKj
	tst	w0, 255
	beq	.L17
	add	x1, x20, 12
	mov	x0, x19
	ldp	x19, x20, [sp, 16]
	ldp	x29, x30, [sp], 32
	.cfi_restore 30
	.cfi_restore 29
	.cfi_restore 19
	.cfi_restore 20
	.cfi_def_cfa_offset 0
	b	_ZN7openpal6Format5WriteERNS_6WSliceERKh
	.cfi_endproc
.LFE398:
	.size	_ZN8opendnp311Group50Var45WriteERKS0_RN7openpal6WSliceE, .-_ZN8opendnp311Group50Var45WriteERKS0_RN7openpal6WSliceE
	.align	2
	.p2align 4,,11
	.global	_ZN8opendnp311Group50Var410ReadTargetERN7openpal6RSliceERNS_15TimeAndIntervalE
	.type	_ZN8opendnp311Group50Var410ReadTargetERN7openpal6RSliceERNS_15TimeAndIntervalE, %function
_ZN8opendnp311Group50Var410ReadTargetERN7openpal6RSliceERNS_15TimeAndIntervalE:
.LFB399:
	.cfi_startproc
	stp	x29, x30, [sp, -112]!
	.cfi_def_cfa_offset 112
	.cfi_offset 29, -112
	.cfi_offset 30, -104
	adrp	x2, :got:__stack_chk_guard
	mov	x29, sp
	ldr	x2, [x2, #:got_lo12:__stack_chk_guard]
	stp	x19, x20, [sp, 16]
	.cfi_offset 19, -96
	.cfi_offset 20, -88
	add	x19, sp, 72
	str	x21, [sp, 32]
	.cfi_offset 21, -80
	mov	x21, x1
	mov	x20, x0
	mov	x0, x19
	ldr	x1, [x2]
	str	x1, [sp, 104]
	mov	x1, 0
	bl	_ZN8opendnp311Group50Var4C1Ev
	mov	x1, x19
	mov	x0, x20
	bl	_ZN8opendnp311Group50Var44ReadERN7openpal6RSliceERS0_
	mov	w19, w0
	tst	w0, 255
	bne	.L31
.L25:
	adrp	x0, :got:__stack_chk_guard
	ldr	x0, [x0, #:got_lo12:__stack_chk_guard]
	ldr	x2, [sp, 104]
	ldr	x1, [x0]
	subs	x2, x2, x1
	mov	x1, 0
	bne	.L32
	mov	w0, w19
	ldp	x19, x20, [sp, 16]
	ldr	x21, [sp, 32]
	ldp	x29, x30, [sp], 112
	.cfi_remember_state
	.cfi_restore 30
	.cfi_restore 29
	.cfi_restore 21
	.cfi_restore 19
	.cfi_restore 20
	.cfi_def_cfa_offset 0
	ret
	.p2align 2,,3
.L31:
	.cfi_restore_state
	ldrb	w3, [sp, 84]
	add	x0, sp, 88
	ldr	w2, [sp, 80]
	ldr	x1, [sp, 72]
	bl	_ZN8opendnp315TimeAndIntervalC1EN7openpal10UInt48TypeEjh
	ldp	x0, x1, [sp, 88]
	stp	x0, x1, [sp, 48]
	str	x0, [x21]
	ldr	x0, [sp, 53]
	str	x0, [x21, 5]
	b	.L25
.L32:
	bl	__stack_chk_fail
	.cfi_endproc
.LFE399:
	.size	_ZN8opendnp311Group50Var410ReadTargetERN7openpal6RSliceERNS_15TimeAndIntervalE, .-_ZN8opendnp311Group50Var410ReadTargetERN7openpal6RSliceERNS_15TimeAndIntervalE
	.align	2
	.p2align 4,,11
	.global	_ZN8opendnp311Group50Var411WriteTargetERKNS_15TimeAndIntervalERN7openpal6WSliceE
	.type	_ZN8opendnp311Group50Var411WriteTargetERKNS_15TimeAndIntervalERN7openpal6WSliceE, %function
_ZN8opendnp311Group50Var411WriteTargetERKNS_15TimeAndIntervalERN7openpal6WSliceE:
.LFB400:
	.cfi_startproc
	stp	x29, x30, [sp, -80]!
	.cfi_def_cfa_offset 80
	.cfi_offset 29, -80
	.cfi_offset 30, -72
	adrp	x2, :got:__stack_chk_guard
	mov	x29, sp
	ldr	x2, [x2, #:got_lo12:__stack_chk_guard]
	stp	x19, x20, [sp, 16]
	.cfi_offset 19, -64
	.cfi_offset 20, -56
	mov	x19, x0
	str	x21, [sp, 32]
	.cfi_offset 21, -48
	mov	x21, x1
	add	x20, sp, 56
	ldr	x1, [x2]
	str	x1, [sp, 72]
	mov	x1, 0
	mov	x0, x20
	bl	_ZN8opendnp311Group50Var4C1Ev
	ldrb	w2, [x19, 12]
	mov	x1, x21
	ldr	w3, [x19, 8]
	mov	x0, x20
	ldr	x4, [x19]
	str	x4, [sp, 56]
	str	w3, [sp, 64]
	strb	w2, [sp, 68]
	bl	_ZN8opendnp311Group50Var45WriteERKS0_RN7openpal6WSliceE
	adrp	x1, :got:__stack_chk_guard
	ldr	x1, [x1, #:got_lo12:__stack_chk_guard]
	ldr	x3, [sp, 72]
	ldr	x2, [x1]
	subs	x3, x3, x2
	mov	x2, 0
	bne	.L36
	ldp	x19, x20, [sp, 16]
	ldr	x21, [sp, 32]
	ldp	x29, x30, [sp], 80
	.cfi_remember_state
	.cfi_restore 30
	.cfi_restore 29
	.cfi_restore 21
	.cfi_restore 19
	.cfi_restore 20
	.cfi_def_cfa_offset 0
	ret
.L36:
	.cfi_restore_state
	bl	__stack_chk_fail
	.cfi_endproc
.LFE400:
	.size	_ZN8opendnp311Group50Var411WriteTargetERKNS_15TimeAndIntervalERN7openpal6WSliceE, .-_ZN8opendnp311Group50Var411WriteTargetERKNS_15TimeAndIntervalERN7openpal6WSliceE
	.ident	"GCC: (Ubuntu 11.4.0-1ubuntu1~22.04) 11.4.0"
	.section	.note.GNU-stack,"",@progbits
