	.arch armv8-a
	.file	"Group52.cpp"
	.text
	.align	2
	.p2align 4,,11
	.global	_ZN8opendnp311Group52Var1C2Ev
	.type	_ZN8opendnp311Group52Var1C2Ev, %function
_ZN8opendnp311Group52Var1C2Ev:
.LFB35:
	.cfi_startproc
	strh	wzr, [x0]
	ret
	.cfi_endproc
.LFE35:
	.size	_ZN8opendnp311Group52Var1C2Ev, .-_ZN8opendnp311Group52Var1C2Ev
	.global	_ZN8opendnp311Group52Var1C1Ev
	.set	_ZN8opendnp311Group52Var1C1Ev,_ZN8opendnp311Group52Var1C2Ev
	.align	2
	.p2align 4,,11
	.global	_ZN8opendnp311Group52Var14ReadERN7openpal6RSliceERS0_
	.type	_ZN8opendnp311Group52Var14ReadERN7openpal6RSliceERS0_, %function
_ZN8opendnp311Group52Var14ReadERN7openpal6RSliceERS0_:
.LFB37:
	.cfi_startproc
	b	_ZN7openpal5Parse4ReadERNS_6RSliceERt
	.cfi_endproc
.LFE37:
	.size	_ZN8opendnp311Group52Var14ReadERN7openpal6RSliceERS0_, .-_ZN8opendnp311Group52Var14ReadERN7openpal6RSliceERS0_
	.align	2
	.p2align 4,,11
	.global	_ZN8opendnp311Group52Var15WriteERKS0_RN7openpal6WSliceE
	.type	_ZN8opendnp311Group52Var15WriteERKS0_RN7openpal6WSliceE, %function
_ZN8opendnp311Group52Var15WriteERKS0_RN7openpal6WSliceE:
.LFB38:
	.cfi_startproc
	mov	x2, x0
	mov	x0, x1
	mov	x1, x2
	b	_ZN7openpal6Format5WriteERNS_6WSliceERKt
	.cfi_endproc
.LFE38:
	.size	_ZN8opendnp311Group52Var15WriteERKS0_RN7openpal6WSliceE, .-_ZN8opendnp311Group52Var15WriteERKS0_RN7openpal6WSliceE
	.align	2
	.p2align 4,,11
	.global	_ZN8opendnp311Group52Var2C2Ev
	.type	_ZN8opendnp311Group52Var2C2Ev, %function
_ZN8opendnp311Group52Var2C2Ev:
.LFB40:
	.cfi_startproc
	strh	wzr, [x0]
	ret
	.cfi_endproc
.LFE40:
	.size	_ZN8opendnp311Group52Var2C2Ev, .-_ZN8opendnp311Group52Var2C2Ev
	.global	_ZN8opendnp311Group52Var2C1Ev
	.set	_ZN8opendnp311Group52Var2C1Ev,_ZN8opendnp311Group52Var2C2Ev
	.align	2
	.p2align 4,,11
	.global	_ZN8opendnp311Group52Var24ReadERN7openpal6RSliceERS0_
	.type	_ZN8opendnp311Group52Var24ReadERN7openpal6RSliceERS0_, %function
_ZN8opendnp311Group52Var24ReadERN7openpal6RSliceERS0_:
.LFB47:
	.cfi_startproc
	b	_ZN7openpal5Parse4ReadERNS_6RSliceERt
	.cfi_endproc
.LFE47:
	.size	_ZN8opendnp311Group52Var24ReadERN7openpal6RSliceERS0_, .-_ZN8opendnp311Group52Var24ReadERN7openpal6RSliceERS0_
	.align	2
	.p2align 4,,11
	.global	_ZN8opendnp311Group52Var25WriteERKS0_RN7openpal6WSliceE
	.type	_ZN8opendnp311Group52Var25WriteERKS0_RN7openpal6WSliceE, %function
_ZN8opendnp311Group52Var25WriteERKS0_RN7openpal6WSliceE:
.LFB49:
	.cfi_startproc
	mov	x2, x0
	mov	x0, x1
	mov	x1, x2
	b	_ZN7openpal6Format5WriteERNS_6WSliceERKt
	.cfi_endproc
.LFE49:
	.size	_ZN8opendnp311Group52Var25WriteERKS0_RN7openpal6WSliceE, .-_ZN8opendnp311Group52Var25WriteERKS0_RN7openpal6WSliceE
	.ident	"GCC: (Ubuntu 11.4.0-1ubuntu1~22.04) 11.4.0"
	.section	.note.GNU-stack,"",@progbits
