	.arch armv8-a
	.file	"LinkContext.cpp"
	.text
	.section	.text._ZN8opendnp313ILinkListener13OnStateChangeENS_10LinkStatusE,"axG",@progbits,_ZN8opendnp313ILinkListener13OnStateChangeENS_10LinkStatusE,comdat
	.align	2
	.p2align 4,,11
	.weak	_ZN8opendnp313ILinkListener13OnStateChangeENS_10LinkStatusE
	.type	_ZN8opendnp313ILinkListener13OnStateChangeENS_10LinkStatusE, %function
_ZN8opendnp313ILinkListener13OnStateChangeENS_10LinkStatusE:
.LFB2290:
	.cfi_startproc
	ret
	.cfi_endproc
.LFE2290:
	.size	_ZN8opendnp313ILinkListener13OnStateChangeENS_10LinkStatusE, .-_ZN8opendnp313ILinkListener13OnStateChangeENS_10LinkStatusE
	.section	.text._ZN8opendnp313ILinkListener18OnKeepAliveFailureEv,"axG",@progbits,_ZN8opendnp313ILinkListener18OnKeepAliveFailureEv,comdat
	.align	2
	.p2align 4,,11
	.weak	_ZN8opendnp313ILinkListener18OnKeepAliveFailureEv
	.type	_ZN8opendnp313ILinkListener18OnKeepAliveFailureEv, %function
_ZN8opendnp313ILinkListener18OnKeepAliveFailureEv:
.LFB2292:
	.cfi_startproc
	ret
	.cfi_endproc
.LFE2292:
	.size	_ZN8opendnp313ILinkListener18OnKeepAliveFailureEv, .-_ZN8opendnp313ILinkListener18OnKeepAliveFailureEv
	.section	.text._ZN8opendnp313ILinkListener18OnKeepAliveSuccessEv,"axG",@progbits,_ZN8opendnp313ILinkListener18OnKeepAliveSuccessEv,comdat
	.align	2
	.p2align 4,,11
	.weak	_ZN8opendnp313ILinkListener18OnKeepAliveSuccessEv
	.type	_ZN8opendnp313ILinkListener18OnKeepAliveSuccessEv, %function
_ZN8opendnp313ILinkListener18OnKeepAliveSuccessEv:
.LFB2293:
	.cfi_startproc
	ret
	.cfi_endproc
.LFE2293:
	.size	_ZN8opendnp313ILinkListener18OnKeepAliveSuccessEv, .-_ZN8opendnp313ILinkListener18OnKeepAliveSuccessEv
	.section	.text._ZN7openpal12StaticBufferILj292EED2Ev,"axG",@progbits,_ZN7openpal12StaticBufferILj292EED5Ev,comdat
	.align	2
	.p2align 4,,11
	.weak	_ZN7openpal12StaticBufferILj292EED2Ev
	.type	_ZN7openpal12StaticBufferILj292EED2Ev, %function
_ZN7openpal12StaticBufferILj292EED2Ev:
.LFB2750:
	.cfi_startproc
	ret
	.cfi_endproc
.LFE2750:
	.size	_ZN7openpal12StaticBufferILj292EED2Ev, .-_ZN7openpal12StaticBufferILj292EED2Ev
	.weak	_ZN7openpal12StaticBufferILj292EED1Ev
	.set	_ZN7openpal12StaticBufferILj292EED1Ev,_ZN7openpal12StaticBufferILj292EED2Ev
	.section	.text._ZN7openpal12StaticBufferILj10EED2Ev,"axG",@progbits,_ZN7openpal12StaticBufferILj10EED5Ev,comdat
	.align	2
	.p2align 4,,11
	.weak	_ZN7openpal12StaticBufferILj10EED2Ev
	.type	_ZN7openpal12StaticBufferILj10EED2Ev, %function
_ZN7openpal12StaticBufferILj10EED2Ev:
.LFB2757:
	.cfi_startproc
	ret
	.cfi_endproc
.LFE2757:
	.size	_ZN7openpal12StaticBufferILj10EED2Ev, .-_ZN7openpal12StaticBufferILj10EED2Ev
	.weak	_ZN7openpal12StaticBufferILj10EED1Ev
	.set	_ZN7openpal12StaticBufferILj10EED1Ev,_ZN7openpal12StaticBufferILj10EED2Ev
	.text
	.align	2
	.p2align 4,,11
	.type	_ZNSt17_Function_handlerIFvvEZN8opendnp311LinkContext21CompleteSendOperationEbEUlvE_E9_M_invokeERKSt9_Any_data, %function
_ZNSt17_Function_handlerIFvvEZN8opendnp311LinkContext21CompleteSendOperationEbEUlvE_E9_M_invokeERKSt9_Any_data:
.LFB2927:
	.cfi_startproc
	ldr	x1, [x0]
	ldr	x0, [x1]
	ldrb	w1, [x1, 16]
	ldr	x2, [x0]
	ldr	x2, [x2, 40]
	mov	x16, x2
	br	x16
	.cfi_endproc
.LFE2927:
	.size	_ZNSt17_Function_handlerIFvvEZN8opendnp311LinkContext21CompleteSendOperationEbEUlvE_E9_M_invokeERKSt9_Any_data, .-_ZNSt17_Function_handlerIFvvEZN8opendnp311LinkContext21CompleteSendOperationEbEUlvE_E9_M_invokeERKSt9_Any_data
	.section	.text._ZN7openpal12StaticBufferILj292EED0Ev,"axG",@progbits,_ZN7openpal12StaticBufferILj292EED5Ev,comdat
	.align	2
	.p2align 4,,11
	.weak	_ZN7openpal12StaticBufferILj292EED0Ev
	.type	_ZN7openpal12StaticBufferILj292EED0Ev, %function
_ZN7openpal12StaticBufferILj292EED0Ev:
.LFB2752:
	.cfi_startproc
	mov	x1, 304
	b	_ZdlPvm
	.cfi_endproc
.LFE2752:
	.size	_ZN7openpal12StaticBufferILj292EED0Ev, .-_ZN7openpal12StaticBufferILj292EED0Ev
	.section	.text._ZN7openpal12StaticBufferILj10EED0Ev,"axG",@progbits,_ZN7openpal12StaticBufferILj10EED5Ev,comdat
	.align	2
	.p2align 4,,11
	.weak	_ZN7openpal12StaticBufferILj10EED0Ev
	.type	_ZN7openpal12StaticBufferILj10EED0Ev, %function
_ZN7openpal12StaticBufferILj10EED0Ev:
.LFB2759:
	.cfi_startproc
	mov	x1, 24
	b	_ZdlPvm
	.cfi_endproc
.LFE2759:
	.size	_ZN7openpal12StaticBufferILj10EED0Ev, .-_ZN7openpal12StaticBufferILj10EED0Ev
	.text
	.align	2
	.p2align 4,,11
	.type	_ZNSt17_Function_handlerIFvvEZN7openpal8TimerRef5StartIZN8opendnp311LinkContext18StartResponseTimerEvEUlvE_EEbRKNS1_12TimeDurationERKT_EUlvE_E10_M_managerERSt9_Any_dataRKSF_St18_Manager_operation, %function
_ZNSt17_Function_handlerIFvvEZN7openpal8TimerRef5StartIZN8opendnp311LinkContext18StartResponseTimerEvEUlvE_EEbRKNS1_12TimeDurationERKT_EUlvE_E10_M_managerERSt9_Any_dataRKSF_St18_Manager_operation:
.LFB3010:
	.cfi_startproc
	cbz	w2, .L11
	cmp	w2, 1
	beq	.L12
	cmp	w2, 2
	beq	.L16
.L14:
	mov	w0, 0
	ret
	.p2align 2,,3
.L11:
	adrp	x1, .LANCHOR0
	add	x1, x1, :lo12:.LANCHOR0
	str	x1, [x0]
	mov	w0, 0
	ret
	.p2align 2,,3
.L12:
	str	x1, [x0]
	mov	w0, 0
	ret
	.p2align 2,,3
.L16:
	ldp	x2, x3, [x1]
	stp	x2, x3, [x0]
	b	.L14
	.cfi_endproc
.LFE3010:
	.size	_ZNSt17_Function_handlerIFvvEZN7openpal8TimerRef5StartIZN8opendnp311LinkContext18StartResponseTimerEvEUlvE_EEbRKNS1_12TimeDurationERKT_EUlvE_E10_M_managerERSt9_Any_dataRKSF_St18_Manager_operation, .-_ZNSt17_Function_handlerIFvvEZN7openpal8TimerRef5StartIZN8opendnp311LinkContext18StartResponseTimerEvEUlvE_EEbRKNS1_12TimeDurationERKT_EUlvE_E10_M_managerERSt9_Any_dataRKSF_St18_Manager_operation
	.align	2
	.p2align 4,,11
	.type	_ZNSt17_Function_handlerIFvvEZN7openpal8TimerRef5StartIZN8opendnp311LinkContext19StartKeepAliveTimerERKNS1_18MonotonicTimestampEEUlvE_EEbS8_RKT_EUlvE_E10_M_managerERSt9_Any_dataRKSF_St18_Manager_operation, %function
_ZNSt17_Function_handlerIFvvEZN7openpal8TimerRef5StartIZN8opendnp311LinkContext19StartKeepAliveTimerERKNS1_18MonotonicTimestampEEUlvE_EEbS8_RKT_EUlvE_E10_M_managerERSt9_Any_dataRKSF_St18_Manager_operation:
.LFB3014:
	.cfi_startproc
	cbz	w2, .L18
	cmp	w2, 1
	beq	.L19
	cmp	w2, 2
	beq	.L23
.L21:
	mov	w0, 0
	ret
	.p2align 2,,3
.L18:
	adrp	x1, .LANCHOR0
	add	x1, x1, :lo12:.LANCHOR0
	add	x1, x1, 16
	str	x1, [x0]
	mov	w0, 0
	ret
	.p2align 2,,3
.L19:
	str	x1, [x0]
	mov	w0, 0
	ret
	.p2align 2,,3
.L23:
	ldp	x2, x3, [x1]
	stp	x2, x3, [x0]
	b	.L21
	.cfi_endproc
.LFE3014:
	.size	_ZNSt17_Function_handlerIFvvEZN7openpal8TimerRef5StartIZN8opendnp311LinkContext19StartKeepAliveTimerERKNS1_18MonotonicTimestampEEUlvE_EEbS8_RKT_EUlvE_E10_M_managerERSt9_Any_dataRKSF_St18_Manager_operation, .-_ZNSt17_Function_handlerIFvvEZN7openpal8TimerRef5StartIZN8opendnp311LinkContext19StartKeepAliveTimerERKNS1_18MonotonicTimestampEEUlvE_EEbS8_RKT_EUlvE_E10_M_managerERSt9_Any_dataRKSF_St18_Manager_operation
	.global	__aarch64_ldadd4_acq_rel
	.align	2
	.p2align 4,,11
	.type	_ZNSt17_Function_handlerIFvvEZN8opendnp311LinkContext21CompleteSendOperationEbEUlvE_E10_M_managerERSt9_Any_dataRKS5_St18_Manager_operation, %function
_ZNSt17_Function_handlerIFvvEZN8opendnp311LinkContext21CompleteSendOperationEbEUlvE_E10_M_managerERSt9_Any_dataRKS5_St18_Manager_operation:
.LFB2928:
	.cfi_startproc
	stp	x29, x30, [sp, -48]!
	.cfi_def_cfa_offset 48
	.cfi_offset 29, -48
	.cfi_offset 30, -40
	mov	x29, sp
	stp	x19, x20, [sp, 16]
	.cfi_offset 19, -32
	.cfi_offset 20, -24
	mov	x19, x0
	cbz	w2, .L25
	cmp	w2, 1
	beq	.L26
	cmp	w2, 2
	beq	.L29
	cmp	w2, 3
	bne	.L28
	ldr	x19, [x0]
	cbz	x19, .L28
	ldr	x20, [x19, 8]
	cbz	x20, .L34
	str	x21, [sp, 32]
	.cfi_offset 21, -16
	adrp	x21, :got:__libc_single_threaded
	ldr	x0, [x21, #:got_lo12:__libc_single_threaded]
	ldrb	w0, [x0]
	cbz	w0, .L35
	ldr	w0, [x20, 8]
	sub	w1, w0, #1
	str	w1, [x20, 8]
.L36:
	cmp	w0, 1
	beq	.L50
.L49:
	ldr	x21, [sp, 32]
	.cfi_restore 21
.L34:
	mov	x0, x19
	mov	x1, 24
	bl	_ZdlPvm
.L28:
	mov	w0, 0
	ldp	x19, x20, [sp, 16]
	ldp	x29, x30, [sp], 48
	.cfi_remember_state
	.cfi_restore 30
	.cfi_restore 29
	.cfi_restore 19
	.cfi_restore 20
	.cfi_def_cfa_offset 0
	ret
	.p2align 2,,3
.L25:
	.cfi_restore_state
	adrp	x0, .LANCHOR0
	add	x0, x0, :lo12:.LANCHOR0
	add	x0, x0, 32
	str	x0, [x19]
	mov	w0, 0
	ldp	x19, x20, [sp, 16]
	ldp	x29, x30, [sp], 48
	.cfi_remember_state
	.cfi_restore 30
	.cfi_restore 29
	.cfi_restore 19
	.cfi_restore 20
	.cfi_def_cfa_offset 0
	ret
	.p2align 2,,3
.L26:
	.cfi_restore_state
	ldr	x0, [x1]
	str	x0, [x19]
	mov	w0, 0
	ldp	x19, x20, [sp, 16]
	ldp	x29, x30, [sp], 48
	.cfi_remember_state
	.cfi_restore 30
	.cfi_restore 29
	.cfi_restore 19
	.cfi_restore 20
	.cfi_def_cfa_offset 0
	ret
	.p2align 2,,3
.L29:
	.cfi_restore_state
	str	x21, [sp, 32]
	.cfi_offset 21, -16
	mov	x0, 24
	ldr	x21, [x1]
	bl	_Znwm
	mov	x20, x0
	ldr	q0, [x21]
	umov	x1, v0.d[1]
	str	q0, [x0]
	cbz	x1, .L31
	adrp	x0, :got:__libc_single_threaded
	ldr	x0, [x0, #:got_lo12:__libc_single_threaded]
	ldrb	w0, [x0]
	cbz	w0, .L32
	ldr	w0, [x1, 8]
	add	w0, w0, 1
	str	w0, [x1, 8]
.L31:
	ldrb	w0, [x21, 16]
	strb	w0, [x20, 16]
	ldr	x21, [sp, 32]
	.cfi_remember_state
	.cfi_restore 21
	str	x20, [x19]
	b	.L28
.L50:
	.cfi_restore_state
	ldr	x1, [x20]
	mov	x0, x20
	ldr	x1, [x1, 16]
	blr	x1
	ldr	x21, [x21, #:got_lo12:__libc_single_threaded]
	ldrb	w0, [x21]
	cbz	w0, .L38
	ldr	w0, [x20, 12]
	sub	w1, w0, #1
	str	w1, [x20, 12]
.L39:
	cmp	w0, 1
	bne	.L49
	ldr	x1, [x20]
	mov	x0, x20
	ldr	x1, [x1, 24]
	blr	x1
	ldr	x21, [sp, 32]
	.cfi_remember_state
	.cfi_restore 21
	b	.L34
	.p2align 2,,3
.L32:
	.cfi_restore_state
	add	x1, x1, 8
	mov	w0, 1
	bl	__aarch64_ldadd4_acq_rel
	b	.L31
.L35:
	add	x1, x20, 8
	mov	w0, -1
	bl	__aarch64_ldadd4_acq_rel
	b	.L36
.L38:
	add	x1, x20, 12
	mov	w0, -1
	bl	__aarch64_ldadd4_acq_rel
	b	.L39
	.cfi_endproc
.LFE2928:
	.size	_ZNSt17_Function_handlerIFvvEZN8opendnp311LinkContext21CompleteSendOperationEbEUlvE_E10_M_managerERSt9_Any_dataRKS5_St18_Manager_operation, .-_ZNSt17_Function_handlerIFvvEZN8opendnp311LinkContext21CompleteSendOperationEbEUlvE_E10_M_managerERSt9_Any_dataRKS5_St18_Manager_operation
	.section	.rodata.str1.8,"aMS",@progbits,1
	.align	3
.LC0:
	.string	"Layer is not online"
	.align	3
.LC1:
	.string	"/home/jaehyun/OpenPLC_v3/utils/dnp3_src/cpp/libs/src/opendnp3/link/LinkContext.cpp(90)"
	.text
	.align	2
	.p2align 4,,11
	.global	_ZN8opendnp311LinkContext16OnLowerLayerDownEv
	.type	_ZN8opendnp311LinkContext16OnLowerLayerDownEv, %function
_ZN8opendnp311LinkContext16OnLowerLayerDownEv:
.LFB2431:
	.cfi_startproc
	stp	x29, x30, [sp, -64]!
	.cfi_def_cfa_offset 64
	.cfi_offset 29, -64
	.cfi_offset 30, -56
	adrp	x1, :got:__stack_chk_guard
	mov	x29, sp
	ldr	x1, [x1, #:got_lo12:__stack_chk_guard]
	stp	x19, x20, [sp, 16]
	.cfi_offset 19, -48
	.cfi_offset 20, -40
	ldrb	w20, [x0, 506]
	mov	x19, x0
	ldr	x0, [x1]
	str	x0, [sp, 56]
	mov	x0, 0
	cbz	w20, .L62
	strb	wzr, [x19, 328]
	add	x0, x19, 472
	strb	wzr, [x19, 352]
	str	xzr, [x19, 440]
	strb	wzr, [x19, 448]
	strh	wzr, [x19, 506]
	strb	wzr, [x19, 508]
	bl	_ZN7openpal8TimerRef6CancelEv
	add	x0, x19, 488
	bl	_ZN7openpal8TimerRef6CancelEv
	ldr	x0, [x19, 560]
	adrp	x3, :got:_ZN8opendnp39PLLS_Idle8instanceE
	adrp	x1, :got:_ZN8opendnp313ILinkListener13OnStateChangeENS_10LinkStatusE
	adrp	x2, :got:_ZN8opendnp313SLLS_NotReset8instanceE
	ldr	x3, [x3, #:got_lo12:_ZN8opendnp39PLLS_Idle8instanceE]
	ldr	x4, [x0]
	str	x3, [x19, 544]
	ldr	x1, [x1, #:got_lo12:_ZN8opendnp313ILinkListener13OnStateChangeENS_10LinkStatusE]
	ldr	x3, [x4]
	ldr	x2, [x2, #:got_lo12:_ZN8opendnp313SLLS_NotReset8instanceE]
	str	x2, [x19, 552]
	cmp	x3, x1
	bne	.L63
.L54:
	ldr	x0, [x19, 576]
	ldr	x1, [x0]
	ldr	x1, [x1, 24]
	blr	x1
.L53:
	adrp	x0, :got:__stack_chk_guard
	ldr	x0, [x0, #:got_lo12:__stack_chk_guard]
	ldr	x2, [sp, 56]
	ldr	x1, [x0]
	subs	x2, x2, x1
	mov	x1, 0
	bne	.L64
	mov	w0, w20
	ldp	x19, x20, [sp, 16]
	ldp	x29, x30, [sp], 64
	.cfi_remember_state
	.cfi_restore 30
	.cfi_restore 29
	.cfi_restore 19
	.cfi_restore 20
	.cfi_def_cfa_offset 0
	ret
	.p2align 2,,3
.L62:
	.cfi_restore_state
	add	x19, x19, 376
	stp	x21, x22, [sp, 32]
	.cfi_offset 22, -24
	.cfi_offset 21, -32
	add	x22, sp, 48
	mov	w21, 2
	mov	x0, x19
	mov	x1, x22
	str	w21, [sp, 48]
	bl	_ZNK7openpal6Logger9IsEnabledERKNS_10LogFiltersE
	tst	w0, 255
	bne	.L65
	ldp	x21, x22, [sp, 32]
	.cfi_restore 22
	.cfi_restore 21
	b	.L53
	.p2align 2,,3
.L63:
	mov	w1, 0
	blr	x3
	b	.L54
	.p2align 2,,3
.L65:
	.cfi_offset 21, -32
	.cfi_offset 22, -24
	mov	x1, x22
	mov	x0, x19
	adrp	x3, .LC0
	adrp	x2, .LC1
	add	x3, x3, :lo12:.LC0
	add	x2, x2, :lo12:.LC1
	str	w21, [sp, 48]
	bl	_ZN7openpal6Logger3LogERKNS_10LogFiltersEPKcS5_
	ldp	x21, x22, [sp, 32]
	.cfi_restore 22
	.cfi_restore 21
	b	.L53
.L64:
	stp	x21, x22, [sp, 32]
	.cfi_offset 22, -24
	.cfi_offset 21, -32
	bl	__stack_chk_fail
	.cfi_endproc
.LFE2431:
	.size	_ZN8opendnp311LinkContext16OnLowerLayerDownEv, .-_ZN8opendnp311LinkContext16OnLowerLayerDownEv
	.section	.rodata.str1.8
	.align	3
.LC2:
	.string	"/home/jaehyun/OpenPLC_v3/utils/dnp3_src/cpp/libs/src/opendnp3/link/LinkContext.cpp(118)"
	.align	3
.LC3:
	.string	"Already transmitting a segment"
	.align	3
.LC4:
	.string	"/home/jaehyun/OpenPLC_v3/utils/dnp3_src/cpp/libs/src/opendnp3/link/LinkContext.cpp(124)"
	.text
	.align	2
	.p2align 4,,11
	.global	_ZN8opendnp311LinkContext12SetTxSegmentERNS_17ITransportSegmentE
	.type	_ZN8opendnp311LinkContext12SetTxSegmentERNS_17ITransportSegmentE, %function
_ZN8opendnp311LinkContext12SetTxSegmentERNS_17ITransportSegmentE:
.LFB2432:
	.cfi_startproc
	stp	x29, x30, [sp, -64]!
	.cfi_def_cfa_offset 64
	.cfi_offset 29, -64
	.cfi_offset 30, -56
	adrp	x2, :got:__stack_chk_guard
	mov	x29, sp
	ldr	x2, [x2, #:got_lo12:__stack_chk_guard]
	stp	x19, x20, [sp, 16]
	.cfi_offset 19, -48
	.cfi_offset 20, -40
	ldrb	w20, [x0, 506]
	ldr	x3, [x2]
	str	x3, [sp, 56]
	mov	x3, 0
	cbz	w20, .L77
	ldr	x2, [x0, 440]
	cbnz	x2, .L78
	str	x1, [x0, 440]
.L69:
	adrp	x0, :got:__stack_chk_guard
	ldr	x0, [x0, #:got_lo12:__stack_chk_guard]
	ldr	x2, [sp, 56]
	ldr	x1, [x0]
	subs	x2, x2, x1
	mov	x1, 0
	bne	.L79
	mov	w0, w20
	ldp	x19, x20, [sp, 16]
	ldp	x29, x30, [sp], 64
	.cfi_remember_state
	.cfi_restore 30
	.cfi_restore 29
	.cfi_restore 19
	.cfi_restore 20
	.cfi_def_cfa_offset 0
	ret
	.p2align 2,,3
.L78:
	.cfi_restore_state
	add	x19, x0, 376
	add	x20, sp, 48
	mov	x0, x19
	mov	x1, x20
	stp	x21, x22, [sp, 32]
	.cfi_offset 22, -24
	.cfi_offset 21, -32
	mov	w21, 2
	str	w21, [sp, 48]
	bl	_ZNK7openpal6Logger9IsEnabledERKNS_10LogFiltersE
	tst	w0, 255
	bne	.L80
.L71:
	mov	w20, 0
	ldp	x21, x22, [sp, 32]
	.cfi_restore 22
	.cfi_restore 21
	b	.L69
	.p2align 2,,3
.L77:
	add	x19, x0, 376
	stp	x21, x22, [sp, 32]
	.cfi_offset 22, -24
	.cfi_offset 21, -32
	add	x22, sp, 48
	mov	w21, 2
	mov	x0, x19
	mov	x1, x22
	str	w21, [sp, 48]
	bl	_ZNK7openpal6Logger9IsEnabledERKNS_10LogFiltersE
	tst	w0, 255
	beq	.L71
	mov	x1, x22
	mov	x0, x19
	adrp	x3, .LC0
	adrp	x2, .LC2
	add	x3, x3, :lo12:.LC0
	add	x2, x2, :lo12:.LC2
	str	w21, [sp, 48]
	bl	_ZN7openpal6Logger3LogERKNS_10LogFiltersEPKcS5_
	ldp	x21, x22, [sp, 32]
	.cfi_restore 22
	.cfi_restore 21
	b	.L69
	.p2align 2,,3
.L80:
	.cfi_offset 21, -32
	.cfi_offset 22, -24
	mov	x1, x20
	mov	x0, x19
	adrp	x3, .LC3
	adrp	x2, .LC4
	add	x3, x3, :lo12:.LC3
	add	x2, x2, :lo12:.LC4
	mov	w20, 0
	str	w21, [sp, 48]
	bl	_ZN7openpal6Logger3LogERKNS_10LogFiltersEPKcS5_
	ldp	x21, x22, [sp, 32]
	.cfi_restore 22
	.cfi_restore 21
	b	.L69
.L79:
	stp	x21, x22, [sp, 32]
	.cfi_offset 22, -24
	.cfi_offset 21, -32
	bl	__stack_chk_fail
	.cfi_endproc
.LFE2432:
	.size	_ZN8opendnp311LinkContext12SetTxSegmentERNS_17ITransportSegmentE, .-_ZN8opendnp311LinkContext12SetTxSegmentERNS_17ITransportSegmentE
	.align	2
	.p2align 4,,11
	.global	_ZN8opendnp311LinkContext32FormatPrimaryBufferWithConfirmedERKN7openpal6RSliceEb
	.type	_ZN8opendnp311LinkContext32FormatPrimaryBufferWithConfirmedERKN7openpal6RSliceEb, %function
_ZN8opendnp311LinkContext32FormatPrimaryBufferWithConfirmedERKN7openpal6RSliceEb:
.LFB2434:
	.cfi_startproc
	stp	x29, x30, [sp, -112]!
	.cfi_def_cfa_offset 112
	.cfi_offset 29, -112
	.cfi_offset 30, -104
	adrp	x3, :got:__stack_chk_guard
	mov	x29, sp
	ldr	x3, [x3, #:got_lo12:__stack_chk_guard]
	stp	x19, x20, [sp, 16]
	.cfi_offset 19, -96
	.cfi_offset 20, -88
	mov	x19, x0
	stp	x21, x22, [sp, 32]
	mov	x20, x1
	.cfi_offset 21, -80
	.cfi_offset 22, -72
	add	x21, x0, 376
	str	x23, [sp, 48]
	.cfi_offset 23, -64
	add	x1, x0, 8
	add	x22, sp, 88
	and	w23, w2, 255
	ldr	x0, [x3]
	str	x0, [sp, 104]
	mov	x0, 0
	mov	w2, 292
	mov	x0, x22
	bl	_ZN7openpal6WSliceC1EPhj
	ldrh	w3, [x19, 418]
	mov	w2, w23
	ldrb	w6, [x20]
	mov	x7, x21
	ldrb	w1, [x19, 408]
	add	x0, sp, 72
	ldrh	w4, [x19, 416]
	mov	w19, 256
	ldr	w9, [sp, 88]
	ldr	x5, [x20, 8]
	str	w9, [sp, 72]
	ldr	x8, [sp, 96]
	str	x8, [sp, 80]
	add	x20, sp, 64
	bl	_ZN8opendnp39LinkFrame23FormatConfirmedUserDataERN7openpal6WSliceEbbttPKhhPNS1_6LoggerE
	mov	x2, x0
	mov	x3, x1
	mov	x0, x21
	mov	x1, x20
	str	w19, [sp, 64]
	stp	x2, x3, [sp, 88]
	bl	_ZNK7openpal6Logger9IsEnabledERKNS_10LogFiltersE
	tst	w0, 255
	bne	.L88
.L82:
	adrp	x1, :got:__stack_chk_guard
	ldp	x2, x3, [sp, 88]
	ldr	x1, [x1, #:got_lo12:__stack_chk_guard]
	ldr	x0, [sp, 104]
	ldr	x4, [x1]
	subs	x0, x0, x4
	mov	x4, 0
	bne	.L89
	mov	x0, x2
	mov	x1, x3
	ldp	x19, x20, [sp, 16]
	ldp	x21, x22, [sp, 32]
	ldr	x23, [sp, 48]
	ldp	x29, x30, [sp], 112
	.cfi_remember_state
	.cfi_restore 30
	.cfi_restore 29
	.cfi_restore 23
	.cfi_restore 21
	.cfi_restore 22
	.cfi_restore 19
	.cfi_restore 20
	.cfi_def_cfa_offset 0
	ret
	.p2align 2,,3
.L88:
	.cfi_restore_state
	mov	x2, x22
	mov	x1, x20
	mov	x0, x21
	mov	w4, 18
	mov	w3, 10
	str	w19, [sp, 64]
	bl	_ZN7openpal6LogHexERNS_6LoggerERKNS_10LogFiltersERKNS_6RSliceEjj
	b	.L82
.L89:
	bl	__stack_chk_fail
	.cfi_endproc
.LFE2434:
	.size	_ZN8opendnp311LinkContext32FormatPrimaryBufferWithConfirmedERKN7openpal6RSliceEb, .-_ZN8opendnp311LinkContext32FormatPrimaryBufferWithConfirmedERKN7openpal6RSliceEb
	.align	2
	.p2align 4,,11
	.global	_ZN8opendnp311LinkContext34FormatPrimaryBufferWithUnconfirmedERKN7openpal6RSliceE
	.type	_ZN8opendnp311LinkContext34FormatPrimaryBufferWithUnconfirmedERKN7openpal6RSliceE, %function
_ZN8opendnp311LinkContext34FormatPrimaryBufferWithUnconfirmedERKN7openpal6RSliceE:
.LFB2435:
	.cfi_startproc
	stp	x29, x30, [sp, -96]!
	.cfi_def_cfa_offset 96
	.cfi_offset 29, -96
	.cfi_offset 30, -88
	adrp	x2, :got:__stack_chk_guard
	mov	x29, sp
	ldr	x2, [x2, #:got_lo12:__stack_chk_guard]
	stp	x19, x20, [sp, 16]
	.cfi_offset 19, -80
	.cfi_offset 20, -72
	mov	x19, x0
	stp	x21, x22, [sp, 32]
	.cfi_offset 21, -64
	.cfi_offset 22, -56
	mov	x20, x1
	add	x22, sp, 72
	add	x1, x0, 8
	ldr	x0, [x2]
	str	x0, [sp, 88]
	mov	x0, 0
	mov	x0, x22
	mov	w2, 292
	bl	_ZN7openpal6WSliceC1EPhj
	add	x21, x19, 376
	ldrh	w3, [x19, 416]
	mov	x6, x21
	ldrh	w2, [x19, 418]
	add	x0, sp, 56
	ldrb	w5, [x20]
	ldrb	w1, [x19, 408]
	mov	w19, 256
	ldr	w8, [sp, 72]
	ldr	x4, [x20, 8]
	str	w8, [sp, 56]
	ldr	x7, [sp, 80]
	str	x7, [sp, 64]
	add	x20, sp, 48
	bl	_ZN8opendnp39LinkFrame25FormatUnconfirmedUserDataERN7openpal6WSliceEbttPKhhPNS1_6LoggerE
	mov	x2, x0
	mov	x3, x1
	mov	x0, x21
	mov	x1, x20
	str	w19, [sp, 48]
	stp	x2, x3, [sp, 72]
	bl	_ZNK7openpal6Logger9IsEnabledERKNS_10LogFiltersE
	tst	w0, 255
	bne	.L97
.L91:
	adrp	x1, :got:__stack_chk_guard
	ldp	x2, x3, [sp, 72]
	ldr	x1, [x1, #:got_lo12:__stack_chk_guard]
	ldr	x0, [sp, 88]
	ldr	x4, [x1]
	subs	x0, x0, x4
	mov	x4, 0
	bne	.L98
	mov	x0, x2
	mov	x1, x3
	ldp	x19, x20, [sp, 16]
	ldp	x21, x22, [sp, 32]
	ldp	x29, x30, [sp], 96
	.cfi_remember_state
	.cfi_restore 30
	.cfi_restore 29
	.cfi_restore 21
	.cfi_restore 22
	.cfi_restore 19
	.cfi_restore 20
	.cfi_def_cfa_offset 0
	ret
	.p2align 2,,3
.L97:
	.cfi_restore_state
	mov	x2, x22
	mov	x1, x20
	mov	x0, x21
	mov	w4, 18
	mov	w3, 10
	str	w19, [sp, 48]
	bl	_ZN7openpal6LogHexERNS_6LoggerERKNS_10LogFiltersERKNS_6RSliceEjj
	b	.L91
.L98:
	bl	__stack_chk_fail
	.cfi_endproc
.LFE2435:
	.size	_ZN8opendnp311LinkContext34FormatPrimaryBufferWithUnconfirmedERKN7openpal6RSliceE, .-_ZN8opendnp311LinkContext34FormatPrimaryBufferWithUnconfirmedERKN7openpal6RSliceE
	.align	2
	.p2align 4,,11
	.global	_ZN8opendnp311LinkContext13QueueTransmitERKN7openpal6RSliceEb
	.type	_ZN8opendnp311LinkContext13QueueTransmitERKN7openpal6RSliceEb, %function
_ZN8opendnp311LinkContext13QueueTransmitERKN7openpal6RSliceEb:
.LFB2436:
	.cfi_startproc
	mov	x3, x0
	and	w4, w2, 255
	mov	x0, x1
	ldrb	w2, [x3, 448]
	cbnz	w2, .L100
	ldr	x0, [x3, 536]
	mov	w5, 2
	sub	w4, w5, w4
	ldr	x2, [x3, 592]
	ldr	x5, [x0]
	strb	w4, [x3, 448]
	ldr	x3, [x5, 16]
	mov	x16, x3
	br	x16
	.p2align 2,,3
.L100:
	cbz	w4, .L101
	ldp	x0, x1, [x1]
	mov	w2, 1
	strb	w2, [x3, 328]
	stp	x0, x1, [x3, 336]
	ret
	.p2align 2,,3
.L101:
	add	x2, x3, 352
	mov	w1, 1
	ldp	x4, x5, [x0]
	stp	x4, x5, [x2, 8]
	strb	w1, [x3, 352]
	ret
	.cfi_endproc
.LFE2436:
	.size	_ZN8opendnp311LinkContext13QueueTransmitERKN7openpal6RSliceEb, .-_ZN8opendnp311LinkContext13QueueTransmitERKN7openpal6RSliceEb
	.align	2
	.p2align 4,,11
	.global	_ZN8opendnp311LinkContext8QueueAckEv
	.type	_ZN8opendnp311LinkContext8QueueAckEv, %function
_ZN8opendnp311LinkContext8QueueAckEv:
.LFB2437:
	.cfi_startproc
	stp	x29, x30, [sp, -112]!
	.cfi_def_cfa_offset 112
	.cfi_offset 29, -112
	.cfi_offset 30, -104
	adrp	x3, :got:__stack_chk_guard
	add	x1, x0, 312
	mov	x29, sp
	ldr	x3, [x3, #:got_lo12:__stack_chk_guard]
	stp	x19, x20, [sp, 16]
	.cfi_offset 19, -96
	.cfi_offset 20, -88
	mov	x19, x0
	stp	x21, x22, [sp, 32]
	add	x20, sp, 88
	mov	x0, x20
	str	x23, [sp, 48]
	.cfi_offset 21, -80
	.cfi_offset 22, -72
	.cfi_offset 23, -64
	mov	w2, 10
	add	x21, x19, 376
	add	x23, sp, 64
	ldr	x4, [x3]
	str	x4, [sp, 104]
	mov	x4, 0
	mov	w22, 256
	bl	_ZN7openpal6WSliceC1EPhj
	ldrh	w3, [x19, 418]
	mov	w2, 0
	ldr	w7, [sp, 88]
	mov	x5, x21
	ldrb	w1, [x19, 408]
	add	x0, sp, 72
	ldrh	w4, [x19, 416]
	ldr	x6, [sp, 96]
	str	w7, [sp, 72]
	str	x6, [sp, 80]
	bl	_ZN8opendnp39LinkFrame9FormatAckERN7openpal6WSliceEbbttPNS1_6LoggerE
	mov	x2, x0
	mov	x3, x1
	mov	x0, x21
	mov	x1, x23
	str	w22, [sp, 64]
	stp	x2, x3, [sp, 88]
	bl	_ZNK7openpal6Logger9IsEnabledERKNS_10LogFiltersE
	tst	w0, 255
	bne	.L110
.L104:
	mov	x1, x20
	mov	x0, x19
	mov	w2, 0
	bl	_ZN8opendnp311LinkContext13QueueTransmitERKN7openpal6RSliceEb
	adrp	x0, :got:__stack_chk_guard
	ldr	x0, [x0, #:got_lo12:__stack_chk_guard]
	ldr	x2, [sp, 104]
	ldr	x1, [x0]
	subs	x2, x2, x1
	mov	x1, 0
	bne	.L111
	ldp	x19, x20, [sp, 16]
	ldp	x21, x22, [sp, 32]
	ldr	x23, [sp, 48]
	ldp	x29, x30, [sp], 112
	.cfi_remember_state
	.cfi_restore 30
	.cfi_restore 29
	.cfi_restore 23
	.cfi_restore 21
	.cfi_restore 22
	.cfi_restore 19
	.cfi_restore 20
	.cfi_def_cfa_offset 0
	ret
	.p2align 2,,3
.L110:
	.cfi_restore_state
	mov	x1, x23
	mov	x0, x21
	mov	x2, x20
	mov	w4, 18
	mov	w3, 10
	str	w22, [sp, 64]
	bl	_ZN7openpal6LogHexERNS_6LoggerERKNS_10LogFiltersERKNS_6RSliceEjj
	b	.L104
.L111:
	bl	__stack_chk_fail
	.cfi_endproc
.LFE2437:
	.size	_ZN8opendnp311LinkContext8QueueAckEv, .-_ZN8opendnp311LinkContext8QueueAckEv
	.align	2
	.p2align 4,,11
	.global	_ZN8opendnp311LinkContext15QueueLinkStatusEv
	.type	_ZN8opendnp311LinkContext15QueueLinkStatusEv, %function
_ZN8opendnp311LinkContext15QueueLinkStatusEv:
.LFB2438:
	.cfi_startproc
	stp	x29, x30, [sp, -112]!
	.cfi_def_cfa_offset 112
	.cfi_offset 29, -112
	.cfi_offset 30, -104
	adrp	x3, :got:__stack_chk_guard
	add	x1, x0, 312
	mov	x29, sp
	ldr	x3, [x3, #:got_lo12:__stack_chk_guard]
	stp	x19, x20, [sp, 16]
	.cfi_offset 19, -96
	.cfi_offset 20, -88
	mov	x19, x0
	stp	x21, x22, [sp, 32]
	add	x20, sp, 88
	mov	x0, x20
	str	x23, [sp, 48]
	.cfi_offset 21, -80
	.cfi_offset 22, -72
	.cfi_offset 23, -64
	mov	w2, 10
	add	x21, x19, 376
	add	x23, sp, 64
	ldr	x4, [x3]
	str	x4, [sp, 104]
	mov	x4, 0
	mov	w22, 256
	bl	_ZN7openpal6WSliceC1EPhj
	ldrh	w3, [x19, 418]
	mov	w2, 0
	ldr	w7, [sp, 88]
	mov	x5, x21
	ldrb	w1, [x19, 408]
	add	x0, sp, 72
	ldrh	w4, [x19, 416]
	ldr	x6, [sp, 96]
	str	w7, [sp, 72]
	str	x6, [sp, 80]
	bl	_ZN8opendnp39LinkFrame16FormatLinkStatusERN7openpal6WSliceEbbttPNS1_6LoggerE
	mov	x2, x0
	mov	x3, x1
	mov	x0, x21
	mov	x1, x23
	str	w22, [sp, 64]
	stp	x2, x3, [sp, 88]
	bl	_ZNK7openpal6Logger9IsEnabledERKNS_10LogFiltersE
	tst	w0, 255
	bne	.L119
.L113:
	mov	x1, x20
	mov	x0, x19
	mov	w2, 0
	bl	_ZN8opendnp311LinkContext13QueueTransmitERKN7openpal6RSliceEb
	adrp	x0, :got:__stack_chk_guard
	ldr	x0, [x0, #:got_lo12:__stack_chk_guard]
	ldr	x2, [sp, 104]
	ldr	x1, [x0]
	subs	x2, x2, x1
	mov	x1, 0
	bne	.L120
	ldp	x19, x20, [sp, 16]
	ldp	x21, x22, [sp, 32]
	ldr	x23, [sp, 48]
	ldp	x29, x30, [sp], 112
	.cfi_remember_state
	.cfi_restore 30
	.cfi_restore 29
	.cfi_restore 23
	.cfi_restore 21
	.cfi_restore 22
	.cfi_restore 19
	.cfi_restore 20
	.cfi_def_cfa_offset 0
	ret
	.p2align 2,,3
.L119:
	.cfi_restore_state
	mov	x1, x23
	mov	x0, x21
	mov	x2, x20
	mov	w4, 18
	mov	w3, 10
	str	w22, [sp, 64]
	bl	_ZN7openpal6LogHexERNS_6LoggerERKNS_10LogFiltersERKNS_6RSliceEjj
	b	.L113
.L120:
	bl	__stack_chk_fail
	.cfi_endproc
.LFE2438:
	.size	_ZN8opendnp311LinkContext15QueueLinkStatusEv, .-_ZN8opendnp311LinkContext15QueueLinkStatusEv
	.align	2
	.p2align 4,,11
	.global	_ZN8opendnp311LinkContext15QueueResetLinksEv
	.type	_ZN8opendnp311LinkContext15QueueResetLinksEv, %function
_ZN8opendnp311LinkContext15QueueResetLinksEv:
.LFB2439:
	.cfi_startproc
	stp	x29, x30, [sp, -112]!
	.cfi_def_cfa_offset 112
	.cfi_offset 29, -112
	.cfi_offset 30, -104
	adrp	x3, :got:__stack_chk_guard
	add	x1, x0, 8
	mov	x29, sp
	ldr	x3, [x3, #:got_lo12:__stack_chk_guard]
	stp	x19, x20, [sp, 16]
	.cfi_offset 19, -96
	.cfi_offset 20, -88
	mov	x19, x0
	stp	x21, x22, [sp, 32]
	add	x20, sp, 88
	mov	x0, x20
	str	x23, [sp, 48]
	.cfi_offset 21, -80
	.cfi_offset 22, -72
	.cfi_offset 23, -64
	mov	w2, 292
	add	x21, x19, 376
	add	x23, sp, 64
	ldr	x4, [x3]
	str	x4, [sp, 104]
	mov	x4, 0
	mov	w22, 256
	bl	_ZN7openpal6WSliceC1EPhj
	ldrh	w3, [x19, 416]
	mov	x4, x21
	ldrh	w2, [x19, 418]
	add	x0, sp, 72
	ldr	w6, [sp, 88]
	ldrb	w1, [x19, 408]
	ldr	x5, [sp, 96]
	str	w6, [sp, 72]
	str	x5, [sp, 80]
	bl	_ZN8opendnp39LinkFrame21FormatResetLinkStatesERN7openpal6WSliceEbttPNS1_6LoggerE
	mov	x2, x0
	mov	x3, x1
	mov	x0, x21
	mov	x1, x23
	str	w22, [sp, 64]
	stp	x2, x3, [sp, 88]
	bl	_ZNK7openpal6Logger9IsEnabledERKNS_10LogFiltersE
	tst	w0, 255
	bne	.L128
.L122:
	mov	x1, x20
	mov	x0, x19
	mov	w2, 1
	bl	_ZN8opendnp311LinkContext13QueueTransmitERKN7openpal6RSliceEb
	adrp	x0, :got:__stack_chk_guard
	ldr	x0, [x0, #:got_lo12:__stack_chk_guard]
	ldr	x2, [sp, 104]
	ldr	x1, [x0]
	subs	x2, x2, x1
	mov	x1, 0
	bne	.L129
	ldp	x19, x20, [sp, 16]
	ldp	x21, x22, [sp, 32]
	ldr	x23, [sp, 48]
	ldp	x29, x30, [sp], 112
	.cfi_remember_state
	.cfi_restore 30
	.cfi_restore 29
	.cfi_restore 23
	.cfi_restore 21
	.cfi_restore 22
	.cfi_restore 19
	.cfi_restore 20
	.cfi_def_cfa_offset 0
	ret
	.p2align 2,,3
.L128:
	.cfi_restore_state
	mov	x1, x23
	mov	x0, x21
	mov	x2, x20
	mov	w4, 18
	mov	w3, 10
	str	w22, [sp, 64]
	bl	_ZN7openpal6LogHexERNS_6LoggerERKNS_10LogFiltersERKNS_6RSliceEjj
	b	.L122
.L129:
	bl	__stack_chk_fail
	.cfi_endproc
.LFE2439:
	.size	_ZN8opendnp311LinkContext15QueueResetLinksEv, .-_ZN8opendnp311LinkContext15QueueResetLinksEv
	.align	2
	.p2align 4,,11
	.global	_ZN8opendnp311LinkContext22QueueRequestLinkStatusEv
	.type	_ZN8opendnp311LinkContext22QueueRequestLinkStatusEv, %function
_ZN8opendnp311LinkContext22QueueRequestLinkStatusEv:
.LFB2440:
	.cfi_startproc
	stp	x29, x30, [sp, -112]!
	.cfi_def_cfa_offset 112
	.cfi_offset 29, -112
	.cfi_offset 30, -104
	adrp	x3, :got:__stack_chk_guard
	add	x1, x0, 8
	mov	x29, sp
	ldr	x3, [x3, #:got_lo12:__stack_chk_guard]
	stp	x19, x20, [sp, 16]
	.cfi_offset 19, -96
	.cfi_offset 20, -88
	mov	x19, x0
	stp	x21, x22, [sp, 32]
	add	x20, sp, 88
	mov	x0, x20
	str	x23, [sp, 48]
	.cfi_offset 21, -80
	.cfi_offset 22, -72
	.cfi_offset 23, -64
	mov	w2, 292
	add	x21, x19, 376
	add	x23, sp, 64
	ldr	x4, [x3]
	str	x4, [sp, 104]
	mov	x4, 0
	mov	w22, 256
	bl	_ZN7openpal6WSliceC1EPhj
	ldrh	w3, [x19, 416]
	mov	x4, x21
	ldrh	w2, [x19, 418]
	add	x0, sp, 72
	ldr	w6, [sp, 88]
	ldrb	w1, [x19, 408]
	ldr	x5, [sp, 96]
	str	w6, [sp, 72]
	str	x5, [sp, 80]
	bl	_ZN8opendnp39LinkFrame23FormatRequestLinkStatusERN7openpal6WSliceEbttPNS1_6LoggerE
	mov	x2, x0
	mov	x3, x1
	mov	x0, x21
	mov	x1, x23
	str	w22, [sp, 64]
	stp	x2, x3, [sp, 88]
	bl	_ZNK7openpal6Logger9IsEnabledERKNS_10LogFiltersE
	tst	w0, 255
	bne	.L137
.L131:
	mov	x1, x20
	mov	x0, x19
	mov	w2, 1
	bl	_ZN8opendnp311LinkContext13QueueTransmitERKN7openpal6RSliceEb
	adrp	x0, :got:__stack_chk_guard
	ldr	x0, [x0, #:got_lo12:__stack_chk_guard]
	ldr	x2, [sp, 104]
	ldr	x1, [x0]
	subs	x2, x2, x1
	mov	x1, 0
	bne	.L138
	ldp	x19, x20, [sp, 16]
	ldp	x21, x22, [sp, 32]
	ldr	x23, [sp, 48]
	ldp	x29, x30, [sp], 112
	.cfi_remember_state
	.cfi_restore 30
	.cfi_restore 29
	.cfi_restore 23
	.cfi_restore 21
	.cfi_restore 22
	.cfi_restore 19
	.cfi_restore 20
	.cfi_def_cfa_offset 0
	ret
	.p2align 2,,3
.L137:
	.cfi_restore_state
	mov	x1, x23
	mov	x0, x21
	mov	x2, x20
	mov	w4, 18
	mov	w3, 10
	str	w22, [sp, 64]
	bl	_ZN7openpal6LogHexERNS_6LoggerERKNS_10LogFiltersERKNS_6RSliceEjj
	b	.L131
.L138:
	bl	__stack_chk_fail
	.cfi_endproc
.LFE2440:
	.size	_ZN8opendnp311LinkContext22QueueRequestLinkStatusEv, .-_ZN8opendnp311LinkContext22QueueRequestLinkStatusEv
	.align	2
	.p2align 4,,11
	.global	_ZN8opendnp311LinkContext10ResetRetryEv
	.type	_ZN8opendnp311LinkContext10ResetRetryEv, %function
_ZN8opendnp311LinkContext10ResetRetryEv:
.LFB2441:
	.cfi_startproc
	ldr	w1, [x0, 412]
	str	w1, [x0, 452]
	ret
	.cfi_endproc
.LFE2441:
	.size	_ZN8opendnp311LinkContext10ResetRetryEv, .-_ZN8opendnp311LinkContext10ResetRetryEv
	.align	2
	.p2align 4,,11
	.global	_ZN8opendnp311LinkContext5RetryEv
	.type	_ZN8opendnp311LinkContext5RetryEv, %function
_ZN8opendnp311LinkContext5RetryEv:
.LFB2442:
	.cfi_startproc
	mov	x1, x0
	ldr	w0, [x0, 452]
	cbz	w0, .L142
	sub	w2, w0, #1
	mov	w0, 1
	str	w2, [x1, 452]
	ret
	.p2align 2,,3
.L142:
	mov	w0, 0
	ret
	.cfi_endproc
.LFE2442:
	.size	_ZN8opendnp311LinkContext5RetryEv, .-_ZN8opendnp311LinkContext5RetryEv
	.align	2
	.p2align 4,,11
	.global	_ZN8opendnp311LinkContext10PushDataUpERKN7openpal6RSliceE
	.type	_ZN8opendnp311LinkContext10PushDataUpERKN7openpal6RSliceE, %function
_ZN8opendnp311LinkContext10PushDataUpERKN7openpal6RSliceE:
.LFB2443:
	.cfi_startproc
	ldr	x0, [x0, 576]
	ldr	x2, [x0]
	ldr	x2, [x2, 32]
	mov	x16, x2
	br	x16
	.cfi_endproc
.LFE2443:
	.size	_ZN8opendnp311LinkContext10PushDataUpERKN7openpal6RSliceE, .-_ZN8opendnp311LinkContext10PushDataUpERKN7openpal6RSliceE
	.align	2
	.p2align 4,,11
	.global	_ZN8opendnp311LinkContext20TryStartTransmissionEv
	.type	_ZN8opendnp311LinkContext20TryStartTransmissionEv, %function
_ZN8opendnp311LinkContext20TryStartTransmissionEv:
.LFB2457:
	.cfi_startproc
	stp	x29, x30, [sp, -32]!
	.cfi_def_cfa_offset 32
	.cfi_offset 29, -32
	.cfi_offset 30, -24
	mov	x29, sp
	str	x19, [sp, 16]
	.cfi_offset 19, -16
	mov	x19, x0
	ldrb	w0, [x0, 508]
	cbz	w0, .L145
	ldr	x0, [x19, 544]
	mov	x1, x19
	ldr	x2, [x0]
	ldr	x2, [x2, 64]
	blr	x2
	str	x0, [x19, 544]
.L145:
	ldr	x2, [x19, 440]
	cbz	x2, .L144
	ldrb	w3, [x19, 409]
	ldr	x0, [x19, 544]
	ldr	x1, [x0]
	cbz	w3, .L147
	ldr	x3, [x1, 48]
	mov	x1, x19
	blr	x3
	str	x0, [x19, 544]
.L144:
	ldr	x19, [sp, 16]
	ldp	x29, x30, [sp], 32
	.cfi_remember_state
	.cfi_restore 30
	.cfi_restore 29
	.cfi_restore 19
	.cfi_def_cfa_offset 0
	ret
	.p2align 2,,3
.L147:
	.cfi_restore_state
	ldr	x3, [x1, 56]
	mov	x1, x19
	blr	x3
	str	x0, [x19, 544]
	b	.L144
	.cfi_endproc
.LFE2457:
	.size	_ZN8opendnp311LinkContext20TryStartTransmissionEv, .-_ZN8opendnp311LinkContext20TryStartTransmissionEv
	.align	2
	.p2align 4,,11
	.global	_ZN8opendnp311LinkContext17OnResponseTimeoutEv
	.type	_ZN8opendnp311LinkContext17OnResponseTimeoutEv, %function
_ZN8opendnp311LinkContext17OnResponseTimeoutEv:
.LFB2459:
	.cfi_startproc
	stp	x29, x30, [sp, -32]!
	.cfi_def_cfa_offset 32
	.cfi_offset 29, -32
	.cfi_offset 30, -24
	mov	x1, x0
	mov	x29, sp
	str	x19, [sp, 16]
	.cfi_offset 19, -16
	mov	x19, x0
	ldr	x0, [x0, 544]
	ldr	x2, [x0]
	ldr	x2, [x2, 40]
	blr	x2
	str	x0, [x19, 544]
	mov	x0, x19
	ldr	x19, [sp, 16]
	ldp	x29, x30, [sp], 32
	.cfi_restore 30
	.cfi_restore 29
	.cfi_restore 19
	.cfi_def_cfa_offset 0
	b	_ZN8opendnp311LinkContext20TryStartTransmissionEv
	.cfi_endproc
.LFE2459:
	.size	_ZN8opendnp311LinkContext17OnResponseTimeoutEv, .-_ZN8opendnp311LinkContext17OnResponseTimeoutEv
	.align	2
	.p2align 4,,11
	.type	_ZNSt17_Function_handlerIFvvEZN7openpal8TimerRef5StartIZN8opendnp311LinkContext18StartResponseTimerEvEUlvE_EEbRKNS1_12TimeDurationERKT_EUlvE_E9_M_invokeERKSt9_Any_data, %function
_ZNSt17_Function_handlerIFvvEZN7openpal8TimerRef5StartIZN8opendnp311LinkContext18StartResponseTimerEvEUlvE_EEbRKNS1_12TimeDurationERKT_EUlvE_E9_M_invokeERKSt9_Any_data:
.LFB3009:
	.cfi_startproc
	ldp	x1, x0, [x0]
	str	xzr, [x1, 8]
	b	_ZN8opendnp311LinkContext17OnResponseTimeoutEv
	.cfi_endproc
.LFE3009:
	.size	_ZNSt17_Function_handlerIFvvEZN7openpal8TimerRef5StartIZN8opendnp311LinkContext18StartResponseTimerEvEUlvE_EEbRKNS1_12TimeDurationERKT_EUlvE_E9_M_invokeERKSt9_Any_data, .-_ZNSt17_Function_handlerIFvvEZN7openpal8TimerRef5StartIZN8opendnp311LinkContext18StartResponseTimerEvEUlvE_EEbRKNS1_12TimeDurationERKT_EUlvE_E9_M_invokeERKSt9_Any_data
	.align	2
	.p2align 4,,11
	.global	_ZN8opendnp311LinkContext18StartResponseTimerEv
	.type	_ZN8opendnp311LinkContext18StartResponseTimerEv, %function
_ZN8opendnp311LinkContext18StartResponseTimerEv:
.LFB2460:
	.cfi_startproc
	.cfi_personality 0x9b,DW.ref.__gxx_personality_v0
	.cfi_lsda 0x1b,.LLSDA2460
	mov	x3, x0
	stp	x29, x30, [sp, -80]!
	.cfi_def_cfa_offset 80
	.cfi_offset 29, -80
	.cfi_offset 30, -72
	adrp	x1, :got:__stack_chk_guard
	mov	x29, sp
	ldr	x1, [x1, #:got_lo12:__stack_chk_guard]
	adrp	x4, _ZNSt17_Function_handlerIFvvEZN7openpal8TimerRef5StartIZN8opendnp311LinkContext18StartResponseTimerEvEUlvE_EEbRKNS1_12TimeDurationERKT_EUlvE_E9_M_invokeERKSt9_Any_data
	ldr	x6, [x3, 424]
	add	x4, x4, :lo12:_ZNSt17_Function_handlerIFvvEZN7openpal8TimerRef5StartIZN8opendnp311LinkContext18StartResponseTimerEvEUlvE_EEbRKNS1_12TimeDurationERKT_EUlvE_E9_M_invokeERKSt9_Any_data
	adrp	x5, _ZNSt17_Function_handlerIFvvEZN7openpal8TimerRef5StartIZN8opendnp311LinkContext18StartResponseTimerEvEUlvE_EEbRKNS1_12TimeDurationERKT_EUlvE_E10_M_managerERSt9_Any_dataRKSF_St18_Manager_operation
	add	x5, x5, :lo12:_ZNSt17_Function_handlerIFvvEZN7openpal8TimerRef5StartIZN8opendnp311LinkContext18StartResponseTimerEvEUlvE_EEbRKNS1_12TimeDurationERKT_EUlvE_E10_M_managerERSt9_Any_dataRKSF_St18_Manager_operation
	stp	x19, x20, [sp, 16]
	.cfi_offset 19, -64
	.cfi_offset 20, -56
	add	x19, sp, 40
	add	x0, x0, 472
	ldr	x2, [x1]
	str	x2, [sp, 72]
	mov	x2, 0
	add	x1, sp, 32
	mov	x2, x19
	stp	x6, x0, [sp, 32]
	stp	x3, x5, [sp, 48]
	str	x4, [sp, 64]
.LEHB0:
	bl	_ZN7openpal8TimerRef11StartActionERKNS_12TimeDurationERKSt8functionIFvvEE
.LEHE0:
	ldr	x3, [sp, 56]
	cbz	x3, .L159
	mov	x1, x19
	mov	x0, x19
	mov	w2, 3
	blr	x3
.L159:
	adrp	x0, :got:__stack_chk_guard
	ldr	x0, [x0, #:got_lo12:__stack_chk_guard]
	ldr	x2, [sp, 72]
	ldr	x1, [x0]
	subs	x2, x2, x1
	mov	x1, 0
	bne	.L172
	ldp	x19, x20, [sp, 16]
	ldp	x29, x30, [sp], 80
	.cfi_remember_state
	.cfi_restore 30
	.cfi_restore 29
	.cfi_restore 19
	.cfi_restore 20
	.cfi_def_cfa_offset 0
	ret
.L172:
	.cfi_restore_state
	bl	__stack_chk_fail
.L164:
	ldr	x3, [sp, 56]
	mov	x20, x0
	cbz	x3, .L162
	mov	x1, x19
	mov	x0, x19
	mov	w2, 3
	blr	x3
.L162:
	mov	x0, x20
.LEHB1:
	bl	_Unwind_Resume
.LEHE1:
	.cfi_endproc
.LFE2460:
	.global	__gxx_personality_v0
	.section	.gcc_except_table,"a",@progbits
.LLSDA2460:
	.byte	0xff
	.byte	0xff
	.byte	0x1
	.uleb128 .LLSDACSE2460-.LLSDACSB2460
.LLSDACSB2460:
	.uleb128 .LEHB0-.LFB2460
	.uleb128 .LEHE0-.LEHB0
	.uleb128 .L164-.LFB2460
	.uleb128 0
	.uleb128 .LEHB1-.LFB2460
	.uleb128 .LEHE1-.LEHB1
	.uleb128 0
	.uleb128 0
.LLSDACSE2460:
	.text
	.size	_ZN8opendnp311LinkContext18StartResponseTimerEv, .-_ZN8opendnp311LinkContext18StartResponseTimerEv
	.align	2
	.p2align 4,,11
	.global	_ZN8opendnp311LinkContext19StartKeepAliveTimerERKN7openpal18MonotonicTimestampE
	.type	_ZN8opendnp311LinkContext19StartKeepAliveTimerERKN7openpal18MonotonicTimestampE, %function
_ZN8opendnp311LinkContext19StartKeepAliveTimerERKN7openpal18MonotonicTimestampE:
.LFB2462:
	.cfi_startproc
	.cfi_personality 0x9b,DW.ref.__gxx_personality_v0
	.cfi_lsda 0x1b,.LLSDA2462
	stp	x29, x30, [sp, -80]!
	.cfi_def_cfa_offset 80
	.cfi_offset 29, -80
	.cfi_offset 30, -72
	adrp	x2, :got:__stack_chk_guard
	mov	x3, x0
	mov	x29, sp
	ldr	x2, [x2, #:got_lo12:__stack_chk_guard]
	stp	x19, x20, [sp, 16]
	.cfi_offset 19, -64
	.cfi_offset 20, -56
	adrp	x4, _ZNSt17_Function_handlerIFvvEZN7openpal8TimerRef5StartIZN8opendnp311LinkContext19StartKeepAliveTimerERKNS1_18MonotonicTimestampEEUlvE_EEbS8_RKT_EUlvE_E9_M_invokeERKSt9_Any_data
	ldr	x5, [x2]
	str	x5, [sp, 72]
	mov	x5, 0
	add	x4, x4, :lo12:_ZNSt17_Function_handlerIFvvEZN7openpal8TimerRef5StartIZN8opendnp311LinkContext19StartKeepAliveTimerERKNS1_18MonotonicTimestampEEUlvE_EEbS8_RKT_EUlvE_E9_M_invokeERKSt9_Any_data
	adrp	x5, _ZNSt17_Function_handlerIFvvEZN7openpal8TimerRef5StartIZN8opendnp311LinkContext19StartKeepAliveTimerERKNS1_18MonotonicTimestampEEUlvE_EEbS8_RKT_EUlvE_E10_M_managerERSt9_Any_dataRKSF_St18_Manager_operation
	add	x5, x5, :lo12:_ZNSt17_Function_handlerIFvvEZN7openpal8TimerRef5StartIZN8opendnp311LinkContext19StartKeepAliveTimerERKNS1_18MonotonicTimestampEEUlvE_EEbS8_RKT_EUlvE_E10_M_managerERSt9_Any_dataRKSF_St18_Manager_operation
	add	x19, sp, 40
	add	x0, x0, 488
	mov	x2, x19
	stp	x0, x3, [sp, 40]
	stp	x5, x4, [sp, 56]
.LEHB2:
	bl	_ZN7openpal8TimerRef11StartActionERKNS_18MonotonicTimestampERKSt8functionIFvvEE
.LEHE2:
	ldr	x3, [sp, 56]
	cbz	x3, .L173
	mov	x1, x19
	mov	x0, x19
	mov	w2, 3
	blr	x3
.L173:
	adrp	x0, :got:__stack_chk_guard
	ldr	x0, [x0, #:got_lo12:__stack_chk_guard]
	ldr	x2, [sp, 72]
	ldr	x1, [x0]
	subs	x2, x2, x1
	mov	x1, 0
	bne	.L186
	ldp	x19, x20, [sp, 16]
	ldp	x29, x30, [sp], 80
	.cfi_remember_state
	.cfi_restore 30
	.cfi_restore 29
	.cfi_restore 19
	.cfi_restore 20
	.cfi_def_cfa_offset 0
	ret
.L186:
	.cfi_restore_state
	bl	__stack_chk_fail
.L178:
	ldr	x3, [sp, 56]
	mov	x20, x0
	cbz	x3, .L176
	mov	x1, x19
	mov	x0, x19
	mov	w2, 3
	blr	x3
.L176:
	mov	x0, x20
.LEHB3:
	bl	_Unwind_Resume
.LEHE3:
	.cfi_endproc
.LFE2462:
	.section	.gcc_except_table
.LLSDA2462:
	.byte	0xff
	.byte	0xff
	.byte	0x1
	.uleb128 .LLSDACSE2462-.LLSDACSB2462
.LLSDACSB2462:
	.uleb128 .LEHB2-.LFB2462
	.uleb128 .LEHE2-.LEHB2
	.uleb128 .L178-.LFB2462
	.uleb128 0
	.uleb128 .LEHB3-.LFB2462
	.uleb128 .LEHE3-.LEHB3
	.uleb128 0
	.uleb128 0
.LLSDACSE2462:
	.text
	.size	_ZN8opendnp311LinkContext19StartKeepAliveTimerERKN7openpal18MonotonicTimestampE, .-_ZN8opendnp311LinkContext19StartKeepAliveTimerERKN7openpal18MonotonicTimestampE
	.align	2
	.p2align 4,,11
	.global	_ZN8opendnp311LinkContext18OnKeepAliveTimeoutEv
	.type	_ZN8opendnp311LinkContext18OnKeepAliveTimeoutEv, %function
_ZN8opendnp311LinkContext18OnKeepAliveTimeoutEv:
.LFB2458:
	.cfi_startproc
	stp	x29, x30, [sp, -64]!
	.cfi_def_cfa_offset 64
	.cfi_offset 29, -64
	.cfi_offset 30, -56
	adrp	x1, :got:__stack_chk_guard
	mov	x29, sp
	str	x19, [sp, 16]
	.cfi_offset 19, -48
	mov	x19, x0
	ldr	x0, [x0, 456]
	ldr	x1, [x1, #:got_lo12:__stack_chk_guard]
	ldr	x2, [x1]
	str	x2, [sp, 56]
	mov	x2, 0
	ldr	x1, [x0]
	ldr	x1, [x1, 16]
	blr	x1
	str	x0, [sp, 40]
	ldr	x1, [x19, 512]
	ldr	x2, [x19, 432]
	sub	x1, x0, x1
	cmp	x2, x1
	bgt	.L188
	mov	w1, 1
	strb	w1, [x19, 508]
	str	x0, [x19, 512]
.L188:
	add	x1, x19, 432
	add	x0, sp, 40
	bl	_ZNK7openpal18MonotonicTimestamp3AddERKNS_12TimeDurationE
	mov	x2, x0
	add	x1, sp, 48
	mov	x0, x19
	str	x2, [sp, 48]
	bl	_ZN8opendnp311LinkContext19StartKeepAliveTimerERKN7openpal18MonotonicTimestampE
	mov	x0, x19
	bl	_ZN8opendnp311LinkContext20TryStartTransmissionEv
	adrp	x0, :got:__stack_chk_guard
	ldr	x0, [x0, #:got_lo12:__stack_chk_guard]
	ldr	x2, [sp, 56]
	ldr	x1, [x0]
	subs	x2, x2, x1
	mov	x1, 0
	bne	.L191
	ldr	x19, [sp, 16]
	ldp	x29, x30, [sp], 64
	.cfi_remember_state
	.cfi_restore 30
	.cfi_restore 29
	.cfi_restore 19
	.cfi_def_cfa_offset 0
	ret
.L191:
	.cfi_restore_state
	bl	__stack_chk_fail
	.cfi_endproc
.LFE2458:
	.size	_ZN8opendnp311LinkContext18OnKeepAliveTimeoutEv, .-_ZN8opendnp311LinkContext18OnKeepAliveTimeoutEv
	.align	2
	.p2align 4,,11
	.type	_ZNSt17_Function_handlerIFvvEZN7openpal8TimerRef5StartIZN8opendnp311LinkContext19StartKeepAliveTimerERKNS1_18MonotonicTimestampEEUlvE_EEbS8_RKT_EUlvE_E9_M_invokeERKSt9_Any_data, %function
_ZNSt17_Function_handlerIFvvEZN7openpal8TimerRef5StartIZN8opendnp311LinkContext19StartKeepAliveTimerERKNS1_18MonotonicTimestampEEUlvE_EEbS8_RKT_EUlvE_E9_M_invokeERKSt9_Any_data:
.LFB3013:
	.cfi_startproc
	ldp	x1, x0, [x0]
	str	xzr, [x1, 8]
	b	_ZN8opendnp311LinkContext18OnKeepAliveTimeoutEv
	.cfi_endproc
.LFE3013:
	.size	_ZNSt17_Function_handlerIFvvEZN7openpal8TimerRef5StartIZN8opendnp311LinkContext19StartKeepAliveTimerERKNS1_18MonotonicTimestampEEUlvE_EEbS8_RKT_EUlvE_E9_M_invokeERKSt9_Any_data, .-_ZNSt17_Function_handlerIFvvEZN7openpal8TimerRef5StartIZN8opendnp311LinkContext19StartKeepAliveTimerERKNS1_18MonotonicTimestampEEUlvE_EEbS8_RKT_EUlvE_E9_M_invokeERKSt9_Any_data
	.section	.rodata.str1.8
	.align	3
.LC5:
	.string	"Layer already online"
	.align	3
.LC6:
	.string	"/home/jaehyun/OpenPLC_v3/utils/dnp3_src/cpp/libs/src/opendnp3/link/LinkContext.cpp(68)"
	.text
	.align	2
	.p2align 4,,11
	.global	_ZN8opendnp311LinkContext14OnLowerLayerUpEv
	.type	_ZN8opendnp311LinkContext14OnLowerLayerUpEv, %function
_ZN8opendnp311LinkContext14OnLowerLayerUpEv:
.LFB2430:
	.cfi_startproc
	stp	x29, x30, [sp, -80]!
	.cfi_def_cfa_offset 80
	.cfi_offset 29, -80
	.cfi_offset 30, -72
	adrp	x1, :got:__stack_chk_guard
	mov	x29, sp
	ldr	x1, [x1, #:got_lo12:__stack_chk_guard]
	stp	x19, x20, [sp, 16]
	.cfi_offset 19, -64
	.cfi_offset 20, -56
	mov	x19, x0
	ldrb	w0, [x0, 506]
	ldr	x2, [x1]
	str	x2, [sp, 72]
	mov	x2, 0
	cbnz	w0, .L203
	ldr	x0, [x19, 456]
	ldr	x1, [x0]
	ldr	x1, [x1, 16]
	blr	x1
	mov	x2, x0
	mov	w0, 1
	strb	w0, [x19, 506]
	str	x2, [x19, 512]
	add	x1, x19, 432
	add	x0, sp, 56
	str	x2, [sp, 56]
	bl	_ZNK7openpal18MonotonicTimestamp3AddERKNS_12TimeDurationE
	mov	x2, x0
	add	x1, sp, 64
	mov	x0, x19
	str	x2, [sp, 64]
	bl	_ZN8opendnp311LinkContext19StartKeepAliveTimerERKN7openpal18MonotonicTimestampE
	ldr	x0, [x19, 560]
	adrp	x1, :got:_ZN8opendnp313ILinkListener13OnStateChangeENS_10LinkStatusE
	ldr	x1, [x1, #:got_lo12:_ZN8opendnp313ILinkListener13OnStateChangeENS_10LinkStatusE]
	ldr	x2, [x0]
	ldr	x2, [x2]
	cmp	x2, x1
	bne	.L204
.L196:
	ldr	x0, [x19, 576]
	ldr	x1, [x0]
	ldr	x1, [x1, 16]
	blr	x1
	mov	w0, 1
.L195:
	adrp	x1, :got:__stack_chk_guard
	ldr	x1, [x1, #:got_lo12:__stack_chk_guard]
	ldr	x3, [sp, 72]
	ldr	x2, [x1]
	subs	x3, x3, x2
	mov	x2, 0
	bne	.L205
	ldp	x19, x20, [sp, 16]
	ldp	x29, x30, [sp], 80
	.cfi_remember_state
	.cfi_restore 30
	.cfi_restore 29
	.cfi_restore 19
	.cfi_restore 20
	.cfi_def_cfa_offset 0
	ret
	.p2align 2,,3
.L203:
	.cfi_restore_state
	add	x19, x19, 376
	str	x21, [sp, 32]
	.cfi_offset 21, -48
	add	x21, sp, 64
	mov	x0, x19
	mov	x1, x21
	mov	w20, 2
	str	w20, [sp, 64]
	bl	_ZNK7openpal6Logger9IsEnabledERKNS_10LogFiltersE
	ands	w0, w0, 255
	bne	.L206
	ldr	x21, [sp, 32]
	.cfi_restore 21
	b	.L195
	.p2align 2,,3
.L206:
	.cfi_offset 21, -48
	mov	x1, x21
	mov	x0, x19
	adrp	x3, .LC5
	adrp	x2, .LC6
	add	x3, x3, :lo12:.LC5
	add	x2, x2, :lo12:.LC6
	str	w20, [sp, 64]
	bl	_ZN7openpal6Logger3LogERKNS_10LogFiltersEPKcS5_
	mov	w0, 0
	ldr	x21, [sp, 32]
	.cfi_restore 21
	b	.L195
	.p2align 2,,3
.L204:
	mov	w1, 0
	blr	x2
	b	.L196
.L205:
	str	x21, [sp, 32]
	.cfi_offset 21, -48
	bl	__stack_chk_fail
	.cfi_endproc
.LFE2430:
	.size	_ZN8opendnp311LinkContext14OnLowerLayerUpEv, .-_ZN8opendnp311LinkContext14OnLowerLayerUpEv
	.align	2
	.p2align 4,,11
	.global	_ZN8opendnp311LinkContext11CancelTimerEv
	.type	_ZN8opendnp311LinkContext11CancelTimerEv, %function
_ZN8opendnp311LinkContext11CancelTimerEv:
.LFB2464:
	.cfi_startproc
	add	x0, x0, 472
	b	_ZN7openpal8TimerRef6CancelEv
	.cfi_endproc
.LFE2464:
	.size	_ZN8opendnp311LinkContext11CancelTimerEv, .-_ZN8opendnp311LinkContext11CancelTimerEv
	.align	2
	.p2align 4,,11
	.global	_ZN8opendnp311LinkContext13FailKeepAliveEb
	.type	_ZN8opendnp311LinkContext13FailKeepAliveEb, %function
_ZN8opendnp311LinkContext13FailKeepAliveEb:
.LFB2465:
	.cfi_startproc
	tst	w1, 255
	beq	.L208
	ldr	x0, [x0, 560]
	adrp	x1, :got:_ZN8opendnp313ILinkListener18OnKeepAliveFailureEv
	ldr	x1, [x1, #:got_lo12:_ZN8opendnp313ILinkListener18OnKeepAliveFailureEv]
	ldr	x2, [x0]
	ldr	x2, [x2, 16]
	cmp	x2, x1
	bne	.L213
.L208:
	ret
	.p2align 2,,3
.L213:
	mov	x16, x2
	br	x16
	.cfi_endproc
.LFE2465:
	.size	_ZN8opendnp311LinkContext13FailKeepAliveEb, .-_ZN8opendnp311LinkContext13FailKeepAliveEb
	.align	2
	.p2align 4,,11
	.global	_ZN8opendnp311LinkContext17CompleteKeepAliveEv
	.type	_ZN8opendnp311LinkContext17CompleteKeepAliveEv, %function
_ZN8opendnp311LinkContext17CompleteKeepAliveEv:
.LFB2466:
	.cfi_startproc
	ldr	x0, [x0, 560]
	adrp	x1, :got:_ZN8opendnp313ILinkListener18OnKeepAliveSuccessEv
	ldr	x1, [x1, #:got_lo12:_ZN8opendnp313ILinkListener18OnKeepAliveSuccessEv]
	ldr	x2, [x0]
	ldr	x2, [x2, 24]
	cmp	x2, x1
	bne	.L216
	ret
	.p2align 2,,3
.L216:
	mov	x16, x2
	br	x16
	.cfi_endproc
.LFE2466:
	.size	_ZN8opendnp311LinkContext17CompleteKeepAliveEv, .-_ZN8opendnp311LinkContext17CompleteKeepAliveEv
	.section	.rodata.str1.8
	.align	3
.LC7:
	.string	"Master frame received for master"
	.align	3
.LC8:
	.string	"Outstation frame received for outstation"
	.align	3
.LC9:
	.string	"/home/jaehyun/OpenPLC_v3/utils/dnp3_src/cpp/libs/src/opendnp3/link/LinkContext.cpp(395)"
	.align	3
.LC10:
	.string	"Frame for unknown destintation"
	.align	3
.LC11:
	.string	"/home/jaehyun/OpenPLC_v3/utils/dnp3_src/cpp/libs/src/opendnp3/link/LinkContext.cpp(402)"
	.align	3
.LC12:
	.string	"Frame from unknwon source"
	.align	3
.LC13:
	.string	"/home/jaehyun/OpenPLC_v3/utils/dnp3_src/cpp/libs/src/opendnp3/link/LinkContext.cpp(409)"
	.text
	.align	2
	.p2align 4,,11
	.global	_ZN8opendnp311LinkContext8ValidateEbtt
	.type	_ZN8opendnp311LinkContext8ValidateEbtt, %function
_ZN8opendnp311LinkContext8ValidateEbtt:
.LFB2468:
	.cfi_startproc
	stp	x29, x30, [sp, -64]!
	.cfi_def_cfa_offset 64
	.cfi_offset 29, -64
	.cfi_offset 30, -56
	adrp	x5, :got:__stack_chk_guard
	mov	x4, x0
	mov	x29, sp
	ldr	x5, [x5, #:got_lo12:__stack_chk_guard]
	stp	x19, x20, [sp, 16]
	.cfi_offset 19, -48
	.cfi_offset 20, -40
	ldrb	w19, [x0, 408]
	ldr	x0, [x5]
	str	x0, [sp, 56]
	mov	x0, 0
	cmp	w19, w1, uxtb
	beq	.L235
	ldrh	w0, [x4, 416]
	and	w3, w3, 65535
	cmp	w0, w3
	bne	.L236
	ldrh	w1, [x4, 418]
	and	w2, w2, 65535
	mov	w0, 1
	cmp	w1, w2
	bne	.L237
.L220:
	adrp	x1, :got:__stack_chk_guard
	ldr	x1, [x1, #:got_lo12:__stack_chk_guard]
	ldr	x3, [sp, 56]
	ldr	x2, [x1]
	subs	x3, x3, x2
	mov	x2, 0
	bne	.L238
	ldp	x19, x20, [sp, 16]
	ldp	x29, x30, [sp], 64
	.cfi_remember_state
	.cfi_restore 30
	.cfi_restore 29
	.cfi_restore 19
	.cfi_restore 20
	.cfi_def_cfa_offset 0
	ret
	.p2align 2,,3
.L236:
	.cfi_restore_state
	ldr	w2, [x4, 528]
	add	x20, x4, 376
	stp	x21, x22, [sp, 32]
	.cfi_offset 22, -24
	.cfi_offset 21, -32
	add	x21, sp, 48
	add	w2, w2, 1
	str	w2, [x4, 528]
	mov	w19, 4
	mov	x0, x20
	mov	x1, x21
	str	w19, [sp, 48]
	bl	_ZNK7openpal6Logger9IsEnabledERKNS_10LogFiltersE
	tst	w0, 255
	bne	.L239
.L234:
	mov	w0, 0
	ldp	x21, x22, [sp, 32]
	.cfi_restore 22
	.cfi_restore 21
	b	.L220
	.p2align 2,,3
.L237:
	ldr	w2, [x4, 532]
	add	x20, x4, 376
	stp	x21, x22, [sp, 32]
	.cfi_offset 22, -24
	.cfi_offset 21, -32
	add	x21, sp, 48
	add	w2, w2, 1
	str	w2, [x4, 532]
	mov	w19, 4
	mov	x0, x20
	mov	x1, x21
	str	w19, [sp, 48]
	bl	_ZNK7openpal6Logger9IsEnabledERKNS_10LogFiltersE
	tst	w0, 255
	beq	.L234
	mov	x1, x21
	mov	x0, x20
	adrp	x3, .LC12
	adrp	x2, .LC13
	add	x3, x3, :lo12:.LC12
	add	x2, x2, :lo12:.LC13
	str	w19, [sp, 48]
	bl	_ZN7openpal6Logger3LogERKNS_10LogFiltersEPKcS5_
	b	.L234
	.p2align 2,,3
.L239:
	mov	x1, x21
	mov	x0, x20
	adrp	x3, .LC10
	adrp	x2, .LC11
	add	x3, x3, :lo12:.LC10
	add	x2, x2, :lo12:.LC11
	str	w19, [sp, 48]
	bl	_ZN7openpal6Logger3LogERKNS_10LogFiltersEPKcS5_
	mov	w0, 0
	ldp	x21, x22, [sp, 32]
	.cfi_restore 22
	.cfi_restore 21
	b	.L220
	.p2align 2,,3
.L235:
	ldr	w2, [x4, 524]
	mov	w20, 4
	stp	x21, x22, [sp, 32]
	.cfi_offset 22, -24
	.cfi_offset 21, -32
	add	x21, x4, 376
	add	w2, w2, 1
	str	w2, [x4, 524]
	add	x22, sp, 48
	mov	x0, x21
	mov	x1, x22
	str	w20, [sp, 48]
	bl	_ZNK7openpal6Logger9IsEnabledERKNS_10LogFiltersE
	tst	w0, 255
	beq	.L234
	cmp	w19, 0
	adrp	x2, .LC8
	adrp	x3, .LC7
	add	x2, x2, :lo12:.LC8
	add	x3, x3, :lo12:.LC7
	mov	x0, x21
	mov	x1, x22
	csel	x3, x3, x2, ne
	adrp	x2, .LC9
	add	x2, x2, :lo12:.LC9
	str	w20, [sp, 48]
	bl	_ZN7openpal6Logger3LogERKNS_10LogFiltersEPKcS5_
	mov	w0, 0
	ldp	x21, x22, [sp, 32]
	.cfi_restore 22
	.cfi_restore 21
	b	.L220
.L238:
	stp	x21, x22, [sp, 32]
	.cfi_offset 22, -24
	.cfi_offset 21, -32
	bl	__stack_chk_fail
	.cfi_endproc
.LFE2468:
	.size	_ZN8opendnp311LinkContext8ValidateEbtt, .-_ZN8opendnp311LinkContext8ValidateEbtt
	.section	.rodata.str1.8
	.align	3
.LC14:
	.string	"/home/jaehyun/OpenPLC_v3/utils/dnp3_src/cpp/libs/src/opendnp3/link/LinkContext.cpp(344)"
	.text
	.align	2
	.p2align 4,,11
	.global	_ZN8opendnp311LinkContext7OnFrameERKNS_16LinkHeaderFieldsERKN7openpal6RSliceE
	.type	_ZN8opendnp311LinkContext7OnFrameERKNS_16LinkHeaderFieldsERKN7openpal6RSliceE, %function
_ZN8opendnp311LinkContext7OnFrameERKNS_16LinkHeaderFieldsERKN7openpal6RSliceE:
.LFB2467:
	.cfi_startproc
	stp	x29, x30, [sp, -64]!
	.cfi_def_cfa_offset 64
	.cfi_offset 29, -64
	.cfi_offset 30, -56
	adrp	x3, :got:__stack_chk_guard
	mov	x29, sp
	ldr	x3, [x3, #:got_lo12:__stack_chk_guard]
	stp	x19, x20, [sp, 16]
	.cfi_offset 19, -48
	.cfi_offset 20, -40
	mov	x20, x1
	stp	x21, x22, [sp, 32]
	.cfi_offset 21, -32
	.cfi_offset 22, -24
	mov	x19, x0
	ldrb	w22, [x0, 506]
	ldr	x1, [x3]
	str	x1, [sp, 56]
	mov	x1, 0
	cbz	w22, .L264
	ldrb	w1, [x20, 1]
	mov	x21, x2
	ldrh	w3, [x20, 4]
	ldrh	w2, [x20, 6]
	bl	_ZN8opendnp311LinkContext8ValidateEbtt
	ands	w22, w0, 255
	beq	.L263
	ldr	x0, [x19, 456]
	ldr	x1, [x0]
	ldr	x1, [x1, 16]
	blr	x1
	ldrb	w4, [x20]
	str	x0, [x19, 512]
	cmp	w4, 64
	beq	.L245
	bhi	.L246
	cmp	w4, 11
	beq	.L247
	bls	.L265
	cmp	w4, 15
	bne	.L263
	ldr	x0, [x19, 544]
	mov	x1, x19
	ldrb	w2, [x20, 3]
	ldr	x3, [x0]
	ldr	x3, [x3, 24]
	blr	x3
	str	x0, [x19, 544]
	b	.L243
	.p2align 2,,3
.L264:
	add	x19, x0, 376
	add	x21, sp, 48
	mov	w20, 2
	mov	x0, x19
	mov	x1, x21
	str	w20, [sp, 48]
	bl	_ZNK7openpal6Logger9IsEnabledERKNS_10LogFiltersE
	tst	w0, 255
	bne	.L242
.L263:
	mov	w22, 0
.L243:
	adrp	x1, :got:__stack_chk_guard
	ldr	x1, [x1, #:got_lo12:__stack_chk_guard]
	ldr	x0, [sp, 56]
	ldr	x2, [x1]
	subs	x0, x0, x2
	mov	x2, 0
	bne	.L266
	mov	w0, w22
	ldp	x19, x20, [sp, 16]
	ldp	x21, x22, [sp, 32]
	ldp	x29, x30, [sp], 64
	.cfi_remember_state
	.cfi_restore 30
	.cfi_restore 29
	.cfi_restore 21
	.cfi_restore 22
	.cfi_restore 19
	.cfi_restore 20
	.cfi_def_cfa_offset 0
	ret
	.p2align 2,,3
.L246:
	.cfi_restore_state
	cmp	w4, 68
	beq	.L252
	bls	.L267
	cmp	w4, 73
	bne	.L263
	ldr	x0, [x19, 552]
	mov	x1, x19
	ldr	x2, [x0]
	ldr	x2, [x2, 8]
	blr	x2
	str	x0, [x19, 552]
	b	.L243
	.p2align 2,,3
.L265:
	cbz	w4, .L249
	cmp	w4, 1
	bne	.L263
	ldr	x0, [x19, 544]
	mov	x1, x19
	ldrb	w2, [x20, 3]
	ldr	x3, [x0]
	ldr	x3, [x3, 8]
	blr	x3
	str	x0, [x19, 544]
	b	.L243
	.p2align 2,,3
.L267:
	cmp	w4, 66
	beq	.L254
	cmp	w4, 67
	bne	.L263
	ldr	x0, [x19, 552]
	mov	x3, x21
	ldrb	w2, [x20, 2]
	mov	x1, x19
	ldr	x4, [x0]
	ldr	x4, [x4, 24]
	blr	x4
	str	x0, [x19, 552]
	b	.L243
	.p2align 2,,3
.L242:
	mov	x1, x21
	mov	x0, x19
	adrp	x3, .LC0
	adrp	x2, .LC14
	add	x3, x3, :lo12:.LC0
	add	x2, x2, :lo12:.LC14
	str	w20, [sp, 48]
	bl	_ZN7openpal6Logger3LogERKNS_10LogFiltersEPKcS5_
	b	.L243
	.p2align 2,,3
.L254:
	ldr	x0, [x19, 552]
	mov	x1, x19
	ldrb	w2, [x20, 2]
	ldr	x3, [x0]
	ldr	x3, [x3, 16]
	blr	x3
	str	x0, [x19, 552]
	b	.L243
	.p2align 2,,3
.L245:
	ldr	x0, [x19, 552]
	mov	x1, x19
	ldr	x2, [x0]
	ldr	x2, [x2]
	blr	x2
	str	x0, [x19, 552]
	b	.L243
	.p2align 2,,3
.L247:
	ldr	x0, [x19, 544]
	mov	x1, x19
	ldrb	w2, [x20, 3]
	ldr	x3, [x0]
	ldr	x3, [x3, 16]
	blr	x3
	str	x0, [x19, 544]
	b	.L243
	.p2align 2,,3
.L252:
	mov	x1, x21
	mov	x0, x19
	bl	_ZN8opendnp311LinkContext10PushDataUpERKN7openpal6RSliceE
	b	.L243
	.p2align 2,,3
.L249:
	ldr	x0, [x19, 544]
	mov	x1, x19
	ldrb	w2, [x20, 3]
	ldr	x3, [x0]
	ldr	x3, [x3]
	blr	x3
	str	x0, [x19, 544]
	b	.L243
.L266:
	bl	__stack_chk_fail
	.cfi_endproc
.LFE2467:
	.size	_ZN8opendnp311LinkContext7OnFrameERKNS_16LinkHeaderFieldsERKN7openpal6RSliceE, .-_ZN8opendnp311LinkContext7OnFrameERKNS_16LinkHeaderFieldsERKN7openpal6RSliceE
	.align	2
	.p2align 4,,11
	.global	_ZN8opendnp311LinkContext12TryPendingTxERN7openpal8SettableINS1_6RSliceEEEb
	.type	_ZN8opendnp311LinkContext12TryPendingTxERN7openpal8SettableINS1_6RSliceEEEb, %function
_ZN8opendnp311LinkContext12TryPendingTxERN7openpal8SettableINS1_6RSliceEEEb:
.LFB2469:
	.cfi_startproc
	stp	x29, x30, [sp, -80]!
	.cfi_def_cfa_offset 80
	.cfi_offset 29, -80
	.cfi_offset 30, -72
	adrp	x3, :got:__stack_chk_guard
	mov	x29, sp
	ldr	x3, [x3, #:got_lo12:__stack_chk_guard]
	stp	x19, x20, [sp, 16]
	.cfi_offset 19, -64
	.cfi_offset 20, -56
	mov	x19, x0
	stp	x21, x22, [sp, 32]
	.cfi_offset 21, -48
	.cfi_offset 22, -40
	mov	x20, x1
	ldrb	w0, [x0, 448]
	ldr	x1, [x3]
	str	x1, [sp, 72]
	mov	x1, 0
	mov	w21, 0
	cbnz	w0, .L269
	ldrb	w21, [x20]
	cbnz	w21, .L276
.L269:
	adrp	x0, :got:__stack_chk_guard
	ldr	x0, [x0, #:got_lo12:__stack_chk_guard]
	ldr	x2, [sp, 72]
	ldr	x1, [x0]
	subs	x2, x2, x1
	mov	x1, 0
	bne	.L277
	mov	w0, w21
	ldp	x19, x20, [sp, 16]
	ldp	x21, x22, [sp, 32]
	ldp	x29, x30, [sp], 80
	.cfi_remember_state
	.cfi_restore 30
	.cfi_restore 29
	.cfi_restore 21
	.cfi_restore 22
	.cfi_restore 19
	.cfi_restore 20
	.cfi_def_cfa_offset 0
	ret
	.p2align 2,,3
.L276:
	.cfi_restore_state
	ldr	x0, [x19, 536]
	and	w22, w2, 255
	ldr	w5, [x20, 8]
	add	x1, sp, 56
	ldr	x4, [x20, 16]
	ldr	x3, [x0]
	str	w5, [sp, 56]
	ldr	x2, [x19, 592]
	str	x4, [sp, 64]
	ldr	x3, [x3, 16]
	blr	x3
	strb	wzr, [x20]
	mov	w0, 2
	sub	w0, w0, w22
	strb	w0, [x19, 448]
	b	.L269
.L277:
	bl	__stack_chk_fail
	.cfi_endproc
.LFE2469:
	.size	_ZN8opendnp311LinkContext12TryPendingTxERN7openpal8SettableINS1_6RSliceEEEb, .-_ZN8opendnp311LinkContext12TryPendingTxERN7openpal8SettableINS1_6RSliceEEEb
	.section	.rodata.str1.8
	.align	3
.LC15:
	.string	"Unknown transmission callback"
	.align	3
.LC16:
	.string	"/home/jaehyun/OpenPLC_v3/utils/dnp3_src/cpp/libs/src/opendnp3/link/LinkContext.cpp(136)"
	.text
	.align	2
	.p2align 4,,11
	.global	_ZN8opendnp311LinkContext16OnTransmitResultEb
	.type	_ZN8opendnp311LinkContext16OnTransmitResultEb, %function
_ZN8opendnp311LinkContext16OnTransmitResultEb:
.LFB2433:
	.cfi_startproc
	stp	x29, x30, [sp, -64]!
	.cfi_def_cfa_offset 64
	.cfi_offset 29, -64
	.cfi_offset 30, -56
	adrp	x2, :got:__stack_chk_guard
	mov	x29, sp
	ldr	x2, [x2, #:got_lo12:__stack_chk_guard]
	stp	x19, x20, [sp, 16]
	.cfi_offset 19, -48
	.cfi_offset 20, -40
	ldrb	w20, [x0, 448]
	stp	x21, x22, [sp, 32]
	.cfi_offset 21, -32
	.cfi_offset 22, -24
	and	w21, w1, 255
	mov	x19, x0
	ldr	x1, [x2]
	str	x1, [sp, 56]
	mov	x1, 0
	cbz	w20, .L287
	strb	wzr, [x0, 448]
	add	x1, x0, 352
	mov	w2, 0
	bl	_ZN8opendnp311LinkContext12TryPendingTxERN7openpal8SettableINS1_6RSliceEEEb
	add	x1, x19, 328
	mov	x0, x19
	mov	w2, 1
	bl	_ZN8opendnp311LinkContext12TryPendingTxERN7openpal8SettableINS1_6RSliceEEEb
	cmp	w20, 1
	beq	.L288
	ldr	x0, [x19, 552]
	mov	w2, w21
	mov	x1, x19
	mov	w20, 1
	ldr	x3, [x0]
	ldr	x3, [x3, 32]
	blr	x3
	str	x0, [x19, 552]
.L280:
	adrp	x0, :got:__stack_chk_guard
	ldr	x0, [x0, #:got_lo12:__stack_chk_guard]
	ldr	x2, [sp, 56]
	ldr	x1, [x0]
	subs	x2, x2, x1
	mov	x1, 0
	bne	.L289
	mov	w0, w20
	ldp	x19, x20, [sp, 16]
	ldp	x21, x22, [sp, 32]
	ldp	x29, x30, [sp], 64
	.cfi_remember_state
	.cfi_restore 30
	.cfi_restore 29
	.cfi_restore 21
	.cfi_restore 22
	.cfi_restore 19
	.cfi_restore 20
	.cfi_def_cfa_offset 0
	ret
	.p2align 2,,3
.L288:
	.cfi_restore_state
	ldr	x0, [x19, 544]
	mov	w2, w21
	mov	x1, x19
	ldr	x3, [x0]
	ldr	x3, [x3, 32]
	blr	x3
	str	x0, [x19, 544]
	b	.L280
	.p2align 2,,3
.L287:
	add	x19, x0, 376
	add	x22, sp, 48
	mov	x0, x19
	mov	x1, x22
	mov	w21, 2
	str	w21, [sp, 48]
	bl	_ZNK7openpal6Logger9IsEnabledERKNS_10LogFiltersE
	ands	w20, w0, 255
	beq	.L280
	mov	x1, x22
	mov	x0, x19
	adrp	x3, .LC15
	adrp	x2, .LC16
	add	x3, x3, :lo12:.LC15
	add	x2, x2, :lo12:.LC16
	mov	w20, 0
	str	w21, [sp, 48]
	bl	_ZN7openpal6Logger3LogERKNS_10LogFiltersEPKcS5_
	b	.L280
.L289:
	bl	__stack_chk_fail
	.cfi_endproc
.LFE2433:
	.size	_ZN8opendnp311LinkContext16OnTransmitResultEb, .-_ZN8opendnp311LinkContext16OnTransmitResultEb
	.section	.text._ZNSt16_Sp_counted_baseILN9__gnu_cxx12_Lock_policyE2EE10_M_releaseEv,"axG",@progbits,_ZNSt16_Sp_counted_baseILN9__gnu_cxx12_Lock_policyE2EE10_M_releaseEv,comdat
	.align	2
	.p2align 4,,11
	.weak	_ZNSt16_Sp_counted_baseILN9__gnu_cxx12_Lock_policyE2EE10_M_releaseEv
	.type	_ZNSt16_Sp_counted_baseILN9__gnu_cxx12_Lock_policyE2EE10_M_releaseEv, %function
_ZNSt16_Sp_counted_baseILN9__gnu_cxx12_Lock_policyE2EE10_M_releaseEv:
.LFB2900:
	.cfi_startproc
	stp	x29, x30, [sp, -32]!
	.cfi_def_cfa_offset 32
	.cfi_offset 29, -32
	.cfi_offset 30, -24
	mov	x29, sp
	stp	x19, x20, [sp, 16]
	.cfi_offset 19, -16
	.cfi_offset 20, -8
	adrp	x20, :got:__libc_single_threaded
	mov	x19, x0
	ldr	x0, [x20, #:got_lo12:__libc_single_threaded]
	ldrb	w0, [x0]
	cbz	w0, .L291
	ldr	w0, [x19, 8]
	sub	w1, w0, #1
	str	w1, [x19, 8]
.L292:
	cmp	w0, 1
	beq	.L299
.L290:
	ldp	x19, x20, [sp, 16]
	ldp	x29, x30, [sp], 32
	.cfi_remember_state
	.cfi_restore 30
	.cfi_restore 29
	.cfi_restore 19
	.cfi_restore 20
	.cfi_def_cfa_offset 0
	ret
	.p2align 2,,3
.L299:
	.cfi_restore_state
	ldr	x1, [x19]
	mov	x0, x19
	ldr	x1, [x1, 16]
	blr	x1
	ldr	x20, [x20, #:got_lo12:__libc_single_threaded]
	ldrb	w0, [x20]
	cbz	w0, .L295
	ldr	w0, [x19, 12]
	sub	w1, w0, #1
	str	w1, [x19, 12]
.L296:
	cmp	w0, 1
	bne	.L290
	ldr	x1, [x19]
	mov	x0, x19
	ldp	x19, x20, [sp, 16]
	ldp	x29, x30, [sp], 32
	.cfi_remember_state
	.cfi_restore 30
	.cfi_restore 29
	.cfi_restore 19
	.cfi_restore 20
	.cfi_def_cfa_offset 0
	ldr	x1, [x1, 24]
	mov	x16, x1
	br	x16
	.p2align 2,,3
.L291:
	.cfi_restore_state
	add	x1, x19, 8
	mov	w0, -1
	bl	__aarch64_ldadd4_acq_rel
	b	.L292
	.p2align 2,,3
.L295:
	add	x1, x19, 12
	mov	w0, -1
	bl	__aarch64_ldadd4_acq_rel
	b	.L296
	.cfi_endproc
.LFE2900:
	.size	_ZNSt16_Sp_counted_baseILN9__gnu_cxx12_Lock_policyE2EE10_M_releaseEv, .-_ZNSt16_Sp_counted_baseILN9__gnu_cxx12_Lock_policyE2EE10_M_releaseEv
	.text
	.align	2
	.p2align 4,,11
	.global	_ZN8opendnp311LinkContextC2ERKN7openpal6LoggerERKSt10shared_ptrINS1_9IExecutorEERKS5_INS_11IUpperLayerEERKS5_INS_13ILinkListenerEERNS_12ILinkSessionERKNS_10LinkConfigE
	.type	_ZN8opendnp311LinkContextC2ERKN7openpal6LoggerERKSt10shared_ptrINS1_9IExecutorEERKS5_INS_11IUpperLayerEERKS5_INS_13ILinkListenerEERNS_12ILinkSessionERKNS_10LinkConfigE, %function
_ZN8opendnp311LinkContextC2ERKN7openpal6LoggerERKSt10shared_ptrINS1_9IExecutorEERKS5_INS_11IUpperLayerEERKS5_INS_13ILinkListenerEERNS_12ILinkSessionERKNS_10LinkConfigE:
.LFB2428:
	.cfi_startproc
	.cfi_personality 0x9b,DW.ref.__gxx_personality_v0
	.cfi_lsda 0x1b,.LLSDA2428
	stp	x29, x30, [sp, -80]!
	.cfi_def_cfa_offset 80
	.cfi_offset 29, -80
	.cfi_offset 30, -72
	adrp	x8, :got:_ZTVN7openpal12StaticBufferILj292EEE
	adrp	x7, :got:_ZTVN7openpal12StaticBufferILj10EEE
	mov	x29, sp
	ldr	x8, [x8, #:got_lo12:_ZTVN7openpal12StaticBufferILj292EEE]
	stp	x19, x20, [sp, 16]
	.cfi_offset 19, -64
	.cfi_offset 20, -56
	mov	x19, x0
	ldr	x7, [x7, #:got_lo12:_ZTVN7openpal12StaticBufferILj10EEE]
	add	x8, x8, 16
	stp	x21, x22, [sp, 32]
	mov	x20, x2
	add	x7, x7, 16
	stp	x23, x24, [sp, 48]
	.cfi_offset 21, -48
	.cfi_offset 22, -40
	.cfi_offset 23, -32
	.cfi_offset 24, -24
	mov	x21, x4
	mov	x24, x1
	stp	x25, x26, [sp, 64]
	.cfi_offset 25, -16
	.cfi_offset 26, -8
	mov	x23, x6
	mov	x26, x3
	str	x8, [x0]
	mov	x25, x5
	str	x7, [x0, 304]
	add	x22, x0, 512
	strb	wzr, [x0, 328]
	add	x0, x0, 336
.LEHB4:
	bl	_ZN7openpal6RSliceC1Ev
	strb	wzr, [x19, 352]
	add	x0, x19, 360
	bl	_ZN7openpal6RSliceC1Ev
.LEHE4:
	ldr	q0, [x24]
	umov	x1, v0.d[1]
	str	q0, [x22, -136]
	cbz	x1, .L301
	adrp	x0, :got:__libc_single_threaded
	ldr	x0, [x0, #:got_lo12:__libc_single_threaded]
	ldrb	w0, [x0]
	cbz	w0, .L302
	ldr	w0, [x1, 8]
	add	w0, w0, 1
	str	w0, [x1, 8]
.L301:
	ldr	q0, [x24, 16]
	umov	x1, v0.d[1]
	str	q0, [x22, -120]
	cbz	x1, .L303
	adrp	x0, :got:__libc_single_threaded
	ldr	x0, [x0, #:got_lo12:__libc_single_threaded]
	ldrb	w0, [x0]
	cbz	w0, .L304
	ldr	w0, [x1, 8]
	add	w0, w0, 1
	str	w0, [x1, 8]
.L303:
	ldp	q0, q1, [x23]
	add	x0, x19, 408
	stp	q0, q1, [x0]
	str	xzr, [x19, 440]
	strb	wzr, [x19, 448]
	str	wzr, [x19, 452]
	ldr	q0, [x20]
	umov	x1, v0.d[1]
	str	q0, [x22, -56]
	cbz	x1, .L305
	adrp	x0, :got:__libc_single_threaded
	ldr	x0, [x0, #:got_lo12:__libc_single_threaded]
	ldrb	w0, [x0]
	cbz	w0, .L306
	ldr	w0, [x1, 8]
	add	w0, w0, 1
	str	w0, [x1, 8]
.L305:
	ldr	x1, [x20]
	add	x23, x19, 472
	mov	x0, x23
.LEHB5:
	bl	_ZN7openpal8TimerRefC1ERNS_9IExecutorE
.LEHE5:
	ldr	x1, [x20]
	add	x24, x19, 488
	mov	x0, x24
.LEHB6:
	bl	_ZN7openpal8TimerRefC1ERNS_9IExecutorE
.LEHE6:
	ldr	x0, [x20]
	strb	wzr, [x19, 508]
	ldr	x1, [x0]
	ldr	x1, [x1, 16]
	str	wzr, [x19, 504]
.LEHB7:
	blr	x1
.LEHE7:
	add	x4, x19, 536
	adrp	x3, :got:_ZN8opendnp39PLLS_Idle8instanceE
	adrp	x2, :got:_ZN8opendnp313SLLS_NotReset8instanceE
	ldr	x1, [x21, 8]
	str	x0, [x19, 512]
	ldr	x3, [x3, #:got_lo12:_ZN8opendnp39PLLS_Idle8instanceE]
	stp	xzr, xzr, [x22, 8]
	ldr	x2, [x2, #:got_lo12:_ZN8opendnp313SLLS_NotReset8instanceE]
	ldr	x0, [x21]
	stp	xzr, x3, [x4]
	stp	x2, x0, [x4, 16]
	str	x1, [x19, 568]
	cbz	x1, .L307
	adrp	x0, :got:__libc_single_threaded
	ldr	x0, [x0, #:got_lo12:__libc_single_threaded]
	ldrb	w0, [x0]
	cbz	w0, .L308
	ldr	w0, [x1, 8]
	add	w0, w0, 1
	str	w0, [x1, 8]
.L307:
	ldr	q0, [x26]
	umov	x1, v0.d[1]
	str	q0, [x19, 576]
	cbz	x1, .L309
	adrp	x0, :got:__libc_single_threaded
	ldr	x0, [x0, #:got_lo12:__libc_single_threaded]
	ldrb	w0, [x0]
	cbz	w0, .L310
	ldr	w0, [x1, 8]
	add	w0, w0, 1
	str	w0, [x1, 8]
.L309:
	ldp	x21, x22, [sp, 32]
	ldp	x23, x24, [sp, 48]
	str	x25, [x19, 592]
	ldp	x19, x20, [sp, 16]
	ldp	x25, x26, [sp, 64]
	ldp	x29, x30, [sp], 80
	.cfi_remember_state
	.cfi_restore 30
	.cfi_restore 29
	.cfi_restore 25
	.cfi_restore 26
	.cfi_restore 23
	.cfi_restore 24
	.cfi_restore 21
	.cfi_restore 22
	.cfi_restore 19
	.cfi_restore 20
	.cfi_def_cfa_offset 0
	ret
	.p2align 2,,3
.L302:
	.cfi_restore_state
	add	x1, x1, 8
	mov	w0, 1
	bl	__aarch64_ldadd4_acq_rel
	b	.L301
	.p2align 2,,3
.L310:
	add	x1, x1, 8
	mov	w0, 1
	bl	__aarch64_ldadd4_acq_rel
	ldp	x21, x22, [sp, 32]
	ldp	x23, x24, [sp, 48]
	str	x25, [x19, 592]
	ldp	x19, x20, [sp, 16]
	ldp	x25, x26, [sp, 64]
	ldp	x29, x30, [sp], 80
	.cfi_remember_state
	.cfi_restore 30
	.cfi_restore 29
	.cfi_restore 25
	.cfi_restore 26
	.cfi_restore 23
	.cfi_restore 24
	.cfi_restore 21
	.cfi_restore 22
	.cfi_restore 19
	.cfi_restore 20
	.cfi_def_cfa_offset 0
	ret
	.p2align 2,,3
.L308:
	.cfi_restore_state
	add	x1, x1, 8
	mov	w0, 1
	bl	__aarch64_ldadd4_acq_rel
	b	.L307
	.p2align 2,,3
.L304:
	add	x1, x1, 8
	mov	w0, 1
	bl	__aarch64_ldadd4_acq_rel
	b	.L303
	.p2align 2,,3
.L306:
	add	x1, x1, 8
	mov	w0, 1
	bl	__aarch64_ldadd4_acq_rel
	b	.L305
.L317:
	mov	x20, x0
	b	.L313
.L319:
	mov	x20, x0
	mov	x0, x24
	bl	_ZN7openpal8TimerRefD1Ev
.L312:
	mov	x0, x23
	bl	_ZN7openpal8TimerRefD1Ev
.L313:
	ldr	x0, [x19, 464]
	cbz	x0, .L314
	bl	_ZNSt16_Sp_counted_baseILN9__gnu_cxx12_Lock_policyE2EE10_M_releaseEv
.L314:
	ldr	x0, [x19, 400]
	cbz	x0, .L315
	bl	_ZNSt16_Sp_counted_baseILN9__gnu_cxx12_Lock_policyE2EE10_M_releaseEv
.L315:
	ldr	x0, [x19, 384]
	cbz	x0, .L316
	bl	_ZNSt16_Sp_counted_baseILN9__gnu_cxx12_Lock_policyE2EE10_M_releaseEv
.L316:
	mov	x0, x20
.LEHB8:
	bl	_Unwind_Resume
.LEHE8:
.L318:
	mov	x20, x0
	b	.L312
	.cfi_endproc
.LFE2428:
	.section	.gcc_except_table
.LLSDA2428:
	.byte	0xff
	.byte	0xff
	.byte	0x1
	.uleb128 .LLSDACSE2428-.LLSDACSB2428
.LLSDACSB2428:
	.uleb128 .LEHB4-.LFB2428
	.uleb128 .LEHE4-.LEHB4
	.uleb128 0
	.uleb128 0
	.uleb128 .LEHB5-.LFB2428
	.uleb128 .LEHE5-.LEHB5
	.uleb128 .L317-.LFB2428
	.uleb128 0
	.uleb128 .LEHB6-.LFB2428
	.uleb128 .LEHE6-.LEHB6
	.uleb128 .L318-.LFB2428
	.uleb128 0
	.uleb128 .LEHB7-.LFB2428
	.uleb128 .LEHE7-.LEHB7
	.uleb128 .L319-.LFB2428
	.uleb128 0
	.uleb128 .LEHB8-.LFB2428
	.uleb128 .LEHE8-.LEHB8
	.uleb128 0
	.uleb128 0
.LLSDACSE2428:
	.text
	.size	_ZN8opendnp311LinkContextC2ERKN7openpal6LoggerERKSt10shared_ptrINS1_9IExecutorEERKS5_INS_11IUpperLayerEERKS5_INS_13ILinkListenerEERNS_12ILinkSessionERKNS_10LinkConfigE, .-_ZN8opendnp311LinkContextC2ERKN7openpal6LoggerERKSt10shared_ptrINS1_9IExecutorEERKS5_INS_11IUpperLayerEERKS5_INS_13ILinkListenerEERNS_12ILinkSessionERKNS_10LinkConfigE
	.global	_ZN8opendnp311LinkContextC1ERKN7openpal6LoggerERKSt10shared_ptrINS1_9IExecutorEERKS5_INS_11IUpperLayerEERKS5_INS_13ILinkListenerEERNS_12ILinkSessionERKNS_10LinkConfigE
	.set	_ZN8opendnp311LinkContextC1ERKN7openpal6LoggerERKSt10shared_ptrINS1_9IExecutorEERKS5_INS_11IUpperLayerEERKS5_INS_13ILinkListenerEERNS_12ILinkSessionERKNS_10LinkConfigE,_ZN8opendnp311LinkContextC2ERKN7openpal6LoggerERKSt10shared_ptrINS1_9IExecutorEERKS5_INS_11IUpperLayerEERKS5_INS_13ILinkListenerEERNS_12ILinkSessionERKNS_10LinkConfigE
	.align	2
	.p2align 4,,11
	.global	_ZN8opendnp311LinkContext21CompleteSendOperationEb
	.type	_ZN8opendnp311LinkContext21CompleteSendOperationEb, %function
_ZN8opendnp311LinkContext21CompleteSendOperationEb:
.LFB2444:
	.cfi_startproc
	.cfi_personality 0x9b,DW.ref.__gxx_personality_v0
	.cfi_lsda 0x1b,.LLSDA2444
	stp	x29, x30, [sp, -112]!
	.cfi_def_cfa_offset 112
	.cfi_offset 29, -112
	.cfi_offset 30, -104
	adrp	x2, :got:__stack_chk_guard
	mov	x29, sp
	ldr	x2, [x2, #:got_lo12:__stack_chk_guard]
	stp	x19, x20, [sp, 16]
	.cfi_offset 19, -96
	.cfi_offset 20, -88
	mov	x20, x0
	stp	x21, x22, [sp, 32]
	.cfi_offset 21, -80
	.cfi_offset 22, -72
	and	w21, w1, 255
	stp	x23, x24, [sp, 48]
	.cfi_offset 23, -64
	.cfi_offset 24, -56
	ldr	x19, [x0, 584]
	ldr	x0, [x2]
	str	x0, [sp, 104]
	mov	x0, 0
	str	xzr, [x20, 440]
	ldr	x24, [x20, 576]
	cbz	x19, .L347
	adrp	x0, :got:__libc_single_threaded
	ldr	x0, [x0, #:got_lo12:__libc_single_threaded]
	ldrb	w0, [x0]
	cbz	w0, .L348
	ldr	w0, [x19, 8]
	add	w0, w0, 1
	str	w0, [x19, 8]
.L347:
	ldr	x22, [x20, 456]
	mov	x0, 24
	ldr	x1, [x22]
	stp	xzr, xzr, [sp, 72]
	stp	xzr, xzr, [sp, 88]
	ldr	x23, [x1, 40]
.LEHB9:
	bl	_Znwm
.LEHE9:
	stp	x24, x19, [x0]
	mov	x20, x0
	cbz	x19, .L349
	adrp	x0, :got:__libc_single_threaded
	ldr	x0, [x0, #:got_lo12:__libc_single_threaded]
	ldrb	w0, [x0]
	cbz	w0, .L350
	ldr	w0, [x19, 8]
	add	w0, w0, 1
	str	w0, [x19, 8]
.L349:
	adrp	x1, _ZNSt17_Function_handlerIFvvEZN8opendnp311LinkContext21CompleteSendOperationEbEUlvE_E9_M_invokeERKSt9_Any_data
	adrp	x0, _ZNSt17_Function_handlerIFvvEZN8opendnp311LinkContext21CompleteSendOperationEbEUlvE_E10_M_managerERSt9_Any_dataRKS5_St18_Manager_operation
	add	x1, x1, :lo12:_ZNSt17_Function_handlerIFvvEZN8opendnp311LinkContext21CompleteSendOperationEbEUlvE_E9_M_invokeERKSt9_Any_data
	add	x0, x0, :lo12:_ZNSt17_Function_handlerIFvvEZN8opendnp311LinkContext21CompleteSendOperationEbEUlvE_E10_M_managerERSt9_Any_dataRKS5_St18_Manager_operation
	strb	w21, [x20, 16]
	add	x24, sp, 72
	str	x20, [sp, 72]
	stp	x0, x1, [sp, 88]
	mov	x0, x22
	mov	x1, x24
.LEHB10:
	blr	x23
.LEHE10:
	ldr	x3, [sp, 88]
	cbz	x3, .L355
	mov	x1, x24
	mov	x0, x24
	mov	w2, 3
	blr	x3
.L355:
	cbz	x19, .L346
	adrp	x20, :got:__libc_single_threaded
	ldr	x0, [x20, #:got_lo12:__libc_single_threaded]
	ldrb	w0, [x0]
	cbz	w0, .L358
	ldr	w0, [x19, 8]
	sub	w1, w0, #1
	str	w1, [x19, 8]
.L359:
	cmp	w0, 1
	beq	.L391
.L346:
	adrp	x0, :got:__stack_chk_guard
	ldr	x0, [x0, #:got_lo12:__stack_chk_guard]
	ldr	x2, [sp, 104]
	ldr	x1, [x0]
	subs	x2, x2, x1
	mov	x1, 0
	bne	.L390
	ldp	x19, x20, [sp, 16]
	ldp	x21, x22, [sp, 32]
	ldp	x23, x24, [sp, 48]
	ldp	x29, x30, [sp], 112
	.cfi_remember_state
	.cfi_restore 30
	.cfi_restore 29
	.cfi_restore 23
	.cfi_restore 24
	.cfi_restore 21
	.cfi_restore 22
	.cfi_restore 19
	.cfi_restore 20
	.cfi_def_cfa_offset 0
	ret
	.p2align 2,,3
.L348:
	.cfi_restore_state
	add	x1, x19, 8
	mov	w0, 1
	bl	__aarch64_ldadd4_acq_rel
	b	.L347
	.p2align 2,,3
.L350:
	add	x1, x19, 8
	mov	w0, 1
	bl	__aarch64_ldadd4_acq_rel
	b	.L349
	.p2align 2,,3
.L391:
	ldr	x1, [x19]
	mov	x0, x19
	ldr	x1, [x1, 16]
	blr	x1
	ldr	x20, [x20, #:got_lo12:__libc_single_threaded]
	ldrb	w0, [x20]
	cbz	w0, .L361
	ldr	w0, [x19, 12]
	sub	w1, w0, #1
	str	w1, [x19, 12]
.L362:
	cmp	w0, 1
	bne	.L346
	adrp	x0, :got:__stack_chk_guard
	ldr	x0, [x0, #:got_lo12:__stack_chk_guard]
	ldr	x2, [sp, 104]
	ldr	x1, [x0]
	subs	x2, x2, x1
	mov	x1, 0
	bne	.L390
	ldr	x1, [x19]
	mov	x0, x19
	ldp	x19, x20, [sp, 16]
	ldr	x1, [x1, 24]
	ldp	x21, x22, [sp, 32]
	mov	x16, x1
	ldp	x23, x24, [sp, 48]
	ldp	x29, x30, [sp], 112
	.cfi_remember_state
	.cfi_restore 30
	.cfi_restore 29
	.cfi_restore 23
	.cfi_restore 24
	.cfi_restore 21
	.cfi_restore 22
	.cfi_restore 19
	.cfi_restore 20
	.cfi_def_cfa_offset 0
	br	x16
	.p2align 2,,3
.L358:
	.cfi_restore_state
	add	x1, x19, 8
	mov	w0, -1
	bl	__aarch64_ldadd4_acq_rel
	b	.L359
	.p2align 2,,3
.L361:
	add	x1, x19, 12
	mov	w0, -1
	bl	__aarch64_ldadd4_acq_rel
	b	.L362
.L390:
	bl	__stack_chk_fail
.L369:
	ldr	x3, [sp, 88]
	mov	x20, x0
	cbz	x3, .L354
	add	x1, sp, 72
	mov	w2, 3
	mov	x0, x1
	blr	x3
.L354:
	cbz	x19, .L366
.L392:
	mov	x0, x19
	bl	_ZNSt16_Sp_counted_baseILN9__gnu_cxx12_Lock_policyE2EE10_M_releaseEv
.L366:
	mov	x0, x20
.LEHB11:
	bl	_Unwind_Resume
.LEHE11:
.L368:
	ldr	x3, [sp, 88]
	mov	x20, x0
	cbz	x3, .L354
	mov	x1, x24
	mov	x0, x24
	mov	w2, 3
	blr	x3
	cbnz	x19, .L392
	b	.L366
	.cfi_endproc
.LFE2444:
	.section	.gcc_except_table
.LLSDA2444:
	.byte	0xff
	.byte	0xff
	.byte	0x1
	.uleb128 .LLSDACSE2444-.LLSDACSB2444
.LLSDACSB2444:
	.uleb128 .LEHB9-.LFB2444
	.uleb128 .LEHE9-.LEHB9
	.uleb128 .L369-.LFB2444
	.uleb128 0
	.uleb128 .LEHB10-.LFB2444
	.uleb128 .LEHE10-.LEHB10
	.uleb128 .L368-.LFB2444
	.uleb128 0
	.uleb128 .LEHB11-.LFB2444
	.uleb128 .LEHE11-.LEHB11
	.uleb128 0
	.uleb128 0
.LLSDACSE2444:
	.text
	.size	_ZN8opendnp311LinkContext21CompleteSendOperationEb, .-_ZN8opendnp311LinkContext21CompleteSendOperationEb
	.weak	_ZTSN7openpal12StaticBufferILj292EEE
	.section	.rodata._ZTSN7openpal12StaticBufferILj292EEE,"aG",@progbits,_ZTSN7openpal12StaticBufferILj292EEE,comdat
	.align	3
	.type	_ZTSN7openpal12StaticBufferILj292EEE, %object
	.size	_ZTSN7openpal12StaticBufferILj292EEE, 33
_ZTSN7openpal12StaticBufferILj292EEE:
	.string	"N7openpal12StaticBufferILj292EEE"
	.weak	_ZTIN7openpal12StaticBufferILj292EEE
	.section	.data.rel.ro._ZTIN7openpal12StaticBufferILj292EEE,"awG",@progbits,_ZTIN7openpal12StaticBufferILj292EEE,comdat
	.align	3
	.type	_ZTIN7openpal12StaticBufferILj292EEE, %object
	.size	_ZTIN7openpal12StaticBufferILj292EEE, 16
_ZTIN7openpal12StaticBufferILj292EEE:
	.xword	_ZTVN10__cxxabiv117__class_type_infoE+16
	.xword	_ZTSN7openpal12StaticBufferILj292EEE
	.weak	_ZTSN7openpal12StaticBufferILj10EEE
	.section	.rodata._ZTSN7openpal12StaticBufferILj10EEE,"aG",@progbits,_ZTSN7openpal12StaticBufferILj10EEE,comdat
	.align	3
	.type	_ZTSN7openpal12StaticBufferILj10EEE, %object
	.size	_ZTSN7openpal12StaticBufferILj10EEE, 32
_ZTSN7openpal12StaticBufferILj10EEE:
	.string	"N7openpal12StaticBufferILj10EEE"
	.weak	_ZTIN7openpal12StaticBufferILj10EEE
	.section	.data.rel.ro._ZTIN7openpal12StaticBufferILj10EEE,"awG",@progbits,_ZTIN7openpal12StaticBufferILj10EEE,comdat
	.align	3
	.type	_ZTIN7openpal12StaticBufferILj10EEE, %object
	.size	_ZTIN7openpal12StaticBufferILj10EEE, 16
_ZTIN7openpal12StaticBufferILj10EEE:
	.xword	_ZTVN10__cxxabiv117__class_type_infoE+16
	.xword	_ZTSN7openpal12StaticBufferILj10EEE
	.weak	_ZTVN7openpal12StaticBufferILj292EEE
	.section	.data.rel.ro._ZTVN7openpal12StaticBufferILj292EEE,"awG",@progbits,_ZTVN7openpal12StaticBufferILj292EEE,comdat
	.align	3
	.type	_ZTVN7openpal12StaticBufferILj292EEE, %object
	.size	_ZTVN7openpal12StaticBufferILj292EEE, 32
_ZTVN7openpal12StaticBufferILj292EEE:
	.xword	0
	.xword	_ZTIN7openpal12StaticBufferILj292EEE
	.xword	_ZN7openpal12StaticBufferILj292EED1Ev
	.xword	_ZN7openpal12StaticBufferILj292EED0Ev
	.weak	_ZTVN7openpal12StaticBufferILj10EEE
	.section	.data.rel.ro._ZTVN7openpal12StaticBufferILj10EEE,"awG",@progbits,_ZTVN7openpal12StaticBufferILj10EEE,comdat
	.align	3
	.type	_ZTVN7openpal12StaticBufferILj10EEE, %object
	.size	_ZTVN7openpal12StaticBufferILj10EEE, 32
_ZTVN7openpal12StaticBufferILj10EEE:
	.xword	0
	.xword	_ZTIN7openpal12StaticBufferILj10EEE
	.xword	_ZN7openpal12StaticBufferILj10EED1Ev
	.xword	_ZN7openpal12StaticBufferILj10EED0Ev
	.section	.rodata
	.align	3
	.type	_ZTSZN8opendnp311LinkContext21CompleteSendOperationEbEUlvE_, %object
	.size	_ZTSZN8opendnp311LinkContext21CompleteSendOperationEbEUlvE_, 57
_ZTSZN8opendnp311LinkContext21CompleteSendOperationEbEUlvE_:
	.string	"*ZN8opendnp311LinkContext21CompleteSendOperationEbEUlvE_"
	.zero	7
	.type	_ZTSZN7openpal8TimerRef5StartIZN8opendnp311LinkContext18StartResponseTimerEvEUlvE_EEbRKNS_12TimeDurationERKT_EUlvE_, %object
	.size	_ZTSZN7openpal8TimerRef5StartIZN8opendnp311LinkContext18StartResponseTimerEvEUlvE_EEbRKNS_12TimeDurationERKT_EUlvE_, 113
_ZTSZN7openpal8TimerRef5StartIZN8opendnp311LinkContext18StartResponseTimerEvEUlvE_EEbRKNS_12TimeDurationERKT_EUlvE_:
	.string	"*ZN7openpal8TimerRef5StartIZN8opendnp311LinkContext18StartResponseTimerEvEUlvE_EEbRKNS_12TimeDurationERKT_EUlvE_"
	.zero	7
	.type	_ZTSZN7openpal8TimerRef5StartIZN8opendnp311LinkContext19StartKeepAliveTimerERKNS_18MonotonicTimestampEEUlvE_EEbS6_RKT_EUlvE_, %object
	.size	_ZTSZN7openpal8TimerRef5StartIZN8opendnp311LinkContext19StartKeepAliveTimerERKNS_18MonotonicTimestampEEUlvE_EEbS6_RKT_EUlvE_, 122
_ZTSZN7openpal8TimerRef5StartIZN8opendnp311LinkContext19StartKeepAliveTimerERKNS_18MonotonicTimestampEEUlvE_EEbS6_RKT_EUlvE_:
	.string	"*ZN7openpal8TimerRef5StartIZN8opendnp311LinkContext19StartKeepAliveTimerERKNS_18MonotonicTimestampEEUlvE_EEbS6_RKT_EUlvE_"
	.section	.data.rel.ro,"aw"
	.align	3
	.set	.LANCHOR0,. + 0
	.type	_ZTIZN7openpal8TimerRef5StartIZN8opendnp311LinkContext18StartResponseTimerEvEUlvE_EEbRKNS_12TimeDurationERKT_EUlvE_, %object
	.size	_ZTIZN7openpal8TimerRef5StartIZN8opendnp311LinkContext18StartResponseTimerEvEUlvE_EEbRKNS_12TimeDurationERKT_EUlvE_, 16
_ZTIZN7openpal8TimerRef5StartIZN8opendnp311LinkContext18StartResponseTimerEvEUlvE_EEbRKNS_12TimeDurationERKT_EUlvE_:
	.xword	_ZTVN10__cxxabiv117__class_type_infoE+16
	.xword	_ZTSZN7openpal8TimerRef5StartIZN8opendnp311LinkContext18StartResponseTimerEvEUlvE_EEbRKNS_12TimeDurationERKT_EUlvE_
	.type	_ZTIZN7openpal8TimerRef5StartIZN8opendnp311LinkContext19StartKeepAliveTimerERKNS_18MonotonicTimestampEEUlvE_EEbS6_RKT_EUlvE_, %object
	.size	_ZTIZN7openpal8TimerRef5StartIZN8opendnp311LinkContext19StartKeepAliveTimerERKNS_18MonotonicTimestampEEUlvE_EEbS6_RKT_EUlvE_, 16
_ZTIZN7openpal8TimerRef5StartIZN8opendnp311LinkContext19StartKeepAliveTimerERKNS_18MonotonicTimestampEEUlvE_EEbS6_RKT_EUlvE_:
	.xword	_ZTVN10__cxxabiv117__class_type_infoE+16
	.xword	_ZTSZN7openpal8TimerRef5StartIZN8opendnp311LinkContext19StartKeepAliveTimerERKNS_18MonotonicTimestampEEUlvE_EEbS6_RKT_EUlvE_
	.type	_ZTIZN8opendnp311LinkContext21CompleteSendOperationEbEUlvE_, %object
	.size	_ZTIZN8opendnp311LinkContext21CompleteSendOperationEbEUlvE_, 16
_ZTIZN8opendnp311LinkContext21CompleteSendOperationEbEUlvE_:
	.xword	_ZTVN10__cxxabiv117__class_type_infoE+16
	.xword	_ZTSZN8opendnp311LinkContext21CompleteSendOperationEbEUlvE_
	.hidden	DW.ref.__gxx_personality_v0
	.weak	DW.ref.__gxx_personality_v0
	.section	.data.rel.local.DW.ref.__gxx_personality_v0,"awG",@progbits,DW.ref.__gxx_personality_v0,comdat
	.align	3
	.type	DW.ref.__gxx_personality_v0, %object
	.size	DW.ref.__gxx_personality_v0, 8
DW.ref.__gxx_personality_v0:
	.xword	__gxx_personality_v0
	.ident	"GCC: (Ubuntu 11.4.0-1ubuntu1~22.04) 11.4.0"
	.section	.note.GNU-stack,"",@progbits
