	.arch armv8-a
	.file	"SecLinkLayerStates.cpp"
	.text
	.section	.rodata._ZNK8opendnp313SLLS_NotReset4NameEv.str1.8,"aMS",@progbits,1
	.align	3
.LC0:
	.string	"SLLS_NotReset"
	.section	.text._ZNK8opendnp313SLLS_NotReset4NameEv,"axG",@progbits,_ZNK8opendnp313SLLS_NotReset4NameEv,comdat
	.align	2
	.p2align 4,,11
	.weak	_ZNK8opendnp313SLLS_NotReset4NameEv
	.type	_ZNK8opendnp313SLLS_NotReset4NameEv, %function
_ZNK8opendnp313SLLS_NotReset4NameEv:
.LFB2321:
	.cfi_startproc
	adrp	x0, .LC0
	add	x0, x0, :lo12:.LC0
	ret
	.cfi_endproc
.LFE2321:
	.size	_ZNK8opendnp313SLLS_NotReset4NameEv, .-_ZNK8opendnp313SLLS_NotReset4NameEv
	.section	.rodata._ZNK8opendnp310SLLS_Reset4NameEv.str1.8,"aMS",@progbits,1
	.align	3
.LC1:
	.string	"SLLS_Reset"
	.section	.text._ZNK8opendnp310SLLS_Reset4NameEv,"axG",@progbits,_ZNK8opendnp310SLLS_Reset4NameEv,comdat
	.align	2
	.p2align 4,,11
	.weak	_ZNK8opendnp310SLLS_Reset4NameEv
	.type	_ZNK8opendnp310SLLS_Reset4NameEv, %function
_ZNK8opendnp310SLLS_Reset4NameEv:
.LFB2326:
	.cfi_startproc
	adrp	x0, .LC1
	add	x0, x0, :lo12:.LC1
	ret
	.cfi_endproc
.LFE2326:
	.size	_ZNK8opendnp310SLLS_Reset4NameEv, .-_ZNK8opendnp310SLLS_Reset4NameEv
	.section	.rodata._ZNK8opendnp322SLLS_TransmitWaitReset4NameEv.str1.8,"aMS",@progbits,1
	.align	3
.LC2:
	.string	"SLLS_TransmitWaitReset"
	.section	.text._ZNK8opendnp322SLLS_TransmitWaitReset4NameEv,"axG",@progbits,_ZNK8opendnp322SLLS_TransmitWaitReset4NameEv,comdat
	.align	2
	.p2align 4,,11
	.weak	_ZNK8opendnp322SLLS_TransmitWaitReset4NameEv
	.type	_ZNK8opendnp322SLLS_TransmitWaitReset4NameEv, %function
_ZNK8opendnp322SLLS_TransmitWaitReset4NameEv:
.LFB2331:
	.cfi_startproc
	adrp	x0, .LC2
	add	x0, x0, :lo12:.LC2
	ret
	.cfi_endproc
.LFE2331:
	.size	_ZNK8opendnp322SLLS_TransmitWaitReset4NameEv, .-_ZNK8opendnp322SLLS_TransmitWaitReset4NameEv
	.section	.rodata._ZNK8opendnp325SLLS_TransmitWaitNotReset4NameEv.str1.8,"aMS",@progbits,1
	.align	3
.LC3:
	.string	"SLLS_TransmitWaitNotReset"
	.section	.text._ZNK8opendnp325SLLS_TransmitWaitNotReset4NameEv,"axG",@progbits,_ZNK8opendnp325SLLS_TransmitWaitNotReset4NameEv,comdat
	.align	2
	.p2align 4,,11
	.weak	_ZNK8opendnp325SLLS_TransmitWaitNotReset4NameEv
	.type	_ZNK8opendnp325SLLS_TransmitWaitNotReset4NameEv, %function
_ZNK8opendnp325SLLS_TransmitWaitNotReset4NameEv:
.LFB2336:
	.cfi_startproc
	adrp	x0, .LC3
	add	x0, x0, :lo12:.LC3
	ret
	.cfi_endproc
.LFE2336:
	.size	_ZNK8opendnp325SLLS_TransmitWaitNotReset4NameEv, .-_ZNK8opendnp325SLLS_TransmitWaitNotReset4NameEv
	.section	.text._ZN8opendnp321SLLS_TransmitWaitBaseINS_13SLLS_NotResetEE16OnTransmitResultERNS_11LinkContextEb,"axG",@progbits,_ZN8opendnp321SLLS_TransmitWaitBaseINS_13SLLS_NotResetEE16OnTransmitResultERNS_11LinkContextEb,comdat
	.align	2
	.p2align 4,,11
	.weak	_ZN8opendnp321SLLS_TransmitWaitBaseINS_13SLLS_NotResetEE16OnTransmitResultERNS_11LinkContextEb
	.type	_ZN8opendnp321SLLS_TransmitWaitBaseINS_13SLLS_NotResetEE16OnTransmitResultERNS_11LinkContextEb, %function
_ZN8opendnp321SLLS_TransmitWaitBaseINS_13SLLS_NotResetEE16OnTransmitResultERNS_11LinkContextEb:
.LFB3009:
	.cfi_startproc
	adrp	x0, :got:_ZN8opendnp313SLLS_NotReset8instanceE
	ldr	x0, [x0, #:got_lo12:_ZN8opendnp313SLLS_NotReset8instanceE]
	ret
	.cfi_endproc
.LFE3009:
	.size	_ZN8opendnp321SLLS_TransmitWaitBaseINS_13SLLS_NotResetEE16OnTransmitResultERNS_11LinkContextEb, .-_ZN8opendnp321SLLS_TransmitWaitBaseINS_13SLLS_NotResetEE16OnTransmitResultERNS_11LinkContextEb
	.section	.text._ZN8opendnp321SLLS_TransmitWaitBaseINS_10SLLS_ResetEE16OnTransmitResultERNS_11LinkContextEb,"axG",@progbits,_ZN8opendnp321SLLS_TransmitWaitBaseINS_10SLLS_ResetEE16OnTransmitResultERNS_11LinkContextEb,comdat
	.align	2
	.p2align 4,,11
	.weak	_ZN8opendnp321SLLS_TransmitWaitBaseINS_10SLLS_ResetEE16OnTransmitResultERNS_11LinkContextEb
	.type	_ZN8opendnp321SLLS_TransmitWaitBaseINS_10SLLS_ResetEE16OnTransmitResultERNS_11LinkContextEb, %function
_ZN8opendnp321SLLS_TransmitWaitBaseINS_10SLLS_ResetEE16OnTransmitResultERNS_11LinkContextEb:
.LFB3014:
	.cfi_startproc
	adrp	x0, :got:_ZN8opendnp310SLLS_Reset8instanceE
	ldr	x0, [x0, #:got_lo12:_ZN8opendnp310SLLS_Reset8instanceE]
	ret
	.cfi_endproc
.LFE3014:
	.size	_ZN8opendnp321SLLS_TransmitWaitBaseINS_10SLLS_ResetEE16OnTransmitResultERNS_11LinkContextEb, .-_ZN8opendnp321SLLS_TransmitWaitBaseINS_10SLLS_ResetEE16OnTransmitResultERNS_11LinkContextEb
	.section	.rodata.str1.8,"aMS",@progbits,1
	.align	3
.LC4:
	.string	"TestLinkStatus ignored"
	.align	3
.LC5:
	.string	"/home/jaehyun/OpenPLC_v3/utils/dnp3_src/cpp/libs/src/opendnp3/link/SecLinkLayerStates.cpp(51)"
	.text
	.align	2
	.p2align 4,,11
	.global	_ZN8opendnp313SLLS_NotReset16OnTestLinkStatusERNS_11LinkContextEb
	.type	_ZN8opendnp313SLLS_NotReset16OnTestLinkStatusERNS_11LinkContextEb, %function
_ZN8opendnp313SLLS_NotReset16OnTestLinkStatusERNS_11LinkContextEb:
.LFB2338:
	.cfi_startproc
	stp	x29, x30, [sp, -64]!
	.cfi_def_cfa_offset 64
	.cfi_offset 29, -64
	.cfi_offset 30, -56
	adrp	x3, :got:__stack_chk_guard
	mov	x2, x1
	mov	x29, sp
	ldr	x4, [x3, #:got_lo12:__stack_chk_guard]
	stp	x19, x20, [sp, 16]
	ldr	w3, [x1, 520]
	stp	x21, x22, [sp, 32]
	.cfi_offset 19, -48
	.cfi_offset 20, -40
	.cfi_offset 21, -32
	.cfi_offset 22, -24
	add	x21, x1, 376
	add	w3, w3, 1
	ldr	x1, [x4]
	str	x1, [sp, 56]
	mov	x1, 0
	str	w3, [x2, 520]
	add	x22, sp, 48
	mov	x19, x0
	mov	w20, 4
	mov	x0, x21
	mov	x1, x22
	str	w20, [sp, 48]
	bl	_ZNK7openpal6Logger9IsEnabledERKNS_10LogFiltersE
	tst	w0, 255
	bne	.L15
.L9:
	adrp	x1, :got:__stack_chk_guard
	ldr	x1, [x1, #:got_lo12:__stack_chk_guard]
	ldr	x0, [sp, 56]
	ldr	x2, [x1]
	subs	x0, x0, x2
	mov	x2, 0
	bne	.L16
	mov	x0, x19
	ldp	x19, x20, [sp, 16]
	ldp	x21, x22, [sp, 32]
	ldp	x29, x30, [sp], 64
	.cfi_remember_state
	.cfi_restore 30
	.cfi_restore 29
	.cfi_restore 21
	.cfi_restore 22
	.cfi_restore 19
	.cfi_restore 20
	.cfi_def_cfa_offset 0
	ret
	.p2align 2,,3
.L15:
	.cfi_restore_state
	mov	x1, x22
	mov	x0, x21
	adrp	x3, .LC4
	adrp	x2, .LC5
	add	x3, x3, :lo12:.LC4
	add	x2, x2, :lo12:.LC5
	str	w20, [sp, 48]
	bl	_ZN7openpal6Logger3LogERKNS_10LogFiltersEPKcS5_
	b	.L9
.L16:
	bl	__stack_chk_fail
	.cfi_endproc
.LFE2338:
	.size	_ZN8opendnp313SLLS_NotReset16OnTestLinkStatusERNS_11LinkContextEb, .-_ZN8opendnp313SLLS_NotReset16OnTestLinkStatusERNS_11LinkContextEb
	.section	.rodata.str1.8
	.align	3
.LC6:
	.string	"ConfirmedUserData ignored"
	.align	3
.LC7:
	.string	"/home/jaehyun/OpenPLC_v3/utils/dnp3_src/cpp/libs/src/opendnp3/link/SecLinkLayerStates.cpp(58)"
	.text
	.align	2
	.p2align 4,,11
	.global	_ZN8opendnp313SLLS_NotReset19OnConfirmedUserDataERNS_11LinkContextEbRKN7openpal6RSliceE
	.type	_ZN8opendnp313SLLS_NotReset19OnConfirmedUserDataERNS_11LinkContextEbRKN7openpal6RSliceE, %function
_ZN8opendnp313SLLS_NotReset19OnConfirmedUserDataERNS_11LinkContextEbRKN7openpal6RSliceE:
.LFB2339:
	.cfi_startproc
	stp	x29, x30, [sp, -64]!
	.cfi_def_cfa_offset 64
	.cfi_offset 29, -64
	.cfi_offset 30, -56
	adrp	x3, :got:__stack_chk_guard
	mov	x2, x1
	mov	x29, sp
	ldr	x4, [x3, #:got_lo12:__stack_chk_guard]
	stp	x19, x20, [sp, 16]
	ldr	w3, [x1, 520]
	stp	x21, x22, [sp, 32]
	.cfi_offset 19, -48
	.cfi_offset 20, -40
	.cfi_offset 21, -32
	.cfi_offset 22, -24
	add	x21, x1, 376
	add	w3, w3, 1
	ldr	x1, [x4]
	str	x1, [sp, 56]
	mov	x1, 0
	str	w3, [x2, 520]
	add	x22, sp, 48
	mov	x19, x0
	mov	w20, 4
	mov	x0, x21
	mov	x1, x22
	str	w20, [sp, 48]
	bl	_ZNK7openpal6Logger9IsEnabledERKNS_10LogFiltersE
	tst	w0, 255
	bne	.L24
.L18:
	adrp	x1, :got:__stack_chk_guard
	ldr	x1, [x1, #:got_lo12:__stack_chk_guard]
	ldr	x0, [sp, 56]
	ldr	x2, [x1]
	subs	x0, x0, x2
	mov	x2, 0
	bne	.L25
	mov	x0, x19
	ldp	x19, x20, [sp, 16]
	ldp	x21, x22, [sp, 32]
	ldp	x29, x30, [sp], 64
	.cfi_remember_state
	.cfi_restore 30
	.cfi_restore 29
	.cfi_restore 21
	.cfi_restore 22
	.cfi_restore 19
	.cfi_restore 20
	.cfi_def_cfa_offset 0
	ret
	.p2align 2,,3
.L24:
	.cfi_restore_state
	mov	x1, x22
	mov	x0, x21
	adrp	x3, .LC6
	adrp	x2, .LC7
	add	x3, x3, :lo12:.LC6
	add	x2, x2, :lo12:.LC7
	str	w20, [sp, 48]
	bl	_ZN7openpal6Logger3LogERKNS_10LogFiltersEPKcS5_
	b	.L18
.L25:
	bl	__stack_chk_fail
	.cfi_endproc
.LFE2339:
	.size	_ZN8opendnp313SLLS_NotReset19OnConfirmedUserDataERNS_11LinkContextEbRKN7openpal6RSliceE, .-_ZN8opendnp313SLLS_NotReset19OnConfirmedUserDataERNS_11LinkContextEbRKN7openpal6RSliceE
	.section	.rodata._ZN8opendnp321SLLS_TransmitWaitBaseINS_10SLLS_ResetEE19OnConfirmedUserDataERNS_11LinkContextEbRKN7openpal6RSliceE.str1.8,"aMS",@progbits,1
	.align	3
.LC8:
	.string	"Ignoring link frame, remote is flooding"
	.align	3
.LC9:
	.string	"/home/jaehyun/OpenPLC_v3/utils/dnp3_src/cpp/libs/src/opendnp3/link/SecLinkLayerStates.h(104)"
	.section	.text._ZN8opendnp321SLLS_TransmitWaitBaseINS_10SLLS_ResetEE19OnConfirmedUserDataERNS_11LinkContextEbRKN7openpal6RSliceE,"axG",@progbits,_ZN8opendnp321SLLS_TransmitWaitBaseINS_10SLLS_ResetEE19OnConfirmedUserDataERNS_11LinkContextEbRKN7openpal6RSliceE,comdat
	.align	2
	.p2align 4,,11
	.weak	_ZN8opendnp321SLLS_TransmitWaitBaseINS_10SLLS_ResetEE19OnConfirmedUserDataERNS_11LinkContextEbRKN7openpal6RSliceE
	.type	_ZN8opendnp321SLLS_TransmitWaitBaseINS_10SLLS_ResetEE19OnConfirmedUserDataERNS_11LinkContextEbRKN7openpal6RSliceE, %function
_ZN8opendnp321SLLS_TransmitWaitBaseINS_10SLLS_ResetEE19OnConfirmedUserDataERNS_11LinkContextEbRKN7openpal6RSliceE:
.LFB3013:
	.cfi_startproc
	stp	x29, x30, [sp, -64]!
	.cfi_def_cfa_offset 64
	.cfi_offset 29, -64
	.cfi_offset 30, -56
	adrp	x2, :got:__stack_chk_guard
	mov	x29, sp
	ldr	x2, [x2, #:got_lo12:__stack_chk_guard]
	stp	x19, x20, [sp, 16]
	.cfi_offset 19, -48
	.cfi_offset 20, -40
	add	x19, x1, 376
	stp	x21, x22, [sp, 32]
	.cfi_offset 21, -32
	.cfi_offset 22, -24
	add	x22, sp, 48
	mov	x20, x0
	ldr	x1, [x2]
	str	x1, [sp, 56]
	mov	x1, 0
	mov	w21, 4
	mov	x0, x19
	mov	x1, x22
	str	w21, [sp, 48]
	bl	_ZNK7openpal6Logger9IsEnabledERKNS_10LogFiltersE
	tst	w0, 255
	bne	.L33
.L27:
	adrp	x1, :got:__stack_chk_guard
	ldr	x1, [x1, #:got_lo12:__stack_chk_guard]
	ldr	x0, [sp, 56]
	ldr	x2, [x1]
	subs	x0, x0, x2
	mov	x2, 0
	bne	.L34
	mov	x0, x20
	ldp	x19, x20, [sp, 16]
	ldp	x21, x22, [sp, 32]
	ldp	x29, x30, [sp], 64
	.cfi_remember_state
	.cfi_restore 30
	.cfi_restore 29
	.cfi_restore 21
	.cfi_restore 22
	.cfi_restore 19
	.cfi_restore 20
	.cfi_def_cfa_offset 0
	ret
	.p2align 2,,3
.L33:
	.cfi_restore_state
	mov	x1, x22
	mov	x0, x19
	adrp	x3, .LC8
	adrp	x2, .LC9
	add	x3, x3, :lo12:.LC8
	add	x2, x2, :lo12:.LC9
	str	w21, [sp, 48]
	bl	_ZN7openpal6Logger3LogERKNS_10LogFiltersEPKcS5_
	b	.L27
.L34:
	bl	__stack_chk_fail
	.cfi_endproc
.LFE3013:
	.size	_ZN8opendnp321SLLS_TransmitWaitBaseINS_10SLLS_ResetEE19OnConfirmedUserDataERNS_11LinkContextEbRKN7openpal6RSliceE, .-_ZN8opendnp321SLLS_TransmitWaitBaseINS_10SLLS_ResetEE19OnConfirmedUserDataERNS_11LinkContextEbRKN7openpal6RSliceE
	.section	.rodata._ZN8opendnp321SLLS_TransmitWaitBaseINS_10SLLS_ResetEE16OnTestLinkStatusERNS_11LinkContextEb.str1.8,"aMS",@progbits,1
	.align	3
.LC10:
	.string	"/home/jaehyun/OpenPLC_v3/utils/dnp3_src/cpp/libs/src/opendnp3/link/SecLinkLayerStates.h(97)"
	.section	.text._ZN8opendnp321SLLS_TransmitWaitBaseINS_10SLLS_ResetEE16OnTestLinkStatusERNS_11LinkContextEb,"axG",@progbits,_ZN8opendnp321SLLS_TransmitWaitBaseINS_10SLLS_ResetEE16OnTestLinkStatusERNS_11LinkContextEb,comdat
	.align	2
	.p2align 4,,11
	.weak	_ZN8opendnp321SLLS_TransmitWaitBaseINS_10SLLS_ResetEE16OnTestLinkStatusERNS_11LinkContextEb
	.type	_ZN8opendnp321SLLS_TransmitWaitBaseINS_10SLLS_ResetEE16OnTestLinkStatusERNS_11LinkContextEb, %function
_ZN8opendnp321SLLS_TransmitWaitBaseINS_10SLLS_ResetEE16OnTestLinkStatusERNS_11LinkContextEb:
.LFB3012:
	.cfi_startproc
	stp	x29, x30, [sp, -64]!
	.cfi_def_cfa_offset 64
	.cfi_offset 29, -64
	.cfi_offset 30, -56
	adrp	x2, :got:__stack_chk_guard
	mov	x29, sp
	ldr	x2, [x2, #:got_lo12:__stack_chk_guard]
	stp	x19, x20, [sp, 16]
	.cfi_offset 19, -48
	.cfi_offset 20, -40
	add	x19, x1, 376
	stp	x21, x22, [sp, 32]
	.cfi_offset 21, -32
	.cfi_offset 22, -24
	add	x22, sp, 48
	mov	x20, x0
	ldr	x1, [x2]
	str	x1, [sp, 56]
	mov	x1, 0
	mov	w21, 4
	mov	x0, x19
	mov	x1, x22
	str	w21, [sp, 48]
	bl	_ZNK7openpal6Logger9IsEnabledERKNS_10LogFiltersE
	tst	w0, 255
	bne	.L42
.L36:
	adrp	x1, :got:__stack_chk_guard
	ldr	x1, [x1, #:got_lo12:__stack_chk_guard]
	ldr	x0, [sp, 56]
	ldr	x2, [x1]
	subs	x0, x0, x2
	mov	x2, 0
	bne	.L43
	mov	x0, x20
	ldp	x19, x20, [sp, 16]
	ldp	x21, x22, [sp, 32]
	ldp	x29, x30, [sp], 64
	.cfi_remember_state
	.cfi_restore 30
	.cfi_restore 29
	.cfi_restore 21
	.cfi_restore 22
	.cfi_restore 19
	.cfi_restore 20
	.cfi_def_cfa_offset 0
	ret
	.p2align 2,,3
.L42:
	.cfi_restore_state
	mov	x1, x22
	mov	x0, x19
	adrp	x3, .LC8
	adrp	x2, .LC10
	add	x3, x3, :lo12:.LC8
	add	x2, x2, :lo12:.LC10
	str	w21, [sp, 48]
	bl	_ZN7openpal6Logger3LogERKNS_10LogFiltersEPKcS5_
	b	.L36
.L43:
	bl	__stack_chk_fail
	.cfi_endproc
.LFE3012:
	.size	_ZN8opendnp321SLLS_TransmitWaitBaseINS_10SLLS_ResetEE16OnTestLinkStatusERNS_11LinkContextEb, .-_ZN8opendnp321SLLS_TransmitWaitBaseINS_10SLLS_ResetEE16OnTestLinkStatusERNS_11LinkContextEb
	.section	.rodata._ZN8opendnp321SLLS_TransmitWaitBaseINS_10SLLS_ResetEE19OnRequestLinkStatusERNS_11LinkContextE.str1.8,"aMS",@progbits,1
	.align	3
.LC11:
	.string	"/home/jaehyun/OpenPLC_v3/utils/dnp3_src/cpp/libs/src/opendnp3/link/SecLinkLayerStates.h(90)"
	.section	.text._ZN8opendnp321SLLS_TransmitWaitBaseINS_10SLLS_ResetEE19OnRequestLinkStatusERNS_11LinkContextE,"axG",@progbits,_ZN8opendnp321SLLS_TransmitWaitBaseINS_10SLLS_ResetEE19OnRequestLinkStatusERNS_11LinkContextE,comdat
	.align	2
	.p2align 4,,11
	.weak	_ZN8opendnp321SLLS_TransmitWaitBaseINS_10SLLS_ResetEE19OnRequestLinkStatusERNS_11LinkContextE
	.type	_ZN8opendnp321SLLS_TransmitWaitBaseINS_10SLLS_ResetEE19OnRequestLinkStatusERNS_11LinkContextE, %function
_ZN8opendnp321SLLS_TransmitWaitBaseINS_10SLLS_ResetEE19OnRequestLinkStatusERNS_11LinkContextE:
.LFB3011:
	.cfi_startproc
	stp	x29, x30, [sp, -64]!
	.cfi_def_cfa_offset 64
	.cfi_offset 29, -64
	.cfi_offset 30, -56
	adrp	x2, :got:__stack_chk_guard
	mov	x29, sp
	ldr	x2, [x2, #:got_lo12:__stack_chk_guard]
	stp	x19, x20, [sp, 16]
	.cfi_offset 19, -48
	.cfi_offset 20, -40
	add	x19, x1, 376
	stp	x21, x22, [sp, 32]
	.cfi_offset 21, -32
	.cfi_offset 22, -24
	add	x22, sp, 48
	mov	x20, x0
	ldr	x1, [x2]
	str	x1, [sp, 56]
	mov	x1, 0
	mov	w21, 4
	mov	x0, x19
	mov	x1, x22
	str	w21, [sp, 48]
	bl	_ZNK7openpal6Logger9IsEnabledERKNS_10LogFiltersE
	tst	w0, 255
	bne	.L51
.L45:
	adrp	x1, :got:__stack_chk_guard
	ldr	x1, [x1, #:got_lo12:__stack_chk_guard]
	ldr	x0, [sp, 56]
	ldr	x2, [x1]
	subs	x0, x0, x2
	mov	x2, 0
	bne	.L52
	mov	x0, x20
	ldp	x19, x20, [sp, 16]
	ldp	x21, x22, [sp, 32]
	ldp	x29, x30, [sp], 64
	.cfi_remember_state
	.cfi_restore 30
	.cfi_restore 29
	.cfi_restore 21
	.cfi_restore 22
	.cfi_restore 19
	.cfi_restore 20
	.cfi_def_cfa_offset 0
	ret
	.p2align 2,,3
.L51:
	.cfi_restore_state
	mov	x1, x22
	mov	x0, x19
	adrp	x3, .LC8
	adrp	x2, .LC11
	add	x3, x3, :lo12:.LC8
	add	x2, x2, :lo12:.LC11
	str	w21, [sp, 48]
	bl	_ZN7openpal6Logger3LogERKNS_10LogFiltersEPKcS5_
	b	.L45
.L52:
	bl	__stack_chk_fail
	.cfi_endproc
.LFE3011:
	.size	_ZN8opendnp321SLLS_TransmitWaitBaseINS_10SLLS_ResetEE19OnRequestLinkStatusERNS_11LinkContextE, .-_ZN8opendnp321SLLS_TransmitWaitBaseINS_10SLLS_ResetEE19OnRequestLinkStatusERNS_11LinkContextE
	.section	.rodata._ZN8opendnp321SLLS_TransmitWaitBaseINS_10SLLS_ResetEE17OnResetLinkStatesERNS_11LinkContextE.str1.8,"aMS",@progbits,1
	.align	3
.LC12:
	.string	"/home/jaehyun/OpenPLC_v3/utils/dnp3_src/cpp/libs/src/opendnp3/link/SecLinkLayerStates.h(83)"
	.section	.text._ZN8opendnp321SLLS_TransmitWaitBaseINS_10SLLS_ResetEE17OnResetLinkStatesERNS_11LinkContextE,"axG",@progbits,_ZN8opendnp321SLLS_TransmitWaitBaseINS_10SLLS_ResetEE17OnResetLinkStatesERNS_11LinkContextE,comdat
	.align	2
	.p2align 4,,11
	.weak	_ZN8opendnp321SLLS_TransmitWaitBaseINS_10SLLS_ResetEE17OnResetLinkStatesERNS_11LinkContextE
	.type	_ZN8opendnp321SLLS_TransmitWaitBaseINS_10SLLS_ResetEE17OnResetLinkStatesERNS_11LinkContextE, %function
_ZN8opendnp321SLLS_TransmitWaitBaseINS_10SLLS_ResetEE17OnResetLinkStatesERNS_11LinkContextE:
.LFB3010:
	.cfi_startproc
	stp	x29, x30, [sp, -64]!
	.cfi_def_cfa_offset 64
	.cfi_offset 29, -64
	.cfi_offset 30, -56
	adrp	x2, :got:__stack_chk_guard
	mov	x29, sp
	ldr	x2, [x2, #:got_lo12:__stack_chk_guard]
	stp	x19, x20, [sp, 16]
	.cfi_offset 19, -48
	.cfi_offset 20, -40
	add	x19, x1, 376
	stp	x21, x22, [sp, 32]
	.cfi_offset 21, -32
	.cfi_offset 22, -24
	add	x22, sp, 48
	mov	x20, x0
	ldr	x1, [x2]
	str	x1, [sp, 56]
	mov	x1, 0
	mov	w21, 4
	mov	x0, x19
	mov	x1, x22
	str	w21, [sp, 48]
	bl	_ZNK7openpal6Logger9IsEnabledERKNS_10LogFiltersE
	tst	w0, 255
	bne	.L60
.L54:
	adrp	x1, :got:__stack_chk_guard
	ldr	x1, [x1, #:got_lo12:__stack_chk_guard]
	ldr	x0, [sp, 56]
	ldr	x2, [x1]
	subs	x0, x0, x2
	mov	x2, 0
	bne	.L61
	mov	x0, x20
	ldp	x19, x20, [sp, 16]
	ldp	x21, x22, [sp, 32]
	ldp	x29, x30, [sp], 64
	.cfi_remember_state
	.cfi_restore 30
	.cfi_restore 29
	.cfi_restore 21
	.cfi_restore 22
	.cfi_restore 19
	.cfi_restore 20
	.cfi_def_cfa_offset 0
	ret
	.p2align 2,,3
.L60:
	.cfi_restore_state
	mov	x1, x22
	mov	x0, x19
	adrp	x3, .LC8
	adrp	x2, .LC12
	add	x3, x3, :lo12:.LC8
	add	x2, x2, :lo12:.LC12
	str	w21, [sp, 48]
	bl	_ZN7openpal6Logger3LogERKNS_10LogFiltersEPKcS5_
	b	.L54
.L61:
	bl	__stack_chk_fail
	.cfi_endproc
.LFE3010:
	.size	_ZN8opendnp321SLLS_TransmitWaitBaseINS_10SLLS_ResetEE17OnResetLinkStatesERNS_11LinkContextE, .-_ZN8opendnp321SLLS_TransmitWaitBaseINS_10SLLS_ResetEE17OnResetLinkStatesERNS_11LinkContextE
	.section	.text._ZN8opendnp321SLLS_TransmitWaitBaseINS_13SLLS_NotResetEE19OnConfirmedUserDataERNS_11LinkContextEbRKN7openpal6RSliceE,"axG",@progbits,_ZN8opendnp321SLLS_TransmitWaitBaseINS_13SLLS_NotResetEE19OnConfirmedUserDataERNS_11LinkContextEbRKN7openpal6RSliceE,comdat
	.align	2
	.p2align 4,,11
	.weak	_ZN8opendnp321SLLS_TransmitWaitBaseINS_13SLLS_NotResetEE19OnConfirmedUserDataERNS_11LinkContextEbRKN7openpal6RSliceE
	.type	_ZN8opendnp321SLLS_TransmitWaitBaseINS_13SLLS_NotResetEE19OnConfirmedUserDataERNS_11LinkContextEbRKN7openpal6RSliceE, %function
_ZN8opendnp321SLLS_TransmitWaitBaseINS_13SLLS_NotResetEE19OnConfirmedUserDataERNS_11LinkContextEbRKN7openpal6RSliceE:
.LFB3008:
	.cfi_startproc
	stp	x29, x30, [sp, -64]!
	.cfi_def_cfa_offset 64
	.cfi_offset 29, -64
	.cfi_offset 30, -56
	adrp	x2, :got:__stack_chk_guard
	mov	x29, sp
	ldr	x2, [x2, #:got_lo12:__stack_chk_guard]
	stp	x19, x20, [sp, 16]
	.cfi_offset 19, -48
	.cfi_offset 20, -40
	add	x19, x1, 376
	stp	x21, x22, [sp, 32]
	.cfi_offset 21, -32
	.cfi_offset 22, -24
	add	x22, sp, 48
	mov	x20, x0
	ldr	x1, [x2]
	str	x1, [sp, 56]
	mov	x1, 0
	mov	w21, 4
	mov	x0, x19
	mov	x1, x22
	str	w21, [sp, 48]
	bl	_ZNK7openpal6Logger9IsEnabledERKNS_10LogFiltersE
	tst	w0, 255
	bne	.L69
.L63:
	adrp	x1, :got:__stack_chk_guard
	ldr	x1, [x1, #:got_lo12:__stack_chk_guard]
	ldr	x0, [sp, 56]
	ldr	x2, [x1]
	subs	x0, x0, x2
	mov	x2, 0
	bne	.L70
	mov	x0, x20
	ldp	x19, x20, [sp, 16]
	ldp	x21, x22, [sp, 32]
	ldp	x29, x30, [sp], 64
	.cfi_remember_state
	.cfi_restore 30
	.cfi_restore 29
	.cfi_restore 21
	.cfi_restore 22
	.cfi_restore 19
	.cfi_restore 20
	.cfi_def_cfa_offset 0
	ret
	.p2align 2,,3
.L69:
	.cfi_restore_state
	mov	x1, x22
	mov	x0, x19
	adrp	x3, .LC8
	adrp	x2, .LC9
	add	x3, x3, :lo12:.LC8
	add	x2, x2, :lo12:.LC9
	str	w21, [sp, 48]
	bl	_ZN7openpal6Logger3LogERKNS_10LogFiltersEPKcS5_
	b	.L63
.L70:
	bl	__stack_chk_fail
	.cfi_endproc
.LFE3008:
	.size	_ZN8opendnp321SLLS_TransmitWaitBaseINS_13SLLS_NotResetEE19OnConfirmedUserDataERNS_11LinkContextEbRKN7openpal6RSliceE, .-_ZN8opendnp321SLLS_TransmitWaitBaseINS_13SLLS_NotResetEE19OnConfirmedUserDataERNS_11LinkContextEbRKN7openpal6RSliceE
	.section	.text._ZN8opendnp321SLLS_TransmitWaitBaseINS_13SLLS_NotResetEE16OnTestLinkStatusERNS_11LinkContextEb,"axG",@progbits,_ZN8opendnp321SLLS_TransmitWaitBaseINS_13SLLS_NotResetEE16OnTestLinkStatusERNS_11LinkContextEb,comdat
	.align	2
	.p2align 4,,11
	.weak	_ZN8opendnp321SLLS_TransmitWaitBaseINS_13SLLS_NotResetEE16OnTestLinkStatusERNS_11LinkContextEb
	.type	_ZN8opendnp321SLLS_TransmitWaitBaseINS_13SLLS_NotResetEE16OnTestLinkStatusERNS_11LinkContextEb, %function
_ZN8opendnp321SLLS_TransmitWaitBaseINS_13SLLS_NotResetEE16OnTestLinkStatusERNS_11LinkContextEb:
.LFB3007:
	.cfi_startproc
	stp	x29, x30, [sp, -64]!
	.cfi_def_cfa_offset 64
	.cfi_offset 29, -64
	.cfi_offset 30, -56
	adrp	x2, :got:__stack_chk_guard
	mov	x29, sp
	ldr	x2, [x2, #:got_lo12:__stack_chk_guard]
	stp	x19, x20, [sp, 16]
	.cfi_offset 19, -48
	.cfi_offset 20, -40
	add	x19, x1, 376
	stp	x21, x22, [sp, 32]
	.cfi_offset 21, -32
	.cfi_offset 22, -24
	add	x22, sp, 48
	mov	x20, x0
	ldr	x1, [x2]
	str	x1, [sp, 56]
	mov	x1, 0
	mov	w21, 4
	mov	x0, x19
	mov	x1, x22
	str	w21, [sp, 48]
	bl	_ZNK7openpal6Logger9IsEnabledERKNS_10LogFiltersE
	tst	w0, 255
	bne	.L78
.L72:
	adrp	x1, :got:__stack_chk_guard
	ldr	x1, [x1, #:got_lo12:__stack_chk_guard]
	ldr	x0, [sp, 56]
	ldr	x2, [x1]
	subs	x0, x0, x2
	mov	x2, 0
	bne	.L79
	mov	x0, x20
	ldp	x19, x20, [sp, 16]
	ldp	x21, x22, [sp, 32]
	ldp	x29, x30, [sp], 64
	.cfi_remember_state
	.cfi_restore 30
	.cfi_restore 29
	.cfi_restore 21
	.cfi_restore 22
	.cfi_restore 19
	.cfi_restore 20
	.cfi_def_cfa_offset 0
	ret
	.p2align 2,,3
.L78:
	.cfi_restore_state
	mov	x1, x22
	mov	x0, x19
	adrp	x3, .LC8
	adrp	x2, .LC10
	add	x3, x3, :lo12:.LC8
	add	x2, x2, :lo12:.LC10
	str	w21, [sp, 48]
	bl	_ZN7openpal6Logger3LogERKNS_10LogFiltersEPKcS5_
	b	.L72
.L79:
	bl	__stack_chk_fail
	.cfi_endproc
.LFE3007:
	.size	_ZN8opendnp321SLLS_TransmitWaitBaseINS_13SLLS_NotResetEE16OnTestLinkStatusERNS_11LinkContextEb, .-_ZN8opendnp321SLLS_TransmitWaitBaseINS_13SLLS_NotResetEE16OnTestLinkStatusERNS_11LinkContextEb
	.section	.text._ZN8opendnp321SLLS_TransmitWaitBaseINS_13SLLS_NotResetEE19OnRequestLinkStatusERNS_11LinkContextE,"axG",@progbits,_ZN8opendnp321SLLS_TransmitWaitBaseINS_13SLLS_NotResetEE19OnRequestLinkStatusERNS_11LinkContextE,comdat
	.align	2
	.p2align 4,,11
	.weak	_ZN8opendnp321SLLS_TransmitWaitBaseINS_13SLLS_NotResetEE19OnRequestLinkStatusERNS_11LinkContextE
	.type	_ZN8opendnp321SLLS_TransmitWaitBaseINS_13SLLS_NotResetEE19OnRequestLinkStatusERNS_11LinkContextE, %function
_ZN8opendnp321SLLS_TransmitWaitBaseINS_13SLLS_NotResetEE19OnRequestLinkStatusERNS_11LinkContextE:
.LFB3006:
	.cfi_startproc
	stp	x29, x30, [sp, -64]!
	.cfi_def_cfa_offset 64
	.cfi_offset 29, -64
	.cfi_offset 30, -56
	adrp	x2, :got:__stack_chk_guard
	mov	x29, sp
	ldr	x2, [x2, #:got_lo12:__stack_chk_guard]
	stp	x19, x20, [sp, 16]
	.cfi_offset 19, -48
	.cfi_offset 20, -40
	add	x19, x1, 376
	stp	x21, x22, [sp, 32]
	.cfi_offset 21, -32
	.cfi_offset 22, -24
	add	x22, sp, 48
	mov	x20, x0
	ldr	x1, [x2]
	str	x1, [sp, 56]
	mov	x1, 0
	mov	w21, 4
	mov	x0, x19
	mov	x1, x22
	str	w21, [sp, 48]
	bl	_ZNK7openpal6Logger9IsEnabledERKNS_10LogFiltersE
	tst	w0, 255
	bne	.L87
.L81:
	adrp	x1, :got:__stack_chk_guard
	ldr	x1, [x1, #:got_lo12:__stack_chk_guard]
	ldr	x0, [sp, 56]
	ldr	x2, [x1]
	subs	x0, x0, x2
	mov	x2, 0
	bne	.L88
	mov	x0, x20
	ldp	x19, x20, [sp, 16]
	ldp	x21, x22, [sp, 32]
	ldp	x29, x30, [sp], 64
	.cfi_remember_state
	.cfi_restore 30
	.cfi_restore 29
	.cfi_restore 21
	.cfi_restore 22
	.cfi_restore 19
	.cfi_restore 20
	.cfi_def_cfa_offset 0
	ret
	.p2align 2,,3
.L87:
	.cfi_restore_state
	mov	x1, x22
	mov	x0, x19
	adrp	x3, .LC8
	adrp	x2, .LC11
	add	x3, x3, :lo12:.LC8
	add	x2, x2, :lo12:.LC11
	str	w21, [sp, 48]
	bl	_ZN7openpal6Logger3LogERKNS_10LogFiltersEPKcS5_
	b	.L81
.L88:
	bl	__stack_chk_fail
	.cfi_endproc
.LFE3006:
	.size	_ZN8opendnp321SLLS_TransmitWaitBaseINS_13SLLS_NotResetEE19OnRequestLinkStatusERNS_11LinkContextE, .-_ZN8opendnp321SLLS_TransmitWaitBaseINS_13SLLS_NotResetEE19OnRequestLinkStatusERNS_11LinkContextE
	.section	.text._ZN8opendnp321SLLS_TransmitWaitBaseINS_13SLLS_NotResetEE17OnResetLinkStatesERNS_11LinkContextE,"axG",@progbits,_ZN8opendnp321SLLS_TransmitWaitBaseINS_13SLLS_NotResetEE17OnResetLinkStatesERNS_11LinkContextE,comdat
	.align	2
	.p2align 4,,11
	.weak	_ZN8opendnp321SLLS_TransmitWaitBaseINS_13SLLS_NotResetEE17OnResetLinkStatesERNS_11LinkContextE
	.type	_ZN8opendnp321SLLS_TransmitWaitBaseINS_13SLLS_NotResetEE17OnResetLinkStatesERNS_11LinkContextE, %function
_ZN8opendnp321SLLS_TransmitWaitBaseINS_13SLLS_NotResetEE17OnResetLinkStatesERNS_11LinkContextE:
.LFB3005:
	.cfi_startproc
	stp	x29, x30, [sp, -64]!
	.cfi_def_cfa_offset 64
	.cfi_offset 29, -64
	.cfi_offset 30, -56
	adrp	x2, :got:__stack_chk_guard
	mov	x29, sp
	ldr	x2, [x2, #:got_lo12:__stack_chk_guard]
	stp	x19, x20, [sp, 16]
	.cfi_offset 19, -48
	.cfi_offset 20, -40
	add	x19, x1, 376
	stp	x21, x22, [sp, 32]
	.cfi_offset 21, -32
	.cfi_offset 22, -24
	add	x22, sp, 48
	mov	x20, x0
	ldr	x1, [x2]
	str	x1, [sp, 56]
	mov	x1, 0
	mov	w21, 4
	mov	x0, x19
	mov	x1, x22
	str	w21, [sp, 48]
	bl	_ZNK7openpal6Logger9IsEnabledERKNS_10LogFiltersE
	tst	w0, 255
	bne	.L96
.L90:
	adrp	x1, :got:__stack_chk_guard
	ldr	x1, [x1, #:got_lo12:__stack_chk_guard]
	ldr	x0, [sp, 56]
	ldr	x2, [x1]
	subs	x0, x0, x2
	mov	x2, 0
	bne	.L97
	mov	x0, x20
	ldp	x19, x20, [sp, 16]
	ldp	x21, x22, [sp, 32]
	ldp	x29, x30, [sp], 64
	.cfi_remember_state
	.cfi_restore 30
	.cfi_restore 29
	.cfi_restore 21
	.cfi_restore 22
	.cfi_restore 19
	.cfi_restore 20
	.cfi_def_cfa_offset 0
	ret
	.p2align 2,,3
.L96:
	.cfi_restore_state
	mov	x1, x22
	mov	x0, x19
	adrp	x3, .LC8
	adrp	x2, .LC12
	add	x3, x3, :lo12:.LC8
	add	x2, x2, :lo12:.LC12
	str	w21, [sp, 48]
	bl	_ZN7openpal6Logger3LogERKNS_10LogFiltersEPKcS5_
	b	.L90
.L97:
	bl	__stack_chk_fail
	.cfi_endproc
.LFE3005:
	.size	_ZN8opendnp321SLLS_TransmitWaitBaseINS_13SLLS_NotResetEE17OnResetLinkStatesERNS_11LinkContextE, .-_ZN8opendnp321SLLS_TransmitWaitBaseINS_13SLLS_NotResetEE17OnResetLinkStatesERNS_11LinkContextE
	.section	.rodata.str1.8
	.align	3
.LC13:
	.string	"Invalid event for state: %s"
	.align	3
.LC14:
	.string	"/home/jaehyun/OpenPLC_v3/utils/dnp3_src/cpp/libs/src/opendnp3/link/SecLinkLayerStates.cpp(39)"
	.text
	.align	2
	.p2align 4,,11
	.global	_ZN8opendnp312SecStateBase16OnTransmitResultERNS_11LinkContextEb
	.type	_ZN8opendnp312SecStateBase16OnTransmitResultERNS_11LinkContextEb, %function
_ZN8opendnp312SecStateBase16OnTransmitResultERNS_11LinkContextEb:
.LFB2337:
	.cfi_startproc
	stp	x29, x30, [sp, -208]!
	.cfi_def_cfa_offset 208
	.cfi_offset 29, -208
	.cfi_offset 30, -200
	adrp	x2, :got:__stack_chk_guard
	mov	x29, sp
	ldr	x2, [x2, #:got_lo12:__stack_chk_guard]
	stp	x19, x20, [sp, 16]
	.cfi_offset 19, -192
	.cfi_offset 20, -184
	add	x20, x1, 376
	stp	x21, x22, [sp, 32]
	.cfi_offset 21, -176
	.cfi_offset 22, -168
	add	x22, sp, 72
	mov	x19, x0
	ldr	x1, [x2]
	str	x1, [sp, 200]
	mov	x1, 0
	mov	w21, 2
	mov	x0, x20
	mov	x1, x22
	str	w21, [sp, 72]
	bl	_ZNK7openpal6Logger9IsEnabledERKNS_10LogFiltersE
	tst	w0, 255
	beq	.L99
	ldr	x1, [x19]
	mov	x0, x19
	ldr	x1, [x1, 40]
	str	x23, [sp, 48]
	.cfi_offset 23, -160
	add	x23, sp, 80
	blr	x1
	mov	x5, x0
	adrp	x4, .LC13
	add	x4, x4, :lo12:.LC13
	mov	x3, 120
	mov	x0, x23
	mov	x1, x3
	mov	w2, 1
	bl	__snprintf_chk
	str	w21, [sp, 72]
	mov	x3, x23
	mov	x1, x22
	mov	x0, x20
	adrp	x2, .LC14
	add	x2, x2, :lo12:.LC14
	bl	_ZN7openpal6Logger3LogERKNS_10LogFiltersEPKcS5_
	ldr	x23, [sp, 48]
	.cfi_restore 23
.L99:
	adrp	x0, :got:__stack_chk_guard
	ldr	x0, [x0, #:got_lo12:__stack_chk_guard]
	ldr	x2, [sp, 200]
	ldr	x1, [x0]
	subs	x2, x2, x1
	mov	x1, 0
	bne	.L105
	mov	x0, x19
	ldp	x19, x20, [sp, 16]
	ldp	x21, x22, [sp, 32]
	ldp	x29, x30, [sp], 208
	.cfi_remember_state
	.cfi_restore 30
	.cfi_restore 29
	.cfi_restore 21
	.cfi_restore 22
	.cfi_restore 19
	.cfi_restore 20
	.cfi_def_cfa_offset 0
	ret
.L105:
	.cfi_restore_state
	str	x23, [sp, 48]
	.cfi_offset 23, -160
	bl	__stack_chk_fail
	.cfi_endproc
.LFE2337:
	.size	_ZN8opendnp312SecStateBase16OnTransmitResultERNS_11LinkContextEb, .-_ZN8opendnp312SecStateBase16OnTransmitResultERNS_11LinkContextEb
	.align	2
	.p2align 4,,11
	.global	_ZN8opendnp313SLLS_NotReset17OnResetLinkStatesERNS_11LinkContextE
	.type	_ZN8opendnp313SLLS_NotReset17OnResetLinkStatesERNS_11LinkContextE, %function
_ZN8opendnp313SLLS_NotReset17OnResetLinkStatesERNS_11LinkContextE:
.LFB2340:
	.cfi_startproc
	stp	x29, x30, [sp, -32]!
	.cfi_def_cfa_offset 32
	.cfi_offset 29, -32
	.cfi_offset 30, -24
	mov	x0, x1
	mov	x29, sp
	str	x19, [sp, 16]
	.cfi_offset 19, -16
	mov	x19, x1
	bl	_ZN8opendnp311LinkContext8QueueAckEv
	mov	w1, 1
	adrp	x0, :got:_ZN8opendnp322SLLS_TransmitWaitReset8instanceE
	strb	w1, [x19, 504]
	ldr	x0, [x0, #:got_lo12:_ZN8opendnp322SLLS_TransmitWaitReset8instanceE]
	ldr	x19, [sp, 16]
	ldp	x29, x30, [sp], 32
	.cfi_restore 30
	.cfi_restore 29
	.cfi_restore 19
	.cfi_def_cfa_offset 0
	ret
	.cfi_endproc
.LFE2340:
	.size	_ZN8opendnp313SLLS_NotReset17OnResetLinkStatesERNS_11LinkContextE, .-_ZN8opendnp313SLLS_NotReset17OnResetLinkStatesERNS_11LinkContextE
	.global	_ZN8opendnp310SLLS_Reset17OnResetLinkStatesERNS_11LinkContextE
	.set	_ZN8opendnp310SLLS_Reset17OnResetLinkStatesERNS_11LinkContextE,_ZN8opendnp313SLLS_NotReset17OnResetLinkStatesERNS_11LinkContextE
	.align	2
	.p2align 4,,11
	.global	_ZN8opendnp310SLLS_Reset19OnRequestLinkStatusERNS_11LinkContextE
	.type	_ZN8opendnp310SLLS_Reset19OnRequestLinkStatusERNS_11LinkContextE, %function
_ZN8opendnp310SLLS_Reset19OnRequestLinkStatusERNS_11LinkContextE:
.LFB2345:
	.cfi_startproc
	stp	x29, x30, [sp, -16]!
	.cfi_def_cfa_offset 16
	.cfi_offset 29, -16
	.cfi_offset 30, -8
	mov	x0, x1
	mov	x29, sp
	bl	_ZN8opendnp311LinkContext15QueueLinkStatusEv
	adrp	x0, :got:_ZN8opendnp322SLLS_TransmitWaitReset8instanceE
	ldp	x29, x30, [sp], 16
	.cfi_restore 30
	.cfi_restore 29
	.cfi_def_cfa_offset 0
	ldr	x0, [x0, #:got_lo12:_ZN8opendnp322SLLS_TransmitWaitReset8instanceE]
	ret
	.cfi_endproc
.LFE2345:
	.size	_ZN8opendnp310SLLS_Reset19OnRequestLinkStatusERNS_11LinkContextE, .-_ZN8opendnp310SLLS_Reset19OnRequestLinkStatusERNS_11LinkContextE
	.align	2
	.p2align 4,,11
	.global	_ZN8opendnp313SLLS_NotReset19OnRequestLinkStatusERNS_11LinkContextE
	.type	_ZN8opendnp313SLLS_NotReset19OnRequestLinkStatusERNS_11LinkContextE, %function
_ZN8opendnp313SLLS_NotReset19OnRequestLinkStatusERNS_11LinkContextE:
.LFB2341:
	.cfi_startproc
	stp	x29, x30, [sp, -16]!
	.cfi_def_cfa_offset 16
	.cfi_offset 29, -16
	.cfi_offset 30, -8
	mov	x0, x1
	mov	x29, sp
	bl	_ZN8opendnp311LinkContext15QueueLinkStatusEv
	adrp	x0, :got:_ZN8opendnp325SLLS_TransmitWaitNotReset8instanceE
	ldp	x29, x30, [sp], 16
	.cfi_restore 30
	.cfi_restore 29
	.cfi_def_cfa_offset 0
	ldr	x0, [x0, #:got_lo12:_ZN8opendnp325SLLS_TransmitWaitNotReset8instanceE]
	ret
	.cfi_endproc
.LFE2341:
	.size	_ZN8opendnp313SLLS_NotReset19OnRequestLinkStatusERNS_11LinkContextE, .-_ZN8opendnp313SLLS_NotReset19OnRequestLinkStatusERNS_11LinkContextE
	.section	.rodata.str1.8
	.align	3
.LC15:
	.string	"Received TestLinkStatus with invalid FCB"
	.align	3
.LC16:
	.string	"/home/jaehyun/OpenPLC_v3/utils/dnp3_src/cpp/libs/src/opendnp3/link/SecLinkLayerStates.cpp(93)"
	.text
	.align	2
	.p2align 4,,11
	.global	_ZN8opendnp310SLLS_Reset16OnTestLinkStatusERNS_11LinkContextEb
	.type	_ZN8opendnp310SLLS_Reset16OnTestLinkStatusERNS_11LinkContextEb, %function
_ZN8opendnp310SLLS_Reset16OnTestLinkStatusERNS_11LinkContextEb:
.LFB2342:
	.cfi_startproc
	stp	x29, x30, [sp, -64]!
	.cfi_def_cfa_offset 64
	.cfi_offset 29, -64
	.cfi_offset 30, -56
	adrp	x3, :got:__stack_chk_guard
	mov	x29, sp
	ldr	x3, [x3, #:got_lo12:__stack_chk_guard]
	stp	x19, x20, [sp, 16]
	.cfi_offset 19, -48
	.cfi_offset 20, -40
	mov	x20, x0
	ldrb	w0, [x1, 504]
	mov	x19, x1
	ldr	x1, [x3]
	str	x1, [sp, 56]
	mov	x1, 0
	cmp	w0, w2, uxtb
	bne	.L113
	mov	x0, x19
	bl	_ZN8opendnp311LinkContext8QueueAckEv
	adrp	x0, :got:_ZN8opendnp322SLLS_TransmitWaitReset8instanceE
	ldrb	w1, [x19, 504]
	ldr	x0, [x0, #:got_lo12:_ZN8opendnp322SLLS_TransmitWaitReset8instanceE]
	eor	w1, w1, 1
	strb	w1, [x19, 504]
.L112:
	adrp	x1, :got:__stack_chk_guard
	ldr	x1, [x1, #:got_lo12:__stack_chk_guard]
	ldr	x3, [sp, 56]
	ldr	x2, [x1]
	subs	x3, x3, x2
	mov	x2, 0
	bne	.L121
	ldp	x19, x20, [sp, 16]
	ldp	x29, x30, [sp], 64
	.cfi_remember_state
	.cfi_restore 30
	.cfi_restore 29
	.cfi_restore 19
	.cfi_restore 20
	.cfi_def_cfa_offset 0
	ret
	.p2align 2,,3
.L113:
	.cfi_restore_state
	add	x19, x19, 376
	stp	x21, x22, [sp, 32]
	.cfi_offset 22, -24
	.cfi_offset 21, -32
	add	x22, sp, 48
	mov	w21, 4
	mov	x0, x19
	mov	x1, x22
	str	w21, [sp, 48]
	bl	_ZNK7openpal6Logger9IsEnabledERKNS_10LogFiltersE
	tst	w0, 255
	bne	.L122
	mov	x0, x20
	ldp	x21, x22, [sp, 32]
	.cfi_restore 22
	.cfi_restore 21
	b	.L112
	.p2align 2,,3
.L122:
	.cfi_offset 21, -32
	.cfi_offset 22, -24
	mov	x1, x22
	mov	x0, x19
	adrp	x3, .LC15
	adrp	x2, .LC16
	add	x3, x3, :lo12:.LC15
	add	x2, x2, :lo12:.LC16
	str	w21, [sp, 48]
	bl	_ZN7openpal6Logger3LogERKNS_10LogFiltersEPKcS5_
	mov	x0, x20
	ldp	x21, x22, [sp, 32]
	.cfi_restore 22
	.cfi_restore 21
	b	.L112
.L121:
	stp	x21, x22, [sp, 32]
	.cfi_offset 22, -24
	.cfi_offset 21, -32
	bl	__stack_chk_fail
	.cfi_endproc
.LFE2342:
	.size	_ZN8opendnp310SLLS_Reset16OnTestLinkStatusERNS_11LinkContextEb, .-_ZN8opendnp310SLLS_Reset16OnTestLinkStatusERNS_11LinkContextEb
	.section	.rodata.str1.8
	.align	3
.LC17:
	.string	"Confirmed data w/ wrong FCB"
	.align	3
.LC18:
	.string	"/home/jaehyun/OpenPLC_v3/utils/dnp3_src/cpp/libs/src/opendnp3/link/SecLinkLayerStates.cpp(109)"
	.text
	.align	2
	.p2align 4,,11
	.global	_ZN8opendnp310SLLS_Reset19OnConfirmedUserDataERNS_11LinkContextEbRKN7openpal6RSliceE
	.type	_ZN8opendnp310SLLS_Reset19OnConfirmedUserDataERNS_11LinkContextEbRKN7openpal6RSliceE, %function
_ZN8opendnp310SLLS_Reset19OnConfirmedUserDataERNS_11LinkContextEbRKN7openpal6RSliceE:
.LFB2343:
	.cfi_startproc
	stp	x29, x30, [sp, -64]!
	.cfi_def_cfa_offset 64
	.cfi_offset 29, -64
	.cfi_offset 30, -56
	adrp	x0, :got:__stack_chk_guard
	mov	x29, sp
	ldr	x4, [x0, #:got_lo12:__stack_chk_guard]
	stp	x19, x20, [sp, 16]
	mov	x0, x1
	str	x21, [sp, 32]
	.cfi_offset 19, -48
	.cfi_offset 20, -40
	.cfi_offset 21, -32
	mov	x19, x1
	mov	x20, x3
	and	w21, w2, 255
	ldr	x1, [x4]
	str	x1, [sp, 56]
	mov	x1, 0
	bl	_ZN8opendnp311LinkContext8QueueAckEv
	ldrb	w0, [x19, 504]
	cmp	w0, w21
	beq	.L131
	add	x19, x19, 376
	add	x21, sp, 48
	mov	w20, 4
	mov	x0, x19
	mov	x1, x21
	str	w20, [sp, 48]
	bl	_ZNK7openpal6Logger9IsEnabledERKNS_10LogFiltersE
	tst	w0, 255
	bne	.L132
.L125:
	adrp	x1, :got:__stack_chk_guard
	adrp	x0, :got:_ZN8opendnp322SLLS_TransmitWaitReset8instanceE
	ldr	x1, [x1, #:got_lo12:__stack_chk_guard]
	ldr	x0, [x0, #:got_lo12:_ZN8opendnp322SLLS_TransmitWaitReset8instanceE]
	ldr	x3, [sp, 56]
	ldr	x2, [x1]
	subs	x3, x3, x2
	mov	x2, 0
	bne	.L133
	ldp	x19, x20, [sp, 16]
	ldr	x21, [sp, 32]
	ldp	x29, x30, [sp], 64
	.cfi_remember_state
	.cfi_restore 30
	.cfi_restore 29
	.cfi_restore 21
	.cfi_restore 19
	.cfi_restore 20
	.cfi_def_cfa_offset 0
	ret
	.p2align 2,,3
.L132:
	.cfi_restore_state
	mov	x1, x21
	mov	x0, x19
	adrp	x3, .LC17
	adrp	x2, .LC18
	add	x3, x3, :lo12:.LC17
	add	x2, x2, :lo12:.LC18
	str	w20, [sp, 48]
	bl	_ZN7openpal6Logger3LogERKNS_10LogFiltersEPKcS5_
	b	.L125
	.p2align 2,,3
.L131:
	eor	w0, w0, 1
	strb	w0, [x19, 504]
	mov	x1, x20
	mov	x0, x19
	bl	_ZN8opendnp311LinkContext10PushDataUpERKN7openpal6RSliceE
	b	.L125
.L133:
	bl	__stack_chk_fail
	.cfi_endproc
.LFE2343:
	.size	_ZN8opendnp310SLLS_Reset19OnConfirmedUserDataERNS_11LinkContextEbRKN7openpal6RSliceE, .-_ZN8opendnp310SLLS_Reset19OnConfirmedUserDataERNS_11LinkContextEbRKN7openpal6RSliceE
	.section	.text.startup,"ax",@progbits
	.align	2
	.p2align 4,,11
	.type	_GLOBAL__sub_I_SecLinkLayerStates.cpp, %function
_GLOBAL__sub_I_SecLinkLayerStates.cpp:
.LFB3022:
	.cfi_startproc
	adrp	x7, :got:_ZN8opendnp313SLLS_NotReset8instanceE
	adrp	x6, :got:_ZN8opendnp310SLLS_Reset8instanceE
	adrp	x5, :got:_ZN8opendnp322SLLS_TransmitWaitReset8instanceE
	adrp	x4, :got:_ZN8opendnp325SLLS_TransmitWaitNotReset8instanceE
	adrp	x3, :got:_ZTVN8opendnp313SLLS_NotResetE
	adrp	x2, :got:_ZTVN8opendnp310SLLS_ResetE
	adrp	x1, :got:_ZTVN8opendnp322SLLS_TransmitWaitResetE
	adrp	x0, :got:_ZTVN8opendnp325SLLS_TransmitWaitNotResetE
	ldr	x7, [x7, #:got_lo12:_ZN8opendnp313SLLS_NotReset8instanceE]
	ldr	x6, [x6, #:got_lo12:_ZN8opendnp310SLLS_Reset8instanceE]
	ldr	x5, [x5, #:got_lo12:_ZN8opendnp322SLLS_TransmitWaitReset8instanceE]
	ldr	x4, [x4, #:got_lo12:_ZN8opendnp325SLLS_TransmitWaitNotReset8instanceE]
	ldr	x3, [x3, #:got_lo12:_ZTVN8opendnp313SLLS_NotResetE]
	ldr	x2, [x2, #:got_lo12:_ZTVN8opendnp310SLLS_ResetE]
	add	x3, x3, 16
	ldr	x1, [x1, #:got_lo12:_ZTVN8opendnp322SLLS_TransmitWaitResetE]
	add	x2, x2, 16
	ldr	x0, [x0, #:got_lo12:_ZTVN8opendnp325SLLS_TransmitWaitNotResetE]
	add	x1, x1, 16
	str	x2, [x6]
	add	x0, x0, 16
	str	x1, [x5]
	str	x0, [x4]
	str	x3, [x7]
	ret
	.cfi_endproc
.LFE3022:
	.size	_GLOBAL__sub_I_SecLinkLayerStates.cpp, .-_GLOBAL__sub_I_SecLinkLayerStates.cpp
	.section	.init_array,"aw"
	.align	3
	.xword	_GLOBAL__sub_I_SecLinkLayerStates.cpp
	.weak	_ZTSN8opendnp312SecStateBaseE
	.section	.rodata._ZTSN8opendnp312SecStateBaseE,"aG",@progbits,_ZTSN8opendnp312SecStateBaseE,comdat
	.align	3
	.type	_ZTSN8opendnp312SecStateBaseE, %object
	.size	_ZTSN8opendnp312SecStateBaseE, 26
_ZTSN8opendnp312SecStateBaseE:
	.string	"N8opendnp312SecStateBaseE"
	.weak	_ZTIN8opendnp312SecStateBaseE
	.section	.data.rel.ro._ZTIN8opendnp312SecStateBaseE,"awG",@progbits,_ZTIN8opendnp312SecStateBaseE,comdat
	.align	3
	.type	_ZTIN8opendnp312SecStateBaseE, %object
	.size	_ZTIN8opendnp312SecStateBaseE, 16
_ZTIN8opendnp312SecStateBaseE:
	.xword	_ZTVN10__cxxabiv117__class_type_infoE+16
	.xword	_ZTSN8opendnp312SecStateBaseE
	.weak	_ZTSN8opendnp313SLLS_NotResetE
	.section	.rodata._ZTSN8opendnp313SLLS_NotResetE,"aG",@progbits,_ZTSN8opendnp313SLLS_NotResetE,comdat
	.align	3
	.type	_ZTSN8opendnp313SLLS_NotResetE, %object
	.size	_ZTSN8opendnp313SLLS_NotResetE, 27
_ZTSN8opendnp313SLLS_NotResetE:
	.string	"N8opendnp313SLLS_NotResetE"
	.weak	_ZTIN8opendnp313SLLS_NotResetE
	.section	.data.rel.ro._ZTIN8opendnp313SLLS_NotResetE,"awG",@progbits,_ZTIN8opendnp313SLLS_NotResetE,comdat
	.align	3
	.type	_ZTIN8opendnp313SLLS_NotResetE, %object
	.size	_ZTIN8opendnp313SLLS_NotResetE, 24
_ZTIN8opendnp313SLLS_NotResetE:
	.xword	_ZTVN10__cxxabiv120__si_class_type_infoE+16
	.xword	_ZTSN8opendnp313SLLS_NotResetE
	.xword	_ZTIN8opendnp312SecStateBaseE
	.weak	_ZTSN8opendnp310SLLS_ResetE
	.section	.rodata._ZTSN8opendnp310SLLS_ResetE,"aG",@progbits,_ZTSN8opendnp310SLLS_ResetE,comdat
	.align	3
	.type	_ZTSN8opendnp310SLLS_ResetE, %object
	.size	_ZTSN8opendnp310SLLS_ResetE, 24
_ZTSN8opendnp310SLLS_ResetE:
	.string	"N8opendnp310SLLS_ResetE"
	.weak	_ZTIN8opendnp310SLLS_ResetE
	.section	.data.rel.ro._ZTIN8opendnp310SLLS_ResetE,"awG",@progbits,_ZTIN8opendnp310SLLS_ResetE,comdat
	.align	3
	.type	_ZTIN8opendnp310SLLS_ResetE, %object
	.size	_ZTIN8opendnp310SLLS_ResetE, 24
_ZTIN8opendnp310SLLS_ResetE:
	.xword	_ZTVN10__cxxabiv120__si_class_type_infoE+16
	.xword	_ZTSN8opendnp310SLLS_ResetE
	.xword	_ZTIN8opendnp312SecStateBaseE
	.weak	_ZTSN8opendnp321SLLS_TransmitWaitBaseINS_10SLLS_ResetEEE
	.section	.rodata._ZTSN8opendnp321SLLS_TransmitWaitBaseINS_10SLLS_ResetEEE,"aG",@progbits,_ZTSN8opendnp321SLLS_TransmitWaitBaseINS_10SLLS_ResetEEE,comdat
	.align	3
	.type	_ZTSN8opendnp321SLLS_TransmitWaitBaseINS_10SLLS_ResetEEE, %object
	.size	_ZTSN8opendnp321SLLS_TransmitWaitBaseINS_10SLLS_ResetEEE, 53
_ZTSN8opendnp321SLLS_TransmitWaitBaseINS_10SLLS_ResetEEE:
	.string	"N8opendnp321SLLS_TransmitWaitBaseINS_10SLLS_ResetEEE"
	.weak	_ZTIN8opendnp321SLLS_TransmitWaitBaseINS_10SLLS_ResetEEE
	.section	.data.rel.ro._ZTIN8opendnp321SLLS_TransmitWaitBaseINS_10SLLS_ResetEEE,"awG",@progbits,_ZTIN8opendnp321SLLS_TransmitWaitBaseINS_10SLLS_ResetEEE,comdat
	.align	3
	.type	_ZTIN8opendnp321SLLS_TransmitWaitBaseINS_10SLLS_ResetEEE, %object
	.size	_ZTIN8opendnp321SLLS_TransmitWaitBaseINS_10SLLS_ResetEEE, 24
_ZTIN8opendnp321SLLS_TransmitWaitBaseINS_10SLLS_ResetEEE:
	.xword	_ZTVN10__cxxabiv120__si_class_type_infoE+16
	.xword	_ZTSN8opendnp321SLLS_TransmitWaitBaseINS_10SLLS_ResetEEE
	.xword	_ZTIN8opendnp312SecStateBaseE
	.weak	_ZTSN8opendnp322SLLS_TransmitWaitResetE
	.section	.rodata._ZTSN8opendnp322SLLS_TransmitWaitResetE,"aG",@progbits,_ZTSN8opendnp322SLLS_TransmitWaitResetE,comdat
	.align	3
	.type	_ZTSN8opendnp322SLLS_TransmitWaitResetE, %object
	.size	_ZTSN8opendnp322SLLS_TransmitWaitResetE, 36
_ZTSN8opendnp322SLLS_TransmitWaitResetE:
	.string	"N8opendnp322SLLS_TransmitWaitResetE"
	.weak	_ZTIN8opendnp322SLLS_TransmitWaitResetE
	.section	.data.rel.ro._ZTIN8opendnp322SLLS_TransmitWaitResetE,"awG",@progbits,_ZTIN8opendnp322SLLS_TransmitWaitResetE,comdat
	.align	3
	.type	_ZTIN8opendnp322SLLS_TransmitWaitResetE, %object
	.size	_ZTIN8opendnp322SLLS_TransmitWaitResetE, 24
_ZTIN8opendnp322SLLS_TransmitWaitResetE:
	.xword	_ZTVN10__cxxabiv120__si_class_type_infoE+16
	.xword	_ZTSN8opendnp322SLLS_TransmitWaitResetE
	.xword	_ZTIN8opendnp321SLLS_TransmitWaitBaseINS_10SLLS_ResetEEE
	.weak	_ZTSN8opendnp321SLLS_TransmitWaitBaseINS_13SLLS_NotResetEEE
	.section	.rodata._ZTSN8opendnp321SLLS_TransmitWaitBaseINS_13SLLS_NotResetEEE,"aG",@progbits,_ZTSN8opendnp321SLLS_TransmitWaitBaseINS_13SLLS_NotResetEEE,comdat
	.align	3
	.type	_ZTSN8opendnp321SLLS_TransmitWaitBaseINS_13SLLS_NotResetEEE, %object
	.size	_ZTSN8opendnp321SLLS_TransmitWaitBaseINS_13SLLS_NotResetEEE, 56
_ZTSN8opendnp321SLLS_TransmitWaitBaseINS_13SLLS_NotResetEEE:
	.string	"N8opendnp321SLLS_TransmitWaitBaseINS_13SLLS_NotResetEEE"
	.weak	_ZTIN8opendnp321SLLS_TransmitWaitBaseINS_13SLLS_NotResetEEE
	.section	.data.rel.ro._ZTIN8opendnp321SLLS_TransmitWaitBaseINS_13SLLS_NotResetEEE,"awG",@progbits,_ZTIN8opendnp321SLLS_TransmitWaitBaseINS_13SLLS_NotResetEEE,comdat
	.align	3
	.type	_ZTIN8opendnp321SLLS_TransmitWaitBaseINS_13SLLS_NotResetEEE, %object
	.size	_ZTIN8opendnp321SLLS_TransmitWaitBaseINS_13SLLS_NotResetEEE, 24
_ZTIN8opendnp321SLLS_TransmitWaitBaseINS_13SLLS_NotResetEEE:
	.xword	_ZTVN10__cxxabiv120__si_class_type_infoE+16
	.xword	_ZTSN8opendnp321SLLS_TransmitWaitBaseINS_13SLLS_NotResetEEE
	.xword	_ZTIN8opendnp312SecStateBaseE
	.weak	_ZTSN8opendnp325SLLS_TransmitWaitNotResetE
	.section	.rodata._ZTSN8opendnp325SLLS_TransmitWaitNotResetE,"aG",@progbits,_ZTSN8opendnp325SLLS_TransmitWaitNotResetE,comdat
	.align	3
	.type	_ZTSN8opendnp325SLLS_TransmitWaitNotResetE, %object
	.size	_ZTSN8opendnp325SLLS_TransmitWaitNotResetE, 39
_ZTSN8opendnp325SLLS_TransmitWaitNotResetE:
	.string	"N8opendnp325SLLS_TransmitWaitNotResetE"
	.weak	_ZTIN8opendnp325SLLS_TransmitWaitNotResetE
	.section	.data.rel.ro._ZTIN8opendnp325SLLS_TransmitWaitNotResetE,"awG",@progbits,_ZTIN8opendnp325SLLS_TransmitWaitNotResetE,comdat
	.align	3
	.type	_ZTIN8opendnp325SLLS_TransmitWaitNotResetE, %object
	.size	_ZTIN8opendnp325SLLS_TransmitWaitNotResetE, 24
_ZTIN8opendnp325SLLS_TransmitWaitNotResetE:
	.xword	_ZTVN10__cxxabiv120__si_class_type_infoE+16
	.xword	_ZTSN8opendnp325SLLS_TransmitWaitNotResetE
	.xword	_ZTIN8opendnp321SLLS_TransmitWaitBaseINS_13SLLS_NotResetEEE
	.weak	_ZTVN8opendnp322SLLS_TransmitWaitResetE
	.section	.data.rel.ro._ZTVN8opendnp322SLLS_TransmitWaitResetE,"awG",@progbits,_ZTVN8opendnp322SLLS_TransmitWaitResetE,comdat
	.align	3
	.type	_ZTVN8opendnp322SLLS_TransmitWaitResetE, %object
	.size	_ZTVN8opendnp322SLLS_TransmitWaitResetE, 64
_ZTVN8opendnp322SLLS_TransmitWaitResetE:
	.xword	0
	.xword	_ZTIN8opendnp322SLLS_TransmitWaitResetE
	.xword	_ZN8opendnp321SLLS_TransmitWaitBaseINS_10SLLS_ResetEE17OnResetLinkStatesERNS_11LinkContextE
	.xword	_ZN8opendnp321SLLS_TransmitWaitBaseINS_10SLLS_ResetEE19OnRequestLinkStatusERNS_11LinkContextE
	.xword	_ZN8opendnp321SLLS_TransmitWaitBaseINS_10SLLS_ResetEE16OnTestLinkStatusERNS_11LinkContextEb
	.xword	_ZN8opendnp321SLLS_TransmitWaitBaseINS_10SLLS_ResetEE19OnConfirmedUserDataERNS_11LinkContextEbRKN7openpal6RSliceE
	.xword	_ZN8opendnp321SLLS_TransmitWaitBaseINS_10SLLS_ResetEE16OnTransmitResultERNS_11LinkContextEb
	.xword	_ZNK8opendnp322SLLS_TransmitWaitReset4NameEv
	.weak	_ZTVN8opendnp325SLLS_TransmitWaitNotResetE
	.section	.data.rel.ro._ZTVN8opendnp325SLLS_TransmitWaitNotResetE,"awG",@progbits,_ZTVN8opendnp325SLLS_TransmitWaitNotResetE,comdat
	.align	3
	.type	_ZTVN8opendnp325SLLS_TransmitWaitNotResetE, %object
	.size	_ZTVN8opendnp325SLLS_TransmitWaitNotResetE, 64
_ZTVN8opendnp325SLLS_TransmitWaitNotResetE:
	.xword	0
	.xword	_ZTIN8opendnp325SLLS_TransmitWaitNotResetE
	.xword	_ZN8opendnp321SLLS_TransmitWaitBaseINS_13SLLS_NotResetEE17OnResetLinkStatesERNS_11LinkContextE
	.xword	_ZN8opendnp321SLLS_TransmitWaitBaseINS_13SLLS_NotResetEE19OnRequestLinkStatusERNS_11LinkContextE
	.xword	_ZN8opendnp321SLLS_TransmitWaitBaseINS_13SLLS_NotResetEE16OnTestLinkStatusERNS_11LinkContextEb
	.xword	_ZN8opendnp321SLLS_TransmitWaitBaseINS_13SLLS_NotResetEE19OnConfirmedUserDataERNS_11LinkContextEbRKN7openpal6RSliceE
	.xword	_ZN8opendnp321SLLS_TransmitWaitBaseINS_13SLLS_NotResetEE16OnTransmitResultERNS_11LinkContextEb
	.xword	_ZNK8opendnp325SLLS_TransmitWaitNotReset4NameEv
	.weak	_ZTVN8opendnp312SecStateBaseE
	.section	.data.rel.ro._ZTVN8opendnp312SecStateBaseE,"awG",@progbits,_ZTVN8opendnp312SecStateBaseE,comdat
	.align	3
	.type	_ZTVN8opendnp312SecStateBaseE, %object
	.size	_ZTVN8opendnp312SecStateBaseE, 64
_ZTVN8opendnp312SecStateBaseE:
	.xword	0
	.xword	_ZTIN8opendnp312SecStateBaseE
	.xword	__cxa_pure_virtual
	.xword	__cxa_pure_virtual
	.xword	__cxa_pure_virtual
	.xword	__cxa_pure_virtual
	.xword	_ZN8opendnp312SecStateBase16OnTransmitResultERNS_11LinkContextEb
	.xword	__cxa_pure_virtual
	.weak	_ZTVN8opendnp313SLLS_NotResetE
	.section	.data.rel.ro._ZTVN8opendnp313SLLS_NotResetE,"awG",@progbits,_ZTVN8opendnp313SLLS_NotResetE,comdat
	.align	3
	.type	_ZTVN8opendnp313SLLS_NotResetE, %object
	.size	_ZTVN8opendnp313SLLS_NotResetE, 64
_ZTVN8opendnp313SLLS_NotResetE:
	.xword	0
	.xword	_ZTIN8opendnp313SLLS_NotResetE
	.xword	_ZN8opendnp313SLLS_NotReset17OnResetLinkStatesERNS_11LinkContextE
	.xword	_ZN8opendnp313SLLS_NotReset19OnRequestLinkStatusERNS_11LinkContextE
	.xword	_ZN8opendnp313SLLS_NotReset16OnTestLinkStatusERNS_11LinkContextEb
	.xword	_ZN8opendnp313SLLS_NotReset19OnConfirmedUserDataERNS_11LinkContextEbRKN7openpal6RSliceE
	.xword	_ZN8opendnp312SecStateBase16OnTransmitResultERNS_11LinkContextEb
	.xword	_ZNK8opendnp313SLLS_NotReset4NameEv
	.weak	_ZTVN8opendnp310SLLS_ResetE
	.section	.data.rel.ro._ZTVN8opendnp310SLLS_ResetE,"awG",@progbits,_ZTVN8opendnp310SLLS_ResetE,comdat
	.align	3
	.type	_ZTVN8opendnp310SLLS_ResetE, %object
	.size	_ZTVN8opendnp310SLLS_ResetE, 64
_ZTVN8opendnp310SLLS_ResetE:
	.xword	0
	.xword	_ZTIN8opendnp310SLLS_ResetE
	.xword	_ZN8opendnp310SLLS_Reset17OnResetLinkStatesERNS_11LinkContextE
	.xword	_ZN8opendnp310SLLS_Reset19OnRequestLinkStatusERNS_11LinkContextE
	.xword	_ZN8opendnp310SLLS_Reset16OnTestLinkStatusERNS_11LinkContextEb
	.xword	_ZN8opendnp310SLLS_Reset19OnConfirmedUserDataERNS_11LinkContextEbRKN7openpal6RSliceE
	.xword	_ZN8opendnp312SecStateBase16OnTransmitResultERNS_11LinkContextEb
	.xword	_ZNK8opendnp310SLLS_Reset4NameEv
	.global	_ZN8opendnp325SLLS_TransmitWaitNotReset8instanceE
	.global	_ZN8opendnp322SLLS_TransmitWaitReset8instanceE
	.global	_ZN8opendnp310SLLS_Reset8instanceE
	.global	_ZN8opendnp313SLLS_NotReset8instanceE
	.bss
	.align	3
	.type	_ZN8opendnp325SLLS_TransmitWaitNotReset8instanceE, %object
	.size	_ZN8opendnp325SLLS_TransmitWaitNotReset8instanceE, 8
_ZN8opendnp325SLLS_TransmitWaitNotReset8instanceE:
	.zero	8
	.type	_ZN8opendnp322SLLS_TransmitWaitReset8instanceE, %object
	.size	_ZN8opendnp322SLLS_TransmitWaitReset8instanceE, 8
_ZN8opendnp322SLLS_TransmitWaitReset8instanceE:
	.zero	8
	.type	_ZN8opendnp310SLLS_Reset8instanceE, %object
	.size	_ZN8opendnp310SLLS_Reset8instanceE, 8
_ZN8opendnp310SLLS_Reset8instanceE:
	.zero	8
	.type	_ZN8opendnp313SLLS_NotReset8instanceE, %object
	.size	_ZN8opendnp313SLLS_NotReset8instanceE, 8
_ZN8opendnp313SLLS_NotReset8instanceE:
	.zero	8
	.weak	__cxa_pure_virtual
	.ident	"GCC: (Ubuntu 11.4.0-1ubuntu1~22.04) 11.4.0"
	.section	.note.GNU-stack,"",@progbits
