	.arch armv8-a
	.file	"CommandResponseHandler.cpp"
	.text
	.section	.text._ZN8opendnp312IAPDUHandler14OnHeaderResultERKNS_12HeaderRecordERKNS_8IINFieldE,"axG",@progbits,_ZN8opendnp312IAPDUHandler14OnHeaderResultERKNS_12HeaderRecordERKNS_8IINFieldE,comdat
	.align	2
	.p2align 4,,11
	.weak	_ZN8opendnp312IAPDUHandler14OnHeaderResultERKNS_12HeaderRecordERKNS_8IINFieldE
	.type	_ZN8opendnp312IAPDUHandler14OnHeaderResultERKNS_12HeaderRecordERKNS_8IINFieldE, %function
_ZN8opendnp312IAPDUHandler14OnHeaderResultERKNS_12HeaderRecordERKNS_8IINFieldE:
.LFB274:
	.cfi_startproc
	ret
	.cfi_endproc
.LFE274:
	.size	_ZN8opendnp312IAPDUHandler14OnHeaderResultERKNS_12HeaderRecordERKNS_8IINFieldE, .-_ZN8opendnp312IAPDUHandler14OnHeaderResultERKNS_12HeaderRecordERKNS_8IINFieldE
	.text
	.align	2
	.p2align 4,,11
	.global	_ZN8opendnp322CommandResponseHandler9IsAllowedEjNS_14GroupVariationENS_13QualifierCodeE
	.type	_ZN8opendnp322CommandResponseHandler9IsAllowedEjNS_14GroupVariationENS_13QualifierCodeE, %function
_ZN8opendnp322CommandResponseHandler9IsAllowedEjNS_14GroupVariationENS_13QualifierCodeE:
.LFB2470:
	.cfi_startproc
	and	w3, w3, 255
	and	w2, w2, 65535
	cmp	w3, 40
	mov	w0, 0
	ccmp	w3, 23, 4, ne
	bne	.L4
	mov	w0, 1
	cmp	w2, 3073
	beq	.L4
	mov	w0, -10497
	add	w2, w2, w0
	and	w2, w2, 65535
	cmp	w2, 3
	cset	w0, ls
.L4:
	ret
	.cfi_endproc
.LFE2470:
	.size	_ZN8opendnp322CommandResponseHandler9IsAllowedEjNS_14GroupVariationENS_13QualifierCodeE, .-_ZN8opendnp322CommandResponseHandler9IsAllowedEjNS_14GroupVariationENS_13QualifierCodeE
	.section	.text._ZN8opendnp314FunctorVisitorINS_7IndexedINS_20AnalogOutputDouble64EEEZNS_22CommandResponseHandler27RespondToHeaderWithIteratorIS2_N7openpal11UInt8SimpleEEENS_8IINFieldENS_13QualifierCodeERKNS_14DNP3SerializerIT_EERKNS_11ICollectionINS1_ISB_EEEEPNS_21PrefixedWriteIteratorIT0_SB_EEEUlRKS3_E_E7OnValueESP_,"axG",@progbits,_ZN8opendnp314FunctorVisitorINS_7IndexedINS_20AnalogOutputDouble64EEEZNS_22CommandResponseHandler27RespondToHeaderWithIteratorIS2_N7openpal11UInt8SimpleEEENS_8IINFieldENS_13QualifierCodeERKNS_14DNP3SerializerIT_EERKNS_11ICollectionINS1_ISB_EEEEPNS_21PrefixedWriteIteratorIT0_SB_EEEUlRKS3_E_E7OnValueESP_,comdat
	.align	2
	.p2align 4,,11
	.weak	_ZN8opendnp314FunctorVisitorINS_7IndexedINS_20AnalogOutputDouble64EEEZNS_22CommandResponseHandler27RespondToHeaderWithIteratorIS2_N7openpal11UInt8SimpleEEENS_8IINFieldENS_13QualifierCodeERKNS_14DNP3SerializerIT_EERKNS_11ICollectionINS1_ISB_EEEEPNS_21PrefixedWriteIteratorIT0_SB_EEEUlRKS3_E_E7OnValueESP_
	.type	_ZN8opendnp314FunctorVisitorINS_7IndexedINS_20AnalogOutputDouble64EEEZNS_22CommandResponseHandler27RespondToHeaderWithIteratorIS2_N7openpal11UInt8SimpleEEENS_8IINFieldENS_13QualifierCodeERKNS_14DNP3SerializerIT_EERKNS_11ICollectionINS1_ISB_EEEEPNS_21PrefixedWriteIteratorIT0_SB_EEEUlRKS3_E_E7OnValueESP_, %function
_ZN8opendnp314FunctorVisitorINS_7IndexedINS_20AnalogOutputDouble64EEEZNS_22CommandResponseHandler27RespondToHeaderWithIteratorIS2_N7openpal11UInt8SimpleEEENS_8IINFieldENS_13QualifierCodeERKNS_14DNP3SerializerIT_EERKNS_11ICollectionINS1_ISB_EEEEPNS_21PrefixedWriteIteratorIT0_SB_EEEUlRKS3_E_E7OnValueESP_:
.LFB3448:
	.cfi_startproc
	stp	x29, x30, [sp, -80]!
	.cfi_def_cfa_offset 80
	.cfi_offset 29, -80
	.cfi_offset 30, -72
	mov	x29, sp
	stp	x19, x20, [sp, 16]
	.cfi_offset 19, -64
	.cfi_offset 20, -56
	mov	x19, x0
	adrp	x0, :got:__stack_chk_guard
	ldp	x4, x5, [x1]
	mov	x20, x1
	ldr	x3, [x19, 8]
	str	x21, [sp, 32]
	.cfi_offset 21, -48
	ldr	x0, [x0, #:got_lo12:__stack_chk_guard]
	add	x21, x19, 8
	ldr	x2, [x0]
	str	x2, [sp, 72]
	mov	x2, 0
	ldrb	w0, [x3, 40]
	stp	x4, x5, [sp, 56]
	ldr	w4, [x3, 32]
	ldrh	w2, [x1, 16]
	cmp	w4, w0
	bcs	.L22
	ldr	x0, [x3, 24]
	add	w4, w4, 1
	str	w4, [x3, 32]
	ldr	x3, [x0]
	ldr	x3, [x3, 48]
	blr	x3
	strb	w0, [sp, 64]
	ands	w2, w0, 255
	beq	.L11
	cmp	w2, 4
	bne	.L10
	ldr	x0, [x21, 16]
	mov	w1, 10
	bl	_ZN8opendnp38IINField6SetBitENS_6IINBitE
.L10:
	ldr	x19, [x21, 8]
	cbz	x19, .L8
	ldrb	w0, [x19, 29]
	cbz	w0, .L8
	ldr	x0, [x19, 48]
	ldr	w1, [x19, 24]
	ldr	w2, [x0]
	cmp	w2, w1
	bcs	.L23
.L8:
	adrp	x0, :got:__stack_chk_guard
	ldr	x0, [x0, #:got_lo12:__stack_chk_guard]
	ldr	x2, [sp, 72]
	ldr	x1, [x0]
	subs	x2, x2, x1
	mov	x1, 0
	bne	.L24
	ldp	x19, x20, [sp, 16]
	ldr	x21, [sp, 32]
	ldp	x29, x30, [sp], 80
	.cfi_remember_state
	.cfi_restore 30
	.cfi_restore 29
	.cfi_restore 21
	.cfi_restore 19
	.cfi_restore 20
	.cfi_def_cfa_offset 0
	ret
	.p2align 2,,3
.L11:
	.cfi_restore_state
	ldr	x1, [x19, 8]
	ldr	w0, [x1, 36]
	add	w0, w0, 1
	str	w0, [x1, 36]
	b	.L10
	.p2align 2,,3
.L22:
	mov	w0, 8
	strb	w0, [sp, 64]
	b	.L10
	.p2align 2,,3
.L23:
	ldr	x2, [x0, 8]
	mov	w1, 1
	ldrh	w3, [x20, 16]
	strb	w3, [x2]
	bl	_ZN7openpal6WSlice7AdvanceEj
	ldr	x2, [x19, 16]
	add	x0, sp, 56
	ldr	x1, [x19, 48]
	blr	x2
	ldrb	w0, [x19, 28]
	add	w0, w0, 1
	strb	w0, [x19, 28]
	b	.L8
.L24:
	bl	__stack_chk_fail
	.cfi_endproc
.LFE3448:
	.size	_ZN8opendnp314FunctorVisitorINS_7IndexedINS_20AnalogOutputDouble64EEEZNS_22CommandResponseHandler27RespondToHeaderWithIteratorIS2_N7openpal11UInt8SimpleEEENS_8IINFieldENS_13QualifierCodeERKNS_14DNP3SerializerIT_EERKNS_11ICollectionINS1_ISB_EEEEPNS_21PrefixedWriteIteratorIT0_SB_EEEUlRKS3_E_E7OnValueESP_, .-_ZN8opendnp314FunctorVisitorINS_7IndexedINS_20AnalogOutputDouble64EEEZNS_22CommandResponseHandler27RespondToHeaderWithIteratorIS2_N7openpal11UInt8SimpleEEENS_8IINFieldENS_13QualifierCodeERKNS_14DNP3SerializerIT_EERKNS_11ICollectionINS1_ISB_EEEEPNS_21PrefixedWriteIteratorIT0_SB_EEEUlRKS3_E_E7OnValueESP_
	.section	.text._ZN8opendnp314FunctorVisitorINS_7IndexedINS_19AnalogOutputFloat32EEEZNS_22CommandResponseHandler27RespondToHeaderWithIteratorIS2_N7openpal11UInt8SimpleEEENS_8IINFieldENS_13QualifierCodeERKNS_14DNP3SerializerIT_EERKNS_11ICollectionINS1_ISB_EEEEPNS_21PrefixedWriteIteratorIT0_SB_EEEUlRKS3_E_E7OnValueESP_,"axG",@progbits,_ZN8opendnp314FunctorVisitorINS_7IndexedINS_19AnalogOutputFloat32EEEZNS_22CommandResponseHandler27RespondToHeaderWithIteratorIS2_N7openpal11UInt8SimpleEEENS_8IINFieldENS_13QualifierCodeERKNS_14DNP3SerializerIT_EERKNS_11ICollectionINS1_ISB_EEEEPNS_21PrefixedWriteIteratorIT0_SB_EEEUlRKS3_E_E7OnValueESP_,comdat
	.align	2
	.p2align 4,,11
	.weak	_ZN8opendnp314FunctorVisitorINS_7IndexedINS_19AnalogOutputFloat32EEEZNS_22CommandResponseHandler27RespondToHeaderWithIteratorIS2_N7openpal11UInt8SimpleEEENS_8IINFieldENS_13QualifierCodeERKNS_14DNP3SerializerIT_EERKNS_11ICollectionINS1_ISB_EEEEPNS_21PrefixedWriteIteratorIT0_SB_EEEUlRKS3_E_E7OnValueESP_
	.type	_ZN8opendnp314FunctorVisitorINS_7IndexedINS_19AnalogOutputFloat32EEEZNS_22CommandResponseHandler27RespondToHeaderWithIteratorIS2_N7openpal11UInt8SimpleEEENS_8IINFieldENS_13QualifierCodeERKNS_14DNP3SerializerIT_EERKNS_11ICollectionINS1_ISB_EEEEPNS_21PrefixedWriteIteratorIT0_SB_EEEUlRKS3_E_E7OnValueESP_, %function
_ZN8opendnp314FunctorVisitorINS_7IndexedINS_19AnalogOutputFloat32EEEZNS_22CommandResponseHandler27RespondToHeaderWithIteratorIS2_N7openpal11UInt8SimpleEEENS_8IINFieldENS_13QualifierCodeERKNS_14DNP3SerializerIT_EERKNS_11ICollectionINS1_ISB_EEEEPNS_21PrefixedWriteIteratorIT0_SB_EEEUlRKS3_E_E7OnValueESP_:
.LFB3449:
	.cfi_startproc
	stp	x29, x30, [sp, -64]!
	.cfi_def_cfa_offset 64
	.cfi_offset 29, -64
	.cfi_offset 30, -56
	mov	x29, sp
	stp	x19, x20, [sp, 16]
	.cfi_offset 19, -48
	.cfi_offset 20, -40
	mov	x19, x0
	adrp	x0, :got:__stack_chk_guard
	mov	x20, x1
	ldr	x3, [x19, 8]
	ldr	x0, [x0, #:got_lo12:__stack_chk_guard]
	ldr	w4, [x3, 32]
	str	x21, [sp, 32]
	.cfi_offset 21, -32
	add	x21, x19, 8
	ldr	x2, [x0]
	str	x2, [sp, 56]
	mov	x2, 0
	ldr	x0, [x1]
	str	x0, [sp, 48]
	ldrb	w0, [x3, 40]
	ldrh	w2, [x1, 8]
	cmp	w4, w0
	bcs	.L39
	ldr	x0, [x3, 24]
	add	w4, w4, 1
	str	w4, [x3, 32]
	ldr	x3, [x0]
	ldr	x3, [x3, 40]
	blr	x3
	strb	w0, [sp, 52]
	ands	w2, w0, 255
	beq	.L28
	cmp	w2, 4
	bne	.L27
	ldr	x0, [x21, 16]
	mov	w1, 10
	bl	_ZN8opendnp38IINField6SetBitENS_6IINBitE
.L27:
	ldr	x19, [x21, 8]
	cbz	x19, .L25
	ldrb	w0, [x19, 29]
	cbz	w0, .L25
	ldr	x0, [x19, 48]
	ldr	w1, [x19, 24]
	ldr	w2, [x0]
	cmp	w2, w1
	bcs	.L40
.L25:
	adrp	x0, :got:__stack_chk_guard
	ldr	x0, [x0, #:got_lo12:__stack_chk_guard]
	ldr	x2, [sp, 56]
	ldr	x1, [x0]
	subs	x2, x2, x1
	mov	x1, 0
	bne	.L41
	ldp	x19, x20, [sp, 16]
	ldr	x21, [sp, 32]
	ldp	x29, x30, [sp], 64
	.cfi_remember_state
	.cfi_restore 30
	.cfi_restore 29
	.cfi_restore 21
	.cfi_restore 19
	.cfi_restore 20
	.cfi_def_cfa_offset 0
	ret
	.p2align 2,,3
.L28:
	.cfi_restore_state
	ldr	x1, [x19, 8]
	ldr	w0, [x1, 36]
	add	w0, w0, 1
	str	w0, [x1, 36]
	b	.L27
	.p2align 2,,3
.L39:
	mov	w0, 8
	strb	w0, [sp, 52]
	b	.L27
	.p2align 2,,3
.L40:
	ldr	x2, [x0, 8]
	mov	w1, 1
	ldrh	w3, [x20, 8]
	strb	w3, [x2]
	bl	_ZN7openpal6WSlice7AdvanceEj
	ldr	x2, [x19, 16]
	add	x0, sp, 48
	ldr	x1, [x19, 48]
	blr	x2
	ldrb	w0, [x19, 28]
	add	w0, w0, 1
	strb	w0, [x19, 28]
	b	.L25
.L41:
	bl	__stack_chk_fail
	.cfi_endproc
.LFE3449:
	.size	_ZN8opendnp314FunctorVisitorINS_7IndexedINS_19AnalogOutputFloat32EEEZNS_22CommandResponseHandler27RespondToHeaderWithIteratorIS2_N7openpal11UInt8SimpleEEENS_8IINFieldENS_13QualifierCodeERKNS_14DNP3SerializerIT_EERKNS_11ICollectionINS1_ISB_EEEEPNS_21PrefixedWriteIteratorIT0_SB_EEEUlRKS3_E_E7OnValueESP_, .-_ZN8opendnp314FunctorVisitorINS_7IndexedINS_19AnalogOutputFloat32EEEZNS_22CommandResponseHandler27RespondToHeaderWithIteratorIS2_N7openpal11UInt8SimpleEEENS_8IINFieldENS_13QualifierCodeERKNS_14DNP3SerializerIT_EERKNS_11ICollectionINS1_ISB_EEEEPNS_21PrefixedWriteIteratorIT0_SB_EEEUlRKS3_E_E7OnValueESP_
	.section	.text._ZN8opendnp314FunctorVisitorINS_7IndexedINS_17AnalogOutputInt32EEEZNS_22CommandResponseHandler27RespondToHeaderWithIteratorIS2_N7openpal11UInt8SimpleEEENS_8IINFieldENS_13QualifierCodeERKNS_14DNP3SerializerIT_EERKNS_11ICollectionINS1_ISB_EEEEPNS_21PrefixedWriteIteratorIT0_SB_EEEUlRKS3_E_E7OnValueESP_,"axG",@progbits,_ZN8opendnp314FunctorVisitorINS_7IndexedINS_17AnalogOutputInt32EEEZNS_22CommandResponseHandler27RespondToHeaderWithIteratorIS2_N7openpal11UInt8SimpleEEENS_8IINFieldENS_13QualifierCodeERKNS_14DNP3SerializerIT_EERKNS_11ICollectionINS1_ISB_EEEEPNS_21PrefixedWriteIteratorIT0_SB_EEEUlRKS3_E_E7OnValueESP_,comdat
	.align	2
	.p2align 4,,11
	.weak	_ZN8opendnp314FunctorVisitorINS_7IndexedINS_17AnalogOutputInt32EEEZNS_22CommandResponseHandler27RespondToHeaderWithIteratorIS2_N7openpal11UInt8SimpleEEENS_8IINFieldENS_13QualifierCodeERKNS_14DNP3SerializerIT_EERKNS_11ICollectionINS1_ISB_EEEEPNS_21PrefixedWriteIteratorIT0_SB_EEEUlRKS3_E_E7OnValueESP_
	.type	_ZN8opendnp314FunctorVisitorINS_7IndexedINS_17AnalogOutputInt32EEEZNS_22CommandResponseHandler27RespondToHeaderWithIteratorIS2_N7openpal11UInt8SimpleEEENS_8IINFieldENS_13QualifierCodeERKNS_14DNP3SerializerIT_EERKNS_11ICollectionINS1_ISB_EEEEPNS_21PrefixedWriteIteratorIT0_SB_EEEUlRKS3_E_E7OnValueESP_, %function
_ZN8opendnp314FunctorVisitorINS_7IndexedINS_17AnalogOutputInt32EEEZNS_22CommandResponseHandler27RespondToHeaderWithIteratorIS2_N7openpal11UInt8SimpleEEENS_8IINFieldENS_13QualifierCodeERKNS_14DNP3SerializerIT_EERKNS_11ICollectionINS1_ISB_EEEEPNS_21PrefixedWriteIteratorIT0_SB_EEEUlRKS3_E_E7OnValueESP_:
.LFB3450:
	.cfi_startproc
	stp	x29, x30, [sp, -64]!
	.cfi_def_cfa_offset 64
	.cfi_offset 29, -64
	.cfi_offset 30, -56
	mov	x29, sp
	stp	x19, x20, [sp, 16]
	.cfi_offset 19, -48
	.cfi_offset 20, -40
	mov	x19, x0
	adrp	x0, :got:__stack_chk_guard
	mov	x20, x1
	ldr	x3, [x19, 8]
	ldr	x0, [x0, #:got_lo12:__stack_chk_guard]
	ldr	w4, [x3, 32]
	str	x21, [sp, 32]
	.cfi_offset 21, -32
	add	x21, x19, 8
	ldr	x2, [x0]
	str	x2, [sp, 56]
	mov	x2, 0
	ldr	x0, [x1]
	str	x0, [sp, 48]
	ldrb	w0, [x3, 40]
	ldrh	w2, [x1, 8]
	cmp	w4, w0
	bcs	.L56
	ldr	x0, [x3, 24]
	add	w4, w4, 1
	str	w4, [x3, 32]
	ldr	x3, [x0]
	ldr	x3, [x3, 32]
	blr	x3
	strb	w0, [sp, 52]
	ands	w2, w0, 255
	beq	.L45
	cmp	w2, 4
	bne	.L44
	ldr	x0, [x21, 16]
	mov	w1, 10
	bl	_ZN8opendnp38IINField6SetBitENS_6IINBitE
.L44:
	ldr	x19, [x21, 8]
	cbz	x19, .L42
	ldrb	w0, [x19, 29]
	cbz	w0, .L42
	ldr	x0, [x19, 48]
	ldr	w1, [x19, 24]
	ldr	w2, [x0]
	cmp	w2, w1
	bcs	.L57
.L42:
	adrp	x0, :got:__stack_chk_guard
	ldr	x0, [x0, #:got_lo12:__stack_chk_guard]
	ldr	x2, [sp, 56]
	ldr	x1, [x0]
	subs	x2, x2, x1
	mov	x1, 0
	bne	.L58
	ldp	x19, x20, [sp, 16]
	ldr	x21, [sp, 32]
	ldp	x29, x30, [sp], 64
	.cfi_remember_state
	.cfi_restore 30
	.cfi_restore 29
	.cfi_restore 21
	.cfi_restore 19
	.cfi_restore 20
	.cfi_def_cfa_offset 0
	ret
	.p2align 2,,3
.L45:
	.cfi_restore_state
	ldr	x1, [x19, 8]
	ldr	w0, [x1, 36]
	add	w0, w0, 1
	str	w0, [x1, 36]
	b	.L44
	.p2align 2,,3
.L56:
	mov	w0, 8
	strb	w0, [sp, 52]
	b	.L44
	.p2align 2,,3
.L57:
	ldr	x2, [x0, 8]
	mov	w1, 1
	ldrh	w3, [x20, 8]
	strb	w3, [x2]
	bl	_ZN7openpal6WSlice7AdvanceEj
	ldr	x2, [x19, 16]
	add	x0, sp, 48
	ldr	x1, [x19, 48]
	blr	x2
	ldrb	w0, [x19, 28]
	add	w0, w0, 1
	strb	w0, [x19, 28]
	b	.L42
.L58:
	bl	__stack_chk_fail
	.cfi_endproc
.LFE3450:
	.size	_ZN8opendnp314FunctorVisitorINS_7IndexedINS_17AnalogOutputInt32EEEZNS_22CommandResponseHandler27RespondToHeaderWithIteratorIS2_N7openpal11UInt8SimpleEEENS_8IINFieldENS_13QualifierCodeERKNS_14DNP3SerializerIT_EERKNS_11ICollectionINS1_ISB_EEEEPNS_21PrefixedWriteIteratorIT0_SB_EEEUlRKS3_E_E7OnValueESP_, .-_ZN8opendnp314FunctorVisitorINS_7IndexedINS_17AnalogOutputInt32EEEZNS_22CommandResponseHandler27RespondToHeaderWithIteratorIS2_N7openpal11UInt8SimpleEEENS_8IINFieldENS_13QualifierCodeERKNS_14DNP3SerializerIT_EERKNS_11ICollectionINS1_ISB_EEEEPNS_21PrefixedWriteIteratorIT0_SB_EEEUlRKS3_E_E7OnValueESP_
	.section	.text._ZN8opendnp314FunctorVisitorINS_7IndexedINS_17AnalogOutputInt16EEEZNS_22CommandResponseHandler27RespondToHeaderWithIteratorIS2_N7openpal11UInt8SimpleEEENS_8IINFieldENS_13QualifierCodeERKNS_14DNP3SerializerIT_EERKNS_11ICollectionINS1_ISB_EEEEPNS_21PrefixedWriteIteratorIT0_SB_EEEUlRKS3_E_E7OnValueESP_,"axG",@progbits,_ZN8opendnp314FunctorVisitorINS_7IndexedINS_17AnalogOutputInt16EEEZNS_22CommandResponseHandler27RespondToHeaderWithIteratorIS2_N7openpal11UInt8SimpleEEENS_8IINFieldENS_13QualifierCodeERKNS_14DNP3SerializerIT_EERKNS_11ICollectionINS1_ISB_EEEEPNS_21PrefixedWriteIteratorIT0_SB_EEEUlRKS3_E_E7OnValueESP_,comdat
	.align	2
	.p2align 4,,11
	.weak	_ZN8opendnp314FunctorVisitorINS_7IndexedINS_17AnalogOutputInt16EEEZNS_22CommandResponseHandler27RespondToHeaderWithIteratorIS2_N7openpal11UInt8SimpleEEENS_8IINFieldENS_13QualifierCodeERKNS_14DNP3SerializerIT_EERKNS_11ICollectionINS1_ISB_EEEEPNS_21PrefixedWriteIteratorIT0_SB_EEEUlRKS3_E_E7OnValueESP_
	.type	_ZN8opendnp314FunctorVisitorINS_7IndexedINS_17AnalogOutputInt16EEEZNS_22CommandResponseHandler27RespondToHeaderWithIteratorIS2_N7openpal11UInt8SimpleEEENS_8IINFieldENS_13QualifierCodeERKNS_14DNP3SerializerIT_EERKNS_11ICollectionINS1_ISB_EEEEPNS_21PrefixedWriteIteratorIT0_SB_EEEUlRKS3_E_E7OnValueESP_, %function
_ZN8opendnp314FunctorVisitorINS_7IndexedINS_17AnalogOutputInt16EEEZNS_22CommandResponseHandler27RespondToHeaderWithIteratorIS2_N7openpal11UInt8SimpleEEENS_8IINFieldENS_13QualifierCodeERKNS_14DNP3SerializerIT_EERKNS_11ICollectionINS1_ISB_EEEEPNS_21PrefixedWriteIteratorIT0_SB_EEEUlRKS3_E_E7OnValueESP_:
.LFB3451:
	.cfi_startproc
	stp	x29, x30, [sp, -64]!
	.cfi_def_cfa_offset 64
	.cfi_offset 29, -64
	.cfi_offset 30, -56
	mov	x29, sp
	stp	x19, x20, [sp, 16]
	.cfi_offset 19, -48
	.cfi_offset 20, -40
	mov	x19, x0
	adrp	x0, :got:__stack_chk_guard
	mov	x20, x1
	ldr	x3, [x19, 8]
	ldr	x0, [x0, #:got_lo12:__stack_chk_guard]
	ldr	w4, [x3, 32]
	str	x21, [sp, 32]
	.cfi_offset 21, -32
	add	x21, x19, 8
	ldr	x2, [x0]
	str	x2, [sp, 56]
	mov	x2, 0
	ldr	w0, [x1]
	str	w0, [sp, 48]
	ldrb	w0, [x3, 40]
	ldrh	w2, [x1, 4]
	cmp	w4, w0
	bcs	.L73
	ldr	x0, [x3, 24]
	add	w4, w4, 1
	str	w4, [x3, 32]
	ldr	x3, [x0]
	ldr	x3, [x3, 24]
	blr	x3
	strb	w0, [sp, 50]
	ands	w2, w0, 255
	beq	.L62
	cmp	w2, 4
	bne	.L61
	ldr	x0, [x21, 16]
	mov	w1, 10
	bl	_ZN8opendnp38IINField6SetBitENS_6IINBitE
.L61:
	ldr	x19, [x21, 8]
	cbz	x19, .L59
	ldrb	w0, [x19, 29]
	cbz	w0, .L59
	ldr	x0, [x19, 48]
	ldr	w1, [x19, 24]
	ldr	w2, [x0]
	cmp	w2, w1
	bcs	.L74
.L59:
	adrp	x0, :got:__stack_chk_guard
	ldr	x0, [x0, #:got_lo12:__stack_chk_guard]
	ldr	x2, [sp, 56]
	ldr	x1, [x0]
	subs	x2, x2, x1
	mov	x1, 0
	bne	.L75
	ldp	x19, x20, [sp, 16]
	ldr	x21, [sp, 32]
	ldp	x29, x30, [sp], 64
	.cfi_remember_state
	.cfi_restore 30
	.cfi_restore 29
	.cfi_restore 21
	.cfi_restore 19
	.cfi_restore 20
	.cfi_def_cfa_offset 0
	ret
	.p2align 2,,3
.L62:
	.cfi_restore_state
	ldr	x1, [x19, 8]
	ldr	w0, [x1, 36]
	add	w0, w0, 1
	str	w0, [x1, 36]
	b	.L61
	.p2align 2,,3
.L73:
	mov	w0, 8
	strb	w0, [sp, 50]
	b	.L61
	.p2align 2,,3
.L74:
	ldr	x2, [x0, 8]
	mov	w1, 1
	ldrh	w3, [x20, 4]
	strb	w3, [x2]
	bl	_ZN7openpal6WSlice7AdvanceEj
	ldr	x2, [x19, 16]
	add	x0, sp, 48
	ldr	x1, [x19, 48]
	blr	x2
	ldrb	w0, [x19, 28]
	add	w0, w0, 1
	strb	w0, [x19, 28]
	b	.L59
.L75:
	bl	__stack_chk_fail
	.cfi_endproc
.LFE3451:
	.size	_ZN8opendnp314FunctorVisitorINS_7IndexedINS_17AnalogOutputInt16EEEZNS_22CommandResponseHandler27RespondToHeaderWithIteratorIS2_N7openpal11UInt8SimpleEEENS_8IINFieldENS_13QualifierCodeERKNS_14DNP3SerializerIT_EERKNS_11ICollectionINS1_ISB_EEEEPNS_21PrefixedWriteIteratorIT0_SB_EEEUlRKS3_E_E7OnValueESP_, .-_ZN8opendnp314FunctorVisitorINS_7IndexedINS_17AnalogOutputInt16EEEZNS_22CommandResponseHandler27RespondToHeaderWithIteratorIS2_N7openpal11UInt8SimpleEEENS_8IINFieldENS_13QualifierCodeERKNS_14DNP3SerializerIT_EERKNS_11ICollectionINS1_ISB_EEEEPNS_21PrefixedWriteIteratorIT0_SB_EEEUlRKS3_E_E7OnValueESP_
	.section	.text._ZN8opendnp314FunctorVisitorINS_7IndexedINS_23ControlRelayOutputBlockEEEZNS_22CommandResponseHandler27RespondToHeaderWithIteratorIS2_N7openpal11UInt8SimpleEEENS_8IINFieldENS_13QualifierCodeERKNS_14DNP3SerializerIT_EERKNS_11ICollectionINS1_ISB_EEEEPNS_21PrefixedWriteIteratorIT0_SB_EEEUlRKS3_E_E7OnValueESP_,"axG",@progbits,_ZN8opendnp314FunctorVisitorINS_7IndexedINS_23ControlRelayOutputBlockEEEZNS_22CommandResponseHandler27RespondToHeaderWithIteratorIS2_N7openpal11UInt8SimpleEEENS_8IINFieldENS_13QualifierCodeERKNS_14DNP3SerializerIT_EERKNS_11ICollectionINS1_ISB_EEEEPNS_21PrefixedWriteIteratorIT0_SB_EEEUlRKS3_E_E7OnValueESP_,comdat
	.align	2
	.p2align 4,,11
	.weak	_ZN8opendnp314FunctorVisitorINS_7IndexedINS_23ControlRelayOutputBlockEEEZNS_22CommandResponseHandler27RespondToHeaderWithIteratorIS2_N7openpal11UInt8SimpleEEENS_8IINFieldENS_13QualifierCodeERKNS_14DNP3SerializerIT_EERKNS_11ICollectionINS1_ISB_EEEEPNS_21PrefixedWriteIteratorIT0_SB_EEEUlRKS3_E_E7OnValueESP_
	.type	_ZN8opendnp314FunctorVisitorINS_7IndexedINS_23ControlRelayOutputBlockEEEZNS_22CommandResponseHandler27RespondToHeaderWithIteratorIS2_N7openpal11UInt8SimpleEEENS_8IINFieldENS_13QualifierCodeERKNS_14DNP3SerializerIT_EERKNS_11ICollectionINS1_ISB_EEEEPNS_21PrefixedWriteIteratorIT0_SB_EEEUlRKS3_E_E7OnValueESP_, %function
_ZN8opendnp314FunctorVisitorINS_7IndexedINS_23ControlRelayOutputBlockEEEZNS_22CommandResponseHandler27RespondToHeaderWithIteratorIS2_N7openpal11UInt8SimpleEEENS_8IINFieldENS_13QualifierCodeERKNS_14DNP3SerializerIT_EERKNS_11ICollectionINS1_ISB_EEEEPNS_21PrefixedWriteIteratorIT0_SB_EEEUlRKS3_E_E7OnValueESP_:
.LFB3452:
	.cfi_startproc
	stp	x29, x30, [sp, -80]!
	.cfi_def_cfa_offset 80
	.cfi_offset 29, -80
	.cfi_offset 30, -72
	mov	x29, sp
	stp	x19, x20, [sp, 16]
	.cfi_offset 19, -64
	.cfi_offset 20, -56
	mov	x19, x0
	adrp	x0, :got:__stack_chk_guard
	ldp	x4, x5, [x1]
	mov	x20, x1
	ldr	x3, [x19, 8]
	str	x21, [sp, 32]
	.cfi_offset 21, -48
	ldr	x0, [x0, #:got_lo12:__stack_chk_guard]
	add	x21, x19, 8
	ldr	x2, [x0]
	str	x2, [sp, 72]
	mov	x2, 0
	ldrb	w0, [x3, 40]
	stp	x4, x5, [sp, 56]
	ldr	w4, [x3, 32]
	ldrh	w2, [x1, 16]
	cmp	w4, w0
	bcs	.L90
	ldr	x0, [x3, 24]
	add	w4, w4, 1
	str	w4, [x3, 32]
	ldr	x3, [x0]
	ldr	x3, [x3, 16]
	blr	x3
	strb	w0, [sp, 68]
	ands	w2, w0, 255
	beq	.L79
	cmp	w2, 4
	bne	.L78
	ldr	x0, [x21, 16]
	mov	w1, 10
	bl	_ZN8opendnp38IINField6SetBitENS_6IINBitE
.L78:
	ldr	x19, [x21, 8]
	cbz	x19, .L76
	ldrb	w0, [x19, 29]
	cbz	w0, .L76
	ldr	x0, [x19, 48]
	ldr	w1, [x19, 24]
	ldr	w2, [x0]
	cmp	w2, w1
	bcs	.L91
.L76:
	adrp	x0, :got:__stack_chk_guard
	ldr	x0, [x0, #:got_lo12:__stack_chk_guard]
	ldr	x2, [sp, 72]
	ldr	x1, [x0]
	subs	x2, x2, x1
	mov	x1, 0
	bne	.L92
	ldp	x19, x20, [sp, 16]
	ldr	x21, [sp, 32]
	ldp	x29, x30, [sp], 80
	.cfi_remember_state
	.cfi_restore 30
	.cfi_restore 29
	.cfi_restore 21
	.cfi_restore 19
	.cfi_restore 20
	.cfi_def_cfa_offset 0
	ret
	.p2align 2,,3
.L79:
	.cfi_restore_state
	ldr	x1, [x19, 8]
	ldr	w0, [x1, 36]
	add	w0, w0, 1
	str	w0, [x1, 36]
	b	.L78
	.p2align 2,,3
.L90:
	mov	w0, 8
	strb	w0, [sp, 68]
	b	.L78
	.p2align 2,,3
.L91:
	ldr	x2, [x0, 8]
	mov	w1, 1
	ldrh	w3, [x20, 16]
	strb	w3, [x2]
	bl	_ZN7openpal6WSlice7AdvanceEj
	ldr	x2, [x19, 16]
	add	x0, sp, 56
	ldr	x1, [x19, 48]
	blr	x2
	ldrb	w0, [x19, 28]
	add	w0, w0, 1
	strb	w0, [x19, 28]
	b	.L76
.L92:
	bl	__stack_chk_fail
	.cfi_endproc
.LFE3452:
	.size	_ZN8opendnp314FunctorVisitorINS_7IndexedINS_23ControlRelayOutputBlockEEEZNS_22CommandResponseHandler27RespondToHeaderWithIteratorIS2_N7openpal11UInt8SimpleEEENS_8IINFieldENS_13QualifierCodeERKNS_14DNP3SerializerIT_EERKNS_11ICollectionINS1_ISB_EEEEPNS_21PrefixedWriteIteratorIT0_SB_EEEUlRKS3_E_E7OnValueESP_, .-_ZN8opendnp314FunctorVisitorINS_7IndexedINS_23ControlRelayOutputBlockEEEZNS_22CommandResponseHandler27RespondToHeaderWithIteratorIS2_N7openpal11UInt8SimpleEEENS_8IINFieldENS_13QualifierCodeERKNS_14DNP3SerializerIT_EERKNS_11ICollectionINS1_ISB_EEEEPNS_21PrefixedWriteIteratorIT0_SB_EEEUlRKS3_E_E7OnValueESP_
	.section	.text._ZN8opendnp314FunctorVisitorINS_7IndexedINS_20AnalogOutputDouble64EEEZNS_22CommandResponseHandler27RespondToHeaderWithIteratorIS2_N7openpal7Bit16LEItEEEENS_8IINFieldENS_13QualifierCodeERKNS_14DNP3SerializerIT_EERKNS_11ICollectionINS1_ISC_EEEEPNS_21PrefixedWriteIteratorIT0_SC_EEEUlRKS3_E_E7OnValueESQ_,"axG",@progbits,_ZN8opendnp314FunctorVisitorINS_7IndexedINS_20AnalogOutputDouble64EEEZNS_22CommandResponseHandler27RespondToHeaderWithIteratorIS2_N7openpal7Bit16LEItEEEENS_8IINFieldENS_13QualifierCodeERKNS_14DNP3SerializerIT_EERKNS_11ICollectionINS1_ISC_EEEEPNS_21PrefixedWriteIteratorIT0_SC_EEEUlRKS3_E_E7OnValueESQ_,comdat
	.align	2
	.p2align 4,,11
	.weak	_ZN8opendnp314FunctorVisitorINS_7IndexedINS_20AnalogOutputDouble64EEEZNS_22CommandResponseHandler27RespondToHeaderWithIteratorIS2_N7openpal7Bit16LEItEEEENS_8IINFieldENS_13QualifierCodeERKNS_14DNP3SerializerIT_EERKNS_11ICollectionINS1_ISC_EEEEPNS_21PrefixedWriteIteratorIT0_SC_EEEUlRKS3_E_E7OnValueESQ_
	.type	_ZN8opendnp314FunctorVisitorINS_7IndexedINS_20AnalogOutputDouble64EEEZNS_22CommandResponseHandler27RespondToHeaderWithIteratorIS2_N7openpal7Bit16LEItEEEENS_8IINFieldENS_13QualifierCodeERKNS_14DNP3SerializerIT_EERKNS_11ICollectionINS1_ISC_EEEEPNS_21PrefixedWriteIteratorIT0_SC_EEEUlRKS3_E_E7OnValueESQ_, %function
_ZN8opendnp314FunctorVisitorINS_7IndexedINS_20AnalogOutputDouble64EEEZNS_22CommandResponseHandler27RespondToHeaderWithIteratorIS2_N7openpal7Bit16LEItEEEENS_8IINFieldENS_13QualifierCodeERKNS_14DNP3SerializerIT_EERKNS_11ICollectionINS1_ISC_EEEEPNS_21PrefixedWriteIteratorIT0_SC_EEEUlRKS3_E_E7OnValueESQ_:
.LFB3453:
	.cfi_startproc
	stp	x29, x30, [sp, -80]!
	.cfi_def_cfa_offset 80
	.cfi_offset 29, -80
	.cfi_offset 30, -72
	mov	x29, sp
	stp	x19, x20, [sp, 16]
	.cfi_offset 19, -64
	.cfi_offset 20, -56
	mov	x19, x0
	adrp	x0, :got:__stack_chk_guard
	ldp	x4, x5, [x1]
	mov	x20, x1
	ldr	x3, [x19, 8]
	str	x21, [sp, 32]
	.cfi_offset 21, -48
	ldr	x0, [x0, #:got_lo12:__stack_chk_guard]
	add	x21, x19, 8
	ldr	x2, [x0]
	str	x2, [sp, 72]
	mov	x2, 0
	ldrb	w0, [x3, 40]
	stp	x4, x5, [sp, 56]
	ldr	w4, [x3, 32]
	ldrh	w2, [x1, 16]
	cmp	w4, w0
	bcs	.L107
	ldr	x0, [x3, 24]
	add	w4, w4, 1
	str	w4, [x3, 32]
	ldr	x3, [x0]
	ldr	x3, [x3, 48]
	blr	x3
	strb	w0, [sp, 64]
	ands	w2, w0, 255
	beq	.L96
	cmp	w2, 4
	bne	.L95
	ldr	x0, [x21, 16]
	mov	w1, 10
	bl	_ZN8opendnp38IINField6SetBitENS_6IINBitE
.L95:
	ldr	x19, [x21, 8]
	cbz	x19, .L93
	ldrb	w0, [x19, 30]
	cbz	w0, .L93
	ldr	x0, [x19, 48]
	ldr	w1, [x19, 24]
	ldr	w2, [x0]
	cmp	w2, w1
	bcs	.L108
.L93:
	adrp	x0, :got:__stack_chk_guard
	ldr	x0, [x0, #:got_lo12:__stack_chk_guard]
	ldr	x2, [sp, 72]
	ldr	x1, [x0]
	subs	x2, x2, x1
	mov	x1, 0
	bne	.L109
	ldp	x19, x20, [sp, 16]
	ldr	x21, [sp, 32]
	ldp	x29, x30, [sp], 80
	.cfi_remember_state
	.cfi_restore 30
	.cfi_restore 29
	.cfi_restore 21
	.cfi_restore 19
	.cfi_restore 20
	.cfi_def_cfa_offset 0
	ret
	.p2align 2,,3
.L96:
	.cfi_restore_state
	ldr	x1, [x19, 8]
	ldr	w0, [x1, 36]
	add	w0, w0, 1
	str	w0, [x1, 36]
	b	.L95
	.p2align 2,,3
.L107:
	mov	w0, 8
	strb	w0, [sp, 64]
	b	.L95
	.p2align 2,,3
.L108:
	ldr	x2, [x0, 8]
	mov	w1, 2
	ldrh	w3, [x20, 16]
	strh	w3, [x2]
	bl	_ZN7openpal6WSlice7AdvanceEj
	ldr	x2, [x19, 16]
	add	x0, sp, 56
	ldr	x1, [x19, 48]
	blr	x2
	ldrh	w0, [x19, 28]
	add	w0, w0, 1
	strh	w0, [x19, 28]
	b	.L93
.L109:
	bl	__stack_chk_fail
	.cfi_endproc
.LFE3453:
	.size	_ZN8opendnp314FunctorVisitorINS_7IndexedINS_20AnalogOutputDouble64EEEZNS_22CommandResponseHandler27RespondToHeaderWithIteratorIS2_N7openpal7Bit16LEItEEEENS_8IINFieldENS_13QualifierCodeERKNS_14DNP3SerializerIT_EERKNS_11ICollectionINS1_ISC_EEEEPNS_21PrefixedWriteIteratorIT0_SC_EEEUlRKS3_E_E7OnValueESQ_, .-_ZN8opendnp314FunctorVisitorINS_7IndexedINS_20AnalogOutputDouble64EEEZNS_22CommandResponseHandler27RespondToHeaderWithIteratorIS2_N7openpal7Bit16LEItEEEENS_8IINFieldENS_13QualifierCodeERKNS_14DNP3SerializerIT_EERKNS_11ICollectionINS1_ISC_EEEEPNS_21PrefixedWriteIteratorIT0_SC_EEEUlRKS3_E_E7OnValueESQ_
	.section	.text._ZN8opendnp314FunctorVisitorINS_7IndexedINS_19AnalogOutputFloat32EEEZNS_22CommandResponseHandler27RespondToHeaderWithIteratorIS2_N7openpal7Bit16LEItEEEENS_8IINFieldENS_13QualifierCodeERKNS_14DNP3SerializerIT_EERKNS_11ICollectionINS1_ISC_EEEEPNS_21PrefixedWriteIteratorIT0_SC_EEEUlRKS3_E_E7OnValueESQ_,"axG",@progbits,_ZN8opendnp314FunctorVisitorINS_7IndexedINS_19AnalogOutputFloat32EEEZNS_22CommandResponseHandler27RespondToHeaderWithIteratorIS2_N7openpal7Bit16LEItEEEENS_8IINFieldENS_13QualifierCodeERKNS_14DNP3SerializerIT_EERKNS_11ICollectionINS1_ISC_EEEEPNS_21PrefixedWriteIteratorIT0_SC_EEEUlRKS3_E_E7OnValueESQ_,comdat
	.align	2
	.p2align 4,,11
	.weak	_ZN8opendnp314FunctorVisitorINS_7IndexedINS_19AnalogOutputFloat32EEEZNS_22CommandResponseHandler27RespondToHeaderWithIteratorIS2_N7openpal7Bit16LEItEEEENS_8IINFieldENS_13QualifierCodeERKNS_14DNP3SerializerIT_EERKNS_11ICollectionINS1_ISC_EEEEPNS_21PrefixedWriteIteratorIT0_SC_EEEUlRKS3_E_E7OnValueESQ_
	.type	_ZN8opendnp314FunctorVisitorINS_7IndexedINS_19AnalogOutputFloat32EEEZNS_22CommandResponseHandler27RespondToHeaderWithIteratorIS2_N7openpal7Bit16LEItEEEENS_8IINFieldENS_13QualifierCodeERKNS_14DNP3SerializerIT_EERKNS_11ICollectionINS1_ISC_EEEEPNS_21PrefixedWriteIteratorIT0_SC_EEEUlRKS3_E_E7OnValueESQ_, %function
_ZN8opendnp314FunctorVisitorINS_7IndexedINS_19AnalogOutputFloat32EEEZNS_22CommandResponseHandler27RespondToHeaderWithIteratorIS2_N7openpal7Bit16LEItEEEENS_8IINFieldENS_13QualifierCodeERKNS_14DNP3SerializerIT_EERKNS_11ICollectionINS1_ISC_EEEEPNS_21PrefixedWriteIteratorIT0_SC_EEEUlRKS3_E_E7OnValueESQ_:
.LFB3454:
	.cfi_startproc
	stp	x29, x30, [sp, -64]!
	.cfi_def_cfa_offset 64
	.cfi_offset 29, -64
	.cfi_offset 30, -56
	mov	x29, sp
	stp	x19, x20, [sp, 16]
	.cfi_offset 19, -48
	.cfi_offset 20, -40
	mov	x19, x0
	adrp	x0, :got:__stack_chk_guard
	mov	x20, x1
	ldr	x3, [x19, 8]
	ldr	x0, [x0, #:got_lo12:__stack_chk_guard]
	ldr	w4, [x3, 32]
	str	x21, [sp, 32]
	.cfi_offset 21, -32
	add	x21, x19, 8
	ldr	x2, [x0]
	str	x2, [sp, 56]
	mov	x2, 0
	ldr	x0, [x1]
	str	x0, [sp, 48]
	ldrb	w0, [x3, 40]
	ldrh	w2, [x1, 8]
	cmp	w4, w0
	bcs	.L124
	ldr	x0, [x3, 24]
	add	w4, w4, 1
	str	w4, [x3, 32]
	ldr	x3, [x0]
	ldr	x3, [x3, 40]
	blr	x3
	strb	w0, [sp, 52]
	ands	w2, w0, 255
	beq	.L113
	cmp	w2, 4
	bne	.L112
	ldr	x0, [x21, 16]
	mov	w1, 10
	bl	_ZN8opendnp38IINField6SetBitENS_6IINBitE
.L112:
	ldr	x19, [x21, 8]
	cbz	x19, .L110
	ldrb	w0, [x19, 30]
	cbz	w0, .L110
	ldr	x0, [x19, 48]
	ldr	w1, [x19, 24]
	ldr	w2, [x0]
	cmp	w2, w1
	bcs	.L125
.L110:
	adrp	x0, :got:__stack_chk_guard
	ldr	x0, [x0, #:got_lo12:__stack_chk_guard]
	ldr	x2, [sp, 56]
	ldr	x1, [x0]
	subs	x2, x2, x1
	mov	x1, 0
	bne	.L126
	ldp	x19, x20, [sp, 16]
	ldr	x21, [sp, 32]
	ldp	x29, x30, [sp], 64
	.cfi_remember_state
	.cfi_restore 30
	.cfi_restore 29
	.cfi_restore 21
	.cfi_restore 19
	.cfi_restore 20
	.cfi_def_cfa_offset 0
	ret
	.p2align 2,,3
.L113:
	.cfi_restore_state
	ldr	x1, [x19, 8]
	ldr	w0, [x1, 36]
	add	w0, w0, 1
	str	w0, [x1, 36]
	b	.L112
	.p2align 2,,3
.L124:
	mov	w0, 8
	strb	w0, [sp, 52]
	b	.L112
	.p2align 2,,3
.L125:
	ldr	x2, [x0, 8]
	mov	w1, 2
	ldrh	w3, [x20, 8]
	strh	w3, [x2]
	bl	_ZN7openpal6WSlice7AdvanceEj
	ldr	x2, [x19, 16]
	add	x0, sp, 48
	ldr	x1, [x19, 48]
	blr	x2
	ldrh	w0, [x19, 28]
	add	w0, w0, 1
	strh	w0, [x19, 28]
	b	.L110
.L126:
	bl	__stack_chk_fail
	.cfi_endproc
.LFE3454:
	.size	_ZN8opendnp314FunctorVisitorINS_7IndexedINS_19AnalogOutputFloat32EEEZNS_22CommandResponseHandler27RespondToHeaderWithIteratorIS2_N7openpal7Bit16LEItEEEENS_8IINFieldENS_13QualifierCodeERKNS_14DNP3SerializerIT_EERKNS_11ICollectionINS1_ISC_EEEEPNS_21PrefixedWriteIteratorIT0_SC_EEEUlRKS3_E_E7OnValueESQ_, .-_ZN8opendnp314FunctorVisitorINS_7IndexedINS_19AnalogOutputFloat32EEEZNS_22CommandResponseHandler27RespondToHeaderWithIteratorIS2_N7openpal7Bit16LEItEEEENS_8IINFieldENS_13QualifierCodeERKNS_14DNP3SerializerIT_EERKNS_11ICollectionINS1_ISC_EEEEPNS_21PrefixedWriteIteratorIT0_SC_EEEUlRKS3_E_E7OnValueESQ_
	.section	.text._ZN8opendnp314FunctorVisitorINS_7IndexedINS_17AnalogOutputInt32EEEZNS_22CommandResponseHandler27RespondToHeaderWithIteratorIS2_N7openpal7Bit16LEItEEEENS_8IINFieldENS_13QualifierCodeERKNS_14DNP3SerializerIT_EERKNS_11ICollectionINS1_ISC_EEEEPNS_21PrefixedWriteIteratorIT0_SC_EEEUlRKS3_E_E7OnValueESQ_,"axG",@progbits,_ZN8opendnp314FunctorVisitorINS_7IndexedINS_17AnalogOutputInt32EEEZNS_22CommandResponseHandler27RespondToHeaderWithIteratorIS2_N7openpal7Bit16LEItEEEENS_8IINFieldENS_13QualifierCodeERKNS_14DNP3SerializerIT_EERKNS_11ICollectionINS1_ISC_EEEEPNS_21PrefixedWriteIteratorIT0_SC_EEEUlRKS3_E_E7OnValueESQ_,comdat
	.align	2
	.p2align 4,,11
	.weak	_ZN8opendnp314FunctorVisitorINS_7IndexedINS_17AnalogOutputInt32EEEZNS_22CommandResponseHandler27RespondToHeaderWithIteratorIS2_N7openpal7Bit16LEItEEEENS_8IINFieldENS_13QualifierCodeERKNS_14DNP3SerializerIT_EERKNS_11ICollectionINS1_ISC_EEEEPNS_21PrefixedWriteIteratorIT0_SC_EEEUlRKS3_E_E7OnValueESQ_
	.type	_ZN8opendnp314FunctorVisitorINS_7IndexedINS_17AnalogOutputInt32EEEZNS_22CommandResponseHandler27RespondToHeaderWithIteratorIS2_N7openpal7Bit16LEItEEEENS_8IINFieldENS_13QualifierCodeERKNS_14DNP3SerializerIT_EERKNS_11ICollectionINS1_ISC_EEEEPNS_21PrefixedWriteIteratorIT0_SC_EEEUlRKS3_E_E7OnValueESQ_, %function
_ZN8opendnp314FunctorVisitorINS_7IndexedINS_17AnalogOutputInt32EEEZNS_22CommandResponseHandler27RespondToHeaderWithIteratorIS2_N7openpal7Bit16LEItEEEENS_8IINFieldENS_13QualifierCodeERKNS_14DNP3SerializerIT_EERKNS_11ICollectionINS1_ISC_EEEEPNS_21PrefixedWriteIteratorIT0_SC_EEEUlRKS3_E_E7OnValueESQ_:
.LFB3455:
	.cfi_startproc
	stp	x29, x30, [sp, -64]!
	.cfi_def_cfa_offset 64
	.cfi_offset 29, -64
	.cfi_offset 30, -56
	mov	x29, sp
	stp	x19, x20, [sp, 16]
	.cfi_offset 19, -48
	.cfi_offset 20, -40
	mov	x19, x0
	adrp	x0, :got:__stack_chk_guard
	mov	x20, x1
	ldr	x3, [x19, 8]
	ldr	x0, [x0, #:got_lo12:__stack_chk_guard]
	ldr	w4, [x3, 32]
	str	x21, [sp, 32]
	.cfi_offset 21, -32
	add	x21, x19, 8
	ldr	x2, [x0]
	str	x2, [sp, 56]
	mov	x2, 0
	ldr	x0, [x1]
	str	x0, [sp, 48]
	ldrb	w0, [x3, 40]
	ldrh	w2, [x1, 8]
	cmp	w4, w0
	bcs	.L141
	ldr	x0, [x3, 24]
	add	w4, w4, 1
	str	w4, [x3, 32]
	ldr	x3, [x0]
	ldr	x3, [x3, 32]
	blr	x3
	strb	w0, [sp, 52]
	ands	w2, w0, 255
	beq	.L130
	cmp	w2, 4
	bne	.L129
	ldr	x0, [x21, 16]
	mov	w1, 10
	bl	_ZN8opendnp38IINField6SetBitENS_6IINBitE
.L129:
	ldr	x19, [x21, 8]
	cbz	x19, .L127
	ldrb	w0, [x19, 30]
	cbz	w0, .L127
	ldr	x0, [x19, 48]
	ldr	w1, [x19, 24]
	ldr	w2, [x0]
	cmp	w2, w1
	bcs	.L142
.L127:
	adrp	x0, :got:__stack_chk_guard
	ldr	x0, [x0, #:got_lo12:__stack_chk_guard]
	ldr	x2, [sp, 56]
	ldr	x1, [x0]
	subs	x2, x2, x1
	mov	x1, 0
	bne	.L143
	ldp	x19, x20, [sp, 16]
	ldr	x21, [sp, 32]
	ldp	x29, x30, [sp], 64
	.cfi_remember_state
	.cfi_restore 30
	.cfi_restore 29
	.cfi_restore 21
	.cfi_restore 19
	.cfi_restore 20
	.cfi_def_cfa_offset 0
	ret
	.p2align 2,,3
.L130:
	.cfi_restore_state
	ldr	x1, [x19, 8]
	ldr	w0, [x1, 36]
	add	w0, w0, 1
	str	w0, [x1, 36]
	b	.L129
	.p2align 2,,3
.L141:
	mov	w0, 8
	strb	w0, [sp, 52]
	b	.L129
	.p2align 2,,3
.L142:
	ldr	x2, [x0, 8]
	mov	w1, 2
	ldrh	w3, [x20, 8]
	strh	w3, [x2]
	bl	_ZN7openpal6WSlice7AdvanceEj
	ldr	x2, [x19, 16]
	add	x0, sp, 48
	ldr	x1, [x19, 48]
	blr	x2
	ldrh	w0, [x19, 28]
	add	w0, w0, 1
	strh	w0, [x19, 28]
	b	.L127
.L143:
	bl	__stack_chk_fail
	.cfi_endproc
.LFE3455:
	.size	_ZN8opendnp314FunctorVisitorINS_7IndexedINS_17AnalogOutputInt32EEEZNS_22CommandResponseHandler27RespondToHeaderWithIteratorIS2_N7openpal7Bit16LEItEEEENS_8IINFieldENS_13QualifierCodeERKNS_14DNP3SerializerIT_EERKNS_11ICollectionINS1_ISC_EEEEPNS_21PrefixedWriteIteratorIT0_SC_EEEUlRKS3_E_E7OnValueESQ_, .-_ZN8opendnp314FunctorVisitorINS_7IndexedINS_17AnalogOutputInt32EEEZNS_22CommandResponseHandler27RespondToHeaderWithIteratorIS2_N7openpal7Bit16LEItEEEENS_8IINFieldENS_13QualifierCodeERKNS_14DNP3SerializerIT_EERKNS_11ICollectionINS1_ISC_EEEEPNS_21PrefixedWriteIteratorIT0_SC_EEEUlRKS3_E_E7OnValueESQ_
	.section	.text._ZN8opendnp314FunctorVisitorINS_7IndexedINS_17AnalogOutputInt16EEEZNS_22CommandResponseHandler27RespondToHeaderWithIteratorIS2_N7openpal7Bit16LEItEEEENS_8IINFieldENS_13QualifierCodeERKNS_14DNP3SerializerIT_EERKNS_11ICollectionINS1_ISC_EEEEPNS_21PrefixedWriteIteratorIT0_SC_EEEUlRKS3_E_E7OnValueESQ_,"axG",@progbits,_ZN8opendnp314FunctorVisitorINS_7IndexedINS_17AnalogOutputInt16EEEZNS_22CommandResponseHandler27RespondToHeaderWithIteratorIS2_N7openpal7Bit16LEItEEEENS_8IINFieldENS_13QualifierCodeERKNS_14DNP3SerializerIT_EERKNS_11ICollectionINS1_ISC_EEEEPNS_21PrefixedWriteIteratorIT0_SC_EEEUlRKS3_E_E7OnValueESQ_,comdat
	.align	2
	.p2align 4,,11
	.weak	_ZN8opendnp314FunctorVisitorINS_7IndexedINS_17AnalogOutputInt16EEEZNS_22CommandResponseHandler27RespondToHeaderWithIteratorIS2_N7openpal7Bit16LEItEEEENS_8IINFieldENS_13QualifierCodeERKNS_14DNP3SerializerIT_EERKNS_11ICollectionINS1_ISC_EEEEPNS_21PrefixedWriteIteratorIT0_SC_EEEUlRKS3_E_E7OnValueESQ_
	.type	_ZN8opendnp314FunctorVisitorINS_7IndexedINS_17AnalogOutputInt16EEEZNS_22CommandResponseHandler27RespondToHeaderWithIteratorIS2_N7openpal7Bit16LEItEEEENS_8IINFieldENS_13QualifierCodeERKNS_14DNP3SerializerIT_EERKNS_11ICollectionINS1_ISC_EEEEPNS_21PrefixedWriteIteratorIT0_SC_EEEUlRKS3_E_E7OnValueESQ_, %function
_ZN8opendnp314FunctorVisitorINS_7IndexedINS_17AnalogOutputInt16EEEZNS_22CommandResponseHandler27RespondToHeaderWithIteratorIS2_N7openpal7Bit16LEItEEEENS_8IINFieldENS_13QualifierCodeERKNS_14DNP3SerializerIT_EERKNS_11ICollectionINS1_ISC_EEEEPNS_21PrefixedWriteIteratorIT0_SC_EEEUlRKS3_E_E7OnValueESQ_:
.LFB3456:
	.cfi_startproc
	stp	x29, x30, [sp, -64]!
	.cfi_def_cfa_offset 64
	.cfi_offset 29, -64
	.cfi_offset 30, -56
	mov	x29, sp
	stp	x19, x20, [sp, 16]
	.cfi_offset 19, -48
	.cfi_offset 20, -40
	mov	x19, x0
	adrp	x0, :got:__stack_chk_guard
	mov	x20, x1
	ldr	x3, [x19, 8]
	ldr	x0, [x0, #:got_lo12:__stack_chk_guard]
	ldr	w4, [x3, 32]
	str	x21, [sp, 32]
	.cfi_offset 21, -32
	add	x21, x19, 8
	ldr	x2, [x0]
	str	x2, [sp, 56]
	mov	x2, 0
	ldr	w0, [x1]
	str	w0, [sp, 48]
	ldrb	w0, [x3, 40]
	ldrh	w2, [x1, 4]
	cmp	w4, w0
	bcs	.L158
	ldr	x0, [x3, 24]
	add	w4, w4, 1
	str	w4, [x3, 32]
	ldr	x3, [x0]
	ldr	x3, [x3, 24]
	blr	x3
	strb	w0, [sp, 50]
	ands	w2, w0, 255
	beq	.L147
	cmp	w2, 4
	bne	.L146
	ldr	x0, [x21, 16]
	mov	w1, 10
	bl	_ZN8opendnp38IINField6SetBitENS_6IINBitE
.L146:
	ldr	x19, [x21, 8]
	cbz	x19, .L144
	ldrb	w0, [x19, 30]
	cbz	w0, .L144
	ldr	x0, [x19, 48]
	ldr	w1, [x19, 24]
	ldr	w2, [x0]
	cmp	w2, w1
	bcs	.L159
.L144:
	adrp	x0, :got:__stack_chk_guard
	ldr	x0, [x0, #:got_lo12:__stack_chk_guard]
	ldr	x2, [sp, 56]
	ldr	x1, [x0]
	subs	x2, x2, x1
	mov	x1, 0
	bne	.L160
	ldp	x19, x20, [sp, 16]
	ldr	x21, [sp, 32]
	ldp	x29, x30, [sp], 64
	.cfi_remember_state
	.cfi_restore 30
	.cfi_restore 29
	.cfi_restore 21
	.cfi_restore 19
	.cfi_restore 20
	.cfi_def_cfa_offset 0
	ret
	.p2align 2,,3
.L147:
	.cfi_restore_state
	ldr	x1, [x19, 8]
	ldr	w0, [x1, 36]
	add	w0, w0, 1
	str	w0, [x1, 36]
	b	.L146
	.p2align 2,,3
.L158:
	mov	w0, 8
	strb	w0, [sp, 50]
	b	.L146
	.p2align 2,,3
.L159:
	ldr	x2, [x0, 8]
	mov	w1, 2
	ldrh	w3, [x20, 4]
	strh	w3, [x2]
	bl	_ZN7openpal6WSlice7AdvanceEj
	ldr	x2, [x19, 16]
	add	x0, sp, 48
	ldr	x1, [x19, 48]
	blr	x2
	ldrh	w0, [x19, 28]
	add	w0, w0, 1
	strh	w0, [x19, 28]
	b	.L144
.L160:
	bl	__stack_chk_fail
	.cfi_endproc
.LFE3456:
	.size	_ZN8opendnp314FunctorVisitorINS_7IndexedINS_17AnalogOutputInt16EEEZNS_22CommandResponseHandler27RespondToHeaderWithIteratorIS2_N7openpal7Bit16LEItEEEENS_8IINFieldENS_13QualifierCodeERKNS_14DNP3SerializerIT_EERKNS_11ICollectionINS1_ISC_EEEEPNS_21PrefixedWriteIteratorIT0_SC_EEEUlRKS3_E_E7OnValueESQ_, .-_ZN8opendnp314FunctorVisitorINS_7IndexedINS_17AnalogOutputInt16EEEZNS_22CommandResponseHandler27RespondToHeaderWithIteratorIS2_N7openpal7Bit16LEItEEEENS_8IINFieldENS_13QualifierCodeERKNS_14DNP3SerializerIT_EERKNS_11ICollectionINS1_ISC_EEEEPNS_21PrefixedWriteIteratorIT0_SC_EEEUlRKS3_E_E7OnValueESQ_
	.section	.text._ZN8opendnp314FunctorVisitorINS_7IndexedINS_23ControlRelayOutputBlockEEEZNS_22CommandResponseHandler27RespondToHeaderWithIteratorIS2_N7openpal7Bit16LEItEEEENS_8IINFieldENS_13QualifierCodeERKNS_14DNP3SerializerIT_EERKNS_11ICollectionINS1_ISC_EEEEPNS_21PrefixedWriteIteratorIT0_SC_EEEUlRKS3_E_E7OnValueESQ_,"axG",@progbits,_ZN8opendnp314FunctorVisitorINS_7IndexedINS_23ControlRelayOutputBlockEEEZNS_22CommandResponseHandler27RespondToHeaderWithIteratorIS2_N7openpal7Bit16LEItEEEENS_8IINFieldENS_13QualifierCodeERKNS_14DNP3SerializerIT_EERKNS_11ICollectionINS1_ISC_EEEEPNS_21PrefixedWriteIteratorIT0_SC_EEEUlRKS3_E_E7OnValueESQ_,comdat
	.align	2
	.p2align 4,,11
	.weak	_ZN8opendnp314FunctorVisitorINS_7IndexedINS_23ControlRelayOutputBlockEEEZNS_22CommandResponseHandler27RespondToHeaderWithIteratorIS2_N7openpal7Bit16LEItEEEENS_8IINFieldENS_13QualifierCodeERKNS_14DNP3SerializerIT_EERKNS_11ICollectionINS1_ISC_EEEEPNS_21PrefixedWriteIteratorIT0_SC_EEEUlRKS3_E_E7OnValueESQ_
	.type	_ZN8opendnp314FunctorVisitorINS_7IndexedINS_23ControlRelayOutputBlockEEEZNS_22CommandResponseHandler27RespondToHeaderWithIteratorIS2_N7openpal7Bit16LEItEEEENS_8IINFieldENS_13QualifierCodeERKNS_14DNP3SerializerIT_EERKNS_11ICollectionINS1_ISC_EEEEPNS_21PrefixedWriteIteratorIT0_SC_EEEUlRKS3_E_E7OnValueESQ_, %function
_ZN8opendnp314FunctorVisitorINS_7IndexedINS_23ControlRelayOutputBlockEEEZNS_22CommandResponseHandler27RespondToHeaderWithIteratorIS2_N7openpal7Bit16LEItEEEENS_8IINFieldENS_13QualifierCodeERKNS_14DNP3SerializerIT_EERKNS_11ICollectionINS1_ISC_EEEEPNS_21PrefixedWriteIteratorIT0_SC_EEEUlRKS3_E_E7OnValueESQ_:
.LFB3457:
	.cfi_startproc
	stp	x29, x30, [sp, -80]!
	.cfi_def_cfa_offset 80
	.cfi_offset 29, -80
	.cfi_offset 30, -72
	mov	x29, sp
	stp	x19, x20, [sp, 16]
	.cfi_offset 19, -64
	.cfi_offset 20, -56
	mov	x19, x0
	adrp	x0, :got:__stack_chk_guard
	ldp	x4, x5, [x1]
	mov	x20, x1
	ldr	x3, [x19, 8]
	str	x21, [sp, 32]
	.cfi_offset 21, -48
	ldr	x0, [x0, #:got_lo12:__stack_chk_guard]
	add	x21, x19, 8
	ldr	x2, [x0]
	str	x2, [sp, 72]
	mov	x2, 0
	ldrb	w0, [x3, 40]
	stp	x4, x5, [sp, 56]
	ldr	w4, [x3, 32]
	ldrh	w2, [x1, 16]
	cmp	w4, w0
	bcs	.L175
	ldr	x0, [x3, 24]
	add	w4, w4, 1
	str	w4, [x3, 32]
	ldr	x3, [x0]
	ldr	x3, [x3, 16]
	blr	x3
	strb	w0, [sp, 68]
	ands	w2, w0, 255
	beq	.L164
	cmp	w2, 4
	bne	.L163
	ldr	x0, [x21, 16]
	mov	w1, 10
	bl	_ZN8opendnp38IINField6SetBitENS_6IINBitE
.L163:
	ldr	x19, [x21, 8]
	cbz	x19, .L161
	ldrb	w0, [x19, 30]
	cbz	w0, .L161
	ldr	x0, [x19, 48]
	ldr	w1, [x19, 24]
	ldr	w2, [x0]
	cmp	w2, w1
	bcs	.L176
.L161:
	adrp	x0, :got:__stack_chk_guard
	ldr	x0, [x0, #:got_lo12:__stack_chk_guard]
	ldr	x2, [sp, 72]
	ldr	x1, [x0]
	subs	x2, x2, x1
	mov	x1, 0
	bne	.L177
	ldp	x19, x20, [sp, 16]
	ldr	x21, [sp, 32]
	ldp	x29, x30, [sp], 80
	.cfi_remember_state
	.cfi_restore 30
	.cfi_restore 29
	.cfi_restore 21
	.cfi_restore 19
	.cfi_restore 20
	.cfi_def_cfa_offset 0
	ret
	.p2align 2,,3
.L164:
	.cfi_restore_state
	ldr	x1, [x19, 8]
	ldr	w0, [x1, 36]
	add	w0, w0, 1
	str	w0, [x1, 36]
	b	.L163
	.p2align 2,,3
.L175:
	mov	w0, 8
	strb	w0, [sp, 68]
	b	.L163
	.p2align 2,,3
.L176:
	ldr	x2, [x0, 8]
	mov	w1, 2
	ldrh	w3, [x20, 16]
	strh	w3, [x2]
	bl	_ZN7openpal6WSlice7AdvanceEj
	ldr	x2, [x19, 16]
	add	x0, sp, 56
	ldr	x1, [x19, 48]
	blr	x2
	ldrh	w0, [x19, 28]
	add	w0, w0, 1
	strh	w0, [x19, 28]
	b	.L161
.L177:
	bl	__stack_chk_fail
	.cfi_endproc
.LFE3457:
	.size	_ZN8opendnp314FunctorVisitorINS_7IndexedINS_23ControlRelayOutputBlockEEEZNS_22CommandResponseHandler27RespondToHeaderWithIteratorIS2_N7openpal7Bit16LEItEEEENS_8IINFieldENS_13QualifierCodeERKNS_14DNP3SerializerIT_EERKNS_11ICollectionINS1_ISC_EEEEPNS_21PrefixedWriteIteratorIT0_SC_EEEUlRKS3_E_E7OnValueESQ_, .-_ZN8opendnp314FunctorVisitorINS_7IndexedINS_23ControlRelayOutputBlockEEEZNS_22CommandResponseHandler27RespondToHeaderWithIteratorIS2_N7openpal7Bit16LEItEEEENS_8IINFieldENS_13QualifierCodeERKNS_14DNP3SerializerIT_EERKNS_11ICollectionINS1_ISC_EEEEPNS_21PrefixedWriteIteratorIT0_SC_EEEUlRKS3_E_E7OnValueESQ_
	.text
	.align	2
	.p2align 4,,11
	.global	_ZN8opendnp322CommandResponseHandlerC2EhPNS_14ICommandActionEPNS_12HeaderWriterE
	.type	_ZN8opendnp322CommandResponseHandlerC2EhPNS_14ICommandActionEPNS_12HeaderWriterE, %function
_ZN8opendnp322CommandResponseHandlerC2EhPNS_14ICommandActionEPNS_12HeaderWriterE:
.LFB2468:
	.cfi_startproc
	stp	x29, x30, [sp, -48]!
	.cfi_def_cfa_offset 48
	.cfi_offset 29, -48
	.cfi_offset 30, -40
	mov	x29, sp
	stp	x19, x20, [sp, 16]
	.cfi_offset 19, -32
	.cfi_offset 20, -24
	mov	x19, x0
	mov	x20, x3
	stp	x21, x22, [sp, 32]
	.cfi_offset 21, -16
	.cfi_offset 22, -8
	mov	x21, x2
	and	w22, w1, 255
	bl	_ZN8opendnp312IAPDUHandlerC2Ev
	str	x21, [x19, 24]
	adrp	x0, :got:_ZTVN8opendnp322CommandResponseHandlerE
	str	xzr, [x19, 32]
	strb	w22, [x19, 40]
	ldr	x0, [x0, #:got_lo12:_ZTVN8opendnp322CommandResponseHandlerE]
	str	x20, [x19, 48]
	ldp	x21, x22, [sp, 32]
	add	x0, x0, 16
	str	x0, [x19]
	ldp	x19, x20, [sp, 16]
	ldp	x29, x30, [sp], 48
	.cfi_restore 30
	.cfi_restore 29
	.cfi_restore 21
	.cfi_restore 22
	.cfi_restore 19
	.cfi_restore 20
	.cfi_def_cfa_offset 0
	ret
	.cfi_endproc
.LFE2468:
	.size	_ZN8opendnp322CommandResponseHandlerC2EhPNS_14ICommandActionEPNS_12HeaderWriterE, .-_ZN8opendnp322CommandResponseHandlerC2EhPNS_14ICommandActionEPNS_12HeaderWriterE
	.global	_ZN8opendnp322CommandResponseHandlerC1EhPNS_14ICommandActionEPNS_12HeaderWriterE
	.set	_ZN8opendnp322CommandResponseHandlerC1EhPNS_14ICommandActionEPNS_12HeaderWriterE,_ZN8opendnp322CommandResponseHandlerC2EhPNS_14ICommandActionEPNS_12HeaderWriterE
	.align	2
	.p2align 4,,11
	.global	_ZN8opendnp322CommandResponseHandler25ProcessIndexPrefixTwoByteERKNS_12HeaderRecordERKNS_11ICollectionINS_7IndexedINS_23ControlRelayOutputBlockEEEEE
	.type	_ZN8opendnp322CommandResponseHandler25ProcessIndexPrefixTwoByteERKNS_12HeaderRecordERKNS_11ICollectionINS_7IndexedINS_23ControlRelayOutputBlockEEEEE, %function
_ZN8opendnp322CommandResponseHandler25ProcessIndexPrefixTwoByteERKNS_12HeaderRecordERKNS_11ICollectionINS_7IndexedINS_23ControlRelayOutputBlockEEEEE:
.LFB2476:
	.cfi_startproc
	.cfi_personality 0x9b,DW.ref.__gxx_personality_v0
	.cfi_lsda 0x1b,.LLSDA2476
	stp	x29, x30, [sp, -160]!
	.cfi_def_cfa_offset 160
	.cfi_offset 29, -160
	.cfi_offset 30, -152
	adrp	x1, :got:__stack_chk_guard
	mov	x29, sp
	ldr	x1, [x1, #:got_lo12:__stack_chk_guard]
	stp	x19, x20, [sp, 16]
	.cfi_offset 19, -144
	.cfi_offset 20, -136
	mov	x19, x0
	str	x21, [sp, 32]
	.cfi_offset 21, -128
	mov	x20, x2
	ldr	x21, [x0, 48]
	ldr	x0, [x1]
	str	x0, [sp, 152]
	mov	x0, 0
	cbz	x21, .L181
	mov	x0, x21
	mov	w3, 15
	mov	w2, 40
	mov	w1, 268
.LEHB0:
	bl	_ZN8opendnp312HeaderWriter22WriteHeaderWithReserveENS_16GroupVariationIDENS_13QualifierCodeEj
	tst	w0, 255
	bne	.L198
	add	x0, sp, 128
	str	wzr, [sp, 96]
	stp	xzr, xzr, [sp, 104]
	str	wzr, [sp, 120]
	strh	wzr, [sp, 124]
	strb	wzr, [sp, 126]
	bl	_ZN7openpal6WSliceC1Ev
.LEHE0:
	str	xzr, [sp, 144]
.L183:
	ldr	x1, [x20]
	adrp	x0, :got:_ZTVN8opendnp314FunctorVisitorINS_7IndexedINS_23ControlRelayOutputBlockEEEZNS_22CommandResponseHandler27RespondToHeaderWithIteratorIS2_N7openpal7Bit16LEItEEEENS_8IINFieldENS_13QualifierCodeERKNS_14DNP3SerializerIT_EERKNS_11ICollectionINS1_ISC_EEEEPNS_21PrefixedWriteIteratorIT0_SC_EEEUlRKS3_E_EE
	add	x3, sp, 96
	add	x2, sp, 56
	ldr	x0, [x0, #:got_lo12:_ZTVN8opendnp314FunctorVisitorINS_7IndexedINS_23ControlRelayOutputBlockEEEZNS_22CommandResponseHandler27RespondToHeaderWithIteratorIS2_N7openpal7Bit16LEItEEEENS_8IINFieldENS_13QualifierCodeERKNS_14DNP3SerializerIT_EERKNS_11ICollectionINS1_ISC_EEEEPNS_21PrefixedWriteIteratorIT0_SC_EEEUlRKS3_E_EE]
	strh	wzr, [sp, 56]
	ldr	x4, [x1, 8]
	add	x0, x0, 16
	stp	x0, x19, [sp, 64]
	add	x1, sp, 64
	mov	x0, x20
	stp	x3, x2, [sp, 80]
.LEHB1:
	blr	x4
.LEHE1:
	ldrb	w1, [sp, 126]
	ldrh	w0, [sp, 56]
	cbz	w1, .L185
	ldr	x1, [sp, 136]
	ldrh	w2, [sp, 124]
	strh	w2, [x1]
.L185:
	adrp	x1, :got:__stack_chk_guard
	ldr	x1, [x1, #:got_lo12:__stack_chk_guard]
	ldr	x3, [sp, 152]
	ldr	x2, [x1]
	subs	x3, x3, x2
	mov	x2, 0
	bne	.L199
	ldp	x19, x20, [sp, 16]
	ldr	x21, [sp, 32]
	ldp	x29, x30, [sp], 160
	.cfi_remember_state
	.cfi_restore 30
	.cfi_restore 29
	.cfi_restore 21
	.cfi_restore 19
	.cfi_restore 20
	.cfi_def_cfa_offset 0
	ret
	.p2align 2,,3
.L198:
	.cfi_restore_state
	ldr	x0, [x21]
	adrp	x2, :got:_ZN8opendnp311Group12Var110ReadTargetERN7openpal6RSliceERNS_23ControlRelayOutputBlockE
	adrp	x1, :got:_ZN8opendnp311Group12Var111WriteTargetERKNS_23ControlRelayOutputBlockERN7openpal6WSliceE
	mov	w7, 11
	ldr	x2, [x2, #:got_lo12:_ZN8opendnp311Group12Var110ReadTargetERN7openpal6RSliceERNS_23ControlRelayOutputBlockE]
	mov	w6, 13
	ldr	w3, [x0]
	ldr	x1, [x1, #:got_lo12:_ZN8opendnp311Group12Var111WriteTargetERKNS_23ControlRelayOutputBlockERN7openpal6WSliceE]
	cmp	w3, 1
	ldp	x4, x5, [x0]
	cset	w3, hi
	str	w7, [sp, 96]
	stp	x2, x1, [sp, 104]
	str	w6, [sp, 120]
	strh	wzr, [sp, 124]
	strb	w3, [sp, 126]
	stp	x4, x5, [sp, 128]
	str	x0, [sp, 144]
	bls	.L183
	mov	w1, 2
.LEHB2:
	bl	_ZN7openpal6WSlice7AdvanceEj
	b	.L183
	.p2align 2,,3
.L181:
	ldr	x1, [x20]
	adrp	x0, :got:_ZTVN8opendnp314FunctorVisitorINS_7IndexedINS_23ControlRelayOutputBlockEEEZNS_22CommandResponseHandler27RespondToHeaderWithIteratorIS2_N7openpal7Bit16LEItEEEENS_8IINFieldENS_13QualifierCodeERKNS_14DNP3SerializerIT_EERKNS_11ICollectionINS1_ISC_EEEEPNS_21PrefixedWriteIteratorIT0_SC_EEEUlRKS3_E_EE
	strh	wzr, [sp, 64]
	add	x2, sp, 64
	ldr	x0, [x0, #:got_lo12:_ZTVN8opendnp314FunctorVisitorINS_7IndexedINS_23ControlRelayOutputBlockEEEZNS_22CommandResponseHandler27RespondToHeaderWithIteratorIS2_N7openpal7Bit16LEItEEEENS_8IINFieldENS_13QualifierCodeERKNS_14DNP3SerializerIT_EERKNS_11ICollectionINS1_ISC_EEEEPNS_21PrefixedWriteIteratorIT0_SC_EEEUlRKS3_E_EE]
	ldr	x3, [x1, 8]
	add	x0, x0, 16
	stp	x0, x19, [sp, 96]
	add	x1, sp, 96
	mov	x0, x20
	stp	xzr, x2, [sp, 112]
	blr	x3
	ldrh	w0, [sp, 64]
	b	.L185
.L199:
	bl	__stack_chk_fail
.L189:
	ldrb	w1, [sp, 126]
	cbz	w1, .L187
	ldr	x1, [sp, 136]
	ldrh	w2, [sp, 124]
	strh	w2, [x1]
.L187:
	bl	_Unwind_Resume
.LEHE2:
	.cfi_endproc
.LFE2476:
	.global	__gxx_personality_v0
	.section	.gcc_except_table,"a",@progbits
.LLSDA2476:
	.byte	0xff
	.byte	0xff
	.byte	0x1
	.uleb128 .LLSDACSE2476-.LLSDACSB2476
.LLSDACSB2476:
	.uleb128 .LEHB0-.LFB2476
	.uleb128 .LEHE0-.LEHB0
	.uleb128 0
	.uleb128 0
	.uleb128 .LEHB1-.LFB2476
	.uleb128 .LEHE1-.LEHB1
	.uleb128 .L189-.LFB2476
	.uleb128 0
	.uleb128 .LEHB2-.LFB2476
	.uleb128 .LEHE2-.LEHB2
	.uleb128 0
	.uleb128 0
.LLSDACSE2476:
	.text
	.size	_ZN8opendnp322CommandResponseHandler25ProcessIndexPrefixTwoByteERKNS_12HeaderRecordERKNS_11ICollectionINS_7IndexedINS_23ControlRelayOutputBlockEEEEE, .-_ZN8opendnp322CommandResponseHandler25ProcessIndexPrefixTwoByteERKNS_12HeaderRecordERKNS_11ICollectionINS_7IndexedINS_23ControlRelayOutputBlockEEEEE
	.align	2
	.p2align 4,,11
	.global	_ZN8opendnp322CommandResponseHandler25ProcessIndexPrefixTwoByteERKNS_12HeaderRecordERKNS_11ICollectionINS_7IndexedINS_17AnalogOutputInt16EEEEE
	.type	_ZN8opendnp322CommandResponseHandler25ProcessIndexPrefixTwoByteERKNS_12HeaderRecordERKNS_11ICollectionINS_7IndexedINS_17AnalogOutputInt16EEEEE, %function
_ZN8opendnp322CommandResponseHandler25ProcessIndexPrefixTwoByteERKNS_12HeaderRecordERKNS_11ICollectionINS_7IndexedINS_17AnalogOutputInt16EEEEE:
.LFB2477:
	.cfi_startproc
	.cfi_personality 0x9b,DW.ref.__gxx_personality_v0
	.cfi_lsda 0x1b,.LLSDA2477
	stp	x29, x30, [sp, -160]!
	.cfi_def_cfa_offset 160
	.cfi_offset 29, -160
	.cfi_offset 30, -152
	adrp	x1, :got:__stack_chk_guard
	mov	x29, sp
	ldr	x1, [x1, #:got_lo12:__stack_chk_guard]
	stp	x19, x20, [sp, 16]
	.cfi_offset 19, -144
	.cfi_offset 20, -136
	mov	x19, x0
	str	x21, [sp, 32]
	.cfi_offset 21, -128
	mov	x20, x2
	ldr	x21, [x0, 48]
	ldr	x0, [x1]
	str	x0, [sp, 152]
	mov	x0, 0
	cbz	x21, .L201
	mov	x0, x21
	mov	w3, 7
	mov	w2, 40
	mov	w1, 553
.LEHB3:
	bl	_ZN8opendnp312HeaderWriter22WriteHeaderWithReserveENS_16GroupVariationIDENS_13QualifierCodeEj
	tst	w0, 255
	bne	.L218
	add	x0, sp, 128
	str	wzr, [sp, 96]
	stp	xzr, xzr, [sp, 104]
	str	wzr, [sp, 120]
	strh	wzr, [sp, 124]
	strb	wzr, [sp, 126]
	bl	_ZN7openpal6WSliceC1Ev
.LEHE3:
	str	xzr, [sp, 144]
.L203:
	ldr	x1, [x20]
	adrp	x0, :got:_ZTVN8opendnp314FunctorVisitorINS_7IndexedINS_17AnalogOutputInt16EEEZNS_22CommandResponseHandler27RespondToHeaderWithIteratorIS2_N7openpal7Bit16LEItEEEENS_8IINFieldENS_13QualifierCodeERKNS_14DNP3SerializerIT_EERKNS_11ICollectionINS1_ISC_EEEEPNS_21PrefixedWriteIteratorIT0_SC_EEEUlRKS3_E_EE
	add	x3, sp, 96
	add	x2, sp, 56
	ldr	x0, [x0, #:got_lo12:_ZTVN8opendnp314FunctorVisitorINS_7IndexedINS_17AnalogOutputInt16EEEZNS_22CommandResponseHandler27RespondToHeaderWithIteratorIS2_N7openpal7Bit16LEItEEEENS_8IINFieldENS_13QualifierCodeERKNS_14DNP3SerializerIT_EERKNS_11ICollectionINS1_ISC_EEEEPNS_21PrefixedWriteIteratorIT0_SC_EEEUlRKS3_E_EE]
	strh	wzr, [sp, 56]
	ldr	x4, [x1, 8]
	add	x0, x0, 16
	stp	x0, x19, [sp, 64]
	add	x1, sp, 64
	mov	x0, x20
	stp	x3, x2, [sp, 80]
.LEHB4:
	blr	x4
.LEHE4:
	ldrb	w1, [sp, 126]
	ldrh	w0, [sp, 56]
	cbz	w1, .L205
	ldr	x1, [sp, 136]
	ldrh	w2, [sp, 124]
	strh	w2, [x1]
.L205:
	adrp	x1, :got:__stack_chk_guard
	ldr	x1, [x1, #:got_lo12:__stack_chk_guard]
	ldr	x3, [sp, 152]
	ldr	x2, [x1]
	subs	x3, x3, x2
	mov	x2, 0
	bne	.L219
	ldp	x19, x20, [sp, 16]
	ldr	x21, [sp, 32]
	ldp	x29, x30, [sp], 160
	.cfi_remember_state
	.cfi_restore 30
	.cfi_restore 29
	.cfi_restore 21
	.cfi_restore 19
	.cfi_restore 20
	.cfi_def_cfa_offset 0
	ret
	.p2align 2,,3
.L218:
	.cfi_restore_state
	ldr	x0, [x21]
	adrp	x2, :got:_ZN8opendnp311Group41Var210ReadTargetERN7openpal6RSliceERNS_17AnalogOutputInt16E
	adrp	x1, :got:_ZN8opendnp311Group41Var211WriteTargetERKNS_17AnalogOutputInt16ERN7openpal6WSliceE
	mov	w7, 3
	ldr	x2, [x2, #:got_lo12:_ZN8opendnp311Group41Var210ReadTargetERN7openpal6RSliceERNS_17AnalogOutputInt16E]
	mov	w6, 5
	ldr	w3, [x0]
	ldr	x1, [x1, #:got_lo12:_ZN8opendnp311Group41Var211WriteTargetERKNS_17AnalogOutputInt16ERN7openpal6WSliceE]
	cmp	w3, 1
	ldp	x4, x5, [x0]
	cset	w3, hi
	str	w7, [sp, 96]
	stp	x2, x1, [sp, 104]
	str	w6, [sp, 120]
	strh	wzr, [sp, 124]
	strb	w3, [sp, 126]
	stp	x4, x5, [sp, 128]
	str	x0, [sp, 144]
	bls	.L203
	mov	w1, 2
.LEHB5:
	bl	_ZN7openpal6WSlice7AdvanceEj
	b	.L203
	.p2align 2,,3
.L201:
	ldr	x1, [x20]
	adrp	x0, :got:_ZTVN8opendnp314FunctorVisitorINS_7IndexedINS_17AnalogOutputInt16EEEZNS_22CommandResponseHandler27RespondToHeaderWithIteratorIS2_N7openpal7Bit16LEItEEEENS_8IINFieldENS_13QualifierCodeERKNS_14DNP3SerializerIT_EERKNS_11ICollectionINS1_ISC_EEEEPNS_21PrefixedWriteIteratorIT0_SC_EEEUlRKS3_E_EE
	strh	wzr, [sp, 64]
	add	x2, sp, 64
	ldr	x0, [x0, #:got_lo12:_ZTVN8opendnp314FunctorVisitorINS_7IndexedINS_17AnalogOutputInt16EEEZNS_22CommandResponseHandler27RespondToHeaderWithIteratorIS2_N7openpal7Bit16LEItEEEENS_8IINFieldENS_13QualifierCodeERKNS_14DNP3SerializerIT_EERKNS_11ICollectionINS1_ISC_EEEEPNS_21PrefixedWriteIteratorIT0_SC_EEEUlRKS3_E_EE]
	ldr	x3, [x1, 8]
	add	x0, x0, 16
	stp	x0, x19, [sp, 96]
	add	x1, sp, 96
	mov	x0, x20
	stp	xzr, x2, [sp, 112]
	blr	x3
	ldrh	w0, [sp, 64]
	b	.L205
.L219:
	bl	__stack_chk_fail
.L209:
	ldrb	w1, [sp, 126]
	cbz	w1, .L207
	ldr	x1, [sp, 136]
	ldrh	w2, [sp, 124]
	strh	w2, [x1]
.L207:
	bl	_Unwind_Resume
.LEHE5:
	.cfi_endproc
.LFE2477:
	.section	.gcc_except_table
.LLSDA2477:
	.byte	0xff
	.byte	0xff
	.byte	0x1
	.uleb128 .LLSDACSE2477-.LLSDACSB2477
.LLSDACSB2477:
	.uleb128 .LEHB3-.LFB2477
	.uleb128 .LEHE3-.LEHB3
	.uleb128 0
	.uleb128 0
	.uleb128 .LEHB4-.LFB2477
	.uleb128 .LEHE4-.LEHB4
	.uleb128 .L209-.LFB2477
	.uleb128 0
	.uleb128 .LEHB5-.LFB2477
	.uleb128 .LEHE5-.LEHB5
	.uleb128 0
	.uleb128 0
.LLSDACSE2477:
	.text
	.size	_ZN8opendnp322CommandResponseHandler25ProcessIndexPrefixTwoByteERKNS_12HeaderRecordERKNS_11ICollectionINS_7IndexedINS_17AnalogOutputInt16EEEEE, .-_ZN8opendnp322CommandResponseHandler25ProcessIndexPrefixTwoByteERKNS_12HeaderRecordERKNS_11ICollectionINS_7IndexedINS_17AnalogOutputInt16EEEEE
	.align	2
	.p2align 4,,11
	.global	_ZN8opendnp322CommandResponseHandler25ProcessIndexPrefixTwoByteERKNS_12HeaderRecordERKNS_11ICollectionINS_7IndexedINS_17AnalogOutputInt32EEEEE
	.type	_ZN8opendnp322CommandResponseHandler25ProcessIndexPrefixTwoByteERKNS_12HeaderRecordERKNS_11ICollectionINS_7IndexedINS_17AnalogOutputInt32EEEEE, %function
_ZN8opendnp322CommandResponseHandler25ProcessIndexPrefixTwoByteERKNS_12HeaderRecordERKNS_11ICollectionINS_7IndexedINS_17AnalogOutputInt32EEEEE:
.LFB2478:
	.cfi_startproc
	.cfi_personality 0x9b,DW.ref.__gxx_personality_v0
	.cfi_lsda 0x1b,.LLSDA2478
	stp	x29, x30, [sp, -160]!
	.cfi_def_cfa_offset 160
	.cfi_offset 29, -160
	.cfi_offset 30, -152
	adrp	x1, :got:__stack_chk_guard
	mov	x29, sp
	ldr	x1, [x1, #:got_lo12:__stack_chk_guard]
	stp	x19, x20, [sp, 16]
	.cfi_offset 19, -144
	.cfi_offset 20, -136
	mov	x19, x0
	str	x21, [sp, 32]
	.cfi_offset 21, -128
	mov	x20, x2
	ldr	x21, [x0, 48]
	ldr	x0, [x1]
	str	x0, [sp, 152]
	mov	x0, 0
	cbz	x21, .L221
	mov	x0, x21
	mov	w3, 9
	mov	w2, 40
	mov	w1, 297
.LEHB6:
	bl	_ZN8opendnp312HeaderWriter22WriteHeaderWithReserveENS_16GroupVariationIDENS_13QualifierCodeEj
	tst	w0, 255
	bne	.L238
	add	x0, sp, 128
	str	wzr, [sp, 96]
	stp	xzr, xzr, [sp, 104]
	str	wzr, [sp, 120]
	strh	wzr, [sp, 124]
	strb	wzr, [sp, 126]
	bl	_ZN7openpal6WSliceC1Ev
.LEHE6:
	str	xzr, [sp, 144]
.L223:
	ldr	x1, [x20]
	adrp	x0, :got:_ZTVN8opendnp314FunctorVisitorINS_7IndexedINS_17AnalogOutputInt32EEEZNS_22CommandResponseHandler27RespondToHeaderWithIteratorIS2_N7openpal7Bit16LEItEEEENS_8IINFieldENS_13QualifierCodeERKNS_14DNP3SerializerIT_EERKNS_11ICollectionINS1_ISC_EEEEPNS_21PrefixedWriteIteratorIT0_SC_EEEUlRKS3_E_EE
	add	x3, sp, 96
	add	x2, sp, 56
	ldr	x0, [x0, #:got_lo12:_ZTVN8opendnp314FunctorVisitorINS_7IndexedINS_17AnalogOutputInt32EEEZNS_22CommandResponseHandler27RespondToHeaderWithIteratorIS2_N7openpal7Bit16LEItEEEENS_8IINFieldENS_13QualifierCodeERKNS_14DNP3SerializerIT_EERKNS_11ICollectionINS1_ISC_EEEEPNS_21PrefixedWriteIteratorIT0_SC_EEEUlRKS3_E_EE]
	strh	wzr, [sp, 56]
	ldr	x4, [x1, 8]
	add	x0, x0, 16
	stp	x0, x19, [sp, 64]
	add	x1, sp, 64
	mov	x0, x20
	stp	x3, x2, [sp, 80]
.LEHB7:
	blr	x4
.LEHE7:
	ldrb	w1, [sp, 126]
	ldrh	w0, [sp, 56]
	cbz	w1, .L225
	ldr	x1, [sp, 136]
	ldrh	w2, [sp, 124]
	strh	w2, [x1]
.L225:
	adrp	x1, :got:__stack_chk_guard
	ldr	x1, [x1, #:got_lo12:__stack_chk_guard]
	ldr	x3, [sp, 152]
	ldr	x2, [x1]
	subs	x3, x3, x2
	mov	x2, 0
	bne	.L239
	ldp	x19, x20, [sp, 16]
	ldr	x21, [sp, 32]
	ldp	x29, x30, [sp], 160
	.cfi_remember_state
	.cfi_restore 30
	.cfi_restore 29
	.cfi_restore 21
	.cfi_restore 19
	.cfi_restore 20
	.cfi_def_cfa_offset 0
	ret
	.p2align 2,,3
.L238:
	.cfi_restore_state
	ldr	x0, [x21]
	adrp	x2, :got:_ZN8opendnp311Group41Var110ReadTargetERN7openpal6RSliceERNS_17AnalogOutputInt32E
	adrp	x1, :got:_ZN8opendnp311Group41Var111WriteTargetERKNS_17AnalogOutputInt32ERN7openpal6WSliceE
	mov	w7, 5
	ldr	x2, [x2, #:got_lo12:_ZN8opendnp311Group41Var110ReadTargetERN7openpal6RSliceERNS_17AnalogOutputInt32E]
	mov	w6, 7
	ldr	w3, [x0]
	ldr	x1, [x1, #:got_lo12:_ZN8opendnp311Group41Var111WriteTargetERKNS_17AnalogOutputInt32ERN7openpal6WSliceE]
	cmp	w3, 1
	ldp	x4, x5, [x0]
	cset	w3, hi
	str	w7, [sp, 96]
	stp	x2, x1, [sp, 104]
	str	w6, [sp, 120]
	strh	wzr, [sp, 124]
	strb	w3, [sp, 126]
	stp	x4, x5, [sp, 128]
	str	x0, [sp, 144]
	bls	.L223
	mov	w1, 2
.LEHB8:
	bl	_ZN7openpal6WSlice7AdvanceEj
	b	.L223
	.p2align 2,,3
.L221:
	ldr	x1, [x20]
	adrp	x0, :got:_ZTVN8opendnp314FunctorVisitorINS_7IndexedINS_17AnalogOutputInt32EEEZNS_22CommandResponseHandler27RespondToHeaderWithIteratorIS2_N7openpal7Bit16LEItEEEENS_8IINFieldENS_13QualifierCodeERKNS_14DNP3SerializerIT_EERKNS_11ICollectionINS1_ISC_EEEEPNS_21PrefixedWriteIteratorIT0_SC_EEEUlRKS3_E_EE
	strh	wzr, [sp, 64]
	add	x2, sp, 64
	ldr	x0, [x0, #:got_lo12:_ZTVN8opendnp314FunctorVisitorINS_7IndexedINS_17AnalogOutputInt32EEEZNS_22CommandResponseHandler27RespondToHeaderWithIteratorIS2_N7openpal7Bit16LEItEEEENS_8IINFieldENS_13QualifierCodeERKNS_14DNP3SerializerIT_EERKNS_11ICollectionINS1_ISC_EEEEPNS_21PrefixedWriteIteratorIT0_SC_EEEUlRKS3_E_EE]
	ldr	x3, [x1, 8]
	add	x0, x0, 16
	stp	x0, x19, [sp, 96]
	add	x1, sp, 96
	mov	x0, x20
	stp	xzr, x2, [sp, 112]
	blr	x3
	ldrh	w0, [sp, 64]
	b	.L225
.L239:
	bl	__stack_chk_fail
.L229:
	ldrb	w1, [sp, 126]
	cbz	w1, .L227
	ldr	x1, [sp, 136]
	ldrh	w2, [sp, 124]
	strh	w2, [x1]
.L227:
	bl	_Unwind_Resume
.LEHE8:
	.cfi_endproc
.LFE2478:
	.section	.gcc_except_table
.LLSDA2478:
	.byte	0xff
	.byte	0xff
	.byte	0x1
	.uleb128 .LLSDACSE2478-.LLSDACSB2478
.LLSDACSB2478:
	.uleb128 .LEHB6-.LFB2478
	.uleb128 .LEHE6-.LEHB6
	.uleb128 0
	.uleb128 0
	.uleb128 .LEHB7-.LFB2478
	.uleb128 .LEHE7-.LEHB7
	.uleb128 .L229-.LFB2478
	.uleb128 0
	.uleb128 .LEHB8-.LFB2478
	.uleb128 .LEHE8-.LEHB8
	.uleb128 0
	.uleb128 0
.LLSDACSE2478:
	.text
	.size	_ZN8opendnp322CommandResponseHandler25ProcessIndexPrefixTwoByteERKNS_12HeaderRecordERKNS_11ICollectionINS_7IndexedINS_17AnalogOutputInt32EEEEE, .-_ZN8opendnp322CommandResponseHandler25ProcessIndexPrefixTwoByteERKNS_12HeaderRecordERKNS_11ICollectionINS_7IndexedINS_17AnalogOutputInt32EEEEE
	.align	2
	.p2align 4,,11
	.global	_ZN8opendnp322CommandResponseHandler25ProcessIndexPrefixTwoByteERKNS_12HeaderRecordERKNS_11ICollectionINS_7IndexedINS_19AnalogOutputFloat32EEEEE
	.type	_ZN8opendnp322CommandResponseHandler25ProcessIndexPrefixTwoByteERKNS_12HeaderRecordERKNS_11ICollectionINS_7IndexedINS_19AnalogOutputFloat32EEEEE, %function
_ZN8opendnp322CommandResponseHandler25ProcessIndexPrefixTwoByteERKNS_12HeaderRecordERKNS_11ICollectionINS_7IndexedINS_19AnalogOutputFloat32EEEEE:
.LFB2479:
	.cfi_startproc
	.cfi_personality 0x9b,DW.ref.__gxx_personality_v0
	.cfi_lsda 0x1b,.LLSDA2479
	stp	x29, x30, [sp, -160]!
	.cfi_def_cfa_offset 160
	.cfi_offset 29, -160
	.cfi_offset 30, -152
	adrp	x1, :got:__stack_chk_guard
	mov	x29, sp
	ldr	x1, [x1, #:got_lo12:__stack_chk_guard]
	stp	x19, x20, [sp, 16]
	.cfi_offset 19, -144
	.cfi_offset 20, -136
	mov	x19, x0
	str	x21, [sp, 32]
	.cfi_offset 21, -128
	mov	x20, x2
	ldr	x21, [x0, 48]
	ldr	x0, [x1]
	str	x0, [sp, 152]
	mov	x0, 0
	cbz	x21, .L241
	mov	x0, x21
	mov	w3, 9
	mov	w2, 40
	mov	w1, 809
.LEHB9:
	bl	_ZN8opendnp312HeaderWriter22WriteHeaderWithReserveENS_16GroupVariationIDENS_13QualifierCodeEj
	tst	w0, 255
	bne	.L258
	add	x0, sp, 128
	str	wzr, [sp, 96]
	stp	xzr, xzr, [sp, 104]
	str	wzr, [sp, 120]
	strh	wzr, [sp, 124]
	strb	wzr, [sp, 126]
	bl	_ZN7openpal6WSliceC1Ev
.LEHE9:
	str	xzr, [sp, 144]
.L243:
	ldr	x1, [x20]
	adrp	x0, :got:_ZTVN8opendnp314FunctorVisitorINS_7IndexedINS_19AnalogOutputFloat32EEEZNS_22CommandResponseHandler27RespondToHeaderWithIteratorIS2_N7openpal7Bit16LEItEEEENS_8IINFieldENS_13QualifierCodeERKNS_14DNP3SerializerIT_EERKNS_11ICollectionINS1_ISC_EEEEPNS_21PrefixedWriteIteratorIT0_SC_EEEUlRKS3_E_EE
	add	x3, sp, 96
	add	x2, sp, 56
	ldr	x0, [x0, #:got_lo12:_ZTVN8opendnp314FunctorVisitorINS_7IndexedINS_19AnalogOutputFloat32EEEZNS_22CommandResponseHandler27RespondToHeaderWithIteratorIS2_N7openpal7Bit16LEItEEEENS_8IINFieldENS_13QualifierCodeERKNS_14DNP3SerializerIT_EERKNS_11ICollectionINS1_ISC_EEEEPNS_21PrefixedWriteIteratorIT0_SC_EEEUlRKS3_E_EE]
	strh	wzr, [sp, 56]
	ldr	x4, [x1, 8]
	add	x0, x0, 16
	stp	x0, x19, [sp, 64]
	add	x1, sp, 64
	mov	x0, x20
	stp	x3, x2, [sp, 80]
.LEHB10:
	blr	x4
.LEHE10:
	ldrb	w1, [sp, 126]
	ldrh	w0, [sp, 56]
	cbz	w1, .L245
	ldr	x1, [sp, 136]
	ldrh	w2, [sp, 124]
	strh	w2, [x1]
.L245:
	adrp	x1, :got:__stack_chk_guard
	ldr	x1, [x1, #:got_lo12:__stack_chk_guard]
	ldr	x3, [sp, 152]
	ldr	x2, [x1]
	subs	x3, x3, x2
	mov	x2, 0
	bne	.L259
	ldp	x19, x20, [sp, 16]
	ldr	x21, [sp, 32]
	ldp	x29, x30, [sp], 160
	.cfi_remember_state
	.cfi_restore 30
	.cfi_restore 29
	.cfi_restore 21
	.cfi_restore 19
	.cfi_restore 20
	.cfi_def_cfa_offset 0
	ret
	.p2align 2,,3
.L258:
	.cfi_restore_state
	ldr	x0, [x21]
	adrp	x2, :got:_ZN8opendnp311Group41Var310ReadTargetERN7openpal6RSliceERNS_19AnalogOutputFloat32E
	adrp	x1, :got:_ZN8opendnp311Group41Var311WriteTargetERKNS_19AnalogOutputFloat32ERN7openpal6WSliceE
	mov	w7, 5
	ldr	x2, [x2, #:got_lo12:_ZN8opendnp311Group41Var310ReadTargetERN7openpal6RSliceERNS_19AnalogOutputFloat32E]
	mov	w6, 7
	ldr	w3, [x0]
	ldr	x1, [x1, #:got_lo12:_ZN8opendnp311Group41Var311WriteTargetERKNS_19AnalogOutputFloat32ERN7openpal6WSliceE]
	cmp	w3, 1
	ldp	x4, x5, [x0]
	cset	w3, hi
	str	w7, [sp, 96]
	stp	x2, x1, [sp, 104]
	str	w6, [sp, 120]
	strh	wzr, [sp, 124]
	strb	w3, [sp, 126]
	stp	x4, x5, [sp, 128]
	str	x0, [sp, 144]
	bls	.L243
	mov	w1, 2
.LEHB11:
	bl	_ZN7openpal6WSlice7AdvanceEj
	b	.L243
	.p2align 2,,3
.L241:
	ldr	x1, [x20]
	adrp	x0, :got:_ZTVN8opendnp314FunctorVisitorINS_7IndexedINS_19AnalogOutputFloat32EEEZNS_22CommandResponseHandler27RespondToHeaderWithIteratorIS2_N7openpal7Bit16LEItEEEENS_8IINFieldENS_13QualifierCodeERKNS_14DNP3SerializerIT_EERKNS_11ICollectionINS1_ISC_EEEEPNS_21PrefixedWriteIteratorIT0_SC_EEEUlRKS3_E_EE
	strh	wzr, [sp, 64]
	add	x2, sp, 64
	ldr	x0, [x0, #:got_lo12:_ZTVN8opendnp314FunctorVisitorINS_7IndexedINS_19AnalogOutputFloat32EEEZNS_22CommandResponseHandler27RespondToHeaderWithIteratorIS2_N7openpal7Bit16LEItEEEENS_8IINFieldENS_13QualifierCodeERKNS_14DNP3SerializerIT_EERKNS_11ICollectionINS1_ISC_EEEEPNS_21PrefixedWriteIteratorIT0_SC_EEEUlRKS3_E_EE]
	ldr	x3, [x1, 8]
	add	x0, x0, 16
	stp	x0, x19, [sp, 96]
	add	x1, sp, 96
	mov	x0, x20
	stp	xzr, x2, [sp, 112]
	blr	x3
	ldrh	w0, [sp, 64]
	b	.L245
.L259:
	bl	__stack_chk_fail
.L249:
	ldrb	w1, [sp, 126]
	cbz	w1, .L247
	ldr	x1, [sp, 136]
	ldrh	w2, [sp, 124]
	strh	w2, [x1]
.L247:
	bl	_Unwind_Resume
.LEHE11:
	.cfi_endproc
.LFE2479:
	.section	.gcc_except_table
.LLSDA2479:
	.byte	0xff
	.byte	0xff
	.byte	0x1
	.uleb128 .LLSDACSE2479-.LLSDACSB2479
.LLSDACSB2479:
	.uleb128 .LEHB9-.LFB2479
	.uleb128 .LEHE9-.LEHB9
	.uleb128 0
	.uleb128 0
	.uleb128 .LEHB10-.LFB2479
	.uleb128 .LEHE10-.LEHB10
	.uleb128 .L249-.LFB2479
	.uleb128 0
	.uleb128 .LEHB11-.LFB2479
	.uleb128 .LEHE11-.LEHB11
	.uleb128 0
	.uleb128 0
.LLSDACSE2479:
	.text
	.size	_ZN8opendnp322CommandResponseHandler25ProcessIndexPrefixTwoByteERKNS_12HeaderRecordERKNS_11ICollectionINS_7IndexedINS_19AnalogOutputFloat32EEEEE, .-_ZN8opendnp322CommandResponseHandler25ProcessIndexPrefixTwoByteERKNS_12HeaderRecordERKNS_11ICollectionINS_7IndexedINS_19AnalogOutputFloat32EEEEE
	.align	2
	.p2align 4,,11
	.global	_ZN8opendnp322CommandResponseHandler25ProcessIndexPrefixTwoByteERKNS_12HeaderRecordERKNS_11ICollectionINS_7IndexedINS_20AnalogOutputDouble64EEEEE
	.type	_ZN8opendnp322CommandResponseHandler25ProcessIndexPrefixTwoByteERKNS_12HeaderRecordERKNS_11ICollectionINS_7IndexedINS_20AnalogOutputDouble64EEEEE, %function
_ZN8opendnp322CommandResponseHandler25ProcessIndexPrefixTwoByteERKNS_12HeaderRecordERKNS_11ICollectionINS_7IndexedINS_20AnalogOutputDouble64EEEEE:
.LFB2480:
	.cfi_startproc
	.cfi_personality 0x9b,DW.ref.__gxx_personality_v0
	.cfi_lsda 0x1b,.LLSDA2480
	stp	x29, x30, [sp, -160]!
	.cfi_def_cfa_offset 160
	.cfi_offset 29, -160
	.cfi_offset 30, -152
	adrp	x1, :got:__stack_chk_guard
	mov	x29, sp
	ldr	x1, [x1, #:got_lo12:__stack_chk_guard]
	stp	x19, x20, [sp, 16]
	.cfi_offset 19, -144
	.cfi_offset 20, -136
	mov	x19, x0
	str	x21, [sp, 32]
	.cfi_offset 21, -128
	mov	x20, x2
	ldr	x21, [x0, 48]
	ldr	x0, [x1]
	str	x0, [sp, 152]
	mov	x0, 0
	cbz	x21, .L261
	mov	x0, x21
	mov	w3, 13
	mov	w2, 40
	mov	w1, 1065
.LEHB12:
	bl	_ZN8opendnp312HeaderWriter22WriteHeaderWithReserveENS_16GroupVariationIDENS_13QualifierCodeEj
	tst	w0, 255
	bne	.L278
	add	x0, sp, 128
	str	wzr, [sp, 96]
	stp	xzr, xzr, [sp, 104]
	str	wzr, [sp, 120]
	strh	wzr, [sp, 124]
	strb	wzr, [sp, 126]
	bl	_ZN7openpal6WSliceC1Ev
.LEHE12:
	str	xzr, [sp, 144]
.L263:
	ldr	x1, [x20]
	adrp	x0, :got:_ZTVN8opendnp314FunctorVisitorINS_7IndexedINS_20AnalogOutputDouble64EEEZNS_22CommandResponseHandler27RespondToHeaderWithIteratorIS2_N7openpal7Bit16LEItEEEENS_8IINFieldENS_13QualifierCodeERKNS_14DNP3SerializerIT_EERKNS_11ICollectionINS1_ISC_EEEEPNS_21PrefixedWriteIteratorIT0_SC_EEEUlRKS3_E_EE
	add	x3, sp, 96
	add	x2, sp, 56
	ldr	x0, [x0, #:got_lo12:_ZTVN8opendnp314FunctorVisitorINS_7IndexedINS_20AnalogOutputDouble64EEEZNS_22CommandResponseHandler27RespondToHeaderWithIteratorIS2_N7openpal7Bit16LEItEEEENS_8IINFieldENS_13QualifierCodeERKNS_14DNP3SerializerIT_EERKNS_11ICollectionINS1_ISC_EEEEPNS_21PrefixedWriteIteratorIT0_SC_EEEUlRKS3_E_EE]
	strh	wzr, [sp, 56]
	ldr	x4, [x1, 8]
	add	x0, x0, 16
	stp	x0, x19, [sp, 64]
	add	x1, sp, 64
	mov	x0, x20
	stp	x3, x2, [sp, 80]
.LEHB13:
	blr	x4
.LEHE13:
	ldrb	w1, [sp, 126]
	ldrh	w0, [sp, 56]
	cbz	w1, .L265
	ldr	x1, [sp, 136]
	ldrh	w2, [sp, 124]
	strh	w2, [x1]
.L265:
	adrp	x1, :got:__stack_chk_guard
	ldr	x1, [x1, #:got_lo12:__stack_chk_guard]
	ldr	x3, [sp, 152]
	ldr	x2, [x1]
	subs	x3, x3, x2
	mov	x2, 0
	bne	.L279
	ldp	x19, x20, [sp, 16]
	ldr	x21, [sp, 32]
	ldp	x29, x30, [sp], 160
	.cfi_remember_state
	.cfi_restore 30
	.cfi_restore 29
	.cfi_restore 21
	.cfi_restore 19
	.cfi_restore 20
	.cfi_def_cfa_offset 0
	ret
	.p2align 2,,3
.L278:
	.cfi_restore_state
	ldr	x0, [x21]
	adrp	x2, :got:_ZN8opendnp311Group41Var410ReadTargetERN7openpal6RSliceERNS_20AnalogOutputDouble64E
	adrp	x1, :got:_ZN8opendnp311Group41Var411WriteTargetERKNS_20AnalogOutputDouble64ERN7openpal6WSliceE
	mov	w7, 9
	ldr	x2, [x2, #:got_lo12:_ZN8opendnp311Group41Var410ReadTargetERN7openpal6RSliceERNS_20AnalogOutputDouble64E]
	mov	w6, 11
	ldr	w3, [x0]
	ldr	x1, [x1, #:got_lo12:_ZN8opendnp311Group41Var411WriteTargetERKNS_20AnalogOutputDouble64ERN7openpal6WSliceE]
	cmp	w3, 1
	ldp	x4, x5, [x0]
	cset	w3, hi
	str	w7, [sp, 96]
	stp	x2, x1, [sp, 104]
	str	w6, [sp, 120]
	strh	wzr, [sp, 124]
	strb	w3, [sp, 126]
	stp	x4, x5, [sp, 128]
	str	x0, [sp, 144]
	bls	.L263
	mov	w1, 2
.LEHB14:
	bl	_ZN7openpal6WSlice7AdvanceEj
	b	.L263
	.p2align 2,,3
.L261:
	ldr	x1, [x20]
	adrp	x0, :got:_ZTVN8opendnp314FunctorVisitorINS_7IndexedINS_20AnalogOutputDouble64EEEZNS_22CommandResponseHandler27RespondToHeaderWithIteratorIS2_N7openpal7Bit16LEItEEEENS_8IINFieldENS_13QualifierCodeERKNS_14DNP3SerializerIT_EERKNS_11ICollectionINS1_ISC_EEEEPNS_21PrefixedWriteIteratorIT0_SC_EEEUlRKS3_E_EE
	strh	wzr, [sp, 64]
	add	x2, sp, 64
	ldr	x0, [x0, #:got_lo12:_ZTVN8opendnp314FunctorVisitorINS_7IndexedINS_20AnalogOutputDouble64EEEZNS_22CommandResponseHandler27RespondToHeaderWithIteratorIS2_N7openpal7Bit16LEItEEEENS_8IINFieldENS_13QualifierCodeERKNS_14DNP3SerializerIT_EERKNS_11ICollectionINS1_ISC_EEEEPNS_21PrefixedWriteIteratorIT0_SC_EEEUlRKS3_E_EE]
	ldr	x3, [x1, 8]
	add	x0, x0, 16
	stp	x0, x19, [sp, 96]
	add	x1, sp, 96
	mov	x0, x20
	stp	xzr, x2, [sp, 112]
	blr	x3
	ldrh	w0, [sp, 64]
	b	.L265
.L279:
	bl	__stack_chk_fail
.L269:
	ldrb	w1, [sp, 126]
	cbz	w1, .L267
	ldr	x1, [sp, 136]
	ldrh	w2, [sp, 124]
	strh	w2, [x1]
.L267:
	bl	_Unwind_Resume
.LEHE14:
	.cfi_endproc
.LFE2480:
	.section	.gcc_except_table
.LLSDA2480:
	.byte	0xff
	.byte	0xff
	.byte	0x1
	.uleb128 .LLSDACSE2480-.LLSDACSB2480
.LLSDACSB2480:
	.uleb128 .LEHB12-.LFB2480
	.uleb128 .LEHE12-.LEHB12
	.uleb128 0
	.uleb128 0
	.uleb128 .LEHB13-.LFB2480
	.uleb128 .LEHE13-.LEHB13
	.uleb128 .L269-.LFB2480
	.uleb128 0
	.uleb128 .LEHB14-.LFB2480
	.uleb128 .LEHE14-.LEHB14
	.uleb128 0
	.uleb128 0
.LLSDACSE2480:
	.text
	.size	_ZN8opendnp322CommandResponseHandler25ProcessIndexPrefixTwoByteERKNS_12HeaderRecordERKNS_11ICollectionINS_7IndexedINS_20AnalogOutputDouble64EEEEE, .-_ZN8opendnp322CommandResponseHandler25ProcessIndexPrefixTwoByteERKNS_12HeaderRecordERKNS_11ICollectionINS_7IndexedINS_20AnalogOutputDouble64EEEEE
	.align	2
	.p2align 4,,11
	.global	_ZN8opendnp322CommandResponseHandler25ProcessIndexPrefixOneByteERKNS_12HeaderRecordERKNS_11ICollectionINS_7IndexedINS_23ControlRelayOutputBlockEEEEE
	.type	_ZN8opendnp322CommandResponseHandler25ProcessIndexPrefixOneByteERKNS_12HeaderRecordERKNS_11ICollectionINS_7IndexedINS_23ControlRelayOutputBlockEEEEE, %function
_ZN8opendnp322CommandResponseHandler25ProcessIndexPrefixOneByteERKNS_12HeaderRecordERKNS_11ICollectionINS_7IndexedINS_23ControlRelayOutputBlockEEEEE:
.LFB2481:
	.cfi_startproc
	.cfi_personality 0x9b,DW.ref.__gxx_personality_v0
	.cfi_lsda 0x1b,.LLSDA2481
	stp	x29, x30, [sp, -160]!
	.cfi_def_cfa_offset 160
	.cfi_offset 29, -160
	.cfi_offset 30, -152
	adrp	x1, :got:__stack_chk_guard
	mov	x29, sp
	ldr	x1, [x1, #:got_lo12:__stack_chk_guard]
	stp	x19, x20, [sp, 16]
	.cfi_offset 19, -144
	.cfi_offset 20, -136
	mov	x19, x0
	str	x21, [sp, 32]
	.cfi_offset 21, -128
	mov	x20, x2
	ldr	x21, [x0, 48]
	ldr	x0, [x1]
	str	x0, [sp, 152]
	mov	x0, 0
	cbz	x21, .L281
	mov	x0, x21
	mov	w3, 13
	mov	w2, 23
	mov	w1, 268
.LEHB15:
	bl	_ZN8opendnp312HeaderWriter22WriteHeaderWithReserveENS_16GroupVariationIDENS_13QualifierCodeEj
	tst	w0, 255
	bne	.L301
	add	x0, sp, 128
	str	wzr, [sp, 96]
	stp	xzr, xzr, [sp, 104]
	str	wzr, [sp, 120]
	strh	wzr, [sp, 124]
	bl	_ZN7openpal6WSliceC1Ev
.LEHE15:
	str	xzr, [sp, 144]
.L283:
	ldr	x1, [x20]
	adrp	x0, :got:_ZTVN8opendnp314FunctorVisitorINS_7IndexedINS_23ControlRelayOutputBlockEEEZNS_22CommandResponseHandler27RespondToHeaderWithIteratorIS2_N7openpal11UInt8SimpleEEENS_8IINFieldENS_13QualifierCodeERKNS_14DNP3SerializerIT_EERKNS_11ICollectionINS1_ISB_EEEEPNS_21PrefixedWriteIteratorIT0_SB_EEEUlRKS3_E_EE
	add	x3, sp, 96
	add	x2, sp, 56
	ldr	x0, [x0, #:got_lo12:_ZTVN8opendnp314FunctorVisitorINS_7IndexedINS_23ControlRelayOutputBlockEEEZNS_22CommandResponseHandler27RespondToHeaderWithIteratorIS2_N7openpal11UInt8SimpleEEENS_8IINFieldENS_13QualifierCodeERKNS_14DNP3SerializerIT_EERKNS_11ICollectionINS1_ISB_EEEEPNS_21PrefixedWriteIteratorIT0_SB_EEEUlRKS3_E_EE]
	strh	wzr, [sp, 56]
	ldr	x4, [x1, 8]
	add	x0, x0, 16
	stp	x0, x19, [sp, 64]
	add	x1, sp, 64
	mov	x0, x20
	stp	x3, x2, [sp, 80]
.LEHB16:
	blr	x4
.LEHE16:
	ldrb	w1, [sp, 125]
	ldrh	w0, [sp, 56]
	cbz	w1, .L285
	ldr	x1, [sp, 136]
	ldrb	w2, [sp, 124]
	strb	w2, [x1]
.L285:
	adrp	x1, :got:__stack_chk_guard
	ldr	x1, [x1, #:got_lo12:__stack_chk_guard]
	ldr	x3, [sp, 152]
	ldr	x2, [x1]
	subs	x3, x3, x2
	mov	x2, 0
	bne	.L302
	ldp	x19, x20, [sp, 16]
	ldr	x21, [sp, 32]
	ldp	x29, x30, [sp], 160
	.cfi_remember_state
	.cfi_restore 30
	.cfi_restore 29
	.cfi_restore 21
	.cfi_restore 19
	.cfi_restore 20
	.cfi_def_cfa_offset 0
	ret
	.p2align 2,,3
.L301:
	.cfi_restore_state
	ldr	x0, [x21]
	strb	wzr, [sp, 124]
	adrp	x2, :got:_ZN8opendnp311Group12Var110ReadTargetERN7openpal6RSliceERNS_23ControlRelayOutputBlockE
	adrp	x1, :got:_ZN8opendnp311Group12Var111WriteTargetERKNS_23ControlRelayOutputBlockERN7openpal6WSliceE
	mov	w7, 11
	mov	w6, 12
	ldr	w3, [x0]
	ldr	x2, [x2, #:got_lo12:_ZN8opendnp311Group12Var110ReadTargetERN7openpal6RSliceERNS_23ControlRelayOutputBlockE]
	cmp	w3, 0
	ldr	x1, [x1, #:got_lo12:_ZN8opendnp311Group12Var111WriteTargetERKNS_23ControlRelayOutputBlockERN7openpal6WSliceE]
	cset	w3, ne
	ldp	x4, x5, [x0]
	str	w7, [sp, 96]
	stp	x2, x1, [sp, 104]
	str	w6, [sp, 120]
	strb	w3, [sp, 125]
	stp	x4, x5, [sp, 128]
	str	x0, [sp, 144]
	beq	.L283
	mov	w1, 1
.LEHB17:
	bl	_ZN7openpal6WSlice7AdvanceEj
	b	.L283
	.p2align 2,,3
.L281:
	ldr	x1, [x20]
	adrp	x0, :got:_ZTVN8opendnp314FunctorVisitorINS_7IndexedINS_23ControlRelayOutputBlockEEEZNS_22CommandResponseHandler27RespondToHeaderWithIteratorIS2_N7openpal11UInt8SimpleEEENS_8IINFieldENS_13QualifierCodeERKNS_14DNP3SerializerIT_EERKNS_11ICollectionINS1_ISB_EEEEPNS_21PrefixedWriteIteratorIT0_SB_EEEUlRKS3_E_EE
	strh	wzr, [sp, 64]
	add	x2, sp, 64
	ldr	x0, [x0, #:got_lo12:_ZTVN8opendnp314FunctorVisitorINS_7IndexedINS_23ControlRelayOutputBlockEEEZNS_22CommandResponseHandler27RespondToHeaderWithIteratorIS2_N7openpal11UInt8SimpleEEENS_8IINFieldENS_13QualifierCodeERKNS_14DNP3SerializerIT_EERKNS_11ICollectionINS1_ISB_EEEEPNS_21PrefixedWriteIteratorIT0_SB_EEEUlRKS3_E_EE]
	ldr	x3, [x1, 8]
	add	x0, x0, 16
	stp	x0, x19, [sp, 96]
	add	x1, sp, 96
	mov	x0, x20
	stp	xzr, x2, [sp, 112]
	blr	x3
	ldrh	w0, [sp, 64]
	b	.L285
.L302:
	bl	__stack_chk_fail
.L289:
	ldrb	w1, [sp, 125]
	cbz	w1, .L287
	ldr	x1, [sp, 136]
	ldrb	w2, [sp, 124]
	strb	w2, [x1]
.L287:
	bl	_Unwind_Resume
.LEHE17:
	.cfi_endproc
.LFE2481:
	.section	.gcc_except_table
.LLSDA2481:
	.byte	0xff
	.byte	0xff
	.byte	0x1
	.uleb128 .LLSDACSE2481-.LLSDACSB2481
.LLSDACSB2481:
	.uleb128 .LEHB15-.LFB2481
	.uleb128 .LEHE15-.LEHB15
	.uleb128 0
	.uleb128 0
	.uleb128 .LEHB16-.LFB2481
	.uleb128 .LEHE16-.LEHB16
	.uleb128 .L289-.LFB2481
	.uleb128 0
	.uleb128 .LEHB17-.LFB2481
	.uleb128 .LEHE17-.LEHB17
	.uleb128 0
	.uleb128 0
.LLSDACSE2481:
	.text
	.size	_ZN8opendnp322CommandResponseHandler25ProcessIndexPrefixOneByteERKNS_12HeaderRecordERKNS_11ICollectionINS_7IndexedINS_23ControlRelayOutputBlockEEEEE, .-_ZN8opendnp322CommandResponseHandler25ProcessIndexPrefixOneByteERKNS_12HeaderRecordERKNS_11ICollectionINS_7IndexedINS_23ControlRelayOutputBlockEEEEE
	.align	2
	.p2align 4,,11
	.global	_ZN8opendnp322CommandResponseHandler13ProcessHeaderERKNS_12PrefixHeaderERKNS_11ICollectionINS_7IndexedINS_23ControlRelayOutputBlockEEEEE
	.type	_ZN8opendnp322CommandResponseHandler13ProcessHeaderERKNS_12PrefixHeaderERKNS_11ICollectionINS_7IndexedINS_23ControlRelayOutputBlockEEEEE, %function
_ZN8opendnp322CommandResponseHandler13ProcessHeaderERKNS_12PrefixHeaderERKNS_11ICollectionINS_7IndexedINS_23ControlRelayOutputBlockEEEEE:
.LFB2471:
	.cfi_startproc
	stp	x29, x30, [sp, -48]!
	.cfi_def_cfa_offset 48
	.cfi_offset 29, -48
	.cfi_offset 30, -40
	mov	x29, sp
	stp	x19, x20, [sp, 16]
	.cfi_offset 19, -32
	.cfi_offset 20, -24
	mov	x19, x1
	mov	x20, x0
	mov	x0, x1
	str	x21, [sp, 32]
	.cfi_offset 21, -16
	mov	x21, x2
	bl	_ZNK8opendnp312HeaderRecord16GetQualifierCodeEv
	and	w0, w0, 255
	mov	x2, x21
	cmp	w0, 23
	mov	x1, x19
	mov	x0, x20
	beq	.L306
	ldp	x19, x20, [sp, 16]
	ldr	x21, [sp, 32]
	ldp	x29, x30, [sp], 48
	.cfi_remember_state
	.cfi_restore 30
	.cfi_restore 29
	.cfi_restore 21
	.cfi_restore 19
	.cfi_restore 20
	.cfi_def_cfa_offset 0
	b	_ZN8opendnp322CommandResponseHandler25ProcessIndexPrefixTwoByteERKNS_12HeaderRecordERKNS_11ICollectionINS_7IndexedINS_23ControlRelayOutputBlockEEEEE
	.p2align 2,,3
.L306:
	.cfi_restore_state
	ldp	x19, x20, [sp, 16]
	ldr	x21, [sp, 32]
	ldp	x29, x30, [sp], 48
	.cfi_restore 30
	.cfi_restore 29
	.cfi_restore 21
	.cfi_restore 19
	.cfi_restore 20
	.cfi_def_cfa_offset 0
	b	_ZN8opendnp322CommandResponseHandler25ProcessIndexPrefixOneByteERKNS_12HeaderRecordERKNS_11ICollectionINS_7IndexedINS_23ControlRelayOutputBlockEEEEE
	.cfi_endproc
.LFE2471:
	.size	_ZN8opendnp322CommandResponseHandler13ProcessHeaderERKNS_12PrefixHeaderERKNS_11ICollectionINS_7IndexedINS_23ControlRelayOutputBlockEEEEE, .-_ZN8opendnp322CommandResponseHandler13ProcessHeaderERKNS_12PrefixHeaderERKNS_11ICollectionINS_7IndexedINS_23ControlRelayOutputBlockEEEEE
	.align	2
	.p2align 4,,11
	.global	_ZN8opendnp322CommandResponseHandler25ProcessIndexPrefixOneByteERKNS_12HeaderRecordERKNS_11ICollectionINS_7IndexedINS_17AnalogOutputInt16EEEEE
	.type	_ZN8opendnp322CommandResponseHandler25ProcessIndexPrefixOneByteERKNS_12HeaderRecordERKNS_11ICollectionINS_7IndexedINS_17AnalogOutputInt16EEEEE, %function
_ZN8opendnp322CommandResponseHandler25ProcessIndexPrefixOneByteERKNS_12HeaderRecordERKNS_11ICollectionINS_7IndexedINS_17AnalogOutputInt16EEEEE:
.LFB2482:
	.cfi_startproc
	.cfi_personality 0x9b,DW.ref.__gxx_personality_v0
	.cfi_lsda 0x1b,.LLSDA2482
	stp	x29, x30, [sp, -160]!
	.cfi_def_cfa_offset 160
	.cfi_offset 29, -160
	.cfi_offset 30, -152
	adrp	x1, :got:__stack_chk_guard
	mov	x29, sp
	ldr	x1, [x1, #:got_lo12:__stack_chk_guard]
	stp	x19, x20, [sp, 16]
	.cfi_offset 19, -144
	.cfi_offset 20, -136
	mov	x19, x0
	str	x21, [sp, 32]
	.cfi_offset 21, -128
	mov	x20, x2
	ldr	x21, [x0, 48]
	ldr	x0, [x1]
	str	x0, [sp, 152]
	mov	x0, 0
	cbz	x21, .L308
	mov	x0, x21
	mov	w3, 5
	mov	w2, 23
	mov	w1, 553
.LEHB18:
	bl	_ZN8opendnp312HeaderWriter22WriteHeaderWithReserveENS_16GroupVariationIDENS_13QualifierCodeEj
	tst	w0, 255
	bne	.L328
	add	x0, sp, 128
	str	wzr, [sp, 96]
	stp	xzr, xzr, [sp, 104]
	str	wzr, [sp, 120]
	strh	wzr, [sp, 124]
	bl	_ZN7openpal6WSliceC1Ev
.LEHE18:
	str	xzr, [sp, 144]
.L310:
	ldr	x1, [x20]
	adrp	x0, :got:_ZTVN8opendnp314FunctorVisitorINS_7IndexedINS_17AnalogOutputInt16EEEZNS_22CommandResponseHandler27RespondToHeaderWithIteratorIS2_N7openpal11UInt8SimpleEEENS_8IINFieldENS_13QualifierCodeERKNS_14DNP3SerializerIT_EERKNS_11ICollectionINS1_ISB_EEEEPNS_21PrefixedWriteIteratorIT0_SB_EEEUlRKS3_E_EE
	add	x3, sp, 96
	add	x2, sp, 56
	ldr	x0, [x0, #:got_lo12:_ZTVN8opendnp314FunctorVisitorINS_7IndexedINS_17AnalogOutputInt16EEEZNS_22CommandResponseHandler27RespondToHeaderWithIteratorIS2_N7openpal11UInt8SimpleEEENS_8IINFieldENS_13QualifierCodeERKNS_14DNP3SerializerIT_EERKNS_11ICollectionINS1_ISB_EEEEPNS_21PrefixedWriteIteratorIT0_SB_EEEUlRKS3_E_EE]
	strh	wzr, [sp, 56]
	ldr	x4, [x1, 8]
	add	x0, x0, 16
	stp	x0, x19, [sp, 64]
	add	x1, sp, 64
	mov	x0, x20
	stp	x3, x2, [sp, 80]
.LEHB19:
	blr	x4
.LEHE19:
	ldrb	w1, [sp, 125]
	ldrh	w0, [sp, 56]
	cbz	w1, .L312
	ldr	x1, [sp, 136]
	ldrb	w2, [sp, 124]
	strb	w2, [x1]
.L312:
	adrp	x1, :got:__stack_chk_guard
	ldr	x1, [x1, #:got_lo12:__stack_chk_guard]
	ldr	x3, [sp, 152]
	ldr	x2, [x1]
	subs	x3, x3, x2
	mov	x2, 0
	bne	.L329
	ldp	x19, x20, [sp, 16]
	ldr	x21, [sp, 32]
	ldp	x29, x30, [sp], 160
	.cfi_remember_state
	.cfi_restore 30
	.cfi_restore 29
	.cfi_restore 21
	.cfi_restore 19
	.cfi_restore 20
	.cfi_def_cfa_offset 0
	ret
	.p2align 2,,3
.L328:
	.cfi_restore_state
	ldr	x0, [x21]
	strb	wzr, [sp, 124]
	adrp	x2, :got:_ZN8opendnp311Group41Var210ReadTargetERN7openpal6RSliceERNS_17AnalogOutputInt16E
	adrp	x1, :got:_ZN8opendnp311Group41Var211WriteTargetERKNS_17AnalogOutputInt16ERN7openpal6WSliceE
	mov	w7, 3
	mov	w6, 4
	ldr	w3, [x0]
	ldr	x2, [x2, #:got_lo12:_ZN8opendnp311Group41Var210ReadTargetERN7openpal6RSliceERNS_17AnalogOutputInt16E]
	cmp	w3, 0
	ldr	x1, [x1, #:got_lo12:_ZN8opendnp311Group41Var211WriteTargetERKNS_17AnalogOutputInt16ERN7openpal6WSliceE]
	cset	w3, ne
	ldp	x4, x5, [x0]
	str	w7, [sp, 96]
	stp	x2, x1, [sp, 104]
	str	w6, [sp, 120]
	strb	w3, [sp, 125]
	stp	x4, x5, [sp, 128]
	str	x0, [sp, 144]
	beq	.L310
	mov	w1, 1
.LEHB20:
	bl	_ZN7openpal6WSlice7AdvanceEj
	b	.L310
	.p2align 2,,3
.L308:
	ldr	x1, [x20]
	adrp	x0, :got:_ZTVN8opendnp314FunctorVisitorINS_7IndexedINS_17AnalogOutputInt16EEEZNS_22CommandResponseHandler27RespondToHeaderWithIteratorIS2_N7openpal11UInt8SimpleEEENS_8IINFieldENS_13QualifierCodeERKNS_14DNP3SerializerIT_EERKNS_11ICollectionINS1_ISB_EEEEPNS_21PrefixedWriteIteratorIT0_SB_EEEUlRKS3_E_EE
	strh	wzr, [sp, 64]
	add	x2, sp, 64
	ldr	x0, [x0, #:got_lo12:_ZTVN8opendnp314FunctorVisitorINS_7IndexedINS_17AnalogOutputInt16EEEZNS_22CommandResponseHandler27RespondToHeaderWithIteratorIS2_N7openpal11UInt8SimpleEEENS_8IINFieldENS_13QualifierCodeERKNS_14DNP3SerializerIT_EERKNS_11ICollectionINS1_ISB_EEEEPNS_21PrefixedWriteIteratorIT0_SB_EEEUlRKS3_E_EE]
	ldr	x3, [x1, 8]
	add	x0, x0, 16
	stp	x0, x19, [sp, 96]
	add	x1, sp, 96
	mov	x0, x20
	stp	xzr, x2, [sp, 112]
	blr	x3
	ldrh	w0, [sp, 64]
	b	.L312
.L329:
	bl	__stack_chk_fail
.L316:
	ldrb	w1, [sp, 125]
	cbz	w1, .L314
	ldr	x1, [sp, 136]
	ldrb	w2, [sp, 124]
	strb	w2, [x1]
.L314:
	bl	_Unwind_Resume
.LEHE20:
	.cfi_endproc
.LFE2482:
	.section	.gcc_except_table
.LLSDA2482:
	.byte	0xff
	.byte	0xff
	.byte	0x1
	.uleb128 .LLSDACSE2482-.LLSDACSB2482
.LLSDACSB2482:
	.uleb128 .LEHB18-.LFB2482
	.uleb128 .LEHE18-.LEHB18
	.uleb128 0
	.uleb128 0
	.uleb128 .LEHB19-.LFB2482
	.uleb128 .LEHE19-.LEHB19
	.uleb128 .L316-.LFB2482
	.uleb128 0
	.uleb128 .LEHB20-.LFB2482
	.uleb128 .LEHE20-.LEHB20
	.uleb128 0
	.uleb128 0
.LLSDACSE2482:
	.text
	.size	_ZN8opendnp322CommandResponseHandler25ProcessIndexPrefixOneByteERKNS_12HeaderRecordERKNS_11ICollectionINS_7IndexedINS_17AnalogOutputInt16EEEEE, .-_ZN8opendnp322CommandResponseHandler25ProcessIndexPrefixOneByteERKNS_12HeaderRecordERKNS_11ICollectionINS_7IndexedINS_17AnalogOutputInt16EEEEE
	.align	2
	.p2align 4,,11
	.global	_ZN8opendnp322CommandResponseHandler13ProcessHeaderERKNS_12PrefixHeaderERKNS_11ICollectionINS_7IndexedINS_17AnalogOutputInt16EEEEE
	.type	_ZN8opendnp322CommandResponseHandler13ProcessHeaderERKNS_12PrefixHeaderERKNS_11ICollectionINS_7IndexedINS_17AnalogOutputInt16EEEEE, %function
_ZN8opendnp322CommandResponseHandler13ProcessHeaderERKNS_12PrefixHeaderERKNS_11ICollectionINS_7IndexedINS_17AnalogOutputInt16EEEEE:
.LFB2472:
	.cfi_startproc
	stp	x29, x30, [sp, -48]!
	.cfi_def_cfa_offset 48
	.cfi_offset 29, -48
	.cfi_offset 30, -40
	mov	x29, sp
	stp	x19, x20, [sp, 16]
	.cfi_offset 19, -32
	.cfi_offset 20, -24
	mov	x19, x1
	mov	x20, x0
	mov	x0, x1
	str	x21, [sp, 32]
	.cfi_offset 21, -16
	mov	x21, x2
	bl	_ZNK8opendnp312HeaderRecord16GetQualifierCodeEv
	and	w0, w0, 255
	mov	x2, x21
	cmp	w0, 23
	mov	x1, x19
	mov	x0, x20
	beq	.L333
	ldp	x19, x20, [sp, 16]
	ldr	x21, [sp, 32]
	ldp	x29, x30, [sp], 48
	.cfi_remember_state
	.cfi_restore 30
	.cfi_restore 29
	.cfi_restore 21
	.cfi_restore 19
	.cfi_restore 20
	.cfi_def_cfa_offset 0
	b	_ZN8opendnp322CommandResponseHandler25ProcessIndexPrefixTwoByteERKNS_12HeaderRecordERKNS_11ICollectionINS_7IndexedINS_17AnalogOutputInt16EEEEE
	.p2align 2,,3
.L333:
	.cfi_restore_state
	ldp	x19, x20, [sp, 16]
	ldr	x21, [sp, 32]
	ldp	x29, x30, [sp], 48
	.cfi_restore 30
	.cfi_restore 29
	.cfi_restore 21
	.cfi_restore 19
	.cfi_restore 20
	.cfi_def_cfa_offset 0
	b	_ZN8opendnp322CommandResponseHandler25ProcessIndexPrefixOneByteERKNS_12HeaderRecordERKNS_11ICollectionINS_7IndexedINS_17AnalogOutputInt16EEEEE
	.cfi_endproc
.LFE2472:
	.size	_ZN8opendnp322CommandResponseHandler13ProcessHeaderERKNS_12PrefixHeaderERKNS_11ICollectionINS_7IndexedINS_17AnalogOutputInt16EEEEE, .-_ZN8opendnp322CommandResponseHandler13ProcessHeaderERKNS_12PrefixHeaderERKNS_11ICollectionINS_7IndexedINS_17AnalogOutputInt16EEEEE
	.align	2
	.p2align 4,,11
	.global	_ZN8opendnp322CommandResponseHandler25ProcessIndexPrefixOneByteERKNS_12HeaderRecordERKNS_11ICollectionINS_7IndexedINS_17AnalogOutputInt32EEEEE
	.type	_ZN8opendnp322CommandResponseHandler25ProcessIndexPrefixOneByteERKNS_12HeaderRecordERKNS_11ICollectionINS_7IndexedINS_17AnalogOutputInt32EEEEE, %function
_ZN8opendnp322CommandResponseHandler25ProcessIndexPrefixOneByteERKNS_12HeaderRecordERKNS_11ICollectionINS_7IndexedINS_17AnalogOutputInt32EEEEE:
.LFB2483:
	.cfi_startproc
	.cfi_personality 0x9b,DW.ref.__gxx_personality_v0
	.cfi_lsda 0x1b,.LLSDA2483
	stp	x29, x30, [sp, -160]!
	.cfi_def_cfa_offset 160
	.cfi_offset 29, -160
	.cfi_offset 30, -152
	adrp	x1, :got:__stack_chk_guard
	mov	x29, sp
	ldr	x1, [x1, #:got_lo12:__stack_chk_guard]
	stp	x19, x20, [sp, 16]
	.cfi_offset 19, -144
	.cfi_offset 20, -136
	mov	x19, x0
	str	x21, [sp, 32]
	.cfi_offset 21, -128
	mov	x20, x2
	ldr	x21, [x0, 48]
	ldr	x0, [x1]
	str	x0, [sp, 152]
	mov	x0, 0
	cbz	x21, .L335
	mov	x0, x21
	mov	w3, 7
	mov	w2, 23
	mov	w1, 297
.LEHB21:
	bl	_ZN8opendnp312HeaderWriter22WriteHeaderWithReserveENS_16GroupVariationIDENS_13QualifierCodeEj
	tst	w0, 255
	bne	.L355
	add	x0, sp, 128
	str	wzr, [sp, 96]
	stp	xzr, xzr, [sp, 104]
	str	wzr, [sp, 120]
	strh	wzr, [sp, 124]
	bl	_ZN7openpal6WSliceC1Ev
.LEHE21:
	str	xzr, [sp, 144]
.L337:
	ldr	x1, [x20]
	adrp	x0, :got:_ZTVN8opendnp314FunctorVisitorINS_7IndexedINS_17AnalogOutputInt32EEEZNS_22CommandResponseHandler27RespondToHeaderWithIteratorIS2_N7openpal11UInt8SimpleEEENS_8IINFieldENS_13QualifierCodeERKNS_14DNP3SerializerIT_EERKNS_11ICollectionINS1_ISB_EEEEPNS_21PrefixedWriteIteratorIT0_SB_EEEUlRKS3_E_EE
	add	x3, sp, 96
	add	x2, sp, 56
	ldr	x0, [x0, #:got_lo12:_ZTVN8opendnp314FunctorVisitorINS_7IndexedINS_17AnalogOutputInt32EEEZNS_22CommandResponseHandler27RespondToHeaderWithIteratorIS2_N7openpal11UInt8SimpleEEENS_8IINFieldENS_13QualifierCodeERKNS_14DNP3SerializerIT_EERKNS_11ICollectionINS1_ISB_EEEEPNS_21PrefixedWriteIteratorIT0_SB_EEEUlRKS3_E_EE]
	strh	wzr, [sp, 56]
	ldr	x4, [x1, 8]
	add	x0, x0, 16
	stp	x0, x19, [sp, 64]
	add	x1, sp, 64
	mov	x0, x20
	stp	x3, x2, [sp, 80]
.LEHB22:
	blr	x4
.LEHE22:
	ldrb	w1, [sp, 125]
	ldrh	w0, [sp, 56]
	cbz	w1, .L339
	ldr	x1, [sp, 136]
	ldrb	w2, [sp, 124]
	strb	w2, [x1]
.L339:
	adrp	x1, :got:__stack_chk_guard
	ldr	x1, [x1, #:got_lo12:__stack_chk_guard]
	ldr	x3, [sp, 152]
	ldr	x2, [x1]
	subs	x3, x3, x2
	mov	x2, 0
	bne	.L356
	ldp	x19, x20, [sp, 16]
	ldr	x21, [sp, 32]
	ldp	x29, x30, [sp], 160
	.cfi_remember_state
	.cfi_restore 30
	.cfi_restore 29
	.cfi_restore 21
	.cfi_restore 19
	.cfi_restore 20
	.cfi_def_cfa_offset 0
	ret
	.p2align 2,,3
.L355:
	.cfi_restore_state
	ldr	x0, [x21]
	strb	wzr, [sp, 124]
	adrp	x2, :got:_ZN8opendnp311Group41Var110ReadTargetERN7openpal6RSliceERNS_17AnalogOutputInt32E
	adrp	x1, :got:_ZN8opendnp311Group41Var111WriteTargetERKNS_17AnalogOutputInt32ERN7openpal6WSliceE
	mov	w7, 5
	mov	w6, 6
	ldr	w3, [x0]
	ldr	x2, [x2, #:got_lo12:_ZN8opendnp311Group41Var110ReadTargetERN7openpal6RSliceERNS_17AnalogOutputInt32E]
	cmp	w3, 0
	ldr	x1, [x1, #:got_lo12:_ZN8opendnp311Group41Var111WriteTargetERKNS_17AnalogOutputInt32ERN7openpal6WSliceE]
	cset	w3, ne
	ldp	x4, x5, [x0]
	str	w7, [sp, 96]
	stp	x2, x1, [sp, 104]
	str	w6, [sp, 120]
	strb	w3, [sp, 125]
	stp	x4, x5, [sp, 128]
	str	x0, [sp, 144]
	beq	.L337
	mov	w1, 1
.LEHB23:
	bl	_ZN7openpal6WSlice7AdvanceEj
	b	.L337
	.p2align 2,,3
.L335:
	ldr	x1, [x20]
	adrp	x0, :got:_ZTVN8opendnp314FunctorVisitorINS_7IndexedINS_17AnalogOutputInt32EEEZNS_22CommandResponseHandler27RespondToHeaderWithIteratorIS2_N7openpal11UInt8SimpleEEENS_8IINFieldENS_13QualifierCodeERKNS_14DNP3SerializerIT_EERKNS_11ICollectionINS1_ISB_EEEEPNS_21PrefixedWriteIteratorIT0_SB_EEEUlRKS3_E_EE
	strh	wzr, [sp, 64]
	add	x2, sp, 64
	ldr	x0, [x0, #:got_lo12:_ZTVN8opendnp314FunctorVisitorINS_7IndexedINS_17AnalogOutputInt32EEEZNS_22CommandResponseHandler27RespondToHeaderWithIteratorIS2_N7openpal11UInt8SimpleEEENS_8IINFieldENS_13QualifierCodeERKNS_14DNP3SerializerIT_EERKNS_11ICollectionINS1_ISB_EEEEPNS_21PrefixedWriteIteratorIT0_SB_EEEUlRKS3_E_EE]
	ldr	x3, [x1, 8]
	add	x0, x0, 16
	stp	x0, x19, [sp, 96]
	add	x1, sp, 96
	mov	x0, x20
	stp	xzr, x2, [sp, 112]
	blr	x3
	ldrh	w0, [sp, 64]
	b	.L339
.L356:
	bl	__stack_chk_fail
.L343:
	ldrb	w1, [sp, 125]
	cbz	w1, .L341
	ldr	x1, [sp, 136]
	ldrb	w2, [sp, 124]
	strb	w2, [x1]
.L341:
	bl	_Unwind_Resume
.LEHE23:
	.cfi_endproc
.LFE2483:
	.section	.gcc_except_table
.LLSDA2483:
	.byte	0xff
	.byte	0xff
	.byte	0x1
	.uleb128 .LLSDACSE2483-.LLSDACSB2483
.LLSDACSB2483:
	.uleb128 .LEHB21-.LFB2483
	.uleb128 .LEHE21-.LEHB21
	.uleb128 0
	.uleb128 0
	.uleb128 .LEHB22-.LFB2483
	.uleb128 .LEHE22-.LEHB22
	.uleb128 .L343-.LFB2483
	.uleb128 0
	.uleb128 .LEHB23-.LFB2483
	.uleb128 .LEHE23-.LEHB23
	.uleb128 0
	.uleb128 0
.LLSDACSE2483:
	.text
	.size	_ZN8opendnp322CommandResponseHandler25ProcessIndexPrefixOneByteERKNS_12HeaderRecordERKNS_11ICollectionINS_7IndexedINS_17AnalogOutputInt32EEEEE, .-_ZN8opendnp322CommandResponseHandler25ProcessIndexPrefixOneByteERKNS_12HeaderRecordERKNS_11ICollectionINS_7IndexedINS_17AnalogOutputInt32EEEEE
	.align	2
	.p2align 4,,11
	.global	_ZN8opendnp322CommandResponseHandler13ProcessHeaderERKNS_12PrefixHeaderERKNS_11ICollectionINS_7IndexedINS_17AnalogOutputInt32EEEEE
	.type	_ZN8opendnp322CommandResponseHandler13ProcessHeaderERKNS_12PrefixHeaderERKNS_11ICollectionINS_7IndexedINS_17AnalogOutputInt32EEEEE, %function
_ZN8opendnp322CommandResponseHandler13ProcessHeaderERKNS_12PrefixHeaderERKNS_11ICollectionINS_7IndexedINS_17AnalogOutputInt32EEEEE:
.LFB2473:
	.cfi_startproc
	stp	x29, x30, [sp, -48]!
	.cfi_def_cfa_offset 48
	.cfi_offset 29, -48
	.cfi_offset 30, -40
	mov	x29, sp
	stp	x19, x20, [sp, 16]
	.cfi_offset 19, -32
	.cfi_offset 20, -24
	mov	x19, x1
	mov	x20, x0
	mov	x0, x1
	str	x21, [sp, 32]
	.cfi_offset 21, -16
	mov	x21, x2
	bl	_ZNK8opendnp312HeaderRecord16GetQualifierCodeEv
	and	w0, w0, 255
	mov	x2, x21
	cmp	w0, 23
	mov	x1, x19
	mov	x0, x20
	beq	.L360
	ldp	x19, x20, [sp, 16]
	ldr	x21, [sp, 32]
	ldp	x29, x30, [sp], 48
	.cfi_remember_state
	.cfi_restore 30
	.cfi_restore 29
	.cfi_restore 21
	.cfi_restore 19
	.cfi_restore 20
	.cfi_def_cfa_offset 0
	b	_ZN8opendnp322CommandResponseHandler25ProcessIndexPrefixTwoByteERKNS_12HeaderRecordERKNS_11ICollectionINS_7IndexedINS_17AnalogOutputInt32EEEEE
	.p2align 2,,3
.L360:
	.cfi_restore_state
	ldp	x19, x20, [sp, 16]
	ldr	x21, [sp, 32]
	ldp	x29, x30, [sp], 48
	.cfi_restore 30
	.cfi_restore 29
	.cfi_restore 21
	.cfi_restore 19
	.cfi_restore 20
	.cfi_def_cfa_offset 0
	b	_ZN8opendnp322CommandResponseHandler25ProcessIndexPrefixOneByteERKNS_12HeaderRecordERKNS_11ICollectionINS_7IndexedINS_17AnalogOutputInt32EEEEE
	.cfi_endproc
.LFE2473:
	.size	_ZN8opendnp322CommandResponseHandler13ProcessHeaderERKNS_12PrefixHeaderERKNS_11ICollectionINS_7IndexedINS_17AnalogOutputInt32EEEEE, .-_ZN8opendnp322CommandResponseHandler13ProcessHeaderERKNS_12PrefixHeaderERKNS_11ICollectionINS_7IndexedINS_17AnalogOutputInt32EEEEE
	.align	2
	.p2align 4,,11
	.global	_ZN8opendnp322CommandResponseHandler25ProcessIndexPrefixOneByteERKNS_12HeaderRecordERKNS_11ICollectionINS_7IndexedINS_19AnalogOutputFloat32EEEEE
	.type	_ZN8opendnp322CommandResponseHandler25ProcessIndexPrefixOneByteERKNS_12HeaderRecordERKNS_11ICollectionINS_7IndexedINS_19AnalogOutputFloat32EEEEE, %function
_ZN8opendnp322CommandResponseHandler25ProcessIndexPrefixOneByteERKNS_12HeaderRecordERKNS_11ICollectionINS_7IndexedINS_19AnalogOutputFloat32EEEEE:
.LFB2484:
	.cfi_startproc
	.cfi_personality 0x9b,DW.ref.__gxx_personality_v0
	.cfi_lsda 0x1b,.LLSDA2484
	stp	x29, x30, [sp, -160]!
	.cfi_def_cfa_offset 160
	.cfi_offset 29, -160
	.cfi_offset 30, -152
	adrp	x1, :got:__stack_chk_guard
	mov	x29, sp
	ldr	x1, [x1, #:got_lo12:__stack_chk_guard]
	stp	x19, x20, [sp, 16]
	.cfi_offset 19, -144
	.cfi_offset 20, -136
	mov	x19, x0
	str	x21, [sp, 32]
	.cfi_offset 21, -128
	mov	x20, x2
	ldr	x21, [x0, 48]
	ldr	x0, [x1]
	str	x0, [sp, 152]
	mov	x0, 0
	cbz	x21, .L362
	mov	x0, x21
	mov	w3, 7
	mov	w2, 23
	mov	w1, 809
.LEHB24:
	bl	_ZN8opendnp312HeaderWriter22WriteHeaderWithReserveENS_16GroupVariationIDENS_13QualifierCodeEj
	tst	w0, 255
	bne	.L382
	add	x0, sp, 128
	str	wzr, [sp, 96]
	stp	xzr, xzr, [sp, 104]
	str	wzr, [sp, 120]
	strh	wzr, [sp, 124]
	bl	_ZN7openpal6WSliceC1Ev
.LEHE24:
	str	xzr, [sp, 144]
.L364:
	ldr	x1, [x20]
	adrp	x0, :got:_ZTVN8opendnp314FunctorVisitorINS_7IndexedINS_19AnalogOutputFloat32EEEZNS_22CommandResponseHandler27RespondToHeaderWithIteratorIS2_N7openpal11UInt8SimpleEEENS_8IINFieldENS_13QualifierCodeERKNS_14DNP3SerializerIT_EERKNS_11ICollectionINS1_ISB_EEEEPNS_21PrefixedWriteIteratorIT0_SB_EEEUlRKS3_E_EE
	add	x3, sp, 96
	add	x2, sp, 56
	ldr	x0, [x0, #:got_lo12:_ZTVN8opendnp314FunctorVisitorINS_7IndexedINS_19AnalogOutputFloat32EEEZNS_22CommandResponseHandler27RespondToHeaderWithIteratorIS2_N7openpal11UInt8SimpleEEENS_8IINFieldENS_13QualifierCodeERKNS_14DNP3SerializerIT_EERKNS_11ICollectionINS1_ISB_EEEEPNS_21PrefixedWriteIteratorIT0_SB_EEEUlRKS3_E_EE]
	strh	wzr, [sp, 56]
	ldr	x4, [x1, 8]
	add	x0, x0, 16
	stp	x0, x19, [sp, 64]
	add	x1, sp, 64
	mov	x0, x20
	stp	x3, x2, [sp, 80]
.LEHB25:
	blr	x4
.LEHE25:
	ldrb	w1, [sp, 125]
	ldrh	w0, [sp, 56]
	cbz	w1, .L366
	ldr	x1, [sp, 136]
	ldrb	w2, [sp, 124]
	strb	w2, [x1]
.L366:
	adrp	x1, :got:__stack_chk_guard
	ldr	x1, [x1, #:got_lo12:__stack_chk_guard]
	ldr	x3, [sp, 152]
	ldr	x2, [x1]
	subs	x3, x3, x2
	mov	x2, 0
	bne	.L383
	ldp	x19, x20, [sp, 16]
	ldr	x21, [sp, 32]
	ldp	x29, x30, [sp], 160
	.cfi_remember_state
	.cfi_restore 30
	.cfi_restore 29
	.cfi_restore 21
	.cfi_restore 19
	.cfi_restore 20
	.cfi_def_cfa_offset 0
	ret
	.p2align 2,,3
.L382:
	.cfi_restore_state
	ldr	x0, [x21]
	strb	wzr, [sp, 124]
	adrp	x2, :got:_ZN8opendnp311Group41Var310ReadTargetERN7openpal6RSliceERNS_19AnalogOutputFloat32E
	adrp	x1, :got:_ZN8opendnp311Group41Var311WriteTargetERKNS_19AnalogOutputFloat32ERN7openpal6WSliceE
	mov	w7, 5
	mov	w6, 6
	ldr	w3, [x0]
	ldr	x2, [x2, #:got_lo12:_ZN8opendnp311Group41Var310ReadTargetERN7openpal6RSliceERNS_19AnalogOutputFloat32E]
	cmp	w3, 0
	ldr	x1, [x1, #:got_lo12:_ZN8opendnp311Group41Var311WriteTargetERKNS_19AnalogOutputFloat32ERN7openpal6WSliceE]
	cset	w3, ne
	ldp	x4, x5, [x0]
	str	w7, [sp, 96]
	stp	x2, x1, [sp, 104]
	str	w6, [sp, 120]
	strb	w3, [sp, 125]
	stp	x4, x5, [sp, 128]
	str	x0, [sp, 144]
	beq	.L364
	mov	w1, 1
.LEHB26:
	bl	_ZN7openpal6WSlice7AdvanceEj
	b	.L364
	.p2align 2,,3
.L362:
	ldr	x1, [x20]
	adrp	x0, :got:_ZTVN8opendnp314FunctorVisitorINS_7IndexedINS_19AnalogOutputFloat32EEEZNS_22CommandResponseHandler27RespondToHeaderWithIteratorIS2_N7openpal11UInt8SimpleEEENS_8IINFieldENS_13QualifierCodeERKNS_14DNP3SerializerIT_EERKNS_11ICollectionINS1_ISB_EEEEPNS_21PrefixedWriteIteratorIT0_SB_EEEUlRKS3_E_EE
	strh	wzr, [sp, 64]
	add	x2, sp, 64
	ldr	x0, [x0, #:got_lo12:_ZTVN8opendnp314FunctorVisitorINS_7IndexedINS_19AnalogOutputFloat32EEEZNS_22CommandResponseHandler27RespondToHeaderWithIteratorIS2_N7openpal11UInt8SimpleEEENS_8IINFieldENS_13QualifierCodeERKNS_14DNP3SerializerIT_EERKNS_11ICollectionINS1_ISB_EEEEPNS_21PrefixedWriteIteratorIT0_SB_EEEUlRKS3_E_EE]
	ldr	x3, [x1, 8]
	add	x0, x0, 16
	stp	x0, x19, [sp, 96]
	add	x1, sp, 96
	mov	x0, x20
	stp	xzr, x2, [sp, 112]
	blr	x3
	ldrh	w0, [sp, 64]
	b	.L366
.L383:
	bl	__stack_chk_fail
.L370:
	ldrb	w1, [sp, 125]
	cbz	w1, .L368
	ldr	x1, [sp, 136]
	ldrb	w2, [sp, 124]
	strb	w2, [x1]
.L368:
	bl	_Unwind_Resume
.LEHE26:
	.cfi_endproc
.LFE2484:
	.section	.gcc_except_table
.LLSDA2484:
	.byte	0xff
	.byte	0xff
	.byte	0x1
	.uleb128 .LLSDACSE2484-.LLSDACSB2484
.LLSDACSB2484:
	.uleb128 .LEHB24-.LFB2484
	.uleb128 .LEHE24-.LEHB24
	.uleb128 0
	.uleb128 0
	.uleb128 .LEHB25-.LFB2484
	.uleb128 .LEHE25-.LEHB25
	.uleb128 .L370-.LFB2484
	.uleb128 0
	.uleb128 .LEHB26-.LFB2484
	.uleb128 .LEHE26-.LEHB26
	.uleb128 0
	.uleb128 0
.LLSDACSE2484:
	.text
	.size	_ZN8opendnp322CommandResponseHandler25ProcessIndexPrefixOneByteERKNS_12HeaderRecordERKNS_11ICollectionINS_7IndexedINS_19AnalogOutputFloat32EEEEE, .-_ZN8opendnp322CommandResponseHandler25ProcessIndexPrefixOneByteERKNS_12HeaderRecordERKNS_11ICollectionINS_7IndexedINS_19AnalogOutputFloat32EEEEE
	.align	2
	.p2align 4,,11
	.global	_ZN8opendnp322CommandResponseHandler13ProcessHeaderERKNS_12PrefixHeaderERKNS_11ICollectionINS_7IndexedINS_19AnalogOutputFloat32EEEEE
	.type	_ZN8opendnp322CommandResponseHandler13ProcessHeaderERKNS_12PrefixHeaderERKNS_11ICollectionINS_7IndexedINS_19AnalogOutputFloat32EEEEE, %function
_ZN8opendnp322CommandResponseHandler13ProcessHeaderERKNS_12PrefixHeaderERKNS_11ICollectionINS_7IndexedINS_19AnalogOutputFloat32EEEEE:
.LFB2474:
	.cfi_startproc
	stp	x29, x30, [sp, -48]!
	.cfi_def_cfa_offset 48
	.cfi_offset 29, -48
	.cfi_offset 30, -40
	mov	x29, sp
	stp	x19, x20, [sp, 16]
	.cfi_offset 19, -32
	.cfi_offset 20, -24
	mov	x19, x1
	mov	x20, x0
	mov	x0, x1
	str	x21, [sp, 32]
	.cfi_offset 21, -16
	mov	x21, x2
	bl	_ZNK8opendnp312HeaderRecord16GetQualifierCodeEv
	and	w0, w0, 255
	mov	x2, x21
	cmp	w0, 23
	mov	x1, x19
	mov	x0, x20
	beq	.L387
	ldp	x19, x20, [sp, 16]
	ldr	x21, [sp, 32]
	ldp	x29, x30, [sp], 48
	.cfi_remember_state
	.cfi_restore 30
	.cfi_restore 29
	.cfi_restore 21
	.cfi_restore 19
	.cfi_restore 20
	.cfi_def_cfa_offset 0
	b	_ZN8opendnp322CommandResponseHandler25ProcessIndexPrefixTwoByteERKNS_12HeaderRecordERKNS_11ICollectionINS_7IndexedINS_19AnalogOutputFloat32EEEEE
	.p2align 2,,3
.L387:
	.cfi_restore_state
	ldp	x19, x20, [sp, 16]
	ldr	x21, [sp, 32]
	ldp	x29, x30, [sp], 48
	.cfi_restore 30
	.cfi_restore 29
	.cfi_restore 21
	.cfi_restore 19
	.cfi_restore 20
	.cfi_def_cfa_offset 0
	b	_ZN8opendnp322CommandResponseHandler25ProcessIndexPrefixOneByteERKNS_12HeaderRecordERKNS_11ICollectionINS_7IndexedINS_19AnalogOutputFloat32EEEEE
	.cfi_endproc
.LFE2474:
	.size	_ZN8opendnp322CommandResponseHandler13ProcessHeaderERKNS_12PrefixHeaderERKNS_11ICollectionINS_7IndexedINS_19AnalogOutputFloat32EEEEE, .-_ZN8opendnp322CommandResponseHandler13ProcessHeaderERKNS_12PrefixHeaderERKNS_11ICollectionINS_7IndexedINS_19AnalogOutputFloat32EEEEE
	.align	2
	.p2align 4,,11
	.global	_ZN8opendnp322CommandResponseHandler25ProcessIndexPrefixOneByteERKNS_12HeaderRecordERKNS_11ICollectionINS_7IndexedINS_20AnalogOutputDouble64EEEEE
	.type	_ZN8opendnp322CommandResponseHandler25ProcessIndexPrefixOneByteERKNS_12HeaderRecordERKNS_11ICollectionINS_7IndexedINS_20AnalogOutputDouble64EEEEE, %function
_ZN8opendnp322CommandResponseHandler25ProcessIndexPrefixOneByteERKNS_12HeaderRecordERKNS_11ICollectionINS_7IndexedINS_20AnalogOutputDouble64EEEEE:
.LFB2485:
	.cfi_startproc
	.cfi_personality 0x9b,DW.ref.__gxx_personality_v0
	.cfi_lsda 0x1b,.LLSDA2485
	stp	x29, x30, [sp, -160]!
	.cfi_def_cfa_offset 160
	.cfi_offset 29, -160
	.cfi_offset 30, -152
	adrp	x1, :got:__stack_chk_guard
	mov	x29, sp
	ldr	x1, [x1, #:got_lo12:__stack_chk_guard]
	stp	x19, x20, [sp, 16]
	.cfi_offset 19, -144
	.cfi_offset 20, -136
	mov	x19, x0
	str	x21, [sp, 32]
	.cfi_offset 21, -128
	mov	x20, x2
	ldr	x21, [x0, 48]
	ldr	x0, [x1]
	str	x0, [sp, 152]
	mov	x0, 0
	cbz	x21, .L389
	mov	x0, x21
	mov	w3, 11
	mov	w2, 23
	mov	w1, 1065
.LEHB27:
	bl	_ZN8opendnp312HeaderWriter22WriteHeaderWithReserveENS_16GroupVariationIDENS_13QualifierCodeEj
	tst	w0, 255
	bne	.L409
	add	x0, sp, 128
	str	wzr, [sp, 96]
	stp	xzr, xzr, [sp, 104]
	str	wzr, [sp, 120]
	strh	wzr, [sp, 124]
	bl	_ZN7openpal6WSliceC1Ev
.LEHE27:
	str	xzr, [sp, 144]
.L391:
	ldr	x1, [x20]
	adrp	x0, :got:_ZTVN8opendnp314FunctorVisitorINS_7IndexedINS_20AnalogOutputDouble64EEEZNS_22CommandResponseHandler27RespondToHeaderWithIteratorIS2_N7openpal11UInt8SimpleEEENS_8IINFieldENS_13QualifierCodeERKNS_14DNP3SerializerIT_EERKNS_11ICollectionINS1_ISB_EEEEPNS_21PrefixedWriteIteratorIT0_SB_EEEUlRKS3_E_EE
	add	x3, sp, 96
	add	x2, sp, 56
	ldr	x0, [x0, #:got_lo12:_ZTVN8opendnp314FunctorVisitorINS_7IndexedINS_20AnalogOutputDouble64EEEZNS_22CommandResponseHandler27RespondToHeaderWithIteratorIS2_N7openpal11UInt8SimpleEEENS_8IINFieldENS_13QualifierCodeERKNS_14DNP3SerializerIT_EERKNS_11ICollectionINS1_ISB_EEEEPNS_21PrefixedWriteIteratorIT0_SB_EEEUlRKS3_E_EE]
	strh	wzr, [sp, 56]
	ldr	x4, [x1, 8]
	add	x0, x0, 16
	stp	x0, x19, [sp, 64]
	add	x1, sp, 64
	mov	x0, x20
	stp	x3, x2, [sp, 80]
.LEHB28:
	blr	x4
.LEHE28:
	ldrb	w1, [sp, 125]
	ldrh	w0, [sp, 56]
	cbz	w1, .L393
	ldr	x1, [sp, 136]
	ldrb	w2, [sp, 124]
	strb	w2, [x1]
.L393:
	adrp	x1, :got:__stack_chk_guard
	ldr	x1, [x1, #:got_lo12:__stack_chk_guard]
	ldr	x3, [sp, 152]
	ldr	x2, [x1]
	subs	x3, x3, x2
	mov	x2, 0
	bne	.L410
	ldp	x19, x20, [sp, 16]
	ldr	x21, [sp, 32]
	ldp	x29, x30, [sp], 160
	.cfi_remember_state
	.cfi_restore 30
	.cfi_restore 29
	.cfi_restore 21
	.cfi_restore 19
	.cfi_restore 20
	.cfi_def_cfa_offset 0
	ret
	.p2align 2,,3
.L409:
	.cfi_restore_state
	ldr	x0, [x21]
	strb	wzr, [sp, 124]
	adrp	x2, :got:_ZN8opendnp311Group41Var410ReadTargetERN7openpal6RSliceERNS_20AnalogOutputDouble64E
	adrp	x1, :got:_ZN8opendnp311Group41Var411WriteTargetERKNS_20AnalogOutputDouble64ERN7openpal6WSliceE
	mov	w7, 9
	mov	w6, 10
	ldr	w3, [x0]
	ldr	x2, [x2, #:got_lo12:_ZN8opendnp311Group41Var410ReadTargetERN7openpal6RSliceERNS_20AnalogOutputDouble64E]
	cmp	w3, 0
	ldr	x1, [x1, #:got_lo12:_ZN8opendnp311Group41Var411WriteTargetERKNS_20AnalogOutputDouble64ERN7openpal6WSliceE]
	cset	w3, ne
	ldp	x4, x5, [x0]
	str	w7, [sp, 96]
	stp	x2, x1, [sp, 104]
	str	w6, [sp, 120]
	strb	w3, [sp, 125]
	stp	x4, x5, [sp, 128]
	str	x0, [sp, 144]
	beq	.L391
	mov	w1, 1
.LEHB29:
	bl	_ZN7openpal6WSlice7AdvanceEj
	b	.L391
	.p2align 2,,3
.L389:
	ldr	x1, [x20]
	adrp	x0, :got:_ZTVN8opendnp314FunctorVisitorINS_7IndexedINS_20AnalogOutputDouble64EEEZNS_22CommandResponseHandler27RespondToHeaderWithIteratorIS2_N7openpal11UInt8SimpleEEENS_8IINFieldENS_13QualifierCodeERKNS_14DNP3SerializerIT_EERKNS_11ICollectionINS1_ISB_EEEEPNS_21PrefixedWriteIteratorIT0_SB_EEEUlRKS3_E_EE
	strh	wzr, [sp, 64]
	add	x2, sp, 64
	ldr	x0, [x0, #:got_lo12:_ZTVN8opendnp314FunctorVisitorINS_7IndexedINS_20AnalogOutputDouble64EEEZNS_22CommandResponseHandler27RespondToHeaderWithIteratorIS2_N7openpal11UInt8SimpleEEENS_8IINFieldENS_13QualifierCodeERKNS_14DNP3SerializerIT_EERKNS_11ICollectionINS1_ISB_EEEEPNS_21PrefixedWriteIteratorIT0_SB_EEEUlRKS3_E_EE]
	ldr	x3, [x1, 8]
	add	x0, x0, 16
	stp	x0, x19, [sp, 96]
	add	x1, sp, 96
	mov	x0, x20
	stp	xzr, x2, [sp, 112]
	blr	x3
	ldrh	w0, [sp, 64]
	b	.L393
.L410:
	bl	__stack_chk_fail
.L397:
	ldrb	w1, [sp, 125]
	cbz	w1, .L395
	ldr	x1, [sp, 136]
	ldrb	w2, [sp, 124]
	strb	w2, [x1]
.L395:
	bl	_Unwind_Resume
.LEHE29:
	.cfi_endproc
.LFE2485:
	.section	.gcc_except_table
.LLSDA2485:
	.byte	0xff
	.byte	0xff
	.byte	0x1
	.uleb128 .LLSDACSE2485-.LLSDACSB2485
.LLSDACSB2485:
	.uleb128 .LEHB27-.LFB2485
	.uleb128 .LEHE27-.LEHB27
	.uleb128 0
	.uleb128 0
	.uleb128 .LEHB28-.LFB2485
	.uleb128 .LEHE28-.LEHB28
	.uleb128 .L397-.LFB2485
	.uleb128 0
	.uleb128 .LEHB29-.LFB2485
	.uleb128 .LEHE29-.LEHB29
	.uleb128 0
	.uleb128 0
.LLSDACSE2485:
	.text
	.size	_ZN8opendnp322CommandResponseHandler25ProcessIndexPrefixOneByteERKNS_12HeaderRecordERKNS_11ICollectionINS_7IndexedINS_20AnalogOutputDouble64EEEEE, .-_ZN8opendnp322CommandResponseHandler25ProcessIndexPrefixOneByteERKNS_12HeaderRecordERKNS_11ICollectionINS_7IndexedINS_20AnalogOutputDouble64EEEEE
	.align	2
	.p2align 4,,11
	.global	_ZN8opendnp322CommandResponseHandler13ProcessHeaderERKNS_12PrefixHeaderERKNS_11ICollectionINS_7IndexedINS_20AnalogOutputDouble64EEEEE
	.type	_ZN8opendnp322CommandResponseHandler13ProcessHeaderERKNS_12PrefixHeaderERKNS_11ICollectionINS_7IndexedINS_20AnalogOutputDouble64EEEEE, %function
_ZN8opendnp322CommandResponseHandler13ProcessHeaderERKNS_12PrefixHeaderERKNS_11ICollectionINS_7IndexedINS_20AnalogOutputDouble64EEEEE:
.LFB2475:
	.cfi_startproc
	stp	x29, x30, [sp, -48]!
	.cfi_def_cfa_offset 48
	.cfi_offset 29, -48
	.cfi_offset 30, -40
	mov	x29, sp
	stp	x19, x20, [sp, 16]
	.cfi_offset 19, -32
	.cfi_offset 20, -24
	mov	x19, x1
	mov	x20, x0
	mov	x0, x1
	str	x21, [sp, 32]
	.cfi_offset 21, -16
	mov	x21, x2
	bl	_ZNK8opendnp312HeaderRecord16GetQualifierCodeEv
	and	w0, w0, 255
	mov	x2, x21
	cmp	w0, 23
	mov	x1, x19
	mov	x0, x20
	beq	.L414
	ldp	x19, x20, [sp, 16]
	ldr	x21, [sp, 32]
	ldp	x29, x30, [sp], 48
	.cfi_remember_state
	.cfi_restore 30
	.cfi_restore 29
	.cfi_restore 21
	.cfi_restore 19
	.cfi_restore 20
	.cfi_def_cfa_offset 0
	b	_ZN8opendnp322CommandResponseHandler25ProcessIndexPrefixTwoByteERKNS_12HeaderRecordERKNS_11ICollectionINS_7IndexedINS_20AnalogOutputDouble64EEEEE
	.p2align 2,,3
.L414:
	.cfi_restore_state
	ldp	x19, x20, [sp, 16]
	ldr	x21, [sp, 32]
	ldp	x29, x30, [sp], 48
	.cfi_restore 30
	.cfi_restore 29
	.cfi_restore 21
	.cfi_restore 19
	.cfi_restore 20
	.cfi_def_cfa_offset 0
	b	_ZN8opendnp322CommandResponseHandler25ProcessIndexPrefixOneByteERKNS_12HeaderRecordERKNS_11ICollectionINS_7IndexedINS_20AnalogOutputDouble64EEEEE
	.cfi_endproc
.LFE2475:
	.size	_ZN8opendnp322CommandResponseHandler13ProcessHeaderERKNS_12PrefixHeaderERKNS_11ICollectionINS_7IndexedINS_20AnalogOutputDouble64EEEEE, .-_ZN8opendnp322CommandResponseHandler13ProcessHeaderERKNS_12PrefixHeaderERKNS_11ICollectionINS_7IndexedINS_20AnalogOutputDouble64EEEEE
	.weak	_ZTSN8opendnp322CommandResponseHandlerE
	.section	.rodata._ZTSN8opendnp322CommandResponseHandlerE,"aG",@progbits,_ZTSN8opendnp322CommandResponseHandlerE,comdat
	.align	3
	.type	_ZTSN8opendnp322CommandResponseHandlerE, %object
	.size	_ZTSN8opendnp322CommandResponseHandlerE, 36
_ZTSN8opendnp322CommandResponseHandlerE:
	.string	"N8opendnp322CommandResponseHandlerE"
	.weak	_ZTIN8opendnp322CommandResponseHandlerE
	.section	.data.rel.ro._ZTIN8opendnp322CommandResponseHandlerE,"awG",@progbits,_ZTIN8opendnp322CommandResponseHandlerE,comdat
	.align	3
	.type	_ZTIN8opendnp322CommandResponseHandlerE, %object
	.size	_ZTIN8opendnp322CommandResponseHandlerE, 24
_ZTIN8opendnp322CommandResponseHandlerE:
	.xword	_ZTVN10__cxxabiv120__si_class_type_infoE+16
	.xword	_ZTSN8opendnp322CommandResponseHandlerE
	.xword	_ZTIN8opendnp312IAPDUHandlerE
	.weak	_ZTSN8opendnp38IVisitorINS_7IndexedINS_23ControlRelayOutputBlockEEEEE
	.section	.rodata._ZTSN8opendnp38IVisitorINS_7IndexedINS_23ControlRelayOutputBlockEEEEE,"aG",@progbits,_ZTSN8opendnp38IVisitorINS_7IndexedINS_23ControlRelayOutputBlockEEEEE,comdat
	.align	3
	.type	_ZTSN8opendnp38IVisitorINS_7IndexedINS_23ControlRelayOutputBlockEEEEE, %object
	.size	_ZTSN8opendnp38IVisitorINS_7IndexedINS_23ControlRelayOutputBlockEEEEE, 66
_ZTSN8opendnp38IVisitorINS_7IndexedINS_23ControlRelayOutputBlockEEEEE:
	.string	"N8opendnp38IVisitorINS_7IndexedINS_23ControlRelayOutputBlockEEEEE"
	.weak	_ZTIN8opendnp38IVisitorINS_7IndexedINS_23ControlRelayOutputBlockEEEEE
	.section	.data.rel.ro._ZTIN8opendnp38IVisitorINS_7IndexedINS_23ControlRelayOutputBlockEEEEE,"awG",@progbits,_ZTIN8opendnp38IVisitorINS_7IndexedINS_23ControlRelayOutputBlockEEEEE,comdat
	.align	3
	.type	_ZTIN8opendnp38IVisitorINS_7IndexedINS_23ControlRelayOutputBlockEEEEE, %object
	.size	_ZTIN8opendnp38IVisitorINS_7IndexedINS_23ControlRelayOutputBlockEEEEE, 16
_ZTIN8opendnp38IVisitorINS_7IndexedINS_23ControlRelayOutputBlockEEEEE:
	.xword	_ZTVN10__cxxabiv117__class_type_infoE+16
	.xword	_ZTSN8opendnp38IVisitorINS_7IndexedINS_23ControlRelayOutputBlockEEEEE
	.weak	_ZTSN8opendnp314FunctorVisitorINS_7IndexedINS_23ControlRelayOutputBlockEEEZNS_22CommandResponseHandler27RespondToHeaderWithIteratorIS2_N7openpal7Bit16LEItEEEENS_8IINFieldENS_13QualifierCodeERKNS_14DNP3SerializerIT_EERKNS_11ICollectionINS1_ISC_EEEEPNS_21PrefixedWriteIteratorIT0_SC_EEEUlRKS3_E_EE
	.section	.rodata._ZTSN8opendnp314FunctorVisitorINS_7IndexedINS_23ControlRelayOutputBlockEEEZNS_22CommandResponseHandler27RespondToHeaderWithIteratorIS2_N7openpal7Bit16LEItEEEENS_8IINFieldENS_13QualifierCodeERKNS_14DNP3SerializerIT_EERKNS_11ICollectionINS1_ISC_EEEEPNS_21PrefixedWriteIteratorIT0_SC_EEEUlRKS3_E_EE,"aG",@progbits,_ZTSN8opendnp314FunctorVisitorINS_7IndexedINS_23ControlRelayOutputBlockEEEZNS_22CommandResponseHandler27RespondToHeaderWithIteratorIS2_N7openpal7Bit16LEItEEEENS_8IINFieldENS_13QualifierCodeERKNS_14DNP3SerializerIT_EERKNS_11ICollectionINS1_ISC_EEEEPNS_21PrefixedWriteIteratorIT0_SC_EEEUlRKS3_E_EE,comdat
	.align	3
	.type	_ZTSN8opendnp314FunctorVisitorINS_7IndexedINS_23ControlRelayOutputBlockEEEZNS_22CommandResponseHandler27RespondToHeaderWithIteratorIS2_N7openpal7Bit16LEItEEEENS_8IINFieldENS_13QualifierCodeERKNS_14DNP3SerializerIT_EERKNS_11ICollectionINS1_ISC_EEEEPNS_21PrefixedWriteIteratorIT0_SC_EEEUlRKS3_E_EE, %object
	.size	_ZTSN8opendnp314FunctorVisitorINS_7IndexedINS_23ControlRelayOutputBlockEEEZNS_22CommandResponseHandler27RespondToHeaderWithIteratorIS2_N7openpal7Bit16LEItEEEENS_8IINFieldENS_13QualifierCodeERKNS_14DNP3SerializerIT_EERKNS_11ICollectionINS1_ISC_EEEEPNS_21PrefixedWriteIteratorIT0_SC_EEEUlRKS3_E_EE, 292
_ZTSN8opendnp314FunctorVisitorINS_7IndexedINS_23ControlRelayOutputBlockEEEZNS_22CommandResponseHandler27RespondToHeaderWithIteratorIS2_N7openpal7Bit16LEItEEEENS_8IINFieldENS_13QualifierCodeERKNS_14DNP3SerializerIT_EERKNS_11ICollectionINS1_ISC_EEEEPNS_21PrefixedWriteIteratorIT0_SC_EEEUlRKS3_E_EE:
	.ascii	"N8opendnp314FunctorVisitorINS_7Inde"
	.string	"xedINS_23ControlRelayOutputBlockEEEZNS_22CommandResponseHandler27RespondToHeaderWithIteratorIS2_N7openpal7Bit16LEItEEEENS_8IINFieldENS_13QualifierCodeERKNS_14DNP3SerializerIT_EERKNS_11ICollectionINS1_ISC_EEEEPNS_21PrefixedWriteIteratorIT0_SC_EEEUlRKS3_E_EE"
	.weak	_ZTIN8opendnp314FunctorVisitorINS_7IndexedINS_23ControlRelayOutputBlockEEEZNS_22CommandResponseHandler27RespondToHeaderWithIteratorIS2_N7openpal7Bit16LEItEEEENS_8IINFieldENS_13QualifierCodeERKNS_14DNP3SerializerIT_EERKNS_11ICollectionINS1_ISC_EEEEPNS_21PrefixedWriteIteratorIT0_SC_EEEUlRKS3_E_EE
	.section	.data.rel.ro._ZTIN8opendnp314FunctorVisitorINS_7IndexedINS_23ControlRelayOutputBlockEEEZNS_22CommandResponseHandler27RespondToHeaderWithIteratorIS2_N7openpal7Bit16LEItEEEENS_8IINFieldENS_13QualifierCodeERKNS_14DNP3SerializerIT_EERKNS_11ICollectionINS1_ISC_EEEEPNS_21PrefixedWriteIteratorIT0_SC_EEEUlRKS3_E_EE,"awG",@progbits,_ZTIN8opendnp314FunctorVisitorINS_7IndexedINS_23ControlRelayOutputBlockEEEZNS_22CommandResponseHandler27RespondToHeaderWithIteratorIS2_N7openpal7Bit16LEItEEEENS_8IINFieldENS_13QualifierCodeERKNS_14DNP3SerializerIT_EERKNS_11ICollectionINS1_ISC_EEEEPNS_21PrefixedWriteIteratorIT0_SC_EEEUlRKS3_E_EE,comdat
	.align	3
	.type	_ZTIN8opendnp314FunctorVisitorINS_7IndexedINS_23ControlRelayOutputBlockEEEZNS_22CommandResponseHandler27RespondToHeaderWithIteratorIS2_N7openpal7Bit16LEItEEEENS_8IINFieldENS_13QualifierCodeERKNS_14DNP3SerializerIT_EERKNS_11ICollectionINS1_ISC_EEEEPNS_21PrefixedWriteIteratorIT0_SC_EEEUlRKS3_E_EE, %object
	.size	_ZTIN8opendnp314FunctorVisitorINS_7IndexedINS_23ControlRelayOutputBlockEEEZNS_22CommandResponseHandler27RespondToHeaderWithIteratorIS2_N7openpal7Bit16LEItEEEENS_8IINFieldENS_13QualifierCodeERKNS_14DNP3SerializerIT_EERKNS_11ICollectionINS1_ISC_EEEEPNS_21PrefixedWriteIteratorIT0_SC_EEEUlRKS3_E_EE, 24
_ZTIN8opendnp314FunctorVisitorINS_7IndexedINS_23ControlRelayOutputBlockEEEZNS_22CommandResponseHandler27RespondToHeaderWithIteratorIS2_N7openpal7Bit16LEItEEEENS_8IINFieldENS_13QualifierCodeERKNS_14DNP3SerializerIT_EERKNS_11ICollectionINS1_ISC_EEEEPNS_21PrefixedWriteIteratorIT0_SC_EEEUlRKS3_E_EE:
	.xword	_ZTVN10__cxxabiv120__si_class_type_infoE+16
	.xword	_ZTSN8opendnp314FunctorVisitorINS_7IndexedINS_23ControlRelayOutputBlockEEEZNS_22CommandResponseHandler27RespondToHeaderWithIteratorIS2_N7openpal7Bit16LEItEEEENS_8IINFieldENS_13QualifierCodeERKNS_14DNP3SerializerIT_EERKNS_11ICollectionINS1_ISC_EEEEPNS_21PrefixedWriteIteratorIT0_SC_EEEUlRKS3_E_EE
	.xword	_ZTIN8opendnp38IVisitorINS_7IndexedINS_23ControlRelayOutputBlockEEEEE
	.weak	_ZTSN8opendnp38IVisitorINS_7IndexedINS_17AnalogOutputInt16EEEEE
	.section	.rodata._ZTSN8opendnp38IVisitorINS_7IndexedINS_17AnalogOutputInt16EEEEE,"aG",@progbits,_ZTSN8opendnp38IVisitorINS_7IndexedINS_17AnalogOutputInt16EEEEE,comdat
	.align	3
	.type	_ZTSN8opendnp38IVisitorINS_7IndexedINS_17AnalogOutputInt16EEEEE, %object
	.size	_ZTSN8opendnp38IVisitorINS_7IndexedINS_17AnalogOutputInt16EEEEE, 60
_ZTSN8opendnp38IVisitorINS_7IndexedINS_17AnalogOutputInt16EEEEE:
	.string	"N8opendnp38IVisitorINS_7IndexedINS_17AnalogOutputInt16EEEEE"
	.weak	_ZTIN8opendnp38IVisitorINS_7IndexedINS_17AnalogOutputInt16EEEEE
	.section	.data.rel.ro._ZTIN8opendnp38IVisitorINS_7IndexedINS_17AnalogOutputInt16EEEEE,"awG",@progbits,_ZTIN8opendnp38IVisitorINS_7IndexedINS_17AnalogOutputInt16EEEEE,comdat
	.align	3
	.type	_ZTIN8opendnp38IVisitorINS_7IndexedINS_17AnalogOutputInt16EEEEE, %object
	.size	_ZTIN8opendnp38IVisitorINS_7IndexedINS_17AnalogOutputInt16EEEEE, 16
_ZTIN8opendnp38IVisitorINS_7IndexedINS_17AnalogOutputInt16EEEEE:
	.xword	_ZTVN10__cxxabiv117__class_type_infoE+16
	.xword	_ZTSN8opendnp38IVisitorINS_7IndexedINS_17AnalogOutputInt16EEEEE
	.weak	_ZTSN8opendnp314FunctorVisitorINS_7IndexedINS_17AnalogOutputInt16EEEZNS_22CommandResponseHandler27RespondToHeaderWithIteratorIS2_N7openpal7Bit16LEItEEEENS_8IINFieldENS_13QualifierCodeERKNS_14DNP3SerializerIT_EERKNS_11ICollectionINS1_ISC_EEEEPNS_21PrefixedWriteIteratorIT0_SC_EEEUlRKS3_E_EE
	.section	.rodata._ZTSN8opendnp314FunctorVisitorINS_7IndexedINS_17AnalogOutputInt16EEEZNS_22CommandResponseHandler27RespondToHeaderWithIteratorIS2_N7openpal7Bit16LEItEEEENS_8IINFieldENS_13QualifierCodeERKNS_14DNP3SerializerIT_EERKNS_11ICollectionINS1_ISC_EEEEPNS_21PrefixedWriteIteratorIT0_SC_EEEUlRKS3_E_EE,"aG",@progbits,_ZTSN8opendnp314FunctorVisitorINS_7IndexedINS_17AnalogOutputInt16EEEZNS_22CommandResponseHandler27RespondToHeaderWithIteratorIS2_N7openpal7Bit16LEItEEEENS_8IINFieldENS_13QualifierCodeERKNS_14DNP3SerializerIT_EERKNS_11ICollectionINS1_ISC_EEEEPNS_21PrefixedWriteIteratorIT0_SC_EEEUlRKS3_E_EE,comdat
	.align	3
	.type	_ZTSN8opendnp314FunctorVisitorINS_7IndexedINS_17AnalogOutputInt16EEEZNS_22CommandResponseHandler27RespondToHeaderWithIteratorIS2_N7openpal7Bit16LEItEEEENS_8IINFieldENS_13QualifierCodeERKNS_14DNP3SerializerIT_EERKNS_11ICollectionINS1_ISC_EEEEPNS_21PrefixedWriteIteratorIT0_SC_EEEUlRKS3_E_EE, %object
	.size	_ZTSN8opendnp314FunctorVisitorINS_7IndexedINS_17AnalogOutputInt16EEEZNS_22CommandResponseHandler27RespondToHeaderWithIteratorIS2_N7openpal7Bit16LEItEEEENS_8IINFieldENS_13QualifierCodeERKNS_14DNP3SerializerIT_EERKNS_11ICollectionINS1_ISC_EEEEPNS_21PrefixedWriteIteratorIT0_SC_EEEUlRKS3_E_EE, 286
_ZTSN8opendnp314FunctorVisitorINS_7IndexedINS_17AnalogOutputInt16EEEZNS_22CommandResponseHandler27RespondToHeaderWithIteratorIS2_N7openpal7Bit16LEItEEEENS_8IINFieldENS_13QualifierCodeERKNS_14DNP3SerializerIT_EERKNS_11ICollectionINS1_ISC_EEEEPNS_21PrefixedWriteIteratorIT0_SC_EEEUlRKS3_E_EE:
	.ascii	"N8opendnp314FunctorVisitorINS"
	.string	"_7IndexedINS_17AnalogOutputInt16EEEZNS_22CommandResponseHandler27RespondToHeaderWithIteratorIS2_N7openpal7Bit16LEItEEEENS_8IINFieldENS_13QualifierCodeERKNS_14DNP3SerializerIT_EERKNS_11ICollectionINS1_ISC_EEEEPNS_21PrefixedWriteIteratorIT0_SC_EEEUlRKS3_E_EE"
	.weak	_ZTIN8opendnp314FunctorVisitorINS_7IndexedINS_17AnalogOutputInt16EEEZNS_22CommandResponseHandler27RespondToHeaderWithIteratorIS2_N7openpal7Bit16LEItEEEENS_8IINFieldENS_13QualifierCodeERKNS_14DNP3SerializerIT_EERKNS_11ICollectionINS1_ISC_EEEEPNS_21PrefixedWriteIteratorIT0_SC_EEEUlRKS3_E_EE
	.section	.data.rel.ro._ZTIN8opendnp314FunctorVisitorINS_7IndexedINS_17AnalogOutputInt16EEEZNS_22CommandResponseHandler27RespondToHeaderWithIteratorIS2_N7openpal7Bit16LEItEEEENS_8IINFieldENS_13QualifierCodeERKNS_14DNP3SerializerIT_EERKNS_11ICollectionINS1_ISC_EEEEPNS_21PrefixedWriteIteratorIT0_SC_EEEUlRKS3_E_EE,"awG",@progbits,_ZTIN8opendnp314FunctorVisitorINS_7IndexedINS_17AnalogOutputInt16EEEZNS_22CommandResponseHandler27RespondToHeaderWithIteratorIS2_N7openpal7Bit16LEItEEEENS_8IINFieldENS_13QualifierCodeERKNS_14DNP3SerializerIT_EERKNS_11ICollectionINS1_ISC_EEEEPNS_21PrefixedWriteIteratorIT0_SC_EEEUlRKS3_E_EE,comdat
	.align	3
	.type	_ZTIN8opendnp314FunctorVisitorINS_7IndexedINS_17AnalogOutputInt16EEEZNS_22CommandResponseHandler27RespondToHeaderWithIteratorIS2_N7openpal7Bit16LEItEEEENS_8IINFieldENS_13QualifierCodeERKNS_14DNP3SerializerIT_EERKNS_11ICollectionINS1_ISC_EEEEPNS_21PrefixedWriteIteratorIT0_SC_EEEUlRKS3_E_EE, %object
	.size	_ZTIN8opendnp314FunctorVisitorINS_7IndexedINS_17AnalogOutputInt16EEEZNS_22CommandResponseHandler27RespondToHeaderWithIteratorIS2_N7openpal7Bit16LEItEEEENS_8IINFieldENS_13QualifierCodeERKNS_14DNP3SerializerIT_EERKNS_11ICollectionINS1_ISC_EEEEPNS_21PrefixedWriteIteratorIT0_SC_EEEUlRKS3_E_EE, 24
_ZTIN8opendnp314FunctorVisitorINS_7IndexedINS_17AnalogOutputInt16EEEZNS_22CommandResponseHandler27RespondToHeaderWithIteratorIS2_N7openpal7Bit16LEItEEEENS_8IINFieldENS_13QualifierCodeERKNS_14DNP3SerializerIT_EERKNS_11ICollectionINS1_ISC_EEEEPNS_21PrefixedWriteIteratorIT0_SC_EEEUlRKS3_E_EE:
	.xword	_ZTVN10__cxxabiv120__si_class_type_infoE+16
	.xword	_ZTSN8opendnp314FunctorVisitorINS_7IndexedINS_17AnalogOutputInt16EEEZNS_22CommandResponseHandler27RespondToHeaderWithIteratorIS2_N7openpal7Bit16LEItEEEENS_8IINFieldENS_13QualifierCodeERKNS_14DNP3SerializerIT_EERKNS_11ICollectionINS1_ISC_EEEEPNS_21PrefixedWriteIteratorIT0_SC_EEEUlRKS3_E_EE
	.xword	_ZTIN8opendnp38IVisitorINS_7IndexedINS_17AnalogOutputInt16EEEEE
	.weak	_ZTSN8opendnp38IVisitorINS_7IndexedINS_17AnalogOutputInt32EEEEE
	.section	.rodata._ZTSN8opendnp38IVisitorINS_7IndexedINS_17AnalogOutputInt32EEEEE,"aG",@progbits,_ZTSN8opendnp38IVisitorINS_7IndexedINS_17AnalogOutputInt32EEEEE,comdat
	.align	3
	.type	_ZTSN8opendnp38IVisitorINS_7IndexedINS_17AnalogOutputInt32EEEEE, %object
	.size	_ZTSN8opendnp38IVisitorINS_7IndexedINS_17AnalogOutputInt32EEEEE, 60
_ZTSN8opendnp38IVisitorINS_7IndexedINS_17AnalogOutputInt32EEEEE:
	.string	"N8opendnp38IVisitorINS_7IndexedINS_17AnalogOutputInt32EEEEE"
	.weak	_ZTIN8opendnp38IVisitorINS_7IndexedINS_17AnalogOutputInt32EEEEE
	.section	.data.rel.ro._ZTIN8opendnp38IVisitorINS_7IndexedINS_17AnalogOutputInt32EEEEE,"awG",@progbits,_ZTIN8opendnp38IVisitorINS_7IndexedINS_17AnalogOutputInt32EEEEE,comdat
	.align	3
	.type	_ZTIN8opendnp38IVisitorINS_7IndexedINS_17AnalogOutputInt32EEEEE, %object
	.size	_ZTIN8opendnp38IVisitorINS_7IndexedINS_17AnalogOutputInt32EEEEE, 16
_ZTIN8opendnp38IVisitorINS_7IndexedINS_17AnalogOutputInt32EEEEE:
	.xword	_ZTVN10__cxxabiv117__class_type_infoE+16
	.xword	_ZTSN8opendnp38IVisitorINS_7IndexedINS_17AnalogOutputInt32EEEEE
	.weak	_ZTSN8opendnp314FunctorVisitorINS_7IndexedINS_17AnalogOutputInt32EEEZNS_22CommandResponseHandler27RespondToHeaderWithIteratorIS2_N7openpal7Bit16LEItEEEENS_8IINFieldENS_13QualifierCodeERKNS_14DNP3SerializerIT_EERKNS_11ICollectionINS1_ISC_EEEEPNS_21PrefixedWriteIteratorIT0_SC_EEEUlRKS3_E_EE
	.section	.rodata._ZTSN8opendnp314FunctorVisitorINS_7IndexedINS_17AnalogOutputInt32EEEZNS_22CommandResponseHandler27RespondToHeaderWithIteratorIS2_N7openpal7Bit16LEItEEEENS_8IINFieldENS_13QualifierCodeERKNS_14DNP3SerializerIT_EERKNS_11ICollectionINS1_ISC_EEEEPNS_21PrefixedWriteIteratorIT0_SC_EEEUlRKS3_E_EE,"aG",@progbits,_ZTSN8opendnp314FunctorVisitorINS_7IndexedINS_17AnalogOutputInt32EEEZNS_22CommandResponseHandler27RespondToHeaderWithIteratorIS2_N7openpal7Bit16LEItEEEENS_8IINFieldENS_13QualifierCodeERKNS_14DNP3SerializerIT_EERKNS_11ICollectionINS1_ISC_EEEEPNS_21PrefixedWriteIteratorIT0_SC_EEEUlRKS3_E_EE,comdat
	.align	3
	.type	_ZTSN8opendnp314FunctorVisitorINS_7IndexedINS_17AnalogOutputInt32EEEZNS_22CommandResponseHandler27RespondToHeaderWithIteratorIS2_N7openpal7Bit16LEItEEEENS_8IINFieldENS_13QualifierCodeERKNS_14DNP3SerializerIT_EERKNS_11ICollectionINS1_ISC_EEEEPNS_21PrefixedWriteIteratorIT0_SC_EEEUlRKS3_E_EE, %object
	.size	_ZTSN8opendnp314FunctorVisitorINS_7IndexedINS_17AnalogOutputInt32EEEZNS_22CommandResponseHandler27RespondToHeaderWithIteratorIS2_N7openpal7Bit16LEItEEEENS_8IINFieldENS_13QualifierCodeERKNS_14DNP3SerializerIT_EERKNS_11ICollectionINS1_ISC_EEEEPNS_21PrefixedWriteIteratorIT0_SC_EEEUlRKS3_E_EE, 286
_ZTSN8opendnp314FunctorVisitorINS_7IndexedINS_17AnalogOutputInt32EEEZNS_22CommandResponseHandler27RespondToHeaderWithIteratorIS2_N7openpal7Bit16LEItEEEENS_8IINFieldENS_13QualifierCodeERKNS_14DNP3SerializerIT_EERKNS_11ICollectionINS1_ISC_EEEEPNS_21PrefixedWriteIteratorIT0_SC_EEEUlRKS3_E_EE:
	.ascii	"N8opendnp314FunctorVisitorINS"
	.string	"_7IndexedINS_17AnalogOutputInt32EEEZNS_22CommandResponseHandler27RespondToHeaderWithIteratorIS2_N7openpal7Bit16LEItEEEENS_8IINFieldENS_13QualifierCodeERKNS_14DNP3SerializerIT_EERKNS_11ICollectionINS1_ISC_EEEEPNS_21PrefixedWriteIteratorIT0_SC_EEEUlRKS3_E_EE"
	.weak	_ZTIN8opendnp314FunctorVisitorINS_7IndexedINS_17AnalogOutputInt32EEEZNS_22CommandResponseHandler27RespondToHeaderWithIteratorIS2_N7openpal7Bit16LEItEEEENS_8IINFieldENS_13QualifierCodeERKNS_14DNP3SerializerIT_EERKNS_11ICollectionINS1_ISC_EEEEPNS_21PrefixedWriteIteratorIT0_SC_EEEUlRKS3_E_EE
	.section	.data.rel.ro._ZTIN8opendnp314FunctorVisitorINS_7IndexedINS_17AnalogOutputInt32EEEZNS_22CommandResponseHandler27RespondToHeaderWithIteratorIS2_N7openpal7Bit16LEItEEEENS_8IINFieldENS_13QualifierCodeERKNS_14DNP3SerializerIT_EERKNS_11ICollectionINS1_ISC_EEEEPNS_21PrefixedWriteIteratorIT0_SC_EEEUlRKS3_E_EE,"awG",@progbits,_ZTIN8opendnp314FunctorVisitorINS_7IndexedINS_17AnalogOutputInt32EEEZNS_22CommandResponseHandler27RespondToHeaderWithIteratorIS2_N7openpal7Bit16LEItEEEENS_8IINFieldENS_13QualifierCodeERKNS_14DNP3SerializerIT_EERKNS_11ICollectionINS1_ISC_EEEEPNS_21PrefixedWriteIteratorIT0_SC_EEEUlRKS3_E_EE,comdat
	.align	3
	.type	_ZTIN8opendnp314FunctorVisitorINS_7IndexedINS_17AnalogOutputInt32EEEZNS_22CommandResponseHandler27RespondToHeaderWithIteratorIS2_N7openpal7Bit16LEItEEEENS_8IINFieldENS_13QualifierCodeERKNS_14DNP3SerializerIT_EERKNS_11ICollectionINS1_ISC_EEEEPNS_21PrefixedWriteIteratorIT0_SC_EEEUlRKS3_E_EE, %object
	.size	_ZTIN8opendnp314FunctorVisitorINS_7IndexedINS_17AnalogOutputInt32EEEZNS_22CommandResponseHandler27RespondToHeaderWithIteratorIS2_N7openpal7Bit16LEItEEEENS_8IINFieldENS_13QualifierCodeERKNS_14DNP3SerializerIT_EERKNS_11ICollectionINS1_ISC_EEEEPNS_21PrefixedWriteIteratorIT0_SC_EEEUlRKS3_E_EE, 24
_ZTIN8opendnp314FunctorVisitorINS_7IndexedINS_17AnalogOutputInt32EEEZNS_22CommandResponseHandler27RespondToHeaderWithIteratorIS2_N7openpal7Bit16LEItEEEENS_8IINFieldENS_13QualifierCodeERKNS_14DNP3SerializerIT_EERKNS_11ICollectionINS1_ISC_EEEEPNS_21PrefixedWriteIteratorIT0_SC_EEEUlRKS3_E_EE:
	.xword	_ZTVN10__cxxabiv120__si_class_type_infoE+16
	.xword	_ZTSN8opendnp314FunctorVisitorINS_7IndexedINS_17AnalogOutputInt32EEEZNS_22CommandResponseHandler27RespondToHeaderWithIteratorIS2_N7openpal7Bit16LEItEEEENS_8IINFieldENS_13QualifierCodeERKNS_14DNP3SerializerIT_EERKNS_11ICollectionINS1_ISC_EEEEPNS_21PrefixedWriteIteratorIT0_SC_EEEUlRKS3_E_EE
	.xword	_ZTIN8opendnp38IVisitorINS_7IndexedINS_17AnalogOutputInt32EEEEE
	.weak	_ZTSN8opendnp38IVisitorINS_7IndexedINS_19AnalogOutputFloat32EEEEE
	.section	.rodata._ZTSN8opendnp38IVisitorINS_7IndexedINS_19AnalogOutputFloat32EEEEE,"aG",@progbits,_ZTSN8opendnp38IVisitorINS_7IndexedINS_19AnalogOutputFloat32EEEEE,comdat
	.align	3
	.type	_ZTSN8opendnp38IVisitorINS_7IndexedINS_19AnalogOutputFloat32EEEEE, %object
	.size	_ZTSN8opendnp38IVisitorINS_7IndexedINS_19AnalogOutputFloat32EEEEE, 62
_ZTSN8opendnp38IVisitorINS_7IndexedINS_19AnalogOutputFloat32EEEEE:
	.string	"N8opendnp38IVisitorINS_7IndexedINS_19AnalogOutputFloat32EEEEE"
	.weak	_ZTIN8opendnp38IVisitorINS_7IndexedINS_19AnalogOutputFloat32EEEEE
	.section	.data.rel.ro._ZTIN8opendnp38IVisitorINS_7IndexedINS_19AnalogOutputFloat32EEEEE,"awG",@progbits,_ZTIN8opendnp38IVisitorINS_7IndexedINS_19AnalogOutputFloat32EEEEE,comdat
	.align	3
	.type	_ZTIN8opendnp38IVisitorINS_7IndexedINS_19AnalogOutputFloat32EEEEE, %object
	.size	_ZTIN8opendnp38IVisitorINS_7IndexedINS_19AnalogOutputFloat32EEEEE, 16
_ZTIN8opendnp38IVisitorINS_7IndexedINS_19AnalogOutputFloat32EEEEE:
	.xword	_ZTVN10__cxxabiv117__class_type_infoE+16
	.xword	_ZTSN8opendnp38IVisitorINS_7IndexedINS_19AnalogOutputFloat32EEEEE
	.weak	_ZTSN8opendnp314FunctorVisitorINS_7IndexedINS_19AnalogOutputFloat32EEEZNS_22CommandResponseHandler27RespondToHeaderWithIteratorIS2_N7openpal7Bit16LEItEEEENS_8IINFieldENS_13QualifierCodeERKNS_14DNP3SerializerIT_EERKNS_11ICollectionINS1_ISC_EEEEPNS_21PrefixedWriteIteratorIT0_SC_EEEUlRKS3_E_EE
	.section	.rodata._ZTSN8opendnp314FunctorVisitorINS_7IndexedINS_19AnalogOutputFloat32EEEZNS_22CommandResponseHandler27RespondToHeaderWithIteratorIS2_N7openpal7Bit16LEItEEEENS_8IINFieldENS_13QualifierCodeERKNS_14DNP3SerializerIT_EERKNS_11ICollectionINS1_ISC_EEEEPNS_21PrefixedWriteIteratorIT0_SC_EEEUlRKS3_E_EE,"aG",@progbits,_ZTSN8opendnp314FunctorVisitorINS_7IndexedINS_19AnalogOutputFloat32EEEZNS_22CommandResponseHandler27RespondToHeaderWithIteratorIS2_N7openpal7Bit16LEItEEEENS_8IINFieldENS_13QualifierCodeERKNS_14DNP3SerializerIT_EERKNS_11ICollectionINS1_ISC_EEEEPNS_21PrefixedWriteIteratorIT0_SC_EEEUlRKS3_E_EE,comdat
	.align	3
	.type	_ZTSN8opendnp314FunctorVisitorINS_7IndexedINS_19AnalogOutputFloat32EEEZNS_22CommandResponseHandler27RespondToHeaderWithIteratorIS2_N7openpal7Bit16LEItEEEENS_8IINFieldENS_13QualifierCodeERKNS_14DNP3SerializerIT_EERKNS_11ICollectionINS1_ISC_EEEEPNS_21PrefixedWriteIteratorIT0_SC_EEEUlRKS3_E_EE, %object
	.size	_ZTSN8opendnp314FunctorVisitorINS_7IndexedINS_19AnalogOutputFloat32EEEZNS_22CommandResponseHandler27RespondToHeaderWithIteratorIS2_N7openpal7Bit16LEItEEEENS_8IINFieldENS_13QualifierCodeERKNS_14DNP3SerializerIT_EERKNS_11ICollectionINS1_ISC_EEEEPNS_21PrefixedWriteIteratorIT0_SC_EEEUlRKS3_E_EE, 288
_ZTSN8opendnp314FunctorVisitorINS_7IndexedINS_19AnalogOutputFloat32EEEZNS_22CommandResponseHandler27RespondToHeaderWithIteratorIS2_N7openpal7Bit16LEItEEEENS_8IINFieldENS_13QualifierCodeERKNS_14DNP3SerializerIT_EERKNS_11ICollectionINS1_ISC_EEEEPNS_21PrefixedWriteIteratorIT0_SC_EEEUlRKS3_E_EE:
	.ascii	"N8opendnp314FunctorVisitorINS_7"
	.string	"IndexedINS_19AnalogOutputFloat32EEEZNS_22CommandResponseHandler27RespondToHeaderWithIteratorIS2_N7openpal7Bit16LEItEEEENS_8IINFieldENS_13QualifierCodeERKNS_14DNP3SerializerIT_EERKNS_11ICollectionINS1_ISC_EEEEPNS_21PrefixedWriteIteratorIT0_SC_EEEUlRKS3_E_EE"
	.weak	_ZTIN8opendnp314FunctorVisitorINS_7IndexedINS_19AnalogOutputFloat32EEEZNS_22CommandResponseHandler27RespondToHeaderWithIteratorIS2_N7openpal7Bit16LEItEEEENS_8IINFieldENS_13QualifierCodeERKNS_14DNP3SerializerIT_EERKNS_11ICollectionINS1_ISC_EEEEPNS_21PrefixedWriteIteratorIT0_SC_EEEUlRKS3_E_EE
	.section	.data.rel.ro._ZTIN8opendnp314FunctorVisitorINS_7IndexedINS_19AnalogOutputFloat32EEEZNS_22CommandResponseHandler27RespondToHeaderWithIteratorIS2_N7openpal7Bit16LEItEEEENS_8IINFieldENS_13QualifierCodeERKNS_14DNP3SerializerIT_EERKNS_11ICollectionINS1_ISC_EEEEPNS_21PrefixedWriteIteratorIT0_SC_EEEUlRKS3_E_EE,"awG",@progbits,_ZTIN8opendnp314FunctorVisitorINS_7IndexedINS_19AnalogOutputFloat32EEEZNS_22CommandResponseHandler27RespondToHeaderWithIteratorIS2_N7openpal7Bit16LEItEEEENS_8IINFieldENS_13QualifierCodeERKNS_14DNP3SerializerIT_EERKNS_11ICollectionINS1_ISC_EEEEPNS_21PrefixedWriteIteratorIT0_SC_EEEUlRKS3_E_EE,comdat
	.align	3
	.type	_ZTIN8opendnp314FunctorVisitorINS_7IndexedINS_19AnalogOutputFloat32EEEZNS_22CommandResponseHandler27RespondToHeaderWithIteratorIS2_N7openpal7Bit16LEItEEEENS_8IINFieldENS_13QualifierCodeERKNS_14DNP3SerializerIT_EERKNS_11ICollectionINS1_ISC_EEEEPNS_21PrefixedWriteIteratorIT0_SC_EEEUlRKS3_E_EE, %object
	.size	_ZTIN8opendnp314FunctorVisitorINS_7IndexedINS_19AnalogOutputFloat32EEEZNS_22CommandResponseHandler27RespondToHeaderWithIteratorIS2_N7openpal7Bit16LEItEEEENS_8IINFieldENS_13QualifierCodeERKNS_14DNP3SerializerIT_EERKNS_11ICollectionINS1_ISC_EEEEPNS_21PrefixedWriteIteratorIT0_SC_EEEUlRKS3_E_EE, 24
_ZTIN8opendnp314FunctorVisitorINS_7IndexedINS_19AnalogOutputFloat32EEEZNS_22CommandResponseHandler27RespondToHeaderWithIteratorIS2_N7openpal7Bit16LEItEEEENS_8IINFieldENS_13QualifierCodeERKNS_14DNP3SerializerIT_EERKNS_11ICollectionINS1_ISC_EEEEPNS_21PrefixedWriteIteratorIT0_SC_EEEUlRKS3_E_EE:
	.xword	_ZTVN10__cxxabiv120__si_class_type_infoE+16
	.xword	_ZTSN8opendnp314FunctorVisitorINS_7IndexedINS_19AnalogOutputFloat32EEEZNS_22CommandResponseHandler27RespondToHeaderWithIteratorIS2_N7openpal7Bit16LEItEEEENS_8IINFieldENS_13QualifierCodeERKNS_14DNP3SerializerIT_EERKNS_11ICollectionINS1_ISC_EEEEPNS_21PrefixedWriteIteratorIT0_SC_EEEUlRKS3_E_EE
	.xword	_ZTIN8opendnp38IVisitorINS_7IndexedINS_19AnalogOutputFloat32EEEEE
	.weak	_ZTSN8opendnp38IVisitorINS_7IndexedINS_20AnalogOutputDouble64EEEEE
	.section	.rodata._ZTSN8opendnp38IVisitorINS_7IndexedINS_20AnalogOutputDouble64EEEEE,"aG",@progbits,_ZTSN8opendnp38IVisitorINS_7IndexedINS_20AnalogOutputDouble64EEEEE,comdat
	.align	3
	.type	_ZTSN8opendnp38IVisitorINS_7IndexedINS_20AnalogOutputDouble64EEEEE, %object
	.size	_ZTSN8opendnp38IVisitorINS_7IndexedINS_20AnalogOutputDouble64EEEEE, 63
_ZTSN8opendnp38IVisitorINS_7IndexedINS_20AnalogOutputDouble64EEEEE:
	.string	"N8opendnp38IVisitorINS_7IndexedINS_20AnalogOutputDouble64EEEEE"
	.weak	_ZTIN8opendnp38IVisitorINS_7IndexedINS_20AnalogOutputDouble64EEEEE
	.section	.data.rel.ro._ZTIN8opendnp38IVisitorINS_7IndexedINS_20AnalogOutputDouble64EEEEE,"awG",@progbits,_ZTIN8opendnp38IVisitorINS_7IndexedINS_20AnalogOutputDouble64EEEEE,comdat
	.align	3
	.type	_ZTIN8opendnp38IVisitorINS_7IndexedINS_20AnalogOutputDouble64EEEEE, %object
	.size	_ZTIN8opendnp38IVisitorINS_7IndexedINS_20AnalogOutputDouble64EEEEE, 16
_ZTIN8opendnp38IVisitorINS_7IndexedINS_20AnalogOutputDouble64EEEEE:
	.xword	_ZTVN10__cxxabiv117__class_type_infoE+16
	.xword	_ZTSN8opendnp38IVisitorINS_7IndexedINS_20AnalogOutputDouble64EEEEE
	.weak	_ZTSN8opendnp314FunctorVisitorINS_7IndexedINS_20AnalogOutputDouble64EEEZNS_22CommandResponseHandler27RespondToHeaderWithIteratorIS2_N7openpal7Bit16LEItEEEENS_8IINFieldENS_13QualifierCodeERKNS_14DNP3SerializerIT_EERKNS_11ICollectionINS1_ISC_EEEEPNS_21PrefixedWriteIteratorIT0_SC_EEEUlRKS3_E_EE
	.section	.rodata._ZTSN8opendnp314FunctorVisitorINS_7IndexedINS_20AnalogOutputDouble64EEEZNS_22CommandResponseHandler27RespondToHeaderWithIteratorIS2_N7openpal7Bit16LEItEEEENS_8IINFieldENS_13QualifierCodeERKNS_14DNP3SerializerIT_EERKNS_11ICollectionINS1_ISC_EEEEPNS_21PrefixedWriteIteratorIT0_SC_EEEUlRKS3_E_EE,"aG",@progbits,_ZTSN8opendnp314FunctorVisitorINS_7IndexedINS_20AnalogOutputDouble64EEEZNS_22CommandResponseHandler27RespondToHeaderWithIteratorIS2_N7openpal7Bit16LEItEEEENS_8IINFieldENS_13QualifierCodeERKNS_14DNP3SerializerIT_EERKNS_11ICollectionINS1_ISC_EEEEPNS_21PrefixedWriteIteratorIT0_SC_EEEUlRKS3_E_EE,comdat
	.align	3
	.type	_ZTSN8opendnp314FunctorVisitorINS_7IndexedINS_20AnalogOutputDouble64EEEZNS_22CommandResponseHandler27RespondToHeaderWithIteratorIS2_N7openpal7Bit16LEItEEEENS_8IINFieldENS_13QualifierCodeERKNS_14DNP3SerializerIT_EERKNS_11ICollectionINS1_ISC_EEEEPNS_21PrefixedWriteIteratorIT0_SC_EEEUlRKS3_E_EE, %object
	.size	_ZTSN8opendnp314FunctorVisitorINS_7IndexedINS_20AnalogOutputDouble64EEEZNS_22CommandResponseHandler27RespondToHeaderWithIteratorIS2_N7openpal7Bit16LEItEEEENS_8IINFieldENS_13QualifierCodeERKNS_14DNP3SerializerIT_EERKNS_11ICollectionINS1_ISC_EEEEPNS_21PrefixedWriteIteratorIT0_SC_EEEUlRKS3_E_EE, 289
_ZTSN8opendnp314FunctorVisitorINS_7IndexedINS_20AnalogOutputDouble64EEEZNS_22CommandResponseHandler27RespondToHeaderWithIteratorIS2_N7openpal7Bit16LEItEEEENS_8IINFieldENS_13QualifierCodeERKNS_14DNP3SerializerIT_EERKNS_11ICollectionINS1_ISC_EEEEPNS_21PrefixedWriteIteratorIT0_SC_EEEUlRKS3_E_EE:
	.ascii	"N8opendnp314FunctorVisitorINS_7I"
	.string	"ndexedINS_20AnalogOutputDouble64EEEZNS_22CommandResponseHandler27RespondToHeaderWithIteratorIS2_N7openpal7Bit16LEItEEEENS_8IINFieldENS_13QualifierCodeERKNS_14DNP3SerializerIT_EERKNS_11ICollectionINS1_ISC_EEEEPNS_21PrefixedWriteIteratorIT0_SC_EEEUlRKS3_E_EE"
	.weak	_ZTIN8opendnp314FunctorVisitorINS_7IndexedINS_20AnalogOutputDouble64EEEZNS_22CommandResponseHandler27RespondToHeaderWithIteratorIS2_N7openpal7Bit16LEItEEEENS_8IINFieldENS_13QualifierCodeERKNS_14DNP3SerializerIT_EERKNS_11ICollectionINS1_ISC_EEEEPNS_21PrefixedWriteIteratorIT0_SC_EEEUlRKS3_E_EE
	.section	.data.rel.ro._ZTIN8opendnp314FunctorVisitorINS_7IndexedINS_20AnalogOutputDouble64EEEZNS_22CommandResponseHandler27RespondToHeaderWithIteratorIS2_N7openpal7Bit16LEItEEEENS_8IINFieldENS_13QualifierCodeERKNS_14DNP3SerializerIT_EERKNS_11ICollectionINS1_ISC_EEEEPNS_21PrefixedWriteIteratorIT0_SC_EEEUlRKS3_E_EE,"awG",@progbits,_ZTIN8opendnp314FunctorVisitorINS_7IndexedINS_20AnalogOutputDouble64EEEZNS_22CommandResponseHandler27RespondToHeaderWithIteratorIS2_N7openpal7Bit16LEItEEEENS_8IINFieldENS_13QualifierCodeERKNS_14DNP3SerializerIT_EERKNS_11ICollectionINS1_ISC_EEEEPNS_21PrefixedWriteIteratorIT0_SC_EEEUlRKS3_E_EE,comdat
	.align	3
	.type	_ZTIN8opendnp314FunctorVisitorINS_7IndexedINS_20AnalogOutputDouble64EEEZNS_22CommandResponseHandler27RespondToHeaderWithIteratorIS2_N7openpal7Bit16LEItEEEENS_8IINFieldENS_13QualifierCodeERKNS_14DNP3SerializerIT_EERKNS_11ICollectionINS1_ISC_EEEEPNS_21PrefixedWriteIteratorIT0_SC_EEEUlRKS3_E_EE, %object
	.size	_ZTIN8opendnp314FunctorVisitorINS_7IndexedINS_20AnalogOutputDouble64EEEZNS_22CommandResponseHandler27RespondToHeaderWithIteratorIS2_N7openpal7Bit16LEItEEEENS_8IINFieldENS_13QualifierCodeERKNS_14DNP3SerializerIT_EERKNS_11ICollectionINS1_ISC_EEEEPNS_21PrefixedWriteIteratorIT0_SC_EEEUlRKS3_E_EE, 24
_ZTIN8opendnp314FunctorVisitorINS_7IndexedINS_20AnalogOutputDouble64EEEZNS_22CommandResponseHandler27RespondToHeaderWithIteratorIS2_N7openpal7Bit16LEItEEEENS_8IINFieldENS_13QualifierCodeERKNS_14DNP3SerializerIT_EERKNS_11ICollectionINS1_ISC_EEEEPNS_21PrefixedWriteIteratorIT0_SC_EEEUlRKS3_E_EE:
	.xword	_ZTVN10__cxxabiv120__si_class_type_infoE+16
	.xword	_ZTSN8opendnp314FunctorVisitorINS_7IndexedINS_20AnalogOutputDouble64EEEZNS_22CommandResponseHandler27RespondToHeaderWithIteratorIS2_N7openpal7Bit16LEItEEEENS_8IINFieldENS_13QualifierCodeERKNS_14DNP3SerializerIT_EERKNS_11ICollectionINS1_ISC_EEEEPNS_21PrefixedWriteIteratorIT0_SC_EEEUlRKS3_E_EE
	.xword	_ZTIN8opendnp38IVisitorINS_7IndexedINS_20AnalogOutputDouble64EEEEE
	.weak	_ZTSN8opendnp314FunctorVisitorINS_7IndexedINS_23ControlRelayOutputBlockEEEZNS_22CommandResponseHandler27RespondToHeaderWithIteratorIS2_N7openpal11UInt8SimpleEEENS_8IINFieldENS_13QualifierCodeERKNS_14DNP3SerializerIT_EERKNS_11ICollectionINS1_ISB_EEEEPNS_21PrefixedWriteIteratorIT0_SB_EEEUlRKS3_E_EE
	.section	.rodata._ZTSN8opendnp314FunctorVisitorINS_7IndexedINS_23ControlRelayOutputBlockEEEZNS_22CommandResponseHandler27RespondToHeaderWithIteratorIS2_N7openpal11UInt8SimpleEEENS_8IINFieldENS_13QualifierCodeERKNS_14DNP3SerializerIT_EERKNS_11ICollectionINS1_ISB_EEEEPNS_21PrefixedWriteIteratorIT0_SB_EEEUlRKS3_E_EE,"aG",@progbits,_ZTSN8opendnp314FunctorVisitorINS_7IndexedINS_23ControlRelayOutputBlockEEEZNS_22CommandResponseHandler27RespondToHeaderWithIteratorIS2_N7openpal11UInt8SimpleEEENS_8IINFieldENS_13QualifierCodeERKNS_14DNP3SerializerIT_EERKNS_11ICollectionINS1_ISB_EEEEPNS_21PrefixedWriteIteratorIT0_SB_EEEUlRKS3_E_EE,comdat
	.align	3
	.type	_ZTSN8opendnp314FunctorVisitorINS_7IndexedINS_23ControlRelayOutputBlockEEEZNS_22CommandResponseHandler27RespondToHeaderWithIteratorIS2_N7openpal11UInt8SimpleEEENS_8IINFieldENS_13QualifierCodeERKNS_14DNP3SerializerIT_EERKNS_11ICollectionINS1_ISB_EEEEPNS_21PrefixedWriteIteratorIT0_SB_EEEUlRKS3_E_EE, %object
	.size	_ZTSN8opendnp314FunctorVisitorINS_7IndexedINS_23ControlRelayOutputBlockEEEZNS_22CommandResponseHandler27RespondToHeaderWithIteratorIS2_N7openpal11UInt8SimpleEEENS_8IINFieldENS_13QualifierCodeERKNS_14DNP3SerializerIT_EERKNS_11ICollectionINS1_ISB_EEEEPNS_21PrefixedWriteIteratorIT0_SB_EEEUlRKS3_E_EE, 294
_ZTSN8opendnp314FunctorVisitorINS_7IndexedINS_23ControlRelayOutputBlockEEEZNS_22CommandResponseHandler27RespondToHeaderWithIteratorIS2_N7openpal11UInt8SimpleEEENS_8IINFieldENS_13QualifierCodeERKNS_14DNP3SerializerIT_EERKNS_11ICollectionINS1_ISB_EEEEPNS_21PrefixedWriteIteratorIT0_SB_EEEUlRKS3_E_EE:
	.ascii	"N8opendnp314FunctorVisitorINS_7Indexe"
	.string	"dINS_23ControlRelayOutputBlockEEEZNS_22CommandResponseHandler27RespondToHeaderWithIteratorIS2_N7openpal11UInt8SimpleEEENS_8IINFieldENS_13QualifierCodeERKNS_14DNP3SerializerIT_EERKNS_11ICollectionINS1_ISB_EEEEPNS_21PrefixedWriteIteratorIT0_SB_EEEUlRKS3_E_EE"
	.weak	_ZTIN8opendnp314FunctorVisitorINS_7IndexedINS_23ControlRelayOutputBlockEEEZNS_22CommandResponseHandler27RespondToHeaderWithIteratorIS2_N7openpal11UInt8SimpleEEENS_8IINFieldENS_13QualifierCodeERKNS_14DNP3SerializerIT_EERKNS_11ICollectionINS1_ISB_EEEEPNS_21PrefixedWriteIteratorIT0_SB_EEEUlRKS3_E_EE
	.section	.data.rel.ro._ZTIN8opendnp314FunctorVisitorINS_7IndexedINS_23ControlRelayOutputBlockEEEZNS_22CommandResponseHandler27RespondToHeaderWithIteratorIS2_N7openpal11UInt8SimpleEEENS_8IINFieldENS_13QualifierCodeERKNS_14DNP3SerializerIT_EERKNS_11ICollectionINS1_ISB_EEEEPNS_21PrefixedWriteIteratorIT0_SB_EEEUlRKS3_E_EE,"awG",@progbits,_ZTIN8opendnp314FunctorVisitorINS_7IndexedINS_23ControlRelayOutputBlockEEEZNS_22CommandResponseHandler27RespondToHeaderWithIteratorIS2_N7openpal11UInt8SimpleEEENS_8IINFieldENS_13QualifierCodeERKNS_14DNP3SerializerIT_EERKNS_11ICollectionINS1_ISB_EEEEPNS_21PrefixedWriteIteratorIT0_SB_EEEUlRKS3_E_EE,comdat
	.align	3
	.type	_ZTIN8opendnp314FunctorVisitorINS_7IndexedINS_23ControlRelayOutputBlockEEEZNS_22CommandResponseHandler27RespondToHeaderWithIteratorIS2_N7openpal11UInt8SimpleEEENS_8IINFieldENS_13QualifierCodeERKNS_14DNP3SerializerIT_EERKNS_11ICollectionINS1_ISB_EEEEPNS_21PrefixedWriteIteratorIT0_SB_EEEUlRKS3_E_EE, %object
	.size	_ZTIN8opendnp314FunctorVisitorINS_7IndexedINS_23ControlRelayOutputBlockEEEZNS_22CommandResponseHandler27RespondToHeaderWithIteratorIS2_N7openpal11UInt8SimpleEEENS_8IINFieldENS_13QualifierCodeERKNS_14DNP3SerializerIT_EERKNS_11ICollectionINS1_ISB_EEEEPNS_21PrefixedWriteIteratorIT0_SB_EEEUlRKS3_E_EE, 24
_ZTIN8opendnp314FunctorVisitorINS_7IndexedINS_23ControlRelayOutputBlockEEEZNS_22CommandResponseHandler27RespondToHeaderWithIteratorIS2_N7openpal11UInt8SimpleEEENS_8IINFieldENS_13QualifierCodeERKNS_14DNP3SerializerIT_EERKNS_11ICollectionINS1_ISB_EEEEPNS_21PrefixedWriteIteratorIT0_SB_EEEUlRKS3_E_EE:
	.xword	_ZTVN10__cxxabiv120__si_class_type_infoE+16
	.xword	_ZTSN8opendnp314FunctorVisitorINS_7IndexedINS_23ControlRelayOutputBlockEEEZNS_22CommandResponseHandler27RespondToHeaderWithIteratorIS2_N7openpal11UInt8SimpleEEENS_8IINFieldENS_13QualifierCodeERKNS_14DNP3SerializerIT_EERKNS_11ICollectionINS1_ISB_EEEEPNS_21PrefixedWriteIteratorIT0_SB_EEEUlRKS3_E_EE
	.xword	_ZTIN8opendnp38IVisitorINS_7IndexedINS_23ControlRelayOutputBlockEEEEE
	.weak	_ZTSN8opendnp314FunctorVisitorINS_7IndexedINS_17AnalogOutputInt16EEEZNS_22CommandResponseHandler27RespondToHeaderWithIteratorIS2_N7openpal11UInt8SimpleEEENS_8IINFieldENS_13QualifierCodeERKNS_14DNP3SerializerIT_EERKNS_11ICollectionINS1_ISB_EEEEPNS_21PrefixedWriteIteratorIT0_SB_EEEUlRKS3_E_EE
	.section	.rodata._ZTSN8opendnp314FunctorVisitorINS_7IndexedINS_17AnalogOutputInt16EEEZNS_22CommandResponseHandler27RespondToHeaderWithIteratorIS2_N7openpal11UInt8SimpleEEENS_8IINFieldENS_13QualifierCodeERKNS_14DNP3SerializerIT_EERKNS_11ICollectionINS1_ISB_EEEEPNS_21PrefixedWriteIteratorIT0_SB_EEEUlRKS3_E_EE,"aG",@progbits,_ZTSN8opendnp314FunctorVisitorINS_7IndexedINS_17AnalogOutputInt16EEEZNS_22CommandResponseHandler27RespondToHeaderWithIteratorIS2_N7openpal11UInt8SimpleEEENS_8IINFieldENS_13QualifierCodeERKNS_14DNP3SerializerIT_EERKNS_11ICollectionINS1_ISB_EEEEPNS_21PrefixedWriteIteratorIT0_SB_EEEUlRKS3_E_EE,comdat
	.align	3
	.type	_ZTSN8opendnp314FunctorVisitorINS_7IndexedINS_17AnalogOutputInt16EEEZNS_22CommandResponseHandler27RespondToHeaderWithIteratorIS2_N7openpal11UInt8SimpleEEENS_8IINFieldENS_13QualifierCodeERKNS_14DNP3SerializerIT_EERKNS_11ICollectionINS1_ISB_EEEEPNS_21PrefixedWriteIteratorIT0_SB_EEEUlRKS3_E_EE, %object
	.size	_ZTSN8opendnp314FunctorVisitorINS_7IndexedINS_17AnalogOutputInt16EEEZNS_22CommandResponseHandler27RespondToHeaderWithIteratorIS2_N7openpal11UInt8SimpleEEENS_8IINFieldENS_13QualifierCodeERKNS_14DNP3SerializerIT_EERKNS_11ICollectionINS1_ISB_EEEEPNS_21PrefixedWriteIteratorIT0_SB_EEEUlRKS3_E_EE, 288
_ZTSN8opendnp314FunctorVisitorINS_7IndexedINS_17AnalogOutputInt16EEEZNS_22CommandResponseHandler27RespondToHeaderWithIteratorIS2_N7openpal11UInt8SimpleEEENS_8IINFieldENS_13QualifierCodeERKNS_14DNP3SerializerIT_EERKNS_11ICollectionINS1_ISB_EEEEPNS_21PrefixedWriteIteratorIT0_SB_EEEUlRKS3_E_EE:
	.ascii	"N8opendnp314FunctorVisitorINS_7"
	.string	"IndexedINS_17AnalogOutputInt16EEEZNS_22CommandResponseHandler27RespondToHeaderWithIteratorIS2_N7openpal11UInt8SimpleEEENS_8IINFieldENS_13QualifierCodeERKNS_14DNP3SerializerIT_EERKNS_11ICollectionINS1_ISB_EEEEPNS_21PrefixedWriteIteratorIT0_SB_EEEUlRKS3_E_EE"
	.weak	_ZTIN8opendnp314FunctorVisitorINS_7IndexedINS_17AnalogOutputInt16EEEZNS_22CommandResponseHandler27RespondToHeaderWithIteratorIS2_N7openpal11UInt8SimpleEEENS_8IINFieldENS_13QualifierCodeERKNS_14DNP3SerializerIT_EERKNS_11ICollectionINS1_ISB_EEEEPNS_21PrefixedWriteIteratorIT0_SB_EEEUlRKS3_E_EE
	.section	.data.rel.ro._ZTIN8opendnp314FunctorVisitorINS_7IndexedINS_17AnalogOutputInt16EEEZNS_22CommandResponseHandler27RespondToHeaderWithIteratorIS2_N7openpal11UInt8SimpleEEENS_8IINFieldENS_13QualifierCodeERKNS_14DNP3SerializerIT_EERKNS_11ICollectionINS1_ISB_EEEEPNS_21PrefixedWriteIteratorIT0_SB_EEEUlRKS3_E_EE,"awG",@progbits,_ZTIN8opendnp314FunctorVisitorINS_7IndexedINS_17AnalogOutputInt16EEEZNS_22CommandResponseHandler27RespondToHeaderWithIteratorIS2_N7openpal11UInt8SimpleEEENS_8IINFieldENS_13QualifierCodeERKNS_14DNP3SerializerIT_EERKNS_11ICollectionINS1_ISB_EEEEPNS_21PrefixedWriteIteratorIT0_SB_EEEUlRKS3_E_EE,comdat
	.align	3
	.type	_ZTIN8opendnp314FunctorVisitorINS_7IndexedINS_17AnalogOutputInt16EEEZNS_22CommandResponseHandler27RespondToHeaderWithIteratorIS2_N7openpal11UInt8SimpleEEENS_8IINFieldENS_13QualifierCodeERKNS_14DNP3SerializerIT_EERKNS_11ICollectionINS1_ISB_EEEEPNS_21PrefixedWriteIteratorIT0_SB_EEEUlRKS3_E_EE, %object
	.size	_ZTIN8opendnp314FunctorVisitorINS_7IndexedINS_17AnalogOutputInt16EEEZNS_22CommandResponseHandler27RespondToHeaderWithIteratorIS2_N7openpal11UInt8SimpleEEENS_8IINFieldENS_13QualifierCodeERKNS_14DNP3SerializerIT_EERKNS_11ICollectionINS1_ISB_EEEEPNS_21PrefixedWriteIteratorIT0_SB_EEEUlRKS3_E_EE, 24
_ZTIN8opendnp314FunctorVisitorINS_7IndexedINS_17AnalogOutputInt16EEEZNS_22CommandResponseHandler27RespondToHeaderWithIteratorIS2_N7openpal11UInt8SimpleEEENS_8IINFieldENS_13QualifierCodeERKNS_14DNP3SerializerIT_EERKNS_11ICollectionINS1_ISB_EEEEPNS_21PrefixedWriteIteratorIT0_SB_EEEUlRKS3_E_EE:
	.xword	_ZTVN10__cxxabiv120__si_class_type_infoE+16
	.xword	_ZTSN8opendnp314FunctorVisitorINS_7IndexedINS_17AnalogOutputInt16EEEZNS_22CommandResponseHandler27RespondToHeaderWithIteratorIS2_N7openpal11UInt8SimpleEEENS_8IINFieldENS_13QualifierCodeERKNS_14DNP3SerializerIT_EERKNS_11ICollectionINS1_ISB_EEEEPNS_21PrefixedWriteIteratorIT0_SB_EEEUlRKS3_E_EE
	.xword	_ZTIN8opendnp38IVisitorINS_7IndexedINS_17AnalogOutputInt16EEEEE
	.weak	_ZTSN8opendnp314FunctorVisitorINS_7IndexedINS_17AnalogOutputInt32EEEZNS_22CommandResponseHandler27RespondToHeaderWithIteratorIS2_N7openpal11UInt8SimpleEEENS_8IINFieldENS_13QualifierCodeERKNS_14DNP3SerializerIT_EERKNS_11ICollectionINS1_ISB_EEEEPNS_21PrefixedWriteIteratorIT0_SB_EEEUlRKS3_E_EE
	.section	.rodata._ZTSN8opendnp314FunctorVisitorINS_7IndexedINS_17AnalogOutputInt32EEEZNS_22CommandResponseHandler27RespondToHeaderWithIteratorIS2_N7openpal11UInt8SimpleEEENS_8IINFieldENS_13QualifierCodeERKNS_14DNP3SerializerIT_EERKNS_11ICollectionINS1_ISB_EEEEPNS_21PrefixedWriteIteratorIT0_SB_EEEUlRKS3_E_EE,"aG",@progbits,_ZTSN8opendnp314FunctorVisitorINS_7IndexedINS_17AnalogOutputInt32EEEZNS_22CommandResponseHandler27RespondToHeaderWithIteratorIS2_N7openpal11UInt8SimpleEEENS_8IINFieldENS_13QualifierCodeERKNS_14DNP3SerializerIT_EERKNS_11ICollectionINS1_ISB_EEEEPNS_21PrefixedWriteIteratorIT0_SB_EEEUlRKS3_E_EE,comdat
	.align	3
	.type	_ZTSN8opendnp314FunctorVisitorINS_7IndexedINS_17AnalogOutputInt32EEEZNS_22CommandResponseHandler27RespondToHeaderWithIteratorIS2_N7openpal11UInt8SimpleEEENS_8IINFieldENS_13QualifierCodeERKNS_14DNP3SerializerIT_EERKNS_11ICollectionINS1_ISB_EEEEPNS_21PrefixedWriteIteratorIT0_SB_EEEUlRKS3_E_EE, %object
	.size	_ZTSN8opendnp314FunctorVisitorINS_7IndexedINS_17AnalogOutputInt32EEEZNS_22CommandResponseHandler27RespondToHeaderWithIteratorIS2_N7openpal11UInt8SimpleEEENS_8IINFieldENS_13QualifierCodeERKNS_14DNP3SerializerIT_EERKNS_11ICollectionINS1_ISB_EEEEPNS_21PrefixedWriteIteratorIT0_SB_EEEUlRKS3_E_EE, 288
_ZTSN8opendnp314FunctorVisitorINS_7IndexedINS_17AnalogOutputInt32EEEZNS_22CommandResponseHandler27RespondToHeaderWithIteratorIS2_N7openpal11UInt8SimpleEEENS_8IINFieldENS_13QualifierCodeERKNS_14DNP3SerializerIT_EERKNS_11ICollectionINS1_ISB_EEEEPNS_21PrefixedWriteIteratorIT0_SB_EEEUlRKS3_E_EE:
	.ascii	"N8opendnp314FunctorVisitorINS_7"
	.string	"IndexedINS_17AnalogOutputInt32EEEZNS_22CommandResponseHandler27RespondToHeaderWithIteratorIS2_N7openpal11UInt8SimpleEEENS_8IINFieldENS_13QualifierCodeERKNS_14DNP3SerializerIT_EERKNS_11ICollectionINS1_ISB_EEEEPNS_21PrefixedWriteIteratorIT0_SB_EEEUlRKS3_E_EE"
	.weak	_ZTIN8opendnp314FunctorVisitorINS_7IndexedINS_17AnalogOutputInt32EEEZNS_22CommandResponseHandler27RespondToHeaderWithIteratorIS2_N7openpal11UInt8SimpleEEENS_8IINFieldENS_13QualifierCodeERKNS_14DNP3SerializerIT_EERKNS_11ICollectionINS1_ISB_EEEEPNS_21PrefixedWriteIteratorIT0_SB_EEEUlRKS3_E_EE
	.section	.data.rel.ro._ZTIN8opendnp314FunctorVisitorINS_7IndexedINS_17AnalogOutputInt32EEEZNS_22CommandResponseHandler27RespondToHeaderWithIteratorIS2_N7openpal11UInt8SimpleEEENS_8IINFieldENS_13QualifierCodeERKNS_14DNP3SerializerIT_EERKNS_11ICollectionINS1_ISB_EEEEPNS_21PrefixedWriteIteratorIT0_SB_EEEUlRKS3_E_EE,"awG",@progbits,_ZTIN8opendnp314FunctorVisitorINS_7IndexedINS_17AnalogOutputInt32EEEZNS_22CommandResponseHandler27RespondToHeaderWithIteratorIS2_N7openpal11UInt8SimpleEEENS_8IINFieldENS_13QualifierCodeERKNS_14DNP3SerializerIT_EERKNS_11ICollectionINS1_ISB_EEEEPNS_21PrefixedWriteIteratorIT0_SB_EEEUlRKS3_E_EE,comdat
	.align	3
	.type	_ZTIN8opendnp314FunctorVisitorINS_7IndexedINS_17AnalogOutputInt32EEEZNS_22CommandResponseHandler27RespondToHeaderWithIteratorIS2_N7openpal11UInt8SimpleEEENS_8IINFieldENS_13QualifierCodeERKNS_14DNP3SerializerIT_EERKNS_11ICollectionINS1_ISB_EEEEPNS_21PrefixedWriteIteratorIT0_SB_EEEUlRKS3_E_EE, %object
	.size	_ZTIN8opendnp314FunctorVisitorINS_7IndexedINS_17AnalogOutputInt32EEEZNS_22CommandResponseHandler27RespondToHeaderWithIteratorIS2_N7openpal11UInt8SimpleEEENS_8IINFieldENS_13QualifierCodeERKNS_14DNP3SerializerIT_EERKNS_11ICollectionINS1_ISB_EEEEPNS_21PrefixedWriteIteratorIT0_SB_EEEUlRKS3_E_EE, 24
_ZTIN8opendnp314FunctorVisitorINS_7IndexedINS_17AnalogOutputInt32EEEZNS_22CommandResponseHandler27RespondToHeaderWithIteratorIS2_N7openpal11UInt8SimpleEEENS_8IINFieldENS_13QualifierCodeERKNS_14DNP3SerializerIT_EERKNS_11ICollectionINS1_ISB_EEEEPNS_21PrefixedWriteIteratorIT0_SB_EEEUlRKS3_E_EE:
	.xword	_ZTVN10__cxxabiv120__si_class_type_infoE+16
	.xword	_ZTSN8opendnp314FunctorVisitorINS_7IndexedINS_17AnalogOutputInt32EEEZNS_22CommandResponseHandler27RespondToHeaderWithIteratorIS2_N7openpal11UInt8SimpleEEENS_8IINFieldENS_13QualifierCodeERKNS_14DNP3SerializerIT_EERKNS_11ICollectionINS1_ISB_EEEEPNS_21PrefixedWriteIteratorIT0_SB_EEEUlRKS3_E_EE
	.xword	_ZTIN8opendnp38IVisitorINS_7IndexedINS_17AnalogOutputInt32EEEEE
	.weak	_ZTSN8opendnp314FunctorVisitorINS_7IndexedINS_19AnalogOutputFloat32EEEZNS_22CommandResponseHandler27RespondToHeaderWithIteratorIS2_N7openpal11UInt8SimpleEEENS_8IINFieldENS_13QualifierCodeERKNS_14DNP3SerializerIT_EERKNS_11ICollectionINS1_ISB_EEEEPNS_21PrefixedWriteIteratorIT0_SB_EEEUlRKS3_E_EE
	.section	.rodata._ZTSN8opendnp314FunctorVisitorINS_7IndexedINS_19AnalogOutputFloat32EEEZNS_22CommandResponseHandler27RespondToHeaderWithIteratorIS2_N7openpal11UInt8SimpleEEENS_8IINFieldENS_13QualifierCodeERKNS_14DNP3SerializerIT_EERKNS_11ICollectionINS1_ISB_EEEEPNS_21PrefixedWriteIteratorIT0_SB_EEEUlRKS3_E_EE,"aG",@progbits,_ZTSN8opendnp314FunctorVisitorINS_7IndexedINS_19AnalogOutputFloat32EEEZNS_22CommandResponseHandler27RespondToHeaderWithIteratorIS2_N7openpal11UInt8SimpleEEENS_8IINFieldENS_13QualifierCodeERKNS_14DNP3SerializerIT_EERKNS_11ICollectionINS1_ISB_EEEEPNS_21PrefixedWriteIteratorIT0_SB_EEEUlRKS3_E_EE,comdat
	.align	3
	.type	_ZTSN8opendnp314FunctorVisitorINS_7IndexedINS_19AnalogOutputFloat32EEEZNS_22CommandResponseHandler27RespondToHeaderWithIteratorIS2_N7openpal11UInt8SimpleEEENS_8IINFieldENS_13QualifierCodeERKNS_14DNP3SerializerIT_EERKNS_11ICollectionINS1_ISB_EEEEPNS_21PrefixedWriteIteratorIT0_SB_EEEUlRKS3_E_EE, %object
	.size	_ZTSN8opendnp314FunctorVisitorINS_7IndexedINS_19AnalogOutputFloat32EEEZNS_22CommandResponseHandler27RespondToHeaderWithIteratorIS2_N7openpal11UInt8SimpleEEENS_8IINFieldENS_13QualifierCodeERKNS_14DNP3SerializerIT_EERKNS_11ICollectionINS1_ISB_EEEEPNS_21PrefixedWriteIteratorIT0_SB_EEEUlRKS3_E_EE, 290
_ZTSN8opendnp314FunctorVisitorINS_7IndexedINS_19AnalogOutputFloat32EEEZNS_22CommandResponseHandler27RespondToHeaderWithIteratorIS2_N7openpal11UInt8SimpleEEENS_8IINFieldENS_13QualifierCodeERKNS_14DNP3SerializerIT_EERKNS_11ICollectionINS1_ISB_EEEEPNS_21PrefixedWriteIteratorIT0_SB_EEEUlRKS3_E_EE:
	.ascii	"N8opendnp314FunctorVisitorINS_7In"
	.string	"dexedINS_19AnalogOutputFloat32EEEZNS_22CommandResponseHandler27RespondToHeaderWithIteratorIS2_N7openpal11UInt8SimpleEEENS_8IINFieldENS_13QualifierCodeERKNS_14DNP3SerializerIT_EERKNS_11ICollectionINS1_ISB_EEEEPNS_21PrefixedWriteIteratorIT0_SB_EEEUlRKS3_E_EE"
	.weak	_ZTIN8opendnp314FunctorVisitorINS_7IndexedINS_19AnalogOutputFloat32EEEZNS_22CommandResponseHandler27RespondToHeaderWithIteratorIS2_N7openpal11UInt8SimpleEEENS_8IINFieldENS_13QualifierCodeERKNS_14DNP3SerializerIT_EERKNS_11ICollectionINS1_ISB_EEEEPNS_21PrefixedWriteIteratorIT0_SB_EEEUlRKS3_E_EE
	.section	.data.rel.ro._ZTIN8opendnp314FunctorVisitorINS_7IndexedINS_19AnalogOutputFloat32EEEZNS_22CommandResponseHandler27RespondToHeaderWithIteratorIS2_N7openpal11UInt8SimpleEEENS_8IINFieldENS_13QualifierCodeERKNS_14DNP3SerializerIT_EERKNS_11ICollectionINS1_ISB_EEEEPNS_21PrefixedWriteIteratorIT0_SB_EEEUlRKS3_E_EE,"awG",@progbits,_ZTIN8opendnp314FunctorVisitorINS_7IndexedINS_19AnalogOutputFloat32EEEZNS_22CommandResponseHandler27RespondToHeaderWithIteratorIS2_N7openpal11UInt8SimpleEEENS_8IINFieldENS_13QualifierCodeERKNS_14DNP3SerializerIT_EERKNS_11ICollectionINS1_ISB_EEEEPNS_21PrefixedWriteIteratorIT0_SB_EEEUlRKS3_E_EE,comdat
	.align	3
	.type	_ZTIN8opendnp314FunctorVisitorINS_7IndexedINS_19AnalogOutputFloat32EEEZNS_22CommandResponseHandler27RespondToHeaderWithIteratorIS2_N7openpal11UInt8SimpleEEENS_8IINFieldENS_13QualifierCodeERKNS_14DNP3SerializerIT_EERKNS_11ICollectionINS1_ISB_EEEEPNS_21PrefixedWriteIteratorIT0_SB_EEEUlRKS3_E_EE, %object
	.size	_ZTIN8opendnp314FunctorVisitorINS_7IndexedINS_19AnalogOutputFloat32EEEZNS_22CommandResponseHandler27RespondToHeaderWithIteratorIS2_N7openpal11UInt8SimpleEEENS_8IINFieldENS_13QualifierCodeERKNS_14DNP3SerializerIT_EERKNS_11ICollectionINS1_ISB_EEEEPNS_21PrefixedWriteIteratorIT0_SB_EEEUlRKS3_E_EE, 24
_ZTIN8opendnp314FunctorVisitorINS_7IndexedINS_19AnalogOutputFloat32EEEZNS_22CommandResponseHandler27RespondToHeaderWithIteratorIS2_N7openpal11UInt8SimpleEEENS_8IINFieldENS_13QualifierCodeERKNS_14DNP3SerializerIT_EERKNS_11ICollectionINS1_ISB_EEEEPNS_21PrefixedWriteIteratorIT0_SB_EEEUlRKS3_E_EE:
	.xword	_ZTVN10__cxxabiv120__si_class_type_infoE+16
	.xword	_ZTSN8opendnp314FunctorVisitorINS_7IndexedINS_19AnalogOutputFloat32EEEZNS_22CommandResponseHandler27RespondToHeaderWithIteratorIS2_N7openpal11UInt8SimpleEEENS_8IINFieldENS_13QualifierCodeERKNS_14DNP3SerializerIT_EERKNS_11ICollectionINS1_ISB_EEEEPNS_21PrefixedWriteIteratorIT0_SB_EEEUlRKS3_E_EE
	.xword	_ZTIN8opendnp38IVisitorINS_7IndexedINS_19AnalogOutputFloat32EEEEE
	.weak	_ZTSN8opendnp314FunctorVisitorINS_7IndexedINS_20AnalogOutputDouble64EEEZNS_22CommandResponseHandler27RespondToHeaderWithIteratorIS2_N7openpal11UInt8SimpleEEENS_8IINFieldENS_13QualifierCodeERKNS_14DNP3SerializerIT_EERKNS_11ICollectionINS1_ISB_EEEEPNS_21PrefixedWriteIteratorIT0_SB_EEEUlRKS3_E_EE
	.section	.rodata._ZTSN8opendnp314FunctorVisitorINS_7IndexedINS_20AnalogOutputDouble64EEEZNS_22CommandResponseHandler27RespondToHeaderWithIteratorIS2_N7openpal11UInt8SimpleEEENS_8IINFieldENS_13QualifierCodeERKNS_14DNP3SerializerIT_EERKNS_11ICollectionINS1_ISB_EEEEPNS_21PrefixedWriteIteratorIT0_SB_EEEUlRKS3_E_EE,"aG",@progbits,_ZTSN8opendnp314FunctorVisitorINS_7IndexedINS_20AnalogOutputDouble64EEEZNS_22CommandResponseHandler27RespondToHeaderWithIteratorIS2_N7openpal11UInt8SimpleEEENS_8IINFieldENS_13QualifierCodeERKNS_14DNP3SerializerIT_EERKNS_11ICollectionINS1_ISB_EEEEPNS_21PrefixedWriteIteratorIT0_SB_EEEUlRKS3_E_EE,comdat
	.align	3
	.type	_ZTSN8opendnp314FunctorVisitorINS_7IndexedINS_20AnalogOutputDouble64EEEZNS_22CommandResponseHandler27RespondToHeaderWithIteratorIS2_N7openpal11UInt8SimpleEEENS_8IINFieldENS_13QualifierCodeERKNS_14DNP3SerializerIT_EERKNS_11ICollectionINS1_ISB_EEEEPNS_21PrefixedWriteIteratorIT0_SB_EEEUlRKS3_E_EE, %object
	.size	_ZTSN8opendnp314FunctorVisitorINS_7IndexedINS_20AnalogOutputDouble64EEEZNS_22CommandResponseHandler27RespondToHeaderWithIteratorIS2_N7openpal11UInt8SimpleEEENS_8IINFieldENS_13QualifierCodeERKNS_14DNP3SerializerIT_EERKNS_11ICollectionINS1_ISB_EEEEPNS_21PrefixedWriteIteratorIT0_SB_EEEUlRKS3_E_EE, 291
_ZTSN8opendnp314FunctorVisitorINS_7IndexedINS_20AnalogOutputDouble64EEEZNS_22CommandResponseHandler27RespondToHeaderWithIteratorIS2_N7openpal11UInt8SimpleEEENS_8IINFieldENS_13QualifierCodeERKNS_14DNP3SerializerIT_EERKNS_11ICollectionINS1_ISB_EEEEPNS_21PrefixedWriteIteratorIT0_SB_EEEUlRKS3_E_EE:
	.ascii	"N8opendnp314FunctorVisitorINS_7Ind"
	.string	"exedINS_20AnalogOutputDouble64EEEZNS_22CommandResponseHandler27RespondToHeaderWithIteratorIS2_N7openpal11UInt8SimpleEEENS_8IINFieldENS_13QualifierCodeERKNS_14DNP3SerializerIT_EERKNS_11ICollectionINS1_ISB_EEEEPNS_21PrefixedWriteIteratorIT0_SB_EEEUlRKS3_E_EE"
	.weak	_ZTIN8opendnp314FunctorVisitorINS_7IndexedINS_20AnalogOutputDouble64EEEZNS_22CommandResponseHandler27RespondToHeaderWithIteratorIS2_N7openpal11UInt8SimpleEEENS_8IINFieldENS_13QualifierCodeERKNS_14DNP3SerializerIT_EERKNS_11ICollectionINS1_ISB_EEEEPNS_21PrefixedWriteIteratorIT0_SB_EEEUlRKS3_E_EE
	.section	.data.rel.ro._ZTIN8opendnp314FunctorVisitorINS_7IndexedINS_20AnalogOutputDouble64EEEZNS_22CommandResponseHandler27RespondToHeaderWithIteratorIS2_N7openpal11UInt8SimpleEEENS_8IINFieldENS_13QualifierCodeERKNS_14DNP3SerializerIT_EERKNS_11ICollectionINS1_ISB_EEEEPNS_21PrefixedWriteIteratorIT0_SB_EEEUlRKS3_E_EE,"awG",@progbits,_ZTIN8opendnp314FunctorVisitorINS_7IndexedINS_20AnalogOutputDouble64EEEZNS_22CommandResponseHandler27RespondToHeaderWithIteratorIS2_N7openpal11UInt8SimpleEEENS_8IINFieldENS_13QualifierCodeERKNS_14DNP3SerializerIT_EERKNS_11ICollectionINS1_ISB_EEEEPNS_21PrefixedWriteIteratorIT0_SB_EEEUlRKS3_E_EE,comdat
	.align	3
	.type	_ZTIN8opendnp314FunctorVisitorINS_7IndexedINS_20AnalogOutputDouble64EEEZNS_22CommandResponseHandler27RespondToHeaderWithIteratorIS2_N7openpal11UInt8SimpleEEENS_8IINFieldENS_13QualifierCodeERKNS_14DNP3SerializerIT_EERKNS_11ICollectionINS1_ISB_EEEEPNS_21PrefixedWriteIteratorIT0_SB_EEEUlRKS3_E_EE, %object
	.size	_ZTIN8opendnp314FunctorVisitorINS_7IndexedINS_20AnalogOutputDouble64EEEZNS_22CommandResponseHandler27RespondToHeaderWithIteratorIS2_N7openpal11UInt8SimpleEEENS_8IINFieldENS_13QualifierCodeERKNS_14DNP3SerializerIT_EERKNS_11ICollectionINS1_ISB_EEEEPNS_21PrefixedWriteIteratorIT0_SB_EEEUlRKS3_E_EE, 24
_ZTIN8opendnp314FunctorVisitorINS_7IndexedINS_20AnalogOutputDouble64EEEZNS_22CommandResponseHandler27RespondToHeaderWithIteratorIS2_N7openpal11UInt8SimpleEEENS_8IINFieldENS_13QualifierCodeERKNS_14DNP3SerializerIT_EERKNS_11ICollectionINS1_ISB_EEEEPNS_21PrefixedWriteIteratorIT0_SB_EEEUlRKS3_E_EE:
	.xword	_ZTVN10__cxxabiv120__si_class_type_infoE+16
	.xword	_ZTSN8opendnp314FunctorVisitorINS_7IndexedINS_20AnalogOutputDouble64EEEZNS_22CommandResponseHandler27RespondToHeaderWithIteratorIS2_N7openpal11UInt8SimpleEEENS_8IINFieldENS_13QualifierCodeERKNS_14DNP3SerializerIT_EERKNS_11ICollectionINS1_ISB_EEEEPNS_21PrefixedWriteIteratorIT0_SB_EEEUlRKS3_E_EE
	.xword	_ZTIN8opendnp38IVisitorINS_7IndexedINS_20AnalogOutputDouble64EEEEE
	.weak	_ZTVN8opendnp322CommandResponseHandlerE
	.section	.data.rel.ro._ZTVN8opendnp322CommandResponseHandlerE,"awG",@progbits,_ZTVN8opendnp322CommandResponseHandlerE,comdat
	.align	3
	.type	_ZTVN8opendnp322CommandResponseHandlerE, %object
	.size	_ZTVN8opendnp322CommandResponseHandlerE, 448
_ZTVN8opendnp322CommandResponseHandlerE:
	.xword	0
	.xword	_ZTIN8opendnp322CommandResponseHandlerE
	.xword	_ZN8opendnp322CommandResponseHandler9IsAllowedEjNS_14GroupVariationENS_13QualifierCodeE
	.xword	_ZN8opendnp312IAPDUHandler13ProcessHeaderERKNS_16AllObjectsHeaderE
	.xword	_ZN8opendnp312IAPDUHandler13ProcessHeaderERKNS_11RangeHeaderE
	.xword	_ZN8opendnp312IAPDUHandler13ProcessHeaderERKNS_11CountHeaderE
	.xword	_ZN8opendnp312IAPDUHandler13ProcessHeaderERKNS_16FreeFormatHeaderERKNS_12Group120Var1ERKN7openpal6RSliceE
	.xword	_ZN8opendnp312IAPDUHandler13ProcessHeaderERKNS_16FreeFormatHeaderERKNS_12Group120Var2ERKN7openpal6RSliceE
	.xword	_ZN8opendnp312IAPDUHandler13ProcessHeaderERKNS_16FreeFormatHeaderERKNS_12Group120Var5ERKN7openpal6RSliceE
	.xword	_ZN8opendnp312IAPDUHandler13ProcessHeaderERKNS_16FreeFormatHeaderERKNS_12Group120Var6ERKN7openpal6RSliceE
	.xword	_ZN8opendnp312IAPDUHandler13ProcessHeaderERKNS_16FreeFormatHeaderERKNS_12Group120Var8ERKN7openpal6RSliceE
	.xword	_ZN8opendnp312IAPDUHandler13ProcessHeaderERKNS_16FreeFormatHeaderERKNS_12Group120Var7ERKN7openpal6RSliceE
	.xword	_ZN8opendnp312IAPDUHandler13ProcessHeaderERKNS_16FreeFormatHeaderERKNS_12Group120Var9ERKN7openpal6RSliceE
	.xword	_ZN8opendnp312IAPDUHandler13ProcessHeaderERKNS_16FreeFormatHeaderERKNS_13Group120Var10ERKN7openpal6RSliceE
	.xword	_ZN8opendnp312IAPDUHandler13ProcessHeaderERKNS_16FreeFormatHeaderERKNS_13Group120Var11ERKN7openpal6RSliceE
	.xword	_ZN8opendnp312IAPDUHandler13ProcessHeaderERKNS_16FreeFormatHeaderERKNS_13Group120Var12ERKN7openpal6RSliceE
	.xword	_ZN8opendnp312IAPDUHandler13ProcessHeaderERKNS_16FreeFormatHeaderERKNS_13Group120Var13ERKN7openpal6RSliceE
	.xword	_ZN8opendnp312IAPDUHandler13ProcessHeaderERKNS_16FreeFormatHeaderERKNS_13Group120Var14ERKN7openpal6RSliceE
	.xword	_ZN8opendnp312IAPDUHandler13ProcessHeaderERKNS_16FreeFormatHeaderERKNS_13Group120Var15ERKN7openpal6RSliceE
	.xword	_ZN8opendnp312IAPDUHandler13ProcessHeaderERKNS_11CountHeaderERKNS_11ICollectionINS_11Group50Var1EEE
	.xword	_ZN8opendnp312IAPDUHandler13ProcessHeaderERKNS_11CountHeaderERKNS_11ICollectionINS_11Group51Var1EEE
	.xword	_ZN8opendnp312IAPDUHandler13ProcessHeaderERKNS_11CountHeaderERKNS_11ICollectionINS_11Group51Var2EEE
	.xword	_ZN8opendnp312IAPDUHandler13ProcessHeaderERKNS_11CountHeaderERKNS_11ICollectionINS_11Group52Var1EEE
	.xword	_ZN8opendnp312IAPDUHandler13ProcessHeaderERKNS_11CountHeaderERKNS_11ICollectionINS_11Group52Var2EEE
	.xword	_ZN8opendnp312IAPDUHandler13ProcessHeaderERKNS_11CountHeaderERKNS_11ICollectionINS_12Group120Var3EEE
	.xword	_ZN8opendnp312IAPDUHandler13ProcessHeaderERKNS_11CountHeaderERKNS_11ICollectionINS_12Group120Var4EEE
	.xword	_ZN8opendnp312IAPDUHandler13ProcessHeaderERKNS_11RangeHeaderERKNS_11ICollectionINS_7IndexedINS_8IINValueEEEEE
	.xword	_ZN8opendnp312IAPDUHandler13ProcessHeaderERKNS_11RangeHeaderERKNS_11ICollectionINS_7IndexedINS_6BinaryEEEEE
	.xword	_ZN8opendnp312IAPDUHandler13ProcessHeaderERKNS_11RangeHeaderERKNS_11ICollectionINS_7IndexedINS_15DoubleBitBinaryEEEEE
	.xword	_ZN8opendnp312IAPDUHandler13ProcessHeaderERKNS_11RangeHeaderERKNS_11ICollectionINS_7IndexedINS_18BinaryOutputStatusEEEEE
	.xword	_ZN8opendnp312IAPDUHandler13ProcessHeaderERKNS_11RangeHeaderERKNS_11ICollectionINS_7IndexedINS_7CounterEEEEE
	.xword	_ZN8opendnp312IAPDUHandler13ProcessHeaderERKNS_11RangeHeaderERKNS_11ICollectionINS_7IndexedINS_13FrozenCounterEEEEE
	.xword	_ZN8opendnp312IAPDUHandler13ProcessHeaderERKNS_11RangeHeaderERKNS_11ICollectionINS_7IndexedINS_6AnalogEEEEE
	.xword	_ZN8opendnp312IAPDUHandler13ProcessHeaderERKNS_11RangeHeaderERKNS_11ICollectionINS_7IndexedINS_18AnalogOutputStatusEEEEE
	.xword	_ZN8opendnp312IAPDUHandler13ProcessHeaderERKNS_11RangeHeaderERKNS_11ICollectionINS_7IndexedINS_11OctetStringEEEEE
	.xword	_ZN8opendnp312IAPDUHandler13ProcessHeaderERKNS_11RangeHeaderERKNS_11ICollectionINS_7IndexedINS_15TimeAndIntervalEEEEE
	.xword	_ZN8opendnp312IAPDUHandler13ProcessHeaderERKNS_11RangeHeaderERKNS_11ICollectionINS_7IndexedINS_12Group121Var1EEEEE
	.xword	_ZN8opendnp312IAPDUHandler13ProcessHeaderERKNS_12PrefixHeaderERKNS_11ICollectionINS_7IndexedINS_6BinaryEEEEE
	.xword	_ZN8opendnp312IAPDUHandler13ProcessHeaderERKNS_12PrefixHeaderERKNS_11ICollectionINS_7IndexedINS_18BinaryOutputStatusEEEEE
	.xword	_ZN8opendnp312IAPDUHandler13ProcessHeaderERKNS_12PrefixHeaderERKNS_11ICollectionINS_7IndexedINS_15DoubleBitBinaryEEEEE
	.xword	_ZN8opendnp312IAPDUHandler13ProcessHeaderERKNS_12PrefixHeaderERKNS_11ICollectionINS_7IndexedINS_7CounterEEEEE
	.xword	_ZN8opendnp312IAPDUHandler13ProcessHeaderERKNS_12PrefixHeaderERKNS_11ICollectionINS_7IndexedINS_13FrozenCounterEEEEE
	.xword	_ZN8opendnp312IAPDUHandler13ProcessHeaderERKNS_12PrefixHeaderERKNS_11ICollectionINS_7IndexedINS_6AnalogEEEEE
	.xword	_ZN8opendnp312IAPDUHandler13ProcessHeaderERKNS_12PrefixHeaderERKNS_11ICollectionINS_7IndexedINS_18AnalogOutputStatusEEEEE
	.xword	_ZN8opendnp312IAPDUHandler13ProcessHeaderERKNS_12PrefixHeaderERKNS_11ICollectionINS_7IndexedINS_11OctetStringEEEEE
	.xword	_ZN8opendnp312IAPDUHandler13ProcessHeaderERKNS_12PrefixHeaderERKNS_11ICollectionINS_7IndexedINS_15TimeAndIntervalEEEEE
	.xword	_ZN8opendnp312IAPDUHandler13ProcessHeaderERKNS_12PrefixHeaderERKNS_11ICollectionINS_7IndexedINS_18BinaryCommandEventEEEEE
	.xword	_ZN8opendnp312IAPDUHandler13ProcessHeaderERKNS_12PrefixHeaderERKNS_11ICollectionINS_7IndexedINS_18AnalogCommandEventEEEEE
	.xword	_ZN8opendnp312IAPDUHandler13ProcessHeaderERKNS_12PrefixHeaderERKNS_11ICollectionINS_7IndexedINS_12Group122Var1EEEEE
	.xword	_ZN8opendnp312IAPDUHandler13ProcessHeaderERKNS_12PrefixHeaderERKNS_11ICollectionINS_7IndexedINS_12Group122Var2EEEEE
	.xword	_ZN8opendnp322CommandResponseHandler13ProcessHeaderERKNS_12PrefixHeaderERKNS_11ICollectionINS_7IndexedINS_23ControlRelayOutputBlockEEEEE
	.xword	_ZN8opendnp322CommandResponseHandler13ProcessHeaderERKNS_12PrefixHeaderERKNS_11ICollectionINS_7IndexedINS_17AnalogOutputInt16EEEEE
	.xword	_ZN8opendnp322CommandResponseHandler13ProcessHeaderERKNS_12PrefixHeaderERKNS_11ICollectionINS_7IndexedINS_17AnalogOutputInt32EEEEE
	.xword	_ZN8opendnp322CommandResponseHandler13ProcessHeaderERKNS_12PrefixHeaderERKNS_11ICollectionINS_7IndexedINS_19AnalogOutputFloat32EEEEE
	.xword	_ZN8opendnp322CommandResponseHandler13ProcessHeaderERKNS_12PrefixHeaderERKNS_11ICollectionINS_7IndexedINS_20AnalogOutputDouble64EEEEE
	.xword	_ZN8opendnp312IAPDUHandler14OnHeaderResultERKNS_12HeaderRecordERKNS_8IINFieldE
	.weak	_ZTVN8opendnp314FunctorVisitorINS_7IndexedINS_23ControlRelayOutputBlockEEEZNS_22CommandResponseHandler27RespondToHeaderWithIteratorIS2_N7openpal7Bit16LEItEEEENS_8IINFieldENS_13QualifierCodeERKNS_14DNP3SerializerIT_EERKNS_11ICollectionINS1_ISC_EEEEPNS_21PrefixedWriteIteratorIT0_SC_EEEUlRKS3_E_EE
	.section	.data.rel.ro._ZTVN8opendnp314FunctorVisitorINS_7IndexedINS_23ControlRelayOutputBlockEEEZNS_22CommandResponseHandler27RespondToHeaderWithIteratorIS2_N7openpal7Bit16LEItEEEENS_8IINFieldENS_13QualifierCodeERKNS_14DNP3SerializerIT_EERKNS_11ICollectionINS1_ISC_EEEEPNS_21PrefixedWriteIteratorIT0_SC_EEEUlRKS3_E_EE,"awG",@progbits,_ZTVN8opendnp314FunctorVisitorINS_7IndexedINS_23ControlRelayOutputBlockEEEZNS_22CommandResponseHandler27RespondToHeaderWithIteratorIS2_N7openpal7Bit16LEItEEEENS_8IINFieldENS_13QualifierCodeERKNS_14DNP3SerializerIT_EERKNS_11ICollectionINS1_ISC_EEEEPNS_21PrefixedWriteIteratorIT0_SC_EEEUlRKS3_E_EE,comdat
	.align	3
	.type	_ZTVN8opendnp314FunctorVisitorINS_7IndexedINS_23ControlRelayOutputBlockEEEZNS_22CommandResponseHandler27RespondToHeaderWithIteratorIS2_N7openpal7Bit16LEItEEEENS_8IINFieldENS_13QualifierCodeERKNS_14DNP3SerializerIT_EERKNS_11ICollectionINS1_ISC_EEEEPNS_21PrefixedWriteIteratorIT0_SC_EEEUlRKS3_E_EE, %object
	.size	_ZTVN8opendnp314FunctorVisitorINS_7IndexedINS_23ControlRelayOutputBlockEEEZNS_22CommandResponseHandler27RespondToHeaderWithIteratorIS2_N7openpal7Bit16LEItEEEENS_8IINFieldENS_13QualifierCodeERKNS_14DNP3SerializerIT_EERKNS_11ICollectionINS1_ISC_EEEEPNS_21PrefixedWriteIteratorIT0_SC_EEEUlRKS3_E_EE, 24
_ZTVN8opendnp314FunctorVisitorINS_7IndexedINS_23ControlRelayOutputBlockEEEZNS_22CommandResponseHandler27RespondToHeaderWithIteratorIS2_N7openpal7Bit16LEItEEEENS_8IINFieldENS_13QualifierCodeERKNS_14DNP3SerializerIT_EERKNS_11ICollectionINS1_ISC_EEEEPNS_21PrefixedWriteIteratorIT0_SC_EEEUlRKS3_E_EE:
	.xword	0
	.xword	_ZTIN8opendnp314FunctorVisitorINS_7IndexedINS_23ControlRelayOutputBlockEEEZNS_22CommandResponseHandler27RespondToHeaderWithIteratorIS2_N7openpal7Bit16LEItEEEENS_8IINFieldENS_13QualifierCodeERKNS_14DNP3SerializerIT_EERKNS_11ICollectionINS1_ISC_EEEEPNS_21PrefixedWriteIteratorIT0_SC_EEEUlRKS3_E_EE
	.xword	_ZN8opendnp314FunctorVisitorINS_7IndexedINS_23ControlRelayOutputBlockEEEZNS_22CommandResponseHandler27RespondToHeaderWithIteratorIS2_N7openpal7Bit16LEItEEEENS_8IINFieldENS_13QualifierCodeERKNS_14DNP3SerializerIT_EERKNS_11ICollectionINS1_ISC_EEEEPNS_21PrefixedWriteIteratorIT0_SC_EEEUlRKS3_E_E7OnValueESQ_
	.weak	_ZTVN8opendnp314FunctorVisitorINS_7IndexedINS_17AnalogOutputInt16EEEZNS_22CommandResponseHandler27RespondToHeaderWithIteratorIS2_N7openpal7Bit16LEItEEEENS_8IINFieldENS_13QualifierCodeERKNS_14DNP3SerializerIT_EERKNS_11ICollectionINS1_ISC_EEEEPNS_21PrefixedWriteIteratorIT0_SC_EEEUlRKS3_E_EE
	.section	.data.rel.ro._ZTVN8opendnp314FunctorVisitorINS_7IndexedINS_17AnalogOutputInt16EEEZNS_22CommandResponseHandler27RespondToHeaderWithIteratorIS2_N7openpal7Bit16LEItEEEENS_8IINFieldENS_13QualifierCodeERKNS_14DNP3SerializerIT_EERKNS_11ICollectionINS1_ISC_EEEEPNS_21PrefixedWriteIteratorIT0_SC_EEEUlRKS3_E_EE,"awG",@progbits,_ZTVN8opendnp314FunctorVisitorINS_7IndexedINS_17AnalogOutputInt16EEEZNS_22CommandResponseHandler27RespondToHeaderWithIteratorIS2_N7openpal7Bit16LEItEEEENS_8IINFieldENS_13QualifierCodeERKNS_14DNP3SerializerIT_EERKNS_11ICollectionINS1_ISC_EEEEPNS_21PrefixedWriteIteratorIT0_SC_EEEUlRKS3_E_EE,comdat
	.align	3
	.type	_ZTVN8opendnp314FunctorVisitorINS_7IndexedINS_17AnalogOutputInt16EEEZNS_22CommandResponseHandler27RespondToHeaderWithIteratorIS2_N7openpal7Bit16LEItEEEENS_8IINFieldENS_13QualifierCodeERKNS_14DNP3SerializerIT_EERKNS_11ICollectionINS1_ISC_EEEEPNS_21PrefixedWriteIteratorIT0_SC_EEEUlRKS3_E_EE, %object
	.size	_ZTVN8opendnp314FunctorVisitorINS_7IndexedINS_17AnalogOutputInt16EEEZNS_22CommandResponseHandler27RespondToHeaderWithIteratorIS2_N7openpal7Bit16LEItEEEENS_8IINFieldENS_13QualifierCodeERKNS_14DNP3SerializerIT_EERKNS_11ICollectionINS1_ISC_EEEEPNS_21PrefixedWriteIteratorIT0_SC_EEEUlRKS3_E_EE, 24
_ZTVN8opendnp314FunctorVisitorINS_7IndexedINS_17AnalogOutputInt16EEEZNS_22CommandResponseHandler27RespondToHeaderWithIteratorIS2_N7openpal7Bit16LEItEEEENS_8IINFieldENS_13QualifierCodeERKNS_14DNP3SerializerIT_EERKNS_11ICollectionINS1_ISC_EEEEPNS_21PrefixedWriteIteratorIT0_SC_EEEUlRKS3_E_EE:
	.xword	0
	.xword	_ZTIN8opendnp314FunctorVisitorINS_7IndexedINS_17AnalogOutputInt16EEEZNS_22CommandResponseHandler27RespondToHeaderWithIteratorIS2_N7openpal7Bit16LEItEEEENS_8IINFieldENS_13QualifierCodeERKNS_14DNP3SerializerIT_EERKNS_11ICollectionINS1_ISC_EEEEPNS_21PrefixedWriteIteratorIT0_SC_EEEUlRKS3_E_EE
	.xword	_ZN8opendnp314FunctorVisitorINS_7IndexedINS_17AnalogOutputInt16EEEZNS_22CommandResponseHandler27RespondToHeaderWithIteratorIS2_N7openpal7Bit16LEItEEEENS_8IINFieldENS_13QualifierCodeERKNS_14DNP3SerializerIT_EERKNS_11ICollectionINS1_ISC_EEEEPNS_21PrefixedWriteIteratorIT0_SC_EEEUlRKS3_E_E7OnValueESQ_
	.weak	_ZTVN8opendnp314FunctorVisitorINS_7IndexedINS_17AnalogOutputInt32EEEZNS_22CommandResponseHandler27RespondToHeaderWithIteratorIS2_N7openpal7Bit16LEItEEEENS_8IINFieldENS_13QualifierCodeERKNS_14DNP3SerializerIT_EERKNS_11ICollectionINS1_ISC_EEEEPNS_21PrefixedWriteIteratorIT0_SC_EEEUlRKS3_E_EE
	.section	.data.rel.ro._ZTVN8opendnp314FunctorVisitorINS_7IndexedINS_17AnalogOutputInt32EEEZNS_22CommandResponseHandler27RespondToHeaderWithIteratorIS2_N7openpal7Bit16LEItEEEENS_8IINFieldENS_13QualifierCodeERKNS_14DNP3SerializerIT_EERKNS_11ICollectionINS1_ISC_EEEEPNS_21PrefixedWriteIteratorIT0_SC_EEEUlRKS3_E_EE,"awG",@progbits,_ZTVN8opendnp314FunctorVisitorINS_7IndexedINS_17AnalogOutputInt32EEEZNS_22CommandResponseHandler27RespondToHeaderWithIteratorIS2_N7openpal7Bit16LEItEEEENS_8IINFieldENS_13QualifierCodeERKNS_14DNP3SerializerIT_EERKNS_11ICollectionINS1_ISC_EEEEPNS_21PrefixedWriteIteratorIT0_SC_EEEUlRKS3_E_EE,comdat
	.align	3
	.type	_ZTVN8opendnp314FunctorVisitorINS_7IndexedINS_17AnalogOutputInt32EEEZNS_22CommandResponseHandler27RespondToHeaderWithIteratorIS2_N7openpal7Bit16LEItEEEENS_8IINFieldENS_13QualifierCodeERKNS_14DNP3SerializerIT_EERKNS_11ICollectionINS1_ISC_EEEEPNS_21PrefixedWriteIteratorIT0_SC_EEEUlRKS3_E_EE, %object
	.size	_ZTVN8opendnp314FunctorVisitorINS_7IndexedINS_17AnalogOutputInt32EEEZNS_22CommandResponseHandler27RespondToHeaderWithIteratorIS2_N7openpal7Bit16LEItEEEENS_8IINFieldENS_13QualifierCodeERKNS_14DNP3SerializerIT_EERKNS_11ICollectionINS1_ISC_EEEEPNS_21PrefixedWriteIteratorIT0_SC_EEEUlRKS3_E_EE, 24
_ZTVN8opendnp314FunctorVisitorINS_7IndexedINS_17AnalogOutputInt32EEEZNS_22CommandResponseHandler27RespondToHeaderWithIteratorIS2_N7openpal7Bit16LEItEEEENS_8IINFieldENS_13QualifierCodeERKNS_14DNP3SerializerIT_EERKNS_11ICollectionINS1_ISC_EEEEPNS_21PrefixedWriteIteratorIT0_SC_EEEUlRKS3_E_EE:
	.xword	0
	.xword	_ZTIN8opendnp314FunctorVisitorINS_7IndexedINS_17AnalogOutputInt32EEEZNS_22CommandResponseHandler27RespondToHeaderWithIteratorIS2_N7openpal7Bit16LEItEEEENS_8IINFieldENS_13QualifierCodeERKNS_14DNP3SerializerIT_EERKNS_11ICollectionINS1_ISC_EEEEPNS_21PrefixedWriteIteratorIT0_SC_EEEUlRKS3_E_EE
	.xword	_ZN8opendnp314FunctorVisitorINS_7IndexedINS_17AnalogOutputInt32EEEZNS_22CommandResponseHandler27RespondToHeaderWithIteratorIS2_N7openpal7Bit16LEItEEEENS_8IINFieldENS_13QualifierCodeERKNS_14DNP3SerializerIT_EERKNS_11ICollectionINS1_ISC_EEEEPNS_21PrefixedWriteIteratorIT0_SC_EEEUlRKS3_E_E7OnValueESQ_
	.weak	_ZTVN8opendnp314FunctorVisitorINS_7IndexedINS_19AnalogOutputFloat32EEEZNS_22CommandResponseHandler27RespondToHeaderWithIteratorIS2_N7openpal7Bit16LEItEEEENS_8IINFieldENS_13QualifierCodeERKNS_14DNP3SerializerIT_EERKNS_11ICollectionINS1_ISC_EEEEPNS_21PrefixedWriteIteratorIT0_SC_EEEUlRKS3_E_EE
	.section	.data.rel.ro._ZTVN8opendnp314FunctorVisitorINS_7IndexedINS_19AnalogOutputFloat32EEEZNS_22CommandResponseHandler27RespondToHeaderWithIteratorIS2_N7openpal7Bit16LEItEEEENS_8IINFieldENS_13QualifierCodeERKNS_14DNP3SerializerIT_EERKNS_11ICollectionINS1_ISC_EEEEPNS_21PrefixedWriteIteratorIT0_SC_EEEUlRKS3_E_EE,"awG",@progbits,_ZTVN8opendnp314FunctorVisitorINS_7IndexedINS_19AnalogOutputFloat32EEEZNS_22CommandResponseHandler27RespondToHeaderWithIteratorIS2_N7openpal7Bit16LEItEEEENS_8IINFieldENS_13QualifierCodeERKNS_14DNP3SerializerIT_EERKNS_11ICollectionINS1_ISC_EEEEPNS_21PrefixedWriteIteratorIT0_SC_EEEUlRKS3_E_EE,comdat
	.align	3
	.type	_ZTVN8opendnp314FunctorVisitorINS_7IndexedINS_19AnalogOutputFloat32EEEZNS_22CommandResponseHandler27RespondToHeaderWithIteratorIS2_N7openpal7Bit16LEItEEEENS_8IINFieldENS_13QualifierCodeERKNS_14DNP3SerializerIT_EERKNS_11ICollectionINS1_ISC_EEEEPNS_21PrefixedWriteIteratorIT0_SC_EEEUlRKS3_E_EE, %object
	.size	_ZTVN8opendnp314FunctorVisitorINS_7IndexedINS_19AnalogOutputFloat32EEEZNS_22CommandResponseHandler27RespondToHeaderWithIteratorIS2_N7openpal7Bit16LEItEEEENS_8IINFieldENS_13QualifierCodeERKNS_14DNP3SerializerIT_EERKNS_11ICollectionINS1_ISC_EEEEPNS_21PrefixedWriteIteratorIT0_SC_EEEUlRKS3_E_EE, 24
_ZTVN8opendnp314FunctorVisitorINS_7IndexedINS_19AnalogOutputFloat32EEEZNS_22CommandResponseHandler27RespondToHeaderWithIteratorIS2_N7openpal7Bit16LEItEEEENS_8IINFieldENS_13QualifierCodeERKNS_14DNP3SerializerIT_EERKNS_11ICollectionINS1_ISC_EEEEPNS_21PrefixedWriteIteratorIT0_SC_EEEUlRKS3_E_EE:
	.xword	0
	.xword	_ZTIN8opendnp314FunctorVisitorINS_7IndexedINS_19AnalogOutputFloat32EEEZNS_22CommandResponseHandler27RespondToHeaderWithIteratorIS2_N7openpal7Bit16LEItEEEENS_8IINFieldENS_13QualifierCodeERKNS_14DNP3SerializerIT_EERKNS_11ICollectionINS1_ISC_EEEEPNS_21PrefixedWriteIteratorIT0_SC_EEEUlRKS3_E_EE
	.xword	_ZN8opendnp314FunctorVisitorINS_7IndexedINS_19AnalogOutputFloat32EEEZNS_22CommandResponseHandler27RespondToHeaderWithIteratorIS2_N7openpal7Bit16LEItEEEENS_8IINFieldENS_13QualifierCodeERKNS_14DNP3SerializerIT_EERKNS_11ICollectionINS1_ISC_EEEEPNS_21PrefixedWriteIteratorIT0_SC_EEEUlRKS3_E_E7OnValueESQ_
	.weak	_ZTVN8opendnp314FunctorVisitorINS_7IndexedINS_20AnalogOutputDouble64EEEZNS_22CommandResponseHandler27RespondToHeaderWithIteratorIS2_N7openpal7Bit16LEItEEEENS_8IINFieldENS_13QualifierCodeERKNS_14DNP3SerializerIT_EERKNS_11ICollectionINS1_ISC_EEEEPNS_21PrefixedWriteIteratorIT0_SC_EEEUlRKS3_E_EE
	.section	.data.rel.ro._ZTVN8opendnp314FunctorVisitorINS_7IndexedINS_20AnalogOutputDouble64EEEZNS_22CommandResponseHandler27RespondToHeaderWithIteratorIS2_N7openpal7Bit16LEItEEEENS_8IINFieldENS_13QualifierCodeERKNS_14DNP3SerializerIT_EERKNS_11ICollectionINS1_ISC_EEEEPNS_21PrefixedWriteIteratorIT0_SC_EEEUlRKS3_E_EE,"awG",@progbits,_ZTVN8opendnp314FunctorVisitorINS_7IndexedINS_20AnalogOutputDouble64EEEZNS_22CommandResponseHandler27RespondToHeaderWithIteratorIS2_N7openpal7Bit16LEItEEEENS_8IINFieldENS_13QualifierCodeERKNS_14DNP3SerializerIT_EERKNS_11ICollectionINS1_ISC_EEEEPNS_21PrefixedWriteIteratorIT0_SC_EEEUlRKS3_E_EE,comdat
	.align	3
	.type	_ZTVN8opendnp314FunctorVisitorINS_7IndexedINS_20AnalogOutputDouble64EEEZNS_22CommandResponseHandler27RespondToHeaderWithIteratorIS2_N7openpal7Bit16LEItEEEENS_8IINFieldENS_13QualifierCodeERKNS_14DNP3SerializerIT_EERKNS_11ICollectionINS1_ISC_EEEEPNS_21PrefixedWriteIteratorIT0_SC_EEEUlRKS3_E_EE, %object
	.size	_ZTVN8opendnp314FunctorVisitorINS_7IndexedINS_20AnalogOutputDouble64EEEZNS_22CommandResponseHandler27RespondToHeaderWithIteratorIS2_N7openpal7Bit16LEItEEEENS_8IINFieldENS_13QualifierCodeERKNS_14DNP3SerializerIT_EERKNS_11ICollectionINS1_ISC_EEEEPNS_21PrefixedWriteIteratorIT0_SC_EEEUlRKS3_E_EE, 24
_ZTVN8opendnp314FunctorVisitorINS_7IndexedINS_20AnalogOutputDouble64EEEZNS_22CommandResponseHandler27RespondToHeaderWithIteratorIS2_N7openpal7Bit16LEItEEEENS_8IINFieldENS_13QualifierCodeERKNS_14DNP3SerializerIT_EERKNS_11ICollectionINS1_ISC_EEEEPNS_21PrefixedWriteIteratorIT0_SC_EEEUlRKS3_E_EE:
	.xword	0
	.xword	_ZTIN8opendnp314FunctorVisitorINS_7IndexedINS_20AnalogOutputDouble64EEEZNS_22CommandResponseHandler27RespondToHeaderWithIteratorIS2_N7openpal7Bit16LEItEEEENS_8IINFieldENS_13QualifierCodeERKNS_14DNP3SerializerIT_EERKNS_11ICollectionINS1_ISC_EEEEPNS_21PrefixedWriteIteratorIT0_SC_EEEUlRKS3_E_EE
	.xword	_ZN8opendnp314FunctorVisitorINS_7IndexedINS_20AnalogOutputDouble64EEEZNS_22CommandResponseHandler27RespondToHeaderWithIteratorIS2_N7openpal7Bit16LEItEEEENS_8IINFieldENS_13QualifierCodeERKNS_14DNP3SerializerIT_EERKNS_11ICollectionINS1_ISC_EEEEPNS_21PrefixedWriteIteratorIT0_SC_EEEUlRKS3_E_E7OnValueESQ_
	.weak	_ZTVN8opendnp314FunctorVisitorINS_7IndexedINS_23ControlRelayOutputBlockEEEZNS_22CommandResponseHandler27RespondToHeaderWithIteratorIS2_N7openpal11UInt8SimpleEEENS_8IINFieldENS_13QualifierCodeERKNS_14DNP3SerializerIT_EERKNS_11ICollectionINS1_ISB_EEEEPNS_21PrefixedWriteIteratorIT0_SB_EEEUlRKS3_E_EE
	.section	.data.rel.ro._ZTVN8opendnp314FunctorVisitorINS_7IndexedINS_23ControlRelayOutputBlockEEEZNS_22CommandResponseHandler27RespondToHeaderWithIteratorIS2_N7openpal11UInt8SimpleEEENS_8IINFieldENS_13QualifierCodeERKNS_14DNP3SerializerIT_EERKNS_11ICollectionINS1_ISB_EEEEPNS_21PrefixedWriteIteratorIT0_SB_EEEUlRKS3_E_EE,"awG",@progbits,_ZTVN8opendnp314FunctorVisitorINS_7IndexedINS_23ControlRelayOutputBlockEEEZNS_22CommandResponseHandler27RespondToHeaderWithIteratorIS2_N7openpal11UInt8SimpleEEENS_8IINFieldENS_13QualifierCodeERKNS_14DNP3SerializerIT_EERKNS_11ICollectionINS1_ISB_EEEEPNS_21PrefixedWriteIteratorIT0_SB_EEEUlRKS3_E_EE,comdat
	.align	3
	.type	_ZTVN8opendnp314FunctorVisitorINS_7IndexedINS_23ControlRelayOutputBlockEEEZNS_22CommandResponseHandler27RespondToHeaderWithIteratorIS2_N7openpal11UInt8SimpleEEENS_8IINFieldENS_13QualifierCodeERKNS_14DNP3SerializerIT_EERKNS_11ICollectionINS1_ISB_EEEEPNS_21PrefixedWriteIteratorIT0_SB_EEEUlRKS3_E_EE, %object
	.size	_ZTVN8opendnp314FunctorVisitorINS_7IndexedINS_23ControlRelayOutputBlockEEEZNS_22CommandResponseHandler27RespondToHeaderWithIteratorIS2_N7openpal11UInt8SimpleEEENS_8IINFieldENS_13QualifierCodeERKNS_14DNP3SerializerIT_EERKNS_11ICollectionINS1_ISB_EEEEPNS_21PrefixedWriteIteratorIT0_SB_EEEUlRKS3_E_EE, 24
_ZTVN8opendnp314FunctorVisitorINS_7IndexedINS_23ControlRelayOutputBlockEEEZNS_22CommandResponseHandler27RespondToHeaderWithIteratorIS2_N7openpal11UInt8SimpleEEENS_8IINFieldENS_13QualifierCodeERKNS_14DNP3SerializerIT_EERKNS_11ICollectionINS1_ISB_EEEEPNS_21PrefixedWriteIteratorIT0_SB_EEEUlRKS3_E_EE:
	.xword	0
	.xword	_ZTIN8opendnp314FunctorVisitorINS_7IndexedINS_23ControlRelayOutputBlockEEEZNS_22CommandResponseHandler27RespondToHeaderWithIteratorIS2_N7openpal11UInt8SimpleEEENS_8IINFieldENS_13QualifierCodeERKNS_14DNP3SerializerIT_EERKNS_11ICollectionINS1_ISB_EEEEPNS_21PrefixedWriteIteratorIT0_SB_EEEUlRKS3_E_EE
	.xword	_ZN8opendnp314FunctorVisitorINS_7IndexedINS_23ControlRelayOutputBlockEEEZNS_22CommandResponseHandler27RespondToHeaderWithIteratorIS2_N7openpal11UInt8SimpleEEENS_8IINFieldENS_13QualifierCodeERKNS_14DNP3SerializerIT_EERKNS_11ICollectionINS1_ISB_EEEEPNS_21PrefixedWriteIteratorIT0_SB_EEEUlRKS3_E_E7OnValueESP_
	.weak	_ZTVN8opendnp314FunctorVisitorINS_7IndexedINS_17AnalogOutputInt16EEEZNS_22CommandResponseHandler27RespondToHeaderWithIteratorIS2_N7openpal11UInt8SimpleEEENS_8IINFieldENS_13QualifierCodeERKNS_14DNP3SerializerIT_EERKNS_11ICollectionINS1_ISB_EEEEPNS_21PrefixedWriteIteratorIT0_SB_EEEUlRKS3_E_EE
	.section	.data.rel.ro._ZTVN8opendnp314FunctorVisitorINS_7IndexedINS_17AnalogOutputInt16EEEZNS_22CommandResponseHandler27RespondToHeaderWithIteratorIS2_N7openpal11UInt8SimpleEEENS_8IINFieldENS_13QualifierCodeERKNS_14DNP3SerializerIT_EERKNS_11ICollectionINS1_ISB_EEEEPNS_21PrefixedWriteIteratorIT0_SB_EEEUlRKS3_E_EE,"awG",@progbits,_ZTVN8opendnp314FunctorVisitorINS_7IndexedINS_17AnalogOutputInt16EEEZNS_22CommandResponseHandler27RespondToHeaderWithIteratorIS2_N7openpal11UInt8SimpleEEENS_8IINFieldENS_13QualifierCodeERKNS_14DNP3SerializerIT_EERKNS_11ICollectionINS1_ISB_EEEEPNS_21PrefixedWriteIteratorIT0_SB_EEEUlRKS3_E_EE,comdat
	.align	3
	.type	_ZTVN8opendnp314FunctorVisitorINS_7IndexedINS_17AnalogOutputInt16EEEZNS_22CommandResponseHandler27RespondToHeaderWithIteratorIS2_N7openpal11UInt8SimpleEEENS_8IINFieldENS_13QualifierCodeERKNS_14DNP3SerializerIT_EERKNS_11ICollectionINS1_ISB_EEEEPNS_21PrefixedWriteIteratorIT0_SB_EEEUlRKS3_E_EE, %object
	.size	_ZTVN8opendnp314FunctorVisitorINS_7IndexedINS_17AnalogOutputInt16EEEZNS_22CommandResponseHandler27RespondToHeaderWithIteratorIS2_N7openpal11UInt8SimpleEEENS_8IINFieldENS_13QualifierCodeERKNS_14DNP3SerializerIT_EERKNS_11ICollectionINS1_ISB_EEEEPNS_21PrefixedWriteIteratorIT0_SB_EEEUlRKS3_E_EE, 24
_ZTVN8opendnp314FunctorVisitorINS_7IndexedINS_17AnalogOutputInt16EEEZNS_22CommandResponseHandler27RespondToHeaderWithIteratorIS2_N7openpal11UInt8SimpleEEENS_8IINFieldENS_13QualifierCodeERKNS_14DNP3SerializerIT_EERKNS_11ICollectionINS1_ISB_EEEEPNS_21PrefixedWriteIteratorIT0_SB_EEEUlRKS3_E_EE:
	.xword	0
	.xword	_ZTIN8opendnp314FunctorVisitorINS_7IndexedINS_17AnalogOutputInt16EEEZNS_22CommandResponseHandler27RespondToHeaderWithIteratorIS2_N7openpal11UInt8SimpleEEENS_8IINFieldENS_13QualifierCodeERKNS_14DNP3SerializerIT_EERKNS_11ICollectionINS1_ISB_EEEEPNS_21PrefixedWriteIteratorIT0_SB_EEEUlRKS3_E_EE
	.xword	_ZN8opendnp314FunctorVisitorINS_7IndexedINS_17AnalogOutputInt16EEEZNS_22CommandResponseHandler27RespondToHeaderWithIteratorIS2_N7openpal11UInt8SimpleEEENS_8IINFieldENS_13QualifierCodeERKNS_14DNP3SerializerIT_EERKNS_11ICollectionINS1_ISB_EEEEPNS_21PrefixedWriteIteratorIT0_SB_EEEUlRKS3_E_E7OnValueESP_
	.weak	_ZTVN8opendnp314FunctorVisitorINS_7IndexedINS_17AnalogOutputInt32EEEZNS_22CommandResponseHandler27RespondToHeaderWithIteratorIS2_N7openpal11UInt8SimpleEEENS_8IINFieldENS_13QualifierCodeERKNS_14DNP3SerializerIT_EERKNS_11ICollectionINS1_ISB_EEEEPNS_21PrefixedWriteIteratorIT0_SB_EEEUlRKS3_E_EE
	.section	.data.rel.ro._ZTVN8opendnp314FunctorVisitorINS_7IndexedINS_17AnalogOutputInt32EEEZNS_22CommandResponseHandler27RespondToHeaderWithIteratorIS2_N7openpal11UInt8SimpleEEENS_8IINFieldENS_13QualifierCodeERKNS_14DNP3SerializerIT_EERKNS_11ICollectionINS1_ISB_EEEEPNS_21PrefixedWriteIteratorIT0_SB_EEEUlRKS3_E_EE,"awG",@progbits,_ZTVN8opendnp314FunctorVisitorINS_7IndexedINS_17AnalogOutputInt32EEEZNS_22CommandResponseHandler27RespondToHeaderWithIteratorIS2_N7openpal11UInt8SimpleEEENS_8IINFieldENS_13QualifierCodeERKNS_14DNP3SerializerIT_EERKNS_11ICollectionINS1_ISB_EEEEPNS_21PrefixedWriteIteratorIT0_SB_EEEUlRKS3_E_EE,comdat
	.align	3
	.type	_ZTVN8opendnp314FunctorVisitorINS_7IndexedINS_17AnalogOutputInt32EEEZNS_22CommandResponseHandler27RespondToHeaderWithIteratorIS2_N7openpal11UInt8SimpleEEENS_8IINFieldENS_13QualifierCodeERKNS_14DNP3SerializerIT_EERKNS_11ICollectionINS1_ISB_EEEEPNS_21PrefixedWriteIteratorIT0_SB_EEEUlRKS3_E_EE, %object
	.size	_ZTVN8opendnp314FunctorVisitorINS_7IndexedINS_17AnalogOutputInt32EEEZNS_22CommandResponseHandler27RespondToHeaderWithIteratorIS2_N7openpal11UInt8SimpleEEENS_8IINFieldENS_13QualifierCodeERKNS_14DNP3SerializerIT_EERKNS_11ICollectionINS1_ISB_EEEEPNS_21PrefixedWriteIteratorIT0_SB_EEEUlRKS3_E_EE, 24
_ZTVN8opendnp314FunctorVisitorINS_7IndexedINS_17AnalogOutputInt32EEEZNS_22CommandResponseHandler27RespondToHeaderWithIteratorIS2_N7openpal11UInt8SimpleEEENS_8IINFieldENS_13QualifierCodeERKNS_14DNP3SerializerIT_EERKNS_11ICollectionINS1_ISB_EEEEPNS_21PrefixedWriteIteratorIT0_SB_EEEUlRKS3_E_EE:
	.xword	0
	.xword	_ZTIN8opendnp314FunctorVisitorINS_7IndexedINS_17AnalogOutputInt32EEEZNS_22CommandResponseHandler27RespondToHeaderWithIteratorIS2_N7openpal11UInt8SimpleEEENS_8IINFieldENS_13QualifierCodeERKNS_14DNP3SerializerIT_EERKNS_11ICollectionINS1_ISB_EEEEPNS_21PrefixedWriteIteratorIT0_SB_EEEUlRKS3_E_EE
	.xword	_ZN8opendnp314FunctorVisitorINS_7IndexedINS_17AnalogOutputInt32EEEZNS_22CommandResponseHandler27RespondToHeaderWithIteratorIS2_N7openpal11UInt8SimpleEEENS_8IINFieldENS_13QualifierCodeERKNS_14DNP3SerializerIT_EERKNS_11ICollectionINS1_ISB_EEEEPNS_21PrefixedWriteIteratorIT0_SB_EEEUlRKS3_E_E7OnValueESP_
	.weak	_ZTVN8opendnp314FunctorVisitorINS_7IndexedINS_19AnalogOutputFloat32EEEZNS_22CommandResponseHandler27RespondToHeaderWithIteratorIS2_N7openpal11UInt8SimpleEEENS_8IINFieldENS_13QualifierCodeERKNS_14DNP3SerializerIT_EERKNS_11ICollectionINS1_ISB_EEEEPNS_21PrefixedWriteIteratorIT0_SB_EEEUlRKS3_E_EE
	.section	.data.rel.ro._ZTVN8opendnp314FunctorVisitorINS_7IndexedINS_19AnalogOutputFloat32EEEZNS_22CommandResponseHandler27RespondToHeaderWithIteratorIS2_N7openpal11UInt8SimpleEEENS_8IINFieldENS_13QualifierCodeERKNS_14DNP3SerializerIT_EERKNS_11ICollectionINS1_ISB_EEEEPNS_21PrefixedWriteIteratorIT0_SB_EEEUlRKS3_E_EE,"awG",@progbits,_ZTVN8opendnp314FunctorVisitorINS_7IndexedINS_19AnalogOutputFloat32EEEZNS_22CommandResponseHandler27RespondToHeaderWithIteratorIS2_N7openpal11UInt8SimpleEEENS_8IINFieldENS_13QualifierCodeERKNS_14DNP3SerializerIT_EERKNS_11ICollectionINS1_ISB_EEEEPNS_21PrefixedWriteIteratorIT0_SB_EEEUlRKS3_E_EE,comdat
	.align	3
	.type	_ZTVN8opendnp314FunctorVisitorINS_7IndexedINS_19AnalogOutputFloat32EEEZNS_22CommandResponseHandler27RespondToHeaderWithIteratorIS2_N7openpal11UInt8SimpleEEENS_8IINFieldENS_13QualifierCodeERKNS_14DNP3SerializerIT_EERKNS_11ICollectionINS1_ISB_EEEEPNS_21PrefixedWriteIteratorIT0_SB_EEEUlRKS3_E_EE, %object
	.size	_ZTVN8opendnp314FunctorVisitorINS_7IndexedINS_19AnalogOutputFloat32EEEZNS_22CommandResponseHandler27RespondToHeaderWithIteratorIS2_N7openpal11UInt8SimpleEEENS_8IINFieldENS_13QualifierCodeERKNS_14DNP3SerializerIT_EERKNS_11ICollectionINS1_ISB_EEEEPNS_21PrefixedWriteIteratorIT0_SB_EEEUlRKS3_E_EE, 24
_ZTVN8opendnp314FunctorVisitorINS_7IndexedINS_19AnalogOutputFloat32EEEZNS_22CommandResponseHandler27RespondToHeaderWithIteratorIS2_N7openpal11UInt8SimpleEEENS_8IINFieldENS_13QualifierCodeERKNS_14DNP3SerializerIT_EERKNS_11ICollectionINS1_ISB_EEEEPNS_21PrefixedWriteIteratorIT0_SB_EEEUlRKS3_E_EE:
	.xword	0
	.xword	_ZTIN8opendnp314FunctorVisitorINS_7IndexedINS_19AnalogOutputFloat32EEEZNS_22CommandResponseHandler27RespondToHeaderWithIteratorIS2_N7openpal11UInt8SimpleEEENS_8IINFieldENS_13QualifierCodeERKNS_14DNP3SerializerIT_EERKNS_11ICollectionINS1_ISB_EEEEPNS_21PrefixedWriteIteratorIT0_SB_EEEUlRKS3_E_EE
	.xword	_ZN8opendnp314FunctorVisitorINS_7IndexedINS_19AnalogOutputFloat32EEEZNS_22CommandResponseHandler27RespondToHeaderWithIteratorIS2_N7openpal11UInt8SimpleEEENS_8IINFieldENS_13QualifierCodeERKNS_14DNP3SerializerIT_EERKNS_11ICollectionINS1_ISB_EEEEPNS_21PrefixedWriteIteratorIT0_SB_EEEUlRKS3_E_E7OnValueESP_
	.weak	_ZTVN8opendnp314FunctorVisitorINS_7IndexedINS_20AnalogOutputDouble64EEEZNS_22CommandResponseHandler27RespondToHeaderWithIteratorIS2_N7openpal11UInt8SimpleEEENS_8IINFieldENS_13QualifierCodeERKNS_14DNP3SerializerIT_EERKNS_11ICollectionINS1_ISB_EEEEPNS_21PrefixedWriteIteratorIT0_SB_EEEUlRKS3_E_EE
	.section	.data.rel.ro._ZTVN8opendnp314FunctorVisitorINS_7IndexedINS_20AnalogOutputDouble64EEEZNS_22CommandResponseHandler27RespondToHeaderWithIteratorIS2_N7openpal11UInt8SimpleEEENS_8IINFieldENS_13QualifierCodeERKNS_14DNP3SerializerIT_EERKNS_11ICollectionINS1_ISB_EEEEPNS_21PrefixedWriteIteratorIT0_SB_EEEUlRKS3_E_EE,"awG",@progbits,_ZTVN8opendnp314FunctorVisitorINS_7IndexedINS_20AnalogOutputDouble64EEEZNS_22CommandResponseHandler27RespondToHeaderWithIteratorIS2_N7openpal11UInt8SimpleEEENS_8IINFieldENS_13QualifierCodeERKNS_14DNP3SerializerIT_EERKNS_11ICollectionINS1_ISB_EEEEPNS_21PrefixedWriteIteratorIT0_SB_EEEUlRKS3_E_EE,comdat
	.align	3
	.type	_ZTVN8opendnp314FunctorVisitorINS_7IndexedINS_20AnalogOutputDouble64EEEZNS_22CommandResponseHandler27RespondToHeaderWithIteratorIS2_N7openpal11UInt8SimpleEEENS_8IINFieldENS_13QualifierCodeERKNS_14DNP3SerializerIT_EERKNS_11ICollectionINS1_ISB_EEEEPNS_21PrefixedWriteIteratorIT0_SB_EEEUlRKS3_E_EE, %object
	.size	_ZTVN8opendnp314FunctorVisitorINS_7IndexedINS_20AnalogOutputDouble64EEEZNS_22CommandResponseHandler27RespondToHeaderWithIteratorIS2_N7openpal11UInt8SimpleEEENS_8IINFieldENS_13QualifierCodeERKNS_14DNP3SerializerIT_EERKNS_11ICollectionINS1_ISB_EEEEPNS_21PrefixedWriteIteratorIT0_SB_EEEUlRKS3_E_EE, 24
_ZTVN8opendnp314FunctorVisitorINS_7IndexedINS_20AnalogOutputDouble64EEEZNS_22CommandResponseHandler27RespondToHeaderWithIteratorIS2_N7openpal11UInt8SimpleEEENS_8IINFieldENS_13QualifierCodeERKNS_14DNP3SerializerIT_EERKNS_11ICollectionINS1_ISB_EEEEPNS_21PrefixedWriteIteratorIT0_SB_EEEUlRKS3_E_EE:
	.xword	0
	.xword	_ZTIN8opendnp314FunctorVisitorINS_7IndexedINS_20AnalogOutputDouble64EEEZNS_22CommandResponseHandler27RespondToHeaderWithIteratorIS2_N7openpal11UInt8SimpleEEENS_8IINFieldENS_13QualifierCodeERKNS_14DNP3SerializerIT_EERKNS_11ICollectionINS1_ISB_EEEEPNS_21PrefixedWriteIteratorIT0_SB_EEEUlRKS3_E_EE
	.xword	_ZN8opendnp314FunctorVisitorINS_7IndexedINS_20AnalogOutputDouble64EEEZNS_22CommandResponseHandler27RespondToHeaderWithIteratorIS2_N7openpal11UInt8SimpleEEENS_8IINFieldENS_13QualifierCodeERKNS_14DNP3SerializerIT_EERKNS_11ICollectionINS1_ISB_EEEEPNS_21PrefixedWriteIteratorIT0_SB_EEEUlRKS3_E_E7OnValueESP_
	.hidden	DW.ref.__gxx_personality_v0
	.weak	DW.ref.__gxx_personality_v0
	.section	.data.rel.local.DW.ref.__gxx_personality_v0,"awG",@progbits,DW.ref.__gxx_personality_v0,comdat
	.align	3
	.type	DW.ref.__gxx_personality_v0, %object
	.size	DW.ref.__gxx_personality_v0, 8
DW.ref.__gxx_personality_v0:
	.xword	__gxx_personality_v0
	.ident	"GCC: (Ubuntu 11.4.0-1ubuntu1~22.04) 11.4.0"
	.section	.note.GNU-stack,"",@progbits
