	.arch armv8-a
	.file	"OutstationContext.cpp"
	.text
	.section	.text._ZN8opendnp322IOutstationApplication19SupportsAssignClassEv,"axG",@progbits,_ZN8opendnp322IOutstationApplication19SupportsAssignClassEv,comdat
	.align	2
	.p2align 4,,11
	.weak	_ZN8opendnp322IOutstationApplication19SupportsAssignClassEv
	.type	_ZN8opendnp322IOutstationApplication19SupportsAssignClassEv, %function
_ZN8opendnp322IOutstationApplication19SupportsAssignClassEv:
.LFB2153:
	.cfi_startproc
	mov	w0, 0
	ret
	.cfi_endproc
.LFE2153:
	.size	_ZN8opendnp322IOutstationApplication19SupportsAssignClassEv, .-_ZN8opendnp322IOutstationApplication19SupportsAssignClassEv
	.section	.text._ZNK8opendnp322IOutstationApplication18ColdRestartSupportEv,"axG",@progbits,_ZNK8opendnp322IOutstationApplication18ColdRestartSupportEv,comdat
	.align	2
	.p2align 4,,11
	.weak	_ZNK8opendnp322IOutstationApplication18ColdRestartSupportEv
	.type	_ZNK8opendnp322IOutstationApplication18ColdRestartSupportEv, %function
_ZNK8opendnp322IOutstationApplication18ColdRestartSupportEv:
.LFB2156:
	.cfi_startproc
	mov	w0, 0
	ret
	.cfi_endproc
.LFE2156:
	.size	_ZNK8opendnp322IOutstationApplication18ColdRestartSupportEv, .-_ZNK8opendnp322IOutstationApplication18ColdRestartSupportEv
	.section	.text._ZNK8opendnp322IOutstationApplication18WarmRestartSupportEv,"axG",@progbits,_ZNK8opendnp322IOutstationApplication18WarmRestartSupportEv,comdat
	.align	2
	.p2align 4,,11
	.weak	_ZNK8opendnp322IOutstationApplication18WarmRestartSupportEv
	.type	_ZNK8opendnp322IOutstationApplication18WarmRestartSupportEv, %function
_ZNK8opendnp322IOutstationApplication18WarmRestartSupportEv:
.LFB2157:
	.cfi_startproc
	mov	w0, 0
	ret
	.cfi_endproc
.LFE2157:
	.size	_ZNK8opendnp322IOutstationApplication18WarmRestartSupportEv, .-_ZNK8opendnp322IOutstationApplication18WarmRestartSupportEv
	.section	.text._ZN8opendnp322IOutstationApplication11ColdRestartEv,"axG",@progbits,_ZN8opendnp322IOutstationApplication11ColdRestartEv,comdat
	.align	2
	.p2align 4,,11
	.weak	_ZN8opendnp322IOutstationApplication11ColdRestartEv
	.type	_ZN8opendnp322IOutstationApplication11ColdRestartEv, %function
_ZN8opendnp322IOutstationApplication11ColdRestartEv:
.LFB2158:
	.cfi_startproc
	mov	w0, -1
	ret
	.cfi_endproc
.LFE2158:
	.size	_ZN8opendnp322IOutstationApplication11ColdRestartEv, .-_ZN8opendnp322IOutstationApplication11ColdRestartEv
	.section	.text._ZN8opendnp322IOutstationApplication11WarmRestartEv,"axG",@progbits,_ZN8opendnp322IOutstationApplication11WarmRestartEv,comdat
	.align	2
	.p2align 4,,11
	.weak	_ZN8opendnp322IOutstationApplication11WarmRestartEv
	.type	_ZN8opendnp322IOutstationApplication11WarmRestartEv, %function
_ZN8opendnp322IOutstationApplication11WarmRestartEv:
.LFB2159:
	.cfi_startproc
	mov	w0, -1
	ret
	.cfi_endproc
.LFE2159:
	.size	_ZN8opendnp322IOutstationApplication11WarmRestartEv, .-_ZN8opendnp322IOutstationApplication11WarmRestartEv
	.section	.text._ZN8opendnp321ConstantCommandAction6ActionERKNS_23ControlRelayOutputBlockEt,"axG",@progbits,_ZN8opendnp321ConstantCommandAction6ActionERKNS_23ControlRelayOutputBlockEt,comdat
	.align	2
	.p2align 4,,11
	.weak	_ZN8opendnp321ConstantCommandAction6ActionERKNS_23ControlRelayOutputBlockEt
	.type	_ZN8opendnp321ConstantCommandAction6ActionERKNS_23ControlRelayOutputBlockEt, %function
_ZN8opendnp321ConstantCommandAction6ActionERKNS_23ControlRelayOutputBlockEt:
.LFB2886:
	.cfi_startproc
	ldrb	w0, [x0, 8]
	ret
	.cfi_endproc
.LFE2886:
	.size	_ZN8opendnp321ConstantCommandAction6ActionERKNS_23ControlRelayOutputBlockEt, .-_ZN8opendnp321ConstantCommandAction6ActionERKNS_23ControlRelayOutputBlockEt
	.section	.text._ZN8opendnp321ConstantCommandAction6ActionERKNS_17AnalogOutputInt16Et,"axG",@progbits,_ZN8opendnp321ConstantCommandAction6ActionERKNS_17AnalogOutputInt16Et,comdat
	.align	2
	.p2align 4,,11
	.weak	_ZN8opendnp321ConstantCommandAction6ActionERKNS_17AnalogOutputInt16Et
	.type	_ZN8opendnp321ConstantCommandAction6ActionERKNS_17AnalogOutputInt16Et, %function
_ZN8opendnp321ConstantCommandAction6ActionERKNS_17AnalogOutputInt16Et:
.LFB2887:
	.cfi_startproc
	ldrb	w0, [x0, 8]
	ret
	.cfi_endproc
.LFE2887:
	.size	_ZN8opendnp321ConstantCommandAction6ActionERKNS_17AnalogOutputInt16Et, .-_ZN8opendnp321ConstantCommandAction6ActionERKNS_17AnalogOutputInt16Et
	.section	.text._ZN8opendnp321ConstantCommandAction6ActionERKNS_17AnalogOutputInt32Et,"axG",@progbits,_ZN8opendnp321ConstantCommandAction6ActionERKNS_17AnalogOutputInt32Et,comdat
	.align	2
	.p2align 4,,11
	.weak	_ZN8opendnp321ConstantCommandAction6ActionERKNS_17AnalogOutputInt32Et
	.type	_ZN8opendnp321ConstantCommandAction6ActionERKNS_17AnalogOutputInt32Et, %function
_ZN8opendnp321ConstantCommandAction6ActionERKNS_17AnalogOutputInt32Et:
.LFB2888:
	.cfi_startproc
	ldrb	w0, [x0, 8]
	ret
	.cfi_endproc
.LFE2888:
	.size	_ZN8opendnp321ConstantCommandAction6ActionERKNS_17AnalogOutputInt32Et, .-_ZN8opendnp321ConstantCommandAction6ActionERKNS_17AnalogOutputInt32Et
	.section	.text._ZN8opendnp321ConstantCommandAction6ActionERKNS_19AnalogOutputFloat32Et,"axG",@progbits,_ZN8opendnp321ConstantCommandAction6ActionERKNS_19AnalogOutputFloat32Et,comdat
	.align	2
	.p2align 4,,11
	.weak	_ZN8opendnp321ConstantCommandAction6ActionERKNS_19AnalogOutputFloat32Et
	.type	_ZN8opendnp321ConstantCommandAction6ActionERKNS_19AnalogOutputFloat32Et, %function
_ZN8opendnp321ConstantCommandAction6ActionERKNS_19AnalogOutputFloat32Et:
.LFB2889:
	.cfi_startproc
	ldrb	w0, [x0, 8]
	ret
	.cfi_endproc
.LFE2889:
	.size	_ZN8opendnp321ConstantCommandAction6ActionERKNS_19AnalogOutputFloat32Et, .-_ZN8opendnp321ConstantCommandAction6ActionERKNS_19AnalogOutputFloat32Et
	.section	.text._ZN8opendnp321ConstantCommandAction6ActionERKNS_20AnalogOutputDouble64Et,"axG",@progbits,_ZN8opendnp321ConstantCommandAction6ActionERKNS_20AnalogOutputDouble64Et,comdat
	.align	2
	.p2align 4,,11
	.weak	_ZN8opendnp321ConstantCommandAction6ActionERKNS_20AnalogOutputDouble64Et
	.type	_ZN8opendnp321ConstantCommandAction6ActionERKNS_20AnalogOutputDouble64Et, %function
_ZN8opendnp321ConstantCommandAction6ActionERKNS_20AnalogOutputDouble64Et:
.LFB2890:
	.cfi_startproc
	ldrb	w0, [x0, 8]
	ret
	.cfi_endproc
.LFE2890:
	.size	_ZN8opendnp321ConstantCommandAction6ActionERKNS_20AnalogOutputDouble64Et, .-_ZN8opendnp321ConstantCommandAction6ActionERKNS_20AnalogOutputDouble64Et
	.section	.text._ZN8opendnp321ConstantCommandActionD2Ev,"axG",@progbits,_ZN8opendnp321ConstantCommandActionD5Ev,comdat
	.align	2
	.p2align 4,,11
	.weak	_ZN8opendnp321ConstantCommandActionD2Ev
	.type	_ZN8opendnp321ConstantCommandActionD2Ev, %function
_ZN8opendnp321ConstantCommandActionD2Ev:
.LFB3867:
	.cfi_startproc
	ret
	.cfi_endproc
.LFE3867:
	.size	_ZN8opendnp321ConstantCommandActionD2Ev, .-_ZN8opendnp321ConstantCommandActionD2Ev
	.weak	_ZN8opendnp321ConstantCommandActionD1Ev
	.set	_ZN8opendnp321ConstantCommandActionD1Ev,_ZN8opendnp321ConstantCommandActionD2Ev
	.section	.text._ZN8opendnp321ConstantCommandActionD0Ev,"axG",@progbits,_ZN8opendnp321ConstantCommandActionD5Ev,comdat
	.align	2
	.p2align 4,,11
	.weak	_ZN8opendnp321ConstantCommandActionD0Ev
	.type	_ZN8opendnp321ConstantCommandActionD0Ev, %function
_ZN8opendnp321ConstantCommandActionD0Ev:
.LFB3869:
	.cfi_startproc
	mov	x1, 16
	b	_ZdlPvm
	.cfi_endproc
.LFE3869:
	.size	_ZN8opendnp321ConstantCommandActionD0Ev, .-_ZN8opendnp321ConstantCommandActionD0Ev
	.section	.text._ZN7openpal5ArrayIhjED2Ev,"axG",@progbits,_ZN7openpal5ArrayIhjED5Ev,comdat
	.align	2
	.p2align 4,,11
	.weak	_ZN7openpal5ArrayIhjED2Ev
	.type	_ZN7openpal5ArrayIhjED2Ev, %function
_ZN7openpal5ArrayIhjED2Ev:
.LFB3012:
	.cfi_startproc
	adrp	x1, :got:_ZTVN7openpal5ArrayIhjEE
	mov	x2, x0
	ldr	x0, [x0, 16]
	ldr	x1, [x1, #:got_lo12:_ZTVN7openpal5ArrayIhjEE]
	add	x1, x1, 16
	str	x1, [x2]
	cbz	x0, .L14
	b	_ZdaPv
	.p2align 2,,3
.L14:
	ret
	.cfi_endproc
.LFE3012:
	.size	_ZN7openpal5ArrayIhjED2Ev, .-_ZN7openpal5ArrayIhjED2Ev
	.weak	_ZN7openpal5ArrayIhjED1Ev
	.set	_ZN7openpal5ArrayIhjED1Ev,_ZN7openpal5ArrayIhjED2Ev
	.section	.text._ZN7openpal5ArrayIhjED0Ev,"axG",@progbits,_ZN7openpal5ArrayIhjED5Ev,comdat
	.align	2
	.p2align 4,,11
	.weak	_ZN7openpal5ArrayIhjED0Ev
	.type	_ZN7openpal5ArrayIhjED0Ev, %function
_ZN7openpal5ArrayIhjED0Ev:
.LFB3014:
	.cfi_startproc
	stp	x29, x30, [sp, -32]!
	.cfi_def_cfa_offset 32
	.cfi_offset 29, -32
	.cfi_offset 30, -24
	adrp	x1, :got:_ZTVN7openpal5ArrayIhjEE
	mov	x29, sp
	ldr	x1, [x1, #:got_lo12:_ZTVN7openpal5ArrayIhjEE]
	str	x19, [sp, 16]
	.cfi_offset 19, -16
	mov	x19, x0
	ldr	x0, [x0, 16]
	add	x1, x1, 16
	str	x1, [x19]
	cbz	x0, .L17
	bl	_ZdaPv
.L17:
	mov	x0, x19
	mov	x1, 24
	ldr	x19, [sp, 16]
	ldp	x29, x30, [sp], 32
	.cfi_restore 30
	.cfi_restore 29
	.cfi_restore 19
	.cfi_def_cfa_offset 0
	b	_ZdlPvm
	.cfi_endproc
.LFE3014:
	.size	_ZN7openpal5ArrayIhjED0Ev, .-_ZN7openpal5ArrayIhjED0Ev
	.section	.text._ZN7openpal5ArrayIN8opendnp34CellINS1_19TimeAndIntervalSpecEEEtED2Ev,"axG",@progbits,_ZN7openpal5ArrayIN8opendnp34CellINS1_19TimeAndIntervalSpecEEEtED5Ev,comdat
	.align	2
	.p2align 4,,11
	.weak	_ZN7openpal5ArrayIN8opendnp34CellINS1_19TimeAndIntervalSpecEEEtED2Ev
	.type	_ZN7openpal5ArrayIN8opendnp34CellINS1_19TimeAndIntervalSpecEEEtED2Ev, %function
_ZN7openpal5ArrayIN8opendnp34CellINS1_19TimeAndIntervalSpecEEEtED2Ev:
.LFB3958:
	.cfi_startproc
	adrp	x1, :got:_ZTVN7openpal5ArrayIN8opendnp34CellINS1_19TimeAndIntervalSpecEEEtEE
	mov	x2, x0
	ldr	x0, [x0, 16]
	ldr	x1, [x1, #:got_lo12:_ZTVN7openpal5ArrayIN8opendnp34CellINS1_19TimeAndIntervalSpecEEEtEE]
	add	x1, x1, 16
	str	x1, [x2]
	cbz	x0, .L22
	b	_ZdaPv
	.p2align 2,,3
.L22:
	ret
	.cfi_endproc
.LFE3958:
	.size	_ZN7openpal5ArrayIN8opendnp34CellINS1_19TimeAndIntervalSpecEEEtED2Ev, .-_ZN7openpal5ArrayIN8opendnp34CellINS1_19TimeAndIntervalSpecEEEtED2Ev
	.weak	_ZN7openpal5ArrayIN8opendnp34CellINS1_19TimeAndIntervalSpecEEEtED1Ev
	.set	_ZN7openpal5ArrayIN8opendnp34CellINS1_19TimeAndIntervalSpecEEEtED1Ev,_ZN7openpal5ArrayIN8opendnp34CellINS1_19TimeAndIntervalSpecEEEtED2Ev
	.section	.text._ZN7openpal5ArrayIN8opendnp34CellINS1_19TimeAndIntervalSpecEEEtED0Ev,"axG",@progbits,_ZN7openpal5ArrayIN8opendnp34CellINS1_19TimeAndIntervalSpecEEEtED5Ev,comdat
	.align	2
	.p2align 4,,11
	.weak	_ZN7openpal5ArrayIN8opendnp34CellINS1_19TimeAndIntervalSpecEEEtED0Ev
	.type	_ZN7openpal5ArrayIN8opendnp34CellINS1_19TimeAndIntervalSpecEEEtED0Ev, %function
_ZN7openpal5ArrayIN8opendnp34CellINS1_19TimeAndIntervalSpecEEEtED0Ev:
.LFB3960:
	.cfi_startproc
	stp	x29, x30, [sp, -32]!
	.cfi_def_cfa_offset 32
	.cfi_offset 29, -32
	.cfi_offset 30, -24
	adrp	x1, :got:_ZTVN7openpal5ArrayIN8opendnp34CellINS1_19TimeAndIntervalSpecEEEtEE
	mov	x29, sp
	ldr	x1, [x1, #:got_lo12:_ZTVN7openpal5ArrayIN8opendnp34CellINS1_19TimeAndIntervalSpecEEEtEE]
	str	x19, [sp, 16]
	.cfi_offset 19, -16
	mov	x19, x0
	ldr	x0, [x0, 16]
	add	x1, x1, 16
	str	x1, [x19]
	cbz	x0, .L25
	bl	_ZdaPv
.L25:
	mov	x0, x19
	mov	x1, 24
	ldr	x19, [sp, 16]
	ldp	x29, x30, [sp], 32
	.cfi_restore 30
	.cfi_restore 29
	.cfi_restore 19
	.cfi_def_cfa_offset 0
	b	_ZdlPvm
	.cfi_endproc
.LFE3960:
	.size	_ZN7openpal5ArrayIN8opendnp34CellINS1_19TimeAndIntervalSpecEEEtED0Ev, .-_ZN7openpal5ArrayIN8opendnp34CellINS1_19TimeAndIntervalSpecEEEtED0Ev
	.section	.text._ZN7openpal5ArrayIN8opendnp34CellINS1_22AnalogOutputStatusSpecEEEtED2Ev,"axG",@progbits,_ZN7openpal5ArrayIN8opendnp34CellINS1_22AnalogOutputStatusSpecEEEtED5Ev,comdat
	.align	2
	.p2align 4,,11
	.weak	_ZN7openpal5ArrayIN8opendnp34CellINS1_22AnalogOutputStatusSpecEEEtED2Ev
	.type	_ZN7openpal5ArrayIN8opendnp34CellINS1_22AnalogOutputStatusSpecEEEtED2Ev, %function
_ZN7openpal5ArrayIN8opendnp34CellINS1_22AnalogOutputStatusSpecEEEtED2Ev:
.LFB3954:
	.cfi_startproc
	adrp	x1, :got:_ZTVN7openpal5ArrayIN8opendnp34CellINS1_22AnalogOutputStatusSpecEEEtEE
	mov	x2, x0
	ldr	x0, [x0, 16]
	ldr	x1, [x1, #:got_lo12:_ZTVN7openpal5ArrayIN8opendnp34CellINS1_22AnalogOutputStatusSpecEEEtEE]
	add	x1, x1, 16
	str	x1, [x2]
	cbz	x0, .L30
	b	_ZdaPv
	.p2align 2,,3
.L30:
	ret
	.cfi_endproc
.LFE3954:
	.size	_ZN7openpal5ArrayIN8opendnp34CellINS1_22AnalogOutputStatusSpecEEEtED2Ev, .-_ZN7openpal5ArrayIN8opendnp34CellINS1_22AnalogOutputStatusSpecEEEtED2Ev
	.weak	_ZN7openpal5ArrayIN8opendnp34CellINS1_22AnalogOutputStatusSpecEEEtED1Ev
	.set	_ZN7openpal5ArrayIN8opendnp34CellINS1_22AnalogOutputStatusSpecEEEtED1Ev,_ZN7openpal5ArrayIN8opendnp34CellINS1_22AnalogOutputStatusSpecEEEtED2Ev
	.section	.text._ZN7openpal5ArrayIN8opendnp34CellINS1_22AnalogOutputStatusSpecEEEtED0Ev,"axG",@progbits,_ZN7openpal5ArrayIN8opendnp34CellINS1_22AnalogOutputStatusSpecEEEtED5Ev,comdat
	.align	2
	.p2align 4,,11
	.weak	_ZN7openpal5ArrayIN8opendnp34CellINS1_22AnalogOutputStatusSpecEEEtED0Ev
	.type	_ZN7openpal5ArrayIN8opendnp34CellINS1_22AnalogOutputStatusSpecEEEtED0Ev, %function
_ZN7openpal5ArrayIN8opendnp34CellINS1_22AnalogOutputStatusSpecEEEtED0Ev:
.LFB3956:
	.cfi_startproc
	stp	x29, x30, [sp, -32]!
	.cfi_def_cfa_offset 32
	.cfi_offset 29, -32
	.cfi_offset 30, -24
	adrp	x1, :got:_ZTVN7openpal5ArrayIN8opendnp34CellINS1_22AnalogOutputStatusSpecEEEtEE
	mov	x29, sp
	ldr	x1, [x1, #:got_lo12:_ZTVN7openpal5ArrayIN8opendnp34CellINS1_22AnalogOutputStatusSpecEEEtEE]
	str	x19, [sp, 16]
	.cfi_offset 19, -16
	mov	x19, x0
	ldr	x0, [x0, 16]
	add	x1, x1, 16
	str	x1, [x19]
	cbz	x0, .L33
	bl	_ZdaPv
.L33:
	mov	x0, x19
	mov	x1, 24
	ldr	x19, [sp, 16]
	ldp	x29, x30, [sp], 32
	.cfi_restore 30
	.cfi_restore 29
	.cfi_restore 19
	.cfi_def_cfa_offset 0
	b	_ZdlPvm
	.cfi_endproc
.LFE3956:
	.size	_ZN7openpal5ArrayIN8opendnp34CellINS1_22AnalogOutputStatusSpecEEEtED0Ev, .-_ZN7openpal5ArrayIN8opendnp34CellINS1_22AnalogOutputStatusSpecEEEtED0Ev
	.section	.text._ZN7openpal5ArrayIN8opendnp34CellINS1_22BinaryOutputStatusSpecEEEtED2Ev,"axG",@progbits,_ZN7openpal5ArrayIN8opendnp34CellINS1_22BinaryOutputStatusSpecEEEtED5Ev,comdat
	.align	2
	.p2align 4,,11
	.weak	_ZN7openpal5ArrayIN8opendnp34CellINS1_22BinaryOutputStatusSpecEEEtED2Ev
	.type	_ZN7openpal5ArrayIN8opendnp34CellINS1_22BinaryOutputStatusSpecEEEtED2Ev, %function
_ZN7openpal5ArrayIN8opendnp34CellINS1_22BinaryOutputStatusSpecEEEtED2Ev:
.LFB3950:
	.cfi_startproc
	adrp	x1, :got:_ZTVN7openpal5ArrayIN8opendnp34CellINS1_22BinaryOutputStatusSpecEEEtEE
	mov	x2, x0
	ldr	x0, [x0, 16]
	ldr	x1, [x1, #:got_lo12:_ZTVN7openpal5ArrayIN8opendnp34CellINS1_22BinaryOutputStatusSpecEEEtEE]
	add	x1, x1, 16
	str	x1, [x2]
	cbz	x0, .L38
	b	_ZdaPv
	.p2align 2,,3
.L38:
	ret
	.cfi_endproc
.LFE3950:
	.size	_ZN7openpal5ArrayIN8opendnp34CellINS1_22BinaryOutputStatusSpecEEEtED2Ev, .-_ZN7openpal5ArrayIN8opendnp34CellINS1_22BinaryOutputStatusSpecEEEtED2Ev
	.weak	_ZN7openpal5ArrayIN8opendnp34CellINS1_22BinaryOutputStatusSpecEEEtED1Ev
	.set	_ZN7openpal5ArrayIN8opendnp34CellINS1_22BinaryOutputStatusSpecEEEtED1Ev,_ZN7openpal5ArrayIN8opendnp34CellINS1_22BinaryOutputStatusSpecEEEtED2Ev
	.section	.text._ZN7openpal5ArrayIN8opendnp34CellINS1_22BinaryOutputStatusSpecEEEtED0Ev,"axG",@progbits,_ZN7openpal5ArrayIN8opendnp34CellINS1_22BinaryOutputStatusSpecEEEtED5Ev,comdat
	.align	2
	.p2align 4,,11
	.weak	_ZN7openpal5ArrayIN8opendnp34CellINS1_22BinaryOutputStatusSpecEEEtED0Ev
	.type	_ZN7openpal5ArrayIN8opendnp34CellINS1_22BinaryOutputStatusSpecEEEtED0Ev, %function
_ZN7openpal5ArrayIN8opendnp34CellINS1_22BinaryOutputStatusSpecEEEtED0Ev:
.LFB3952:
	.cfi_startproc
	stp	x29, x30, [sp, -32]!
	.cfi_def_cfa_offset 32
	.cfi_offset 29, -32
	.cfi_offset 30, -24
	adrp	x1, :got:_ZTVN7openpal5ArrayIN8opendnp34CellINS1_22BinaryOutputStatusSpecEEEtEE
	mov	x29, sp
	ldr	x1, [x1, #:got_lo12:_ZTVN7openpal5ArrayIN8opendnp34CellINS1_22BinaryOutputStatusSpecEEEtEE]
	str	x19, [sp, 16]
	.cfi_offset 19, -16
	mov	x19, x0
	ldr	x0, [x0, 16]
	add	x1, x1, 16
	str	x1, [x19]
	cbz	x0, .L41
	bl	_ZdaPv
.L41:
	mov	x0, x19
	mov	x1, 24
	ldr	x19, [sp, 16]
	ldp	x29, x30, [sp], 32
	.cfi_restore 30
	.cfi_restore 29
	.cfi_restore 19
	.cfi_def_cfa_offset 0
	b	_ZdlPvm
	.cfi_endproc
.LFE3952:
	.size	_ZN7openpal5ArrayIN8opendnp34CellINS1_22BinaryOutputStatusSpecEEEtED0Ev, .-_ZN7openpal5ArrayIN8opendnp34CellINS1_22BinaryOutputStatusSpecEEEtED0Ev
	.section	.text._ZN7openpal5ArrayIN8opendnp34CellINS1_17FrozenCounterSpecEEEtED2Ev,"axG",@progbits,_ZN7openpal5ArrayIN8opendnp34CellINS1_17FrozenCounterSpecEEEtED5Ev,comdat
	.align	2
	.p2align 4,,11
	.weak	_ZN7openpal5ArrayIN8opendnp34CellINS1_17FrozenCounterSpecEEEtED2Ev
	.type	_ZN7openpal5ArrayIN8opendnp34CellINS1_17FrozenCounterSpecEEEtED2Ev, %function
_ZN7openpal5ArrayIN8opendnp34CellINS1_17FrozenCounterSpecEEEtED2Ev:
.LFB3946:
	.cfi_startproc
	adrp	x1, :got:_ZTVN7openpal5ArrayIN8opendnp34CellINS1_17FrozenCounterSpecEEEtEE
	mov	x2, x0
	ldr	x0, [x0, 16]
	ldr	x1, [x1, #:got_lo12:_ZTVN7openpal5ArrayIN8opendnp34CellINS1_17FrozenCounterSpecEEEtEE]
	add	x1, x1, 16
	str	x1, [x2]
	cbz	x0, .L46
	b	_ZdaPv
	.p2align 2,,3
.L46:
	ret
	.cfi_endproc
.LFE3946:
	.size	_ZN7openpal5ArrayIN8opendnp34CellINS1_17FrozenCounterSpecEEEtED2Ev, .-_ZN7openpal5ArrayIN8opendnp34CellINS1_17FrozenCounterSpecEEEtED2Ev
	.weak	_ZN7openpal5ArrayIN8opendnp34CellINS1_17FrozenCounterSpecEEEtED1Ev
	.set	_ZN7openpal5ArrayIN8opendnp34CellINS1_17FrozenCounterSpecEEEtED1Ev,_ZN7openpal5ArrayIN8opendnp34CellINS1_17FrozenCounterSpecEEEtED2Ev
	.section	.text._ZN7openpal5ArrayIN8opendnp34CellINS1_17FrozenCounterSpecEEEtED0Ev,"axG",@progbits,_ZN7openpal5ArrayIN8opendnp34CellINS1_17FrozenCounterSpecEEEtED5Ev,comdat
	.align	2
	.p2align 4,,11
	.weak	_ZN7openpal5ArrayIN8opendnp34CellINS1_17FrozenCounterSpecEEEtED0Ev
	.type	_ZN7openpal5ArrayIN8opendnp34CellINS1_17FrozenCounterSpecEEEtED0Ev, %function
_ZN7openpal5ArrayIN8opendnp34CellINS1_17FrozenCounterSpecEEEtED0Ev:
.LFB3948:
	.cfi_startproc
	stp	x29, x30, [sp, -32]!
	.cfi_def_cfa_offset 32
	.cfi_offset 29, -32
	.cfi_offset 30, -24
	adrp	x1, :got:_ZTVN7openpal5ArrayIN8opendnp34CellINS1_17FrozenCounterSpecEEEtEE
	mov	x29, sp
	ldr	x1, [x1, #:got_lo12:_ZTVN7openpal5ArrayIN8opendnp34CellINS1_17FrozenCounterSpecEEEtEE]
	str	x19, [sp, 16]
	.cfi_offset 19, -16
	mov	x19, x0
	ldr	x0, [x0, 16]
	add	x1, x1, 16
	str	x1, [x19]
	cbz	x0, .L49
	bl	_ZdaPv
.L49:
	mov	x0, x19
	mov	x1, 24
	ldr	x19, [sp, 16]
	ldp	x29, x30, [sp], 32
	.cfi_restore 30
	.cfi_restore 29
	.cfi_restore 19
	.cfi_def_cfa_offset 0
	b	_ZdlPvm
	.cfi_endproc
.LFE3948:
	.size	_ZN7openpal5ArrayIN8opendnp34CellINS1_17FrozenCounterSpecEEEtED0Ev, .-_ZN7openpal5ArrayIN8opendnp34CellINS1_17FrozenCounterSpecEEEtED0Ev
	.section	.text._ZN7openpal5ArrayIN8opendnp34CellINS1_11CounterSpecEEEtED2Ev,"axG",@progbits,_ZN7openpal5ArrayIN8opendnp34CellINS1_11CounterSpecEEEtED5Ev,comdat
	.align	2
	.p2align 4,,11
	.weak	_ZN7openpal5ArrayIN8opendnp34CellINS1_11CounterSpecEEEtED2Ev
	.type	_ZN7openpal5ArrayIN8opendnp34CellINS1_11CounterSpecEEEtED2Ev, %function
_ZN7openpal5ArrayIN8opendnp34CellINS1_11CounterSpecEEEtED2Ev:
.LFB3942:
	.cfi_startproc
	adrp	x1, :got:_ZTVN7openpal5ArrayIN8opendnp34CellINS1_11CounterSpecEEEtEE
	mov	x2, x0
	ldr	x0, [x0, 16]
	ldr	x1, [x1, #:got_lo12:_ZTVN7openpal5ArrayIN8opendnp34CellINS1_11CounterSpecEEEtEE]
	add	x1, x1, 16
	str	x1, [x2]
	cbz	x0, .L54
	b	_ZdaPv
	.p2align 2,,3
.L54:
	ret
	.cfi_endproc
.LFE3942:
	.size	_ZN7openpal5ArrayIN8opendnp34CellINS1_11CounterSpecEEEtED2Ev, .-_ZN7openpal5ArrayIN8opendnp34CellINS1_11CounterSpecEEEtED2Ev
	.weak	_ZN7openpal5ArrayIN8opendnp34CellINS1_11CounterSpecEEEtED1Ev
	.set	_ZN7openpal5ArrayIN8opendnp34CellINS1_11CounterSpecEEEtED1Ev,_ZN7openpal5ArrayIN8opendnp34CellINS1_11CounterSpecEEEtED2Ev
	.section	.text._ZN7openpal5ArrayIN8opendnp34CellINS1_11CounterSpecEEEtED0Ev,"axG",@progbits,_ZN7openpal5ArrayIN8opendnp34CellINS1_11CounterSpecEEEtED5Ev,comdat
	.align	2
	.p2align 4,,11
	.weak	_ZN7openpal5ArrayIN8opendnp34CellINS1_11CounterSpecEEEtED0Ev
	.type	_ZN7openpal5ArrayIN8opendnp34CellINS1_11CounterSpecEEEtED0Ev, %function
_ZN7openpal5ArrayIN8opendnp34CellINS1_11CounterSpecEEEtED0Ev:
.LFB3944:
	.cfi_startproc
	stp	x29, x30, [sp, -32]!
	.cfi_def_cfa_offset 32
	.cfi_offset 29, -32
	.cfi_offset 30, -24
	adrp	x1, :got:_ZTVN7openpal5ArrayIN8opendnp34CellINS1_11CounterSpecEEEtEE
	mov	x29, sp
	ldr	x1, [x1, #:got_lo12:_ZTVN7openpal5ArrayIN8opendnp34CellINS1_11CounterSpecEEEtEE]
	str	x19, [sp, 16]
	.cfi_offset 19, -16
	mov	x19, x0
	ldr	x0, [x0, 16]
	add	x1, x1, 16
	str	x1, [x19]
	cbz	x0, .L57
	bl	_ZdaPv
.L57:
	mov	x0, x19
	mov	x1, 24
	ldr	x19, [sp, 16]
	ldp	x29, x30, [sp], 32
	.cfi_restore 30
	.cfi_restore 29
	.cfi_restore 19
	.cfi_def_cfa_offset 0
	b	_ZdlPvm
	.cfi_endproc
.LFE3944:
	.size	_ZN7openpal5ArrayIN8opendnp34CellINS1_11CounterSpecEEEtED0Ev, .-_ZN7openpal5ArrayIN8opendnp34CellINS1_11CounterSpecEEEtED0Ev
	.section	.text._ZN7openpal5ArrayIN8opendnp34CellINS1_10AnalogSpecEEEtED2Ev,"axG",@progbits,_ZN7openpal5ArrayIN8opendnp34CellINS1_10AnalogSpecEEEtED5Ev,comdat
	.align	2
	.p2align 4,,11
	.weak	_ZN7openpal5ArrayIN8opendnp34CellINS1_10AnalogSpecEEEtED2Ev
	.type	_ZN7openpal5ArrayIN8opendnp34CellINS1_10AnalogSpecEEEtED2Ev, %function
_ZN7openpal5ArrayIN8opendnp34CellINS1_10AnalogSpecEEEtED2Ev:
.LFB3938:
	.cfi_startproc
	adrp	x1, :got:_ZTVN7openpal5ArrayIN8opendnp34CellINS1_10AnalogSpecEEEtEE
	mov	x2, x0
	ldr	x0, [x0, 16]
	ldr	x1, [x1, #:got_lo12:_ZTVN7openpal5ArrayIN8opendnp34CellINS1_10AnalogSpecEEEtEE]
	add	x1, x1, 16
	str	x1, [x2]
	cbz	x0, .L62
	b	_ZdaPv
	.p2align 2,,3
.L62:
	ret
	.cfi_endproc
.LFE3938:
	.size	_ZN7openpal5ArrayIN8opendnp34CellINS1_10AnalogSpecEEEtED2Ev, .-_ZN7openpal5ArrayIN8opendnp34CellINS1_10AnalogSpecEEEtED2Ev
	.weak	_ZN7openpal5ArrayIN8opendnp34CellINS1_10AnalogSpecEEEtED1Ev
	.set	_ZN7openpal5ArrayIN8opendnp34CellINS1_10AnalogSpecEEEtED1Ev,_ZN7openpal5ArrayIN8opendnp34CellINS1_10AnalogSpecEEEtED2Ev
	.section	.text._ZN7openpal5ArrayIN8opendnp34CellINS1_10AnalogSpecEEEtED0Ev,"axG",@progbits,_ZN7openpal5ArrayIN8opendnp34CellINS1_10AnalogSpecEEEtED5Ev,comdat
	.align	2
	.p2align 4,,11
	.weak	_ZN7openpal5ArrayIN8opendnp34CellINS1_10AnalogSpecEEEtED0Ev
	.type	_ZN7openpal5ArrayIN8opendnp34CellINS1_10AnalogSpecEEEtED0Ev, %function
_ZN7openpal5ArrayIN8opendnp34CellINS1_10AnalogSpecEEEtED0Ev:
.LFB3940:
	.cfi_startproc
	stp	x29, x30, [sp, -32]!
	.cfi_def_cfa_offset 32
	.cfi_offset 29, -32
	.cfi_offset 30, -24
	adrp	x1, :got:_ZTVN7openpal5ArrayIN8opendnp34CellINS1_10AnalogSpecEEEtEE
	mov	x29, sp
	ldr	x1, [x1, #:got_lo12:_ZTVN7openpal5ArrayIN8opendnp34CellINS1_10AnalogSpecEEEtEE]
	str	x19, [sp, 16]
	.cfi_offset 19, -16
	mov	x19, x0
	ldr	x0, [x0, 16]
	add	x1, x1, 16
	str	x1, [x19]
	cbz	x0, .L65
	bl	_ZdaPv
.L65:
	mov	x0, x19
	mov	x1, 24
	ldr	x19, [sp, 16]
	ldp	x29, x30, [sp], 32
	.cfi_restore 30
	.cfi_restore 29
	.cfi_restore 19
	.cfi_def_cfa_offset 0
	b	_ZdlPvm
	.cfi_endproc
.LFE3940:
	.size	_ZN7openpal5ArrayIN8opendnp34CellINS1_10AnalogSpecEEEtED0Ev, .-_ZN7openpal5ArrayIN8opendnp34CellINS1_10AnalogSpecEEEtED0Ev
	.section	.text._ZN7openpal5ArrayIN8opendnp34CellINS1_19DoubleBitBinarySpecEEEtED2Ev,"axG",@progbits,_ZN7openpal5ArrayIN8opendnp34CellINS1_19DoubleBitBinarySpecEEEtED5Ev,comdat
	.align	2
	.p2align 4,,11
	.weak	_ZN7openpal5ArrayIN8opendnp34CellINS1_19DoubleBitBinarySpecEEEtED2Ev
	.type	_ZN7openpal5ArrayIN8opendnp34CellINS1_19DoubleBitBinarySpecEEEtED2Ev, %function
_ZN7openpal5ArrayIN8opendnp34CellINS1_19DoubleBitBinarySpecEEEtED2Ev:
.LFB3934:
	.cfi_startproc
	adrp	x1, :got:_ZTVN7openpal5ArrayIN8opendnp34CellINS1_19DoubleBitBinarySpecEEEtEE
	mov	x2, x0
	ldr	x0, [x0, 16]
	ldr	x1, [x1, #:got_lo12:_ZTVN7openpal5ArrayIN8opendnp34CellINS1_19DoubleBitBinarySpecEEEtEE]
	add	x1, x1, 16
	str	x1, [x2]
	cbz	x0, .L70
	b	_ZdaPv
	.p2align 2,,3
.L70:
	ret
	.cfi_endproc
.LFE3934:
	.size	_ZN7openpal5ArrayIN8opendnp34CellINS1_19DoubleBitBinarySpecEEEtED2Ev, .-_ZN7openpal5ArrayIN8opendnp34CellINS1_19DoubleBitBinarySpecEEEtED2Ev
	.weak	_ZN7openpal5ArrayIN8opendnp34CellINS1_19DoubleBitBinarySpecEEEtED1Ev
	.set	_ZN7openpal5ArrayIN8opendnp34CellINS1_19DoubleBitBinarySpecEEEtED1Ev,_ZN7openpal5ArrayIN8opendnp34CellINS1_19DoubleBitBinarySpecEEEtED2Ev
	.section	.text._ZN7openpal5ArrayIN8opendnp34CellINS1_19DoubleBitBinarySpecEEEtED0Ev,"axG",@progbits,_ZN7openpal5ArrayIN8opendnp34CellINS1_19DoubleBitBinarySpecEEEtED5Ev,comdat
	.align	2
	.p2align 4,,11
	.weak	_ZN7openpal5ArrayIN8opendnp34CellINS1_19DoubleBitBinarySpecEEEtED0Ev
	.type	_ZN7openpal5ArrayIN8opendnp34CellINS1_19DoubleBitBinarySpecEEEtED0Ev, %function
_ZN7openpal5ArrayIN8opendnp34CellINS1_19DoubleBitBinarySpecEEEtED0Ev:
.LFB3936:
	.cfi_startproc
	stp	x29, x30, [sp, -32]!
	.cfi_def_cfa_offset 32
	.cfi_offset 29, -32
	.cfi_offset 30, -24
	adrp	x1, :got:_ZTVN7openpal5ArrayIN8opendnp34CellINS1_19DoubleBitBinarySpecEEEtEE
	mov	x29, sp
	ldr	x1, [x1, #:got_lo12:_ZTVN7openpal5ArrayIN8opendnp34CellINS1_19DoubleBitBinarySpecEEEtEE]
	str	x19, [sp, 16]
	.cfi_offset 19, -16
	mov	x19, x0
	ldr	x0, [x0, 16]
	add	x1, x1, 16
	str	x1, [x19]
	cbz	x0, .L73
	bl	_ZdaPv
.L73:
	mov	x0, x19
	mov	x1, 24
	ldr	x19, [sp, 16]
	ldp	x29, x30, [sp], 32
	.cfi_restore 30
	.cfi_restore 29
	.cfi_restore 19
	.cfi_def_cfa_offset 0
	b	_ZdlPvm
	.cfi_endproc
.LFE3936:
	.size	_ZN7openpal5ArrayIN8opendnp34CellINS1_19DoubleBitBinarySpecEEEtED0Ev, .-_ZN7openpal5ArrayIN8opendnp34CellINS1_19DoubleBitBinarySpecEEEtED0Ev
	.section	.text._ZN7openpal5ArrayIN8opendnp34CellINS1_10BinarySpecEEEtED2Ev,"axG",@progbits,_ZN7openpal5ArrayIN8opendnp34CellINS1_10BinarySpecEEEtED5Ev,comdat
	.align	2
	.p2align 4,,11
	.weak	_ZN7openpal5ArrayIN8opendnp34CellINS1_10BinarySpecEEEtED2Ev
	.type	_ZN7openpal5ArrayIN8opendnp34CellINS1_10BinarySpecEEEtED2Ev, %function
_ZN7openpal5ArrayIN8opendnp34CellINS1_10BinarySpecEEEtED2Ev:
.LFB3930:
	.cfi_startproc
	adrp	x1, :got:_ZTVN7openpal5ArrayIN8opendnp34CellINS1_10BinarySpecEEEtEE
	mov	x2, x0
	ldr	x0, [x0, 16]
	ldr	x1, [x1, #:got_lo12:_ZTVN7openpal5ArrayIN8opendnp34CellINS1_10BinarySpecEEEtEE]
	add	x1, x1, 16
	str	x1, [x2]
	cbz	x0, .L78
	b	_ZdaPv
	.p2align 2,,3
.L78:
	ret
	.cfi_endproc
.LFE3930:
	.size	_ZN7openpal5ArrayIN8opendnp34CellINS1_10BinarySpecEEEtED2Ev, .-_ZN7openpal5ArrayIN8opendnp34CellINS1_10BinarySpecEEEtED2Ev
	.weak	_ZN7openpal5ArrayIN8opendnp34CellINS1_10BinarySpecEEEtED1Ev
	.set	_ZN7openpal5ArrayIN8opendnp34CellINS1_10BinarySpecEEEtED1Ev,_ZN7openpal5ArrayIN8opendnp34CellINS1_10BinarySpecEEEtED2Ev
	.section	.text._ZN7openpal5ArrayIN8opendnp34CellINS1_10BinarySpecEEEtED0Ev,"axG",@progbits,_ZN7openpal5ArrayIN8opendnp34CellINS1_10BinarySpecEEEtED5Ev,comdat
	.align	2
	.p2align 4,,11
	.weak	_ZN7openpal5ArrayIN8opendnp34CellINS1_10BinarySpecEEEtED0Ev
	.type	_ZN7openpal5ArrayIN8opendnp34CellINS1_10BinarySpecEEEtED0Ev, %function
_ZN7openpal5ArrayIN8opendnp34CellINS1_10BinarySpecEEEtED0Ev:
.LFB3932:
	.cfi_startproc
	stp	x29, x30, [sp, -32]!
	.cfi_def_cfa_offset 32
	.cfi_offset 29, -32
	.cfi_offset 30, -24
	adrp	x1, :got:_ZTVN7openpal5ArrayIN8opendnp34CellINS1_10BinarySpecEEEtEE
	mov	x29, sp
	ldr	x1, [x1, #:got_lo12:_ZTVN7openpal5ArrayIN8opendnp34CellINS1_10BinarySpecEEEtEE]
	str	x19, [sp, 16]
	.cfi_offset 19, -16
	mov	x19, x0
	ldr	x0, [x0, 16]
	add	x1, x1, 16
	str	x1, [x19]
	cbz	x0, .L81
	bl	_ZdaPv
.L81:
	mov	x0, x19
	mov	x1, 24
	ldr	x19, [sp, 16]
	ldp	x29, x30, [sp], 32
	.cfi_restore 30
	.cfi_restore 29
	.cfi_restore 19
	.cfi_def_cfa_offset 0
	b	_ZdlPvm
	.cfi_endproc
.LFE3932:
	.size	_ZN7openpal5ArrayIN8opendnp34CellINS1_10BinarySpecEEEtED0Ev, .-_ZN7openpal5ArrayIN8opendnp34CellINS1_10BinarySpecEEEtED0Ev
	.section	.text._ZN7openpal5ArrayINS_8ListNodeIN8opendnp39SOERecordEEEjED2Ev,"axG",@progbits,_ZN7openpal5ArrayINS_8ListNodeIN8opendnp39SOERecordEEEjED5Ev,comdat
	.align	2
	.p2align 4,,11
	.weak	_ZN7openpal5ArrayINS_8ListNodeIN8opendnp39SOERecordEEEjED2Ev
	.type	_ZN7openpal5ArrayINS_8ListNodeIN8opendnp39SOERecordEEEjED2Ev, %function
_ZN7openpal5ArrayINS_8ListNodeIN8opendnp39SOERecordEEEjED2Ev:
.LFB3926:
	.cfi_startproc
	adrp	x1, :got:_ZTVN7openpal5ArrayINS_8ListNodeIN8opendnp39SOERecordEEEjEE
	mov	x2, x0
	ldr	x0, [x0, 16]
	ldr	x1, [x1, #:got_lo12:_ZTVN7openpal5ArrayINS_8ListNodeIN8opendnp39SOERecordEEEjEE]
	add	x1, x1, 16
	str	x1, [x2]
	cbz	x0, .L86
	b	_ZdaPv
	.p2align 2,,3
.L86:
	ret
	.cfi_endproc
.LFE3926:
	.size	_ZN7openpal5ArrayINS_8ListNodeIN8opendnp39SOERecordEEEjED2Ev, .-_ZN7openpal5ArrayINS_8ListNodeIN8opendnp39SOERecordEEEjED2Ev
	.weak	_ZN7openpal5ArrayINS_8ListNodeIN8opendnp39SOERecordEEEjED1Ev
	.set	_ZN7openpal5ArrayINS_8ListNodeIN8opendnp39SOERecordEEEjED1Ev,_ZN7openpal5ArrayINS_8ListNodeIN8opendnp39SOERecordEEEjED2Ev
	.section	.text._ZN7openpal5ArrayINS_8ListNodeIN8opendnp39SOERecordEEEjED0Ev,"axG",@progbits,_ZN7openpal5ArrayINS_8ListNodeIN8opendnp39SOERecordEEEjED5Ev,comdat
	.align	2
	.p2align 4,,11
	.weak	_ZN7openpal5ArrayINS_8ListNodeIN8opendnp39SOERecordEEEjED0Ev
	.type	_ZN7openpal5ArrayINS_8ListNodeIN8opendnp39SOERecordEEEjED0Ev, %function
_ZN7openpal5ArrayINS_8ListNodeIN8opendnp39SOERecordEEEjED0Ev:
.LFB3928:
	.cfi_startproc
	stp	x29, x30, [sp, -32]!
	.cfi_def_cfa_offset 32
	.cfi_offset 29, -32
	.cfi_offset 30, -24
	adrp	x1, :got:_ZTVN7openpal5ArrayINS_8ListNodeIN8opendnp39SOERecordEEEjEE
	mov	x29, sp
	ldr	x1, [x1, #:got_lo12:_ZTVN7openpal5ArrayINS_8ListNodeIN8opendnp39SOERecordEEEjEE]
	str	x19, [sp, 16]
	.cfi_offset 19, -16
	mov	x19, x0
	ldr	x0, [x0, 16]
	add	x1, x1, 16
	str	x1, [x19]
	cbz	x0, .L89
	bl	_ZdaPv
.L89:
	mov	x0, x19
	mov	x1, 24
	ldr	x19, [sp, 16]
	ldp	x29, x30, [sp], 32
	.cfi_restore 30
	.cfi_restore 29
	.cfi_restore 19
	.cfi_def_cfa_offset 0
	b	_ZdlPvm
	.cfi_endproc
.LFE3928:
	.size	_ZN7openpal5ArrayINS_8ListNodeIN8opendnp39SOERecordEEEjED0Ev, .-_ZN7openpal5ArrayINS_8ListNodeIN8opendnp39SOERecordEEEjED0Ev
	.section	.text._ZNK8opendnp322IOutstationApplication17GetApplicationIINEv,"axG",@progbits,_ZNK8opendnp322IOutstationApplication17GetApplicationIINEv,comdat
	.align	2
	.p2align 4,,11
	.weak	_ZNK8opendnp322IOutstationApplication17GetApplicationIINEv
	.type	_ZNK8opendnp322IOutstationApplication17GetApplicationIINEv, %function
_ZNK8opendnp322IOutstationApplication17GetApplicationIINEv:
.LFB2155:
	.cfi_startproc
	stp	x29, x30, [sp, -32]!
	.cfi_def_cfa_offset 32
	.cfi_offset 29, -32
	.cfi_offset 30, -24
	adrp	x1, :got:__stack_chk_guard
	mov	x29, sp
	ldr	x1, [x1, #:got_lo12:__stack_chk_guard]
	add	x0, sp, 16
	ldr	x2, [x1]
	str	x2, [sp, 24]
	mov	x2, 0
	bl	_ZN8opendnp314ApplicationIINC1Ev
	adrp	x1, :got:__stack_chk_guard
	ldr	w0, [sp, 16]
	ldr	x1, [x1, #:got_lo12:__stack_chk_guard]
	ldr	x3, [sp, 24]
	ldr	x2, [x1]
	subs	x3, x3, x2
	mov	x2, 0
	bne	.L97
	ldp	x29, x30, [sp], 32
	.cfi_remember_state
	.cfi_restore 30
	.cfi_restore 29
	.cfi_def_cfa_offset 0
	ret
.L97:
	.cfi_restore_state
	bl	__stack_chk_fail
	.cfi_endproc
.LFE2155:
	.size	_ZNK8opendnp322IOutstationApplication17GetApplicationIINEv, .-_ZNK8opendnp322IOutstationApplication17GetApplicationIINEv
	.section	.rodata.str1.8,"aMS",@progbits,1
	.align	3
.LC0:
	.string	"already offline"
	.align	3
.LC1:
	.string	"/home/jaehyun/OpenPLC_v3/utils/dnp3_src/cpp/libs/src/opendnp3/outstation/OutstationContext.cpp(96)"
	.text
	.align	2
	.p2align 4,,11
	.global	_ZN8opendnp38OContext16OnLowerLayerDownEv
	.type	_ZN8opendnp38OContext16OnLowerLayerDownEv, %function
_ZN8opendnp38OContext16OnLowerLayerDownEv:
.LFB2970:
	.cfi_startproc
	stp	x29, x30, [sp, -64]!
	.cfi_def_cfa_offset 64
	.cfi_offset 29, -64
	.cfi_offset 30, -56
	adrp	x1, :got:__stack_chk_guard
	mov	x29, sp
	ldr	x1, [x1, #:got_lo12:__stack_chk_guard]
	stp	x19, x20, [sp, 16]
	.cfi_offset 19, -48
	.cfi_offset 20, -40
	ldrb	w20, [x0, 720]
	mov	x19, x0
	ldr	x0, [x1]
	str	x0, [sp, 56]
	mov	x0, 0
	cbz	w20, .L108
	adrp	x1, :got:_ZN8opendnp39StateIdle8instanceE
	strh	wzr, [x19, 720]
	strb	wzr, [x19, 888]
	add	x0, x19, 744
	ldr	x1, [x1, #:got_lo12:_ZN8opendnp39StateIdle8instanceE]
	str	x1, [x19, 944]
	bl	_ZN8opendnp314RequestHistory5ResetEv
	add	x0, x19, 760
	bl	_ZN8opendnp315DeferredRequest5ResetEv
	add	x0, x19, 104
	bl	_ZN8opendnp311EventBuffer8UnselectEv
	add	x0, x19, 640
	bl	_ZN8opendnp315ResponseContext5ResetEv
	add	x0, x19, 728
	bl	_ZN7openpal8TimerRef6CancelEv
.L100:
	adrp	x0, :got:__stack_chk_guard
	ldr	x0, [x0, #:got_lo12:__stack_chk_guard]
	ldr	x2, [sp, 56]
	ldr	x1, [x0]
	subs	x2, x2, x1
	mov	x1, 0
	bne	.L109
	mov	w0, w20
	ldp	x19, x20, [sp, 16]
	ldp	x29, x30, [sp], 64
	.cfi_remember_state
	.cfi_restore 30
	.cfi_restore 29
	.cfi_restore 19
	.cfi_restore 20
	.cfi_def_cfa_offset 0
	ret
	.p2align 2,,3
.L108:
	.cfi_restore_state
	add	x19, x19, 8
	stp	x21, x22, [sp, 32]
	.cfi_offset 22, -24
	.cfi_offset 21, -32
	add	x22, sp, 48
	mov	w21, 2
	mov	x0, x19
	mov	x1, x22
	str	w21, [sp, 48]
	bl	_ZNK7openpal6Logger9IsEnabledERKNS_10LogFiltersE
	tst	w0, 255
	bne	.L110
	ldp	x21, x22, [sp, 32]
	.cfi_restore 22
	.cfi_restore 21
	b	.L100
	.p2align 2,,3
.L110:
	.cfi_offset 21, -32
	.cfi_offset 22, -24
	mov	x1, x22
	mov	x0, x19
	adrp	x3, .LC0
	adrp	x2, .LC1
	add	x3, x3, :lo12:.LC0
	add	x2, x2, :lo12:.LC1
	str	w21, [sp, 48]
	bl	_ZN7openpal6Logger3LogERKNS_10LogFiltersEPKcS5_
	ldp	x21, x22, [sp, 32]
	.cfi_restore 22
	.cfi_restore 21
	b	.L100
.L109:
	stp	x21, x22, [sp, 32]
	.cfi_offset 22, -24
	.cfi_offset 21, -32
	bl	__stack_chk_fail
	.cfi_endproc
.LFE2970:
	.size	_ZN8opendnp38OContext16OnLowerLayerDownEv, .-_ZN8opendnp38OContext16OnLowerLayerDownEv
	.align	2
	.p2align 4,,11
	.type	_ZNSt17_Function_handlerIFvvEZN7openpal8TimerRef7RestartIZN8opendnp38OContext19RestartConfirmTimerEvEUlvE_EEvRKNS1_12TimeDurationERKT_EUlvE_E10_M_managerERSt9_Any_dataRKSF_St18_Manager_operation, %function
_ZNSt17_Function_handlerIFvvEZN7openpal8TimerRef7RestartIZN8opendnp38OContext19RestartConfirmTimerEvEUlvE_EEvRKNS1_12TimeDurationERKT_EUlvE_E10_M_managerERSt9_Any_dataRKSF_St18_Manager_operation:
.LFB3593:
	.cfi_startproc
	cbz	w2, .L112
	cmp	w2, 1
	beq	.L113
	cmp	w2, 2
	beq	.L117
.L115:
	mov	w0, 0
	ret
	.p2align 2,,3
.L112:
	adrp	x1, .LANCHOR0
	add	x1, x1, :lo12:.LANCHOR0
	str	x1, [x0]
	mov	w0, 0
	ret
	.p2align 2,,3
.L113:
	str	x1, [x0]
	mov	w0, 0
	ret
	.p2align 2,,3
.L117:
	ldp	x2, x3, [x1]
	stp	x2, x3, [x0]
	b	.L115
	.cfi_endproc
.LFE3593:
	.size	_ZNSt17_Function_handlerIFvvEZN7openpal8TimerRef7RestartIZN8opendnp38OContext19RestartConfirmTimerEvEUlvE_EEvRKNS1_12TimeDurationERKT_EUlvE_E10_M_managerERSt9_Any_dataRKSF_St18_Manager_operation, .-_ZNSt17_Function_handlerIFvvEZN7openpal8TimerRef7RestartIZN8opendnp38OContext19RestartConfirmTimerEvEUlvE_EEvRKNS1_12TimeDurationERKT_EUlvE_E10_M_managerERSt9_Any_dataRKSF_St18_Manager_operation
	.global	__aarch64_ldadd4_acq_rel
	.section	.text._ZN8opendnp38OContextD0Ev,"axG",@progbits,_ZN8opendnp38OContextD5Ev,comdat
	.align	2
	.p2align 4,,11
	.weak	_ZN8opendnp38OContextD0Ev
	.type	_ZN8opendnp38OContextD0Ev, %function
_ZN8opendnp38OContextD0Ev:
.LFB3865:
	.cfi_startproc
	stp	x29, x30, [sp, -48]!
	.cfi_def_cfa_offset 48
	.cfi_offset 29, -48
	.cfi_offset 30, -40
	adrp	x1, :got:_ZTVN8opendnp38OContextE
	mov	x29, sp
	stp	x19, x20, [sp, 16]
	.cfi_offset 19, -32
	.cfi_offset 20, -24
	adrp	x20, :got:_ZTVN7openpal5ArrayIhjEE
	mov	x19, x0
	ldr	x1, [x1, #:got_lo12:_ZTVN8opendnp38OContextE]
	ldr	x2, [x20, #:got_lo12:_ZTVN7openpal5ArrayIhjEE]
	add	x1, x1, 16
	ldr	x0, [x0, 936]
	str	x21, [sp, 32]
	.cfi_offset 21, -16
	add	x2, x2, 16
	str	x1, [x19]
	str	x2, [x19, 920]
	cbz	x0, .L119
	bl	_ZdaPv
.L119:
	ldr	x1, [x20, #:got_lo12:_ZTVN7openpal5ArrayIhjEE]
	ldr	x0, [x19, 880]
	add	x1, x1, 16
	str	x1, [x19, 864]
	cbz	x0, .L120
	bl	_ZdaPv
.L120:
	ldr	x20, [x20, #:got_lo12:_ZTVN7openpal5ArrayIhjEE]
	ldr	x0, [x19, 800]
	add	x20, x20, 16
	str	x20, [x19, 784]
	cbz	x0, .L121
	bl	_ZdaPv
.L121:
	add	x0, x19, 728
	bl	_ZN7openpal8TimerRefD1Ev
	adrp	x0, :got:_ZTVN8opendnp315DatabaseBuffersE
	adrp	x3, :got:_ZTVN8opendnp38DatabaseE
	adrp	x1, :got:_ZTVN7openpal5ArrayIN8opendnp34CellINS1_19TimeAndIntervalSpecEEEtEE
	add	x4, x19, 384
	ldr	x0, [x0, #:got_lo12:_ZTVN8opendnp315DatabaseBuffersE]
	ldr	x3, [x3, #:got_lo12:_ZTVN8opendnp38DatabaseE]
	add	x5, x0, 88
	ldr	x2, [x1, #:got_lo12:_ZTVN7openpal5ArrayIN8opendnp34CellINS1_19TimeAndIntervalSpecEEEtEE]
	add	x1, x0, 16
	add	x3, x3, 16
	str	x3, [x19, 360]
	str	x1, [x19, 384]
	add	x1, x0, 120
	ldr	x0, [x19, 592]
	stp	x5, x1, [x4, 8]
	add	x1, x2, 16
	str	x1, [x19, 576]
	cbz	x0, .L122
	bl	_ZdaPv
.L122:
	adrp	x1, :got:_ZTVN7openpal5ArrayIN8opendnp34CellINS1_22AnalogOutputStatusSpecEEEtEE
	ldr	x0, [x19, 568]
	ldr	x1, [x1, #:got_lo12:_ZTVN7openpal5ArrayIN8opendnp34CellINS1_22AnalogOutputStatusSpecEEEtEE]
	add	x1, x1, 16
	str	x1, [x19, 552]
	cbz	x0, .L123
	bl	_ZdaPv
.L123:
	adrp	x1, :got:_ZTVN7openpal5ArrayIN8opendnp34CellINS1_22BinaryOutputStatusSpecEEEtEE
	ldr	x0, [x19, 544]
	ldr	x1, [x1, #:got_lo12:_ZTVN7openpal5ArrayIN8opendnp34CellINS1_22BinaryOutputStatusSpecEEEtEE]
	add	x1, x1, 16
	str	x1, [x19, 528]
	cbz	x0, .L124
	bl	_ZdaPv
.L124:
	adrp	x1, :got:_ZTVN7openpal5ArrayIN8opendnp34CellINS1_17FrozenCounterSpecEEEtEE
	ldr	x0, [x19, 520]
	ldr	x1, [x1, #:got_lo12:_ZTVN7openpal5ArrayIN8opendnp34CellINS1_17FrozenCounterSpecEEEtEE]
	add	x1, x1, 16
	str	x1, [x19, 504]
	cbz	x0, .L125
	bl	_ZdaPv
.L125:
	adrp	x1, :got:_ZTVN7openpal5ArrayIN8opendnp34CellINS1_11CounterSpecEEEtEE
	ldr	x0, [x19, 496]
	ldr	x1, [x1, #:got_lo12:_ZTVN7openpal5ArrayIN8opendnp34CellINS1_11CounterSpecEEEtEE]
	add	x1, x1, 16
	str	x1, [x19, 480]
	cbz	x0, .L126
	bl	_ZdaPv
.L126:
	adrp	x1, :got:_ZTVN7openpal5ArrayIN8opendnp34CellINS1_10AnalogSpecEEEtEE
	ldr	x0, [x19, 472]
	ldr	x1, [x1, #:got_lo12:_ZTVN7openpal5ArrayIN8opendnp34CellINS1_10AnalogSpecEEEtEE]
	add	x1, x1, 16
	str	x1, [x19, 456]
	cbz	x0, .L127
	bl	_ZdaPv
.L127:
	adrp	x1, :got:_ZTVN7openpal5ArrayIN8opendnp34CellINS1_19DoubleBitBinarySpecEEEtEE
	ldr	x0, [x19, 448]
	ldr	x1, [x1, #:got_lo12:_ZTVN7openpal5ArrayIN8opendnp34CellINS1_19DoubleBitBinarySpecEEEtEE]
	add	x1, x1, 16
	str	x1, [x19, 432]
	cbz	x0, .L128
	bl	_ZdaPv
.L128:
	adrp	x1, :got:_ZTVN7openpal5ArrayIN8opendnp34CellINS1_10BinarySpecEEEtEE
	ldr	x0, [x19, 424]
	ldr	x1, [x1, #:got_lo12:_ZTVN7openpal5ArrayIN8opendnp34CellINS1_10BinarySpecEEEtEE]
	add	x1, x1, 16
	str	x1, [x19, 408]
	cbz	x0, .L129
	bl	_ZdaPv
.L129:
	adrp	x1, :got:_ZTVN8opendnp311EventBufferE
	adrp	x2, :got:_ZTVN7openpal5ArrayINS_8ListNodeIN8opendnp39SOERecordEEEjEE
	ldr	x1, [x1, #:got_lo12:_ZTVN8opendnp311EventBufferE]
	ldr	x2, [x2, #:got_lo12:_ZTVN7openpal5ArrayINS_8ListNodeIN8opendnp39SOERecordEEEjEE]
	add	x0, x1, 16
	add	x5, x1, 160
	stp	x0, x5, [x19, 104]
	add	x4, x1, 192
	ldr	x0, [x19, 208]
	add	x1, x1, 224
	add	x2, x2, 16
	stp	x4, x1, [x19, 120]
	str	x2, [x19, 192]
	cbz	x0, .L130
	bl	_ZdaPv
.L130:
	ldr	x21, [x19, 96]
	cbz	x21, .L132
	adrp	x20, :got:__libc_single_threaded
	ldr	x0, [x20, #:got_lo12:__libc_single_threaded]
	ldrb	w0, [x0]
	cbz	w0, .L133
	ldr	w0, [x21, 8]
	sub	w1, w0, #1
	str	w1, [x21, 8]
.L134:
	cmp	w0, 1
	beq	.L210
.L132:
	ldr	x21, [x19, 80]
	cbz	x21, .L139
	adrp	x20, :got:__libc_single_threaded
	ldr	x0, [x20, #:got_lo12:__libc_single_threaded]
	ldrb	w0, [x0]
	cbz	w0, .L140
	ldr	w0, [x21, 8]
	sub	w1, w0, #1
	str	w1, [x21, 8]
.L141:
	cmp	w0, 1
	beq	.L211
.L139:
	ldr	x21, [x19, 64]
	cbz	x21, .L146
	adrp	x20, :got:__libc_single_threaded
	ldr	x0, [x20, #:got_lo12:__libc_single_threaded]
	ldrb	w0, [x0]
	cbz	w0, .L147
	ldr	w0, [x21, 8]
	sub	w1, w0, #1
	str	w1, [x21, 8]
.L148:
	cmp	w0, 1
	beq	.L212
.L146:
	ldr	x21, [x19, 48]
	cbz	x21, .L153
	adrp	x20, :got:__libc_single_threaded
	ldr	x0, [x20, #:got_lo12:__libc_single_threaded]
	ldrb	w0, [x0]
	cbz	w0, .L154
	ldr	w0, [x21, 8]
	sub	w1, w0, #1
	str	w1, [x21, 8]
.L155:
	cmp	w0, 1
	beq	.L213
.L153:
	ldr	x21, [x19, 32]
	cbz	x21, .L160
	adrp	x20, :got:__libc_single_threaded
	ldr	x0, [x20, #:got_lo12:__libc_single_threaded]
	ldrb	w0, [x0]
	cbz	w0, .L161
	ldr	w0, [x21, 8]
	sub	w1, w0, #1
	str	w1, [x21, 8]
.L162:
	cmp	w0, 1
	beq	.L214
.L160:
	ldr	x21, [x19, 16]
	cbz	x21, .L167
	adrp	x20, :got:__libc_single_threaded
	ldr	x0, [x20, #:got_lo12:__libc_single_threaded]
	ldrb	w0, [x0]
	cbz	w0, .L168
	ldr	w0, [x21, 8]
	sub	w1, w0, #1
	str	w1, [x21, 8]
.L169:
	cmp	w0, 1
	beq	.L215
.L167:
	mov	x0, x19
	mov	x1, 952
	ldp	x19, x20, [sp, 16]
	ldr	x21, [sp, 32]
	ldp	x29, x30, [sp], 48
	.cfi_remember_state
	.cfi_restore 30
	.cfi_restore 29
	.cfi_restore 21
	.cfi_restore 19
	.cfi_restore 20
	.cfi_def_cfa_offset 0
	b	_ZdlPvm
	.p2align 2,,3
.L210:
	.cfi_restore_state
	ldr	x1, [x21]
	mov	x0, x21
	ldr	x1, [x1, 16]
	blr	x1
	ldr	x20, [x20, #:got_lo12:__libc_single_threaded]
	ldrb	w0, [x20]
	cbz	w0, .L136
	ldr	w0, [x21, 12]
	sub	w1, w0, #1
	str	w1, [x21, 12]
.L137:
	cmp	w0, 1
	bne	.L132
	ldr	x1, [x21]
	mov	x0, x21
	ldr	x1, [x1, 24]
	blr	x1
	b	.L132
	.p2align 2,,3
.L211:
	ldr	x1, [x21]
	mov	x0, x21
	ldr	x1, [x1, 16]
	blr	x1
	ldr	x20, [x20, #:got_lo12:__libc_single_threaded]
	ldrb	w0, [x20]
	cbz	w0, .L143
	ldr	w0, [x21, 12]
	sub	w1, w0, #1
	str	w1, [x21, 12]
.L144:
	cmp	w0, 1
	bne	.L139
	ldr	x1, [x21]
	mov	x0, x21
	ldr	x1, [x1, 24]
	blr	x1
	b	.L139
	.p2align 2,,3
.L212:
	ldr	x1, [x21]
	mov	x0, x21
	ldr	x1, [x1, 16]
	blr	x1
	ldr	x20, [x20, #:got_lo12:__libc_single_threaded]
	ldrb	w0, [x20]
	cbz	w0, .L150
	ldr	w0, [x21, 12]
	sub	w1, w0, #1
	str	w1, [x21, 12]
.L151:
	cmp	w0, 1
	bne	.L146
	ldr	x1, [x21]
	mov	x0, x21
	ldr	x1, [x1, 24]
	blr	x1
	b	.L146
	.p2align 2,,3
.L213:
	ldr	x1, [x21]
	mov	x0, x21
	ldr	x1, [x1, 16]
	blr	x1
	ldr	x20, [x20, #:got_lo12:__libc_single_threaded]
	ldrb	w0, [x20]
	cbz	w0, .L157
	ldr	w0, [x21, 12]
	sub	w1, w0, #1
	str	w1, [x21, 12]
.L158:
	cmp	w0, 1
	bne	.L153
	ldr	x1, [x21]
	mov	x0, x21
	ldr	x1, [x1, 24]
	blr	x1
	b	.L153
	.p2align 2,,3
.L214:
	ldr	x1, [x21]
	mov	x0, x21
	ldr	x1, [x1, 16]
	blr	x1
	ldr	x20, [x20, #:got_lo12:__libc_single_threaded]
	ldrb	w0, [x20]
	cbz	w0, .L164
	ldr	w0, [x21, 12]
	sub	w1, w0, #1
	str	w1, [x21, 12]
.L165:
	cmp	w0, 1
	bne	.L160
	ldr	x1, [x21]
	mov	x0, x21
	ldr	x1, [x1, 24]
	blr	x1
	b	.L160
	.p2align 2,,3
.L215:
	ldr	x1, [x21]
	mov	x0, x21
	ldr	x1, [x1, 16]
	blr	x1
	ldr	x20, [x20, #:got_lo12:__libc_single_threaded]
	ldrb	w0, [x20]
	cbz	w0, .L171
	ldr	w0, [x21, 12]
	sub	w1, w0, #1
	str	w1, [x21, 12]
.L172:
	cmp	w0, 1
	bne	.L167
	ldr	x1, [x21]
	mov	x0, x21
	ldr	x1, [x1, 24]
	blr	x1
	b	.L167
	.p2align 2,,3
.L140:
	add	x1, x21, 8
	mov	w0, -1
	bl	__aarch64_ldadd4_acq_rel
	b	.L141
	.p2align 2,,3
.L154:
	add	x1, x21, 8
	mov	w0, -1
	bl	__aarch64_ldadd4_acq_rel
	b	.L155
	.p2align 2,,3
.L161:
	add	x1, x21, 8
	mov	w0, -1
	bl	__aarch64_ldadd4_acq_rel
	b	.L162
	.p2align 2,,3
.L168:
	add	x1, x21, 8
	mov	w0, -1
	bl	__aarch64_ldadd4_acq_rel
	b	.L169
	.p2align 2,,3
.L133:
	add	x1, x21, 8
	mov	w0, -1
	bl	__aarch64_ldadd4_acq_rel
	b	.L134
	.p2align 2,,3
.L147:
	add	x1, x21, 8
	mov	w0, -1
	bl	__aarch64_ldadd4_acq_rel
	b	.L148
	.p2align 2,,3
.L136:
	add	x1, x21, 12
	mov	w0, -1
	bl	__aarch64_ldadd4_acq_rel
	b	.L137
	.p2align 2,,3
.L171:
	add	x1, x21, 12
	mov	w0, -1
	bl	__aarch64_ldadd4_acq_rel
	b	.L172
	.p2align 2,,3
.L143:
	add	x1, x21, 12
	mov	w0, -1
	bl	__aarch64_ldadd4_acq_rel
	b	.L144
	.p2align 2,,3
.L150:
	add	x1, x21, 12
	mov	w0, -1
	bl	__aarch64_ldadd4_acq_rel
	b	.L151
	.p2align 2,,3
.L157:
	add	x1, x21, 12
	mov	w0, -1
	bl	__aarch64_ldadd4_acq_rel
	b	.L158
	.p2align 2,,3
.L164:
	add	x1, x21, 12
	mov	w0, -1
	bl	__aarch64_ldadd4_acq_rel
	b	.L165
	.cfi_endproc
.LFE3865:
	.size	_ZN8opendnp38OContextD0Ev, .-_ZN8opendnp38OContextD0Ev
	.section	.text._ZN8opendnp38OContextD2Ev,"axG",@progbits,_ZN8opendnp38OContextD5Ev,comdat
	.align	2
	.p2align 4,,11
	.weak	_ZN8opendnp38OContextD2Ev
	.type	_ZN8opendnp38OContextD2Ev, %function
_ZN8opendnp38OContextD2Ev:
.LFB3863:
	.cfi_startproc
	stp	x29, x30, [sp, -48]!
	.cfi_def_cfa_offset 48
	.cfi_offset 29, -48
	.cfi_offset 30, -40
	adrp	x1, :got:_ZTVN8opendnp38OContextE
	mov	x29, sp
	stp	x19, x20, [sp, 16]
	.cfi_offset 19, -32
	.cfi_offset 20, -24
	adrp	x20, :got:_ZTVN7openpal5ArrayIhjEE
	mov	x19, x0
	ldr	x1, [x1, #:got_lo12:_ZTVN8opendnp38OContextE]
	ldr	x2, [x20, #:got_lo12:_ZTVN7openpal5ArrayIhjEE]
	add	x1, x1, 16
	ldr	x0, [x0, 936]
	str	x21, [sp, 32]
	.cfi_offset 21, -16
	add	x2, x2, 16
	str	x1, [x19]
	str	x2, [x19, 920]
	cbz	x0, .L217
	bl	_ZdaPv
.L217:
	ldr	x1, [x20, #:got_lo12:_ZTVN7openpal5ArrayIhjEE]
	ldr	x0, [x19, 880]
	add	x1, x1, 16
	str	x1, [x19, 864]
	cbz	x0, .L218
	bl	_ZdaPv
.L218:
	ldr	x20, [x20, #:got_lo12:_ZTVN7openpal5ArrayIhjEE]
	ldr	x0, [x19, 800]
	add	x20, x20, 16
	str	x20, [x19, 784]
	cbz	x0, .L219
	bl	_ZdaPv
.L219:
	add	x0, x19, 728
	bl	_ZN7openpal8TimerRefD1Ev
	adrp	x0, :got:_ZTVN8opendnp315DatabaseBuffersE
	adrp	x3, :got:_ZTVN8opendnp38DatabaseE
	adrp	x1, :got:_ZTVN7openpal5ArrayIN8opendnp34CellINS1_19TimeAndIntervalSpecEEEtEE
	add	x4, x19, 384
	ldr	x0, [x0, #:got_lo12:_ZTVN8opendnp315DatabaseBuffersE]
	ldr	x3, [x3, #:got_lo12:_ZTVN8opendnp38DatabaseE]
	add	x5, x0, 88
	ldr	x2, [x1, #:got_lo12:_ZTVN7openpal5ArrayIN8opendnp34CellINS1_19TimeAndIntervalSpecEEEtEE]
	add	x1, x0, 16
	add	x3, x3, 16
	str	x3, [x19, 360]
	str	x1, [x19, 384]
	add	x1, x0, 120
	ldr	x0, [x19, 592]
	stp	x5, x1, [x4, 8]
	add	x1, x2, 16
	str	x1, [x19, 576]
	cbz	x0, .L220
	bl	_ZdaPv
.L220:
	adrp	x1, :got:_ZTVN7openpal5ArrayIN8opendnp34CellINS1_22AnalogOutputStatusSpecEEEtEE
	ldr	x0, [x19, 568]
	ldr	x1, [x1, #:got_lo12:_ZTVN7openpal5ArrayIN8opendnp34CellINS1_22AnalogOutputStatusSpecEEEtEE]
	add	x1, x1, 16
	str	x1, [x19, 552]
	cbz	x0, .L221
	bl	_ZdaPv
.L221:
	adrp	x1, :got:_ZTVN7openpal5ArrayIN8opendnp34CellINS1_22BinaryOutputStatusSpecEEEtEE
	ldr	x0, [x19, 544]
	ldr	x1, [x1, #:got_lo12:_ZTVN7openpal5ArrayIN8opendnp34CellINS1_22BinaryOutputStatusSpecEEEtEE]
	add	x1, x1, 16
	str	x1, [x19, 528]
	cbz	x0, .L222
	bl	_ZdaPv
.L222:
	adrp	x1, :got:_ZTVN7openpal5ArrayIN8opendnp34CellINS1_17FrozenCounterSpecEEEtEE
	ldr	x0, [x19, 520]
	ldr	x1, [x1, #:got_lo12:_ZTVN7openpal5ArrayIN8opendnp34CellINS1_17FrozenCounterSpecEEEtEE]
	add	x1, x1, 16
	str	x1, [x19, 504]
	cbz	x0, .L223
	bl	_ZdaPv
.L223:
	adrp	x1, :got:_ZTVN7openpal5ArrayIN8opendnp34CellINS1_11CounterSpecEEEtEE
	ldr	x0, [x19, 496]
	ldr	x1, [x1, #:got_lo12:_ZTVN7openpal5ArrayIN8opendnp34CellINS1_11CounterSpecEEEtEE]
	add	x1, x1, 16
	str	x1, [x19, 480]
	cbz	x0, .L224
	bl	_ZdaPv
.L224:
	adrp	x1, :got:_ZTVN7openpal5ArrayIN8opendnp34CellINS1_10AnalogSpecEEEtEE
	ldr	x0, [x19, 472]
	ldr	x1, [x1, #:got_lo12:_ZTVN7openpal5ArrayIN8opendnp34CellINS1_10AnalogSpecEEEtEE]
	add	x1, x1, 16
	str	x1, [x19, 456]
	cbz	x0, .L225
	bl	_ZdaPv
.L225:
	adrp	x1, :got:_ZTVN7openpal5ArrayIN8opendnp34CellINS1_19DoubleBitBinarySpecEEEtEE
	ldr	x0, [x19, 448]
	ldr	x1, [x1, #:got_lo12:_ZTVN7openpal5ArrayIN8opendnp34CellINS1_19DoubleBitBinarySpecEEEtEE]
	add	x1, x1, 16
	str	x1, [x19, 432]
	cbz	x0, .L226
	bl	_ZdaPv
.L226:
	adrp	x1, :got:_ZTVN7openpal5ArrayIN8opendnp34CellINS1_10BinarySpecEEEtEE
	ldr	x0, [x19, 424]
	ldr	x1, [x1, #:got_lo12:_ZTVN7openpal5ArrayIN8opendnp34CellINS1_10BinarySpecEEEtEE]
	add	x1, x1, 16
	str	x1, [x19, 408]
	cbz	x0, .L227
	bl	_ZdaPv
.L227:
	adrp	x1, :got:_ZTVN8opendnp311EventBufferE
	adrp	x2, :got:_ZTVN7openpal5ArrayINS_8ListNodeIN8opendnp39SOERecordEEEjEE
	ldr	x1, [x1, #:got_lo12:_ZTVN8opendnp311EventBufferE]
	ldr	x2, [x2, #:got_lo12:_ZTVN7openpal5ArrayINS_8ListNodeIN8opendnp39SOERecordEEEjEE]
	add	x0, x1, 16
	add	x5, x1, 160
	stp	x0, x5, [x19, 104]
	add	x4, x1, 192
	ldr	x0, [x19, 208]
	add	x1, x1, 224
	add	x2, x2, 16
	stp	x4, x1, [x19, 120]
	str	x2, [x19, 192]
	cbz	x0, .L228
	bl	_ZdaPv
.L228:
	ldr	x21, [x19, 96]
	cbz	x21, .L230
	adrp	x20, :got:__libc_single_threaded
	ldr	x0, [x20, #:got_lo12:__libc_single_threaded]
	ldrb	w0, [x0]
	cbz	w0, .L231
	ldr	w0, [x21, 8]
	sub	w1, w0, #1
	str	w1, [x21, 8]
.L232:
	cmp	w0, 1
	beq	.L308
.L230:
	ldr	x21, [x19, 80]
	cbz	x21, .L237
	adrp	x20, :got:__libc_single_threaded
	ldr	x0, [x20, #:got_lo12:__libc_single_threaded]
	ldrb	w0, [x0]
	cbz	w0, .L238
	ldr	w0, [x21, 8]
	sub	w1, w0, #1
	str	w1, [x21, 8]
.L239:
	cmp	w0, 1
	beq	.L309
.L237:
	ldr	x21, [x19, 64]
	cbz	x21, .L244
	adrp	x20, :got:__libc_single_threaded
	ldr	x0, [x20, #:got_lo12:__libc_single_threaded]
	ldrb	w0, [x0]
	cbz	w0, .L245
	ldr	w0, [x21, 8]
	sub	w1, w0, #1
	str	w1, [x21, 8]
.L246:
	cmp	w0, 1
	beq	.L310
.L244:
	ldr	x21, [x19, 48]
	cbz	x21, .L251
	adrp	x20, :got:__libc_single_threaded
	ldr	x0, [x20, #:got_lo12:__libc_single_threaded]
	ldrb	w0, [x0]
	cbz	w0, .L252
	ldr	w0, [x21, 8]
	sub	w1, w0, #1
	str	w1, [x21, 8]
.L253:
	cmp	w0, 1
	beq	.L311
.L251:
	ldr	x21, [x19, 32]
	cbz	x21, .L258
	adrp	x20, :got:__libc_single_threaded
	ldr	x0, [x20, #:got_lo12:__libc_single_threaded]
	ldrb	w0, [x0]
	cbz	w0, .L259
	ldr	w0, [x21, 8]
	sub	w1, w0, #1
	str	w1, [x21, 8]
.L260:
	cmp	w0, 1
	beq	.L312
.L258:
	ldr	x19, [x19, 16]
	cbz	x19, .L216
	adrp	x20, :got:__libc_single_threaded
	ldr	x0, [x20, #:got_lo12:__libc_single_threaded]
	ldrb	w0, [x0]
	cbz	w0, .L266
	ldr	w0, [x19, 8]
	sub	w1, w0, #1
	str	w1, [x19, 8]
.L267:
	cmp	w0, 1
	beq	.L313
.L216:
	ldp	x19, x20, [sp, 16]
	ldr	x21, [sp, 32]
	ldp	x29, x30, [sp], 48
	.cfi_remember_state
	.cfi_restore 30
	.cfi_restore 29
	.cfi_restore 21
	.cfi_restore 19
	.cfi_restore 20
	.cfi_def_cfa_offset 0
	ret
	.p2align 2,,3
.L308:
	.cfi_restore_state
	ldr	x1, [x21]
	mov	x0, x21
	ldr	x1, [x1, 16]
	blr	x1
	ldr	x20, [x20, #:got_lo12:__libc_single_threaded]
	ldrb	w0, [x20]
	cbz	w0, .L234
	ldr	w0, [x21, 12]
	sub	w1, w0, #1
	str	w1, [x21, 12]
.L235:
	cmp	w0, 1
	bne	.L230
	ldr	x1, [x21]
	mov	x0, x21
	ldr	x1, [x1, 24]
	blr	x1
	b	.L230
	.p2align 2,,3
.L309:
	ldr	x1, [x21]
	mov	x0, x21
	ldr	x1, [x1, 16]
	blr	x1
	ldr	x20, [x20, #:got_lo12:__libc_single_threaded]
	ldrb	w0, [x20]
	cbz	w0, .L241
	ldr	w0, [x21, 12]
	sub	w1, w0, #1
	str	w1, [x21, 12]
.L242:
	cmp	w0, 1
	bne	.L237
	ldr	x1, [x21]
	mov	x0, x21
	ldr	x1, [x1, 24]
	blr	x1
	b	.L237
	.p2align 2,,3
.L310:
	ldr	x1, [x21]
	mov	x0, x21
	ldr	x1, [x1, 16]
	blr	x1
	ldr	x20, [x20, #:got_lo12:__libc_single_threaded]
	ldrb	w0, [x20]
	cbz	w0, .L248
	ldr	w0, [x21, 12]
	sub	w1, w0, #1
	str	w1, [x21, 12]
.L249:
	cmp	w0, 1
	bne	.L244
	ldr	x1, [x21]
	mov	x0, x21
	ldr	x1, [x1, 24]
	blr	x1
	b	.L244
	.p2align 2,,3
.L311:
	ldr	x1, [x21]
	mov	x0, x21
	ldr	x1, [x1, 16]
	blr	x1
	ldr	x20, [x20, #:got_lo12:__libc_single_threaded]
	ldrb	w0, [x20]
	cbz	w0, .L255
	ldr	w0, [x21, 12]
	sub	w1, w0, #1
	str	w1, [x21, 12]
.L256:
	cmp	w0, 1
	bne	.L251
	ldr	x1, [x21]
	mov	x0, x21
	ldr	x1, [x1, 24]
	blr	x1
	b	.L251
	.p2align 2,,3
.L312:
	ldr	x1, [x21]
	mov	x0, x21
	ldr	x1, [x1, 16]
	blr	x1
	ldr	x20, [x20, #:got_lo12:__libc_single_threaded]
	ldrb	w0, [x20]
	cbz	w0, .L262
	ldr	w0, [x21, 12]
	sub	w1, w0, #1
	str	w1, [x21, 12]
.L263:
	cmp	w0, 1
	bne	.L258
	ldr	x1, [x21]
	mov	x0, x21
	ldr	x1, [x1, 24]
	blr	x1
	b	.L258
	.p2align 2,,3
.L313:
	ldr	x1, [x19]
	mov	x0, x19
	ldr	x1, [x1, 16]
	blr	x1
	ldr	x20, [x20, #:got_lo12:__libc_single_threaded]
	ldrb	w0, [x20]
	cbz	w0, .L269
	ldr	w0, [x19, 12]
	sub	w1, w0, #1
	str	w1, [x19, 12]
.L270:
	cmp	w0, 1
	bne	.L216
	ldr	x1, [x19]
	mov	x0, x19
	ldp	x19, x20, [sp, 16]
	ldr	x21, [sp, 32]
	ldp	x29, x30, [sp], 48
	.cfi_remember_state
	.cfi_restore 30
	.cfi_restore 29
	.cfi_restore 21
	.cfi_restore 19
	.cfi_restore 20
	.cfi_def_cfa_offset 0
	ldr	x1, [x1, 24]
	mov	x16, x1
	br	x16
	.p2align 2,,3
.L238:
	.cfi_restore_state
	add	x1, x21, 8
	mov	w0, -1
	bl	__aarch64_ldadd4_acq_rel
	b	.L239
	.p2align 2,,3
.L252:
	add	x1, x21, 8
	mov	w0, -1
	bl	__aarch64_ldadd4_acq_rel
	b	.L253
	.p2align 2,,3
.L259:
	add	x1, x21, 8
	mov	w0, -1
	bl	__aarch64_ldadd4_acq_rel
	b	.L260
	.p2align 2,,3
.L266:
	add	x1, x19, 8
	mov	w0, -1
	bl	__aarch64_ldadd4_acq_rel
	b	.L267
	.p2align 2,,3
.L231:
	add	x1, x21, 8
	mov	w0, -1
	bl	__aarch64_ldadd4_acq_rel
	b	.L232
	.p2align 2,,3
.L245:
	add	x1, x21, 8
	mov	w0, -1
	bl	__aarch64_ldadd4_acq_rel
	b	.L246
	.p2align 2,,3
.L234:
	add	x1, x21, 12
	mov	w0, -1
	bl	__aarch64_ldadd4_acq_rel
	b	.L235
	.p2align 2,,3
.L269:
	add	x1, x19, 12
	mov	w0, -1
	bl	__aarch64_ldadd4_acq_rel
	b	.L270
	.p2align 2,,3
.L241:
	add	x1, x21, 12
	mov	w0, -1
	bl	__aarch64_ldadd4_acq_rel
	b	.L242
	.p2align 2,,3
.L248:
	add	x1, x21, 12
	mov	w0, -1
	bl	__aarch64_ldadd4_acq_rel
	b	.L249
	.p2align 2,,3
.L255:
	add	x1, x21, 12
	mov	w0, -1
	bl	__aarch64_ldadd4_acq_rel
	b	.L256
	.p2align 2,,3
.L262:
	add	x1, x21, 12
	mov	w0, -1
	bl	__aarch64_ldadd4_acq_rel
	b	.L263
	.cfi_endproc
.LFE3863:
	.size	_ZN8opendnp38OContextD2Ev, .-_ZN8opendnp38OContextD2Ev
	.weak	_ZN8opendnp38OContextD1Ev
	.set	_ZN8opendnp38OContextD1Ev,_ZN8opendnp38OContextD2Ev
	.section	.text._ZN7openpal6LoggerD2Ev,"axG",@progbits,_ZN7openpal6LoggerD5Ev,comdat
	.align	2
	.p2align 4,,11
	.weak	_ZN7openpal6LoggerD2Ev
	.type	_ZN7openpal6LoggerD2Ev, %function
_ZN7openpal6LoggerD2Ev:
.LFB2736:
	.cfi_startproc
	stp	x29, x30, [sp, -48]!
	.cfi_def_cfa_offset 48
	.cfi_offset 29, -48
	.cfi_offset 30, -40
	mov	x29, sp
	stp	x19, x20, [sp, 16]
	.cfi_offset 19, -32
	.cfi_offset 20, -24
	mov	x19, x0
	ldr	x20, [x0, 24]
	str	x21, [sp, 32]
	.cfi_offset 21, -16
	cbz	x20, .L316
	adrp	x21, :got:__libc_single_threaded
	ldr	x0, [x21, #:got_lo12:__libc_single_threaded]
	ldrb	w0, [x0]
	cbz	w0, .L317
	ldr	w0, [x20, 8]
	sub	w1, w0, #1
	str	w1, [x20, 8]
.L318:
	cmp	w0, 1
	beq	.L330
.L316:
	ldr	x19, [x19, 8]
	cbz	x19, .L314
	adrp	x21, :got:__libc_single_threaded
	ldr	x0, [x21, #:got_lo12:__libc_single_threaded]
	ldrb	w0, [x0]
	cbz	w0, .L324
	ldr	w0, [x19, 8]
	sub	w1, w0, #1
	str	w1, [x19, 8]
.L325:
	cmp	w0, 1
	beq	.L331
.L314:
	ldp	x19, x20, [sp, 16]
	ldr	x21, [sp, 32]
	ldp	x29, x30, [sp], 48
	.cfi_remember_state
	.cfi_restore 30
	.cfi_restore 29
	.cfi_restore 21
	.cfi_restore 19
	.cfi_restore 20
	.cfi_def_cfa_offset 0
	ret
	.p2align 2,,3
.L330:
	.cfi_restore_state
	ldr	x1, [x20]
	mov	x0, x20
	ldr	x1, [x1, 16]
	blr	x1
	ldr	x21, [x21, #:got_lo12:__libc_single_threaded]
	ldrb	w0, [x21]
	cbz	w0, .L320
	ldr	w0, [x20, 12]
	sub	w1, w0, #1
	str	w1, [x20, 12]
.L321:
	cmp	w0, 1
	bne	.L316
	ldr	x1, [x20]
	mov	x0, x20
	ldr	x1, [x1, 24]
	blr	x1
	b	.L316
	.p2align 2,,3
.L331:
	ldr	x1, [x19]
	mov	x0, x19
	ldr	x1, [x1, 16]
	blr	x1
	ldr	x21, [x21, #:got_lo12:__libc_single_threaded]
	ldrb	w0, [x21]
	cbz	w0, .L327
	ldr	w0, [x19, 12]
	sub	w1, w0, #1
	str	w1, [x19, 12]
.L328:
	cmp	w0, 1
	bne	.L314
	ldr	x1, [x19]
	mov	x0, x19
	ldp	x19, x20, [sp, 16]
	ldr	x21, [sp, 32]
	ldp	x29, x30, [sp], 48
	.cfi_remember_state
	.cfi_restore 30
	.cfi_restore 29
	.cfi_restore 21
	.cfi_restore 19
	.cfi_restore 20
	.cfi_def_cfa_offset 0
	ldr	x1, [x1, 24]
	mov	x16, x1
	br	x16
	.p2align 2,,3
.L324:
	.cfi_restore_state
	add	x1, x19, 8
	mov	w0, -1
	bl	__aarch64_ldadd4_acq_rel
	b	.L325
	.p2align 2,,3
.L317:
	add	x1, x20, 8
	mov	w0, -1
	bl	__aarch64_ldadd4_acq_rel
	b	.L318
	.p2align 2,,3
.L320:
	add	x1, x20, 12
	mov	w0, -1
	bl	__aarch64_ldadd4_acq_rel
	b	.L321
	.p2align 2,,3
.L327:
	add	x1, x19, 12
	mov	w0, -1
	bl	__aarch64_ldadd4_acq_rel
	b	.L328
	.cfi_endproc
.LFE2736:
	.size	_ZN7openpal6LoggerD2Ev, .-_ZN7openpal6LoggerD2Ev
	.weak	_ZN7openpal6LoggerD1Ev
	.set	_ZN7openpal6LoggerD1Ev,_ZN7openpal6LoggerD2Ev
	.text
	.align	2
	.p2align 4,,11
	.global	_ZN8opendnp38OContext17ProcessNewRequestERKNS_10APDUHeaderERKN7openpal6RSliceE
	.type	_ZN8opendnp38OContext17ProcessNewRequestERKNS_10APDUHeaderERKN7openpal6RSliceE, %function
_ZN8opendnp38OContext17ProcessNewRequestERKNS_10APDUHeaderERKN7openpal6RSliceE:
.LFB2974:
	.cfi_startproc
	mov	x4, x1
	mov	x1, x0
	mov	x3, x2
	ldrb	w0, [x4, 5]
	strb	w0, [x1, 832]
	ldr	x0, [x1, 944]
	ldrb	w5, [x4]
	ldr	x2, [x0]
	cmp	w5, 1
	beq	.L334
	ldr	x5, [x2, 40]
	mov	x2, x4
	mov	x16, x5
	br	x16
	.p2align 2,,3
.L334:
	ldr	x5, [x2, 32]
	mov	x2, x4
	mov	x16, x5
	br	x16
	.cfi_endproc
.LFE2974:
	.size	_ZN8opendnp38OContext17ProcessNewRequestERKNS_10APDUHeaderERKN7openpal6RSliceE, .-_ZN8opendnp38OContext17ProcessNewRequestERKNS_10APDUHeaderERKN7openpal6RSliceE
	.align	2
	.p2align 4,,11
	.global	_ZN8opendnp38OContext19OnReceiveSolRequestERKNS_10APDUHeaderERKN7openpal6RSliceE
	.type	_ZN8opendnp38OContext19OnReceiveSolRequestERKNS_10APDUHeaderERKN7openpal6RSliceE, %function
_ZN8opendnp38OContext19OnReceiveSolRequestERKNS_10APDUHeaderERKN7openpal6RSliceE:
.LFB2973:
	.cfi_startproc
	stp	x29, x30, [sp, -48]!
	.cfi_def_cfa_offset 48
	.cfi_offset 29, -48
	.cfi_offset 30, -40
	mov	x29, sp
	ldrb	w3, [x0, 744]
	stp	x19, x20, [sp, 16]
	.cfi_offset 19, -32
	.cfi_offset 20, -24
	mov	x19, x0
	mov	x20, x1
	str	x21, [sp, 32]
	.cfi_offset 21, -16
	mov	x21, x2
	cbz	w3, .L336
	ldrb	w4, [x1, 5]
	ldrb	w3, [x0, 832]
	cmp	w4, w3
	beq	.L344
.L336:
	mov	x2, x21
	mov	x1, x20
	mov	x0, x19
	ldp	x19, x20, [sp, 16]
	ldr	x21, [sp, 32]
	ldp	x29, x30, [sp], 48
	.cfi_remember_state
	.cfi_restore 30
	.cfi_restore 29
	.cfi_restore 21
	.cfi_restore 19
	.cfi_restore 20
	.cfi_def_cfa_offset 0
	b	_ZN8opendnp38OContext17ProcessNewRequestERKNS_10APDUHeaderERKN7openpal6RSliceE
	.p2align 2,,3
.L344:
	.cfi_restore_state
	add	x0, x0, 744
	bl	_ZNK8opendnp314RequestHistory22FullyEqualsLastRequestERKNS_10APDUHeaderERKN7openpal6RSliceE
	tst	w0, 255
	beq	.L336
	ldr	x0, [x19, 944]
	ldrb	w1, [x20]
	ldr	x2, [x0]
	cmp	w1, 1
	beq	.L345
	ldr	x4, [x2, 48]
.L343:
	mov	x3, x21
	mov	x2, x20
	mov	x1, x19
	ldp	x19, x20, [sp, 16]
	mov	x16, x4
	ldr	x21, [sp, 32]
	ldp	x29, x30, [sp], 48
	.cfi_remember_state
	.cfi_restore 30
	.cfi_restore 29
	.cfi_restore 21
	.cfi_restore 19
	.cfi_restore 20
	.cfi_def_cfa_offset 0
	br	x16
	.p2align 2,,3
.L345:
	.cfi_restore_state
	ldr	x4, [x2, 56]
	b	.L343
	.cfi_endproc
.LFE2973:
	.size	_ZN8opendnp38OContext19OnReceiveSolRequestERKNS_10APDUHeaderERKN7openpal6RSliceE, .-_ZN8opendnp38OContext19OnReceiveSolRequestERKNS_10APDUHeaderERKN7openpal6RSliceE
	.section	.rodata.str1.8
	.align	3
.LC2:
	.string	"Ignoring unsol with invalid function code: %s"
	.align	3
.LC3:
	.string	"/home/jaehyun/OpenPLC_v3/utils/dnp3_src/cpp/libs/src/opendnp3/outstation/OutstationContext.cpp(222)"
	.text
	.align	2
	.p2align 4,,11
	.global	_ZN8opendnp38OContext14ProcessRequestERKNS_10APDUHeaderERKN7openpal6RSliceE
	.type	_ZN8opendnp38OContext14ProcessRequestERKNS_10APDUHeaderERKN7openpal6RSliceE, %function
_ZN8opendnp38OContext14ProcessRequestERKNS_10APDUHeaderERKN7openpal6RSliceE:
.LFB2976:
	.cfi_startproc
	stp	x29, x30, [sp, -192]!
	.cfi_def_cfa_offset 192
	.cfi_offset 29, -192
	.cfi_offset 30, -184
	adrp	x3, :got:__stack_chk_guard
	mov	x29, sp
	ldr	x3, [x3, #:got_lo12:__stack_chk_guard]
	stp	x19, x20, [sp, 16]
	ldrb	w4, [x1, 4]
	ldr	x5, [x3]
	str	x5, [sp, 184]
	mov	x5, 0
	.cfi_offset 19, -176
	.cfi_offset 20, -168
	mov	x19, x0
	cbz	w4, .L347
	add	x19, x0, 8
	stp	x21, x22, [sp, 32]
	.cfi_offset 22, -152
	.cfi_offset 21, -160
	add	x22, sp, 56
	mov	x20, x1
	mov	w21, 4
	mov	x0, x19
	mov	x1, x22
	str	w21, [sp, 56]
	bl	_ZNK7openpal6Logger9IsEnabledERKNS_10LogFiltersE
	tst	w0, 255
	bne	.L355
	ldp	x21, x22, [sp, 32]
	.cfi_restore 22
	.cfi_restore 21
	b	.L346
	.p2align 2,,3
.L347:
	bl	_ZN8opendnp38OContext19OnReceiveSolRequestERKNS_10APDUHeaderERKN7openpal6RSliceE
	str	x0, [x19, 944]
.L346:
	adrp	x0, :got:__stack_chk_guard
	ldr	x0, [x0, #:got_lo12:__stack_chk_guard]
	ldr	x2, [sp, 184]
	ldr	x1, [x0]
	subs	x2, x2, x1
	mov	x1, 0
	bne	.L356
	ldp	x19, x20, [sp, 16]
	ldp	x29, x30, [sp], 192
	.cfi_restore 30
	.cfi_restore 29
	.cfi_restore 19
	.cfi_restore 20
	.cfi_def_cfa_offset 0
	ret
	.p2align 2,,3
.L355:
	.cfi_def_cfa_offset 192
	.cfi_offset 19, -176
	.cfi_offset 20, -168
	.cfi_offset 21, -160
	.cfi_offset 22, -152
	.cfi_offset 29, -192
	.cfi_offset 30, -184
	ldrb	w0, [x20]
	add	x20, sp, 64
	bl	_ZN8opendnp320FunctionCodeToStringENS_12FunctionCodeE
	mov	x5, x0
	adrp	x4, .LC2
	add	x4, x4, :lo12:.LC2
	mov	x3, 120
	mov	w2, 1
	mov	x1, x3
	mov	x0, x20
	bl	__snprintf_chk
	str	w21, [sp, 56]
	mov	x1, x22
	mov	x3, x20
	mov	x0, x19
	adrp	x2, .LC3
	add	x2, x2, :lo12:.LC3
	bl	_ZN7openpal6Logger3LogERKNS_10LogFiltersEPKcS5_
	ldp	x21, x22, [sp, 32]
	.cfi_restore 22
	.cfi_restore 21
	b	.L346
.L356:
	stp	x21, x22, [sp, 32]
	.cfi_offset 22, -152
	.cfi_offset 21, -160
	bl	__stack_chk_fail
	.cfi_endproc
.LFE2976:
	.size	_ZN8opendnp38OContext14ProcessRequestERKNS_10APDUHeaderERKN7openpal6RSliceE, .-_ZN8opendnp38OContext14ProcessRequestERKNS_10APDUHeaderERKN7openpal6RSliceE
	.align	2
	.p2align 4,,11
	.global	_ZN8opendnp38OContext14ProcessConfirmERKNS_10APDUHeaderE
	.type	_ZN8opendnp38OContext14ProcessConfirmERKNS_10APDUHeaderE, %function
_ZN8opendnp38OContext14ProcessConfirmERKNS_10APDUHeaderE:
.LFB2977:
	.cfi_startproc
	stp	x29, x30, [sp, -32]!
	.cfi_def_cfa_offset 32
	.cfi_offset 29, -32
	.cfi_offset 30, -24
	mov	x2, x1
	mov	x1, x0
	mov	x29, sp
	str	x19, [sp, 16]
	.cfi_offset 19, -16
	mov	x19, x0
	ldr	x0, [x0, 944]
	ldr	x3, [x0]
	ldr	x3, [x3, 16]
	blr	x3
	str	x0, [x19, 944]
	ldr	x19, [sp, 16]
	ldp	x29, x30, [sp], 32
	.cfi_restore 30
	.cfi_restore 29
	.cfi_restore 19
	.cfi_def_cfa_offset 0
	ret
	.cfi_endproc
.LFE2977:
	.size	_ZN8opendnp38OContext14ProcessConfirmERKNS_10APDUHeaderE, .-_ZN8opendnp38OContext14ProcessConfirmERKNS_10APDUHeaderE
	.align	2
	.p2align 4,,11
	.global	_ZN8opendnp38OContext7BeginTxERKN7openpal6RSliceE
	.type	_ZN8opendnp38OContext7BeginTxERKN7openpal6RSliceE, %function
_ZN8opendnp38OContext7BeginTxERKN7openpal6RSliceE:
.LFB2980:
	.cfi_startproc
	.cfi_personality 0x9b,DW.ref.__gxx_personality_v0
	.cfi_lsda 0x1b,.LLSDA2980
	stp	x29, x30, [sp, -96]!
	.cfi_def_cfa_offset 96
	.cfi_offset 29, -96
	.cfi_offset 30, -88
	adrp	x2, :got:__stack_chk_guard
	mov	x29, sp
	stp	x19, x20, [sp, 16]
	.cfi_offset 19, -80
	.cfi_offset 20, -72
	mov	x20, x1
	mov	x19, x0
	stp	x21, x22, [sp, 32]
	.cfi_offset 21, -64
	.cfi_offset 22, -56
	ldr	q0, [x0, 8]
	ldr	x2, [x2, #:got_lo12:__stack_chk_guard]
	umov	x1, v0.d[1]
	ldr	x0, [x2]
	str	x0, [sp, 88]
	mov	x0, 0
	str	q0, [sp, 48]
	cbz	x1, .L360
	adrp	x0, :got:__libc_single_threaded
	ldr	x0, [x0, #:got_lo12:__libc_single_threaded]
	ldrb	w0, [x0]
	cbz	w0, .L361
	ldr	w0, [x1, 8]
	add	w0, w0, 1
	str	w0, [x1, 8]
.L360:
	ldr	q0, [x19, 24]
	umov	x1, v0.d[1]
	str	q0, [sp, 64]
	cbz	x1, .L362
	adrp	x0, :got:__libc_single_threaded
	ldr	x0, [x0, #:got_lo12:__libc_single_threaded]
	ldrb	w0, [x0]
	cbz	w0, .L363
	ldr	w0, [x1, 8]
	add	w0, w0, 1
	str	w0, [x1, 8]
.L362:
	add	x21, sp, 48
	mov	x1, x20
	mov	x0, x21
.LEHB0:
	bl	_ZN8opendnp37logging21ParseAndLogResponseTxEN7openpal6LoggerERKNS1_6RSliceE
.LEHE0:
	ldr	x21, [sp, 72]
	cbz	x21, .L365
	adrp	x22, :got:__libc_single_threaded
	ldr	x0, [x22, #:got_lo12:__libc_single_threaded]
	ldrb	w0, [x0]
	cbz	w0, .L366
	ldr	w0, [x21, 8]
	sub	w1, w0, #1
	str	w1, [x21, 8]
.L367:
	cmp	w0, 1
	beq	.L389
.L365:
	ldr	x21, [sp, 56]
	cbz	x21, .L372
	adrp	x22, :got:__libc_single_threaded
	ldr	x0, [x22, #:got_lo12:__libc_single_threaded]
	ldrb	w0, [x0]
	cbz	w0, .L373
	ldr	w0, [x21, 8]
	sub	w1, w0, #1
	str	w1, [x21, 8]
.L374:
	cmp	w0, 1
	beq	.L390
.L372:
	adrp	x1, :got:__stack_chk_guard
	mov	w0, 1
	strb	w0, [x19, 721]
	ldr	x1, [x1, #:got_lo12:__stack_chk_guard]
	ldr	x0, [x19, 56]
	ldr	x3, [sp, 88]
	ldr	x2, [x1]
	subs	x3, x3, x2
	mov	x2, 0
	bne	.L391
	ldr	x2, [x0]
	mov	x1, x20
	ldp	x19, x20, [sp, 16]
	ldr	x2, [x2, 16]
	ldp	x21, x22, [sp, 32]
	mov	x16, x2
	ldp	x29, x30, [sp], 96
	.cfi_remember_state
	.cfi_restore 30
	.cfi_restore 29
	.cfi_restore 21
	.cfi_restore 22
	.cfi_restore 19
	.cfi_restore 20
	.cfi_def_cfa_offset 0
.LEHB1:
	br	x16
	.p2align 2,,3
.L361:
	.cfi_restore_state
	add	x1, x1, 8
	mov	w0, 1
	bl	__aarch64_ldadd4_acq_rel
	b	.L360
	.p2align 2,,3
.L363:
	add	x1, x1, 8
	mov	w0, 1
	bl	__aarch64_ldadd4_acq_rel
	b	.L362
	.p2align 2,,3
.L389:
	ldr	x1, [x21]
	mov	x0, x21
	ldr	x1, [x1, 16]
	blr	x1
	ldr	x22, [x22, #:got_lo12:__libc_single_threaded]
	ldrb	w0, [x22]
	cbz	w0, .L369
	ldr	w0, [x21, 12]
	sub	w1, w0, #1
	str	w1, [x21, 12]
.L370:
	cmp	w0, 1
	bne	.L365
	ldr	x1, [x21]
	mov	x0, x21
	ldr	x1, [x1, 24]
	blr	x1
	b	.L365
	.p2align 2,,3
.L390:
	ldr	x1, [x21]
	mov	x0, x21
	ldr	x1, [x1, 16]
	blr	x1
	ldr	x22, [x22, #:got_lo12:__libc_single_threaded]
	ldrb	w0, [x22]
	cbz	w0, .L376
	ldr	w0, [x21, 12]
	sub	w1, w0, #1
	str	w1, [x21, 12]
.L377:
	cmp	w0, 1
	bne	.L372
	ldr	x1, [x21]
	mov	x0, x21
	ldr	x1, [x1, 24]
	blr	x1
	b	.L372
	.p2align 2,,3
.L366:
	add	x1, x21, 8
	mov	w0, -1
	bl	__aarch64_ldadd4_acq_rel
	b	.L367
	.p2align 2,,3
.L373:
	add	x1, x21, 8
	mov	w0, -1
	bl	__aarch64_ldadd4_acq_rel
	b	.L374
	.p2align 2,,3
.L369:
	add	x1, x21, 12
	mov	w0, -1
	bl	__aarch64_ldadd4_acq_rel
	b	.L370
	.p2align 2,,3
.L376:
	add	x1, x21, 12
	mov	w0, -1
	bl	__aarch64_ldadd4_acq_rel
	b	.L377
.L391:
	bl	__stack_chk_fail
.L381:
	mov	x19, x0
	mov	x0, x21
	bl	_ZN7openpal6LoggerD1Ev
	mov	x0, x19
	bl	_Unwind_Resume
.LEHE1:
	.cfi_endproc
.LFE2980:
	.global	__gxx_personality_v0
	.section	.gcc_except_table,"a",@progbits
.LLSDA2980:
	.byte	0xff
	.byte	0xff
	.byte	0x1
	.uleb128 .LLSDACSE2980-.LLSDACSB2980
.LLSDACSB2980:
	.uleb128 .LEHB0-.LFB2980
	.uleb128 .LEHE0-.LEHB0
	.uleb128 .L381-.LFB2980
	.uleb128 0
	.uleb128 .LEHB1-.LFB2980
	.uleb128 .LEHE1-.LEHB1
	.uleb128 0
	.uleb128 0
.LLSDACSE2980:
	.text
	.size	_ZN8opendnp38OContext7BeginTxERKN7openpal6RSliceE, .-_ZN8opendnp38OContext7BeginTxERKN7openpal6RSliceE
	.align	2
	.p2align 4,,11
	.global	_ZN8opendnp38OContext15BeginResponseTxERKNS_15AppControlFieldERKN7openpal6RSliceE
	.type	_ZN8opendnp38OContext15BeginResponseTxERKNS_15AppControlFieldERKN7openpal6RSliceE, %function
_ZN8opendnp38OContext15BeginResponseTxERKNS_15AppControlFieldERKN7openpal6RSliceE:
.LFB2978:
	.cfi_startproc
	mov	x4, x1
	mov	x1, x2
	add	x2, x0, 840
	ldr	w5, [x4]
	ldp	x6, x7, [x1]
	str	w5, [x0, 856]
	ldrb	w4, [x4, 4]
	strb	w4, [x0, 860]
	stp	x6, x7, [x2]
	b	_ZN8opendnp38OContext7BeginTxERKN7openpal6RSliceE
	.cfi_endproc
.LFE2978:
	.size	_ZN8opendnp38OContext15BeginResponseTxERKNS_15AppControlFieldERKN7openpal6RSliceE, .-_ZN8opendnp38OContext15BeginResponseTxERKNS_15AppControlFieldERKN7openpal6RSliceE
	.align	2
	.p2align 4,,11
	.global	_ZN8opendnp38OContext12BeginUnsolTxERKNS_15AppControlFieldERKN7openpal6RSliceE
	.type	_ZN8opendnp38OContext12BeginUnsolTxERKNS_15AppControlFieldERKN7openpal6RSliceE, %function
_ZN8opendnp38OContext12BeginUnsolTxERKNS_15AppControlFieldERKN7openpal6RSliceE:
.LFB2979:
	.cfi_startproc
	mov	x4, x1
	mov	x1, x2
	ldp	x6, x7, [x2]
	add	x5, x0, 896
	ldr	w2, [x4]
	str	w2, [x0, 912]
	ldrb	w2, [x4, 4]
	strb	w2, [x0, 916]
	stp	x6, x7, [x5]
	ldrb	w4, [x0, 889]
	ldrb	w2, [x0, 889]
	strb	w4, [x0, 890]
	add	w2, w2, 1
	and	w2, w2, 15
	strb	w2, [x0, 889]
	b	_ZN8opendnp38OContext7BeginTxERKN7openpal6RSliceE
	.cfi_endproc
.LFE2979:
	.size	_ZN8opendnp38OContext12BeginUnsolTxERKNS_15AppControlFieldERKN7openpal6RSliceE, .-_ZN8opendnp38OContext12BeginUnsolTxERKNS_15AppControlFieldERKN7openpal6RSliceE
	.align	2
	.p2align 4,,11
	.global	_ZN8opendnp38OContext22ProcessDeferredRequestENS_10APDUHeaderEN7openpal6RSliceE
	.type	_ZN8opendnp38OContext22ProcessDeferredRequestENS_10APDUHeaderEN7openpal6RSliceE, %function
_ZN8opendnp38OContext22ProcessDeferredRequestENS_10APDUHeaderEN7openpal6RSliceE:
.LFB2983:
	.cfi_startproc
	stp	x29, x30, [sp, -64]!
	.cfi_def_cfa_offset 64
	.cfi_offset 29, -64
	.cfi_offset 30, -56
	mov	x29, sp
	stp	x2, x3, [sp, 40]
	str	x1, [sp, 56]
	ands	w1, w1, 255
	beq	.L403
	str	x19, [sp, 16]
	.cfi_offset 19, -48
	mov	x19, x0
	cmp	w1, 1
	bne	.L397
	ldr	x0, [x0, 944]
	ldr	x1, [x0]
	ldr	x1, [x1]
	blr	x1
	ands	w0, w0, 255
	bne	.L397
	ldr	x19, [sp, 16]
	.cfi_remember_state
	.cfi_restore 19
	ldp	x29, x30, [sp], 64
	.cfi_restore 30
	.cfi_restore 29
	.cfi_def_cfa_offset 0
	ret
	.p2align 2,,3
.L397:
	.cfi_restore_state
	mov	x0, x19
	add	x2, sp, 40
	add	x1, sp, 56
	bl	_ZN8opendnp38OContext14ProcessRequestERKNS_10APDUHeaderERKN7openpal6RSliceE
	mov	w0, 1
	ldr	x19, [sp, 16]
	.cfi_restore 19
	ldp	x29, x30, [sp], 64
	.cfi_restore 30
	.cfi_restore 29
	.cfi_def_cfa_offset 0
	ret
	.p2align 2,,3
.L403:
	.cfi_def_cfa_offset 64
	.cfi_offset 29, -64
	.cfi_offset 30, -56
	add	x1, sp, 56
	bl	_ZN8opendnp38OContext14ProcessConfirmERKNS_10APDUHeaderE
	mov	w0, 1
	ldp	x29, x30, [sp], 64
	.cfi_restore 30
	.cfi_restore 29
	.cfi_def_cfa_offset 0
	ret
	.cfi_endproc
.LFE2983:
	.size	_ZN8opendnp38OContext22ProcessDeferredRequestENS_10APDUHeaderEN7openpal6RSliceE, .-_ZN8opendnp38OContext22ProcessDeferredRequestENS_10APDUHeaderEN7openpal6RSliceE
	.align	2
	.p2align 4,,11
	.global	_ZN8opendnp38OContext19RestartConfirmTimerEv
	.type	_ZN8opendnp38OContext19RestartConfirmTimerEv, %function
_ZN8opendnp38OContext19RestartConfirmTimerEv:
.LFB2985:
	.cfi_startproc
	.cfi_personality 0x9b,DW.ref.__gxx_personality_v0
	.cfi_lsda 0x1b,.LLSDA2985
	stp	x29, x30, [sp, -80]!
	.cfi_def_cfa_offset 80
	.cfi_offset 29, -80
	.cfi_offset 30, -72
	adrp	x2, :got:__stack_chk_guard
	mov	x3, x0
	mov	x29, sp
	ldr	x2, [x2, #:got_lo12:__stack_chk_guard]
	stp	x19, x20, [sp, 16]
	.cfi_offset 19, -64
	.cfi_offset 20, -56
	adrp	x5, _ZNSt17_Function_handlerIFvvEZN7openpal8TimerRef7RestartIZN8opendnp38OContext19RestartConfirmTimerEvEUlvE_EEvRKNS1_12TimeDurationERKT_EUlvE_E10_M_managerERSt9_Any_dataRKSF_St18_Manager_operation
	ldr	x4, [x2]
	str	x4, [sp, 72]
	mov	x4, 0
	add	x5, x5, :lo12:_ZNSt17_Function_handlerIFvvEZN7openpal8TimerRef7RestartIZN8opendnp38OContext19RestartConfirmTimerEvEUlvE_EEvRKNS1_12TimeDurationERKT_EUlvE_E10_M_managerERSt9_Any_dataRKSF_St18_Manager_operation
	adrp	x4, _ZNSt17_Function_handlerIFvvEZN7openpal8TimerRef7RestartIZN8opendnp38OContext19RestartConfirmTimerEvEUlvE_EEvRKNS1_12TimeDurationERKT_EUlvE_E9_M_invokeERKSt9_Any_data
	add	x4, x4, :lo12:_ZNSt17_Function_handlerIFvvEZN7openpal8TimerRef7RestartIZN8opendnp38OContext19RestartConfirmTimerEvEUlvE_EEvRKNS1_12TimeDurationERKT_EUlvE_E9_M_invokeERKSt9_Any_data
	add	x19, sp, 40
	add	x0, x0, 728
	add	x1, x3, 688
	mov	x2, x19
	stp	x0, x3, [sp, 40]
	stp	x5, x4, [sp, 56]
.LEHB2:
	bl	_ZN7openpal8TimerRef13RestartActionERKNS_12TimeDurationERKSt8functionIFvvEE
.LEHE2:
	ldr	x3, [sp, 56]
	cbz	x3, .L404
	mov	x1, x19
	mov	x0, x19
	mov	w2, 3
	blr	x3
.L404:
	adrp	x0, :got:__stack_chk_guard
	ldr	x0, [x0, #:got_lo12:__stack_chk_guard]
	ldr	x2, [sp, 72]
	ldr	x1, [x0]
	subs	x2, x2, x1
	mov	x1, 0
	bne	.L417
	ldp	x19, x20, [sp, 16]
	ldp	x29, x30, [sp], 80
	.cfi_remember_state
	.cfi_restore 30
	.cfi_restore 29
	.cfi_restore 19
	.cfi_restore 20
	.cfi_def_cfa_offset 0
	ret
.L417:
	.cfi_restore_state
	bl	__stack_chk_fail
.L409:
	ldr	x3, [sp, 56]
	mov	x20, x0
	cbz	x3, .L407
	mov	x1, x19
	mov	x0, x19
	mov	w2, 3
	blr	x3
.L407:
	mov	x0, x20
.LEHB3:
	bl	_Unwind_Resume
.LEHE3:
	.cfi_endproc
.LFE2985:
	.section	.gcc_except_table
.LLSDA2985:
	.byte	0xff
	.byte	0xff
	.byte	0x1
	.uleb128 .LLSDACSE2985-.LLSDACSB2985
.LLSDACSB2985:
	.uleb128 .LEHB2-.LFB2985
	.uleb128 .LEHE2-.LEHB2
	.uleb128 .L409-.LFB2985
	.uleb128 0
	.uleb128 .LEHB3-.LFB2985
	.uleb128 .LEHE3-.LEHB3
	.uleb128 0
	.uleb128 0
.LLSDACSE2985:
	.text
	.size	_ZN8opendnp38OContext19RestartConfirmTimerEv, .-_ZN8opendnp38OContext19RestartConfirmTimerEv
	.align	2
	.p2align 4,,11
	.global	_ZNK8opendnp38OContext11CanTransmitEv
	.type	_ZNK8opendnp38OContext11CanTransmitEv, %function
_ZNK8opendnp38OContext11CanTransmitEv:
.LFB2990:
	.cfi_startproc
	mov	x1, x0
	ldrb	w0, [x0, 720]
	cbz	w0, .L419
	ldrb	w0, [x1, 721]
	eor	w0, w0, 1
.L419:
	ret
	.cfi_endproc
.LFE2990:
	.size	_ZNK8opendnp38OContext11CanTransmitEv, .-_ZNK8opendnp38OContext11CanTransmitEv
	.align	2
	.p2align 4,,11
	.global	_ZN8opendnp38OContext23CheckForDeferredRequestEv
	.type	_ZN8opendnp38OContext23CheckForDeferredRequestEv, %function
_ZN8opendnp38OContext23CheckForDeferredRequestEv:
.LFB2981:
	.cfi_startproc
	stp	x29, x30, [sp, -32]!
	.cfi_def_cfa_offset 32
	.cfi_offset 29, -32
	.cfi_offset 30, -24
	mov	x29, sp
	str	x19, [sp, 16]
	.cfi_offset 19, -16
	mov	x19, x0
	bl	_ZNK8opendnp38OContext11CanTransmitEv
	tst	w0, 255
	bne	.L434
.L423:
	ldr	x19, [sp, 16]
	ldp	x29, x30, [sp], 32
	.cfi_remember_state
	.cfi_restore 30
	.cfi_restore 29
	.cfi_restore 19
	.cfi_def_cfa_offset 0
	ret
	.p2align 2,,3
.L434:
	.cfi_restore_state
	add	x0, x19, 760
	bl	_ZNK8opendnp315DeferredRequest5IsSetEv
	tst	w0, 255
	beq	.L423
	ldrb	w0, [x19, 760]
	add	x1, x19, 1024
	cbz	w0, .L423
	ldrb	w6, [x19, 761]
	mov	x0, x19
	ldrb	w4, [x19, 762]
	ldrb	w5, [x19, 763]
	ldp	x2, x3, [x1, -256]
	orr	x1, x6, x4, lsl 8
	ldrb	w4, [x19, 764]
	orr	x5, x1, x5, lsl 16
	ldrb	w6, [x19, 766]
	ldrb	w1, [x19, 765]
	orr	x4, x5, x4, lsl 24
	orr	x1, x4, x1, lsl 32
	orr	x1, x1, x6, lsl 40
	bl	_ZN8opendnp38OContext22ProcessDeferredRequestENS_10APDUHeaderEN7openpal6RSliceE
	eor	w0, w0, 1
	strb	w0, [x19, 760]
	b	.L423
	.cfi_endproc
.LFE2981:
	.size	_ZN8opendnp38OContext23CheckForDeferredRequestEv, .-_ZN8opendnp38OContext23CheckForDeferredRequestEv
	.align	2
	.p2align 4,,11
	.global	_ZN8opendnp38OContext13GetDynamicIINEv
	.type	_ZN8opendnp38OContext13GetDynamicIINEv, %function
_ZN8opendnp38OContext13GetDynamicIINEv:
.LFB2992:
	.cfi_startproc
	stp	x29, x30, [sp, -80]!
	.cfi_def_cfa_offset 80
	.cfi_offset 29, -80
	.cfi_offset 30, -72
	adrp	x1, :got:__stack_chk_guard
	mov	x29, sp
	ldr	x1, [x1, #:got_lo12:__stack_chk_guard]
	stp	x19, x20, [sp, 16]
	.cfi_offset 19, -64
	.cfi_offset 20, -56
	add	x20, sp, 56
	str	x21, [sp, 32]
	.cfi_offset 21, -48
	add	x21, x0, 104
	mov	x0, x21
	add	x19, sp, 64
	ldr	x2, [x1]
	str	x2, [sp, 72]
	mov	x2, 0
	bl	_ZNK8opendnp311EventBuffer19UnwrittenClassFieldEv
	mov	w1, w0
	mov	x0, x20
	strb	w1, [sp, 56]
	strh	wzr, [sp, 64]
	bl	_ZNK8opendnp310ClassField9HasClass1Ev
	mov	w2, w0
	mov	w1, 1
	mov	x0, x19
	bl	_ZN8opendnp38IINField13SetBitToValueENS_6IINBitEb
	mov	x0, x20
	bl	_ZNK8opendnp310ClassField9HasClass2Ev
	mov	w2, w0
	mov	w1, 2
	mov	x0, x19
	bl	_ZN8opendnp38IINField13SetBitToValueENS_6IINBitEb
	mov	x0, x20
	bl	_ZNK8opendnp310ClassField9HasClass3Ev
	mov	w2, w0
	mov	w1, 3
	mov	x0, x19
	bl	_ZN8opendnp38IINField13SetBitToValueENS_6IINBitEb
	mov	x0, x21
	bl	_ZN8opendnp311EventBuffer11IsOverflownEv
	mov	w1, 11
	mov	w2, w0
	mov	x0, x19
	bl	_ZN8opendnp38IINField13SetBitToValueENS_6IINBitEb
	adrp	x1, :got:__stack_chk_guard
	ldrh	w0, [sp, 64]
	ldr	x1, [x1, #:got_lo12:__stack_chk_guard]
	ldr	x3, [sp, 72]
	ldr	x2, [x1]
	subs	x3, x3, x2
	mov	x2, 0
	bne	.L438
	ldp	x19, x20, [sp, 16]
	ldr	x21, [sp, 32]
	ldp	x29, x30, [sp], 80
	.cfi_remember_state
	.cfi_restore 30
	.cfi_restore 29
	.cfi_restore 21
	.cfi_restore 19
	.cfi_restore 20
	.cfi_def_cfa_offset 0
	ret
.L438:
	.cfi_restore_state
	bl	__stack_chk_fail
	.cfi_endproc
.LFE2992:
	.size	_ZN8opendnp38OContext13GetDynamicIINEv, .-_ZN8opendnp38OContext13GetDynamicIINEv
	.align	2
	.p2align 4,,11
	.global	_ZN8opendnp38OContext14GetResponseIINEv
	.type	_ZN8opendnp38OContext14GetResponseIINEv, %function
_ZN8opendnp38OContext14GetResponseIINEv:
.LFB2991:
	.cfi_startproc
	stp	x29, x30, [sp, -80]!
	.cfi_def_cfa_offset 80
	.cfi_offset 29, -80
	.cfi_offset 30, -72
	adrp	x1, :got:__stack_chk_guard
	mov	x29, sp
	ldr	x1, [x1, #:got_lo12:__stack_chk_guard]
	stp	x19, x20, [sp, 16]
	.cfi_offset 19, -64
	.cfi_offset 20, -56
	mov	x19, x0
	stp	x21, x22, [sp, 32]
	str	x23, [sp, 48]
	.cfi_offset 21, -48
	.cfi_offset 22, -40
	.cfi_offset 23, -32
	add	x23, sp, 64
	ldr	x2, [x1]
	str	x2, [sp, 72]
	mov	x2, 0
	bl	_ZN8opendnp38OContext13GetDynamicIINEv
	ldrb	w21, [x19, 722]
	ldr	x3, [x19, 88]
	adrp	x1, :got:_ZNK8opendnp322IOutstationApplication17GetApplicationIINEv
	ldrb	w19, [x19, 723]
	and	w22, w0, 255
	ldr	x1, [x1, #:got_lo12:_ZNK8opendnp322IOutstationApplication17GetApplicationIINEv]
	ubfx	x20, x0, 8, 8
	ldr	x2, [x3]
	ldr	x2, [x2, 80]
	cmp	x2, x1
	bne	.L440
	mov	x0, x23
	bl	_ZN8opendnp314ApplicationIINC1Ev
.L441:
	mov	x0, x23
	bl	_ZNK8opendnp314ApplicationIIN5ToIINEv
	mov	w1, w0
	adrp	x2, :got:__stack_chk_guard
	orr	w22, w22, w1
	mov	w0, 0
	ubfx	x1, x1, 8, 8
	orr	w21, w21, w22
	orr	w1, w20, w1
	ldr	x2, [x2, #:got_lo12:__stack_chk_guard]
	orr	w20, w19, w1
	bfi	w0, w21, 0, 8
	bfi	w0, w20, 8, 8
	ldr	x1, [sp, 72]
	ldr	x3, [x2]
	subs	x1, x1, x3
	mov	x3, 0
	bne	.L444
	ldp	x19, x20, [sp, 16]
	ldp	x21, x22, [sp, 32]
	ldr	x23, [sp, 48]
	ldp	x29, x30, [sp], 80
	.cfi_remember_state
	.cfi_restore 30
	.cfi_restore 29
	.cfi_restore 23
	.cfi_restore 21
	.cfi_restore 22
	.cfi_restore 19
	.cfi_restore 20
	.cfi_def_cfa_offset 0
	ret
	.p2align 2,,3
.L440:
	.cfi_restore_state
	mov	x0, x3
	blr	x2
	str	w0, [sp, 64]
	b	.L441
.L444:
	bl	__stack_chk_fail
	.cfi_endproc
.LFE2991:
	.size	_ZN8opendnp38OContext14GetResponseIINEv, .-_ZN8opendnp38OContext14GetResponseIINEv
	.align	2
	.p2align 4,,11
	.global	_ZN8opendnp38OContext19CheckForUnsolicitedEv
	.type	_ZN8opendnp38OContext19CheckForUnsolicitedEv, %function
_ZN8opendnp38OContext19CheckForUnsolicitedEv:
.LFB2984:
	.cfi_startproc
	stp	x29, x30, [sp, -176]!
	.cfi_def_cfa_offset 176
	.cfi_offset 29, -176
	.cfi_offset 30, -168
	adrp	x1, :got:__stack_chk_guard
	mov	x29, sp
	ldr	x1, [x1, #:got_lo12:__stack_chk_guard]
	stp	x19, x20, [sp, 16]
	.cfi_offset 19, -160
	.cfi_offset 20, -152
	mov	x19, x0
	ldr	x2, [x1]
	str	x2, [sp, 168]
	mov	x2, 0
	bl	_ZNK8opendnp38OContext11CanTransmitEv
	tst	w0, 255
	beq	.L445
	ldr	x0, [x19, 944]
	ldr	x1, [x0]
	ldr	x1, [x1]
	blr	x1
	tst	w0, 255
	bne	.L462
.L445:
	adrp	x0, :got:__stack_chk_guard
	ldr	x0, [x0, #:got_lo12:__stack_chk_guard]
	ldr	x2, [sp, 168]
	ldr	x1, [x0]
	subs	x2, x2, x1
	mov	x1, 0
	bne	.L463
	ldp	x19, x20, [sp, 16]
	ldp	x29, x30, [sp], 176
	.cfi_remember_state
	.cfi_restore 30
	.cfi_restore 29
	.cfi_restore 19
	.cfi_restore 20
	.cfi_def_cfa_offset 0
	ret
	.p2align 2,,3
.L462:
	.cfi_restore_state
	ldrb	w0, [x19, 712]
	cbz	w0, .L445
	ldrb	w0, [x19, 888]
	stp	x21, x22, [sp, 32]
	.cfi_offset 22, -136
	.cfi_offset 21, -144
	cbz	w0, .L449
	add	x21, x19, 104
	add	x22, x19, 716
	mov	x0, x21
	bl	_ZNK8opendnp311EventBuffer19UnwrittenClassFieldEv
	mov	w2, w0
	add	x20, sp, 128
	mov	x1, x20
	mov	x0, x22
	strb	w2, [sp, 128]
	bl	_ZNK8opendnp310ClassField10IntersectsERKS0_
	tst	w0, 255
	bne	.L464
	ldp	x21, x22, [sp, 32]
	.cfi_restore 22
	.cfi_restore 21
	b	.L445
	.p2align 2,,3
.L449:
	.cfi_offset 21, -144
	.cfi_offset 22, -136
	add	x20, sp, 96
	add	x0, x19, 920
	bl	_ZN7openpal6Buffer9GetWSliceEv
	mov	x2, x0
	mov	x3, x1
	mov	x1, x20
	add	x21, sp, 128
	stp	x2, x3, [sp, 96]
	mov	x0, x21
	bl	_ZN8opendnp312APDUResponseC1ERKN7openpal6WSliceE
	ldrb	w22, [x19, 889]
	mov	x0, x19
	bl	_ZN8opendnp38OContext14GetResponseIINEv
	mov	w3, w0
	mov	w1, w22
	mov	x2, x20
	mov	x0, x21
	strh	w3, [sp, 96]
	bl	_ZN8opendnp35build15NullUnsolicitedERNS_12APDUResponseEhRKNS_8IINFieldE
	mov	x0, x19
	bl	_ZN8opendnp38OContext19RestartConfirmTimerEv
	adrp	x1, :got:_ZN8opendnp327StateUnsolicitedConfirmWait8instanceE
	mov	x0, x21
	ldr	x1, [x1, #:got_lo12:_ZN8opendnp327StateUnsolicitedConfirmWait8instanceE]
	str	x1, [x19, 944]
	bl	_ZNK8opendnp311APDUWrapper10GetControlEv
	mov	x1, x0
	strb	w1, [sp, 80]
	mov	x0, x21
	ubfx	x4, x1, 8, 8
	ubfx	x3, x1, 16, 8
	lsr	w2, w1, 24
	ubfx	x1, x1, 32, 8
	strb	w4, [sp, 81]
	strb	w3, [sp, 82]
	strb	w2, [sp, 83]
	strb	w1, [sp, 84]
	bl	_ZNK8opendnp311APDUWrapper8ToRSliceEv
	mov	x4, x0
	mov	x5, x1
	mov	x2, x20
	mov	x0, x19
	add	x1, sp, 80
	stp	x4, x5, [sp, 96]
	bl	_ZN8opendnp38OContext12BeginUnsolTxERKNS_15AppControlFieldERKN7openpal6RSliceE
	ldp	x21, x22, [sp, 32]
	.cfi_remember_state
	.cfi_restore 22
	.cfi_restore 21
	b	.L445
	.p2align 2,,3
.L464:
	.cfi_restore_state
	add	x0, x19, 920
	stp	x23, x24, [sp, 48]
	.cfi_offset 24, -120
	.cfi_offset 23, -128
	bl	_ZN7openpal6Buffer9GetWSliceEv
	mov	x2, x0
	mov	x3, x1
	add	x23, sp, 96
	mov	x0, x20
	mov	x1, x23
	stp	x2, x3, [sp, 96]
	bl	_ZN8opendnp312APDUResponseC1ERKN7openpal6WSliceE
	mov	x8, x23
	mov	x0, x20
	bl	_ZN8opendnp311APDUWrapper9GetWriterEv
	add	x24, sp, 80
	mov	x0, x21
	bl	_ZN8opendnp311EventBuffer8UnselectEv
	mov	x1, x22
	mov	x0, x21
	bl	_ZN8opendnp311EventBuffer16SelectAllByClassERKNS_10ClassFieldE
	mov	x1, x23
	mov	x0, x21
	bl	_ZN8opendnp311EventBuffer4LoadERNS_12HeaderWriterE
	ldrb	w21, [x19, 889]
	mov	x0, x19
	bl	_ZN8opendnp38OContext14GetResponseIINEv
	mov	w3, w0
	mov	x2, x24
	mov	w1, w21
	mov	x0, x20
	strh	w3, [sp, 80]
	bl	_ZN8opendnp35build15NullUnsolicitedERNS_12APDUResponseEhRKNS_8IINFieldE
	mov	x0, x19
	bl	_ZN8opendnp38OContext19RestartConfirmTimerEv
	adrp	x1, :got:_ZN8opendnp327StateUnsolicitedConfirmWait8instanceE
	mov	x0, x20
	ldr	x1, [x1, #:got_lo12:_ZN8opendnp327StateUnsolicitedConfirmWait8instanceE]
	str	x1, [x19, 944]
	bl	_ZNK8opendnp311APDUWrapper10GetControlEv
	mov	x1, x0
	strb	w1, [sp, 72]
	mov	x0, x20
	ubfx	x4, x1, 8, 8
	ubfx	x3, x1, 16, 8
	lsr	w2, w1, 24
	ubfx	x1, x1, 32, 8
	strb	w4, [sp, 73]
	strb	w3, [sp, 74]
	strb	w2, [sp, 75]
	strb	w1, [sp, 76]
	bl	_ZNK8opendnp311APDUWrapper8ToRSliceEv
	mov	x4, x0
	mov	x5, x1
	mov	x2, x24
	mov	x0, x19
	add	x1, sp, 72
	stp	x4, x5, [sp, 80]
	bl	_ZN8opendnp38OContext12BeginUnsolTxERKNS_15AppControlFieldERKN7openpal6RSliceE
	ldp	x21, x22, [sp, 32]
	.cfi_restore 22
	.cfi_restore 21
	ldp	x23, x24, [sp, 48]
	.cfi_restore 24
	.cfi_restore 23
	b	.L445
.L463:
	stp	x21, x22, [sp, 32]
	.cfi_offset 22, -136
	.cfi_offset 21, -144
	stp	x23, x24, [sp, 48]
	.cfi_offset 24, -120
	.cfi_offset 23, -128
	bl	__stack_chk_fail
	.cfi_endproc
.LFE2984:
	.size	_ZN8opendnp38OContext19CheckForUnsolicitedEv, .-_ZN8opendnp38OContext19CheckForUnsolicitedEv
	.align	2
	.p2align 4,,11
	.global	_ZN8opendnp38OContext25ContinueMultiFragResponseERKN7openpal11SequenceNumIhLh16EEE
	.type	_ZN8opendnp38OContext25ContinueMultiFragResponseERKN7openpal11SequenceNumIhLh16EEE, %function
_ZN8opendnp38OContext25ContinueMultiFragResponseERKN7openpal11SequenceNumIhLh16EEE:
.LFB2989:
	.cfi_startproc
	stp	x29, x30, [sp, -160]!
	.cfi_def_cfa_offset 160
	.cfi_offset 29, -160
	.cfi_offset 30, -152
	adrp	x2, :got:__stack_chk_guard
	mov	x29, sp
	ldr	x2, [x2, #:got_lo12:__stack_chk_guard]
	stp	x19, x20, [sp, 16]
	.cfi_offset 19, -144
	.cfi_offset 20, -136
	mov	x20, x0
	stp	x21, x22, [sp, 32]
	.cfi_offset 21, -128
	.cfi_offset 22, -120
	mov	x22, x1
	add	x0, x0, 864
	ldr	x1, [x2]
	str	x1, [sp, 152]
	mov	x1, 0
	add	x19, sp, 112
	add	x21, sp, 80
	bl	_ZN7openpal6Buffer9GetWSliceEv
	mov	x2, x0
	mov	x3, x1
	mov	x0, x19
	mov	x1, x21
	stp	x2, x3, [sp, 80]
	bl	_ZN8opendnp312APDUResponseC1ERKN7openpal6WSliceE
	mov	x8, x21
	mov	x0, x19
	bl	_ZN8opendnp311APDUWrapper9GetWriterEv
	mov	x0, x19
	mov	w1, -127
	bl	_ZN8opendnp311APDUWrapper11SetFunctionENS_12FunctionCodeE
	mov	x1, x21
	add	x0, x20, 640
	bl	_ZN8opendnp315ResponseContext12LoadResponseERNS_12HeaderWriterE
	mov	x1, x0
	ldrb	w2, [x22]
	add	x21, sp, 64
	ubfx	x4, x1, 8, 8
	ubfx	x3, x1, 16, 8
	lsr	w1, w1, 24
	strb	w0, [sp, 48]
	strb	w4, [sp, 49]
	mov	x0, x19
	strb	w3, [sp, 50]
	strb	w1, [sp, 51]
	strb	w2, [sp, 52]
	strb	w2, [x20, 833]
	ldr	x1, [sp, 48]
	bl	_ZN8opendnp311APDUWrapper10SetControlENS_15AppControlFieldE
	mov	x0, x20
	bl	_ZN8opendnp38OContext14GetResponseIINEv
	mov	w2, w0
	mov	x1, x21
	mov	x0, x19
	strh	w2, [sp, 64]
	bl	_ZN8opendnp312APDUResponse6SetIINERKNS_8IINFieldE
	mov	x0, x19
	bl	_ZNK8opendnp311APDUWrapper10GetControlEv
	mov	x3, x0
	strb	w3, [sp, 56]
	mov	x0, x19
	ubfx	x4, x3, 8, 8
	ubfx	x2, x3, 16, 8
	lsr	w1, w3, 24
	ubfx	x3, x3, 32, 8
	strb	w4, [sp, 57]
	strb	w2, [sp, 58]
	strb	w1, [sp, 59]
	strb	w3, [sp, 60]
	bl	_ZNK8opendnp311APDUWrapper8ToRSliceEv
	mov	x4, x0
	mov	x5, x1
	mov	x0, x20
	add	x1, sp, 56
	mov	x2, x21
	stp	x4, x5, [sp, 64]
	bl	_ZN8opendnp38OContext15BeginResponseTxERKNS_15AppControlFieldERKN7openpal6RSliceE
	ldrb	w1, [sp, 50]
	adrp	x0, :got:_ZN8opendnp39StateIdle8instanceE
	ldr	x0, [x0, #:got_lo12:_ZN8opendnp39StateIdle8instanceE]
	cbnz	w1, .L471
.L465:
	adrp	x1, :got:__stack_chk_guard
	ldr	x1, [x1, #:got_lo12:__stack_chk_guard]
	ldr	x3, [sp, 152]
	ldr	x2, [x1]
	subs	x3, x3, x2
	mov	x2, 0
	bne	.L472
	ldp	x19, x20, [sp, 16]
	ldp	x21, x22, [sp, 32]
	ldp	x29, x30, [sp], 160
	.cfi_remember_state
	.cfi_restore 30
	.cfi_restore 29
	.cfi_restore 21
	.cfi_restore 22
	.cfi_restore 19
	.cfi_restore 20
	.cfi_def_cfa_offset 0
	ret
	.p2align 2,,3
.L471:
	.cfi_restore_state
	mov	x0, x20
	bl	_ZN8opendnp38OContext19RestartConfirmTimerEv
	adrp	x0, :got:_ZN8opendnp325StateSolicitedConfirmWait8instanceE
	ldr	x0, [x0, #:got_lo12:_ZN8opendnp325StateSolicitedConfirmWait8instanceE]
	b	.L465
.L472:
	bl	__stack_chk_fail
	.cfi_endproc
.LFE2989:
	.size	_ZN8opendnp38OContext25ContinueMultiFragResponseERKN7openpal11SequenceNumIhLh16EEE, .-_ZN8opendnp38OContext25ContinueMultiFragResponseERKN7openpal11SequenceNumIhLh16EEE
	.align	2
	.p2align 4,,11
	.global	_ZN8opendnp38OContext17CheckForTaskStartEv
	.type	_ZN8opendnp38OContext17CheckForTaskStartEv, %function
_ZN8opendnp38OContext17CheckForTaskStartEv:
.LFB2994:
	.cfi_startproc
	stp	x29, x30, [sp, -32]!
	.cfi_def_cfa_offset 32
	.cfi_offset 29, -32
	.cfi_offset 30, -24
	mov	x29, sp
	str	x19, [sp, 16]
	.cfi_offset 19, -16
	mov	x19, x0
	bl	_ZN8opendnp38OContext23CheckForDeferredRequestEv
	mov	x0, x19
	ldr	x19, [sp, 16]
	ldp	x29, x30, [sp], 32
	.cfi_restore 30
	.cfi_restore 29
	.cfi_restore 19
	.cfi_def_cfa_offset 0
	b	_ZN8opendnp38OContext19CheckForUnsolicitedEv
	.cfi_endproc
.LFE2994:
	.size	_ZN8opendnp38OContext17CheckForTaskStartEv, .-_ZN8opendnp38OContext17CheckForTaskStartEv
	.section	.rodata.str1.8
	.align	3
.LC4:
	.string	"already online"
	.align	3
.LC5:
	.string	"/home/jaehyun/OpenPLC_v3/utils/dnp3_src/cpp/libs/src/opendnp3/outstation/OutstationContext.cpp(83)"
	.text
	.align	2
	.p2align 4,,11
	.global	_ZN8opendnp38OContext14OnLowerLayerUpEv
	.type	_ZN8opendnp38OContext14OnLowerLayerUpEv, %function
_ZN8opendnp38OContext14OnLowerLayerUpEv:
.LFB2969:
	.cfi_startproc
	stp	x29, x30, [sp, -64]!
	.cfi_def_cfa_offset 64
	.cfi_offset 29, -64
	.cfi_offset 30, -56
	adrp	x2, :got:__stack_chk_guard
	mov	x29, sp
	ldr	x2, [x2, #:got_lo12:__stack_chk_guard]
	ldrb	w3, [x0, 720]
	ldr	x4, [x2]
	str	x4, [sp, 56]
	mov	x4, 0
	cbnz	w3, .L484
	mov	w2, 1
	strb	w2, [x0, 720]
	bl	_ZN8opendnp38OContext17CheckForTaskStartEv
	mov	w0, 1
.L477:
	adrp	x1, :got:__stack_chk_guard
	ldr	x1, [x1, #:got_lo12:__stack_chk_guard]
	ldr	x3, [sp, 56]
	ldr	x2, [x1]
	subs	x3, x3, x2
	mov	x2, 0
	bne	.L485
	ldp	x29, x30, [sp], 64
	.cfi_remember_state
	.cfi_restore 30
	.cfi_restore 29
	.cfi_def_cfa_offset 0
	ret
	.p2align 2,,3
.L484:
	.cfi_restore_state
	stp	x19, x20, [sp, 16]
	.cfi_offset 20, -40
	.cfi_offset 19, -48
	add	x19, x0, 8
	mov	x0, x19
	str	x21, [sp, 32]
	.cfi_offset 21, -32
	add	x21, sp, 48
	mov	x1, x21
	mov	w20, 2
	str	w20, [sp, 48]
	bl	_ZNK7openpal6Logger9IsEnabledERKNS_10LogFiltersE
	ands	w0, w0, 255
	bne	.L486
	ldp	x19, x20, [sp, 16]
	.cfi_restore 20
	.cfi_restore 19
	ldr	x21, [sp, 32]
	.cfi_restore 21
	b	.L477
	.p2align 2,,3
.L486:
	.cfi_offset 19, -48
	.cfi_offset 20, -40
	.cfi_offset 21, -32
	mov	x0, x19
	mov	x1, x21
	adrp	x3, .LC4
	adrp	x2, .LC5
	add	x3, x3, :lo12:.LC4
	add	x2, x2, :lo12:.LC5
	str	w20, [sp, 48]
	bl	_ZN7openpal6Logger3LogERKNS_10LogFiltersEPKcS5_
	mov	w0, 0
	ldp	x19, x20, [sp, 16]
	.cfi_restore 20
	.cfi_restore 19
	ldr	x21, [sp, 32]
	.cfi_restore 21
	b	.L477
.L485:
	stp	x19, x20, [sp, 16]
	.cfi_offset 20, -40
	.cfi_offset 19, -48
	str	x21, [sp, 32]
	.cfi_offset 21, -32
	bl	__stack_chk_fail
	.cfi_endproc
.LFE2969:
	.size	_ZN8opendnp38OContext14OnLowerLayerUpEv, .-_ZN8opendnp38OContext14OnLowerLayerUpEv
	.align	2
	.p2align 4,,11
	.global	_ZN8opendnp38OContext12OnSendResultEb
	.type	_ZN8opendnp38OContext12OnSendResultEb, %function
_ZN8opendnp38OContext12OnSendResultEb:
.LFB2971:
	.cfi_startproc
	stp	x29, x30, [sp, -32]!
	.cfi_def_cfa_offset 32
	.cfi_offset 29, -32
	.cfi_offset 30, -24
	mov	x29, sp
	str	x19, [sp, 16]
	.cfi_offset 19, -16
	ldrb	w19, [x0, 720]
	cbz	w19, .L488
	ldrb	w19, [x0, 721]
	cbnz	w19, .L496
.L488:
	mov	w0, w19
	ldr	x19, [sp, 16]
	ldp	x29, x30, [sp], 32
	.cfi_remember_state
	.cfi_restore 30
	.cfi_restore 29
	.cfi_restore 19
	.cfi_def_cfa_offset 0
	ret
	.p2align 2,,3
.L496:
	.cfi_restore_state
	strb	wzr, [x0, 721]
	bl	_ZN8opendnp38OContext17CheckForTaskStartEv
	mov	w0, w19
	ldr	x19, [sp, 16]
	ldp	x29, x30, [sp], 32
	.cfi_restore 30
	.cfi_restore 29
	.cfi_restore 19
	.cfi_def_cfa_offset 0
	ret
	.cfi_endproc
.LFE2971:
	.size	_ZN8opendnp38OContext12OnSendResultEb, .-_ZN8opendnp38OContext12OnSendResultEb
	.align	2
	.p2align 4,,11
	.type	_ZNSt17_Function_handlerIFvvEZN7openpal8TimerRef7RestartIZN8opendnp38OContext19RestartConfirmTimerEvEUlvE_EEvRKNS1_12TimeDurationERKT_EUlvE_E9_M_invokeERKSt9_Any_data, %function
_ZNSt17_Function_handlerIFvvEZN7openpal8TimerRef7RestartIZN8opendnp38OContext19RestartConfirmTimerEvEUlvE_EEvRKNS1_12TimeDurationERKT_EUlvE_E9_M_invokeERKSt9_Any_data:
.LFB3592:
	.cfi_startproc
	stp	x29, x30, [sp, -32]!
	.cfi_def_cfa_offset 32
	.cfi_offset 29, -32
	.cfi_offset 30, -24
	mov	x29, sp
	stp	x19, x20, [sp, 16]
	.cfi_offset 19, -16
	.cfi_offset 20, -8
	mov	x19, x0
	ldp	x2, x20, [x0]
	ldr	x0, [x20, 944]
	str	xzr, [x2, 8]
	mov	x1, x20
	ldr	x2, [x0]
	ldr	x2, [x2, 24]
	blr	x2
	mov	x1, x0
	ldr	x0, [x19, 8]
	str	x1, [x20, 944]
	ldp	x19, x20, [sp, 16]
	ldp	x29, x30, [sp], 32
	.cfi_restore 30
	.cfi_restore 29
	.cfi_restore 19
	.cfi_restore 20
	.cfi_def_cfa_offset 0
	b	_ZN8opendnp38OContext17CheckForTaskStartEv
	.cfi_endproc
.LFE3592:
	.size	_ZNSt17_Function_handlerIFvvEZN7openpal8TimerRef7RestartIZN8opendnp38OContext19RestartConfirmTimerEvEUlvE_EEvRKNS1_12TimeDurationERKT_EUlvE_E9_M_invokeERKSt9_Any_data, .-_ZNSt17_Function_handlerIFvvEZN7openpal8TimerRef7RestartIZN8opendnp38OContext19RestartConfirmTimerEvEUlvE_EEvRKNS1_12TimeDurationERKT_EUlvE_E9_M_invokeERKSt9_Any_data
	.align	2
	.p2align 4,,11
	.global	_ZN8opendnp38OContext13SetRestartIINEv
	.type	_ZN8opendnp38OContext13SetRestartIINEv, %function
_ZN8opendnp38OContext13SetRestartIINEv:
.LFB2995:
	.cfi_startproc
	add	x0, x0, 722
	mov	w1, 7
	b	_ZN8opendnp38IINField6SetBitENS_6IINBitE
	.cfi_endproc
.LFE2995:
	.size	_ZN8opendnp38OContext13SetRestartIINEv, .-_ZN8opendnp38OContext13SetRestartIINEv
	.align	2
	.p2align 4,,11
	.global	_ZN8opendnp38OContext16GetUpdateHandlerEv
	.type	_ZN8opendnp38OContext16GetUpdateHandlerEv, %function
_ZN8opendnp38OContext16GetUpdateHandlerEv:
.LFB2996:
	.cfi_startproc
	add	x0, x0, 360
	ret
	.cfi_endproc
.LFE2996:
	.size	_ZN8opendnp38OContext16GetUpdateHandlerEv, .-_ZN8opendnp38OContext16GetUpdateHandlerEv
	.align	2
	.p2align 4,,11
	.global	_ZN8opendnp38OContext13GetConfigViewEv
	.type	_ZN8opendnp38OContext13GetConfigViewEv, %function
_ZN8opendnp38OContext13GetConfigViewEv:
.LFB2997:
	.cfi_startproc
	stp	x29, x30, [sp, -32]!
	.cfi_def_cfa_offset 32
	.cfi_offset 29, -32
	.cfi_offset 30, -24
	adrp	x1, :got:__stack_chk_guard
	add	x0, x0, 408
	mov	x29, sp
	ldr	x1, [x1, #:got_lo12:__stack_chk_guard]
	ldr	x2, [x1]
	str	x2, [sp, 24]
	mov	x2, 0
	bl	_ZNK8opendnp313StaticBuffers7GetViewEv
	adrp	x0, :got:__stack_chk_guard
	ldr	x0, [x0, #:got_lo12:__stack_chk_guard]
	ldr	x2, [sp, 24]
	ldr	x1, [x0]
	subs	x2, x2, x1
	mov	x1, 0
	bne	.L504
	ldp	x29, x30, [sp], 32
	.cfi_remember_state
	.cfi_restore 30
	.cfi_restore 29
	.cfi_def_cfa_offset 0
	ret
.L504:
	.cfi_restore_state
	bl	__stack_chk_fail
	.cfi_endproc
.LFE2997:
	.size	_ZN8opendnp38OContext13GetConfigViewEv, .-_ZN8opendnp38OContext13GetConfigViewEv
	.align	2
	.p2align 4,,11
	.global	_ZN8opendnp38OContext10HandleReadERKN7openpal6RSliceERNS_12HeaderWriterE
	.type	_ZN8opendnp38OContext10HandleReadERKN7openpal6RSliceERNS_12HeaderWriterE, %function
_ZN8opendnp38OContext10HandleReadERKN7openpal6RSliceERNS_12HeaderWriterE:
.LFB3000:
	.cfi_startproc
	stp	x29, x30, [sp, -128]!
	.cfi_def_cfa_offset 128
	.cfi_offset 29, -128
	.cfi_offset 30, -120
	adrp	x3, :got:__stack_chk_guard
	mov	x29, sp
	ldr	x3, [x3, #:got_lo12:__stack_chk_guard]
	stp	x19, x20, [sp, 16]
	.cfi_offset 19, -112
	.cfi_offset 20, -104
	mov	x20, x1
	stp	x21, x22, [sp, 32]
	mov	x19, x0
	.cfi_offset 21, -96
	.cfi_offset 22, -88
	mov	x22, x2
	stp	x23, x24, [sp, 48]
	.cfi_offset 23, -80
	.cfi_offset 24, -72
	add	x23, x0, 640
	mov	x0, x23
	ldr	x1, [x3]
	str	x1, [sp, 120]
	mov	x1, 0
	add	x24, x19, 384
	add	x21, sp, 80
	bl	_ZN8opendnp315ResponseContext5ResetEv
	add	x0, x19, 104
	bl	_ZN8opendnp311EventBuffer8UnselectEv
	mov	x0, x24
	bl	_ZN8opendnp315DatabaseBuffers8UnselectEv
	mov	x1, x24
	add	x2, x19, 112
	mov	x0, x21
	bl	_ZN8opendnp311ReadHandlerC1ERNS_15IStaticSelectorERNS_14IEventSelectorE
	add	x2, x19, 8
	mov	x0, x20
	mov	x1, x21
	mov	x3, 35184372088832
	bl	_ZN8opendnp310APDUParser5ParseERKN7openpal6RSliceERNS_12IAPDUHandlerEPNS1_6LoggerENS_14ParserSettingsE
	tst	w0, 255
	bne	.L506
	mov	x1, x22
	mov	x0, x23
	bl	_ZN8opendnp315ResponseContext12LoadResponseERNS_12HeaderWriterE
	mov	x1, x0
	strb	w1, [sp, 64]
	mov	x0, x21
	ubfx	x4, x1, 8, 8
	ubfx	x3, x1, 16, 8
	lsr	w2, w1, 24
	ubfx	x1, x1, 32, 8
	strb	w4, [sp, 65]
	strb	w3, [sp, 66]
	strb	w2, [sp, 67]
	strb	w1, [sp, 68]
	bl	_ZNK8opendnp312IAPDUHandler6ErrorsEv
	mov	w1, 0
	ldrb	w4, [sp, 64]
	bfi	w1, w0, 0, 8
	ubfx	x0, x0, 8, 8
	ldrb	w2, [sp, 65]
	bfi	w1, w0, 8, 8
	ldrb	w3, [sp, 68]
	ldrh	w0, [sp, 66]
	bfi	w1, w4, 16, 8
	strh	w0, [sp, 76]
	strb	w3, [sp, 78]
	bfi	w1, w2, 24, 8
	str	w1, [sp, 72]
.L507:
	ldr	w4, [sp, 72]
	mov	x0, 0
	ldrh	w3, [sp, 76]
	adrp	x1, :got:__stack_chk_guard
	ldrb	w2, [sp, 78]
	bfi	x0, x4, 0, 32
	ldr	x1, [x1, #:got_lo12:__stack_chk_guard]
	bfi	x0, x3, 32, 16
	ldr	x4, [sp, 120]
	ldr	x3, [x1]
	subs	x4, x4, x3
	mov	x3, 0
	bfi	x0, x2, 48, 8
	bne	.L510
	ldp	x19, x20, [sp, 16]
	ldp	x21, x22, [sp, 32]
	ldp	x23, x24, [sp, 48]
	ldp	x29, x30, [sp], 128
	.cfi_remember_state
	.cfi_restore 30
	.cfi_restore 29
	.cfi_restore 23
	.cfi_restore 24
	.cfi_restore 21
	.cfi_restore 22
	.cfi_restore 19
	.cfi_restore 20
	.cfi_def_cfa_offset 0
	ret
	.p2align 2,,3
.L506:
	.cfi_restore_state
	mov	w19, w0
	mov	x0, x23
	bl	_ZN8opendnp315ResponseContext5ResetEv
	mov	w0, w19
	bl	_ZN8opendnp318IINFromParseResultENS_11ParseResultE
	mov	w2, 1
	mov	w19, w0
	mov	w1, w2
	add	x0, sp, 64
	mov	w3, 0
	mov	w5, 0
	mov	w4, 0
	bl	_ZN8opendnp315AppControlFieldC1Ebbbbh
	mov	w0, 0
	ldrb	w3, [sp, 64]
	bfi	w0, w19, 0, 8
	ubfx	x19, x19, 8, 8
	ldrb	w2, [sp, 65]
	bfi	w0, w19, 8, 8
	ldrb	w1, [sp, 68]
	strb	w1, [sp, 78]
	bfi	w0, w3, 16, 8
	ldrh	w3, [sp, 66]
	strh	w3, [sp, 76]
	bfi	w0, w2, 24, 8
	str	w0, [sp, 72]
	b	.L507
.L510:
	bl	__stack_chk_fail
	.cfi_endproc
.LFE3000:
	.size	_ZN8opendnp38OContext10HandleReadERKN7openpal6RSliceERNS_12HeaderWriterE, .-_ZN8opendnp38OContext10HandleReadERKN7openpal6RSliceERNS_12HeaderWriterE
	.align	2
	.p2align 4,,11
	.global	_ZN8opendnp38OContext20RespondToReadRequestERKNS_10APDUHeaderERKN7openpal6RSliceE
	.type	_ZN8opendnp38OContext20RespondToReadRequestERKNS_10APDUHeaderERKN7openpal6RSliceE, %function
_ZN8opendnp38OContext20RespondToReadRequestERKNS_10APDUHeaderERKN7openpal6RSliceE:
.LFB2988:
	.cfi_startproc
	stp	x29, x30, [sp, -176]!
	.cfi_def_cfa_offset 176
	.cfi_offset 29, -176
	.cfi_offset 30, -168
	adrp	x3, :got:__stack_chk_guard
	mov	x29, sp
	ldr	x3, [x3, #:got_lo12:__stack_chk_guard]
	stp	x19, x20, [sp, 16]
	.cfi_offset 19, -160
	.cfi_offset 20, -152
	mov	x20, x0
	stp	x21, x22, [sp, 32]
	add	x0, x0, 744
	.cfi_offset 21, -144
	.cfi_offset 22, -136
	mov	x22, x1
	str	x23, [sp, 48]
	.cfi_offset 23, -128
	mov	x23, x2
	add	x19, sp, 128
	add	x21, sp, 96
	ldr	x4, [x3]
	str	x4, [sp, 168]
	mov	x4, 0
	bl	_ZN8opendnp314RequestHistory26RecordLastProcessedRequestERKNS_10APDUHeaderERKN7openpal6RSliceE
	add	x0, x20, 864
	bl	_ZN7openpal6Buffer9GetWSliceEv
	mov	x3, x1
	mov	x2, x0
	mov	x1, x21
	mov	x0, x19
	stp	x2, x3, [sp, 96]
	bl	_ZN8opendnp312APDUResponseC1ERKN7openpal6WSliceE
	mov	x8, x21
	mov	x0, x19
	bl	_ZN8opendnp311APDUWrapper9GetWriterEv
	mov	x0, x19
	mov	w1, -127
	bl	_ZN8opendnp311APDUWrapper11SetFunctionENS_12FunctionCodeE
	mov	x2, x21
	mov	x1, x23
	mov	x0, x20
	bl	_ZN8opendnp38OContext10HandleReadERKN7openpal6RSliceERNS_12HeaderWriterE
	mov	x3, x0
	ldrb	w2, [x22, 5]
	strb	w2, [x20, 833]
	mov	x0, x19
	ubfx	x4, x3, 16, 8
	lsr	w6, w3, 24
	ubfx	x5, x3, 32, 8
	ubfx	x1, x3, 40, 8
	strb	w4, [sp, 74]
	ubfx	x4, x3, 8, 8
	strb	w6, [sp, 75]
	add	x21, sp, 80
	strb	w5, [sp, 76]
	and	x5, x2, 255
	strb	w1, [sp, 77]
	ldrh	w6, [sp, 74]
	ldrh	w1, [sp, 76]
	strb	w3, [sp, 72]
	strb	w4, [sp, 73]
	orr	x1, x6, x1, lsl 16
	strb	w2, [sp, 78]
	orr	x1, x1, x5, lsl 32
	bl	_ZN8opendnp311APDUWrapper10SetControlENS_15AppControlFieldE
	mov	x0, x20
	bl	_ZN8opendnp38OContext14GetResponseIINEv
	mov	w3, w0
	ldrh	w2, [sp, 72]
	mov	x1, x21
	mov	x0, x19
	orr	w2, w2, w3
	strh	w2, [sp, 80]
	bl	_ZN8opendnp312APDUResponse6SetIINERKNS_8IINFieldE
	mov	x0, x19
	bl	_ZNK8opendnp311APDUWrapper10GetControlEv
	mov	x3, x0
	strb	w3, [sp, 64]
	mov	x0, x19
	ubfx	x4, x3, 8, 8
	ubfx	x2, x3, 16, 8
	lsr	w1, w3, 24
	ubfx	x3, x3, 32, 8
	strb	w4, [sp, 65]
	strb	w2, [sp, 66]
	strb	w1, [sp, 67]
	strb	w3, [sp, 68]
	bl	_ZNK8opendnp311APDUWrapper8ToRSliceEv
	mov	x4, x0
	mov	x5, x1
	mov	x0, x20
	add	x1, sp, 64
	mov	x2, x21
	stp	x4, x5, [sp, 80]
	bl	_ZN8opendnp38OContext15BeginResponseTxERKNS_15AppControlFieldERKN7openpal6RSliceE
	ldrb	w1, [sp, 76]
	adrp	x0, :got:_ZN8opendnp39StateIdle8instanceE
	ldr	x0, [x0, #:got_lo12:_ZN8opendnp39StateIdle8instanceE]
	cbnz	w1, .L517
.L511:
	adrp	x1, :got:__stack_chk_guard
	ldr	x1, [x1, #:got_lo12:__stack_chk_guard]
	ldr	x3, [sp, 168]
	ldr	x2, [x1]
	subs	x3, x3, x2
	mov	x2, 0
	bne	.L518
	ldp	x19, x20, [sp, 16]
	ldp	x21, x22, [sp, 32]
	ldr	x23, [sp, 48]
	ldp	x29, x30, [sp], 176
	.cfi_remember_state
	.cfi_restore 30
	.cfi_restore 29
	.cfi_restore 23
	.cfi_restore 21
	.cfi_restore 22
	.cfi_restore 19
	.cfi_restore 20
	.cfi_def_cfa_offset 0
	ret
	.p2align 2,,3
.L517:
	.cfi_restore_state
	mov	x0, x20
	bl	_ZN8opendnp38OContext19RestartConfirmTimerEv
	adrp	x0, :got:_ZN8opendnp325StateSolicitedConfirmWait8instanceE
	ldr	x0, [x0, #:got_lo12:_ZN8opendnp325StateSolicitedConfirmWait8instanceE]
	b	.L511
.L518:
	bl	__stack_chk_fail
	.cfi_endproc
.LFE2988:
	.size	_ZN8opendnp38OContext20RespondToReadRequestERKNS_10APDUHeaderERKN7openpal6RSliceE, .-_ZN8opendnp38OContext20RespondToReadRequestERKNS_10APDUHeaderERKN7openpal6RSliceE
	.align	2
	.p2align 4,,11
	.global	_ZN8opendnp38OContext11HandleWriteERKN7openpal6RSliceE
	.type	_ZN8opendnp38OContext11HandleWriteERKN7openpal6RSliceE, %function
_ZN8opendnp38OContext11HandleWriteERKN7openpal6RSliceE:
.LFB3001:
	.cfi_startproc
	stp	x29, x30, [sp, -112]!
	.cfi_def_cfa_offset 112
	.cfi_offset 29, -112
	.cfi_offset 30, -104
	adrp	x2, :got:__stack_chk_guard
	mov	x29, sp
	stp	x19, x20, [sp, 16]
	.cfi_offset 19, -96
	.cfi_offset 20, -88
	mov	x19, x0
	mov	x20, x1
	ldr	x0, [x2, #:got_lo12:__stack_chk_guard]
	add	x2, x19, 722
	ldr	x1, [x19, 88]
	str	x21, [sp, 32]
	.cfi_offset 21, -80
	add	x21, sp, 56
	ldr	x3, [x0]
	str	x3, [sp, 104]
	mov	x3, 0
	mov	x0, x21
	bl	_ZN8opendnp312WriteHandlerC1ERNS_22IOutstationApplicationEPNS_8IINFieldE
	mov	x0, 1
	mov	x3, 0
	bfi	x3, x0, 0, 8
	mov	x4, 8192
	add	x2, x19, 8
	mov	x0, x20
	mov	x1, x21
	bfi	x3, x4, 32, 32
	bl	_ZN8opendnp310APDUParser5ParseERKN7openpal6RSliceERNS_12IAPDUHandlerEPNS1_6LoggerENS_14ParserSettingsE
	tst	w0, 255
	bne	.L520
	mov	x0, x21
	bl	_ZNK8opendnp312IAPDUHandler6ErrorsEv
.L521:
	adrp	x1, :got:__stack_chk_guard
	ldr	x1, [x1, #:got_lo12:__stack_chk_guard]
	ldr	x3, [sp, 104]
	ldr	x2, [x1]
	subs	x3, x3, x2
	mov	x2, 0
	bne	.L524
	ldp	x19, x20, [sp, 16]
	ldr	x21, [sp, 32]
	ldp	x29, x30, [sp], 112
	.cfi_remember_state
	.cfi_restore 30
	.cfi_restore 29
	.cfi_restore 21
	.cfi_restore 19
	.cfi_restore 20
	.cfi_def_cfa_offset 0
	ret
	.p2align 2,,3
.L520:
	.cfi_restore_state
	bl	_ZN8opendnp318IINFromParseResultENS_11ParseResultE
	b	.L521
.L524:
	bl	__stack_chk_fail
	.cfi_endproc
.LFE3001:
	.size	_ZN8opendnp38OContext11HandleWriteERKN7openpal6RSliceE, .-_ZN8opendnp38OContext11HandleWriteERKN7openpal6RSliceE
	.align	2
	.p2align 4,,11
	.global	_ZN8opendnp38OContext18HandleDelayMeasureERKN7openpal6RSliceERNS_12HeaderWriterE
	.type	_ZN8opendnp38OContext18HandleDelayMeasureERKN7openpal6RSliceERNS_12HeaderWriterE, %function
_ZN8opendnp38OContext18HandleDelayMeasureERKN7openpal6RSliceERNS_12HeaderWriterE:
.LFB3005:
	.cfi_startproc
	stp	x29, x30, [sp, -48]!
	.cfi_def_cfa_offset 48
	.cfi_offset 29, -48
	.cfi_offset 30, -40
	adrp	x3, :got:__stack_chk_guard
	mov	x29, sp
	ldr	x3, [x3, #:got_lo12:__stack_chk_guard]
	ldr	w0, [x1]
	ldr	x1, [x3]
	str	x1, [sp, 40]
	mov	x1, 0
	cbnz	w0, .L526
	stp	x19, x20, [sp, 16]
	.cfi_offset 20, -24
	.cfi_offset 19, -32
	add	x20, sp, 32
	mov	x19, x2
	mov	x0, x20
	bl	_ZN8opendnp311Group52Var2C1Ev
	mov	x0, x19
	mov	w3, 3
	mov	w2, 7
	mov	w1, 564
	strh	wzr, [sp, 32]
	bl	_ZN8opendnp312HeaderWriter22WriteHeaderWithReserveENS_16GroupVariationIDENS_13QualifierCodeEj
	tst	w0, 255
	bne	.L534
.L527:
	ldp	x19, x20, [sp, 16]
	.cfi_restore 20
	.cfi_restore 19
	mov	w0, 0
.L528:
	adrp	x1, :got:__stack_chk_guard
	ldr	x1, [x1, #:got_lo12:__stack_chk_guard]
	ldr	x3, [sp, 40]
	ldr	x2, [x1]
	subs	x3, x3, x2
	mov	x2, 0
	bne	.L535
	ldp	x29, x30, [sp], 48
	.cfi_remember_state
	.cfi_restore 30
	.cfi_restore 29
	.cfi_def_cfa_offset 0
	ret
	.p2align 2,,3
.L526:
	.cfi_restore_state
	add	x0, sp, 32
	mov	w1, 10
	strh	wzr, [sp, 32]
	bl	_ZN8opendnp38IINField6SetBitENS_6IINBitE
	ldrh	w0, [sp, 32]
	b	.L528
	.p2align 2,,3
.L534:
	.cfi_offset 19, -32
	.cfi_offset 20, -24
	ldr	x0, [x19]
	mov	w3, 1
	mov	w1, 1
	ldr	x2, [x0, 8]
	strb	w3, [x2]
	bl	_ZN7openpal6WSlice7AdvanceEj
	ldr	x1, [x19]
	mov	x0, x20
	bl	_ZN8opendnp311Group52Var25WriteERKS0_RN7openpal6WSliceE
	b	.L527
.L535:
	.cfi_restore 19
	.cfi_restore 20
	stp	x19, x20, [sp, 16]
	.cfi_offset 20, -24
	.cfi_offset 19, -32
	bl	__stack_chk_fail
	.cfi_endproc
.LFE3005:
	.size	_ZN8opendnp38OContext18HandleDelayMeasureERKN7openpal6RSliceERNS_12HeaderWriterE, .-_ZN8opendnp38OContext18HandleDelayMeasureERKN7openpal6RSliceERNS_12HeaderWriterE
	.align	2
	.p2align 4,,11
	.global	_ZN8opendnp38OContext13HandleRestartERKN7openpal6RSliceEbPNS_12HeaderWriterE
	.type	_ZN8opendnp38OContext13HandleRestartERKN7openpal6RSliceEbPNS_12HeaderWriterE, %function
_ZN8opendnp38OContext13HandleRestartERKN7openpal6RSliceEbPNS_12HeaderWriterE:
.LFB3006:
	.cfi_startproc
	stp	x29, x30, [sp, -64]!
	.cfi_def_cfa_offset 64
	.cfi_offset 29, -64
	.cfi_offset 30, -56
	adrp	x4, :got:__stack_chk_guard
	mov	x29, sp
	ldr	x4, [x4, #:got_lo12:__stack_chk_guard]
	stp	x19, x20, [sp, 16]
	ldr	w1, [x1]
	.cfi_offset 19, -48
	.cfi_offset 20, -40
	mov	x19, x0
	ldr	x0, [x4]
	str	x0, [sp, 56]
	mov	x0, 0
	cbnz	w1, .L537
	ldr	x0, [x19, 88]
	mov	x20, x3
	and	w2, w2, 255
	ldr	x3, [x0]
	cbnz	w2, .L581
	adrp	x1, :got:_ZNK8opendnp322IOutstationApplication18ColdRestartSupportEv
	ldr	x2, [x3, 88]
	ldr	x1, [x1, #:got_lo12:_ZNK8opendnp322IOutstationApplication18ColdRestartSupportEv]
	cmp	x2, x1
	bne	.L582
.L539:
	add	x0, sp, 48
	mov	w1, 8
	strh	wzr, [sp, 48]
	bl	_ZN8opendnp38IINField6SetBitENS_6IINBitE
	ldrh	w0, [sp, 48]
.L557:
	adrp	x1, :got:__stack_chk_guard
	ldr	x1, [x1, #:got_lo12:__stack_chk_guard]
	ldr	x3, [sp, 56]
	ldr	x2, [x1]
	subs	x3, x3, x2
	mov	x2, 0
	bne	.L583
	ldp	x19, x20, [sp, 16]
	ldp	x29, x30, [sp], 64
	.cfi_remember_state
	.cfi_restore 30
	.cfi_restore 29
	.cfi_restore 19
	.cfi_restore 20
	.cfi_def_cfa_offset 0
	ret
	.p2align 2,,3
.L581:
	.cfi_restore_state
	adrp	x1, :got:_ZNK8opendnp322IOutstationApplication18WarmRestartSupportEv
	ldr	x2, [x3, 96]
	ldr	x1, [x1, #:got_lo12:_ZNK8opendnp322IOutstationApplication18WarmRestartSupportEv]
	cmp	x2, x1
	beq	.L539
	blr	x2
	ands	w0, w0, 255
	beq	.L539
	cmp	w0, 2
	bne	.L584
	ldr	x0, [x19, 88]
	adrp	x1, :got:_ZN8opendnp322IOutstationApplication11WarmRestartEv
	ldr	x1, [x1, #:got_lo12:_ZN8opendnp322IOutstationApplication11WarmRestartEv]
	ldr	x2, [x0]
	ldr	x2, [x2, 112]
	cmp	x2, x1
	bne	.L579
.L548:
	mov	w19, 65535
.L547:
	cbz	x20, .L550
	str	x21, [sp, 32]
	.cfi_offset 21, -32
	add	x21, sp, 48
	mov	x0, x21
	bl	_ZN8opendnp311Group52Var1C1Ev
	mov	x0, x20
	mov	w3, 3
	mov	w2, 7
	mov	w1, 308
	strh	w19, [sp, 48]
	bl	_ZN8opendnp312HeaderWriter22WriteHeaderWithReserveENS_16GroupVariationIDENS_13QualifierCodeEj
	tst	w0, 255
	bne	.L585
.L578:
	ldr	x21, [sp, 32]
	.cfi_restore 21
.L550:
	mov	w0, 0
	b	.L557
	.p2align 2,,3
.L537:
	add	x0, sp, 48
	mov	w1, 10
	strh	wzr, [sp, 48]
	bl	_ZN8opendnp38IINField6SetBitENS_6IINBitE
	ldrh	w0, [sp, 48]
	b	.L557
.L584:
	ldr	x0, [x19, 88]
	adrp	x1, :got:_ZN8opendnp322IOutstationApplication11WarmRestartEv
	ldr	x1, [x1, #:got_lo12:_ZN8opendnp322IOutstationApplication11WarmRestartEv]
	ldr	x2, [x0]
	ldr	x2, [x2, 112]
	cmp	x2, x1
	bne	.L580
.L554:
	mov	w19, 65535
.L553:
	cbz	x20, .L550
	str	x21, [sp, 32]
	.cfi_offset 21, -32
	add	x21, sp, 48
	mov	x0, x21
	bl	_ZN8opendnp311Group52Var2C1Ev
	mov	x0, x20
	mov	w3, 3
	mov	w2, 7
	mov	w1, 564
	strh	w19, [sp, 48]
	bl	_ZN8opendnp312HeaderWriter22WriteHeaderWithReserveENS_16GroupVariationIDENS_13QualifierCodeEj
	tst	w0, 255
	beq	.L578
	ldr	x0, [x20]
	mov	w3, 1
	mov	w1, 1
	ldr	x2, [x0, 8]
	strb	w3, [x2]
	bl	_ZN7openpal6WSlice7AdvanceEj
	ldr	x1, [x20]
	mov	x0, x21
	bl	_ZN8opendnp311Group52Var25WriteERKS0_RN7openpal6WSliceE
	mov	w0, 0
	ldr	x21, [sp, 32]
	.cfi_restore 21
	b	.L557
	.p2align 2,,3
.L582:
	blr	x2
	ands	w0, w0, 255
	beq	.L539
	cmp	w0, 2
	beq	.L586
	ldr	x0, [x19, 88]
	adrp	x1, :got:_ZN8opendnp322IOutstationApplication11ColdRestartEv
	ldr	x1, [x1, #:got_lo12:_ZN8opendnp322IOutstationApplication11ColdRestartEv]
	ldr	x2, [x0]
	ldr	x2, [x2, 104]
	cmp	x2, x1
	beq	.L554
.L580:
	blr	x2
	and	w19, w0, 65535
	b	.L553
.L586:
	ldr	x0, [x19, 88]
	adrp	x1, :got:_ZN8opendnp322IOutstationApplication11ColdRestartEv
	ldr	x1, [x1, #:got_lo12:_ZN8opendnp322IOutstationApplication11ColdRestartEv]
	ldr	x2, [x0]
	ldr	x2, [x2, 104]
	cmp	x2, x1
	beq	.L548
.L579:
	blr	x2
	and	w19, w0, 65535
	b	.L547
	.p2align 2,,3
.L585:
	.cfi_offset 21, -32
	ldr	x0, [x20]
	mov	w3, 1
	mov	w1, 1
	ldr	x2, [x0, 8]
	strb	w3, [x2]
	bl	_ZN7openpal6WSlice7AdvanceEj
	ldr	x1, [x20]
	mov	x0, x21
	bl	_ZN8opendnp311Group52Var15WriteERKS0_RN7openpal6WSliceE
	mov	w0, 0
	ldr	x21, [sp, 32]
	.cfi_restore 21
	b	.L557
.L583:
	str	x21, [sp, 32]
	.cfi_offset 21, -32
	bl	__stack_chk_fail
	.cfi_endproc
.LFE3006:
	.size	_ZN8opendnp38OContext13HandleRestartERKN7openpal6RSliceEbPNS_12HeaderWriterE, .-_ZN8opendnp38OContext13HandleRestartERKN7openpal6RSliceEbPNS_12HeaderWriterE
	.align	2
	.p2align 4,,11
	.global	_ZN8opendnp38OContext17HandleAssignClassERKN7openpal6RSliceE
	.type	_ZN8opendnp38OContext17HandleAssignClassERKN7openpal6RSliceE, %function
_ZN8opendnp38OContext17HandleAssignClassERKN7openpal6RSliceE:
.LFB3007:
	.cfi_startproc
	stp	x29, x30, [sp, -112]!
	.cfi_def_cfa_offset 112
	.cfi_offset 29, -112
	.cfi_offset 30, -104
	adrp	x3, :got:__stack_chk_guard
	adrp	x2, :got:_ZN8opendnp322IOutstationApplication19SupportsAssignClassEv
	mov	x29, sp
	stp	x19, x20, [sp, 16]
	.cfi_offset 19, -96
	.cfi_offset 20, -88
	mov	x19, x0
	mov	x20, x1
	ldr	x0, [x0, 88]
	ldr	x3, [x3, #:got_lo12:__stack_chk_guard]
	ldr	x1, [x0]
	ldr	x4, [x3]
	str	x4, [sp, 104]
	mov	x4, 0
	ldr	x2, [x2, #:got_lo12:_ZN8opendnp322IOutstationApplication19SupportsAssignClassEv]
	ldr	x1, [x1, 64]
	cmp	x1, x2
	bne	.L598
.L588:
	add	x0, sp, 48
	mov	w1, 8
	strh	wzr, [sp, 48]
	bl	_ZN8opendnp38IINField6SetBitENS_6IINBitE
	ldrh	w0, [sp, 48]
.L591:
	adrp	x1, :got:__stack_chk_guard
	ldr	x1, [x1, #:got_lo12:__stack_chk_guard]
	ldr	x3, [sp, 104]
	ldr	x2, [x1]
	subs	x3, x3, x2
	mov	x2, 0
	bne	.L599
	ldp	x19, x20, [sp, 16]
	ldp	x29, x30, [sp], 112
	.cfi_remember_state
	.cfi_restore 30
	.cfi_restore 29
	.cfi_restore 19
	.cfi_restore 20
	.cfi_def_cfa_offset 0
	ret
	.p2align 2,,3
.L598:
	.cfi_restore_state
	str	x21, [sp, 32]
	.cfi_offset 21, -80
	blr	x1
	tst	w0, 255
	beq	.L597
	ldr	x1, [x19, 40]
	add	x21, sp, 48
	ldr	x2, [x19, 88]
	mov	x0, x21
	add	x3, x19, 400
	bl	_ZN8opendnp318AssignClassHandlerC1ERN7openpal9IExecutorERNS_22IOutstationApplicationERNS_14IClassAssignerE
	add	x2, x19, 8
	mov	x0, x20
	mov	x1, x21
	mov	x3, 35184372088832
	bl	_ZN8opendnp310APDUParser5ParseERKN7openpal6RSliceERNS_12IAPDUHandlerEPNS1_6LoggerENS_14ParserSettingsE
	tst	w0, 255
	bne	.L589
	mov	x0, x21
	bl	_ZNK8opendnp312IAPDUHandler6ErrorsEv
	ldr	x21, [sp, 32]
	.cfi_restore 21
	b	.L591
	.p2align 2,,3
.L589:
	.cfi_offset 21, -80
	bl	_ZN8opendnp318IINFromParseResultENS_11ParseResultE
	ldr	x21, [sp, 32]
	.cfi_remember_state
	.cfi_restore 21
	b	.L591
	.p2align 2,,3
.L597:
	.cfi_restore_state
	ldr	x21, [sp, 32]
	.cfi_restore 21
	b	.L588
.L599:
	str	x21, [sp, 32]
	.cfi_offset 21, -80
	bl	__stack_chk_fail
	.cfi_endproc
.LFE3007:
	.size	_ZN8opendnp38OContext17HandleAssignClassERKN7openpal6RSliceE, .-_ZN8opendnp38OContext17HandleAssignClassERKN7openpal6RSliceE
	.align	2
	.p2align 4,,11
	.global	_ZN8opendnp38OContext24HandleDisableUnsolicitedERKN7openpal6RSliceERNS_12HeaderWriterE
	.type	_ZN8opendnp38OContext24HandleDisableUnsolicitedERKN7openpal6RSliceERNS_12HeaderWriterE, %function
_ZN8opendnp38OContext24HandleDisableUnsolicitedERKN7openpal6RSliceERNS_12HeaderWriterE:
.LFB3008:
	.cfi_startproc
	stp	x29, x30, [sp, -96]!
	.cfi_def_cfa_offset 96
	.cfi_offset 29, -96
	.cfi_offset 30, -88
	adrp	x2, :got:__stack_chk_guard
	mov	x29, sp
	ldr	x2, [x2, #:got_lo12:__stack_chk_guard]
	stp	x19, x20, [sp, 16]
	.cfi_offset 19, -80
	.cfi_offset 20, -72
	mov	x20, x1
	str	x21, [sp, 32]
	.cfi_offset 21, -64
	add	x21, sp, 64
	mov	x19, x0
	mov	x0, x21
	ldr	x1, [x2]
	str	x1, [sp, 88]
	mov	x1, 0
	bl	_ZN8opendnp312IAPDUHandlerC2Ev
	adrp	x2, :got:_ZTVN8opendnp324ClassBasedRequestHandlerE
	add	x0, sp, 84
	ldr	x2, [x2, #:got_lo12:_ZTVN8opendnp324ClassBasedRequestHandlerE]
	add	x2, x2, 16
	str	x2, [sp, 64]
	bl	_ZN8opendnp310ClassFieldC1Ev
	mov	x0, 1
	mov	x3, 0
	bfi	x3, x0, 0, 8
	mov	x4, 8192
	mov	x0, x20
	add	x2, x19, 8
	mov	x1, x21
	bfi	x3, x4, 32, 32
	bl	_ZN8opendnp310APDUParser5ParseERKN7openpal6RSliceERNS_12IAPDUHandlerEPNS1_6LoggerENS_14ParserSettingsE
	tst	w0, 255
	bne	.L601
	ldrb	w2, [sp, 84]
	add	x1, sp, 56
	add	x0, x19, 716
	strb	w2, [sp, 56]
	bl	_ZN8opendnp310ClassField5ClearERKS0_
	mov	x0, x21
	bl	_ZNK8opendnp312IAPDUHandler6ErrorsEv
.L602:
	adrp	x1, :got:__stack_chk_guard
	ldr	x1, [x1, #:got_lo12:__stack_chk_guard]
	ldr	x3, [sp, 88]
	ldr	x2, [x1]
	subs	x3, x3, x2
	mov	x2, 0
	bne	.L605
	ldp	x19, x20, [sp, 16]
	ldr	x21, [sp, 32]
	ldp	x29, x30, [sp], 96
	.cfi_remember_state
	.cfi_restore 30
	.cfi_restore 29
	.cfi_restore 21
	.cfi_restore 19
	.cfi_restore 20
	.cfi_def_cfa_offset 0
	ret
	.p2align 2,,3
.L601:
	.cfi_restore_state
	bl	_ZN8opendnp318IINFromParseResultENS_11ParseResultE
	b	.L602
.L605:
	bl	__stack_chk_fail
	.cfi_endproc
.LFE3008:
	.size	_ZN8opendnp38OContext24HandleDisableUnsolicitedERKN7openpal6RSliceERNS_12HeaderWriterE, .-_ZN8opendnp38OContext24HandleDisableUnsolicitedERKN7openpal6RSliceERNS_12HeaderWriterE
	.align	2
	.p2align 4,,11
	.global	_ZN8opendnp38OContext23HandleEnableUnsolicitedERKN7openpal6RSliceERNS_12HeaderWriterE
	.type	_ZN8opendnp38OContext23HandleEnableUnsolicitedERKN7openpal6RSliceERNS_12HeaderWriterE, %function
_ZN8opendnp38OContext23HandleEnableUnsolicitedERKN7openpal6RSliceERNS_12HeaderWriterE:
.LFB3009:
	.cfi_startproc
	stp	x29, x30, [sp, -96]!
	.cfi_def_cfa_offset 96
	.cfi_offset 29, -96
	.cfi_offset 30, -88
	adrp	x2, :got:__stack_chk_guard
	mov	x29, sp
	ldr	x2, [x2, #:got_lo12:__stack_chk_guard]
	stp	x19, x20, [sp, 16]
	.cfi_offset 19, -80
	.cfi_offset 20, -72
	mov	x20, x1
	str	x21, [sp, 32]
	.cfi_offset 21, -64
	add	x21, sp, 64
	mov	x19, x0
	mov	x0, x21
	ldr	x1, [x2]
	str	x1, [sp, 88]
	mov	x1, 0
	bl	_ZN8opendnp312IAPDUHandlerC2Ev
	adrp	x2, :got:_ZTVN8opendnp324ClassBasedRequestHandlerE
	add	x0, sp, 84
	ldr	x2, [x2, #:got_lo12:_ZTVN8opendnp324ClassBasedRequestHandlerE]
	add	x2, x2, 16
	str	x2, [sp, 64]
	bl	_ZN8opendnp310ClassFieldC1Ev
	mov	x0, 1
	mov	x3, 0
	bfi	x3, x0, 0, 8
	mov	x4, 8192
	mov	x0, x20
	add	x2, x19, 8
	mov	x1, x21
	bfi	x3, x4, 32, 32
	bl	_ZN8opendnp310APDUParser5ParseERKN7openpal6RSliceERNS_12IAPDUHandlerEPNS1_6LoggerENS_14ParserSettingsE
	tst	w0, 255
	bne	.L607
	ldrb	w2, [sp, 84]
	add	x1, sp, 56
	add	x0, x19, 716
	strb	w2, [sp, 56]
	bl	_ZN8opendnp310ClassField3SetERKS0_
	mov	x0, x21
	bl	_ZNK8opendnp312IAPDUHandler6ErrorsEv
.L608:
	adrp	x1, :got:__stack_chk_guard
	ldr	x1, [x1, #:got_lo12:__stack_chk_guard]
	ldr	x3, [sp, 88]
	ldr	x2, [x1]
	subs	x3, x3, x2
	mov	x2, 0
	bne	.L611
	ldp	x19, x20, [sp, 16]
	ldr	x21, [sp, 32]
	ldp	x29, x30, [sp], 96
	.cfi_remember_state
	.cfi_restore 30
	.cfi_restore 29
	.cfi_restore 21
	.cfi_restore 19
	.cfi_restore 20
	.cfi_def_cfa_offset 0
	ret
	.p2align 2,,3
.L607:
	.cfi_restore_state
	bl	_ZN8opendnp318IINFromParseResultENS_11ParseResultE
	b	.L608
.L611:
	bl	__stack_chk_fail
	.cfi_endproc
.LFE3009:
	.size	_ZN8opendnp38OContext23HandleEnableUnsolicitedERKN7openpal6RSliceERNS_12HeaderWriterE, .-_ZN8opendnp38OContext23HandleEnableUnsolicitedERKN7openpal6RSliceERNS_12HeaderWriterE
	.align	2
	.p2align 4,,11
	.global	_ZN8opendnp38OContext25HandleCommandWithConstantERKN7openpal6RSliceERNS_12HeaderWriterENS_13CommandStatusE
	.type	_ZN8opendnp38OContext25HandleCommandWithConstantERKN7openpal6RSliceERNS_12HeaderWriterENS_13CommandStatusE, %function
_ZN8opendnp38OContext25HandleCommandWithConstantERKN7openpal6RSliceERNS_12HeaderWriterENS_13CommandStatusE:
.LFB3010:
	.cfi_startproc
	stp	x29, x30, [sp, -128]!
	.cfi_def_cfa_offset 128
	.cfi_offset 29, -128
	.cfi_offset 30, -120
	adrp	x4, :got:_ZTVN8opendnp321ConstantCommandActionE
	adrp	x5, :got:__stack_chk_guard
	mov	x29, sp
	ldr	x4, [x4, #:got_lo12:_ZTVN8opendnp321ConstantCommandActionE]
	stp	x19, x20, [sp, 16]
	mov	x6, x2
	str	x21, [sp, 32]
	.cfi_offset 19, -112
	.cfi_offset 20, -104
	.cfi_offset 21, -96
	mov	x21, x1
	ldr	x5, [x5, #:got_lo12:__stack_chk_guard]
	add	x4, x4, 16
	ldrb	w1, [x0, 665]
	mov	x20, x0
	add	x19, sp, 64
	ldr	x0, [x5]
	str	x0, [sp, 120]
	mov	x0, 0
	add	x2, sp, 48
	mov	x0, x19
	str	x4, [sp, 48]
	strb	w3, [sp, 56]
	mov	x3, x6
	bl	_ZN8opendnp322CommandResponseHandlerC1EhPNS_14ICommandActionEPNS_12HeaderWriterE
	mov	x0, 1
	mov	x3, 0
	bfi	x3, x0, 0, 8
	mov	x4, 8192
	add	x2, x20, 8
	mov	x1, x19
	bfi	x3, x4, 32, 32
	mov	x0, x21
	bl	_ZN8opendnp310APDUParser5ParseERKN7openpal6RSliceERNS_12IAPDUHandlerEPNS1_6LoggerENS_14ParserSettingsE
	bl	_ZN8opendnp318IINFromParseResultENS_11ParseResultE
	adrp	x1, :got:__stack_chk_guard
	ldr	x1, [x1, #:got_lo12:__stack_chk_guard]
	ldr	x3, [sp, 120]
	ldr	x2, [x1]
	subs	x3, x3, x2
	mov	x2, 0
	bne	.L615
	ldp	x19, x20, [sp, 16]
	ldr	x21, [sp, 32]
	ldp	x29, x30, [sp], 128
	.cfi_remember_state
	.cfi_restore 30
	.cfi_restore 29
	.cfi_restore 21
	.cfi_restore 19
	.cfi_restore 20
	.cfi_def_cfa_offset 0
	ret
.L615:
	.cfi_restore_state
	bl	__stack_chk_fail
	.cfi_endproc
.LFE3010:
	.size	_ZN8opendnp38OContext25HandleCommandWithConstantERKN7openpal6RSliceERNS_12HeaderWriterENS_13CommandStatusE, .-_ZN8opendnp38OContext25HandleCommandWithConstantERKN7openpal6RSliceERNS_12HeaderWriterENS_13CommandStatusE
	.section	.text._ZNSt16_Sp_counted_baseILN9__gnu_cxx12_Lock_policyE2EE10_M_releaseEv,"axG",@progbits,_ZNSt16_Sp_counted_baseILN9__gnu_cxx12_Lock_policyE2EE10_M_releaseEv,comdat
	.align	2
	.p2align 4,,11
	.weak	_ZNSt16_Sp_counted_baseILN9__gnu_cxx12_Lock_policyE2EE10_M_releaseEv
	.type	_ZNSt16_Sp_counted_baseILN9__gnu_cxx12_Lock_policyE2EE10_M_releaseEv, %function
_ZNSt16_Sp_counted_baseILN9__gnu_cxx12_Lock_policyE2EE10_M_releaseEv:
.LFB3373:
	.cfi_startproc
	stp	x29, x30, [sp, -32]!
	.cfi_def_cfa_offset 32
	.cfi_offset 29, -32
	.cfi_offset 30, -24
	mov	x29, sp
	stp	x19, x20, [sp, 16]
	.cfi_offset 19, -16
	.cfi_offset 20, -8
	adrp	x20, :got:__libc_single_threaded
	mov	x19, x0
	ldr	x0, [x20, #:got_lo12:__libc_single_threaded]
	ldrb	w0, [x0]
	cbz	w0, .L617
	ldr	w0, [x19, 8]
	sub	w1, w0, #1
	str	w1, [x19, 8]
.L618:
	cmp	w0, 1
	beq	.L625
.L616:
	ldp	x19, x20, [sp, 16]
	ldp	x29, x30, [sp], 32
	.cfi_remember_state
	.cfi_restore 30
	.cfi_restore 29
	.cfi_restore 19
	.cfi_restore 20
	.cfi_def_cfa_offset 0
	ret
	.p2align 2,,3
.L625:
	.cfi_restore_state
	ldr	x1, [x19]
	mov	x0, x19
	ldr	x1, [x1, 16]
	blr	x1
	ldr	x20, [x20, #:got_lo12:__libc_single_threaded]
	ldrb	w0, [x20]
	cbz	w0, .L621
	ldr	w0, [x19, 12]
	sub	w1, w0, #1
	str	w1, [x19, 12]
.L622:
	cmp	w0, 1
	bne	.L616
	ldr	x1, [x19]
	mov	x0, x19
	ldp	x19, x20, [sp, 16]
	ldp	x29, x30, [sp], 32
	.cfi_remember_state
	.cfi_restore 30
	.cfi_restore 29
	.cfi_restore 19
	.cfi_restore 20
	.cfi_def_cfa_offset 0
	ldr	x1, [x1, 24]
	mov	x16, x1
	br	x16
	.p2align 2,,3
.L617:
	.cfi_restore_state
	add	x1, x19, 8
	mov	w0, -1
	bl	__aarch64_ldadd4_acq_rel
	b	.L618
	.p2align 2,,3
.L621:
	add	x1, x19, 12
	mov	w0, -1
	bl	__aarch64_ldadd4_acq_rel
	b	.L622
	.cfi_endproc
.LFE3373:
	.size	_ZNSt16_Sp_counted_baseILN9__gnu_cxx12_Lock_policyE2EE10_M_releaseEv, .-_ZNSt16_Sp_counted_baseILN9__gnu_cxx12_Lock_policyE2EE10_M_releaseEv
	.text
	.align	2
	.p2align 4,,11
	.global	_ZN8opendnp38OContextC2ERKNS_16OutstationConfigERKNS_13DatabaseSizesERKN7openpal6LoggerERKSt10shared_ptrINS7_9IExecutorEERKSB_INS_11ILowerLayerEERKSB_INS_15ICommandHandlerEERKSB_INS_22IOutstationApplicationEE
	.type	_ZN8opendnp38OContextC2ERKNS_16OutstationConfigERKNS_13DatabaseSizesERKN7openpal6LoggerERKSt10shared_ptrINS7_9IExecutorEERKSB_INS_11ILowerLayerEERKSB_INS_15ICommandHandlerEERKSB_INS_22IOutstationApplicationEE, %function
_ZN8opendnp38OContextC2ERKNS_16OutstationConfigERKNS_13DatabaseSizesERKN7openpal6LoggerERKSt10shared_ptrINS7_9IExecutorEERKSB_INS_11ILowerLayerEERKSB_INS_15ICommandHandlerEERKSB_INS_22IOutstationApplicationEE:
.LFB2967:
	.cfi_startproc
	.cfi_personality 0x9b,DW.ref.__gxx_personality_v0
	.cfi_lsda 0x1b,.LLSDA2967
	stp	x29, x30, [sp, -80]!
	.cfi_def_cfa_offset 80
	.cfi_offset 29, -80
	.cfi_offset 30, -72
	adrp	x8, :got:_ZTVN8opendnp38OContextE
	mov	x29, sp
	ldr	x8, [x8, #:got_lo12:_ZTVN8opendnp38OContextE]
	stp	x19, x20, [sp, 16]
	.cfi_offset 19, -64
	.cfi_offset 20, -56
	mov	x19, x0
	ldr	x0, [x3, 8]
	stp	x21, x22, [sp, 32]
	.cfi_offset 21, -48
	.cfi_offset 22, -40
	mov	x21, x3
	stp	x23, x24, [sp, 48]
	add	x8, x8, 16
	mov	x20, x1
	stp	x25, x26, [sp, 64]
	.cfi_offset 23, -32
	.cfi_offset 24, -24
	.cfi_offset 25, -16
	.cfi_offset 26, -8
	mov	x23, x2
	mov	x22, x4
	ldr	x3, [x3]
	stp	x8, x3, [x19]
	mov	x26, x5
	str	x0, [x19, 16]
	mov	x25, x6
	mov	x24, x7
	cbz	x0, .L627
	adrp	x1, :got:__libc_single_threaded
	ldr	x1, [x1, #:got_lo12:__libc_single_threaded]
	ldrb	w1, [x1]
	cbz	w1, .L628
	ldr	w1, [x0, 8]
	add	w1, w1, 1
	str	w1, [x0, 8]
.L627:
	ldr	q0, [x21, 16]
	umov	x1, v0.d[1]
	str	q0, [x19, 24]
	cbz	x1, .L629
	adrp	x0, :got:__libc_single_threaded
	ldr	x0, [x0, #:got_lo12:__libc_single_threaded]
	ldrb	w0, [x0]
	cbz	w0, .L630
	ldr	w0, [x1, 8]
	add	w0, w0, 1
	str	w0, [x1, 8]
.L629:
	ldr	q0, [x22]
	umov	x1, v0.d[1]
	str	q0, [x19, 40]
	cbz	x1, .L631
	adrp	x0, :got:__libc_single_threaded
	ldr	x0, [x0, #:got_lo12:__libc_single_threaded]
	ldrb	w0, [x0]
	cbz	w0, .L632
	ldr	w0, [x1, 8]
	add	w0, w0, 1
	str	w0, [x1, 8]
.L631:
	ldr	q0, [x26]
	umov	x1, v0.d[1]
	str	q0, [x19, 56]
	cbz	x1, .L633
	adrp	x0, :got:__libc_single_threaded
	ldr	x0, [x0, #:got_lo12:__libc_single_threaded]
	ldrb	w0, [x0]
	cbz	w0, .L634
	ldr	w0, [x1, 8]
	add	w0, w0, 1
	str	w0, [x1, 8]
.L633:
	ldr	q0, [x25]
	umov	x1, v0.d[1]
	str	q0, [x19, 72]
	cbz	x1, .L635
	adrp	x0, :got:__libc_single_threaded
	ldr	x0, [x0, #:got_lo12:__libc_single_threaded]
	ldrb	w0, [x0]
	cbz	w0, .L636
	ldr	w0, [x1, 8]
	add	w0, w0, 1
	str	w0, [x1, 8]
.L635:
	ldr	q0, [x24]
	umov	x1, v0.d[1]
	str	q0, [x19, 88]
	cbz	x1, .L637
	adrp	x0, :got:__libc_single_threaded
	ldr	x0, [x0, #:got_lo12:__libc_single_threaded]
	ldrb	w0, [x0]
	cbz	w0, .L638
	ldr	w0, [x1, 8]
	add	w0, w0, 1
	str	w0, [x1, 8]
.L637:
	add	x21, x19, 104
	add	x1, x20, 56
	mov	x0, x21
.LEHB4:
	bl	_ZN8opendnp311EventBufferC1ERKNS_17EventBufferConfigE
.LEHE4:
	ldrb	w3, [x20]
	mov	x1, x23
	ldrh	w4, [x20, 50]
	mov	x2, x21
	add	x0, x19, 360
.LEHB5:
	bl	_ZN8opendnp38DatabaseC1ERKNS_13DatabaseSizesERNS_14IEventReceiverENS_9IndexModeENS_18StaticTypeBitFieldE
.LEHE5:
	add	x2, x19, 120
	add	x1, x19, 392
	add	x0, x19, 640
.LEHB6:
	bl	_ZN8opendnp315ResponseContextC1ERNS_15IResponseLoaderES2_
	ldp	q1, q2, [x20]
	add	x2, x19, 664
	ldr	q0, [x20, 32]
	add	x0, x19, 722
	ldr	x3, [x20, 48]
	stp	q1, q2, [x2]
	mov	w1, 7
	str	q0, [x2, 32]
	str	x3, [x2, 48]
	str	wzr, [x19, 720]
	bl	_ZN8opendnp38IINField6SetBitENS_6IINBitE
	ldr	x1, [x22]
	add	x22, x19, 728
	mov	x0, x22
	bl	_ZN7openpal8TimerRefC1ERNS_9IExecutorE
.LEHE6:
	add	x0, x19, 744
.LEHB7:
	bl	_ZN8opendnp314RequestHistoryC1Ev
	ldr	w1, [x20, 44]
	add	x0, x19, 760
	bl	_ZN8opendnp315DeferredRequestC1Ej
.LEHE7:
	strb	wzr, [x19, 808]
	add	x0, x19, 816
.LEHB8:
	bl	_ZN7openpal18MonotonicTimestampC1Ev
	add	x1, x19, 808
	ldr	w24, [x20, 40]
	add	x0, x19, 840
	strh	wzr, [x1, 16]
	str	wzr, [x1, 20]
	strh	wzr, [x19, 832]
	bl	_ZN7openpal6RSliceC1Ev
	add	x0, x19, 856
	bl	_ZN8opendnp315AppControlFieldC1Ev
	add	x23, x19, 864
	mov	w1, w24
	mov	x0, x23
	bl	_ZN7openpal6BufferC1Ej
.LEHE8:
	ldr	w20, [x20, 40]
	add	x0, x19, 896
	strh	wzr, [x19, 888]
	strb	wzr, [x19, 890]
.LEHB9:
	bl	_ZN7openpal6RSliceC1Ev
	add	x0, x19, 912
	bl	_ZN8opendnp315AppControlFieldC1Ev
	mov	w1, w20
	add	x0, x19, 920
	bl	_ZN7openpal6BufferC1Ej
.LEHE9:
	adrp	x0, :got:_ZN8opendnp39StateIdle8instanceE
	ldp	x21, x22, [sp, 32]
	ldr	x0, [x0, #:got_lo12:_ZN8opendnp39StateIdle8instanceE]
	ldp	x23, x24, [sp, 48]
	ldp	x25, x26, [sp, 64]
	str	x0, [x19, 944]
	ldp	x19, x20, [sp, 16]
	ldp	x29, x30, [sp], 80
	.cfi_remember_state
	.cfi_restore 30
	.cfi_restore 29
	.cfi_restore 25
	.cfi_restore 26
	.cfi_restore 23
	.cfi_restore 24
	.cfi_restore 21
	.cfi_restore 22
	.cfi_restore 19
	.cfi_restore 20
	.cfi_def_cfa_offset 0
	ret
	.p2align 2,,3
.L636:
	.cfi_restore_state
	add	x1, x1, 8
	mov	w0, 1
	bl	__aarch64_ldadd4_acq_rel
	b	.L635
	.p2align 2,,3
.L634:
	add	x1, x1, 8
	mov	w0, 1
	bl	__aarch64_ldadd4_acq_rel
	b	.L633
	.p2align 2,,3
.L632:
	add	x1, x1, 8
	mov	w0, 1
	bl	__aarch64_ldadd4_acq_rel
	b	.L631
	.p2align 2,,3
.L630:
	add	x1, x1, 8
	mov	w0, 1
	bl	__aarch64_ldadd4_acq_rel
	b	.L629
	.p2align 2,,3
.L628:
	add	x1, x0, 8
	mov	w0, 1
	bl	__aarch64_ldadd4_acq_rel
	b	.L627
	.p2align 2,,3
.L638:
	add	x1, x1, 8
	mov	w0, 1
	bl	__aarch64_ldadd4_acq_rel
	b	.L637
.L664:
	mov	x20, x0
	adrp	x24, :got:_ZTVN7openpal5ArrayIhjEE
.L641:
	ldr	x1, [x24, #:got_lo12:_ZTVN7openpal5ArrayIhjEE]
	ldr	x0, [x19, 800]
	add	x1, x1, 16
	str	x1, [x19, 784]
	cbnz	x0, .L731
.L643:
	mov	x0, x22
	bl	_ZN7openpal8TimerRefD1Ev
.L644:
	adrp	x0, :got:_ZTVN8opendnp315DatabaseBuffersE
	adrp	x3, :got:_ZTVN8opendnp38DatabaseE
	adrp	x1, :got:_ZTVN7openpal5ArrayIN8opendnp34CellINS1_19TimeAndIntervalSpecEEEtEE
	add	x4, x19, 384
	ldr	x0, [x0, #:got_lo12:_ZTVN8opendnp315DatabaseBuffersE]
	ldr	x3, [x3, #:got_lo12:_ZTVN8opendnp38DatabaseE]
	add	x5, x0, 88
	ldr	x2, [x1, #:got_lo12:_ZTVN7openpal5ArrayIN8opendnp34CellINS1_19TimeAndIntervalSpecEEEtEE]
	add	x1, x0, 16
	add	x3, x3, 16
	str	x3, [x19, 360]
	str	x1, [x19, 384]
	add	x1, x0, 120
	ldr	x0, [x19, 592]
	stp	x5, x1, [x4, 8]
	add	x1, x2, 16
	str	x1, [x19, 576]
	cbz	x0, .L645
	bl	_ZdaPv
.L645:
	adrp	x1, :got:_ZTVN7openpal5ArrayIN8opendnp34CellINS1_22AnalogOutputStatusSpecEEEtEE
	ldr	x0, [x19, 568]
	ldr	x1, [x1, #:got_lo12:_ZTVN7openpal5ArrayIN8opendnp34CellINS1_22AnalogOutputStatusSpecEEEtEE]
	add	x1, x1, 16
	str	x1, [x19, 552]
	cbz	x0, .L646
	bl	_ZdaPv
.L646:
	adrp	x1, :got:_ZTVN7openpal5ArrayIN8opendnp34CellINS1_22BinaryOutputStatusSpecEEEtEE
	ldr	x0, [x19, 544]
	ldr	x1, [x1, #:got_lo12:_ZTVN7openpal5ArrayIN8opendnp34CellINS1_22BinaryOutputStatusSpecEEEtEE]
	add	x1, x1, 16
	str	x1, [x19, 528]
	cbz	x0, .L647
	bl	_ZdaPv
.L647:
	adrp	x1, :got:_ZTVN7openpal5ArrayIN8opendnp34CellINS1_17FrozenCounterSpecEEEtEE
	ldr	x0, [x19, 520]
	ldr	x1, [x1, #:got_lo12:_ZTVN7openpal5ArrayIN8opendnp34CellINS1_17FrozenCounterSpecEEEtEE]
	add	x1, x1, 16
	str	x1, [x19, 504]
	cbz	x0, .L648
	bl	_ZdaPv
.L648:
	adrp	x1, :got:_ZTVN7openpal5ArrayIN8opendnp34CellINS1_11CounterSpecEEEtEE
	ldr	x0, [x19, 496]
	ldr	x1, [x1, #:got_lo12:_ZTVN7openpal5ArrayIN8opendnp34CellINS1_11CounterSpecEEEtEE]
	add	x1, x1, 16
	str	x1, [x19, 480]
	cbz	x0, .L649
	bl	_ZdaPv
.L649:
	adrp	x1, :got:_ZTVN7openpal5ArrayIN8opendnp34CellINS1_10AnalogSpecEEEtEE
	ldr	x0, [x19, 472]
	ldr	x1, [x1, #:got_lo12:_ZTVN7openpal5ArrayIN8opendnp34CellINS1_10AnalogSpecEEEtEE]
	add	x1, x1, 16
	str	x1, [x19, 456]
	cbz	x0, .L650
	bl	_ZdaPv
.L650:
	adrp	x1, :got:_ZTVN7openpal5ArrayIN8opendnp34CellINS1_19DoubleBitBinarySpecEEEtEE
	ldr	x0, [x19, 448]
	ldr	x1, [x1, #:got_lo12:_ZTVN7openpal5ArrayIN8opendnp34CellINS1_19DoubleBitBinarySpecEEEtEE]
	add	x1, x1, 16
	str	x1, [x19, 432]
	cbz	x0, .L651
	bl	_ZdaPv
.L651:
	adrp	x1, :got:_ZTVN7openpal5ArrayIN8opendnp34CellINS1_10BinarySpecEEEtEE
	ldr	x0, [x19, 424]
	ldr	x1, [x1, #:got_lo12:_ZTVN7openpal5ArrayIN8opendnp34CellINS1_10BinarySpecEEEtEE]
	add	x1, x1, 16
	str	x1, [x19, 408]
	cbz	x0, .L653
	bl	_ZdaPv
.L653:
	adrp	x1, :got:_ZTVN8opendnp311EventBufferE
	adrp	x2, :got:_ZTVN7openpal5ArrayINS_8ListNodeIN8opendnp39SOERecordEEEjEE
	ldr	x0, [x19, 208]
	ldr	x1, [x1, #:got_lo12:_ZTVN8opendnp311EventBufferE]
	ldr	x2, [x2, #:got_lo12:_ZTVN7openpal5ArrayINS_8ListNodeIN8opendnp39SOERecordEEEjEE]
	add	x3, x1, 16
	str	x3, [x19, 104]
	add	x4, x1, 160
	add	x3, x1, 192
	add	x1, x1, 224
	stp	x4, x3, [x21, 8]
	add	x2, x2, 16
	str	x1, [x21, 24]
	str	x2, [x19, 192]
	cbz	x0, .L655
	bl	_ZdaPv
.L655:
	ldr	x0, [x19, 96]
	cbz	x0, .L656
	bl	_ZNSt16_Sp_counted_baseILN9__gnu_cxx12_Lock_policyE2EE10_M_releaseEv
.L656:
	ldr	x0, [x19, 80]
	cbz	x0, .L657
	bl	_ZNSt16_Sp_counted_baseILN9__gnu_cxx12_Lock_policyE2EE10_M_releaseEv
.L657:
	ldr	x0, [x19, 64]
	cbz	x0, .L658
	bl	_ZNSt16_Sp_counted_baseILN9__gnu_cxx12_Lock_policyE2EE10_M_releaseEv
.L658:
	ldr	x0, [x19, 48]
	cbz	x0, .L659
	bl	_ZNSt16_Sp_counted_baseILN9__gnu_cxx12_Lock_policyE2EE10_M_releaseEv
.L659:
	add	x0, x19, 8
	bl	_ZN7openpal6LoggerD1Ev
	mov	x0, x20
.LEHB10:
	bl	_Unwind_Resume
.LEHE10:
.L663:
	mov	x20, x0
	b	.L643
.L731:
	bl	_ZdaPv
	b	.L643
.L665:
	adrp	x24, :got:_ZTVN7openpal5ArrayIhjEE
	mov	x20, x0
	ldr	x0, [x23, 16]
	ldr	x1, [x24, #:got_lo12:_ZTVN7openpal5ArrayIhjEE]
	add	x1, x1, 16
	str	x1, [x19, 864]
	cbz	x0, .L641
	bl	_ZdaPv
	b	.L641
.L660:
	mov	x20, x0
	b	.L655
.L662:
	mov	x20, x0
	b	.L644
.L661:
	mov	x20, x0
	b	.L653
	.cfi_endproc
.LFE2967:
	.section	.gcc_except_table
.LLSDA2967:
	.byte	0xff
	.byte	0xff
	.byte	0x1
	.uleb128 .LLSDACSE2967-.LLSDACSB2967
.LLSDACSB2967:
	.uleb128 .LEHB4-.LFB2967
	.uleb128 .LEHE4-.LEHB4
	.uleb128 .L660-.LFB2967
	.uleb128 0
	.uleb128 .LEHB5-.LFB2967
	.uleb128 .LEHE5-.LEHB5
	.uleb128 .L661-.LFB2967
	.uleb128 0
	.uleb128 .LEHB6-.LFB2967
	.uleb128 .LEHE6-.LEHB6
	.uleb128 .L662-.LFB2967
	.uleb128 0
	.uleb128 .LEHB7-.LFB2967
	.uleb128 .LEHE7-.LEHB7
	.uleb128 .L663-.LFB2967
	.uleb128 0
	.uleb128 .LEHB8-.LFB2967
	.uleb128 .LEHE8-.LEHB8
	.uleb128 .L664-.LFB2967
	.uleb128 0
	.uleb128 .LEHB9-.LFB2967
	.uleb128 .LEHE9-.LEHB9
	.uleb128 .L665-.LFB2967
	.uleb128 0
	.uleb128 .LEHB10-.LFB2967
	.uleb128 .LEHE10-.LEHB10
	.uleb128 0
	.uleb128 0
.LLSDACSE2967:
	.text
	.size	_ZN8opendnp38OContextC2ERKNS_16OutstationConfigERKNS_13DatabaseSizesERKN7openpal6LoggerERKSt10shared_ptrINS7_9IExecutorEERKSB_INS_11ILowerLayerEERKSB_INS_15ICommandHandlerEERKSB_INS_22IOutstationApplicationEE, .-_ZN8opendnp38OContextC2ERKNS_16OutstationConfigERKNS_13DatabaseSizesERKN7openpal6LoggerERKSt10shared_ptrINS7_9IExecutorEERKSB_INS_11ILowerLayerEERKSB_INS_15ICommandHandlerEERKSB_INS_22IOutstationApplicationEE
	.global	_ZN8opendnp38OContextC1ERKNS_16OutstationConfigERKNS_13DatabaseSizesERKN7openpal6LoggerERKSt10shared_ptrINS7_9IExecutorEERKSB_INS_11ILowerLayerEERKSB_INS_15ICommandHandlerEERKSB_INS_22IOutstationApplicationEE
	.set	_ZN8opendnp38OContextC1ERKNS_16OutstationConfigERKNS_13DatabaseSizesERKN7openpal6LoggerERKSt10shared_ptrINS7_9IExecutorEERKSB_INS_11ILowerLayerEERKSB_INS_15ICommandHandlerEERKSB_INS_22IOutstationApplicationEE,_ZN8opendnp38OContextC2ERKNS_16OutstationConfigERKNS_13DatabaseSizesERKN7openpal6LoggerERKSt10shared_ptrINS7_9IExecutorEERKSB_INS_11ILowerLayerEERKSB_INS_15ICommandHandlerEERKSB_INS_22IOutstationApplicationEE
	.section	.text.startup,"ax",@progbits
	.align	2
	.p2align 4,,11
	.type	_GLOBAL__sub_I_OutstationContext.cpp, %function
_GLOBAL__sub_I_OutstationContext.cpp:
.LFB3972:
	.cfi_startproc
	stp	x29, x30, [sp, -16]!
	.cfi_def_cfa_offset 16
	.cfi_offset 29, -16
	.cfi_offset 30, -8
	mov	x0, 5000
	mov	x29, sp
	bl	_ZN7openpal12TimeDuration12MillisecondsEl
	adrp	x0, :got:_ZGVN7openpal7Bit16LEItE3MaxE
	ldr	x0, [x0, #:got_lo12:_ZGVN7openpal7Bit16LEItE3MaxE]
	ldr	x1, [x0]
	tbz	x1, 0, .L735
.L732:
	ldp	x29, x30, [sp], 16
	.cfi_remember_state
	.cfi_restore 30
	.cfi_restore 29
	.cfi_def_cfa_offset 0
	ret
.L735:
	.cfi_restore_state
	mov	x1, 1
	str	x1, [x0]
	bl	_ZN7openpal8MaxValueItEET_v
	adrp	x1, :got:_ZN7openpal7Bit16LEItE3MaxE
	ldr	x1, [x1, #:got_lo12:_ZN7openpal7Bit16LEItE3MaxE]
	strh	w0, [x1]
	b	.L732
	.cfi_endproc
.LFE3972:
	.size	_GLOBAL__sub_I_OutstationContext.cpp, .-_GLOBAL__sub_I_OutstationContext.cpp
	.section	.init_array,"aw"
	.align	3
	.xword	_GLOBAL__sub_I_OutstationContext.cpp
	.section	.rodata.str1.8
	.align	3
.LC6:
	.string	"Igonring command request due to oversized payload size of %u"
	.align	3
.LC7:
	.string	"/home/jaehyun/OpenPLC_v3/utils/dnp3_src/cpp/libs/src/opendnp3/outstation/OutstationContext.cpp(556)"
	.text
	.align	2
	.p2align 4,,11
	.global	_ZN8opendnp38OContext19HandleDirectOperateERKN7openpal6RSliceENS_11OperateTypeEPNS_12HeaderWriterE
	.type	_ZN8opendnp38OContext19HandleDirectOperateERKN7openpal6RSliceENS_11OperateTypeEPNS_12HeaderWriterE, %function
_ZN8opendnp38OContext19HandleDirectOperateERKN7openpal6RSliceENS_11OperateTypeEPNS_12HeaderWriterE:
.LFB3002:
	.cfi_startproc
	.cfi_personality 0x9b,DW.ref.__gxx_personality_v0
	.cfi_lsda 0x1b,.LLSDA3002
	stp	x29, x30, [sp, -272]!
	.cfi_def_cfa_offset 272
	.cfi_offset 29, -272
	.cfi_offset 30, -264
	adrp	x4, :got:__stack_chk_guard
	mov	x29, sp
	ldr	x4, [x4, #:got_lo12:__stack_chk_guard]
	stp	x19, x20, [sp, 16]
	.cfi_offset 19, -256
	.cfi_offset 20, -248
	mov	x19, x0
	stp	x21, x22, [sp, 32]
	mov	x20, x3
	.cfi_offset 21, -240
	.cfi_offset 22, -232
	mov	x21, x1
	str	x23, [sp, 48]
	.cfi_offset 23, -224
	and	w22, w2, 255
	ldr	x0, [x4]
	str	x0, [sp, 264]
	mov	x0, 0
	cbz	x3, .L737
	ldr	w23, [x1]
	mov	x0, x3
.LEHB11:
	bl	_ZNK8opendnp312HeaderWriter9RemainingEv
	cmp	w23, w0
	bhi	.L754
.L737:
	ldr	x1, [x19, 72]
	add	x23, sp, 64
	mov	w3, w22
	mov	x0, x23
	mov	w2, 0
	add	x22, sp, 88
	bl	_ZN8opendnp320CommandActionAdapterC1EPNS_15ICommandHandlerEbNS_11OperateTypeE
.LEHE11:
	ldrb	w1, [x19, 665]
	mov	x3, x20
	mov	x2, x23
	mov	x0, x22
.LEHB12:
	bl	_ZN8opendnp322CommandResponseHandlerC1EhPNS_14ICommandActionEPNS_12HeaderWriterE
	mov	x0, 1
	mov	x3, 0
	bfi	x3, x0, 0, 8
	mov	x1, 8192
	add	x2, x19, 8
	mov	x0, x21
	bfi	x3, x1, 32, 32
	mov	x1, x22
	bl	_ZN8opendnp310APDUParser5ParseERKN7openpal6RSliceERNS_12IAPDUHandlerEPNS1_6LoggerENS_14ParserSettingsE
	tst	w0, 255
	beq	.L755
	bl	_ZN8opendnp318IINFromParseResultENS_11ParseResultE
.L753:
	mov	w19, w0
	mov	x0, x23
	bl	_ZN8opendnp320CommandActionAdapterD1Ev
.L741:
	adrp	x1, :got:__stack_chk_guard
	ldr	x1, [x1, #:got_lo12:__stack_chk_guard]
	ldr	x0, [sp, 264]
	ldr	x2, [x1]
	subs	x0, x0, x2
	mov	x2, 0
	bne	.L756
	mov	w0, w19
	ldp	x19, x20, [sp, 16]
	ldp	x21, x22, [sp, 32]
	ldr	x23, [sp, 48]
	ldp	x29, x30, [sp], 272
	.cfi_remember_state
	.cfi_restore 30
	.cfi_restore 29
	.cfi_restore 23
	.cfi_restore 21
	.cfi_restore 22
	.cfi_restore 19
	.cfi_restore 20
	.cfi_def_cfa_offset 0
	ret
	.p2align 2,,3
.L755:
	.cfi_restore_state
	mov	x0, x22
	bl	_ZNK8opendnp312IAPDUHandler6ErrorsEv
.LEHE12:
	b	.L753
	.p2align 2,,3
.L754:
	add	x19, x19, 8
	add	x22, sp, 88
	mov	w20, 4
	mov	x0, x19
	mov	x1, x22
	str	w20, [sp, 88]
.LEHB13:
	bl	_ZNK7openpal6Logger9IsEnabledERKNS_10LogFiltersE
	tst	w0, 255
	bne	.L757
.L739:
	mov	x0, x22
	mov	w1, 10
	strh	wzr, [sp, 88]
	bl	_ZN8opendnp38IINField6SetBitENS_6IINBitE
	ldrh	w19, [sp, 88]
	b	.L741
	.p2align 2,,3
.L757:
	ldr	w5, [x21]
	adrp	x4, .LC6
	add	x4, x4, :lo12:.LC6
	add	x21, sp, 144
	mov	x3, 120
	mov	x0, x21
	mov	x1, x3
	mov	w2, 1
	bl	__snprintf_chk
	str	w20, [sp, 88]
	mov	x3, x21
	mov	x0, x19
	mov	x1, x22
	adrp	x2, .LC7
	add	x2, x2, :lo12:.LC7
	bl	_ZN7openpal6Logger3LogERKNS_10LogFiltersEPKcS5_
	b	.L739
.L756:
	bl	__stack_chk_fail
.L746:
	mov	x19, x0
	mov	x0, x23
	bl	_ZN8opendnp320CommandActionAdapterD1Ev
	mov	x0, x19
	bl	_Unwind_Resume
.LEHE13:
	.cfi_endproc
.LFE3002:
	.section	.gcc_except_table
.LLSDA3002:
	.byte	0xff
	.byte	0xff
	.byte	0x1
	.uleb128 .LLSDACSE3002-.LLSDACSB3002
.LLSDACSB3002:
	.uleb128 .LEHB11-.LFB3002
	.uleb128 .LEHE11-.LEHB11
	.uleb128 0
	.uleb128 0
	.uleb128 .LEHB12-.LFB3002
	.uleb128 .LEHE12-.LEHB12
	.uleb128 .L746-.LFB3002
	.uleb128 0
	.uleb128 .LEHB13-.LFB3002
	.uleb128 .LEHE13-.LEHB13
	.uleb128 0
	.uleb128 0
.LLSDACSE3002:
	.text
	.size	_ZN8opendnp38OContext19HandleDirectOperateERKN7openpal6RSliceENS_11OperateTypeEPNS_12HeaderWriterE, .-_ZN8opendnp38OContext19HandleDirectOperateERKN7openpal6RSliceENS_11OperateTypeEPNS_12HeaderWriterE
	.section	.rodata.str1.8
	.align	3
.LC8:
	.string	"Ignoring NR function code: %s"
	.align	3
.LC9:
	.string	"/home/jaehyun/OpenPLC_v3/utils/dnp3_src/cpp/libs/src/opendnp3/outstation/OutstationContext.cpp(490)"
	.text
	.align	2
	.p2align 4,,11
	.global	_ZN8opendnp38OContext19ProcessRequestNoAckERKNS_10APDUHeaderERKN7openpal6RSliceE
	.type	_ZN8opendnp38OContext19ProcessRequestNoAckERKNS_10APDUHeaderERKN7openpal6RSliceE, %function
_ZN8opendnp38OContext19ProcessRequestNoAckERKNS_10APDUHeaderERKN7openpal6RSliceE:
.LFB2998:
	.cfi_startproc
	stp	x29, x30, [sp, -192]!
	.cfi_def_cfa_offset 192
	.cfi_offset 29, -192
	.cfi_offset 30, -184
	adrp	x3, :got:__stack_chk_guard
	mov	x29, sp
	ldr	x3, [x3, #:got_lo12:__stack_chk_guard]
	stp	x19, x20, [sp, 16]
	.cfi_offset 19, -176
	.cfi_offset 20, -168
	mov	x20, x1
	ldrb	w1, [x1]
	ldr	x4, [x3]
	str	x4, [sp, 184]
	mov	x4, 0
	cmp	w1, 6
	beq	.L767
	add	x19, x0, 8
	stp	x21, x22, [sp, 32]
	.cfi_offset 22, -152
	.cfi_offset 21, -160
	add	x22, sp, 56
	mov	w21, 4
	mov	x0, x19
	mov	x1, x22
	str	w21, [sp, 56]
	bl	_ZNK7openpal6Logger9IsEnabledERKNS_10LogFiltersE
	tst	w0, 255
	bne	.L768
.L758:
	adrp	x0, :got:__stack_chk_guard
	ldr	x0, [x0, #:got_lo12:__stack_chk_guard]
	ldr	x2, [sp, 184]
	ldr	x1, [x0]
	subs	x2, x2, x1
	mov	x1, 0
	bne	.L769
	ldp	x19, x20, [sp, 16]
	ldp	x21, x22, [sp, 32]
	.cfi_remember_state
	.cfi_restore 22
	.cfi_restore 21
	ldp	x29, x30, [sp], 192
	.cfi_restore 30
	.cfi_restore 29
	.cfi_restore 19
	.cfi_restore 20
	.cfi_def_cfa_offset 0
	ret
	.p2align 2,,3
.L768:
	.cfi_restore_state
	ldrb	w0, [x20]
	add	x20, sp, 64
	bl	_ZN8opendnp320FunctionCodeToStringENS_12FunctionCodeE
	mov	x5, x0
	adrp	x4, .LC8
	add	x4, x4, :lo12:.LC8
	mov	x3, 120
	mov	x0, x20
	mov	x1, x3
	mov	w2, 1
	bl	__snprintf_chk
	str	w21, [sp, 56]
	mov	x3, x20
	mov	x1, x22
	mov	x0, x19
	adrp	x2, .LC9
	add	x2, x2, :lo12:.LC9
	bl	_ZN7openpal6Logger3LogERKNS_10LogFiltersEPKcS5_
	b	.L758
	.p2align 2,,3
.L767:
	.cfi_restore 21
	.cfi_restore 22
	adrp	x1, :got:__stack_chk_guard
	ldr	x1, [x1, #:got_lo12:__stack_chk_guard]
	ldr	x4, [sp, 184]
	ldr	x3, [x1]
	subs	x4, x4, x3
	mov	x3, 0
	bne	.L770
	ldp	x19, x20, [sp, 16]
	mov	x1, x2
	ldp	x29, x30, [sp], 192
	.cfi_restore 30
	.cfi_restore 29
	.cfi_restore 19
	.cfi_restore 20
	.cfi_def_cfa_offset 0
	mov	x3, 0
	mov	w2, 2
	b	_ZN8opendnp38OContext19HandleDirectOperateERKN7openpal6RSliceENS_11OperateTypeEPNS_12HeaderWriterE
.L769:
	.cfi_def_cfa_offset 192
	.cfi_offset 19, -176
	.cfi_offset 20, -168
	.cfi_offset 21, -160
	.cfi_offset 22, -152
	.cfi_offset 29, -192
	.cfi_offset 30, -184
	bl	__stack_chk_fail
.L770:
	.cfi_restore 21
	.cfi_restore 22
	stp	x21, x22, [sp, 32]
	.cfi_offset 22, -152
	.cfi_offset 21, -160
	bl	__stack_chk_fail
	.cfi_endproc
.LFE2998:
	.size	_ZN8opendnp38OContext19ProcessRequestNoAckERKNS_10APDUHeaderERKN7openpal6RSliceE, .-_ZN8opendnp38OContext19ProcessRequestNoAckERKNS_10APDUHeaderERKN7openpal6RSliceE
	.align	2
	.p2align 4,,11
	.global	_ZN8opendnp38OContext11ProcessAPDUERKN7openpal6RSliceERKNS_10APDUHeaderES4_
	.type	_ZN8opendnp38OContext11ProcessAPDUERKN7openpal6RSliceERKNS_10APDUHeaderES4_, %function
_ZN8opendnp38OContext11ProcessAPDUERKN7openpal6RSliceERKNS_10APDUHeaderES4_:
.LFB2975:
	.cfi_startproc
	stp	x29, x30, [sp, -48]!
	.cfi_def_cfa_offset 48
	.cfi_offset 29, -48
	.cfi_offset 30, -40
	mov	x29, sp
	stp	x19, x20, [sp, 16]
	.cfi_offset 19, -32
	.cfi_offset 20, -24
	mov	x20, x0
	ldrb	w0, [x2]
	mov	x19, x2
	str	x21, [sp, 32]
	.cfi_offset 21, -16
	mov	x21, x3
	bl	_ZN8opendnp39Functions15IsNoAckFuncCodeENS_12FunctionCodeE
	tst	w0, 255
	bne	.L776
	ldrb	w0, [x20, 721]
	cbnz	w0, .L777
	ldrb	w0, [x19]
	cbnz	w0, .L774
	mov	x1, x19
	mov	x0, x20
	ldp	x19, x20, [sp, 16]
	ldr	x21, [sp, 32]
	ldp	x29, x30, [sp], 48
	.cfi_remember_state
	.cfi_restore 30
	.cfi_restore 29
	.cfi_restore 21
	.cfi_restore 19
	.cfi_restore 20
	.cfi_def_cfa_offset 0
	b	_ZN8opendnp38OContext14ProcessConfirmERKNS_10APDUHeaderE
	.p2align 2,,3
.L777:
	.cfi_restore_state
	ldrb	w5, [x19]
	add	x0, x20, 760
	ldrb	w4, [x19, 1]
	ldrb	w1, [x19, 2]
	ldrb	w6, [x19, 5]
	orr	x4, x5, x4, lsl 8
	ldrb	w5, [x19, 3]
	orr	x1, x4, x1, lsl 16
	ldrb	w4, [x19, 4]
	ldp	x2, x3, [x21]
	orr	x5, x1, x5, lsl 24
	ldp	x19, x20, [sp, 16]
	orr	x4, x5, x4, lsl 32
	ldr	x21, [sp, 32]
	orr	x1, x4, x6, lsl 40
	ldp	x29, x30, [sp], 48
	.cfi_remember_state
	.cfi_restore 30
	.cfi_restore 29
	.cfi_restore 21
	.cfi_restore 19
	.cfi_restore 20
	.cfi_def_cfa_offset 0
	b	_ZN8opendnp315DeferredRequest3SetENS_10APDUHeaderEN7openpal6RSliceE
	.p2align 2,,3
.L776:
	.cfi_restore_state
	mov	x2, x21
	mov	x1, x19
	mov	x0, x20
	ldp	x19, x20, [sp, 16]
	ldr	x21, [sp, 32]
	ldp	x29, x30, [sp], 48
	.cfi_remember_state
	.cfi_restore 30
	.cfi_restore 29
	.cfi_restore 21
	.cfi_restore 19
	.cfi_restore 20
	.cfi_def_cfa_offset 0
	b	_ZN8opendnp38OContext19ProcessRequestNoAckERKNS_10APDUHeaderERKN7openpal6RSliceE
	.p2align 2,,3
.L774:
	.cfi_restore_state
	mov	x2, x21
	mov	x1, x19
	mov	x0, x20
	ldp	x19, x20, [sp, 16]
	ldr	x21, [sp, 32]
	ldp	x29, x30, [sp], 48
	.cfi_restore 30
	.cfi_restore 29
	.cfi_restore 21
	.cfi_restore 19
	.cfi_restore 20
	.cfi_def_cfa_offset 0
	b	_ZN8opendnp38OContext14ProcessRequestERKNS_10APDUHeaderERKN7openpal6RSliceE
	.cfi_endproc
.LFE2975:
	.size	_ZN8opendnp38OContext11ProcessAPDUERKN7openpal6RSliceERKNS_10APDUHeaderES4_, .-_ZN8opendnp38OContext11ProcessAPDUERKN7openpal6RSliceERKNS_10APDUHeaderES4_
	.section	.rodata.str1.8
	.align	3
.LC10:
	.string	"FIR: %i FIN: %i CON: %i UNS: %i SEQ: %i FUNC: %s"
	.align	3
.LC11:
	.string	"/home/jaehyun/OpenPLC_v3/utils/dnp3_src/cpp/libs/src/opendnp3/outstation/OutstationContext.cpp(437)"
	.align	3
.LC12:
	.string	"Ignoring fragment. Request must be FIR/FIN/!CON"
	.align	3
.LC13:
	.string	"/home/jaehyun/OpenPLC_v3/utils/dnp3_src/cpp/libs/src/opendnp3/outstation/OutstationContext.cpp(449)"
	.text
	.align	2
	.p2align 4,,11
	.global	_ZN8opendnp38OContext11ParseHeaderERKN7openpal6RSliceE
	.type	_ZN8opendnp38OContext11ParseHeaderERKN7openpal6RSliceE, %function
_ZN8opendnp38OContext11ParseHeaderERKN7openpal6RSliceE:
.LFB2993:
	.cfi_startproc
	sub	sp, sp, #304
	.cfi_def_cfa_offset 304
	adrp	x2, :got:__stack_chk_guard
	stp	x29, x30, [sp, 32]
	.cfi_offset 29, -272
	.cfi_offset 30, -264
	add	x29, sp, 32
	ldr	x2, [x2, #:got_lo12:__stack_chk_guard]
	stp	x19, x20, [sp, 48]
	.cfi_offset 19, -256
	.cfi_offset 20, -248
	add	x19, x0, 8
	stp	x21, x22, [sp, 64]
	mov	x20, x1
	.cfi_offset 21, -240
	.cfi_offset 22, -232
	add	x22, sp, 160
	stp	x23, x24, [sp, 80]
	mov	x21, x0
	.cfi_offset 23, -224
	.cfi_offset 24, -216
	mov	w23, 32768
	ldr	x1, [x2]
	str	x1, [sp, 296]
	mov	x1, 0
	mov	x0, x19
	mov	x1, x22
	str	w23, [sp, 160]
	bl	_ZNK7openpal6Logger9IsEnabledERKNS_10LogFiltersE
	tst	w0, 255
	bne	.L803
.L779:
	mov	w6, -1
	mov	w5, 0
	mov	w4, 0
	mov	w3, 0
	mov	w2, 1
	add	x0, sp, 153
	mov	w1, w2
	add	x23, sp, 152
	strb	w6, [sp, 152]
	bl	_ZN8opendnp315AppControlFieldC1Ebbbbh
	mov	x2, x19
	mov	x1, x23
	mov	x0, x20
	bl	_ZN8opendnp316APDUHeaderParser12ParseRequestERKN7openpal6RSliceERNS_10APDUHeaderEPNS1_6LoggerE
	tst	w0, 255
	bne	.L804
.L778:
	adrp	x0, :got:__stack_chk_guard
	ldr	x0, [x0, #:got_lo12:__stack_chk_guard]
	ldr	x2, [sp, 296]
	ldr	x1, [x0]
	subs	x2, x2, x1
	mov	x1, 0
	bne	.L805
	ldp	x29, x30, [sp, 32]
	ldp	x19, x20, [sp, 48]
	ldp	x21, x22, [sp, 64]
	ldp	x23, x24, [sp, 80]
	add	sp, sp, 304
	.cfi_remember_state
	.cfi_restore 29
	.cfi_restore 30
	.cfi_restore 23
	.cfi_restore 24
	.cfi_restore 21
	.cfi_restore 22
	.cfi_restore 19
	.cfi_restore 20
	.cfi_def_cfa_offset 0
	ret
	.p2align 2,,3
.L804:
	.cfi_restore_state
	mov	w24, 2048
	mov	x1, x22
	mov	x0, x19
	str	w24, [sp, 160]
	bl	_ZNK7openpal6Logger9IsEnabledERKNS_10LogFiltersE
	tst	w0, 255
	bne	.L806
.L782:
	ldrb	w0, [sp, 153]
	cbz	w0, .L783
	ldrb	w0, [sp, 154]
	cbz	w0, .L783
	ldrb	w0, [sp, 155]
	cbnz	w0, .L783
	mov	x0, x20
	mov	w1, 2
	bl	_ZNK7openpal6RSlice4SkipEj
	mov	x4, x0
	mov	x5, x1
	mov	x3, x22
	mov	x2, x23
	mov	x1, x20
	mov	x0, x21
	stp	x4, x5, [sp, 160]
	bl	_ZN8opendnp38OContext11ProcessAPDUERKN7openpal6RSliceERKNS_10APDUHeaderES4_
	b	.L778
	.p2align 2,,3
.L783:
	mov	w20, 4
	mov	x1, x22
	mov	x0, x19
	str	w20, [sp, 160]
	bl	_ZNK7openpal6Logger9IsEnabledERKNS_10LogFiltersE
	tst	w0, 255
	beq	.L778
	mov	x1, x22
	mov	x0, x19
	adrp	x3, .LC12
	adrp	x2, .LC13
	add	x3, x3, :lo12:.LC12
	add	x2, x2, :lo12:.LC13
	str	w20, [sp, 160]
	bl	_ZN7openpal6Logger3LogERKNS_10LogFiltersEPKcS5_
	b	.L778
	.p2align 2,,3
.L803:
	mov	w4, 18
	mov	x2, x20
	mov	w3, w4
	mov	x1, x22
	mov	x0, x19
	str	w23, [sp, 160]
	bl	_ZN7openpal6LogHexERNS_6LoggerERKNS_10LogFiltersERKNS_6RSliceEjj
	b	.L779
	.p2align 2,,3
.L806:
	ldrb	w6, [sp, 154]
	ldrb	w7, [sp, 155]
	ldrb	w0, [sp, 152]
	stp	x25, x26, [sp, 96]
	.cfi_offset 26, -200
	.cfi_offset 25, -208
	add	x25, sp, 176
	ldrb	w26, [sp, 157]
	stp	x27, x28, [sp, 112]
	.cfi_offset 28, -184
	.cfi_offset 27, -192
	ldrb	w28, [sp, 153]
	ldrb	w27, [sp, 156]
	stp	w7, w6, [sp, 136]
	bl	_ZN8opendnp320FunctionCodeToStringENS_12FunctionCodeE
	ldp	w7, w6, [sp, 136]
	mov	x1, x0
	mov	w5, w28
	adrp	x4, .LC10
	add	x4, x4, :lo12:.LC10
	str	w27, [sp]
	str	w26, [sp, 8]
	mov	x3, 120
	str	x1, [sp, 16]
	mov	x0, x25
	mov	x1, x3
	mov	w2, 1
	bl	__snprintf_chk
	str	w24, [sp, 160]
	mov	x3, x25
	mov	x1, x22
	mov	x0, x19
	adrp	x2, .LC11
	add	x2, x2, :lo12:.LC11
	bl	_ZN7openpal6Logger3LogERKNS_10LogFiltersEPKcS5_
	ldp	x25, x26, [sp, 96]
	.cfi_restore 26
	.cfi_restore 25
	ldp	x27, x28, [sp, 112]
	.cfi_restore 28
	.cfi_restore 27
	b	.L782
.L805:
	stp	x25, x26, [sp, 96]
	.cfi_offset 26, -200
	.cfi_offset 25, -208
	stp	x27, x28, [sp, 112]
	.cfi_offset 28, -184
	.cfi_offset 27, -192
	bl	__stack_chk_fail
	.cfi_endproc
.LFE2993:
	.size	_ZN8opendnp38OContext11ParseHeaderERKN7openpal6RSliceE, .-_ZN8opendnp38OContext11ParseHeaderERKN7openpal6RSliceE
	.section	.rodata.str1.8
	.align	3
.LC14:
	.string	"ignoring received data while offline"
	.align	3
.LC15:
	.string	"/home/jaehyun/OpenPLC_v3/utils/dnp3_src/cpp/libs/src/opendnp3/outstation/OutstationContext.cpp(132)"
	.text
	.align	2
	.p2align 4,,11
	.global	_ZN8opendnp38OContext9OnReceiveERKN7openpal6RSliceE
	.type	_ZN8opendnp38OContext9OnReceiveERKN7openpal6RSliceE, %function
_ZN8opendnp38OContext9OnReceiveERKN7openpal6RSliceE:
.LFB2972:
	.cfi_startproc
	stp	x29, x30, [sp, -64]!
	.cfi_def_cfa_offset 64
	.cfi_offset 29, -64
	.cfi_offset 30, -56
	adrp	x2, :got:__stack_chk_guard
	mov	x29, sp
	ldr	x2, [x2, #:got_lo12:__stack_chk_guard]
	stp	x19, x20, [sp, 16]
	.cfi_offset 19, -48
	.cfi_offset 20, -40
	ldrb	w20, [x0, 720]
	ldr	x3, [x2]
	str	x3, [sp, 56]
	mov	x3, 0
	mov	x19, x0
	cbz	w20, .L817
	bl	_ZN8opendnp38OContext11ParseHeaderERKN7openpal6RSliceE
	mov	x0, x19
	bl	_ZN8opendnp38OContext17CheckForTaskStartEv
.L809:
	adrp	x0, :got:__stack_chk_guard
	ldr	x0, [x0, #:got_lo12:__stack_chk_guard]
	ldr	x2, [sp, 56]
	ldr	x1, [x0]
	subs	x2, x2, x1
	mov	x1, 0
	bne	.L818
	mov	w0, w20
	ldp	x19, x20, [sp, 16]
	ldp	x29, x30, [sp], 64
	.cfi_remember_state
	.cfi_restore 30
	.cfi_restore 29
	.cfi_restore 19
	.cfi_restore 20
	.cfi_def_cfa_offset 0
	ret
	.p2align 2,,3
.L817:
	.cfi_restore_state
	add	x19, x0, 8
	stp	x21, x22, [sp, 32]
	.cfi_offset 22, -24
	.cfi_offset 21, -32
	add	x22, sp, 48
	mov	w21, 2
	mov	x0, x19
	mov	x1, x22
	str	w21, [sp, 48]
	bl	_ZNK7openpal6Logger9IsEnabledERKNS_10LogFiltersE
	tst	w0, 255
	bne	.L819
	ldp	x21, x22, [sp, 32]
	.cfi_restore 22
	.cfi_restore 21
	b	.L809
	.p2align 2,,3
.L819:
	.cfi_offset 21, -32
	.cfi_offset 22, -24
	mov	x1, x22
	mov	x0, x19
	adrp	x3, .LC14
	adrp	x2, .LC15
	add	x3, x3, :lo12:.LC14
	add	x2, x2, :lo12:.LC15
	str	w21, [sp, 48]
	bl	_ZN7openpal6Logger3LogERKNS_10LogFiltersEPKcS5_
	ldp	x21, x22, [sp, 32]
	.cfi_restore 22
	.cfi_restore 21
	b	.L809
.L818:
	stp	x21, x22, [sp, 32]
	.cfi_offset 22, -24
	.cfi_offset 21, -32
	bl	__stack_chk_fail
	.cfi_endproc
.LFE2972:
	.size	_ZN8opendnp38OContext9OnReceiveERKN7openpal6RSliceE, .-_ZN8opendnp38OContext9OnReceiveERKN7openpal6RSliceE
	.section	.rodata.str1.8
	.align	3
.LC16:
	.string	"Igonring command request due to oversized payload size of %i"
	.align	3
.LC17:
	.string	"/home/jaehyun/OpenPLC_v3/utils/dnp3_src/cpp/libs/src/opendnp3/outstation/OutstationContext.cpp(573)"
	.text
	.align	2
	.p2align 4,,11
	.global	_ZN8opendnp38OContext12HandleSelectERKN7openpal6RSliceERNS_12HeaderWriterE
	.type	_ZN8opendnp38OContext12HandleSelectERKN7openpal6RSliceERNS_12HeaderWriterE, %function
_ZN8opendnp38OContext12HandleSelectERKN7openpal6RSliceERNS_12HeaderWriterE:
.LFB3003:
	.cfi_startproc
	.cfi_personality 0x9b,DW.ref.__gxx_personality_v0
	.cfi_lsda 0x1b,.LLSDA3003
	stp	x29, x30, [sp, -272]!
	.cfi_def_cfa_offset 272
	.cfi_offset 29, -272
	.cfi_offset 30, -264
	adrp	x3, :got:__stack_chk_guard
	mov	x29, sp
	ldr	x3, [x3, #:got_lo12:__stack_chk_guard]
	stp	x19, x20, [sp, 16]
	.cfi_offset 19, -256
	.cfi_offset 20, -248
	mov	x20, x1
	stp	x21, x22, [sp, 32]
	mov	x19, x0
	.cfi_offset 21, -240
	.cfi_offset 22, -232
	ldr	w22, [x1]
	ldr	x1, [x3]
	str	x1, [sp, 264]
	mov	x1, 0
	mov	x21, x2
	mov	x0, x2
.LEHB14:
	bl	_ZNK8opendnp312HeaderWriter9RemainingEv
	cmp	w0, w22
	bcs	.L821
	add	x19, x19, 8
	add	x22, sp, 88
	mov	w21, 4
	mov	x0, x19
	mov	x1, x22
	str	w21, [sp, 88]
	bl	_ZNK7openpal6Logger9IsEnabledERKNS_10LogFiltersE
	tst	w0, 255
	bne	.L836
.L822:
	mov	x0, x22
	mov	w1, 10
	strh	wzr, [sp, 88]
	bl	_ZN8opendnp38IINField6SetBitENS_6IINBitE
	ldrh	w19, [sp, 88]
.L823:
	adrp	x1, :got:__stack_chk_guard
	ldr	x1, [x1, #:got_lo12:__stack_chk_guard]
	ldr	x0, [sp, 264]
	ldr	x2, [x1]
	subs	x0, x0, x2
	mov	x2, 0
	bne	.L837
	mov	w0, w19
	ldp	x19, x20, [sp, 16]
	ldp	x21, x22, [sp, 32]
	ldp	x29, x30, [sp], 272
	.cfi_remember_state
	.cfi_restore 30
	.cfi_restore 29
	.cfi_restore 21
	.cfi_restore 22
	.cfi_restore 19
	.cfi_restore 20
	.cfi_def_cfa_offset 0
	ret
	.p2align 2,,3
.L821:
	.cfi_restore_state
	ldr	x1, [x19, 72]
	str	x23, [sp, 48]
	.cfi_offset 23, -224
	add	x23, sp, 64
	mov	w3, 1
	mov	x0, x23
	mov	w2, w3
	bl	_ZN8opendnp320CommandActionAdapterC1EPNS_15ICommandHandlerEbNS_11OperateTypeE
.LEHE14:
	add	x22, sp, 88
	ldrb	w1, [x19, 665]
	mov	x3, x21
	mov	x2, x23
	mov	x0, x22
.LEHB15:
	bl	_ZN8opendnp322CommandResponseHandlerC1EhPNS_14ICommandActionEPNS_12HeaderWriterE
	mov	x0, 1
	mov	x3, 0
	bfi	x3, x0, 0, 8
	mov	x0, 8192
	add	x2, x19, 8
	mov	x1, x22
	bfi	x3, x0, 32, 32
	mov	x0, x20
	bl	_ZN8opendnp310APDUParser5ParseERKN7openpal6RSliceERNS_12IAPDUHandlerEPNS1_6LoggerENS_14ParserSettingsE
	tst	w0, 255
	bne	.L824
	ldp	w1, w0, [sp, 120]
	cmp	w1, w0
	bne	.L825
	ldr	x0, [x19, 40]
	ldr	x1, [x0]
	ldr	x1, [x1, 16]
	blr	x1
	add	x21, x19, 808
	mov	x1, x0
	mov	x0, x20
	str	x1, [x21, 8]
	ldrb	w1, [x19, 832]
	add	w1, w1, 1
	and	w1, w1, 15
	strb	w1, [x19, 808]
	bl	_ZN8opendnp33CRC7CalcCrcERKN7openpal6RSliceE
	ldr	w1, [x20]
	strh	w0, [x21, 16]
	str	w1, [x21, 20]
.L825:
	mov	x0, x22
	bl	_ZNK8opendnp312IAPDUHandler6ErrorsEv
.L835:
	mov	w19, w0
	mov	x0, x23
	bl	_ZN8opendnp320CommandActionAdapterD1Ev
	ldr	x23, [sp, 48]
	.cfi_remember_state
	.cfi_restore 23
	b	.L823
	.p2align 2,,3
.L824:
	.cfi_restore_state
	bl	_ZN8opendnp318IINFromParseResultENS_11ParseResultE
.LEHE15:
	b	.L835
	.p2align 2,,3
.L836:
	.cfi_restore 23
	ldr	w5, [x20]
	adrp	x4, .LC16
	add	x4, x4, :lo12:.LC16
	add	x20, sp, 144
	mov	x3, 120
	mov	x0, x20
	mov	x1, x3
	mov	w2, 1
	bl	__snprintf_chk
	str	w21, [sp, 88]
	mov	x3, x20
	mov	x0, x19
	mov	x1, x22
	adrp	x2, .LC17
	add	x2, x2, :lo12:.LC17
.LEHB16:
	bl	_ZN7openpal6Logger3LogERKNS_10LogFiltersEPKcS5_
	b	.L822
.L837:
	str	x23, [sp, 48]
	.cfi_offset 23, -224
	bl	__stack_chk_fail
.L829:
	mov	x19, x0
	mov	x0, x23
	bl	_ZN8opendnp320CommandActionAdapterD1Ev
	mov	x0, x19
	bl	_Unwind_Resume
.LEHE16:
	.cfi_endproc
.LFE3003:
	.section	.gcc_except_table
.LLSDA3003:
	.byte	0xff
	.byte	0xff
	.byte	0x1
	.uleb128 .LLSDACSE3003-.LLSDACSB3003
.LLSDACSB3003:
	.uleb128 .LEHB14-.LFB3003
	.uleb128 .LEHE14-.LEHB14
	.uleb128 0
	.uleb128 0
	.uleb128 .LEHB15-.LFB3003
	.uleb128 .LEHE15-.LEHB15
	.uleb128 .L829-.LFB3003
	.uleb128 0
	.uleb128 .LEHB16-.LFB3003
	.uleb128 .LEHE16-.LEHB16
	.uleb128 0
	.uleb128 0
.LLSDACSE3003:
	.text
	.size	_ZN8opendnp38OContext12HandleSelectERKN7openpal6RSliceERNS_12HeaderWriterE, .-_ZN8opendnp38OContext12HandleSelectERKN7openpal6RSliceERNS_12HeaderWriterE
	.section	.rodata.str1.8
	.align	3
.LC18:
	.string	"/home/jaehyun/OpenPLC_v3/utils/dnp3_src/cpp/libs/src/opendnp3/outstation/OutstationContext.cpp(603)"
	.text
	.align	2
	.p2align 4,,11
	.global	_ZN8opendnp38OContext13HandleOperateERKN7openpal6RSliceERNS_12HeaderWriterE
	.type	_ZN8opendnp38OContext13HandleOperateERKN7openpal6RSliceERNS_12HeaderWriterE, %function
_ZN8opendnp38OContext13HandleOperateERKN7openpal6RSliceERNS_12HeaderWriterE:
.LFB3004:
	.cfi_startproc
	.cfi_personality 0x9b,DW.ref.__gxx_personality_v0
	.cfi_lsda 0x1b,.LLSDA3004
	stp	x29, x30, [sp, -272]!
	.cfi_def_cfa_offset 272
	.cfi_offset 29, -272
	.cfi_offset 30, -264
	adrp	x3, :got:__stack_chk_guard
	mov	x29, sp
	ldr	x3, [x3, #:got_lo12:__stack_chk_guard]
	stp	x19, x20, [sp, 16]
	.cfi_offset 19, -256
	.cfi_offset 20, -248
	mov	x20, x1
	stp	x21, x22, [sp, 32]
	mov	x19, x0
	.cfi_offset 21, -240
	.cfi_offset 22, -232
	ldr	w22, [x1]
	ldr	x1, [x3]
	str	x1, [sp, 264]
	mov	x1, 0
	mov	x21, x2
	mov	x0, x2
.LEHB17:
	bl	_ZNK8opendnp312HeaderWriter9RemainingEv
	cmp	w0, w22
	bcc	.L860
	ldr	x0, [x19, 40]
	ldr	x1, [x0]
	ldr	x1, [x1, 16]
	blr	x1
	ldrb	w2, [x19, 832]
	ldrb	w1, [x19, 808]
	cmp	w2, w1
	bne	.L842
	ldr	x1, [x19, 816]
	cmp	x1, x0
	bgt	.L851
	ldr	x2, [x19, 672]
	sub	x0, x0, x1
	cmp	x0, x2
	bge	.L851
	ldr	w1, [x19, 828]
	ldr	w0, [x20]
	ldrh	w22, [x19, 824]
	cmp	w1, w0
	bne	.L842
	mov	x0, x20
	bl	_ZN8opendnp33CRC7CalcCrcERKN7openpal6RSliceE
	cmp	w22, w0, uxth
	beq	.L861
	.p2align 3,,7
.L842:
	mov	w3, 2
.L843:
	adrp	x0, :got:__stack_chk_guard
	ldr	x0, [x0, #:got_lo12:__stack_chk_guard]
	ldr	x2, [sp, 264]
	ldr	x1, [x0]
	subs	x2, x2, x1
	mov	x1, 0
	bne	.L859
	mov	x2, x21
	mov	x1, x20
	mov	x0, x19
	ldp	x19, x20, [sp, 16]
	ldp	x21, x22, [sp, 32]
	ldp	x29, x30, [sp], 272
	.cfi_remember_state
	.cfi_restore 30
	.cfi_restore 29
	.cfi_restore 21
	.cfi_restore 22
	.cfi_restore 19
	.cfi_restore 20
	.cfi_def_cfa_offset 0
	b	_ZN8opendnp38OContext25HandleCommandWithConstantERKN7openpal6RSliceERNS_12HeaderWriterENS_13CommandStatusE
	.p2align 2,,3
.L851:
	.cfi_restore_state
	mov	w3, 1
	b	.L843
	.p2align 2,,3
.L860:
	add	x19, x19, 8
	add	x22, sp, 88
	mov	w21, 4
	mov	x0, x19
	mov	x1, x22
	str	w21, [sp, 88]
	bl	_ZNK7openpal6Logger9IsEnabledERKNS_10LogFiltersE
	tst	w0, 255
	bne	.L862
.L840:
	mov	x0, x22
	mov	w1, 10
	strh	wzr, [sp, 88]
	bl	_ZN8opendnp38IINField6SetBitENS_6IINBitE
	ldrh	w19, [sp, 88]
.L841:
	adrp	x1, :got:__stack_chk_guard
	ldr	x1, [x1, #:got_lo12:__stack_chk_guard]
	ldr	x0, [sp, 264]
	ldr	x2, [x1]
	subs	x0, x0, x2
	mov	x2, 0
	bne	.L859
	mov	w0, w19
	ldp	x19, x20, [sp, 16]
	ldp	x21, x22, [sp, 32]
	ldp	x29, x30, [sp], 272
	.cfi_remember_state
	.cfi_restore 30
	.cfi_restore 29
	.cfi_restore 21
	.cfi_restore 22
	.cfi_restore 19
	.cfi_restore 20
	.cfi_def_cfa_offset 0
	ret
	.p2align 2,,3
.L861:
	.cfi_restore_state
	ldr	x1, [x19, 72]
	str	x23, [sp, 48]
	.cfi_offset 23, -224
	add	x23, sp, 64
	mov	w3, 0
	mov	x0, x23
	mov	w2, 0
	bl	_ZN8opendnp320CommandActionAdapterC1EPNS_15ICommandHandlerEbNS_11OperateTypeE
.LEHE17:
	add	x22, sp, 88
	ldrb	w1, [x19, 665]
	mov	x3, x21
	mov	x2, x23
	mov	x0, x22
.LEHB18:
	bl	_ZN8opendnp322CommandResponseHandlerC1EhPNS_14ICommandActionEPNS_12HeaderWriterE
	mov	x0, 1
	mov	x3, 0
	bfi	x3, x0, 0, 8
	mov	x1, 8192
	add	x2, x19, 8
	mov	x0, x20
	bfi	x3, x1, 32, 32
	mov	x1, x22
	bl	_ZN8opendnp310APDUParser5ParseERKN7openpal6RSliceERNS_12IAPDUHandlerEPNS1_6LoggerENS_14ParserSettingsE
	tst	w0, 255
	beq	.L863
	bl	_ZN8opendnp318IINFromParseResultENS_11ParseResultE
.LEHE18:
.L858:
	mov	w19, w0
	mov	x0, x23
	bl	_ZN8opendnp320CommandActionAdapterD1Ev
	ldr	x23, [sp, 48]
	.cfi_restore 23
	b	.L841
	.p2align 2,,3
.L862:
	ldr	w5, [x20]
	adrp	x4, .LC16
	add	x4, x4, :lo12:.LC16
	add	x20, sp, 144
	mov	x3, 120
	mov	x0, x20
	mov	x1, x3
	mov	w2, 1
	bl	__snprintf_chk
	str	w21, [sp, 88]
	mov	x3, x20
	mov	x0, x19
	mov	x1, x22
	adrp	x2, .LC18
	add	x2, x2, :lo12:.LC18
.LEHB19:
	bl	_ZN7openpal6Logger3LogERKNS_10LogFiltersEPKcS5_
.LEHE19:
	b	.L840
	.p2align 2,,3
.L863:
	.cfi_offset 23, -224
	mov	x0, x22
.LEHB20:
	bl	_ZNK8opendnp312IAPDUHandler6ErrorsEv
.LEHE20:
	b	.L858
.L859:
	.cfi_restore 23
	str	x23, [sp, 48]
	.cfi_offset 23, -224
	bl	__stack_chk_fail
.L852:
	mov	x19, x0
	mov	x0, x23
	bl	_ZN8opendnp320CommandActionAdapterD1Ev
	mov	x0, x19
.LEHB21:
	bl	_Unwind_Resume
.LEHE21:
	.cfi_endproc
.LFE3004:
	.section	.gcc_except_table
.LLSDA3004:
	.byte	0xff
	.byte	0xff
	.byte	0x1
	.uleb128 .LLSDACSE3004-.LLSDACSB3004
.LLSDACSB3004:
	.uleb128 .LEHB17-.LFB3004
	.uleb128 .LEHE17-.LEHB17
	.uleb128 0
	.uleb128 0
	.uleb128 .LEHB18-.LFB3004
	.uleb128 .LEHE18-.LEHB18
	.uleb128 .L852-.LFB3004
	.uleb128 0
	.uleb128 .LEHB19-.LFB3004
	.uleb128 .LEHE19-.LEHB19
	.uleb128 0
	.uleb128 0
	.uleb128 .LEHB20-.LFB3004
	.uleb128 .LEHE20-.LEHB20
	.uleb128 .L852-.LFB3004
	.uleb128 0
	.uleb128 .LEHB21-.LFB3004
	.uleb128 .LEHE21-.LEHB21
	.uleb128 0
	.uleb128 0
.LLSDACSE3004:
	.text
	.size	_ZN8opendnp38OContext13HandleOperateERKN7openpal6RSliceERNS_12HeaderWriterE, .-_ZN8opendnp38OContext13HandleOperateERKN7openpal6RSliceERNS_12HeaderWriterE
	.align	2
	.p2align 4,,11
	.global	_ZN8opendnp38OContext21HandleNonReadResponseERKNS_10APDUHeaderERKN7openpal6RSliceERNS_12HeaderWriterE
	.type	_ZN8opendnp38OContext21HandleNonReadResponseERKNS_10APDUHeaderERKN7openpal6RSliceERNS_12HeaderWriterE, %function
_ZN8opendnp38OContext21HandleNonReadResponseERKNS_10APDUHeaderERKN7openpal6RSliceERNS_12HeaderWriterE:
.LFB2999:
	.cfi_startproc
	stp	x29, x30, [sp, -48]!
	.cfi_def_cfa_offset 48
	.cfi_offset 29, -48
	.cfi_offset 30, -40
	adrp	x4, :got:__stack_chk_guard
	mov	x29, sp
	ldr	x5, [x4, #:got_lo12:__stack_chk_guard]
	ldrb	w4, [x1]
	mov	x1, x2
	ldr	x2, [x5]
	str	x2, [sp, 40]
	mov	x2, 0
	cmp	w4, 14
	beq	.L865
	mov	x2, x3
	bhi	.L866
	cmp	w4, 4
	beq	.L867
	bls	.L884
	cmp	w4, 5
	beq	.L872
	cmp	w4, 13
	bne	.L871
	mov	w2, 0
	bl	_ZN8opendnp38OContext13HandleRestartERKN7openpal6RSliceEbPNS_12HeaderWriterE
	strh	w0, [sp, 32]
	.p2align 3,,7
.L879:
	adrp	x1, :got:__stack_chk_guard
	ldrh	w0, [sp, 32]
	ldr	x1, [x1, #:got_lo12:__stack_chk_guard]
	ldr	x3, [sp, 40]
	ldr	x2, [x1]
	subs	x3, x3, x2
	mov	x2, 0
	bne	.L885
	ldp	x29, x30, [sp], 48
	.cfi_remember_state
	.cfi_restore 30
	.cfi_restore 29
	.cfi_def_cfa_offset 0
	ret
	.p2align 2,,3
.L884:
	.cfi_restore_state
	cmp	w4, 2
	beq	.L869
	cmp	w4, 3
	bne	.L871
	bl	_ZN8opendnp38OContext12HandleSelectERKN7openpal6RSliceERNS_12HeaderWriterE
	strh	w0, [sp, 32]
	b	.L879
	.p2align 2,,3
.L866:
	cmp	w4, 22
	beq	.L874
	bls	.L886
	cmp	w4, 23
	bne	.L871
	bl	_ZN8opendnp38OContext18HandleDelayMeasureERKN7openpal6RSliceERNS_12HeaderWriterE
	strh	w0, [sp, 32]
	b	.L879
	.p2align 2,,3
.L886:
	cmp	w4, 20
	beq	.L876
	cmp	w4, 21
	bne	.L871
	ldrb	w3, [x0, 712]
	cbz	w3, .L881
	bl	_ZN8opendnp38OContext24HandleDisableUnsolicitedERKN7openpal6RSliceERNS_12HeaderWriterE
	strh	w0, [sp, 32]
	b	.L879
	.p2align 2,,3
.L876:
	ldrb	w3, [x0, 712]
	cbnz	w3, .L887
.L881:
	add	x0, sp, 32
	mov	w1, 8
	strh	wzr, [sp, 32]
	bl	_ZN8opendnp38IINField6SetBitENS_6IINBitE
	b	.L879
	.p2align 2,,3
.L869:
	bl	_ZN8opendnp38OContext11HandleWriteERKN7openpal6RSliceE
	strh	w0, [sp, 32]
	b	.L879
	.p2align 2,,3
.L874:
	bl	_ZN8opendnp38OContext17HandleAssignClassERKN7openpal6RSliceE
	strh	w0, [sp, 32]
	b	.L879
	.p2align 2,,3
.L865:
	mov	w2, 1
	bl	_ZN8opendnp38OContext13HandleRestartERKN7openpal6RSliceEbPNS_12HeaderWriterE
	strh	w0, [sp, 32]
	b	.L879
	.p2align 2,,3
.L867:
	bl	_ZN8opendnp38OContext13HandleOperateERKN7openpal6RSliceERNS_12HeaderWriterE
	strh	w0, [sp, 32]
	b	.L879
	.p2align 2,,3
.L872:
	mov	w2, 1
	bl	_ZN8opendnp38OContext19HandleDirectOperateERKN7openpal6RSliceENS_11OperateTypeEPNS_12HeaderWriterE
	strh	w0, [sp, 32]
	b	.L879
	.p2align 2,,3
.L871:
	add	x0, sp, 24
	mov	w1, 8
	strh	wzr, [sp, 24]
	bl	_ZN8opendnp38IINField6SetBitENS_6IINBitE
	ldrh	w0, [sp, 24]
	strh	w0, [sp, 32]
	b	.L879
	.p2align 2,,3
.L887:
	bl	_ZN8opendnp38OContext23HandleEnableUnsolicitedERKN7openpal6RSliceERNS_12HeaderWriterE
	strh	w0, [sp, 32]
	b	.L879
.L885:
	bl	__stack_chk_fail
	.cfi_endproc
.LFE2999:
	.size	_ZN8opendnp38OContext21HandleNonReadResponseERKNS_10APDUHeaderERKN7openpal6RSliceERNS_12HeaderWriterE, .-_ZN8opendnp38OContext21HandleNonReadResponseERKNS_10APDUHeaderERKN7openpal6RSliceERNS_12HeaderWriterE
	.align	2
	.p2align 4,,11
	.global	_ZN8opendnp38OContext23RespondToNonReadRequestERKNS_10APDUHeaderERKN7openpal6RSliceE
	.type	_ZN8opendnp38OContext23RespondToNonReadRequestERKNS_10APDUHeaderERKN7openpal6RSliceE, %function
_ZN8opendnp38OContext23RespondToNonReadRequestERKNS_10APDUHeaderERKN7openpal6RSliceE:
.LFB2987:
	.cfi_startproc
	stp	x29, x30, [sp, -176]!
	.cfi_def_cfa_offset 176
	.cfi_offset 29, -176
	.cfi_offset 30, -168
	adrp	x3, :got:__stack_chk_guard
	mov	x29, sp
	ldr	x3, [x3, #:got_lo12:__stack_chk_guard]
	stp	x19, x20, [sp, 16]
	.cfi_offset 19, -160
	.cfi_offset 20, -152
	mov	x20, x0
	stp	x21, x22, [sp, 32]
	add	x0, x0, 744
	add	x19, sp, 128
	stp	x23, x24, [sp, 48]
	.cfi_offset 21, -144
	.cfi_offset 22, -136
	.cfi_offset 23, -128
	.cfi_offset 24, -120
	mov	x23, x1
	mov	x24, x2
	ldr	x4, [x3]
	str	x4, [sp, 168]
	mov	x4, 0
	add	x22, sp, 96
	add	x21, sp, 80
	bl	_ZN8opendnp314RequestHistory26RecordLastProcessedRequestERKNS_10APDUHeaderERKN7openpal6RSliceE
	add	x0, x20, 864
	bl	_ZN7openpal6Buffer9GetWSliceEv
	mov	x2, x0
	mov	x3, x1
	mov	x0, x19
	mov	x1, x22
	stp	x2, x3, [sp, 96]
	bl	_ZN8opendnp312APDUResponseC1ERKN7openpal6WSliceE
	mov	x8, x22
	mov	x0, x19
	bl	_ZN8opendnp311APDUWrapper9GetWriterEv
	mov	x0, x19
	mov	w1, -127
	bl	_ZN8opendnp311APDUWrapper11SetFunctionENS_12FunctionCodeE
	ldrb	w5, [x23, 5]
	mov	w4, 0
	mov	w2, 1
	mov	w3, 0
	mov	w1, w2
	mov	x0, x21
	bl	_ZN8opendnp315AppControlFieldC1Ebbbbh
	ldr	x1, [sp, 80]
	mov	x0, x19
	bl	_ZN8opendnp311APDUWrapper10SetControlENS_15AppControlFieldE
	mov	x3, x22
	mov	x2, x24
	mov	x1, x23
	mov	x0, x20
	bl	_ZN8opendnp38OContext21HandleNonReadResponseERKNS_10APDUHeaderERKN7openpal6RSliceERNS_12HeaderWriterE
	mov	w22, w0
	mov	x0, x20
	bl	_ZN8opendnp38OContext14GetResponseIINEv
	orr	w22, w22, w0
	mov	x1, x21
	mov	x0, x19
	strh	w22, [sp, 80]
	bl	_ZN8opendnp312APDUResponse6SetIINERKNS_8IINFieldE
	mov	x0, x19
	bl	_ZNK8opendnp311APDUWrapper10GetControlEv
	mov	x3, x0
	strb	w3, [sp, 72]
	mov	x0, x19
	ubfx	x4, x3, 8, 8
	ubfx	x2, x3, 16, 8
	lsr	w1, w3, 24
	ubfx	x3, x3, 32, 8
	strb	w4, [sp, 73]
	strb	w2, [sp, 74]
	strb	w1, [sp, 75]
	strb	w3, [sp, 76]
	bl	_ZNK8opendnp311APDUWrapper8ToRSliceEv
	mov	x4, x0
	mov	x5, x1
	mov	x2, x21
	mov	x0, x20
	add	x1, sp, 72
	stp	x4, x5, [sp, 80]
	bl	_ZN8opendnp38OContext15BeginResponseTxERKNS_15AppControlFieldERKN7openpal6RSliceE
	adrp	x0, :got:__stack_chk_guard
	ldr	x0, [x0, #:got_lo12:__stack_chk_guard]
	ldr	x2, [sp, 168]
	ldr	x1, [x0]
	subs	x2, x2, x1
	mov	x1, 0
	bne	.L891
	ldp	x19, x20, [sp, 16]
	ldp	x21, x22, [sp, 32]
	ldp	x23, x24, [sp, 48]
	ldp	x29, x30, [sp], 176
	.cfi_remember_state
	.cfi_restore 30
	.cfi_restore 29
	.cfi_restore 23
	.cfi_restore 24
	.cfi_restore 21
	.cfi_restore 22
	.cfi_restore 19
	.cfi_restore 20
	.cfi_def_cfa_offset 0
	ret
.L891:
	.cfi_restore_state
	bl	__stack_chk_fail
	.cfi_endproc
.LFE2987:
	.size	_ZN8opendnp38OContext23RespondToNonReadRequestERKNS_10APDUHeaderERKN7openpal6RSliceE, .-_ZN8opendnp38OContext23RespondToNonReadRequestERKNS_10APDUHeaderERKN7openpal6RSliceE
	.weak	_ZTSN7openpal7HasSizeItEE
	.section	.rodata._ZTSN7openpal7HasSizeItEE,"aG",@progbits,_ZTSN7openpal7HasSizeItEE,comdat
	.align	3
	.type	_ZTSN7openpal7HasSizeItEE, %object
	.size	_ZTSN7openpal7HasSizeItEE, 22
_ZTSN7openpal7HasSizeItEE:
	.string	"N7openpal7HasSizeItEE"
	.weak	_ZTIN7openpal7HasSizeItEE
	.section	.data.rel.ro._ZTIN7openpal7HasSizeItEE,"awG",@progbits,_ZTIN7openpal7HasSizeItEE,comdat
	.align	3
	.type	_ZTIN7openpal7HasSizeItEE, %object
	.size	_ZTIN7openpal7HasSizeItEE, 16
_ZTIN7openpal7HasSizeItEE:
	.xword	_ZTVN10__cxxabiv117__class_type_infoE+16
	.xword	_ZTSN7openpal7HasSizeItEE
	.weak	_ZTSN7openpal7HasSizeIjEE
	.section	.rodata._ZTSN7openpal7HasSizeIjEE,"aG",@progbits,_ZTSN7openpal7HasSizeIjEE,comdat
	.align	3
	.type	_ZTSN7openpal7HasSizeIjEE, %object
	.size	_ZTSN7openpal7HasSizeIjEE, 22
_ZTSN7openpal7HasSizeIjEE:
	.string	"N7openpal7HasSizeIjEE"
	.weak	_ZTIN7openpal7HasSizeIjEE
	.section	.data.rel.ro._ZTIN7openpal7HasSizeIjEE,"awG",@progbits,_ZTIN7openpal7HasSizeIjEE,comdat
	.align	3
	.type	_ZTIN7openpal7HasSizeIjEE, %object
	.size	_ZTIN7openpal7HasSizeIjEE, 16
_ZTIN7openpal7HasSizeIjEE:
	.xword	_ZTVN10__cxxabiv117__class_type_infoE+16
	.xword	_ZTSN7openpal7HasSizeIjEE
	.weak	_ZTSN7openpal5ArrayIN8opendnp34CellINS1_10BinarySpecEEEtEE
	.section	.rodata._ZTSN7openpal5ArrayIN8opendnp34CellINS1_10BinarySpecEEEtEE,"aG",@progbits,_ZTSN7openpal5ArrayIN8opendnp34CellINS1_10BinarySpecEEEtEE,comdat
	.align	3
	.type	_ZTSN7openpal5ArrayIN8opendnp34CellINS1_10BinarySpecEEEtEE, %object
	.size	_ZTSN7openpal5ArrayIN8opendnp34CellINS1_10BinarySpecEEEtEE, 55
_ZTSN7openpal5ArrayIN8opendnp34CellINS1_10BinarySpecEEEtEE:
	.string	"N7openpal5ArrayIN8opendnp34CellINS1_10BinarySpecEEEtEE"
	.weak	_ZTSN7openpal5ArrayIN8opendnp34CellINS1_19DoubleBitBinarySpecEEEtEE
	.section	.rodata._ZTSN7openpal5ArrayIN8opendnp34CellINS1_19DoubleBitBinarySpecEEEtEE,"aG",@progbits,_ZTSN7openpal5ArrayIN8opendnp34CellINS1_19DoubleBitBinarySpecEEEtEE,comdat
	.align	3
	.type	_ZTSN7openpal5ArrayIN8opendnp34CellINS1_19DoubleBitBinarySpecEEEtEE, %object
	.size	_ZTSN7openpal5ArrayIN8opendnp34CellINS1_19DoubleBitBinarySpecEEEtEE, 64
_ZTSN7openpal5ArrayIN8opendnp34CellINS1_19DoubleBitBinarySpecEEEtEE:
	.string	"N7openpal5ArrayIN8opendnp34CellINS1_19DoubleBitBinarySpecEEEtEE"
	.weak	_ZTSN7openpal5ArrayIN8opendnp34CellINS1_10AnalogSpecEEEtEE
	.section	.rodata._ZTSN7openpal5ArrayIN8opendnp34CellINS1_10AnalogSpecEEEtEE,"aG",@progbits,_ZTSN7openpal5ArrayIN8opendnp34CellINS1_10AnalogSpecEEEtEE,comdat
	.align	3
	.type	_ZTSN7openpal5ArrayIN8opendnp34CellINS1_10AnalogSpecEEEtEE, %object
	.size	_ZTSN7openpal5ArrayIN8opendnp34CellINS1_10AnalogSpecEEEtEE, 55
_ZTSN7openpal5ArrayIN8opendnp34CellINS1_10AnalogSpecEEEtEE:
	.string	"N7openpal5ArrayIN8opendnp34CellINS1_10AnalogSpecEEEtEE"
	.weak	_ZTSN7openpal5ArrayIN8opendnp34CellINS1_11CounterSpecEEEtEE
	.section	.rodata._ZTSN7openpal5ArrayIN8opendnp34CellINS1_11CounterSpecEEEtEE,"aG",@progbits,_ZTSN7openpal5ArrayIN8opendnp34CellINS1_11CounterSpecEEEtEE,comdat
	.align	3
	.type	_ZTSN7openpal5ArrayIN8opendnp34CellINS1_11CounterSpecEEEtEE, %object
	.size	_ZTSN7openpal5ArrayIN8opendnp34CellINS1_11CounterSpecEEEtEE, 56
_ZTSN7openpal5ArrayIN8opendnp34CellINS1_11CounterSpecEEEtEE:
	.string	"N7openpal5ArrayIN8opendnp34CellINS1_11CounterSpecEEEtEE"
	.weak	_ZTSN7openpal5ArrayIN8opendnp34CellINS1_17FrozenCounterSpecEEEtEE
	.section	.rodata._ZTSN7openpal5ArrayIN8opendnp34CellINS1_17FrozenCounterSpecEEEtEE,"aG",@progbits,_ZTSN7openpal5ArrayIN8opendnp34CellINS1_17FrozenCounterSpecEEEtEE,comdat
	.align	3
	.type	_ZTSN7openpal5ArrayIN8opendnp34CellINS1_17FrozenCounterSpecEEEtEE, %object
	.size	_ZTSN7openpal5ArrayIN8opendnp34CellINS1_17FrozenCounterSpecEEEtEE, 62
_ZTSN7openpal5ArrayIN8opendnp34CellINS1_17FrozenCounterSpecEEEtEE:
	.string	"N7openpal5ArrayIN8opendnp34CellINS1_17FrozenCounterSpecEEEtEE"
	.weak	_ZTSN7openpal5ArrayIN8opendnp34CellINS1_22BinaryOutputStatusSpecEEEtEE
	.section	.rodata._ZTSN7openpal5ArrayIN8opendnp34CellINS1_22BinaryOutputStatusSpecEEEtEE,"aG",@progbits,_ZTSN7openpal5ArrayIN8opendnp34CellINS1_22BinaryOutputStatusSpecEEEtEE,comdat
	.align	3
	.type	_ZTSN7openpal5ArrayIN8opendnp34CellINS1_22BinaryOutputStatusSpecEEEtEE, %object
	.size	_ZTSN7openpal5ArrayIN8opendnp34CellINS1_22BinaryOutputStatusSpecEEEtEE, 67
_ZTSN7openpal5ArrayIN8opendnp34CellINS1_22BinaryOutputStatusSpecEEEtEE:
	.string	"N7openpal5ArrayIN8opendnp34CellINS1_22BinaryOutputStatusSpecEEEtEE"
	.weak	_ZTSN7openpal5ArrayIN8opendnp34CellINS1_22AnalogOutputStatusSpecEEEtEE
	.section	.rodata._ZTSN7openpal5ArrayIN8opendnp34CellINS1_22AnalogOutputStatusSpecEEEtEE,"aG",@progbits,_ZTSN7openpal5ArrayIN8opendnp34CellINS1_22AnalogOutputStatusSpecEEEtEE,comdat
	.align	3
	.type	_ZTSN7openpal5ArrayIN8opendnp34CellINS1_22AnalogOutputStatusSpecEEEtEE, %object
	.size	_ZTSN7openpal5ArrayIN8opendnp34CellINS1_22AnalogOutputStatusSpecEEEtEE, 67
_ZTSN7openpal5ArrayIN8opendnp34CellINS1_22AnalogOutputStatusSpecEEEtEE:
	.string	"N7openpal5ArrayIN8opendnp34CellINS1_22AnalogOutputStatusSpecEEEtEE"
	.weak	_ZTSN7openpal5ArrayIN8opendnp34CellINS1_19TimeAndIntervalSpecEEEtEE
	.section	.rodata._ZTSN7openpal5ArrayIN8opendnp34CellINS1_19TimeAndIntervalSpecEEEtEE,"aG",@progbits,_ZTSN7openpal5ArrayIN8opendnp34CellINS1_19TimeAndIntervalSpecEEEtEE,comdat
	.align	3
	.type	_ZTSN7openpal5ArrayIN8opendnp34CellINS1_19TimeAndIntervalSpecEEEtEE, %object
	.size	_ZTSN7openpal5ArrayIN8opendnp34CellINS1_19TimeAndIntervalSpecEEEtEE, 64
_ZTSN7openpal5ArrayIN8opendnp34CellINS1_19TimeAndIntervalSpecEEEtEE:
	.string	"N7openpal5ArrayIN8opendnp34CellINS1_19TimeAndIntervalSpecEEEtEE"
	.weak	_ZTSN7openpal5ArrayINS_8ListNodeIN8opendnp39SOERecordEEEjEE
	.section	.rodata._ZTSN7openpal5ArrayINS_8ListNodeIN8opendnp39SOERecordEEEjEE,"aG",@progbits,_ZTSN7openpal5ArrayINS_8ListNodeIN8opendnp39SOERecordEEEjEE,comdat
	.align	3
	.type	_ZTSN7openpal5ArrayINS_8ListNodeIN8opendnp39SOERecordEEEjEE, %object
	.size	_ZTSN7openpal5ArrayINS_8ListNodeIN8opendnp39SOERecordEEEjEE, 56
_ZTSN7openpal5ArrayINS_8ListNodeIN8opendnp39SOERecordEEEjEE:
	.string	"N7openpal5ArrayINS_8ListNodeIN8opendnp39SOERecordEEEjEE"
	.weak	_ZGVN7openpal7Bit16LEItE3MaxE
	.section	.bss._ZGVN7openpal7Bit16LEItE3MaxE,"awG",@nobits,_ZGVN7openpal7Bit16LEItE3MaxE,comdat
	.align	3
	.type	_ZGVN7openpal7Bit16LEItE3MaxE, %gnu_unique_object
	.size	_ZGVN7openpal7Bit16LEItE3MaxE, 8
_ZGVN7openpal7Bit16LEItE3MaxE:
	.zero	8
	.weak	_ZN7openpal7Bit16LEItE3MaxE
	.section	.bss._ZN7openpal7Bit16LEItE3MaxE,"awG",@nobits,_ZN7openpal7Bit16LEItE3MaxE,comdat
	.align	1
	.type	_ZN7openpal7Bit16LEItE3MaxE, %gnu_unique_object
	.size	_ZN7openpal7Bit16LEItE3MaxE, 2
_ZN7openpal7Bit16LEItE3MaxE:
	.zero	2
	.weak	_ZTSN8opendnp37IUpDownE
	.section	.rodata._ZTSN8opendnp37IUpDownE,"aG",@progbits,_ZTSN8opendnp37IUpDownE,comdat
	.align	3
	.type	_ZTSN8opendnp37IUpDownE, %object
	.size	_ZTSN8opendnp37IUpDownE, 20
_ZTSN8opendnp37IUpDownE:
	.string	"N8opendnp37IUpDownE"
	.weak	_ZTIN8opendnp37IUpDownE
	.section	.data.rel.ro._ZTIN8opendnp37IUpDownE,"awG",@progbits,_ZTIN8opendnp37IUpDownE,comdat
	.align	3
	.type	_ZTIN8opendnp37IUpDownE, %object
	.size	_ZTIN8opendnp37IUpDownE, 16
_ZTIN8opendnp37IUpDownE:
	.xword	_ZTVN10__cxxabiv117__class_type_infoE+16
	.xword	_ZTSN8opendnp37IUpDownE
	.weak	_ZTSN8opendnp311IUpperLayerE
	.section	.rodata._ZTSN8opendnp311IUpperLayerE,"aG",@progbits,_ZTSN8opendnp311IUpperLayerE,comdat
	.align	3
	.type	_ZTSN8opendnp311IUpperLayerE, %object
	.size	_ZTSN8opendnp311IUpperLayerE, 25
_ZTSN8opendnp311IUpperLayerE:
	.string	"N8opendnp311IUpperLayerE"
	.weak	_ZTIN8opendnp311IUpperLayerE
	.section	.data.rel.ro._ZTIN8opendnp311IUpperLayerE,"awG",@progbits,_ZTIN8opendnp311IUpperLayerE,comdat
	.align	3
	.type	_ZTIN8opendnp311IUpperLayerE, %object
	.size	_ZTIN8opendnp311IUpperLayerE, 24
_ZTIN8opendnp311IUpperLayerE:
	.xword	_ZTVN10__cxxabiv120__si_class_type_infoE+16
	.xword	_ZTSN8opendnp311IUpperLayerE
	.xword	_ZTIN8opendnp37IUpDownE
	.weak	_ZTSN7openpal5ArrayIhjEE
	.section	.rodata._ZTSN7openpal5ArrayIhjEE,"aG",@progbits,_ZTSN7openpal5ArrayIhjEE,comdat
	.align	3
	.type	_ZTSN7openpal5ArrayIhjEE, %object
	.size	_ZTSN7openpal5ArrayIhjEE, 21
_ZTSN7openpal5ArrayIhjEE:
	.string	"N7openpal5ArrayIhjEE"
	.weak	_ZTIN7openpal5ArrayIhjEE
	.section	.data.rel.ro._ZTIN7openpal5ArrayIhjEE,"awG",@progbits,_ZTIN7openpal5ArrayIhjEE,comdat
	.align	3
	.type	_ZTIN7openpal5ArrayIhjEE, %object
	.size	_ZTIN7openpal5ArrayIhjEE, 40
_ZTIN7openpal5ArrayIhjEE:
	.xword	_ZTVN10__cxxabiv121__vmi_class_type_infoE+16
	.xword	_ZTSN7openpal5ArrayIhjEE
	.word	0
	.word	1
	.xword	_ZTIN7openpal7HasSizeIjEE
	.xword	2050
	.weak	_ZTIN7openpal5ArrayIN8opendnp34CellINS1_10BinarySpecEEEtEE
	.section	.data.rel.ro._ZTIN7openpal5ArrayIN8opendnp34CellINS1_10BinarySpecEEEtEE,"awG",@progbits,_ZTIN7openpal5ArrayIN8opendnp34CellINS1_10BinarySpecEEEtEE,comdat
	.align	3
	.type	_ZTIN7openpal5ArrayIN8opendnp34CellINS1_10BinarySpecEEEtEE, %object
	.size	_ZTIN7openpal5ArrayIN8opendnp34CellINS1_10BinarySpecEEEtEE, 40
_ZTIN7openpal5ArrayIN8opendnp34CellINS1_10BinarySpecEEEtEE:
	.xword	_ZTVN10__cxxabiv121__vmi_class_type_infoE+16
	.xword	_ZTSN7openpal5ArrayIN8opendnp34CellINS1_10BinarySpecEEEtEE
	.word	0
	.word	1
	.xword	_ZTIN7openpal7HasSizeItEE
	.xword	2050
	.weak	_ZTIN7openpal5ArrayIN8opendnp34CellINS1_19DoubleBitBinarySpecEEEtEE
	.section	.data.rel.ro._ZTIN7openpal5ArrayIN8opendnp34CellINS1_19DoubleBitBinarySpecEEEtEE,"awG",@progbits,_ZTIN7openpal5ArrayIN8opendnp34CellINS1_19DoubleBitBinarySpecEEEtEE,comdat
	.align	3
	.type	_ZTIN7openpal5ArrayIN8opendnp34CellINS1_19DoubleBitBinarySpecEEEtEE, %object
	.size	_ZTIN7openpal5ArrayIN8opendnp34CellINS1_19DoubleBitBinarySpecEEEtEE, 40
_ZTIN7openpal5ArrayIN8opendnp34CellINS1_19DoubleBitBinarySpecEEEtEE:
	.xword	_ZTVN10__cxxabiv121__vmi_class_type_infoE+16
	.xword	_ZTSN7openpal5ArrayIN8opendnp34CellINS1_19DoubleBitBinarySpecEEEtEE
	.word	0
	.word	1
	.xword	_ZTIN7openpal7HasSizeItEE
	.xword	2050
	.weak	_ZTIN7openpal5ArrayIN8opendnp34CellINS1_10AnalogSpecEEEtEE
	.section	.data.rel.ro._ZTIN7openpal5ArrayIN8opendnp34CellINS1_10AnalogSpecEEEtEE,"awG",@progbits,_ZTIN7openpal5ArrayIN8opendnp34CellINS1_10AnalogSpecEEEtEE,comdat
	.align	3
	.type	_ZTIN7openpal5ArrayIN8opendnp34CellINS1_10AnalogSpecEEEtEE, %object
	.size	_ZTIN7openpal5ArrayIN8opendnp34CellINS1_10AnalogSpecEEEtEE, 40
_ZTIN7openpal5ArrayIN8opendnp34CellINS1_10AnalogSpecEEEtEE:
	.xword	_ZTVN10__cxxabiv121__vmi_class_type_infoE+16
	.xword	_ZTSN7openpal5ArrayIN8opendnp34CellINS1_10AnalogSpecEEEtEE
	.word	0
	.word	1
	.xword	_ZTIN7openpal7HasSizeItEE
	.xword	2050
	.weak	_ZTIN7openpal5ArrayIN8opendnp34CellINS1_11CounterSpecEEEtEE
	.section	.data.rel.ro._ZTIN7openpal5ArrayIN8opendnp34CellINS1_11CounterSpecEEEtEE,"awG",@progbits,_ZTIN7openpal5ArrayIN8opendnp34CellINS1_11CounterSpecEEEtEE,comdat
	.align	3
	.type	_ZTIN7openpal5ArrayIN8opendnp34CellINS1_11CounterSpecEEEtEE, %object
	.size	_ZTIN7openpal5ArrayIN8opendnp34CellINS1_11CounterSpecEEEtEE, 40
_ZTIN7openpal5ArrayIN8opendnp34CellINS1_11CounterSpecEEEtEE:
	.xword	_ZTVN10__cxxabiv121__vmi_class_type_infoE+16
	.xword	_ZTSN7openpal5ArrayIN8opendnp34CellINS1_11CounterSpecEEEtEE
	.word	0
	.word	1
	.xword	_ZTIN7openpal7HasSizeItEE
	.xword	2050
	.weak	_ZTIN7openpal5ArrayIN8opendnp34CellINS1_17FrozenCounterSpecEEEtEE
	.section	.data.rel.ro._ZTIN7openpal5ArrayIN8opendnp34CellINS1_17FrozenCounterSpecEEEtEE,"awG",@progbits,_ZTIN7openpal5ArrayIN8opendnp34CellINS1_17FrozenCounterSpecEEEtEE,comdat
	.align	3
	.type	_ZTIN7openpal5ArrayIN8opendnp34CellINS1_17FrozenCounterSpecEEEtEE, %object
	.size	_ZTIN7openpal5ArrayIN8opendnp34CellINS1_17FrozenCounterSpecEEEtEE, 40
_ZTIN7openpal5ArrayIN8opendnp34CellINS1_17FrozenCounterSpecEEEtEE:
	.xword	_ZTVN10__cxxabiv121__vmi_class_type_infoE+16
	.xword	_ZTSN7openpal5ArrayIN8opendnp34CellINS1_17FrozenCounterSpecEEEtEE
	.word	0
	.word	1
	.xword	_ZTIN7openpal7HasSizeItEE
	.xword	2050
	.weak	_ZTIN7openpal5ArrayIN8opendnp34CellINS1_22BinaryOutputStatusSpecEEEtEE
	.section	.data.rel.ro._ZTIN7openpal5ArrayIN8opendnp34CellINS1_22BinaryOutputStatusSpecEEEtEE,"awG",@progbits,_ZTIN7openpal5ArrayIN8opendnp34CellINS1_22BinaryOutputStatusSpecEEEtEE,comdat
	.align	3
	.type	_ZTIN7openpal5ArrayIN8opendnp34CellINS1_22BinaryOutputStatusSpecEEEtEE, %object
	.size	_ZTIN7openpal5ArrayIN8opendnp34CellINS1_22BinaryOutputStatusSpecEEEtEE, 40
_ZTIN7openpal5ArrayIN8opendnp34CellINS1_22BinaryOutputStatusSpecEEEtEE:
	.xword	_ZTVN10__cxxabiv121__vmi_class_type_infoE+16
	.xword	_ZTSN7openpal5ArrayIN8opendnp34CellINS1_22BinaryOutputStatusSpecEEEtEE
	.word	0
	.word	1
	.xword	_ZTIN7openpal7HasSizeItEE
	.xword	2050
	.weak	_ZTIN7openpal5ArrayIN8opendnp34CellINS1_22AnalogOutputStatusSpecEEEtEE
	.section	.data.rel.ro._ZTIN7openpal5ArrayIN8opendnp34CellINS1_22AnalogOutputStatusSpecEEEtEE,"awG",@progbits,_ZTIN7openpal5ArrayIN8opendnp34CellINS1_22AnalogOutputStatusSpecEEEtEE,comdat
	.align	3
	.type	_ZTIN7openpal5ArrayIN8opendnp34CellINS1_22AnalogOutputStatusSpecEEEtEE, %object
	.size	_ZTIN7openpal5ArrayIN8opendnp34CellINS1_22AnalogOutputStatusSpecEEEtEE, 40
_ZTIN7openpal5ArrayIN8opendnp34CellINS1_22AnalogOutputStatusSpecEEEtEE:
	.xword	_ZTVN10__cxxabiv121__vmi_class_type_infoE+16
	.xword	_ZTSN7openpal5ArrayIN8opendnp34CellINS1_22AnalogOutputStatusSpecEEEtEE
	.word	0
	.word	1
	.xword	_ZTIN7openpal7HasSizeItEE
	.xword	2050
	.weak	_ZTIN7openpal5ArrayIN8opendnp34CellINS1_19TimeAndIntervalSpecEEEtEE
	.section	.data.rel.ro._ZTIN7openpal5ArrayIN8opendnp34CellINS1_19TimeAndIntervalSpecEEEtEE,"awG",@progbits,_ZTIN7openpal5ArrayIN8opendnp34CellINS1_19TimeAndIntervalSpecEEEtEE,comdat
	.align	3
	.type	_ZTIN7openpal5ArrayIN8opendnp34CellINS1_19TimeAndIntervalSpecEEEtEE, %object
	.size	_ZTIN7openpal5ArrayIN8opendnp34CellINS1_19TimeAndIntervalSpecEEEtEE, 40
_ZTIN7openpal5ArrayIN8opendnp34CellINS1_19TimeAndIntervalSpecEEEtEE:
	.xword	_ZTVN10__cxxabiv121__vmi_class_type_infoE+16
	.xword	_ZTSN7openpal5ArrayIN8opendnp34CellINS1_19TimeAndIntervalSpecEEEtEE
	.word	0
	.word	1
	.xword	_ZTIN7openpal7HasSizeItEE
	.xword	2050
	.weak	_ZTIN7openpal5ArrayINS_8ListNodeIN8opendnp39SOERecordEEEjEE
	.section	.data.rel.ro._ZTIN7openpal5ArrayINS_8ListNodeIN8opendnp39SOERecordEEEjEE,"awG",@progbits,_ZTIN7openpal5ArrayINS_8ListNodeIN8opendnp39SOERecordEEEjEE,comdat
	.align	3
	.type	_ZTIN7openpal5ArrayINS_8ListNodeIN8opendnp39SOERecordEEEjEE, %object
	.size	_ZTIN7openpal5ArrayINS_8ListNodeIN8opendnp39SOERecordEEEjEE, 40
_ZTIN7openpal5ArrayINS_8ListNodeIN8opendnp39SOERecordEEEjEE:
	.xword	_ZTVN10__cxxabiv121__vmi_class_type_infoE+16
	.xword	_ZTSN7openpal5ArrayINS_8ListNodeIN8opendnp39SOERecordEEEjEE
	.word	0
	.word	1
	.xword	_ZTIN7openpal7HasSizeIjEE
	.xword	2050
	.weak	_ZTSN8opendnp38OContextE
	.section	.rodata._ZTSN8opendnp38OContextE,"aG",@progbits,_ZTSN8opendnp38OContextE,comdat
	.align	3
	.type	_ZTSN8opendnp38OContextE, %object
	.size	_ZTSN8opendnp38OContextE, 21
_ZTSN8opendnp38OContextE:
	.string	"N8opendnp38OContextE"
	.weak	_ZTIN8opendnp38OContextE
	.section	.data.rel.ro._ZTIN8opendnp38OContextE,"awG",@progbits,_ZTIN8opendnp38OContextE,comdat
	.align	3
	.type	_ZTIN8opendnp38OContextE, %object
	.size	_ZTIN8opendnp38OContextE, 24
_ZTIN8opendnp38OContextE:
	.xword	_ZTVN10__cxxabiv120__si_class_type_infoE+16
	.xword	_ZTSN8opendnp38OContextE
	.xword	_ZTIN8opendnp311IUpperLayerE
	.weak	_ZTSN8opendnp314ICommandActionE
	.section	.rodata._ZTSN8opendnp314ICommandActionE,"aG",@progbits,_ZTSN8opendnp314ICommandActionE,comdat
	.align	3
	.type	_ZTSN8opendnp314ICommandActionE, %object
	.size	_ZTSN8opendnp314ICommandActionE, 28
_ZTSN8opendnp314ICommandActionE:
	.string	"N8opendnp314ICommandActionE"
	.weak	_ZTIN8opendnp314ICommandActionE
	.section	.data.rel.ro._ZTIN8opendnp314ICommandActionE,"awG",@progbits,_ZTIN8opendnp314ICommandActionE,comdat
	.align	3
	.type	_ZTIN8opendnp314ICommandActionE, %object
	.size	_ZTIN8opendnp314ICommandActionE, 16
_ZTIN8opendnp314ICommandActionE:
	.xword	_ZTVN10__cxxabiv117__class_type_infoE+16
	.xword	_ZTSN8opendnp314ICommandActionE
	.weak	_ZTSN8opendnp321ConstantCommandActionE
	.section	.rodata._ZTSN8opendnp321ConstantCommandActionE,"aG",@progbits,_ZTSN8opendnp321ConstantCommandActionE,comdat
	.align	3
	.type	_ZTSN8opendnp321ConstantCommandActionE, %object
	.size	_ZTSN8opendnp321ConstantCommandActionE, 35
_ZTSN8opendnp321ConstantCommandActionE:
	.string	"N8opendnp321ConstantCommandActionE"
	.weak	_ZTIN8opendnp321ConstantCommandActionE
	.section	.data.rel.ro._ZTIN8opendnp321ConstantCommandActionE,"awG",@progbits,_ZTIN8opendnp321ConstantCommandActionE,comdat
	.align	3
	.type	_ZTIN8opendnp321ConstantCommandActionE, %object
	.size	_ZTIN8opendnp321ConstantCommandActionE, 24
_ZTIN8opendnp321ConstantCommandActionE:
	.xword	_ZTVN10__cxxabiv120__si_class_type_infoE+16
	.xword	_ZTSN8opendnp321ConstantCommandActionE
	.xword	_ZTIN8opendnp314ICommandActionE
	.weak	_ZTVN7openpal5ArrayIhjEE
	.section	.data.rel.ro._ZTVN7openpal5ArrayIhjEE,"awG",@progbits,_ZTVN7openpal5ArrayIhjEE,comdat
	.align	3
	.type	_ZTVN7openpal5ArrayIhjEE, %object
	.size	_ZTVN7openpal5ArrayIhjEE, 32
_ZTVN7openpal5ArrayIhjEE:
	.xword	0
	.xword	_ZTIN7openpal5ArrayIhjEE
	.xword	_ZN7openpal5ArrayIhjED1Ev
	.xword	_ZN7openpal5ArrayIhjED0Ev
	.weak	_ZTVN7openpal5ArrayIN8opendnp34CellINS1_10BinarySpecEEEtEE
	.section	.data.rel.ro._ZTVN7openpal5ArrayIN8opendnp34CellINS1_10BinarySpecEEEtEE,"awG",@progbits,_ZTVN7openpal5ArrayIN8opendnp34CellINS1_10BinarySpecEEEtEE,comdat
	.align	3
	.type	_ZTVN7openpal5ArrayIN8opendnp34CellINS1_10BinarySpecEEEtEE, %object
	.size	_ZTVN7openpal5ArrayIN8opendnp34CellINS1_10BinarySpecEEEtEE, 32
_ZTVN7openpal5ArrayIN8opendnp34CellINS1_10BinarySpecEEEtEE:
	.xword	0
	.xword	_ZTIN7openpal5ArrayIN8opendnp34CellINS1_10BinarySpecEEEtEE
	.xword	_ZN7openpal5ArrayIN8opendnp34CellINS1_10BinarySpecEEEtED1Ev
	.xword	_ZN7openpal5ArrayIN8opendnp34CellINS1_10BinarySpecEEEtED0Ev
	.weak	_ZTVN7openpal5ArrayIN8opendnp34CellINS1_19DoubleBitBinarySpecEEEtEE
	.section	.data.rel.ro._ZTVN7openpal5ArrayIN8opendnp34CellINS1_19DoubleBitBinarySpecEEEtEE,"awG",@progbits,_ZTVN7openpal5ArrayIN8opendnp34CellINS1_19DoubleBitBinarySpecEEEtEE,comdat
	.align	3
	.type	_ZTVN7openpal5ArrayIN8opendnp34CellINS1_19DoubleBitBinarySpecEEEtEE, %object
	.size	_ZTVN7openpal5ArrayIN8opendnp34CellINS1_19DoubleBitBinarySpecEEEtEE, 32
_ZTVN7openpal5ArrayIN8opendnp34CellINS1_19DoubleBitBinarySpecEEEtEE:
	.xword	0
	.xword	_ZTIN7openpal5ArrayIN8opendnp34CellINS1_19DoubleBitBinarySpecEEEtEE
	.xword	_ZN7openpal5ArrayIN8opendnp34CellINS1_19DoubleBitBinarySpecEEEtED1Ev
	.xword	_ZN7openpal5ArrayIN8opendnp34CellINS1_19DoubleBitBinarySpecEEEtED0Ev
	.weak	_ZTVN7openpal5ArrayIN8opendnp34CellINS1_10AnalogSpecEEEtEE
	.section	.data.rel.ro._ZTVN7openpal5ArrayIN8opendnp34CellINS1_10AnalogSpecEEEtEE,"awG",@progbits,_ZTVN7openpal5ArrayIN8opendnp34CellINS1_10AnalogSpecEEEtEE,comdat
	.align	3
	.type	_ZTVN7openpal5ArrayIN8opendnp34CellINS1_10AnalogSpecEEEtEE, %object
	.size	_ZTVN7openpal5ArrayIN8opendnp34CellINS1_10AnalogSpecEEEtEE, 32
_ZTVN7openpal5ArrayIN8opendnp34CellINS1_10AnalogSpecEEEtEE:
	.xword	0
	.xword	_ZTIN7openpal5ArrayIN8opendnp34CellINS1_10AnalogSpecEEEtEE
	.xword	_ZN7openpal5ArrayIN8opendnp34CellINS1_10AnalogSpecEEEtED1Ev
	.xword	_ZN7openpal5ArrayIN8opendnp34CellINS1_10AnalogSpecEEEtED0Ev
	.weak	_ZTVN7openpal5ArrayIN8opendnp34CellINS1_11CounterSpecEEEtEE
	.section	.data.rel.ro._ZTVN7openpal5ArrayIN8opendnp34CellINS1_11CounterSpecEEEtEE,"awG",@progbits,_ZTVN7openpal5ArrayIN8opendnp34CellINS1_11CounterSpecEEEtEE,comdat
	.align	3
	.type	_ZTVN7openpal5ArrayIN8opendnp34CellINS1_11CounterSpecEEEtEE, %object
	.size	_ZTVN7openpal5ArrayIN8opendnp34CellINS1_11CounterSpecEEEtEE, 32
_ZTVN7openpal5ArrayIN8opendnp34CellINS1_11CounterSpecEEEtEE:
	.xword	0
	.xword	_ZTIN7openpal5ArrayIN8opendnp34CellINS1_11CounterSpecEEEtEE
	.xword	_ZN7openpal5ArrayIN8opendnp34CellINS1_11CounterSpecEEEtED1Ev
	.xword	_ZN7openpal5ArrayIN8opendnp34CellINS1_11CounterSpecEEEtED0Ev
	.weak	_ZTVN7openpal5ArrayIN8opendnp34CellINS1_17FrozenCounterSpecEEEtEE
	.section	.data.rel.ro._ZTVN7openpal5ArrayIN8opendnp34CellINS1_17FrozenCounterSpecEEEtEE,"awG",@progbits,_ZTVN7openpal5ArrayIN8opendnp34CellINS1_17FrozenCounterSpecEEEtEE,comdat
	.align	3
	.type	_ZTVN7openpal5ArrayIN8opendnp34CellINS1_17FrozenCounterSpecEEEtEE, %object
	.size	_ZTVN7openpal5ArrayIN8opendnp34CellINS1_17FrozenCounterSpecEEEtEE, 32
_ZTVN7openpal5ArrayIN8opendnp34CellINS1_17FrozenCounterSpecEEEtEE:
	.xword	0
	.xword	_ZTIN7openpal5ArrayIN8opendnp34CellINS1_17FrozenCounterSpecEEEtEE
	.xword	_ZN7openpal5ArrayIN8opendnp34CellINS1_17FrozenCounterSpecEEEtED1Ev
	.xword	_ZN7openpal5ArrayIN8opendnp34CellINS1_17FrozenCounterSpecEEEtED0Ev
	.weak	_ZTVN7openpal5ArrayIN8opendnp34CellINS1_22BinaryOutputStatusSpecEEEtEE
	.section	.data.rel.ro._ZTVN7openpal5ArrayIN8opendnp34CellINS1_22BinaryOutputStatusSpecEEEtEE,"awG",@progbits,_ZTVN7openpal5ArrayIN8opendnp34CellINS1_22BinaryOutputStatusSpecEEEtEE,comdat
	.align	3
	.type	_ZTVN7openpal5ArrayIN8opendnp34CellINS1_22BinaryOutputStatusSpecEEEtEE, %object
	.size	_ZTVN7openpal5ArrayIN8opendnp34CellINS1_22BinaryOutputStatusSpecEEEtEE, 32
_ZTVN7openpal5ArrayIN8opendnp34CellINS1_22BinaryOutputStatusSpecEEEtEE:
	.xword	0
	.xword	_ZTIN7openpal5ArrayIN8opendnp34CellINS1_22BinaryOutputStatusSpecEEEtEE
	.xword	_ZN7openpal5ArrayIN8opendnp34CellINS1_22BinaryOutputStatusSpecEEEtED1Ev
	.xword	_ZN7openpal5ArrayIN8opendnp34CellINS1_22BinaryOutputStatusSpecEEEtED0Ev
	.weak	_ZTVN7openpal5ArrayIN8opendnp34CellINS1_22AnalogOutputStatusSpecEEEtEE
	.section	.data.rel.ro._ZTVN7openpal5ArrayIN8opendnp34CellINS1_22AnalogOutputStatusSpecEEEtEE,"awG",@progbits,_ZTVN7openpal5ArrayIN8opendnp34CellINS1_22AnalogOutputStatusSpecEEEtEE,comdat
	.align	3
	.type	_ZTVN7openpal5ArrayIN8opendnp34CellINS1_22AnalogOutputStatusSpecEEEtEE, %object
	.size	_ZTVN7openpal5ArrayIN8opendnp34CellINS1_22AnalogOutputStatusSpecEEEtEE, 32
_ZTVN7openpal5ArrayIN8opendnp34CellINS1_22AnalogOutputStatusSpecEEEtEE:
	.xword	0
	.xword	_ZTIN7openpal5ArrayIN8opendnp34CellINS1_22AnalogOutputStatusSpecEEEtEE
	.xword	_ZN7openpal5ArrayIN8opendnp34CellINS1_22AnalogOutputStatusSpecEEEtED1Ev
	.xword	_ZN7openpal5ArrayIN8opendnp34CellINS1_22AnalogOutputStatusSpecEEEtED0Ev
	.weak	_ZTVN7openpal5ArrayIN8opendnp34CellINS1_19TimeAndIntervalSpecEEEtEE
	.section	.data.rel.ro._ZTVN7openpal5ArrayIN8opendnp34CellINS1_19TimeAndIntervalSpecEEEtEE,"awG",@progbits,_ZTVN7openpal5ArrayIN8opendnp34CellINS1_19TimeAndIntervalSpecEEEtEE,comdat
	.align	3
	.type	_ZTVN7openpal5ArrayIN8opendnp34CellINS1_19TimeAndIntervalSpecEEEtEE, %object
	.size	_ZTVN7openpal5ArrayIN8opendnp34CellINS1_19TimeAndIntervalSpecEEEtEE, 32
_ZTVN7openpal5ArrayIN8opendnp34CellINS1_19TimeAndIntervalSpecEEEtEE:
	.xword	0
	.xword	_ZTIN7openpal5ArrayIN8opendnp34CellINS1_19TimeAndIntervalSpecEEEtEE
	.xword	_ZN7openpal5ArrayIN8opendnp34CellINS1_19TimeAndIntervalSpecEEEtED1Ev
	.xword	_ZN7openpal5ArrayIN8opendnp34CellINS1_19TimeAndIntervalSpecEEEtED0Ev
	.weak	_ZTVN7openpal5ArrayINS_8ListNodeIN8opendnp39SOERecordEEEjEE
	.section	.data.rel.ro._ZTVN7openpal5ArrayINS_8ListNodeIN8opendnp39SOERecordEEEjEE,"awG",@progbits,_ZTVN7openpal5ArrayINS_8ListNodeIN8opendnp39SOERecordEEEjEE,comdat
	.align	3
	.type	_ZTVN7openpal5ArrayINS_8ListNodeIN8opendnp39SOERecordEEEjEE, %object
	.size	_ZTVN7openpal5ArrayINS_8ListNodeIN8opendnp39SOERecordEEEjEE, 32
_ZTVN7openpal5ArrayINS_8ListNodeIN8opendnp39SOERecordEEEjEE:
	.xword	0
	.xword	_ZTIN7openpal5ArrayINS_8ListNodeIN8opendnp39SOERecordEEEjEE
	.xword	_ZN7openpal5ArrayINS_8ListNodeIN8opendnp39SOERecordEEEjED1Ev
	.xword	_ZN7openpal5ArrayINS_8ListNodeIN8opendnp39SOERecordEEEjED0Ev
	.weak	_ZTVN8opendnp321ConstantCommandActionE
	.section	.data.rel.ro._ZTVN8opendnp321ConstantCommandActionE,"awG",@progbits,_ZTVN8opendnp321ConstantCommandActionE,comdat
	.align	3
	.type	_ZTVN8opendnp321ConstantCommandActionE, %object
	.size	_ZTVN8opendnp321ConstantCommandActionE, 72
_ZTVN8opendnp321ConstantCommandActionE:
	.xword	0
	.xword	_ZTIN8opendnp321ConstantCommandActionE
	.xword	_ZN8opendnp321ConstantCommandActionD1Ev
	.xword	_ZN8opendnp321ConstantCommandActionD0Ev
	.xword	_ZN8opendnp321ConstantCommandAction6ActionERKNS_23ControlRelayOutputBlockEt
	.xword	_ZN8opendnp321ConstantCommandAction6ActionERKNS_17AnalogOutputInt16Et
	.xword	_ZN8opendnp321ConstantCommandAction6ActionERKNS_17AnalogOutputInt32Et
	.xword	_ZN8opendnp321ConstantCommandAction6ActionERKNS_19AnalogOutputFloat32Et
	.xword	_ZN8opendnp321ConstantCommandAction6ActionERKNS_20AnalogOutputDouble64Et
	.weak	_ZTVN8opendnp38OContextE
	.section	.data.rel.ro._ZTVN8opendnp38OContextE,"awG",@progbits,_ZTVN8opendnp38OContextE,comdat
	.align	3
	.type	_ZTVN8opendnp38OContextE, %object
	.size	_ZTVN8opendnp38OContextE, 64
_ZTVN8opendnp38OContextE:
	.xword	0
	.xword	_ZTIN8opendnp38OContextE
	.xword	_ZN8opendnp38OContextD1Ev
	.xword	_ZN8opendnp38OContextD0Ev
	.xword	_ZN8opendnp38OContext14OnLowerLayerUpEv
	.xword	_ZN8opendnp38OContext16OnLowerLayerDownEv
	.xword	_ZN8opendnp38OContext9OnReceiveERKN7openpal6RSliceE
	.xword	_ZN8opendnp38OContext12OnSendResultEb
	.section	.rodata
	.align	3
	.type	_ZTSZN7openpal8TimerRef7RestartIZN8opendnp38OContext19RestartConfirmTimerEvEUlvE_EEvRKNS_12TimeDurationERKT_EUlvE_, %object
	.size	_ZTSZN7openpal8TimerRef7RestartIZN8opendnp38OContext19RestartConfirmTimerEvEUlvE_EEvRKNS_12TimeDurationERKT_EUlvE_, 112
_ZTSZN7openpal8TimerRef7RestartIZN8opendnp38OContext19RestartConfirmTimerEvEUlvE_EEvRKNS_12TimeDurationERKT_EUlvE_:
	.string	"*ZN7openpal8TimerRef7RestartIZN8opendnp38OContext19RestartConfirmTimerEvEUlvE_EEvRKNS_12TimeDurationERKT_EUlvE_"
	.section	.data.rel.ro,"aw"
	.align	3
	.set	.LANCHOR0,. + 0
	.type	_ZTIZN7openpal8TimerRef7RestartIZN8opendnp38OContext19RestartConfirmTimerEvEUlvE_EEvRKNS_12TimeDurationERKT_EUlvE_, %object
	.size	_ZTIZN7openpal8TimerRef7RestartIZN8opendnp38OContext19RestartConfirmTimerEvEUlvE_EEvRKNS_12TimeDurationERKT_EUlvE_, 16
_ZTIZN7openpal8TimerRef7RestartIZN8opendnp38OContext19RestartConfirmTimerEvEUlvE_EEvRKNS_12TimeDurationERKT_EUlvE_:
	.xword	_ZTVN10__cxxabiv117__class_type_infoE+16
	.xword	_ZTSZN7openpal8TimerRef7RestartIZN8opendnp38OContext19RestartConfirmTimerEvEUlvE_EEvRKNS_12TimeDurationERKT_EUlvE_
	.hidden	DW.ref.__gxx_personality_v0
	.weak	DW.ref.__gxx_personality_v0
	.section	.data.rel.local.DW.ref.__gxx_personality_v0,"awG",@progbits,DW.ref.__gxx_personality_v0,comdat
	.align	3
	.type	DW.ref.__gxx_personality_v0, %object
	.size	DW.ref.__gxx_personality_v0, 8
DW.ref.__gxx_personality_v0:
	.xword	__gxx_personality_v0
	.ident	"GCC: (Ubuntu 11.4.0-1ubuntu1~22.04) 11.4.0"
	.section	.note.GNU-stack,"",@progbits
