	.arch armv8-a
	.file	"OutstationStates.cpp"
	.text
	.section	.text._ZN8opendnp315OutstationState6IsIdleEv,"axG",@progbits,_ZN8opendnp315OutstationState6IsIdleEv,comdat
	.align	2
	.p2align 4,,11
	.weak	_ZN8opendnp315OutstationState6IsIdleEv
	.type	_ZN8opendnp315OutstationState6IsIdleEv, %function
_ZN8opendnp315OutstationState6IsIdleEv:
.LFB53:
	.cfi_startproc
	mov	w0, 0
	ret
	.cfi_endproc
.LFE53:
	.size	_ZN8opendnp315OutstationState6IsIdleEv, .-_ZN8opendnp315OutstationState6IsIdleEv
	.section	.text._ZN8opendnp39StateIdle6IsIdleEv,"axG",@progbits,_ZN8opendnp39StateIdle6IsIdleEv,comdat
	.align	2
	.p2align 4,,11
	.weak	_ZN8opendnp39StateIdle6IsIdleEv
	.type	_ZN8opendnp39StateIdle6IsIdleEv, %function
_ZN8opendnp39StateIdle6IsIdleEv:
.LFB54:
	.cfi_startproc
	mov	w0, 1
	ret
	.cfi_endproc
.LFE54:
	.size	_ZN8opendnp39StateIdle6IsIdleEv, .-_ZN8opendnp39StateIdle6IsIdleEv
	.section	.rodata._ZN8opendnp39StateIdle4NameEv.str1.8,"aMS",@progbits,1
	.align	3
.LC0:
	.string	"Idle"
	.section	.text._ZN8opendnp39StateIdle4NameEv,"axG",@progbits,_ZN8opendnp39StateIdle4NameEv,comdat
	.align	2
	.p2align 4,,11
	.weak	_ZN8opendnp39StateIdle4NameEv
	.type	_ZN8opendnp39StateIdle4NameEv, %function
_ZN8opendnp39StateIdle4NameEv:
.LFB55:
	.cfi_startproc
	adrp	x0, .LC0
	add	x0, x0, :lo12:.LC0
	ret
	.cfi_endproc
.LFE55:
	.size	_ZN8opendnp39StateIdle4NameEv, .-_ZN8opendnp39StateIdle4NameEv
	.section	.rodata._ZN8opendnp325StateSolicitedConfirmWait4NameEv.str1.8,"aMS",@progbits,1
	.align	3
.LC1:
	.string	"SolicitedConfirmWait"
	.section	.text._ZN8opendnp325StateSolicitedConfirmWait4NameEv,"axG",@progbits,_ZN8opendnp325StateSolicitedConfirmWait4NameEv,comdat
	.align	2
	.p2align 4,,11
	.weak	_ZN8opendnp325StateSolicitedConfirmWait4NameEv
	.type	_ZN8opendnp325StateSolicitedConfirmWait4NameEv, %function
_ZN8opendnp325StateSolicitedConfirmWait4NameEv:
.LFB67:
	.cfi_startproc
	adrp	x0, .LC1
	add	x0, x0, :lo12:.LC1
	ret
	.cfi_endproc
.LFE67:
	.size	_ZN8opendnp325StateSolicitedConfirmWait4NameEv, .-_ZN8opendnp325StateSolicitedConfirmWait4NameEv
	.section	.rodata._ZN8opendnp327StateUnsolicitedConfirmWait4NameEv.str1.8,"aMS",@progbits,1
	.align	3
.LC2:
	.string	"UnsolicitedConfirmWait"
	.section	.text._ZN8opendnp327StateUnsolicitedConfirmWait4NameEv,"axG",@progbits,_ZN8opendnp327StateUnsolicitedConfirmWait4NameEv,comdat
	.align	2
	.p2align 4,,11
	.weak	_ZN8opendnp327StateUnsolicitedConfirmWait4NameEv
	.type	_ZN8opendnp327StateUnsolicitedConfirmWait4NameEv, %function
_ZN8opendnp327StateUnsolicitedConfirmWait4NameEv:
.LFB72:
	.cfi_startproc
	adrp	x0, .LC2
	add	x0, x0, :lo12:.LC2
	ret
	.cfi_endproc
.LFE72:
	.size	_ZN8opendnp327StateUnsolicitedConfirmWait4NameEv, .-_ZN8opendnp327StateUnsolicitedConfirmWait4NameEv
	.section	.text._ZN8opendnp39StateIdleD2Ev,"axG",@progbits,_ZN8opendnp39StateIdleD5Ev,comdat
	.align	2
	.p2align 4,,11
	.weak	_ZN8opendnp39StateIdleD2Ev
	.type	_ZN8opendnp39StateIdleD2Ev, %function
_ZN8opendnp39StateIdleD2Ev:
.LFB3586:
	.cfi_startproc
	ret
	.cfi_endproc
.LFE3586:
	.size	_ZN8opendnp39StateIdleD2Ev, .-_ZN8opendnp39StateIdleD2Ev
	.weak	_ZN8opendnp39StateIdleD1Ev
	.set	_ZN8opendnp39StateIdleD1Ev,_ZN8opendnp39StateIdleD2Ev
	.section	.text._ZN8opendnp325StateSolicitedConfirmWaitD2Ev,"axG",@progbits,_ZN8opendnp325StateSolicitedConfirmWaitD5Ev,comdat
	.align	2
	.p2align 4,,11
	.weak	_ZN8opendnp325StateSolicitedConfirmWaitD2Ev
	.type	_ZN8opendnp325StateSolicitedConfirmWaitD2Ev, %function
_ZN8opendnp325StateSolicitedConfirmWaitD2Ev:
.LFB3589:
	.cfi_startproc
	ret
	.cfi_endproc
.LFE3589:
	.size	_ZN8opendnp325StateSolicitedConfirmWaitD2Ev, .-_ZN8opendnp325StateSolicitedConfirmWaitD2Ev
	.weak	_ZN8opendnp325StateSolicitedConfirmWaitD1Ev
	.set	_ZN8opendnp325StateSolicitedConfirmWaitD1Ev,_ZN8opendnp325StateSolicitedConfirmWaitD2Ev
	.section	.text._ZN8opendnp327StateUnsolicitedConfirmWaitD2Ev,"axG",@progbits,_ZN8opendnp327StateUnsolicitedConfirmWaitD5Ev,comdat
	.align	2
	.p2align 4,,11
	.weak	_ZN8opendnp327StateUnsolicitedConfirmWaitD2Ev
	.type	_ZN8opendnp327StateUnsolicitedConfirmWaitD2Ev, %function
_ZN8opendnp327StateUnsolicitedConfirmWaitD2Ev:
.LFB3592:
	.cfi_startproc
	ret
	.cfi_endproc
.LFE3592:
	.size	_ZN8opendnp327StateUnsolicitedConfirmWaitD2Ev, .-_ZN8opendnp327StateUnsolicitedConfirmWaitD2Ev
	.weak	_ZN8opendnp327StateUnsolicitedConfirmWaitD1Ev
	.set	_ZN8opendnp327StateUnsolicitedConfirmWaitD1Ev,_ZN8opendnp327StateUnsolicitedConfirmWaitD2Ev
	.section	.rodata.str1.8,"aMS",@progbits,1
	.align	3
.LC3:
	.string	"unexpected confirm timeout"
	.align	3
.LC4:
	.string	"/home/jaehyun/OpenPLC_v3/utils/dnp3_src/cpp/libs/src/opendnp3/outstation/OutstationStates.cpp(46)"
	.text
	.align	2
	.p2align 4,,11
	.global	_ZN8opendnp39StateIdle16OnConfirmTimeoutERNS_8OContextE
	.type	_ZN8opendnp39StateIdle16OnConfirmTimeoutERNS_8OContextE, %function
_ZN8opendnp39StateIdle16OnConfirmTimeoutERNS_8OContextE:
.LFB2764:
	.cfi_startproc
	stp	x29, x30, [sp, -64]!
	.cfi_def_cfa_offset 64
	.cfi_offset 29, -64
	.cfi_offset 30, -56
	adrp	x2, :got:__stack_chk_guard
	mov	x29, sp
	ldr	x2, [x2, #:got_lo12:__stack_chk_guard]
	stp	x19, x20, [sp, 16]
	.cfi_offset 19, -48
	.cfi_offset 20, -40
	add	x19, x1, 8
	str	x21, [sp, 32]
	.cfi_offset 21, -32
	add	x21, sp, 48
	mov	w20, 4
	mov	x0, x19
	ldr	x3, [x2]
	str	x3, [sp, 56]
	mov	x3, 0
	mov	x1, x21
	str	w20, [sp, 48]
	bl	_ZNK7openpal6Logger9IsEnabledERKNS_10LogFiltersE
	tst	w0, 255
	bne	.L17
.L11:
	adrp	x1, :got:__stack_chk_guard
	adrp	x0, :got:_ZN8opendnp39StateIdle8instanceE
	ldr	x1, [x1, #:got_lo12:__stack_chk_guard]
	ldr	x0, [x0, #:got_lo12:_ZN8opendnp39StateIdle8instanceE]
	ldr	x3, [sp, 56]
	ldr	x2, [x1]
	subs	x3, x3, x2
	mov	x2, 0
	bne	.L18
	ldp	x19, x20, [sp, 16]
	ldr	x21, [sp, 32]
	ldp	x29, x30, [sp], 64
	.cfi_remember_state
	.cfi_restore 30
	.cfi_restore 29
	.cfi_restore 21
	.cfi_restore 19
	.cfi_restore 20
	.cfi_def_cfa_offset 0
	ret
	.p2align 2,,3
.L17:
	.cfi_restore_state
	mov	x1, x21
	mov	x0, x19
	adrp	x3, .LC3
	adrp	x2, .LC4
	add	x3, x3, :lo12:.LC3
	add	x2, x2, :lo12:.LC4
	str	w20, [sp, 48]
	bl	_ZN7openpal6Logger3LogERKNS_10LogFiltersEPKcS5_
	b	.L11
.L18:
	bl	__stack_chk_fail
	.cfi_endproc
.LFE2764:
	.size	_ZN8opendnp39StateIdle16OnConfirmTimeoutERNS_8OContextE, .-_ZN8opendnp39StateIdle16OnConfirmTimeoutERNS_8OContextE
	.section	.rodata.str1.8
	.align	3
.LC5:
	.string	"solicited confirm timeout"
	.align	3
.LC6:
	.string	"/home/jaehyun/OpenPLC_v3/utils/dnp3_src/cpp/libs/src/opendnp3/outstation/OutstationStates.cpp(108)"
	.text
	.align	2
	.p2align 4,,11
	.global	_ZN8opendnp325StateSolicitedConfirmWait16OnConfirmTimeoutERNS_8OContextE
	.type	_ZN8opendnp325StateSolicitedConfirmWait16OnConfirmTimeoutERNS_8OContextE, %function
_ZN8opendnp325StateSolicitedConfirmWait16OnConfirmTimeoutERNS_8OContextE:
.LFB2770:
	.cfi_startproc
	stp	x29, x30, [sp, -64]!
	.cfi_def_cfa_offset 64
	.cfi_offset 29, -64
	.cfi_offset 30, -56
	adrp	x2, :got:__stack_chk_guard
	mov	x29, sp
	ldr	x2, [x2, #:got_lo12:__stack_chk_guard]
	stp	x19, x20, [sp, 16]
	.cfi_offset 19, -48
	.cfi_offset 20, -40
	add	x19, x1, 8
	str	x21, [sp, 32]
	.cfi_offset 21, -32
	add	x21, sp, 48
	mov	w20, 4
	mov	x0, x19
	ldr	x3, [x2]
	str	x3, [sp, 56]
	mov	x3, 0
	mov	x1, x21
	str	w20, [sp, 48]
	bl	_ZNK7openpal6Logger9IsEnabledERKNS_10LogFiltersE
	tst	w0, 255
	bne	.L26
.L20:
	adrp	x1, :got:__stack_chk_guard
	adrp	x0, :got:_ZN8opendnp39StateIdle8instanceE
	ldr	x1, [x1, #:got_lo12:__stack_chk_guard]
	ldr	x0, [x0, #:got_lo12:_ZN8opendnp39StateIdle8instanceE]
	ldr	x3, [sp, 56]
	ldr	x2, [x1]
	subs	x3, x3, x2
	mov	x2, 0
	bne	.L27
	ldp	x19, x20, [sp, 16]
	ldr	x21, [sp, 32]
	ldp	x29, x30, [sp], 64
	.cfi_remember_state
	.cfi_restore 30
	.cfi_restore 29
	.cfi_restore 21
	.cfi_restore 19
	.cfi_restore 20
	.cfi_def_cfa_offset 0
	ret
	.p2align 2,,3
.L26:
	.cfi_restore_state
	mov	x1, x21
	mov	x0, x19
	adrp	x3, .LC5
	adrp	x2, .LC6
	add	x3, x3, :lo12:.LC5
	add	x2, x2, :lo12:.LC6
	str	w20, [sp, 48]
	bl	_ZN7openpal6Logger3LogERKNS_10LogFiltersEPKcS5_
	b	.L20
.L27:
	bl	__stack_chk_fail
	.cfi_endproc
.LFE2770:
	.size	_ZN8opendnp325StateSolicitedConfirmWait16OnConfirmTimeoutERNS_8OContextE, .-_ZN8opendnp325StateSolicitedConfirmWait16OnConfirmTimeoutERNS_8OContextE
	.section	.rodata.str1.8
	.align	3
.LC7:
	.string	"unexpected confirm while IDLE with sequence: %u"
	.align	3
.LC8:
	.string	"/home/jaehyun/OpenPLC_v3/utils/dnp3_src/cpp/libs/src/opendnp3/outstation/OutstationStates.cpp(40)"
	.text
	.align	2
	.p2align 4,,11
	.global	_ZN8opendnp39StateIdle9OnConfirmERNS_8OContextERKNS_10APDUHeaderE
	.type	_ZN8opendnp39StateIdle9OnConfirmERNS_8OContextERKNS_10APDUHeaderE, %function
_ZN8opendnp39StateIdle9OnConfirmERNS_8OContextERKNS_10APDUHeaderE:
.LFB2763:
	.cfi_startproc
	stp	x29, x30, [sp, -192]!
	.cfi_def_cfa_offset 192
	.cfi_offset 29, -192
	.cfi_offset 30, -184
	adrp	x0, :got:__stack_chk_guard
	mov	x29, sp
	stp	x19, x20, [sp, 16]
	.cfi_offset 19, -176
	.cfi_offset 20, -168
	add	x19, x1, 8
	mov	x20, x2
	ldr	x1, [x0, #:got_lo12:__stack_chk_guard]
	stp	x21, x22, [sp, 32]
	.cfi_offset 21, -160
	.cfi_offset 22, -152
	add	x22, sp, 56
	ldr	x2, [x1]
	str	x2, [sp, 184]
	mov	x2, 0
	mov	w21, 4
	mov	x0, x19
	mov	x1, x22
	str	w21, [sp, 56]
	bl	_ZNK7openpal6Logger9IsEnabledERKNS_10LogFiltersE
	tst	w0, 255
	bne	.L35
.L29:
	adrp	x1, :got:__stack_chk_guard
	adrp	x0, :got:_ZN8opendnp39StateIdle8instanceE
	ldr	x1, [x1, #:got_lo12:__stack_chk_guard]
	ldr	x0, [x0, #:got_lo12:_ZN8opendnp39StateIdle8instanceE]
	ldr	x3, [sp, 184]
	ldr	x2, [x1]
	subs	x3, x3, x2
	mov	x2, 0
	bne	.L36
	ldp	x19, x20, [sp, 16]
	ldp	x21, x22, [sp, 32]
	ldp	x29, x30, [sp], 192
	.cfi_remember_state
	.cfi_restore 30
	.cfi_restore 29
	.cfi_restore 21
	.cfi_restore 22
	.cfi_restore 19
	.cfi_restore 20
	.cfi_def_cfa_offset 0
	ret
	.p2align 2,,3
.L35:
	.cfi_restore_state
	ldrb	w5, [x20, 5]
	adrp	x4, .LC7
	add	x4, x4, :lo12:.LC7
	add	x20, sp, 64
	mov	x3, 120
	mov	x0, x20
	mov	x1, x3
	mov	w2, 1
	bl	__snprintf_chk
	str	w21, [sp, 56]
	mov	x3, x20
	mov	x1, x22
	mov	x0, x19
	adrp	x2, .LC8
	add	x2, x2, :lo12:.LC8
	bl	_ZN7openpal6Logger3LogERKNS_10LogFiltersEPKcS5_
	b	.L29
.L36:
	bl	__stack_chk_fail
	.cfi_endproc
.LFE2763:
	.size	_ZN8opendnp39StateIdle9OnConfirmERNS_8OContextERKNS_10APDUHeaderE, .-_ZN8opendnp39StateIdle9OnConfirmERNS_8OContextERKNS_10APDUHeaderE
	.align	2
	.p2align 4,,11
	.global	_ZN8opendnp39StateIdle16OnNewReadRequestERNS_8OContextERKNS_10APDUHeaderERKN7openpal6RSliceE
	.type	_ZN8opendnp39StateIdle16OnNewReadRequestERNS_8OContextERKNS_10APDUHeaderERKN7openpal6RSliceE, %function
_ZN8opendnp39StateIdle16OnNewReadRequestERNS_8OContextERKNS_10APDUHeaderERKN7openpal6RSliceE:
.LFB2765:
	.cfi_startproc
	mov	x0, x1
	mov	x1, x2
	mov	x2, x3
	b	_ZN8opendnp38OContext20RespondToReadRequestERKNS_10APDUHeaderERKN7openpal6RSliceE
	.cfi_endproc
.LFE2765:
	.size	_ZN8opendnp39StateIdle16OnNewReadRequestERNS_8OContextERKNS_10APDUHeaderERKN7openpal6RSliceE, .-_ZN8opendnp39StateIdle16OnNewReadRequestERNS_8OContextERKNS_10APDUHeaderERKN7openpal6RSliceE
	.align	2
	.p2align 4,,11
	.global	_ZN8opendnp39StateIdle19OnNewNonReadRequestERNS_8OContextERKNS_10APDUHeaderERKN7openpal6RSliceE
	.type	_ZN8opendnp39StateIdle19OnNewNonReadRequestERNS_8OContextERKNS_10APDUHeaderERKN7openpal6RSliceE, %function
_ZN8opendnp39StateIdle19OnNewNonReadRequestERNS_8OContextERKNS_10APDUHeaderERKN7openpal6RSliceE:
.LFB2766:
	.cfi_startproc
	stp	x29, x30, [sp, -32]!
	.cfi_def_cfa_offset 32
	.cfi_offset 29, -32
	.cfi_offset 30, -24
	mov	x29, sp
	str	x19, [sp, 16]
	.cfi_offset 19, -16
	mov	x19, x0
	mov	x0, x1
	mov	x1, x2
	mov	x2, x3
	bl	_ZN8opendnp38OContext23RespondToNonReadRequestERKNS_10APDUHeaderERKN7openpal6RSliceE
	mov	x0, x19
	ldr	x19, [sp, 16]
	ldp	x29, x30, [sp], 32
	.cfi_restore 30
	.cfi_restore 29
	.cfi_restore 19
	.cfi_def_cfa_offset 0
	ret
	.cfi_endproc
.LFE2766:
	.size	_ZN8opendnp39StateIdle19OnNewNonReadRequestERNS_8OContextERKNS_10APDUHeaderERKN7openpal6RSliceE, .-_ZN8opendnp39StateIdle19OnNewNonReadRequestERNS_8OContextERKNS_10APDUHeaderERKN7openpal6RSliceE
	.align	2
	.p2align 4,,11
	.global	_ZN8opendnp39StateIdle22OnRepeatNonReadRequestERNS_8OContextERKNS_10APDUHeaderERKN7openpal6RSliceE
	.type	_ZN8opendnp39StateIdle22OnRepeatNonReadRequestERNS_8OContextERKNS_10APDUHeaderERKN7openpal6RSliceE, %function
_ZN8opendnp39StateIdle22OnRepeatNonReadRequestERNS_8OContextERKNS_10APDUHeaderERKN7openpal6RSliceE:
.LFB2767:
	.cfi_startproc
	stp	x29, x30, [sp, -32]!
	.cfi_def_cfa_offset 32
	.cfi_offset 29, -32
	.cfi_offset 30, -24
	mov	x3, x1
	add	x2, x1, 840
	mov	x29, sp
	add	x1, x1, 856
	str	x19, [sp, 16]
	.cfi_offset 19, -16
	mov	x19, x0
	mov	x0, x3
	bl	_ZN8opendnp38OContext15BeginResponseTxERKNS_15AppControlFieldERKN7openpal6RSliceE
	mov	x0, x19
	ldr	x19, [sp, 16]
	ldp	x29, x30, [sp], 32
	.cfi_restore 30
	.cfi_restore 29
	.cfi_restore 19
	.cfi_def_cfa_offset 0
	ret
	.cfi_endproc
.LFE2767:
	.size	_ZN8opendnp39StateIdle22OnRepeatNonReadRequestERNS_8OContextERKNS_10APDUHeaderERKN7openpal6RSliceE, .-_ZN8opendnp39StateIdle22OnRepeatNonReadRequestERNS_8OContextERKNS_10APDUHeaderERKN7openpal6RSliceE
	.global	_ZN8opendnp327StateUnsolicitedConfirmWait22OnRepeatNonReadRequestERNS_8OContextERKNS_10APDUHeaderERKN7openpal6RSliceE
	.set	_ZN8opendnp327StateUnsolicitedConfirmWait22OnRepeatNonReadRequestERNS_8OContextERKNS_10APDUHeaderERKN7openpal6RSliceE,_ZN8opendnp39StateIdle22OnRepeatNonReadRequestERNS_8OContextERKNS_10APDUHeaderERKN7openpal6RSliceE
	.global	_ZN8opendnp39StateIdle19OnRepeatReadRequestERNS_8OContextERKNS_10APDUHeaderERKN7openpal6RSliceE
	.set	_ZN8opendnp39StateIdle19OnRepeatReadRequestERNS_8OContextERKNS_10APDUHeaderERKN7openpal6RSliceE,_ZN8opendnp39StateIdle22OnRepeatNonReadRequestERNS_8OContextERKNS_10APDUHeaderERKN7openpal6RSliceE
	.align	2
	.p2align 4,,11
	.global	_ZN8opendnp325StateSolicitedConfirmWait16OnNewReadRequestERNS_8OContextERKNS_10APDUHeaderERKN7openpal6RSliceE
	.type	_ZN8opendnp325StateSolicitedConfirmWait16OnNewReadRequestERNS_8OContextERKNS_10APDUHeaderERKN7openpal6RSliceE, %function
_ZN8opendnp325StateSolicitedConfirmWait16OnNewReadRequestERNS_8OContextERKNS_10APDUHeaderERKN7openpal6RSliceE:
.LFB2771:
	.cfi_startproc
	stp	x29, x30, [sp, -48]!
	.cfi_def_cfa_offset 48
	.cfi_offset 29, -48
	.cfi_offset 30, -40
	add	x0, x1, 728
	mov	x29, sp
	stp	x19, x20, [sp, 16]
	.cfi_offset 19, -32
	.cfi_offset 20, -24
	mov	x19, x1
	mov	x20, x2
	str	x21, [sp, 32]
	.cfi_offset 21, -16
	mov	x21, x3
	bl	_ZN7openpal8TimerRef6CancelEv
	mov	x2, x21
	mov	x1, x20
	mov	x0, x19
	ldp	x19, x20, [sp, 16]
	ldr	x21, [sp, 32]
	ldp	x29, x30, [sp], 48
	.cfi_restore 30
	.cfi_restore 29
	.cfi_restore 21
	.cfi_restore 19
	.cfi_restore 20
	.cfi_def_cfa_offset 0
	b	_ZN8opendnp38OContext20RespondToReadRequestERKNS_10APDUHeaderERKN7openpal6RSliceE
	.cfi_endproc
.LFE2771:
	.size	_ZN8opendnp325StateSolicitedConfirmWait16OnNewReadRequestERNS_8OContextERKNS_10APDUHeaderERKN7openpal6RSliceE, .-_ZN8opendnp325StateSolicitedConfirmWait16OnNewReadRequestERNS_8OContextERKNS_10APDUHeaderERKN7openpal6RSliceE
	.align	2
	.p2align 4,,11
	.global	_ZN8opendnp325StateSolicitedConfirmWait19OnNewNonReadRequestERNS_8OContextERKNS_10APDUHeaderERKN7openpal6RSliceE
	.type	_ZN8opendnp325StateSolicitedConfirmWait19OnNewNonReadRequestERNS_8OContextERKNS_10APDUHeaderERKN7openpal6RSliceE, %function
_ZN8opendnp325StateSolicitedConfirmWait19OnNewNonReadRequestERNS_8OContextERKNS_10APDUHeaderERKN7openpal6RSliceE:
.LFB2772:
	.cfi_startproc
	stp	x29, x30, [sp, -48]!
	.cfi_def_cfa_offset 48
	.cfi_offset 29, -48
	.cfi_offset 30, -40
	add	x0, x1, 728
	mov	x29, sp
	stp	x19, x20, [sp, 16]
	.cfi_offset 19, -32
	.cfi_offset 20, -24
	mov	x19, x1
	mov	x20, x2
	str	x21, [sp, 32]
	.cfi_offset 21, -16
	mov	x21, x3
	bl	_ZN7openpal8TimerRef6CancelEv
	mov	x2, x21
	mov	x1, x20
	mov	x0, x19
	bl	_ZN8opendnp38OContext23RespondToNonReadRequestERKNS_10APDUHeaderERKN7openpal6RSliceE
	adrp	x0, :got:_ZN8opendnp39StateIdle8instanceE
	ldp	x19, x20, [sp, 16]
	ldr	x0, [x0, #:got_lo12:_ZN8opendnp39StateIdle8instanceE]
	ldr	x21, [sp, 32]
	ldp	x29, x30, [sp], 48
	.cfi_restore 30
	.cfi_restore 29
	.cfi_restore 21
	.cfi_restore 19
	.cfi_restore 20
	.cfi_def_cfa_offset 0
	ret
	.cfi_endproc
.LFE2772:
	.size	_ZN8opendnp325StateSolicitedConfirmWait19OnNewNonReadRequestERNS_8OContextERKNS_10APDUHeaderERKN7openpal6RSliceE, .-_ZN8opendnp325StateSolicitedConfirmWait19OnNewNonReadRequestERNS_8OContextERKNS_10APDUHeaderERKN7openpal6RSliceE
	.align	2
	.p2align 4,,11
	.global	_ZN8opendnp325StateSolicitedConfirmWait22OnRepeatNonReadRequestERNS_8OContextERKNS_10APDUHeaderERKN7openpal6RSliceE
	.type	_ZN8opendnp325StateSolicitedConfirmWait22OnRepeatNonReadRequestERNS_8OContextERKNS_10APDUHeaderERKN7openpal6RSliceE, %function
_ZN8opendnp325StateSolicitedConfirmWait22OnRepeatNonReadRequestERNS_8OContextERKNS_10APDUHeaderERKN7openpal6RSliceE:
.LFB2773:
	.cfi_startproc
	stp	x29, x30, [sp, -32]!
	.cfi_def_cfa_offset 32
	.cfi_offset 29, -32
	.cfi_offset 30, -24
	mov	x29, sp
	stp	x19, x20, [sp, 16]
	.cfi_offset 19, -16
	.cfi_offset 20, -8
	mov	x19, x1
	mov	x20, x0
	add	x0, x1, 728
	bl	_ZN7openpal8TimerRef6CancelEv
	add	x2, x19, 840
	add	x1, x19, 856
	mov	x0, x19
	bl	_ZN8opendnp38OContext15BeginResponseTxERKNS_15AppControlFieldERKN7openpal6RSliceE
	mov	x0, x20
	ldp	x19, x20, [sp, 16]
	ldp	x29, x30, [sp], 32
	.cfi_restore 30
	.cfi_restore 29
	.cfi_restore 19
	.cfi_restore 20
	.cfi_def_cfa_offset 0
	ret
	.cfi_endproc
.LFE2773:
	.size	_ZN8opendnp325StateSolicitedConfirmWait22OnRepeatNonReadRequestERNS_8OContextERKNS_10APDUHeaderERKN7openpal6RSliceE, .-_ZN8opendnp325StateSolicitedConfirmWait22OnRepeatNonReadRequestERNS_8OContextERKNS_10APDUHeaderERKN7openpal6RSliceE
	.section	.rodata.str1.8
	.align	3
.LC9:
	.string	"received solicited confirm while waiting for unsolicited confirm (seq: %u)"
	.align	3
.LC10:
	.string	"/home/jaehyun/OpenPLC_v3/utils/dnp3_src/cpp/libs/src/opendnp3/outstation/OutstationStates.cpp(148)"
	.align	3
.LC11:
	.string	"unsolicited confirm with wrong seq: %u, expected: %u"
	.align	3
.LC12:
	.string	"/home/jaehyun/OpenPLC_v3/utils/dnp3_src/cpp/libs/src/opendnp3/outstation/OutstationStates.cpp(154)"
	.text
	.align	2
	.p2align 4,,11
	.global	_ZN8opendnp327StateUnsolicitedConfirmWait9OnConfirmERNS_8OContextERKNS_10APDUHeaderE
	.type	_ZN8opendnp327StateUnsolicitedConfirmWait9OnConfirmERNS_8OContextERKNS_10APDUHeaderE, %function
_ZN8opendnp327StateUnsolicitedConfirmWait9OnConfirmERNS_8OContextERKNS_10APDUHeaderE:
.LFB2775:
	.cfi_startproc
	stp	x29, x30, [sp, -208]!
	.cfi_def_cfa_offset 208
	.cfi_offset 29, -208
	.cfi_offset 30, -200
	adrp	x3, :got:__stack_chk_guard
	mov	x29, sp
	ldr	x3, [x3, #:got_lo12:__stack_chk_guard]
	stp	x19, x20, [sp, 16]
	.cfi_offset 19, -192
	.cfi_offset 20, -184
	mov	x20, x2
	stp	x21, x22, [sp, 32]
	.cfi_offset 21, -176
	.cfi_offset 22, -168
	mov	x21, x0
	ldrb	w2, [x2, 4]
	ldr	x0, [x3]
	str	x0, [sp, 200]
	mov	x0, 0
	mov	x19, x1
	cbz	w2, .L61
	ldrb	w1, [x20, 5]
	ldrb	w0, [x19, 890]
	cmp	w1, w0
	bne	.L62
	add	x0, x19, 744
	bl	_ZN8opendnp314RequestHistory5ResetEv
	add	x0, x19, 728
	bl	_ZN7openpal8TimerRef6CancelEv
	ldrb	w0, [x19, 888]
	cbnz	w0, .L63
	adrp	x0, :got:_ZN8opendnp39StateIdle8instanceE
	mov	w1, 1
	strb	w1, [x19, 888]
	ldr	x0, [x0, #:got_lo12:_ZN8opendnp39StateIdle8instanceE]
.L48:
	adrp	x1, :got:__stack_chk_guard
	ldr	x1, [x1, #:got_lo12:__stack_chk_guard]
	ldr	x3, [sp, 200]
	ldr	x2, [x1]
	subs	x3, x3, x2
	mov	x2, 0
	bne	.L64
	ldp	x19, x20, [sp, 16]
	ldp	x21, x22, [sp, 32]
	ldp	x29, x30, [sp], 208
	.cfi_remember_state
	.cfi_restore 30
	.cfi_restore 29
	.cfi_restore 21
	.cfi_restore 22
	.cfi_restore 19
	.cfi_restore 20
	.cfi_def_cfa_offset 0
	ret
	.p2align 2,,3
.L62:
	.cfi_restore_state
	stp	x23, x24, [sp, 48]
	.cfi_offset 24, -152
	.cfi_offset 23, -160
	add	x23, x19, 8
	add	x24, sp, 72
	mov	w22, 4
	mov	x0, x23
	mov	x1, x24
	str	w22, [sp, 72]
	bl	_ZNK7openpal6Logger9IsEnabledERKNS_10LogFiltersE
	tst	w0, 255
	bne	.L65
.L51:
	mov	x0, x21
	ldp	x23, x24, [sp, 48]
	.cfi_restore 24
	.cfi_restore 23
	b	.L48
	.p2align 2,,3
.L61:
	add	x19, x1, 8
	stp	x23, x24, [sp, 48]
	.cfi_offset 24, -152
	.cfi_offset 23, -160
	add	x23, sp, 72
	mov	w22, 4
	mov	x0, x19
	mov	x1, x23
	str	w22, [sp, 72]
	bl	_ZNK7openpal6Logger9IsEnabledERKNS_10LogFiltersE
	tst	w0, 255
	beq	.L51
	ldrb	w5, [x20, 5]
	adrp	x4, .LC9
	add	x4, x4, :lo12:.LC9
	add	x20, sp, 80
	mov	x3, 120
	mov	x0, x20
	mov	x1, x3
	mov	w2, 1
	bl	__snprintf_chk
	str	w22, [sp, 72]
	mov	x3, x20
	mov	x1, x23
	mov	x0, x19
	adrp	x2, .LC10
	add	x2, x2, :lo12:.LC10
	bl	_ZN7openpal6Logger3LogERKNS_10LogFiltersEPKcS5_
	b	.L51
	.p2align 2,,3
.L65:
	ldrb	w6, [x19, 890]
	adrp	x4, .LC11
	ldrb	w5, [x20, 5]
	add	x4, x4, :lo12:.LC11
	add	x19, sp, 80
	mov	x3, 120
	mov	x0, x19
	mov	x1, x3
	mov	w2, 1
	bl	__snprintf_chk
	str	w22, [sp, 72]
	mov	x3, x19
	mov	x1, x24
	mov	x0, x23
	adrp	x2, .LC12
	add	x2, x2, :lo12:.LC12
	bl	_ZN7openpal6Logger3LogERKNS_10LogFiltersEPKcS5_
	b	.L51
	.p2align 2,,3
.L63:
	.cfi_restore 23
	.cfi_restore 24
	add	x0, x19, 104
	bl	_ZN8opendnp311EventBuffer12ClearWrittenEv
	adrp	x0, :got:_ZN8opendnp39StateIdle8instanceE
	ldr	x0, [x0, #:got_lo12:_ZN8opendnp39StateIdle8instanceE]
	b	.L48
.L64:
	stp	x23, x24, [sp, 48]
	.cfi_offset 24, -152
	.cfi_offset 23, -160
	bl	__stack_chk_fail
	.cfi_endproc
.LFE2775:
	.size	_ZN8opendnp327StateUnsolicitedConfirmWait9OnConfirmERNS_8OContextERKNS_10APDUHeaderE, .-_ZN8opendnp327StateUnsolicitedConfirmWait9OnConfirmERNS_8OContextERKNS_10APDUHeaderE
	.section	.rodata.str1.8
	.align	3
.LC13:
	.string	"received unsolicited confirm while waiting for solicited confirm (seq: %u)"
	.align	3
.LC14:
	.string	"/home/jaehyun/OpenPLC_v3/utils/dnp3_src/cpp/libs/src/opendnp3/outstation/OutstationStates.cpp(82)"
	.align	3
.LC15:
	.string	"solicited confirm with wrong seq: %u, expected: %u"
	.align	3
.LC16:
	.string	"/home/jaehyun/OpenPLC_v3/utils/dnp3_src/cpp/libs/src/opendnp3/outstation/OutstationStates.cpp(88)"
	.text
	.align	2
	.p2align 4,,11
	.global	_ZN8opendnp325StateSolicitedConfirmWait9OnConfirmERNS_8OContextERKNS_10APDUHeaderE
	.type	_ZN8opendnp325StateSolicitedConfirmWait9OnConfirmERNS_8OContextERKNS_10APDUHeaderE, %function
_ZN8opendnp325StateSolicitedConfirmWait9OnConfirmERNS_8OContextERKNS_10APDUHeaderE:
.LFB2769:
	.cfi_startproc
	stp	x29, x30, [sp, -208]!
	.cfi_def_cfa_offset 208
	.cfi_offset 29, -208
	.cfi_offset 30, -200
	adrp	x3, :got:__stack_chk_guard
	mov	x29, sp
	ldr	x3, [x3, #:got_lo12:__stack_chk_guard]
	stp	x19, x20, [sp, 16]
	.cfi_offset 19, -192
	.cfi_offset 20, -184
	mov	x20, x2
	stp	x21, x22, [sp, 32]
	.cfi_offset 21, -176
	.cfi_offset 22, -168
	mov	x21, x0
	ldrb	w2, [x2, 4]
	ldr	x0, [x3]
	str	x0, [sp, 200]
	mov	x0, 0
	mov	x19, x1
	cbnz	w2, .L80
	ldrb	w1, [x20, 5]
	ldrb	w0, [x19, 833]
	cmp	w1, w0
	bne	.L81
	add	x0, x19, 744
	bl	_ZN8opendnp314RequestHistory5ResetEv
	add	x0, x19, 728
	bl	_ZN7openpal8TimerRef6CancelEv
	add	x0, x19, 104
	bl	_ZN8opendnp311EventBuffer12ClearWrittenEv
	add	x0, x19, 640
	bl	_ZNK8opendnp315ResponseContext12HasSelectionEv
	adrp	x1, :got:_ZN8opendnp39StateIdle8instanceE
	mov	w2, w0
	ldr	x0, [x1, #:got_lo12:_ZN8opendnp39StateIdle8instanceE]
	tst	w2, 255
	bne	.L82
.L66:
	adrp	x1, :got:__stack_chk_guard
	ldr	x1, [x1, #:got_lo12:__stack_chk_guard]
	ldr	x3, [sp, 200]
	ldr	x2, [x1]
	subs	x3, x3, x2
	mov	x2, 0
	bne	.L83
	ldp	x19, x20, [sp, 16]
	ldp	x21, x22, [sp, 32]
	ldp	x29, x30, [sp], 208
	.cfi_remember_state
	.cfi_restore 30
	.cfi_restore 29
	.cfi_restore 21
	.cfi_restore 22
	.cfi_restore 19
	.cfi_restore 20
	.cfi_def_cfa_offset 0
	ret
	.p2align 2,,3
.L81:
	.cfi_restore_state
	stp	x23, x24, [sp, 48]
	.cfi_offset 24, -152
	.cfi_offset 23, -160
	add	x23, x19, 8
	add	x24, sp, 72
	mov	w22, 4
	mov	x0, x23
	mov	x1, x24
	str	w22, [sp, 72]
	bl	_ZNK7openpal6Logger9IsEnabledERKNS_10LogFiltersE
	tst	w0, 255
	bne	.L84
.L69:
	mov	x0, x21
	ldp	x23, x24, [sp, 48]
	.cfi_restore 24
	.cfi_restore 23
	b	.L66
	.p2align 2,,3
.L80:
	add	x19, x1, 8
	stp	x23, x24, [sp, 48]
	.cfi_offset 24, -152
	.cfi_offset 23, -160
	add	x23, sp, 72
	mov	w22, 4
	mov	x0, x19
	mov	x1, x23
	str	w22, [sp, 72]
	bl	_ZNK7openpal6Logger9IsEnabledERKNS_10LogFiltersE
	tst	w0, 255
	beq	.L69
	ldrb	w5, [x20, 5]
	adrp	x4, .LC13
	add	x4, x4, :lo12:.LC13
	add	x20, sp, 80
	mov	x3, 120
	mov	x0, x20
	mov	x1, x3
	mov	w2, 1
	bl	__snprintf_chk
	str	w22, [sp, 72]
	mov	x3, x20
	mov	x1, x23
	mov	x0, x19
	adrp	x2, .LC14
	add	x2, x2, :lo12:.LC14
	bl	_ZN7openpal6Logger3LogERKNS_10LogFiltersEPKcS5_
	b	.L69
	.p2align 2,,3
.L84:
	ldrb	w6, [x19, 833]
	adrp	x4, .LC15
	ldrb	w5, [x20, 5]
	add	x4, x4, :lo12:.LC15
	add	x19, sp, 80
	mov	x3, 120
	mov	x0, x19
	mov	x1, x3
	mov	w2, 1
	bl	__snprintf_chk
	str	w22, [sp, 72]
	mov	x3, x19
	mov	x1, x24
	mov	x0, x23
	adrp	x2, .LC16
	add	x2, x2, :lo12:.LC16
	bl	_ZN7openpal6Logger3LogERKNS_10LogFiltersEPKcS5_
	b	.L69
	.p2align 2,,3
.L82:
	.cfi_restore 23
	.cfi_restore 24
	ldrb	w2, [x20, 5]
	mov	x0, x19
	add	x1, sp, 72
	add	w2, w2, 1
	and	w2, w2, 15
	strb	w2, [sp, 72]
	bl	_ZN8opendnp38OContext25ContinueMultiFragResponseERKN7openpal11SequenceNumIhLh16EEE
	b	.L66
.L83:
	stp	x23, x24, [sp, 48]
	.cfi_offset 24, -152
	.cfi_offset 23, -160
	bl	__stack_chk_fail
	.cfi_endproc
.LFE2769:
	.size	_ZN8opendnp325StateSolicitedConfirmWait9OnConfirmERNS_8OContextERKNS_10APDUHeaderE, .-_ZN8opendnp325StateSolicitedConfirmWait9OnConfirmERNS_8OContextERKNS_10APDUHeaderE
	.align	2
	.p2align 4,,11
	.global	_ZN8opendnp325StateSolicitedConfirmWait19OnRepeatReadRequestERNS_8OContextERKNS_10APDUHeaderERKN7openpal6RSliceE
	.type	_ZN8opendnp325StateSolicitedConfirmWait19OnRepeatReadRequestERNS_8OContextERKNS_10APDUHeaderERKN7openpal6RSliceE, %function
_ZN8opendnp325StateSolicitedConfirmWait19OnRepeatReadRequestERNS_8OContextERKNS_10APDUHeaderERKN7openpal6RSliceE:
.LFB2774:
	.cfi_startproc
	stp	x29, x30, [sp, -32]!
	.cfi_def_cfa_offset 32
	.cfi_offset 29, -32
	.cfi_offset 30, -24
	mov	x29, sp
	stp	x19, x20, [sp, 16]
	.cfi_offset 19, -16
	.cfi_offset 20, -8
	mov	x19, x1
	mov	x20, x0
	mov	x0, x1
	bl	_ZN8opendnp38OContext19RestartConfirmTimerEv
	add	x2, x19, 840
	add	x1, x19, 856
	mov	x0, x19
	bl	_ZN8opendnp38OContext15BeginResponseTxERKNS_15AppControlFieldERKN7openpal6RSliceE
	mov	x0, x20
	ldp	x19, x20, [sp, 16]
	ldp	x29, x30, [sp], 32
	.cfi_restore 30
	.cfi_restore 29
	.cfi_restore 19
	.cfi_restore 20
	.cfi_def_cfa_offset 0
	ret
	.cfi_endproc
.LFE2774:
	.size	_ZN8opendnp325StateSolicitedConfirmWait19OnRepeatReadRequestERNS_8OContextERKNS_10APDUHeaderERKN7openpal6RSliceE, .-_ZN8opendnp325StateSolicitedConfirmWait19OnRepeatReadRequestERNS_8OContextERKNS_10APDUHeaderERKN7openpal6RSliceE
	.align	2
	.p2align 4,,11
	.global	_ZN8opendnp327StateUnsolicitedConfirmWait16OnNewReadRequestERNS_8OContextERKNS_10APDUHeaderERKN7openpal6RSliceE
	.type	_ZN8opendnp327StateUnsolicitedConfirmWait16OnNewReadRequestERNS_8OContextERKNS_10APDUHeaderERKN7openpal6RSliceE, %function
_ZN8opendnp327StateUnsolicitedConfirmWait16OnNewReadRequestERNS_8OContextERKNS_10APDUHeaderERKN7openpal6RSliceE:
.LFB2777:
	.cfi_startproc
	stp	x29, x30, [sp, -32]!
	.cfi_def_cfa_offset 32
	.cfi_offset 29, -32
	.cfi_offset 30, -24
	mov	x4, x2
	mov	x29, sp
	ldrb	w7, [x4, 1]
	ldrb	w6, [x4, 2]
	ldrb	w5, [x4, 3]
	ldp	x2, x3, [x3]
	str	x19, [sp, 16]
	.cfi_offset 19, -16
	mov	x19, x0
	add	x0, x1, 760
	ldrb	w1, [x4]
	orr	x7, x1, x7, lsl 8
	ldrb	w1, [x4, 4]
	orr	x6, x7, x6, lsl 16
	ldrb	w7, [x4, 5]
	orr	x4, x6, x5, lsl 24
	orr	x1, x4, x1, lsl 32
	orr	x1, x1, x7, lsl 40
	bl	_ZN8opendnp315DeferredRequest3SetENS_10APDUHeaderEN7openpal6RSliceE
	mov	x0, x19
	ldr	x19, [sp, 16]
	ldp	x29, x30, [sp], 32
	.cfi_restore 30
	.cfi_restore 29
	.cfi_restore 19
	.cfi_def_cfa_offset 0
	ret
	.cfi_endproc
.LFE2777:
	.size	_ZN8opendnp327StateUnsolicitedConfirmWait16OnNewReadRequestERNS_8OContextERKNS_10APDUHeaderERKN7openpal6RSliceE, .-_ZN8opendnp327StateUnsolicitedConfirmWait16OnNewReadRequestERNS_8OContextERKNS_10APDUHeaderERKN7openpal6RSliceE
	.global	_ZN8opendnp327StateUnsolicitedConfirmWait19OnRepeatReadRequestERNS_8OContextERKNS_10APDUHeaderERKN7openpal6RSliceE
	.set	_ZN8opendnp327StateUnsolicitedConfirmWait19OnRepeatReadRequestERNS_8OContextERKNS_10APDUHeaderERKN7openpal6RSliceE,_ZN8opendnp327StateUnsolicitedConfirmWait16OnNewReadRequestERNS_8OContextERKNS_10APDUHeaderERKN7openpal6RSliceE
	.align	2
	.p2align 4,,11
	.global	_ZN8opendnp327StateUnsolicitedConfirmWait19OnNewNonReadRequestERNS_8OContextERKNS_10APDUHeaderERKN7openpal6RSliceE
	.type	_ZN8opendnp327StateUnsolicitedConfirmWait19OnNewNonReadRequestERNS_8OContextERKNS_10APDUHeaderERKN7openpal6RSliceE, %function
_ZN8opendnp327StateUnsolicitedConfirmWait19OnNewNonReadRequestERNS_8OContextERKNS_10APDUHeaderERKN7openpal6RSliceE:
.LFB2778:
	.cfi_startproc
	stp	x29, x30, [sp, -48]!
	.cfi_def_cfa_offset 48
	.cfi_offset 29, -48
	.cfi_offset 30, -40
	mov	x29, sp
	stp	x19, x20, [sp, 16]
	.cfi_offset 19, -32
	.cfi_offset 20, -24
	mov	x19, x1
	mov	x20, x0
	add	x0, x1, 760
	stp	x21, x22, [sp, 32]
	.cfi_offset 21, -16
	.cfi_offset 22, -8
	mov	x22, x3
	mov	x21, x2
	bl	_ZN8opendnp315DeferredRequest5ResetEv
	mov	x2, x22
	mov	x1, x21
	mov	x0, x19
	bl	_ZN8opendnp38OContext23RespondToNonReadRequestERKNS_10APDUHeaderERKN7openpal6RSliceE
	mov	x0, x20
	ldp	x19, x20, [sp, 16]
	ldp	x21, x22, [sp, 32]
	ldp	x29, x30, [sp], 48
	.cfi_restore 30
	.cfi_restore 29
	.cfi_restore 21
	.cfi_restore 22
	.cfi_restore 19
	.cfi_restore 20
	.cfi_def_cfa_offset 0
	ret
	.cfi_endproc
.LFE2778:
	.size	_ZN8opendnp327StateUnsolicitedConfirmWait19OnNewNonReadRequestERNS_8OContextERKNS_10APDUHeaderERKN7openpal6RSliceE, .-_ZN8opendnp327StateUnsolicitedConfirmWait19OnNewNonReadRequestERNS_8OContextERKNS_10APDUHeaderERKN7openpal6RSliceE
	.section	.text.startup,"ax",@progbits
	.align	2
	.p2align 4,,11
	.type	_GLOBAL__sub_I_OutstationStates.cpp, %function
_GLOBAL__sub_I_OutstationStates.cpp:
.LFB3619:
	.cfi_startproc
	stp	x29, x30, [sp, -32]!
	.cfi_def_cfa_offset 32
	.cfi_offset 29, -32
	.cfi_offset 30, -24
	mov	x0, 5000
	mov	x29, sp
	str	x19, [sp, 16]
	.cfi_offset 19, -16
	bl	_ZN7openpal12TimeDuration12MillisecondsEl
	adrp	x1, :got:_ZN8opendnp39StateIdle8instanceE
	adrp	x3, :got:_ZTVN8opendnp39StateIdleE
	adrp	x0, :got:_ZN8opendnp39StateIdleD1Ev
	adrp	x19, __dso_handle
	ldr	x1, [x1, #:got_lo12:_ZN8opendnp39StateIdle8instanceE]
	add	x19, x19, :lo12:__dso_handle
	ldr	x3, [x3, #:got_lo12:_ZTVN8opendnp39StateIdleE]
	mov	x2, x19
	ldr	x0, [x0, #:got_lo12:_ZN8opendnp39StateIdleD1Ev]
	add	x3, x3, 16
	str	x3, [x1]
	bl	__cxa_atexit
	adrp	x1, :got:_ZN8opendnp325StateSolicitedConfirmWait8instanceE
	adrp	x3, :got:_ZTVN8opendnp325StateSolicitedConfirmWaitE
	adrp	x0, :got:_ZN8opendnp325StateSolicitedConfirmWaitD1Ev
	mov	x2, x19
	ldr	x1, [x1, #:got_lo12:_ZN8opendnp325StateSolicitedConfirmWait8instanceE]
	ldr	x3, [x3, #:got_lo12:_ZTVN8opendnp325StateSolicitedConfirmWaitE]
	ldr	x0, [x0, #:got_lo12:_ZN8opendnp325StateSolicitedConfirmWaitD1Ev]
	add	x3, x3, 16
	str	x3, [x1]
	bl	__cxa_atexit
	adrp	x1, :got:_ZN8opendnp327StateUnsolicitedConfirmWait8instanceE
	adrp	x3, :got:_ZTVN8opendnp327StateUnsolicitedConfirmWaitE
	mov	x2, x19
	adrp	x0, :got:_ZN8opendnp327StateUnsolicitedConfirmWaitD1Ev
	ldr	x1, [x1, #:got_lo12:_ZN8opendnp327StateUnsolicitedConfirmWait8instanceE]
	ldr	x3, [x3, #:got_lo12:_ZTVN8opendnp327StateUnsolicitedConfirmWaitE]
	ldr	x19, [sp, 16]
	add	x3, x3, 16
	str	x3, [x1]
	ldr	x0, [x0, #:got_lo12:_ZN8opendnp327StateUnsolicitedConfirmWaitD1Ev]
	ldp	x29, x30, [sp], 32
	.cfi_restore 30
	.cfi_restore 29
	.cfi_restore 19
	.cfi_def_cfa_offset 0
	b	__cxa_atexit
	.cfi_endproc
.LFE3619:
	.size	_GLOBAL__sub_I_OutstationStates.cpp, .-_GLOBAL__sub_I_OutstationStates.cpp
	.section	.init_array,"aw"
	.align	3
	.xword	_GLOBAL__sub_I_OutstationStates.cpp
	.section	.rodata.str1.8
	.align	3
.LC17:
	.string	"unsolicited confirm timeout"
	.align	3
.LC18:
	.string	"/home/jaehyun/OpenPLC_v3/utils/dnp3_src/cpp/libs/src/opendnp3/outstation/OutstationStates.cpp(175)"
	.text
	.align	2
	.p2align 4,,11
	.global	_ZN8opendnp327StateUnsolicitedConfirmWait16OnConfirmTimeoutERNS_8OContextE
	.type	_ZN8opendnp327StateUnsolicitedConfirmWait16OnConfirmTimeoutERNS_8OContextE, %function
_ZN8opendnp327StateUnsolicitedConfirmWait16OnConfirmTimeoutERNS_8OContextE:
.LFB2776:
	.cfi_startproc
	stp	x29, x30, [sp, -64]!
	.cfi_def_cfa_offset 64
	.cfi_offset 29, -64
	.cfi_offset 30, -56
	adrp	x2, :got:__stack_chk_guard
	mov	x29, sp
	ldr	x2, [x2, #:got_lo12:__stack_chk_guard]
	stp	x19, x20, [sp, 16]
	.cfi_offset 19, -48
	.cfi_offset 20, -40
	mov	x19, x1
	stp	x21, x22, [sp, 32]
	.cfi_offset 21, -32
	.cfi_offset 22, -24
	add	x21, x1, 8
	add	x22, sp, 48
	ldr	x3, [x2]
	str	x3, [sp, 56]
	mov	x3, 0
	mov	w20, 4
	mov	x0, x21
	mov	x1, x22
	str	w20, [sp, 48]
	bl	_ZNK7openpal6Logger9IsEnabledERKNS_10LogFiltersE
	tst	w0, 255
	bne	.L104
	ldrb	w0, [x19, 888]
	cbnz	w0, .L105
.L95:
	adrp	x1, :got:__stack_chk_guard
	adrp	x0, :got:_ZN8opendnp39StateIdle8instanceE
	ldr	x1, [x1, #:got_lo12:__stack_chk_guard]
	ldr	x0, [x0, #:got_lo12:_ZN8opendnp39StateIdle8instanceE]
	ldr	x3, [sp, 56]
	ldr	x2, [x1]
	subs	x3, x3, x2
	mov	x2, 0
	bne	.L106
	ldp	x19, x20, [sp, 16]
	ldp	x21, x22, [sp, 32]
	ldp	x29, x30, [sp], 64
	.cfi_remember_state
	.cfi_restore 30
	.cfi_restore 29
	.cfi_restore 21
	.cfi_restore 22
	.cfi_restore 19
	.cfi_restore 20
	.cfi_def_cfa_offset 0
	ret
	.p2align 2,,3
.L104:
	.cfi_restore_state
	mov	x0, x21
	mov	x1, x22
	adrp	x3, .LC17
	adrp	x2, .LC18
	add	x3, x3, :lo12:.LC17
	add	x2, x2, :lo12:.LC18
	str	w20, [sp, 48]
	bl	_ZN7openpal6Logger3LogERKNS_10LogFiltersEPKcS5_
	ldrb	w0, [x19, 888]
	cbz	w0, .L95
.L105:
	add	x0, x19, 104
	bl	_ZN8opendnp311EventBuffer8UnselectEv
	b	.L95
.L106:
	bl	__stack_chk_fail
	.cfi_endproc
.LFE2776:
	.size	_ZN8opendnp327StateUnsolicitedConfirmWait16OnConfirmTimeoutERNS_8OContextE, .-_ZN8opendnp327StateUnsolicitedConfirmWait16OnConfirmTimeoutERNS_8OContextE
	.weak	_ZTSN7openpal10UncopyableE
	.section	.rodata._ZTSN7openpal10UncopyableE,"aG",@progbits,_ZTSN7openpal10UncopyableE,comdat
	.align	3
	.type	_ZTSN7openpal10UncopyableE, %object
	.size	_ZTSN7openpal10UncopyableE, 23
_ZTSN7openpal10UncopyableE:
	.string	"N7openpal10UncopyableE"
	.weak	_ZTIN7openpal10UncopyableE
	.section	.data.rel.ro._ZTIN7openpal10UncopyableE,"awG",@progbits,_ZTIN7openpal10UncopyableE,comdat
	.align	3
	.type	_ZTIN7openpal10UncopyableE, %object
	.size	_ZTIN7openpal10UncopyableE, 16
_ZTIN7openpal10UncopyableE:
	.xword	_ZTVN10__cxxabiv117__class_type_infoE+16
	.xword	_ZTSN7openpal10UncopyableE
	.weak	_ZTSN8opendnp315OutstationStateE
	.section	.rodata._ZTSN8opendnp315OutstationStateE,"aG",@progbits,_ZTSN8opendnp315OutstationStateE,comdat
	.align	3
	.type	_ZTSN8opendnp315OutstationStateE, %object
	.size	_ZTSN8opendnp315OutstationStateE, 29
_ZTSN8opendnp315OutstationStateE:
	.string	"N8opendnp315OutstationStateE"
	.weak	_ZTIN8opendnp315OutstationStateE
	.section	.data.rel.ro._ZTIN8opendnp315OutstationStateE,"awG",@progbits,_ZTIN8opendnp315OutstationStateE,comdat
	.align	3
	.type	_ZTIN8opendnp315OutstationStateE, %object
	.size	_ZTIN8opendnp315OutstationStateE, 40
_ZTIN8opendnp315OutstationStateE:
	.xword	_ZTVN10__cxxabiv121__vmi_class_type_infoE+16
	.xword	_ZTSN8opendnp315OutstationStateE
	.word	0
	.word	1
	.xword	_ZTIN7openpal10UncopyableE
	.xword	0
	.weak	_ZTSN8opendnp39StateIdleE
	.section	.rodata._ZTSN8opendnp39StateIdleE,"aG",@progbits,_ZTSN8opendnp39StateIdleE,comdat
	.align	3
	.type	_ZTSN8opendnp39StateIdleE, %object
	.size	_ZTSN8opendnp39StateIdleE, 22
_ZTSN8opendnp39StateIdleE:
	.string	"N8opendnp39StateIdleE"
	.weak	_ZTIN8opendnp39StateIdleE
	.section	.data.rel.ro._ZTIN8opendnp39StateIdleE,"awG",@progbits,_ZTIN8opendnp39StateIdleE,comdat
	.align	3
	.type	_ZTIN8opendnp39StateIdleE, %object
	.size	_ZTIN8opendnp39StateIdleE, 24
_ZTIN8opendnp39StateIdleE:
	.xword	_ZTVN10__cxxabiv120__si_class_type_infoE+16
	.xword	_ZTSN8opendnp39StateIdleE
	.xword	_ZTIN8opendnp315OutstationStateE
	.weak	_ZTSN8opendnp325StateSolicitedConfirmWaitE
	.section	.rodata._ZTSN8opendnp325StateSolicitedConfirmWaitE,"aG",@progbits,_ZTSN8opendnp325StateSolicitedConfirmWaitE,comdat
	.align	3
	.type	_ZTSN8opendnp325StateSolicitedConfirmWaitE, %object
	.size	_ZTSN8opendnp325StateSolicitedConfirmWaitE, 39
_ZTSN8opendnp325StateSolicitedConfirmWaitE:
	.string	"N8opendnp325StateSolicitedConfirmWaitE"
	.weak	_ZTIN8opendnp325StateSolicitedConfirmWaitE
	.section	.data.rel.ro._ZTIN8opendnp325StateSolicitedConfirmWaitE,"awG",@progbits,_ZTIN8opendnp325StateSolicitedConfirmWaitE,comdat
	.align	3
	.type	_ZTIN8opendnp325StateSolicitedConfirmWaitE, %object
	.size	_ZTIN8opendnp325StateSolicitedConfirmWaitE, 24
_ZTIN8opendnp325StateSolicitedConfirmWaitE:
	.xword	_ZTVN10__cxxabiv120__si_class_type_infoE+16
	.xword	_ZTSN8opendnp325StateSolicitedConfirmWaitE
	.xword	_ZTIN8opendnp315OutstationStateE
	.weak	_ZTSN8opendnp327StateUnsolicitedConfirmWaitE
	.section	.rodata._ZTSN8opendnp327StateUnsolicitedConfirmWaitE,"aG",@progbits,_ZTSN8opendnp327StateUnsolicitedConfirmWaitE,comdat
	.align	3
	.type	_ZTSN8opendnp327StateUnsolicitedConfirmWaitE, %object
	.size	_ZTSN8opendnp327StateUnsolicitedConfirmWaitE, 41
_ZTSN8opendnp327StateUnsolicitedConfirmWaitE:
	.string	"N8opendnp327StateUnsolicitedConfirmWaitE"
	.weak	_ZTIN8opendnp327StateUnsolicitedConfirmWaitE
	.section	.data.rel.ro._ZTIN8opendnp327StateUnsolicitedConfirmWaitE,"awG",@progbits,_ZTIN8opendnp327StateUnsolicitedConfirmWaitE,comdat
	.align	3
	.type	_ZTIN8opendnp327StateUnsolicitedConfirmWaitE, %object
	.size	_ZTIN8opendnp327StateUnsolicitedConfirmWaitE, 24
_ZTIN8opendnp327StateUnsolicitedConfirmWaitE:
	.xword	_ZTVN10__cxxabiv120__si_class_type_infoE+16
	.xword	_ZTSN8opendnp327StateUnsolicitedConfirmWaitE
	.xword	_ZTIN8opendnp315OutstationStateE
	.weak	_ZTVN8opendnp39StateIdleE
	.section	.data.rel.ro._ZTVN8opendnp39StateIdleE,"awG",@progbits,_ZTVN8opendnp39StateIdleE,comdat
	.align	3
	.type	_ZTVN8opendnp39StateIdleE, %object
	.size	_ZTVN8opendnp39StateIdleE, 80
_ZTVN8opendnp39StateIdleE:
	.xword	0
	.xword	_ZTIN8opendnp39StateIdleE
	.xword	_ZN8opendnp39StateIdle6IsIdleEv
	.xword	_ZN8opendnp39StateIdle4NameEv
	.xword	_ZN8opendnp39StateIdle9OnConfirmERNS_8OContextERKNS_10APDUHeaderE
	.xword	_ZN8opendnp39StateIdle16OnConfirmTimeoutERNS_8OContextE
	.xword	_ZN8opendnp39StateIdle16OnNewReadRequestERNS_8OContextERKNS_10APDUHeaderERKN7openpal6RSliceE
	.xword	_ZN8opendnp39StateIdle19OnNewNonReadRequestERNS_8OContextERKNS_10APDUHeaderERKN7openpal6RSliceE
	.xword	_ZN8opendnp39StateIdle22OnRepeatNonReadRequestERNS_8OContextERKNS_10APDUHeaderERKN7openpal6RSliceE
	.xword	_ZN8opendnp39StateIdle19OnRepeatReadRequestERNS_8OContextERKNS_10APDUHeaderERKN7openpal6RSliceE
	.weak	_ZTVN8opendnp325StateSolicitedConfirmWaitE
	.section	.data.rel.ro._ZTVN8opendnp325StateSolicitedConfirmWaitE,"awG",@progbits,_ZTVN8opendnp325StateSolicitedConfirmWaitE,comdat
	.align	3
	.type	_ZTVN8opendnp325StateSolicitedConfirmWaitE, %object
	.size	_ZTVN8opendnp325StateSolicitedConfirmWaitE, 80
_ZTVN8opendnp325StateSolicitedConfirmWaitE:
	.xword	0
	.xword	_ZTIN8opendnp325StateSolicitedConfirmWaitE
	.xword	_ZN8opendnp315OutstationState6IsIdleEv
	.xword	_ZN8opendnp325StateSolicitedConfirmWait4NameEv
	.xword	_ZN8opendnp325StateSolicitedConfirmWait9OnConfirmERNS_8OContextERKNS_10APDUHeaderE
	.xword	_ZN8opendnp325StateSolicitedConfirmWait16OnConfirmTimeoutERNS_8OContextE
	.xword	_ZN8opendnp325StateSolicitedConfirmWait16OnNewReadRequestERNS_8OContextERKNS_10APDUHeaderERKN7openpal6RSliceE
	.xword	_ZN8opendnp325StateSolicitedConfirmWait19OnNewNonReadRequestERNS_8OContextERKNS_10APDUHeaderERKN7openpal6RSliceE
	.xword	_ZN8opendnp325StateSolicitedConfirmWait22OnRepeatNonReadRequestERNS_8OContextERKNS_10APDUHeaderERKN7openpal6RSliceE
	.xword	_ZN8opendnp325StateSolicitedConfirmWait19OnRepeatReadRequestERNS_8OContextERKNS_10APDUHeaderERKN7openpal6RSliceE
	.weak	_ZTVN8opendnp327StateUnsolicitedConfirmWaitE
	.section	.data.rel.ro._ZTVN8opendnp327StateUnsolicitedConfirmWaitE,"awG",@progbits,_ZTVN8opendnp327StateUnsolicitedConfirmWaitE,comdat
	.align	3
	.type	_ZTVN8opendnp327StateUnsolicitedConfirmWaitE, %object
	.size	_ZTVN8opendnp327StateUnsolicitedConfirmWaitE, 80
_ZTVN8opendnp327StateUnsolicitedConfirmWaitE:
	.xword	0
	.xword	_ZTIN8opendnp327StateUnsolicitedConfirmWaitE
	.xword	_ZN8opendnp315OutstationState6IsIdleEv
	.xword	_ZN8opendnp327StateUnsolicitedConfirmWait4NameEv
	.xword	_ZN8opendnp327StateUnsolicitedConfirmWait9OnConfirmERNS_8OContextERKNS_10APDUHeaderE
	.xword	_ZN8opendnp327StateUnsolicitedConfirmWait16OnConfirmTimeoutERNS_8OContextE
	.xword	_ZN8opendnp327StateUnsolicitedConfirmWait16OnNewReadRequestERNS_8OContextERKNS_10APDUHeaderERKN7openpal6RSliceE
	.xword	_ZN8opendnp327StateUnsolicitedConfirmWait19OnNewNonReadRequestERNS_8OContextERKNS_10APDUHeaderERKN7openpal6RSliceE
	.xword	_ZN8opendnp327StateUnsolicitedConfirmWait22OnRepeatNonReadRequestERNS_8OContextERKNS_10APDUHeaderERKN7openpal6RSliceE
	.xword	_ZN8opendnp327StateUnsolicitedConfirmWait19OnRepeatReadRequestERNS_8OContextERKNS_10APDUHeaderERKN7openpal6RSliceE
	.global	_ZN8opendnp327StateUnsolicitedConfirmWait8instanceE
	.global	_ZN8opendnp325StateSolicitedConfirmWait8instanceE
	.global	_ZN8opendnp39StateIdle8instanceE
	.bss
	.align	3
	.type	_ZN8opendnp327StateUnsolicitedConfirmWait8instanceE, %object
	.size	_ZN8opendnp327StateUnsolicitedConfirmWait8instanceE, 8
_ZN8opendnp327StateUnsolicitedConfirmWait8instanceE:
	.zero	8
	.type	_ZN8opendnp325StateSolicitedConfirmWait8instanceE, %object
	.size	_ZN8opendnp325StateSolicitedConfirmWait8instanceE, 8
_ZN8opendnp325StateSolicitedConfirmWait8instanceE:
	.zero	8
	.type	_ZN8opendnp39StateIdle8instanceE, %object
	.size	_ZN8opendnp39StateIdle8instanceE, 8
_ZN8opendnp39StateIdle8instanceE:
	.zero	8
	.hidden	__dso_handle
	.ident	"GCC: (Ubuntu 11.4.0-1ubuntu1~22.04) 11.4.0"
	.section	.note.GNU-stack,"",@progbits
