	.arch armv8-a
	.file	"SimpleCommandHandler.cpp"
	.text
	.section	.text._ZN8opendnp320SimpleCommandHandler8DoSelectERKNS_23ControlRelayOutputBlockEt,"axG",@progbits,_ZN8opendnp320SimpleCommandHandler8DoSelectERKNS_23ControlRelayOutputBlockEt,comdat
	.align	2
	.p2align 4,,11
	.weak	_ZN8opendnp320SimpleCommandHandler8DoSelectERKNS_23ControlRelayOutputBlockEt
	.type	_ZN8opendnp320SimpleCommandHandler8DoSelectERKNS_23ControlRelayOutputBlockEt, %function
_ZN8opendnp320SimpleCommandHandler8DoSelectERKNS_23ControlRelayOutputBlockEt:
.LFB1667:
	.cfi_startproc
	ret
	.cfi_endproc
.LFE1667:
	.size	_ZN8opendnp320SimpleCommandHandler8DoSelectERKNS_23ControlRelayOutputBlockEt, .-_ZN8opendnp320SimpleCommandHandler8DoSelectERKNS_23ControlRelayOutputBlockEt
	.section	.text._ZN8opendnp320SimpleCommandHandler9DoOperateERKNS_23ControlRelayOutputBlockEtNS_11OperateTypeE,"axG",@progbits,_ZN8opendnp320SimpleCommandHandler9DoOperateERKNS_23ControlRelayOutputBlockEtNS_11OperateTypeE,comdat
	.align	2
	.p2align 4,,11
	.weak	_ZN8opendnp320SimpleCommandHandler9DoOperateERKNS_23ControlRelayOutputBlockEtNS_11OperateTypeE
	.type	_ZN8opendnp320SimpleCommandHandler9DoOperateERKNS_23ControlRelayOutputBlockEtNS_11OperateTypeE, %function
_ZN8opendnp320SimpleCommandHandler9DoOperateERKNS_23ControlRelayOutputBlockEtNS_11OperateTypeE:
.LFB1668:
	.cfi_startproc
	ret
	.cfi_endproc
.LFE1668:
	.size	_ZN8opendnp320SimpleCommandHandler9DoOperateERKNS_23ControlRelayOutputBlockEtNS_11OperateTypeE, .-_ZN8opendnp320SimpleCommandHandler9DoOperateERKNS_23ControlRelayOutputBlockEtNS_11OperateTypeE
	.section	.text._ZN8opendnp320SimpleCommandHandler8DoSelectERKNS_17AnalogOutputInt16Et,"axG",@progbits,_ZN8opendnp320SimpleCommandHandler8DoSelectERKNS_17AnalogOutputInt16Et,comdat
	.align	2
	.p2align 4,,11
	.weak	_ZN8opendnp320SimpleCommandHandler8DoSelectERKNS_17AnalogOutputInt16Et
	.type	_ZN8opendnp320SimpleCommandHandler8DoSelectERKNS_17AnalogOutputInt16Et, %function
_ZN8opendnp320SimpleCommandHandler8DoSelectERKNS_17AnalogOutputInt16Et:
.LFB1669:
	.cfi_startproc
	ret
	.cfi_endproc
.LFE1669:
	.size	_ZN8opendnp320SimpleCommandHandler8DoSelectERKNS_17AnalogOutputInt16Et, .-_ZN8opendnp320SimpleCommandHandler8DoSelectERKNS_17AnalogOutputInt16Et
	.section	.text._ZN8opendnp320SimpleCommandHandler9DoOperateERKNS_17AnalogOutputInt16EtNS_11OperateTypeE,"axG",@progbits,_ZN8opendnp320SimpleCommandHandler9DoOperateERKNS_17AnalogOutputInt16EtNS_11OperateTypeE,comdat
	.align	2
	.p2align 4,,11
	.weak	_ZN8opendnp320SimpleCommandHandler9DoOperateERKNS_17AnalogOutputInt16EtNS_11OperateTypeE
	.type	_ZN8opendnp320SimpleCommandHandler9DoOperateERKNS_17AnalogOutputInt16EtNS_11OperateTypeE, %function
_ZN8opendnp320SimpleCommandHandler9DoOperateERKNS_17AnalogOutputInt16EtNS_11OperateTypeE:
.LFB1670:
	.cfi_startproc
	ret
	.cfi_endproc
.LFE1670:
	.size	_ZN8opendnp320SimpleCommandHandler9DoOperateERKNS_17AnalogOutputInt16EtNS_11OperateTypeE, .-_ZN8opendnp320SimpleCommandHandler9DoOperateERKNS_17AnalogOutputInt16EtNS_11OperateTypeE
	.section	.text._ZN8opendnp320SimpleCommandHandler8DoSelectERKNS_17AnalogOutputInt32Et,"axG",@progbits,_ZN8opendnp320SimpleCommandHandler8DoSelectERKNS_17AnalogOutputInt32Et,comdat
	.align	2
	.p2align 4,,11
	.weak	_ZN8opendnp320SimpleCommandHandler8DoSelectERKNS_17AnalogOutputInt32Et
	.type	_ZN8opendnp320SimpleCommandHandler8DoSelectERKNS_17AnalogOutputInt32Et, %function
_ZN8opendnp320SimpleCommandHandler8DoSelectERKNS_17AnalogOutputInt32Et:
.LFB1671:
	.cfi_startproc
	ret
	.cfi_endproc
.LFE1671:
	.size	_ZN8opendnp320SimpleCommandHandler8DoSelectERKNS_17AnalogOutputInt32Et, .-_ZN8opendnp320SimpleCommandHandler8DoSelectERKNS_17AnalogOutputInt32Et
	.section	.text._ZN8opendnp320SimpleCommandHandler9DoOperateERKNS_17AnalogOutputInt32EtNS_11OperateTypeE,"axG",@progbits,_ZN8opendnp320SimpleCommandHandler9DoOperateERKNS_17AnalogOutputInt32EtNS_11OperateTypeE,comdat
	.align	2
	.p2align 4,,11
	.weak	_ZN8opendnp320SimpleCommandHandler9DoOperateERKNS_17AnalogOutputInt32EtNS_11OperateTypeE
	.type	_ZN8opendnp320SimpleCommandHandler9DoOperateERKNS_17AnalogOutputInt32EtNS_11OperateTypeE, %function
_ZN8opendnp320SimpleCommandHandler9DoOperateERKNS_17AnalogOutputInt32EtNS_11OperateTypeE:
.LFB1672:
	.cfi_startproc
	ret
	.cfi_endproc
.LFE1672:
	.size	_ZN8opendnp320SimpleCommandHandler9DoOperateERKNS_17AnalogOutputInt32EtNS_11OperateTypeE, .-_ZN8opendnp320SimpleCommandHandler9DoOperateERKNS_17AnalogOutputInt32EtNS_11OperateTypeE
	.section	.text._ZN8opendnp320SimpleCommandHandler8DoSelectERKNS_19AnalogOutputFloat32Et,"axG",@progbits,_ZN8opendnp320SimpleCommandHandler8DoSelectERKNS_19AnalogOutputFloat32Et,comdat
	.align	2
	.p2align 4,,11
	.weak	_ZN8opendnp320SimpleCommandHandler8DoSelectERKNS_19AnalogOutputFloat32Et
	.type	_ZN8opendnp320SimpleCommandHandler8DoSelectERKNS_19AnalogOutputFloat32Et, %function
_ZN8opendnp320SimpleCommandHandler8DoSelectERKNS_19AnalogOutputFloat32Et:
.LFB1673:
	.cfi_startproc
	ret
	.cfi_endproc
.LFE1673:
	.size	_ZN8opendnp320SimpleCommandHandler8DoSelectERKNS_19AnalogOutputFloat32Et, .-_ZN8opendnp320SimpleCommandHandler8DoSelectERKNS_19AnalogOutputFloat32Et
	.section	.text._ZN8opendnp320SimpleCommandHandler9DoOperateERKNS_19AnalogOutputFloat32EtNS_11OperateTypeE,"axG",@progbits,_ZN8opendnp320SimpleCommandHandler9DoOperateERKNS_19AnalogOutputFloat32EtNS_11OperateTypeE,comdat
	.align	2
	.p2align 4,,11
	.weak	_ZN8opendnp320SimpleCommandHandler9DoOperateERKNS_19AnalogOutputFloat32EtNS_11OperateTypeE
	.type	_ZN8opendnp320SimpleCommandHandler9DoOperateERKNS_19AnalogOutputFloat32EtNS_11OperateTypeE, %function
_ZN8opendnp320SimpleCommandHandler9DoOperateERKNS_19AnalogOutputFloat32EtNS_11OperateTypeE:
.LFB1674:
	.cfi_startproc
	ret
	.cfi_endproc
.LFE1674:
	.size	_ZN8opendnp320SimpleCommandHandler9DoOperateERKNS_19AnalogOutputFloat32EtNS_11OperateTypeE, .-_ZN8opendnp320SimpleCommandHandler9DoOperateERKNS_19AnalogOutputFloat32EtNS_11OperateTypeE
	.section	.text._ZN8opendnp320SimpleCommandHandler8DoSelectERKNS_20AnalogOutputDouble64Et,"axG",@progbits,_ZN8opendnp320SimpleCommandHandler8DoSelectERKNS_20AnalogOutputDouble64Et,comdat
	.align	2
	.p2align 4,,11
	.weak	_ZN8opendnp320SimpleCommandHandler8DoSelectERKNS_20AnalogOutputDouble64Et
	.type	_ZN8opendnp320SimpleCommandHandler8DoSelectERKNS_20AnalogOutputDouble64Et, %function
_ZN8opendnp320SimpleCommandHandler8DoSelectERKNS_20AnalogOutputDouble64Et:
.LFB1675:
	.cfi_startproc
	ret
	.cfi_endproc
.LFE1675:
	.size	_ZN8opendnp320SimpleCommandHandler8DoSelectERKNS_20AnalogOutputDouble64Et, .-_ZN8opendnp320SimpleCommandHandler8DoSelectERKNS_20AnalogOutputDouble64Et
	.section	.text._ZN8opendnp320SimpleCommandHandler9DoOperateERKNS_20AnalogOutputDouble64EtNS_11OperateTypeE,"axG",@progbits,_ZN8opendnp320SimpleCommandHandler9DoOperateERKNS_20AnalogOutputDouble64EtNS_11OperateTypeE,comdat
	.align	2
	.p2align 4,,11
	.weak	_ZN8opendnp320SimpleCommandHandler9DoOperateERKNS_20AnalogOutputDouble64EtNS_11OperateTypeE
	.type	_ZN8opendnp320SimpleCommandHandler9DoOperateERKNS_20AnalogOutputDouble64EtNS_11OperateTypeE, %function
_ZN8opendnp320SimpleCommandHandler9DoOperateERKNS_20AnalogOutputDouble64EtNS_11OperateTypeE:
.LFB1676:
	.cfi_startproc
	ret
	.cfi_endproc
.LFE1676:
	.size	_ZN8opendnp320SimpleCommandHandler9DoOperateERKNS_20AnalogOutputDouble64EtNS_11OperateTypeE, .-_ZN8opendnp320SimpleCommandHandler9DoOperateERKNS_20AnalogOutputDouble64EtNS_11OperateTypeE
	.section	.text._ZN8opendnp320SimpleCommandHandlerD2Ev,"axG",@progbits,_ZN8opendnp320SimpleCommandHandlerD5Ev,comdat
	.align	2
	.p2align 4,,11
	.weak	_ZN8opendnp320SimpleCommandHandlerD2Ev
	.type	_ZN8opendnp320SimpleCommandHandlerD2Ev, %function
_ZN8opendnp320SimpleCommandHandlerD2Ev:
.LFB1694:
	.cfi_startproc
	ret
	.cfi_endproc
.LFE1694:
	.size	_ZN8opendnp320SimpleCommandHandlerD2Ev, .-_ZN8opendnp320SimpleCommandHandlerD2Ev
	.weak	_ZN8opendnp320SimpleCommandHandlerD1Ev
	.set	_ZN8opendnp320SimpleCommandHandlerD1Ev,_ZN8opendnp320SimpleCommandHandlerD2Ev
	.text
	.align	2
	.p2align 4,,11
	.global	_ZN8opendnp320SimpleCommandHandler5StartEv
	.type	_ZN8opendnp320SimpleCommandHandler5StartEv, %function
_ZN8opendnp320SimpleCommandHandler5StartEv:
.LFB1718:
	.cfi_startproc
	ldr	w1, [x0, 20]
	add	w1, w1, 1
	str	w1, [x0, 20]
	ret
	.cfi_endproc
.LFE1718:
	.size	_ZN8opendnp320SimpleCommandHandler5StartEv, .-_ZN8opendnp320SimpleCommandHandler5StartEv
	.align	2
	.p2align 4,,11
	.global	_ZN8opendnp320SimpleCommandHandler3EndEv
	.type	_ZN8opendnp320SimpleCommandHandler3EndEv, %function
_ZN8opendnp320SimpleCommandHandler3EndEv:
.LFB1719:
	.cfi_startproc
	ldr	w1, [x0, 24]
	add	w1, w1, 1
	str	w1, [x0, 24]
	ret
	.cfi_endproc
.LFE1719:
	.size	_ZN8opendnp320SimpleCommandHandler3EndEv, .-_ZN8opendnp320SimpleCommandHandler3EndEv
	.section	.text._ZN8opendnp320SimpleCommandHandlerD0Ev,"axG",@progbits,_ZN8opendnp320SimpleCommandHandlerD5Ev,comdat
	.align	2
	.p2align 4,,11
	.weak	_ZN8opendnp320SimpleCommandHandlerD0Ev
	.type	_ZN8opendnp320SimpleCommandHandlerD0Ev, %function
_ZN8opendnp320SimpleCommandHandlerD0Ev:
.LFB1696:
	.cfi_startproc
	mov	x1, 32
	b	_ZdlPvm
	.cfi_endproc
.LFE1696:
	.size	_ZN8opendnp320SimpleCommandHandlerD0Ev, .-_ZN8opendnp320SimpleCommandHandlerD0Ev
	.text
	.align	2
	.p2align 4,,11
	.global	_ZN8opendnp320SimpleCommandHandler7OperateERKNS_20AnalogOutputDouble64EtNS_11OperateTypeE
	.type	_ZN8opendnp320SimpleCommandHandler7OperateERKNS_20AnalogOutputDouble64EtNS_11OperateTypeE, %function
_ZN8opendnp320SimpleCommandHandler7OperateERKNS_20AnalogOutputDouble64EtNS_11OperateTypeE:
.LFB1717:
	.cfi_startproc
	stp	x29, x30, [sp, -32]!
	.cfi_def_cfa_offset 32
	.cfi_offset 29, -32
	.cfi_offset 30, -24
	adrp	x4, :got:_ZN8opendnp320SimpleCommandHandler9DoOperateERKNS_20AnalogOutputDouble64EtNS_11OperateTypeE
	mov	x29, sp
	ldr	x5, [x0]
	ldr	x4, [x4, #:got_lo12:_ZN8opendnp320SimpleCommandHandler9DoOperateERKNS_20AnalogOutputDouble64EtNS_11OperateTypeE]
	ldr	x5, [x5, 184]
	str	x19, [sp, 16]
	.cfi_offset 19, -16
	mov	x19, x0
	cmp	x5, x4
	bne	.L19
	ldr	w1, [x19, 12]
	ldrb	w0, [x19, 8]
	add	w1, w1, 1
	str	w1, [x19, 12]
	ldr	x19, [sp, 16]
	ldp	x29, x30, [sp], 32
	.cfi_remember_state
	.cfi_restore 30
	.cfi_restore 29
	.cfi_restore 19
	.cfi_def_cfa_offset 0
	ret
	.p2align 2,,3
.L19:
	.cfi_restore_state
	and	w2, w2, 65535
	and	w3, w3, 255
	blr	x5
	ldr	w1, [x19, 12]
	ldrb	w0, [x19, 8]
	add	w1, w1, 1
	str	w1, [x19, 12]
	ldr	x19, [sp, 16]
	ldp	x29, x30, [sp], 32
	.cfi_restore 30
	.cfi_restore 29
	.cfi_restore 19
	.cfi_def_cfa_offset 0
	ret
	.cfi_endproc
.LFE1717:
	.size	_ZN8opendnp320SimpleCommandHandler7OperateERKNS_20AnalogOutputDouble64EtNS_11OperateTypeE, .-_ZN8opendnp320SimpleCommandHandler7OperateERKNS_20AnalogOutputDouble64EtNS_11OperateTypeE
	.align	2
	.p2align 4,,11
	.global	_ZN8opendnp320SimpleCommandHandler6SelectERKNS_20AnalogOutputDouble64Et
	.type	_ZN8opendnp320SimpleCommandHandler6SelectERKNS_20AnalogOutputDouble64Et, %function
_ZN8opendnp320SimpleCommandHandler6SelectERKNS_20AnalogOutputDouble64Et:
.LFB1716:
	.cfi_startproc
	stp	x29, x30, [sp, -32]!
	.cfi_def_cfa_offset 32
	.cfi_offset 29, -32
	.cfi_offset 30, -24
	adrp	x3, :got:_ZN8opendnp320SimpleCommandHandler8DoSelectERKNS_20AnalogOutputDouble64Et
	mov	x29, sp
	ldr	x4, [x0]
	ldr	x3, [x3, #:got_lo12:_ZN8opendnp320SimpleCommandHandler8DoSelectERKNS_20AnalogOutputDouble64Et]
	ldr	x4, [x4, 176]
	str	x19, [sp, 16]
	.cfi_offset 19, -16
	mov	x19, x0
	cmp	x4, x3
	bne	.L23
	ldr	w1, [x19, 16]
	ldrb	w0, [x19, 8]
	add	w1, w1, 1
	str	w1, [x19, 16]
	ldr	x19, [sp, 16]
	ldp	x29, x30, [sp], 32
	.cfi_remember_state
	.cfi_restore 30
	.cfi_restore 29
	.cfi_restore 19
	.cfi_def_cfa_offset 0
	ret
	.p2align 2,,3
.L23:
	.cfi_restore_state
	and	w2, w2, 65535
	blr	x4
	ldr	w1, [x19, 16]
	ldrb	w0, [x19, 8]
	add	w1, w1, 1
	str	w1, [x19, 16]
	ldr	x19, [sp, 16]
	ldp	x29, x30, [sp], 32
	.cfi_restore 30
	.cfi_restore 29
	.cfi_restore 19
	.cfi_def_cfa_offset 0
	ret
	.cfi_endproc
.LFE1716:
	.size	_ZN8opendnp320SimpleCommandHandler6SelectERKNS_20AnalogOutputDouble64Et, .-_ZN8opendnp320SimpleCommandHandler6SelectERKNS_20AnalogOutputDouble64Et
	.align	2
	.p2align 4,,11
	.global	_ZN8opendnp320SimpleCommandHandler7OperateERKNS_19AnalogOutputFloat32EtNS_11OperateTypeE
	.type	_ZN8opendnp320SimpleCommandHandler7OperateERKNS_19AnalogOutputFloat32EtNS_11OperateTypeE, %function
_ZN8opendnp320SimpleCommandHandler7OperateERKNS_19AnalogOutputFloat32EtNS_11OperateTypeE:
.LFB1715:
	.cfi_startproc
	stp	x29, x30, [sp, -32]!
	.cfi_def_cfa_offset 32
	.cfi_offset 29, -32
	.cfi_offset 30, -24
	adrp	x4, :got:_ZN8opendnp320SimpleCommandHandler9DoOperateERKNS_19AnalogOutputFloat32EtNS_11OperateTypeE
	mov	x29, sp
	ldr	x5, [x0]
	ldr	x4, [x4, #:got_lo12:_ZN8opendnp320SimpleCommandHandler9DoOperateERKNS_19AnalogOutputFloat32EtNS_11OperateTypeE]
	ldr	x5, [x5, 168]
	str	x19, [sp, 16]
	.cfi_offset 19, -16
	mov	x19, x0
	cmp	x5, x4
	bne	.L27
	ldr	w1, [x19, 12]
	ldrb	w0, [x19, 8]
	add	w1, w1, 1
	str	w1, [x19, 12]
	ldr	x19, [sp, 16]
	ldp	x29, x30, [sp], 32
	.cfi_remember_state
	.cfi_restore 30
	.cfi_restore 29
	.cfi_restore 19
	.cfi_def_cfa_offset 0
	ret
	.p2align 2,,3
.L27:
	.cfi_restore_state
	and	w2, w2, 65535
	and	w3, w3, 255
	blr	x5
	ldr	w1, [x19, 12]
	ldrb	w0, [x19, 8]
	add	w1, w1, 1
	str	w1, [x19, 12]
	ldr	x19, [sp, 16]
	ldp	x29, x30, [sp], 32
	.cfi_restore 30
	.cfi_restore 29
	.cfi_restore 19
	.cfi_def_cfa_offset 0
	ret
	.cfi_endproc
.LFE1715:
	.size	_ZN8opendnp320SimpleCommandHandler7OperateERKNS_19AnalogOutputFloat32EtNS_11OperateTypeE, .-_ZN8opendnp320SimpleCommandHandler7OperateERKNS_19AnalogOutputFloat32EtNS_11OperateTypeE
	.align	2
	.p2align 4,,11
	.global	_ZN8opendnp320SimpleCommandHandler6SelectERKNS_19AnalogOutputFloat32Et
	.type	_ZN8opendnp320SimpleCommandHandler6SelectERKNS_19AnalogOutputFloat32Et, %function
_ZN8opendnp320SimpleCommandHandler6SelectERKNS_19AnalogOutputFloat32Et:
.LFB1714:
	.cfi_startproc
	stp	x29, x30, [sp, -32]!
	.cfi_def_cfa_offset 32
	.cfi_offset 29, -32
	.cfi_offset 30, -24
	adrp	x3, :got:_ZN8opendnp320SimpleCommandHandler8DoSelectERKNS_19AnalogOutputFloat32Et
	mov	x29, sp
	ldr	x4, [x0]
	ldr	x3, [x3, #:got_lo12:_ZN8opendnp320SimpleCommandHandler8DoSelectERKNS_19AnalogOutputFloat32Et]
	ldr	x4, [x4, 160]
	str	x19, [sp, 16]
	.cfi_offset 19, -16
	mov	x19, x0
	cmp	x4, x3
	bne	.L31
	ldr	w1, [x19, 16]
	ldrb	w0, [x19, 8]
	add	w1, w1, 1
	str	w1, [x19, 16]
	ldr	x19, [sp, 16]
	ldp	x29, x30, [sp], 32
	.cfi_remember_state
	.cfi_restore 30
	.cfi_restore 29
	.cfi_restore 19
	.cfi_def_cfa_offset 0
	ret
	.p2align 2,,3
.L31:
	.cfi_restore_state
	and	w2, w2, 65535
	blr	x4
	ldr	w1, [x19, 16]
	ldrb	w0, [x19, 8]
	add	w1, w1, 1
	str	w1, [x19, 16]
	ldr	x19, [sp, 16]
	ldp	x29, x30, [sp], 32
	.cfi_restore 30
	.cfi_restore 29
	.cfi_restore 19
	.cfi_def_cfa_offset 0
	ret
	.cfi_endproc
.LFE1714:
	.size	_ZN8opendnp320SimpleCommandHandler6SelectERKNS_19AnalogOutputFloat32Et, .-_ZN8opendnp320SimpleCommandHandler6SelectERKNS_19AnalogOutputFloat32Et
	.align	2
	.p2align 4,,11
	.global	_ZN8opendnp320SimpleCommandHandler7OperateERKNS_17AnalogOutputInt32EtNS_11OperateTypeE
	.type	_ZN8opendnp320SimpleCommandHandler7OperateERKNS_17AnalogOutputInt32EtNS_11OperateTypeE, %function
_ZN8opendnp320SimpleCommandHandler7OperateERKNS_17AnalogOutputInt32EtNS_11OperateTypeE:
.LFB1713:
	.cfi_startproc
	stp	x29, x30, [sp, -32]!
	.cfi_def_cfa_offset 32
	.cfi_offset 29, -32
	.cfi_offset 30, -24
	adrp	x4, :got:_ZN8opendnp320SimpleCommandHandler9DoOperateERKNS_17AnalogOutputInt32EtNS_11OperateTypeE
	mov	x29, sp
	ldr	x5, [x0]
	ldr	x4, [x4, #:got_lo12:_ZN8opendnp320SimpleCommandHandler9DoOperateERKNS_17AnalogOutputInt32EtNS_11OperateTypeE]
	ldr	x5, [x5, 152]
	str	x19, [sp, 16]
	.cfi_offset 19, -16
	mov	x19, x0
	cmp	x5, x4
	bne	.L35
	ldr	w1, [x19, 12]
	ldrb	w0, [x19, 8]
	add	w1, w1, 1
	str	w1, [x19, 12]
	ldr	x19, [sp, 16]
	ldp	x29, x30, [sp], 32
	.cfi_remember_state
	.cfi_restore 30
	.cfi_restore 29
	.cfi_restore 19
	.cfi_def_cfa_offset 0
	ret
	.p2align 2,,3
.L35:
	.cfi_restore_state
	and	w2, w2, 65535
	and	w3, w3, 255
	blr	x5
	ldr	w1, [x19, 12]
	ldrb	w0, [x19, 8]
	add	w1, w1, 1
	str	w1, [x19, 12]
	ldr	x19, [sp, 16]
	ldp	x29, x30, [sp], 32
	.cfi_restore 30
	.cfi_restore 29
	.cfi_restore 19
	.cfi_def_cfa_offset 0
	ret
	.cfi_endproc
.LFE1713:
	.size	_ZN8opendnp320SimpleCommandHandler7OperateERKNS_17AnalogOutputInt32EtNS_11OperateTypeE, .-_ZN8opendnp320SimpleCommandHandler7OperateERKNS_17AnalogOutputInt32EtNS_11OperateTypeE
	.align	2
	.p2align 4,,11
	.global	_ZN8opendnp320SimpleCommandHandler6SelectERKNS_17AnalogOutputInt32Et
	.type	_ZN8opendnp320SimpleCommandHandler6SelectERKNS_17AnalogOutputInt32Et, %function
_ZN8opendnp320SimpleCommandHandler6SelectERKNS_17AnalogOutputInt32Et:
.LFB1712:
	.cfi_startproc
	stp	x29, x30, [sp, -32]!
	.cfi_def_cfa_offset 32
	.cfi_offset 29, -32
	.cfi_offset 30, -24
	adrp	x3, :got:_ZN8opendnp320SimpleCommandHandler8DoSelectERKNS_17AnalogOutputInt32Et
	mov	x29, sp
	ldr	x4, [x0]
	ldr	x3, [x3, #:got_lo12:_ZN8opendnp320SimpleCommandHandler8DoSelectERKNS_17AnalogOutputInt32Et]
	ldr	x4, [x4, 144]
	str	x19, [sp, 16]
	.cfi_offset 19, -16
	mov	x19, x0
	cmp	x4, x3
	bne	.L39
	ldr	w1, [x19, 16]
	ldrb	w0, [x19, 8]
	add	w1, w1, 1
	str	w1, [x19, 16]
	ldr	x19, [sp, 16]
	ldp	x29, x30, [sp], 32
	.cfi_remember_state
	.cfi_restore 30
	.cfi_restore 29
	.cfi_restore 19
	.cfi_def_cfa_offset 0
	ret
	.p2align 2,,3
.L39:
	.cfi_restore_state
	and	w2, w2, 65535
	blr	x4
	ldr	w1, [x19, 16]
	ldrb	w0, [x19, 8]
	add	w1, w1, 1
	str	w1, [x19, 16]
	ldr	x19, [sp, 16]
	ldp	x29, x30, [sp], 32
	.cfi_restore 30
	.cfi_restore 29
	.cfi_restore 19
	.cfi_def_cfa_offset 0
	ret
	.cfi_endproc
.LFE1712:
	.size	_ZN8opendnp320SimpleCommandHandler6SelectERKNS_17AnalogOutputInt32Et, .-_ZN8opendnp320SimpleCommandHandler6SelectERKNS_17AnalogOutputInt32Et
	.align	2
	.p2align 4,,11
	.global	_ZN8opendnp320SimpleCommandHandler7OperateERKNS_17AnalogOutputInt16EtNS_11OperateTypeE
	.type	_ZN8opendnp320SimpleCommandHandler7OperateERKNS_17AnalogOutputInt16EtNS_11OperateTypeE, %function
_ZN8opendnp320SimpleCommandHandler7OperateERKNS_17AnalogOutputInt16EtNS_11OperateTypeE:
.LFB1711:
	.cfi_startproc
	stp	x29, x30, [sp, -32]!
	.cfi_def_cfa_offset 32
	.cfi_offset 29, -32
	.cfi_offset 30, -24
	adrp	x4, :got:_ZN8opendnp320SimpleCommandHandler9DoOperateERKNS_17AnalogOutputInt16EtNS_11OperateTypeE
	mov	x29, sp
	ldr	x5, [x0]
	ldr	x4, [x4, #:got_lo12:_ZN8opendnp320SimpleCommandHandler9DoOperateERKNS_17AnalogOutputInt16EtNS_11OperateTypeE]
	ldr	x5, [x5, 136]
	str	x19, [sp, 16]
	.cfi_offset 19, -16
	mov	x19, x0
	cmp	x5, x4
	bne	.L43
	ldr	w1, [x19, 12]
	ldrb	w0, [x19, 8]
	add	w1, w1, 1
	str	w1, [x19, 12]
	ldr	x19, [sp, 16]
	ldp	x29, x30, [sp], 32
	.cfi_remember_state
	.cfi_restore 30
	.cfi_restore 29
	.cfi_restore 19
	.cfi_def_cfa_offset 0
	ret
	.p2align 2,,3
.L43:
	.cfi_restore_state
	and	w2, w2, 65535
	and	w3, w3, 255
	blr	x5
	ldr	w1, [x19, 12]
	ldrb	w0, [x19, 8]
	add	w1, w1, 1
	str	w1, [x19, 12]
	ldr	x19, [sp, 16]
	ldp	x29, x30, [sp], 32
	.cfi_restore 30
	.cfi_restore 29
	.cfi_restore 19
	.cfi_def_cfa_offset 0
	ret
	.cfi_endproc
.LFE1711:
	.size	_ZN8opendnp320SimpleCommandHandler7OperateERKNS_17AnalogOutputInt16EtNS_11OperateTypeE, .-_ZN8opendnp320SimpleCommandHandler7OperateERKNS_17AnalogOutputInt16EtNS_11OperateTypeE
	.align	2
	.p2align 4,,11
	.global	_ZN8opendnp320SimpleCommandHandler6SelectERKNS_17AnalogOutputInt16Et
	.type	_ZN8opendnp320SimpleCommandHandler6SelectERKNS_17AnalogOutputInt16Et, %function
_ZN8opendnp320SimpleCommandHandler6SelectERKNS_17AnalogOutputInt16Et:
.LFB1710:
	.cfi_startproc
	stp	x29, x30, [sp, -32]!
	.cfi_def_cfa_offset 32
	.cfi_offset 29, -32
	.cfi_offset 30, -24
	adrp	x3, :got:_ZN8opendnp320SimpleCommandHandler8DoSelectERKNS_17AnalogOutputInt16Et
	mov	x29, sp
	ldr	x4, [x0]
	ldr	x3, [x3, #:got_lo12:_ZN8opendnp320SimpleCommandHandler8DoSelectERKNS_17AnalogOutputInt16Et]
	ldr	x4, [x4, 128]
	str	x19, [sp, 16]
	.cfi_offset 19, -16
	mov	x19, x0
	cmp	x4, x3
	bne	.L47
	ldr	w1, [x19, 16]
	ldrb	w0, [x19, 8]
	add	w1, w1, 1
	str	w1, [x19, 16]
	ldr	x19, [sp, 16]
	ldp	x29, x30, [sp], 32
	.cfi_remember_state
	.cfi_restore 30
	.cfi_restore 29
	.cfi_restore 19
	.cfi_def_cfa_offset 0
	ret
	.p2align 2,,3
.L47:
	.cfi_restore_state
	and	w2, w2, 65535
	blr	x4
	ldr	w1, [x19, 16]
	ldrb	w0, [x19, 8]
	add	w1, w1, 1
	str	w1, [x19, 16]
	ldr	x19, [sp, 16]
	ldp	x29, x30, [sp], 32
	.cfi_restore 30
	.cfi_restore 29
	.cfi_restore 19
	.cfi_def_cfa_offset 0
	ret
	.cfi_endproc
.LFE1710:
	.size	_ZN8opendnp320SimpleCommandHandler6SelectERKNS_17AnalogOutputInt16Et, .-_ZN8opendnp320SimpleCommandHandler6SelectERKNS_17AnalogOutputInt16Et
	.align	2
	.p2align 4,,11
	.global	_ZN8opendnp320SimpleCommandHandler7OperateERKNS_23ControlRelayOutputBlockEtNS_11OperateTypeE
	.type	_ZN8opendnp320SimpleCommandHandler7OperateERKNS_23ControlRelayOutputBlockEtNS_11OperateTypeE, %function
_ZN8opendnp320SimpleCommandHandler7OperateERKNS_23ControlRelayOutputBlockEtNS_11OperateTypeE:
.LFB1709:
	.cfi_startproc
	stp	x29, x30, [sp, -32]!
	.cfi_def_cfa_offset 32
	.cfi_offset 29, -32
	.cfi_offset 30, -24
	adrp	x4, :got:_ZN8opendnp320SimpleCommandHandler9DoOperateERKNS_23ControlRelayOutputBlockEtNS_11OperateTypeE
	mov	x29, sp
	ldr	x5, [x0]
	ldr	x4, [x4, #:got_lo12:_ZN8opendnp320SimpleCommandHandler9DoOperateERKNS_23ControlRelayOutputBlockEtNS_11OperateTypeE]
	ldr	x5, [x5, 120]
	str	x19, [sp, 16]
	.cfi_offset 19, -16
	mov	x19, x0
	cmp	x5, x4
	bne	.L51
	ldr	w1, [x19, 12]
	ldrb	w0, [x19, 8]
	add	w1, w1, 1
	str	w1, [x19, 12]
	ldr	x19, [sp, 16]
	ldp	x29, x30, [sp], 32
	.cfi_remember_state
	.cfi_restore 30
	.cfi_restore 29
	.cfi_restore 19
	.cfi_def_cfa_offset 0
	ret
	.p2align 2,,3
.L51:
	.cfi_restore_state
	and	w2, w2, 65535
	and	w3, w3, 255
	blr	x5
	ldr	w1, [x19, 12]
	ldrb	w0, [x19, 8]
	add	w1, w1, 1
	str	w1, [x19, 12]
	ldr	x19, [sp, 16]
	ldp	x29, x30, [sp], 32
	.cfi_restore 30
	.cfi_restore 29
	.cfi_restore 19
	.cfi_def_cfa_offset 0
	ret
	.cfi_endproc
.LFE1709:
	.size	_ZN8opendnp320SimpleCommandHandler7OperateERKNS_23ControlRelayOutputBlockEtNS_11OperateTypeE, .-_ZN8opendnp320SimpleCommandHandler7OperateERKNS_23ControlRelayOutputBlockEtNS_11OperateTypeE
	.align	2
	.p2align 4,,11
	.global	_ZN8opendnp320SimpleCommandHandler6SelectERKNS_23ControlRelayOutputBlockEt
	.type	_ZN8opendnp320SimpleCommandHandler6SelectERKNS_23ControlRelayOutputBlockEt, %function
_ZN8opendnp320SimpleCommandHandler6SelectERKNS_23ControlRelayOutputBlockEt:
.LFB1708:
	.cfi_startproc
	stp	x29, x30, [sp, -32]!
	.cfi_def_cfa_offset 32
	.cfi_offset 29, -32
	.cfi_offset 30, -24
	adrp	x3, :got:_ZN8opendnp320SimpleCommandHandler8DoSelectERKNS_23ControlRelayOutputBlockEt
	mov	x29, sp
	ldr	x4, [x0]
	ldr	x3, [x3, #:got_lo12:_ZN8opendnp320SimpleCommandHandler8DoSelectERKNS_23ControlRelayOutputBlockEt]
	ldr	x4, [x4, 112]
	str	x19, [sp, 16]
	.cfi_offset 19, -16
	mov	x19, x0
	cmp	x4, x3
	bne	.L55
	ldr	w1, [x19, 16]
	ldrb	w0, [x19, 8]
	add	w1, w1, 1
	str	w1, [x19, 16]
	ldr	x19, [sp, 16]
	ldp	x29, x30, [sp], 32
	.cfi_remember_state
	.cfi_restore 30
	.cfi_restore 29
	.cfi_restore 19
	.cfi_def_cfa_offset 0
	ret
	.p2align 2,,3
.L55:
	.cfi_restore_state
	and	w2, w2, 65535
	blr	x4
	ldr	w1, [x19, 16]
	ldrb	w0, [x19, 8]
	add	w1, w1, 1
	str	w1, [x19, 16]
	ldr	x19, [sp, 16]
	ldp	x29, x30, [sp], 32
	.cfi_restore 30
	.cfi_restore 29
	.cfi_restore 19
	.cfi_def_cfa_offset 0
	ret
	.cfi_endproc
.LFE1708:
	.size	_ZN8opendnp320SimpleCommandHandler6SelectERKNS_23ControlRelayOutputBlockEt, .-_ZN8opendnp320SimpleCommandHandler6SelectERKNS_23ControlRelayOutputBlockEt
	.align	2
	.p2align 4,,11
	.global	_ZN8opendnp320SimpleCommandHandlerC2ENS_13CommandStatusE
	.type	_ZN8opendnp320SimpleCommandHandlerC2ENS_13CommandStatusE, %function
_ZN8opendnp320SimpleCommandHandlerC2ENS_13CommandStatusE:
.LFB1706:
	.cfi_startproc
	adrp	x2, :got:_ZTVN8opendnp320SimpleCommandHandlerE
	add	x3, x0, 12
	ldr	x2, [x2, #:got_lo12:_ZTVN8opendnp320SimpleCommandHandlerE]
	stp	xzr, xzr, [x3]
	add	x2, x2, 16
	str	x2, [x0]
	strb	w1, [x0, 8]
	ret
	.cfi_endproc
.LFE1706:
	.size	_ZN8opendnp320SimpleCommandHandlerC2ENS_13CommandStatusE, .-_ZN8opendnp320SimpleCommandHandlerC2ENS_13CommandStatusE
	.global	_ZN8opendnp320SimpleCommandHandlerC1ENS_13CommandStatusE
	.set	_ZN8opendnp320SimpleCommandHandlerC1ENS_13CommandStatusE,_ZN8opendnp320SimpleCommandHandlerC2ENS_13CommandStatusE
	.weak	_ZTSN8opendnp313ITransactableE
	.section	.rodata._ZTSN8opendnp313ITransactableE,"aG",@progbits,_ZTSN8opendnp313ITransactableE,comdat
	.align	3
	.type	_ZTSN8opendnp313ITransactableE, %object
	.size	_ZTSN8opendnp313ITransactableE, 27
_ZTSN8opendnp313ITransactableE:
	.string	"N8opendnp313ITransactableE"
	.weak	_ZTIN8opendnp313ITransactableE
	.section	.data.rel.ro._ZTIN8opendnp313ITransactableE,"awG",@progbits,_ZTIN8opendnp313ITransactableE,comdat
	.align	3
	.type	_ZTIN8opendnp313ITransactableE, %object
	.size	_ZTIN8opendnp313ITransactableE, 16
_ZTIN8opendnp313ITransactableE:
	.xword	_ZTVN10__cxxabiv117__class_type_infoE+16
	.xword	_ZTSN8opendnp313ITransactableE
	.weak	_ZTSN8opendnp315ICommandHandlerE
	.section	.rodata._ZTSN8opendnp315ICommandHandlerE,"aG",@progbits,_ZTSN8opendnp315ICommandHandlerE,comdat
	.align	3
	.type	_ZTSN8opendnp315ICommandHandlerE, %object
	.size	_ZTSN8opendnp315ICommandHandlerE, 29
_ZTSN8opendnp315ICommandHandlerE:
	.string	"N8opendnp315ICommandHandlerE"
	.weak	_ZTIN8opendnp315ICommandHandlerE
	.section	.data.rel.ro._ZTIN8opendnp315ICommandHandlerE,"awG",@progbits,_ZTIN8opendnp315ICommandHandlerE,comdat
	.align	3
	.type	_ZTIN8opendnp315ICommandHandlerE, %object
	.size	_ZTIN8opendnp315ICommandHandlerE, 24
_ZTIN8opendnp315ICommandHandlerE:
	.xword	_ZTVN10__cxxabiv120__si_class_type_infoE+16
	.xword	_ZTSN8opendnp315ICommandHandlerE
	.xword	_ZTIN8opendnp313ITransactableE
	.weak	_ZTSN8opendnp320SimpleCommandHandlerE
	.section	.rodata._ZTSN8opendnp320SimpleCommandHandlerE,"aG",@progbits,_ZTSN8opendnp320SimpleCommandHandlerE,comdat
	.align	3
	.type	_ZTSN8opendnp320SimpleCommandHandlerE, %object
	.size	_ZTSN8opendnp320SimpleCommandHandlerE, 34
_ZTSN8opendnp320SimpleCommandHandlerE:
	.string	"N8opendnp320SimpleCommandHandlerE"
	.weak	_ZTIN8opendnp320SimpleCommandHandlerE
	.section	.data.rel.ro._ZTIN8opendnp320SimpleCommandHandlerE,"awG",@progbits,_ZTIN8opendnp320SimpleCommandHandlerE,comdat
	.align	3
	.type	_ZTIN8opendnp320SimpleCommandHandlerE, %object
	.size	_ZTIN8opendnp320SimpleCommandHandlerE, 24
_ZTIN8opendnp320SimpleCommandHandlerE:
	.xword	_ZTVN10__cxxabiv120__si_class_type_infoE+16
	.xword	_ZTSN8opendnp320SimpleCommandHandlerE
	.xword	_ZTIN8opendnp315ICommandHandlerE
	.weak	_ZTVN8opendnp320SimpleCommandHandlerE
	.section	.data.rel.ro._ZTVN8opendnp320SimpleCommandHandlerE,"awG",@progbits,_ZTVN8opendnp320SimpleCommandHandlerE,comdat
	.align	3
	.type	_ZTVN8opendnp320SimpleCommandHandlerE, %object
	.size	_ZTVN8opendnp320SimpleCommandHandlerE, 208
_ZTVN8opendnp320SimpleCommandHandlerE:
	.xword	0
	.xword	_ZTIN8opendnp320SimpleCommandHandlerE
	.xword	_ZN8opendnp320SimpleCommandHandlerD1Ev
	.xword	_ZN8opendnp320SimpleCommandHandlerD0Ev
	.xword	_ZN8opendnp320SimpleCommandHandler5StartEv
	.xword	_ZN8opendnp320SimpleCommandHandler3EndEv
	.xword	_ZN8opendnp320SimpleCommandHandler6SelectERKNS_23ControlRelayOutputBlockEt
	.xword	_ZN8opendnp320SimpleCommandHandler7OperateERKNS_23ControlRelayOutputBlockEtNS_11OperateTypeE
	.xword	_ZN8opendnp320SimpleCommandHandler6SelectERKNS_17AnalogOutputInt16Et
	.xword	_ZN8opendnp320SimpleCommandHandler7OperateERKNS_17AnalogOutputInt16EtNS_11OperateTypeE
	.xword	_ZN8opendnp320SimpleCommandHandler6SelectERKNS_17AnalogOutputInt32Et
	.xword	_ZN8opendnp320SimpleCommandHandler7OperateERKNS_17AnalogOutputInt32EtNS_11OperateTypeE
	.xword	_ZN8opendnp320SimpleCommandHandler6SelectERKNS_19AnalogOutputFloat32Et
	.xword	_ZN8opendnp320SimpleCommandHandler7OperateERKNS_19AnalogOutputFloat32EtNS_11OperateTypeE
	.xword	_ZN8opendnp320SimpleCommandHandler6SelectERKNS_20AnalogOutputDouble64Et
	.xword	_ZN8opendnp320SimpleCommandHandler7OperateERKNS_20AnalogOutputDouble64EtNS_11OperateTypeE
	.xword	_ZN8opendnp320SimpleCommandHandler8DoSelectERKNS_23ControlRelayOutputBlockEt
	.xword	_ZN8opendnp320SimpleCommandHandler9DoOperateERKNS_23ControlRelayOutputBlockEtNS_11OperateTypeE
	.xword	_ZN8opendnp320SimpleCommandHandler8DoSelectERKNS_17AnalogOutputInt16Et
	.xword	_ZN8opendnp320SimpleCommandHandler9DoOperateERKNS_17AnalogOutputInt16EtNS_11OperateTypeE
	.xword	_ZN8opendnp320SimpleCommandHandler8DoSelectERKNS_17AnalogOutputInt32Et
	.xword	_ZN8opendnp320SimpleCommandHandler9DoOperateERKNS_17AnalogOutputInt32EtNS_11OperateTypeE
	.xword	_ZN8opendnp320SimpleCommandHandler8DoSelectERKNS_19AnalogOutputFloat32Et
	.xword	_ZN8opendnp320SimpleCommandHandler9DoOperateERKNS_19AnalogOutputFloat32EtNS_11OperateTypeE
	.xword	_ZN8opendnp320SimpleCommandHandler8DoSelectERKNS_20AnalogOutputDouble64Et
	.xword	_ZN8opendnp320SimpleCommandHandler9DoOperateERKNS_20AnalogOutputDouble64EtNS_11OperateTypeE
	.ident	"GCC: (Ubuntu 11.4.0-1ubuntu1~22.04) 11.4.0"
	.section	.note.GNU-stack,"",@progbits
