	.arch armv8-a
	.file	"StaticBuffers.cpp"
	.text
	.section	.text._ZN7openpal5ArrayIN8opendnp34CellINS1_10BinarySpecEEEtED2Ev,"axG",@progbits,_ZN7openpal5ArrayIN8opendnp34CellINS1_10BinarySpecEEEtED5Ev,comdat
	.align	2
	.p2align 4,,11
	.weak	_ZN7openpal5ArrayIN8opendnp34CellINS1_10BinarySpecEEEtED2Ev
	.type	_ZN7openpal5ArrayIN8opendnp34CellINS1_10BinarySpecEEEtED2Ev, %function
_ZN7openpal5ArrayIN8opendnp34CellINS1_10BinarySpecEEEtED2Ev:
.LFB160:
	.cfi_startproc
	adrp	x1, :got:_ZTVN7openpal5ArrayIN8opendnp34CellINS1_10BinarySpecEEEtEE
	mov	x2, x0
	ldr	x0, [x0, 16]
	ldr	x1, [x1, #:got_lo12:_ZTVN7openpal5ArrayIN8opendnp34CellINS1_10BinarySpecEEEtEE]
	add	x1, x1, 16
	str	x1, [x2]
	cbz	x0, .L1
	b	_ZdaPv
	.p2align 2,,3
.L1:
	ret
	.cfi_endproc
.LFE160:
	.size	_ZN7openpal5ArrayIN8opendnp34CellINS1_10BinarySpecEEEtED2Ev, .-_ZN7openpal5ArrayIN8opendnp34CellINS1_10BinarySpecEEEtED2Ev
	.weak	_ZN7openpal5ArrayIN8opendnp34CellINS1_10BinarySpecEEEtED1Ev
	.set	_ZN7openpal5ArrayIN8opendnp34CellINS1_10BinarySpecEEEtED1Ev,_ZN7openpal5ArrayIN8opendnp34CellINS1_10BinarySpecEEEtED2Ev
	.section	.text._ZN7openpal5ArrayIN8opendnp34CellINS1_19DoubleBitBinarySpecEEEtED2Ev,"axG",@progbits,_ZN7openpal5ArrayIN8opendnp34CellINS1_19DoubleBitBinarySpecEEEtED5Ev,comdat
	.align	2
	.p2align 4,,11
	.weak	_ZN7openpal5ArrayIN8opendnp34CellINS1_19DoubleBitBinarySpecEEEtED2Ev
	.type	_ZN7openpal5ArrayIN8opendnp34CellINS1_19DoubleBitBinarySpecEEEtED2Ev, %function
_ZN7openpal5ArrayIN8opendnp34CellINS1_19DoubleBitBinarySpecEEEtED2Ev:
.LFB182:
	.cfi_startproc
	adrp	x1, :got:_ZTVN7openpal5ArrayIN8opendnp34CellINS1_19DoubleBitBinarySpecEEEtEE
	mov	x2, x0
	ldr	x0, [x0, 16]
	ldr	x1, [x1, #:got_lo12:_ZTVN7openpal5ArrayIN8opendnp34CellINS1_19DoubleBitBinarySpecEEEtEE]
	add	x1, x1, 16
	str	x1, [x2]
	cbz	x0, .L4
	b	_ZdaPv
	.p2align 2,,3
.L4:
	ret
	.cfi_endproc
.LFE182:
	.size	_ZN7openpal5ArrayIN8opendnp34CellINS1_19DoubleBitBinarySpecEEEtED2Ev, .-_ZN7openpal5ArrayIN8opendnp34CellINS1_19DoubleBitBinarySpecEEEtED2Ev
	.weak	_ZN7openpal5ArrayIN8opendnp34CellINS1_19DoubleBitBinarySpecEEEtED1Ev
	.set	_ZN7openpal5ArrayIN8opendnp34CellINS1_19DoubleBitBinarySpecEEEtED1Ev,_ZN7openpal5ArrayIN8opendnp34CellINS1_19DoubleBitBinarySpecEEEtED2Ev
	.section	.text._ZN7openpal5ArrayIN8opendnp34CellINS1_10AnalogSpecEEEtED2Ev,"axG",@progbits,_ZN7openpal5ArrayIN8opendnp34CellINS1_10AnalogSpecEEEtED5Ev,comdat
	.align	2
	.p2align 4,,11
	.weak	_ZN7openpal5ArrayIN8opendnp34CellINS1_10AnalogSpecEEEtED2Ev
	.type	_ZN7openpal5ArrayIN8opendnp34CellINS1_10AnalogSpecEEEtED2Ev, %function
_ZN7openpal5ArrayIN8opendnp34CellINS1_10AnalogSpecEEEtED2Ev:
.LFB210:
	.cfi_startproc
	adrp	x1, :got:_ZTVN7openpal5ArrayIN8opendnp34CellINS1_10AnalogSpecEEEtEE
	mov	x2, x0
	ldr	x0, [x0, 16]
	ldr	x1, [x1, #:got_lo12:_ZTVN7openpal5ArrayIN8opendnp34CellINS1_10AnalogSpecEEEtEE]
	add	x1, x1, 16
	str	x1, [x2]
	cbz	x0, .L6
	b	_ZdaPv
	.p2align 2,,3
.L6:
	ret
	.cfi_endproc
.LFE210:
	.size	_ZN7openpal5ArrayIN8opendnp34CellINS1_10AnalogSpecEEEtED2Ev, .-_ZN7openpal5ArrayIN8opendnp34CellINS1_10AnalogSpecEEEtED2Ev
	.weak	_ZN7openpal5ArrayIN8opendnp34CellINS1_10AnalogSpecEEEtED1Ev
	.set	_ZN7openpal5ArrayIN8opendnp34CellINS1_10AnalogSpecEEEtED1Ev,_ZN7openpal5ArrayIN8opendnp34CellINS1_10AnalogSpecEEEtED2Ev
	.section	.text._ZN7openpal5ArrayIN8opendnp34CellINS1_11CounterSpecEEEtED2Ev,"axG",@progbits,_ZN7openpal5ArrayIN8opendnp34CellINS1_11CounterSpecEEEtED5Ev,comdat
	.align	2
	.p2align 4,,11
	.weak	_ZN7openpal5ArrayIN8opendnp34CellINS1_11CounterSpecEEEtED2Ev
	.type	_ZN7openpal5ArrayIN8opendnp34CellINS1_11CounterSpecEEEtED2Ev, %function
_ZN7openpal5ArrayIN8opendnp34CellINS1_11CounterSpecEEEtED2Ev:
.LFB238:
	.cfi_startproc
	adrp	x1, :got:_ZTVN7openpal5ArrayIN8opendnp34CellINS1_11CounterSpecEEEtEE
	mov	x2, x0
	ldr	x0, [x0, 16]
	ldr	x1, [x1, #:got_lo12:_ZTVN7openpal5ArrayIN8opendnp34CellINS1_11CounterSpecEEEtEE]
	add	x1, x1, 16
	str	x1, [x2]
	cbz	x0, .L8
	b	_ZdaPv
	.p2align 2,,3
.L8:
	ret
	.cfi_endproc
.LFE238:
	.size	_ZN7openpal5ArrayIN8opendnp34CellINS1_11CounterSpecEEEtED2Ev, .-_ZN7openpal5ArrayIN8opendnp34CellINS1_11CounterSpecEEEtED2Ev
	.weak	_ZN7openpal5ArrayIN8opendnp34CellINS1_11CounterSpecEEEtED1Ev
	.set	_ZN7openpal5ArrayIN8opendnp34CellINS1_11CounterSpecEEEtED1Ev,_ZN7openpal5ArrayIN8opendnp34CellINS1_11CounterSpecEEEtED2Ev
	.section	.text._ZN7openpal5ArrayIN8opendnp34CellINS1_17FrozenCounterSpecEEEtED2Ev,"axG",@progbits,_ZN7openpal5ArrayIN8opendnp34CellINS1_17FrozenCounterSpecEEEtED5Ev,comdat
	.align	2
	.p2align 4,,11
	.weak	_ZN7openpal5ArrayIN8opendnp34CellINS1_17FrozenCounterSpecEEEtED2Ev
	.type	_ZN7openpal5ArrayIN8opendnp34CellINS1_17FrozenCounterSpecEEEtED2Ev, %function
_ZN7openpal5ArrayIN8opendnp34CellINS1_17FrozenCounterSpecEEEtED2Ev:
.LFB266:
	.cfi_startproc
	adrp	x1, :got:_ZTVN7openpal5ArrayIN8opendnp34CellINS1_17FrozenCounterSpecEEEtEE
	mov	x2, x0
	ldr	x0, [x0, 16]
	ldr	x1, [x1, #:got_lo12:_ZTVN7openpal5ArrayIN8opendnp34CellINS1_17FrozenCounterSpecEEEtEE]
	add	x1, x1, 16
	str	x1, [x2]
	cbz	x0, .L10
	b	_ZdaPv
	.p2align 2,,3
.L10:
	ret
	.cfi_endproc
.LFE266:
	.size	_ZN7openpal5ArrayIN8opendnp34CellINS1_17FrozenCounterSpecEEEtED2Ev, .-_ZN7openpal5ArrayIN8opendnp34CellINS1_17FrozenCounterSpecEEEtED2Ev
	.weak	_ZN7openpal5ArrayIN8opendnp34CellINS1_17FrozenCounterSpecEEEtED1Ev
	.set	_ZN7openpal5ArrayIN8opendnp34CellINS1_17FrozenCounterSpecEEEtED1Ev,_ZN7openpal5ArrayIN8opendnp34CellINS1_17FrozenCounterSpecEEEtED2Ev
	.section	.text._ZN7openpal5ArrayIN8opendnp34CellINS1_22BinaryOutputStatusSpecEEEtED2Ev,"axG",@progbits,_ZN7openpal5ArrayIN8opendnp34CellINS1_22BinaryOutputStatusSpecEEEtED5Ev,comdat
	.align	2
	.p2align 4,,11
	.weak	_ZN7openpal5ArrayIN8opendnp34CellINS1_22BinaryOutputStatusSpecEEEtED2Ev
	.type	_ZN7openpal5ArrayIN8opendnp34CellINS1_22BinaryOutputStatusSpecEEEtED2Ev, %function
_ZN7openpal5ArrayIN8opendnp34CellINS1_22BinaryOutputStatusSpecEEEtED2Ev:
.LFB288:
	.cfi_startproc
	adrp	x1, :got:_ZTVN7openpal5ArrayIN8opendnp34CellINS1_22BinaryOutputStatusSpecEEEtEE
	mov	x2, x0
	ldr	x0, [x0, 16]
	ldr	x1, [x1, #:got_lo12:_ZTVN7openpal5ArrayIN8opendnp34CellINS1_22BinaryOutputStatusSpecEEEtEE]
	add	x1, x1, 16
	str	x1, [x2]
	cbz	x0, .L12
	b	_ZdaPv
	.p2align 2,,3
.L12:
	ret
	.cfi_endproc
.LFE288:
	.size	_ZN7openpal5ArrayIN8opendnp34CellINS1_22BinaryOutputStatusSpecEEEtED2Ev, .-_ZN7openpal5ArrayIN8opendnp34CellINS1_22BinaryOutputStatusSpecEEEtED2Ev
	.weak	_ZN7openpal5ArrayIN8opendnp34CellINS1_22BinaryOutputStatusSpecEEEtED1Ev
	.set	_ZN7openpal5ArrayIN8opendnp34CellINS1_22BinaryOutputStatusSpecEEEtED1Ev,_ZN7openpal5ArrayIN8opendnp34CellINS1_22BinaryOutputStatusSpecEEEtED2Ev
	.section	.text._ZN7openpal5ArrayIN8opendnp34CellINS1_22AnalogOutputStatusSpecEEEtED2Ev,"axG",@progbits,_ZN7openpal5ArrayIN8opendnp34CellINS1_22AnalogOutputStatusSpecEEEtED5Ev,comdat
	.align	2
	.p2align 4,,11
	.weak	_ZN7openpal5ArrayIN8opendnp34CellINS1_22AnalogOutputStatusSpecEEEtED2Ev
	.type	_ZN7openpal5ArrayIN8opendnp34CellINS1_22AnalogOutputStatusSpecEEEtED2Ev, %function
_ZN7openpal5ArrayIN8opendnp34CellINS1_22AnalogOutputStatusSpecEEEtED2Ev:
.LFB316:
	.cfi_startproc
	adrp	x1, :got:_ZTVN7openpal5ArrayIN8opendnp34CellINS1_22AnalogOutputStatusSpecEEEtEE
	mov	x2, x0
	ldr	x0, [x0, 16]
	ldr	x1, [x1, #:got_lo12:_ZTVN7openpal5ArrayIN8opendnp34CellINS1_22AnalogOutputStatusSpecEEEtEE]
	add	x1, x1, 16
	str	x1, [x2]
	cbz	x0, .L14
	b	_ZdaPv
	.p2align 2,,3
.L14:
	ret
	.cfi_endproc
.LFE316:
	.size	_ZN7openpal5ArrayIN8opendnp34CellINS1_22AnalogOutputStatusSpecEEEtED2Ev, .-_ZN7openpal5ArrayIN8opendnp34CellINS1_22AnalogOutputStatusSpecEEEtED2Ev
	.weak	_ZN7openpal5ArrayIN8opendnp34CellINS1_22AnalogOutputStatusSpecEEEtED1Ev
	.set	_ZN7openpal5ArrayIN8opendnp34CellINS1_22AnalogOutputStatusSpecEEEtED1Ev,_ZN7openpal5ArrayIN8opendnp34CellINS1_22AnalogOutputStatusSpecEEEtED2Ev
	.section	.text._ZN7openpal5ArrayIN8opendnp34CellINS1_19TimeAndIntervalSpecEEEtED2Ev,"axG",@progbits,_ZN7openpal5ArrayIN8opendnp34CellINS1_19TimeAndIntervalSpecEEEtED5Ev,comdat
	.align	2
	.p2align 4,,11
	.weak	_ZN7openpal5ArrayIN8opendnp34CellINS1_19TimeAndIntervalSpecEEEtED2Ev
	.type	_ZN7openpal5ArrayIN8opendnp34CellINS1_19TimeAndIntervalSpecEEEtED2Ev, %function
_ZN7openpal5ArrayIN8opendnp34CellINS1_19TimeAndIntervalSpecEEEtED2Ev:
.LFB332:
	.cfi_startproc
	adrp	x1, :got:_ZTVN7openpal5ArrayIN8opendnp34CellINS1_19TimeAndIntervalSpecEEEtEE
	mov	x2, x0
	ldr	x0, [x0, 16]
	ldr	x1, [x1, #:got_lo12:_ZTVN7openpal5ArrayIN8opendnp34CellINS1_19TimeAndIntervalSpecEEEtEE]
	add	x1, x1, 16
	str	x1, [x2]
	cbz	x0, .L16
	b	_ZdaPv
	.p2align 2,,3
.L16:
	ret
	.cfi_endproc
.LFE332:
	.size	_ZN7openpal5ArrayIN8opendnp34CellINS1_19TimeAndIntervalSpecEEEtED2Ev, .-_ZN7openpal5ArrayIN8opendnp34CellINS1_19TimeAndIntervalSpecEEEtED2Ev
	.weak	_ZN7openpal5ArrayIN8opendnp34CellINS1_19TimeAndIntervalSpecEEEtED1Ev
	.set	_ZN7openpal5ArrayIN8opendnp34CellINS1_19TimeAndIntervalSpecEEEtED1Ev,_ZN7openpal5ArrayIN8opendnp34CellINS1_19TimeAndIntervalSpecEEEtED2Ev
	.section	.text._ZN7openpal5ArrayIN8opendnp34CellINS1_10BinarySpecEEEtED0Ev,"axG",@progbits,_ZN7openpal5ArrayIN8opendnp34CellINS1_10BinarySpecEEEtED5Ev,comdat
	.align	2
	.p2align 4,,11
	.weak	_ZN7openpal5ArrayIN8opendnp34CellINS1_10BinarySpecEEEtED0Ev
	.type	_ZN7openpal5ArrayIN8opendnp34CellINS1_10BinarySpecEEEtED0Ev, %function
_ZN7openpal5ArrayIN8opendnp34CellINS1_10BinarySpecEEEtED0Ev:
.LFB162:
	.cfi_startproc
	stp	x29, x30, [sp, -32]!
	.cfi_def_cfa_offset 32
	.cfi_offset 29, -32
	.cfi_offset 30, -24
	adrp	x1, :got:_ZTVN7openpal5ArrayIN8opendnp34CellINS1_10BinarySpecEEEtEE
	mov	x29, sp
	ldr	x1, [x1, #:got_lo12:_ZTVN7openpal5ArrayIN8opendnp34CellINS1_10BinarySpecEEEtEE]
	str	x19, [sp, 16]
	.cfi_offset 19, -16
	mov	x19, x0
	ldr	x0, [x0, 16]
	add	x1, x1, 16
	str	x1, [x19]
	cbz	x0, .L19
	bl	_ZdaPv
.L19:
	mov	x0, x19
	mov	x1, 24
	ldr	x19, [sp, 16]
	ldp	x29, x30, [sp], 32
	.cfi_restore 30
	.cfi_restore 29
	.cfi_restore 19
	.cfi_def_cfa_offset 0
	b	_ZdlPvm
	.cfi_endproc
.LFE162:
	.size	_ZN7openpal5ArrayIN8opendnp34CellINS1_10BinarySpecEEEtED0Ev, .-_ZN7openpal5ArrayIN8opendnp34CellINS1_10BinarySpecEEEtED0Ev
	.section	.text._ZN7openpal5ArrayIN8opendnp34CellINS1_19DoubleBitBinarySpecEEEtED0Ev,"axG",@progbits,_ZN7openpal5ArrayIN8opendnp34CellINS1_19DoubleBitBinarySpecEEEtED5Ev,comdat
	.align	2
	.p2align 4,,11
	.weak	_ZN7openpal5ArrayIN8opendnp34CellINS1_19DoubleBitBinarySpecEEEtED0Ev
	.type	_ZN7openpal5ArrayIN8opendnp34CellINS1_19DoubleBitBinarySpecEEEtED0Ev, %function
_ZN7openpal5ArrayIN8opendnp34CellINS1_19DoubleBitBinarySpecEEEtED0Ev:
.LFB184:
	.cfi_startproc
	stp	x29, x30, [sp, -32]!
	.cfi_def_cfa_offset 32
	.cfi_offset 29, -32
	.cfi_offset 30, -24
	adrp	x1, :got:_ZTVN7openpal5ArrayIN8opendnp34CellINS1_19DoubleBitBinarySpecEEEtEE
	mov	x29, sp
	ldr	x1, [x1, #:got_lo12:_ZTVN7openpal5ArrayIN8opendnp34CellINS1_19DoubleBitBinarySpecEEEtEE]
	str	x19, [sp, 16]
	.cfi_offset 19, -16
	mov	x19, x0
	ldr	x0, [x0, 16]
	add	x1, x1, 16
	str	x1, [x19]
	cbz	x0, .L25
	bl	_ZdaPv
.L25:
	mov	x0, x19
	mov	x1, 24
	ldr	x19, [sp, 16]
	ldp	x29, x30, [sp], 32
	.cfi_restore 30
	.cfi_restore 29
	.cfi_restore 19
	.cfi_def_cfa_offset 0
	b	_ZdlPvm
	.cfi_endproc
.LFE184:
	.size	_ZN7openpal5ArrayIN8opendnp34CellINS1_19DoubleBitBinarySpecEEEtED0Ev, .-_ZN7openpal5ArrayIN8opendnp34CellINS1_19DoubleBitBinarySpecEEEtED0Ev
	.section	.text._ZN7openpal5ArrayIN8opendnp34CellINS1_10AnalogSpecEEEtED0Ev,"axG",@progbits,_ZN7openpal5ArrayIN8opendnp34CellINS1_10AnalogSpecEEEtED5Ev,comdat
	.align	2
	.p2align 4,,11
	.weak	_ZN7openpal5ArrayIN8opendnp34CellINS1_10AnalogSpecEEEtED0Ev
	.type	_ZN7openpal5ArrayIN8opendnp34CellINS1_10AnalogSpecEEEtED0Ev, %function
_ZN7openpal5ArrayIN8opendnp34CellINS1_10AnalogSpecEEEtED0Ev:
.LFB212:
	.cfi_startproc
	stp	x29, x30, [sp, -32]!
	.cfi_def_cfa_offset 32
	.cfi_offset 29, -32
	.cfi_offset 30, -24
	adrp	x1, :got:_ZTVN7openpal5ArrayIN8opendnp34CellINS1_10AnalogSpecEEEtEE
	mov	x29, sp
	ldr	x1, [x1, #:got_lo12:_ZTVN7openpal5ArrayIN8opendnp34CellINS1_10AnalogSpecEEEtEE]
	str	x19, [sp, 16]
	.cfi_offset 19, -16
	mov	x19, x0
	ldr	x0, [x0, 16]
	add	x1, x1, 16
	str	x1, [x19]
	cbz	x0, .L31
	bl	_ZdaPv
.L31:
	mov	x0, x19
	mov	x1, 24
	ldr	x19, [sp, 16]
	ldp	x29, x30, [sp], 32
	.cfi_restore 30
	.cfi_restore 29
	.cfi_restore 19
	.cfi_def_cfa_offset 0
	b	_ZdlPvm
	.cfi_endproc
.LFE212:
	.size	_ZN7openpal5ArrayIN8opendnp34CellINS1_10AnalogSpecEEEtED0Ev, .-_ZN7openpal5ArrayIN8opendnp34CellINS1_10AnalogSpecEEEtED0Ev
	.section	.text._ZN7openpal5ArrayIN8opendnp34CellINS1_11CounterSpecEEEtED0Ev,"axG",@progbits,_ZN7openpal5ArrayIN8opendnp34CellINS1_11CounterSpecEEEtED5Ev,comdat
	.align	2
	.p2align 4,,11
	.weak	_ZN7openpal5ArrayIN8opendnp34CellINS1_11CounterSpecEEEtED0Ev
	.type	_ZN7openpal5ArrayIN8opendnp34CellINS1_11CounterSpecEEEtED0Ev, %function
_ZN7openpal5ArrayIN8opendnp34CellINS1_11CounterSpecEEEtED0Ev:
.LFB240:
	.cfi_startproc
	stp	x29, x30, [sp, -32]!
	.cfi_def_cfa_offset 32
	.cfi_offset 29, -32
	.cfi_offset 30, -24
	adrp	x1, :got:_ZTVN7openpal5ArrayIN8opendnp34CellINS1_11CounterSpecEEEtEE
	mov	x29, sp
	ldr	x1, [x1, #:got_lo12:_ZTVN7openpal5ArrayIN8opendnp34CellINS1_11CounterSpecEEEtEE]
	str	x19, [sp, 16]
	.cfi_offset 19, -16
	mov	x19, x0
	ldr	x0, [x0, 16]
	add	x1, x1, 16
	str	x1, [x19]
	cbz	x0, .L37
	bl	_ZdaPv
.L37:
	mov	x0, x19
	mov	x1, 24
	ldr	x19, [sp, 16]
	ldp	x29, x30, [sp], 32
	.cfi_restore 30
	.cfi_restore 29
	.cfi_restore 19
	.cfi_def_cfa_offset 0
	b	_ZdlPvm
	.cfi_endproc
.LFE240:
	.size	_ZN7openpal5ArrayIN8opendnp34CellINS1_11CounterSpecEEEtED0Ev, .-_ZN7openpal5ArrayIN8opendnp34CellINS1_11CounterSpecEEEtED0Ev
	.section	.text._ZN7openpal5ArrayIN8opendnp34CellINS1_17FrozenCounterSpecEEEtED0Ev,"axG",@progbits,_ZN7openpal5ArrayIN8opendnp34CellINS1_17FrozenCounterSpecEEEtED5Ev,comdat
	.align	2
	.p2align 4,,11
	.weak	_ZN7openpal5ArrayIN8opendnp34CellINS1_17FrozenCounterSpecEEEtED0Ev
	.type	_ZN7openpal5ArrayIN8opendnp34CellINS1_17FrozenCounterSpecEEEtED0Ev, %function
_ZN7openpal5ArrayIN8opendnp34CellINS1_17FrozenCounterSpecEEEtED0Ev:
.LFB268:
	.cfi_startproc
	stp	x29, x30, [sp, -32]!
	.cfi_def_cfa_offset 32
	.cfi_offset 29, -32
	.cfi_offset 30, -24
	adrp	x1, :got:_ZTVN7openpal5ArrayIN8opendnp34CellINS1_17FrozenCounterSpecEEEtEE
	mov	x29, sp
	ldr	x1, [x1, #:got_lo12:_ZTVN7openpal5ArrayIN8opendnp34CellINS1_17FrozenCounterSpecEEEtEE]
	str	x19, [sp, 16]
	.cfi_offset 19, -16
	mov	x19, x0
	ldr	x0, [x0, 16]
	add	x1, x1, 16
	str	x1, [x19]
	cbz	x0, .L43
	bl	_ZdaPv
.L43:
	mov	x0, x19
	mov	x1, 24
	ldr	x19, [sp, 16]
	ldp	x29, x30, [sp], 32
	.cfi_restore 30
	.cfi_restore 29
	.cfi_restore 19
	.cfi_def_cfa_offset 0
	b	_ZdlPvm
	.cfi_endproc
.LFE268:
	.size	_ZN7openpal5ArrayIN8opendnp34CellINS1_17FrozenCounterSpecEEEtED0Ev, .-_ZN7openpal5ArrayIN8opendnp34CellINS1_17FrozenCounterSpecEEEtED0Ev
	.section	.text._ZN7openpal5ArrayIN8opendnp34CellINS1_22BinaryOutputStatusSpecEEEtED0Ev,"axG",@progbits,_ZN7openpal5ArrayIN8opendnp34CellINS1_22BinaryOutputStatusSpecEEEtED5Ev,comdat
	.align	2
	.p2align 4,,11
	.weak	_ZN7openpal5ArrayIN8opendnp34CellINS1_22BinaryOutputStatusSpecEEEtED0Ev
	.type	_ZN7openpal5ArrayIN8opendnp34CellINS1_22BinaryOutputStatusSpecEEEtED0Ev, %function
_ZN7openpal5ArrayIN8opendnp34CellINS1_22BinaryOutputStatusSpecEEEtED0Ev:
.LFB290:
	.cfi_startproc
	stp	x29, x30, [sp, -32]!
	.cfi_def_cfa_offset 32
	.cfi_offset 29, -32
	.cfi_offset 30, -24
	adrp	x1, :got:_ZTVN7openpal5ArrayIN8opendnp34CellINS1_22BinaryOutputStatusSpecEEEtEE
	mov	x29, sp
	ldr	x1, [x1, #:got_lo12:_ZTVN7openpal5ArrayIN8opendnp34CellINS1_22BinaryOutputStatusSpecEEEtEE]
	str	x19, [sp, 16]
	.cfi_offset 19, -16
	mov	x19, x0
	ldr	x0, [x0, 16]
	add	x1, x1, 16
	str	x1, [x19]
	cbz	x0, .L49
	bl	_ZdaPv
.L49:
	mov	x0, x19
	mov	x1, 24
	ldr	x19, [sp, 16]
	ldp	x29, x30, [sp], 32
	.cfi_restore 30
	.cfi_restore 29
	.cfi_restore 19
	.cfi_def_cfa_offset 0
	b	_ZdlPvm
	.cfi_endproc
.LFE290:
	.size	_ZN7openpal5ArrayIN8opendnp34CellINS1_22BinaryOutputStatusSpecEEEtED0Ev, .-_ZN7openpal5ArrayIN8opendnp34CellINS1_22BinaryOutputStatusSpecEEEtED0Ev
	.section	.text._ZN7openpal5ArrayIN8opendnp34CellINS1_22AnalogOutputStatusSpecEEEtED0Ev,"axG",@progbits,_ZN7openpal5ArrayIN8opendnp34CellINS1_22AnalogOutputStatusSpecEEEtED5Ev,comdat
	.align	2
	.p2align 4,,11
	.weak	_ZN7openpal5ArrayIN8opendnp34CellINS1_22AnalogOutputStatusSpecEEEtED0Ev
	.type	_ZN7openpal5ArrayIN8opendnp34CellINS1_22AnalogOutputStatusSpecEEEtED0Ev, %function
_ZN7openpal5ArrayIN8opendnp34CellINS1_22AnalogOutputStatusSpecEEEtED0Ev:
.LFB318:
	.cfi_startproc
	stp	x29, x30, [sp, -32]!
	.cfi_def_cfa_offset 32
	.cfi_offset 29, -32
	.cfi_offset 30, -24
	adrp	x1, :got:_ZTVN7openpal5ArrayIN8opendnp34CellINS1_22AnalogOutputStatusSpecEEEtEE
	mov	x29, sp
	ldr	x1, [x1, #:got_lo12:_ZTVN7openpal5ArrayIN8opendnp34CellINS1_22AnalogOutputStatusSpecEEEtEE]
	str	x19, [sp, 16]
	.cfi_offset 19, -16
	mov	x19, x0
	ldr	x0, [x0, 16]
	add	x1, x1, 16
	str	x1, [x19]
	cbz	x0, .L55
	bl	_ZdaPv
.L55:
	mov	x0, x19
	mov	x1, 24
	ldr	x19, [sp, 16]
	ldp	x29, x30, [sp], 32
	.cfi_restore 30
	.cfi_restore 29
	.cfi_restore 19
	.cfi_def_cfa_offset 0
	b	_ZdlPvm
	.cfi_endproc
.LFE318:
	.size	_ZN7openpal5ArrayIN8opendnp34CellINS1_22AnalogOutputStatusSpecEEEtED0Ev, .-_ZN7openpal5ArrayIN8opendnp34CellINS1_22AnalogOutputStatusSpecEEEtED0Ev
	.section	.text._ZN7openpal5ArrayIN8opendnp34CellINS1_19TimeAndIntervalSpecEEEtED0Ev,"axG",@progbits,_ZN7openpal5ArrayIN8opendnp34CellINS1_19TimeAndIntervalSpecEEEtED5Ev,comdat
	.align	2
	.p2align 4,,11
	.weak	_ZN7openpal5ArrayIN8opendnp34CellINS1_19TimeAndIntervalSpecEEEtED0Ev
	.type	_ZN7openpal5ArrayIN8opendnp34CellINS1_19TimeAndIntervalSpecEEEtED0Ev, %function
_ZN7openpal5ArrayIN8opendnp34CellINS1_19TimeAndIntervalSpecEEEtED0Ev:
.LFB334:
	.cfi_startproc
	stp	x29, x30, [sp, -32]!
	.cfi_def_cfa_offset 32
	.cfi_offset 29, -32
	.cfi_offset 30, -24
	adrp	x1, :got:_ZTVN7openpal5ArrayIN8opendnp34CellINS1_19TimeAndIntervalSpecEEEtEE
	mov	x29, sp
	ldr	x1, [x1, #:got_lo12:_ZTVN7openpal5ArrayIN8opendnp34CellINS1_19TimeAndIntervalSpecEEEtEE]
	str	x19, [sp, 16]
	.cfi_offset 19, -16
	mov	x19, x0
	ldr	x0, [x0, 16]
	add	x1, x1, 16
	str	x1, [x19]
	cbz	x0, .L61
	bl	_ZdaPv
.L61:
	mov	x0, x19
	mov	x1, 24
	ldr	x19, [sp, 16]
	ldp	x29, x30, [sp], 32
	.cfi_restore 30
	.cfi_restore 29
	.cfi_restore 19
	.cfi_def_cfa_offset 0
	b	_ZdlPvm
	.cfi_endproc
.LFE334:
	.size	_ZN7openpal5ArrayIN8opendnp34CellINS1_19TimeAndIntervalSpecEEEtED0Ev, .-_ZN7openpal5ArrayIN8opendnp34CellINS1_19TimeAndIntervalSpecEEEtED0Ev
	.text
	.align	2
	.p2align 4,,11
	.global	_ZNK8opendnp313StaticBuffers7GetViewEv
	.type	_ZNK8opendnp313StaticBuffers7GetViewEv, %function
_ZNK8opendnp313StaticBuffers7GetViewEv:
.LFB116:
	.cfi_startproc
	sub	sp, sp, #96
	.cfi_def_cfa_offset 96
	mov	x6, x0
	add	x11, x6, 72
	mov	x0, x8
	add	x10, x6, 96
	add	x9, x6, 120
	add	x8, x6, 144
	add	x7, x6, 168
	stp	x29, x30, [sp, 80]
	.cfi_offset 29, -16
	.cfi_offset 30, -8
	add	x29, sp, 80
	ldrh	w16, [x11, 8]
	ldrh	w5, [x6, 56]
	ldrh	w3, [x6, 32]
	ldrh	w1, [x6, 8]
	ldrh	w15, [x10, 8]
	ldrh	w14, [x9, 8]
	ldrh	w13, [x8, 8]
	ldrh	w12, [x7, 8]
	ldr	x2, [x6, 16]
	ldr	x11, [x11, 16]
	ldr	x4, [x6, 40]
	ldr	x6, [x6, 64]
	str	x16, [sp]
	ldr	x10, [x10, 16]
	str	x11, [sp, 8]
	ldr	x9, [x9, 16]
	str	x15, [sp, 16]
	ldr	x8, [x8, 16]
	str	x10, [sp, 24]
	ldr	x7, [x7, 16]
	stp	x14, x9, [sp, 32]
	stp	x13, x8, [sp, 48]
	stp	x12, x7, [sp, 64]
	bl	_ZN8opendnp318DatabaseConfigViewC1EN7openpal9ArrayViewINS_4CellINS_10BinarySpecEEEtEENS2_INS3_INS_19DoubleBitBinarySpecEEEtEENS2_INS3_INS_10AnalogSpecEEEtEENS2_INS3_INS_11CounterSpecEEEtEENS2_INS3_INS_17FrozenCounterSpecEEEtEENS2_INS3_INS_22BinaryOutputStatusSpecEEEtEENS2_INS3_INS_22AnalogOutputStatusSpecEEEtEENS2_INS3_INS_19TimeAndIntervalSpecEEEtEE
	ldp	x29, x30, [sp, 80]
	add	sp, sp, 96
	.cfi_restore 29
	.cfi_restore 30
	.cfi_def_cfa_offset 0
	ret
	.cfi_endproc
.LFE116:
	.size	_ZNK8opendnp313StaticBuffers7GetViewEv, .-_ZNK8opendnp313StaticBuffers7GetViewEv
	.align	2
	.p2align 4,,11
	.global	_ZN8opendnp313StaticBuffers12GetArrayViewINS_10BinarySpecEEEN7openpal9ArrayViewINS_4CellIT_EEtEEv
	.type	_ZN8opendnp313StaticBuffers12GetArrayViewINS_10BinarySpecEEEN7openpal9ArrayViewINS_4CellIT_EEtEEv, %function
_ZN8opendnp313StaticBuffers12GetArrayViewINS_10BinarySpecEEEN7openpal9ArrayViewINS_4CellIT_EEtEEv:
.LFB117:
	.cfi_startproc
	mov	x1, x0
	ldrh	w0, [x0, 8]
	ldr	x1, [x1, 16]
	ret
	.cfi_endproc
.LFE117:
	.size	_ZN8opendnp313StaticBuffers12GetArrayViewINS_10BinarySpecEEEN7openpal9ArrayViewINS_4CellIT_EEtEEv, .-_ZN8opendnp313StaticBuffers12GetArrayViewINS_10BinarySpecEEEN7openpal9ArrayViewINS_4CellIT_EEtEEv
	.align	2
	.p2align 4,,11
	.global	_ZN8opendnp313StaticBuffers12GetArrayViewINS_19DoubleBitBinarySpecEEEN7openpal9ArrayViewINS_4CellIT_EEtEEv
	.type	_ZN8opendnp313StaticBuffers12GetArrayViewINS_19DoubleBitBinarySpecEEEN7openpal9ArrayViewINS_4CellIT_EEtEEv, %function
_ZN8opendnp313StaticBuffers12GetArrayViewINS_19DoubleBitBinarySpecEEEN7openpal9ArrayViewINS_4CellIT_EEtEEv:
.LFB118:
	.cfi_startproc
	mov	x1, x0
	ldrh	w0, [x0, 32]
	ldr	x1, [x1, 40]
	ret
	.cfi_endproc
.LFE118:
	.size	_ZN8opendnp313StaticBuffers12GetArrayViewINS_19DoubleBitBinarySpecEEEN7openpal9ArrayViewINS_4CellIT_EEtEEv, .-_ZN8opendnp313StaticBuffers12GetArrayViewINS_19DoubleBitBinarySpecEEEN7openpal9ArrayViewINS_4CellIT_EEtEEv
	.align	2
	.p2align 4,,11
	.global	_ZN8opendnp313StaticBuffers12GetArrayViewINS_11CounterSpecEEEN7openpal9ArrayViewINS_4CellIT_EEtEEv
	.type	_ZN8opendnp313StaticBuffers12GetArrayViewINS_11CounterSpecEEEN7openpal9ArrayViewINS_4CellIT_EEtEEv, %function
_ZN8opendnp313StaticBuffers12GetArrayViewINS_11CounterSpecEEEN7openpal9ArrayViewINS_4CellIT_EEtEEv:
.LFB119:
	.cfi_startproc
	mov	x1, x0
	ldrh	w0, [x0, 80]
	ldr	x1, [x1, 88]
	ret
	.cfi_endproc
.LFE119:
	.size	_ZN8opendnp313StaticBuffers12GetArrayViewINS_11CounterSpecEEEN7openpal9ArrayViewINS_4CellIT_EEtEEv, .-_ZN8opendnp313StaticBuffers12GetArrayViewINS_11CounterSpecEEEN7openpal9ArrayViewINS_4CellIT_EEtEEv
	.align	2
	.p2align 4,,11
	.global	_ZN8opendnp313StaticBuffers12GetArrayViewINS_17FrozenCounterSpecEEEN7openpal9ArrayViewINS_4CellIT_EEtEEv
	.type	_ZN8opendnp313StaticBuffers12GetArrayViewINS_17FrozenCounterSpecEEEN7openpal9ArrayViewINS_4CellIT_EEtEEv, %function
_ZN8opendnp313StaticBuffers12GetArrayViewINS_17FrozenCounterSpecEEEN7openpal9ArrayViewINS_4CellIT_EEtEEv:
.LFB120:
	.cfi_startproc
	mov	x1, x0
	ldrh	w0, [x0, 104]
	ldr	x1, [x1, 112]
	ret
	.cfi_endproc
.LFE120:
	.size	_ZN8opendnp313StaticBuffers12GetArrayViewINS_17FrozenCounterSpecEEEN7openpal9ArrayViewINS_4CellIT_EEtEEv, .-_ZN8opendnp313StaticBuffers12GetArrayViewINS_17FrozenCounterSpecEEEN7openpal9ArrayViewINS_4CellIT_EEtEEv
	.align	2
	.p2align 4,,11
	.global	_ZN8opendnp313StaticBuffers12GetArrayViewINS_10AnalogSpecEEEN7openpal9ArrayViewINS_4CellIT_EEtEEv
	.type	_ZN8opendnp313StaticBuffers12GetArrayViewINS_10AnalogSpecEEEN7openpal9ArrayViewINS_4CellIT_EEtEEv, %function
_ZN8opendnp313StaticBuffers12GetArrayViewINS_10AnalogSpecEEEN7openpal9ArrayViewINS_4CellIT_EEtEEv:
.LFB121:
	.cfi_startproc
	mov	x1, x0
	ldrh	w0, [x0, 56]
	ldr	x1, [x1, 64]
	ret
	.cfi_endproc
.LFE121:
	.size	_ZN8opendnp313StaticBuffers12GetArrayViewINS_10AnalogSpecEEEN7openpal9ArrayViewINS_4CellIT_EEtEEv, .-_ZN8opendnp313StaticBuffers12GetArrayViewINS_10AnalogSpecEEEN7openpal9ArrayViewINS_4CellIT_EEtEEv
	.align	2
	.p2align 4,,11
	.global	_ZN8opendnp313StaticBuffers12GetArrayViewINS_22BinaryOutputStatusSpecEEEN7openpal9ArrayViewINS_4CellIT_EEtEEv
	.type	_ZN8opendnp313StaticBuffers12GetArrayViewINS_22BinaryOutputStatusSpecEEEN7openpal9ArrayViewINS_4CellIT_EEtEEv, %function
_ZN8opendnp313StaticBuffers12GetArrayViewINS_22BinaryOutputStatusSpecEEEN7openpal9ArrayViewINS_4CellIT_EEtEEv:
.LFB122:
	.cfi_startproc
	mov	x1, x0
	ldrh	w0, [x0, 128]
	ldr	x1, [x1, 136]
	ret
	.cfi_endproc
.LFE122:
	.size	_ZN8opendnp313StaticBuffers12GetArrayViewINS_22BinaryOutputStatusSpecEEEN7openpal9ArrayViewINS_4CellIT_EEtEEv, .-_ZN8opendnp313StaticBuffers12GetArrayViewINS_22BinaryOutputStatusSpecEEEN7openpal9ArrayViewINS_4CellIT_EEtEEv
	.align	2
	.p2align 4,,11
	.global	_ZN8opendnp313StaticBuffers12GetArrayViewINS_22AnalogOutputStatusSpecEEEN7openpal9ArrayViewINS_4CellIT_EEtEEv
	.type	_ZN8opendnp313StaticBuffers12GetArrayViewINS_22AnalogOutputStatusSpecEEEN7openpal9ArrayViewINS_4CellIT_EEtEEv, %function
_ZN8opendnp313StaticBuffers12GetArrayViewINS_22AnalogOutputStatusSpecEEEN7openpal9ArrayViewINS_4CellIT_EEtEEv:
.LFB123:
	.cfi_startproc
	mov	x1, x0
	ldrh	w0, [x0, 152]
	ldr	x1, [x1, 160]
	ret
	.cfi_endproc
.LFE123:
	.size	_ZN8opendnp313StaticBuffers12GetArrayViewINS_22AnalogOutputStatusSpecEEEN7openpal9ArrayViewINS_4CellIT_EEtEEv, .-_ZN8opendnp313StaticBuffers12GetArrayViewINS_22AnalogOutputStatusSpecEEEN7openpal9ArrayViewINS_4CellIT_EEtEEv
	.align	2
	.p2align 4,,11
	.global	_ZN8opendnp313StaticBuffers12GetArrayViewINS_19TimeAndIntervalSpecEEEN7openpal9ArrayViewINS_4CellIT_EEtEEv
	.type	_ZN8opendnp313StaticBuffers12GetArrayViewINS_19TimeAndIntervalSpecEEEN7openpal9ArrayViewINS_4CellIT_EEtEEv, %function
_ZN8opendnp313StaticBuffers12GetArrayViewINS_19TimeAndIntervalSpecEEEN7openpal9ArrayViewINS_4CellIT_EEtEEv:
.LFB124:
	.cfi_startproc
	mov	x1, x0
	ldrh	w0, [x0, 176]
	ldr	x1, [x1, 184]
	ret
	.cfi_endproc
.LFE124:
	.size	_ZN8opendnp313StaticBuffers12GetArrayViewINS_19TimeAndIntervalSpecEEEN7openpal9ArrayViewINS_4CellIT_EEtEEv, .-_ZN8opendnp313StaticBuffers12GetArrayViewINS_19TimeAndIntervalSpecEEEN7openpal9ArrayViewINS_4CellIT_EEtEEv
	.align	2
	.p2align 4,,11
	.global	_ZN8opendnp313StaticBuffersC2ERKNS_13DatabaseSizesE
	.type	_ZN8opendnp313StaticBuffersC2ERKNS_13DatabaseSizesE, %function
_ZN8opendnp313StaticBuffersC2ERKNS_13DatabaseSizesE:
.LFB114:
	.cfi_startproc
	.cfi_personality 0x9b,DW.ref.__gxx_personality_v0
	.cfi_lsda 0x1b,.LLSDA114
	stp	x29, x30, [sp, -128]!
	.cfi_def_cfa_offset 128
	.cfi_offset 29, -128
	.cfi_offset 30, -120
	mov	w2, 112
	mov	x29, sp
	stp	x21, x22, [sp, 32]
	.cfi_offset 21, -96
	.cfi_offset 22, -88
	mov	x22, x1
	stp	x19, x20, [sp, 16]
	.cfi_offset 19, -112
	.cfi_offset 20, -104
	mov	x20, x0
	ldrh	w19, [x22]
	adrp	x0, :got:_ZTVN7openpal5ArrayIN8opendnp34CellINS1_10BinarySpecEEEtEE
	stp	x23, x24, [sp, 48]
	ldr	x1, [x0, #:got_lo12:_ZTVN7openpal5ArrayIN8opendnp34CellINS1_10BinarySpecEEEtEE]
	umull	x0, w19, w2
	stp	x25, x26, [sp, 64]
	add	x1, x1, 16
	stp	x27, x28, [sp, 80]
	.cfi_offset 23, -80
	.cfi_offset 24, -72
	.cfi_offset 25, -64
	.cfi_offset 26, -56
	.cfi_offset 27, -48
	.cfi_offset 28, -40
	str	x1, [x20]
	strh	w19, [x20, 8]
	and	x19, x19, 65535
.LEHB0:
	bl	_Znam
.LEHE0:
	mov	x26, x0
	cbz	x19, .L77
	sub	x21, x19, #1
	mov	x19, x0
	mov	w24, 513
	mov	w25, 2
	mov	w23, 1
	.p2align 3,,7
.L78:
	movi	v0.4s, 0
	mov	x0, x19
	stp	q0, q0, [x19]
	stp	q0, q0, [x19, 32]
	stp	q0, q0, [x19, 64]
	str	q0, [x19, 96]
.LEHB1:
	bl	_ZN8opendnp36BinaryC1Ev
	add	x0, x19, 40
	strh	wzr, [x19, 24]
	strh	w24, [x19, 26]
	strb	wzr, [x19, 28]
	strb	w25, [x19, 32]
	bl	_ZN8opendnp36BinaryC1Ev
	strb	wzr, [x19, 64]
	add	x0, x19, 80
	strb	wzr, [x19, 72]
	bl	_ZN8opendnp36BinaryC1Ev
.LEHE1:
	sub	x21, x21, #1
	strb	w23, [x19, 104]
	add	x19, x19, 112
	cmn	x21, #1
	bne	.L78
.L77:
	ldrh	w1, [x22, 2]
	adrp	x2, :got:_ZTVN7openpal5ArrayIN8opendnp34CellINS1_19DoubleBitBinarySpecEEEtEE
	mov	w0, 112
	strh	w1, [x20, 32]
	ldr	x2, [x2, #:got_lo12:_ZTVN7openpal5ArrayIN8opendnp34CellINS1_19DoubleBitBinarySpecEEEtEE]
	and	x19, x1, 65535
	umull	x0, w1, w0
	add	x2, x2, 16
	stp	x26, x2, [x20, 16]
.LEHB2:
	bl	_Znam
.LEHE2:
	sub	x21, x19, #1
	mov	x24, x0
	cbz	x19, .L81
	mov	x19, x0
	mov	w23, 512
	mov	w25, 2
	.p2align 3,,7
.L82:
	movi	v0.4s, 0
	mov	x0, x19
	stp	q0, q0, [x19]
	stp	q0, q0, [x19, 32]
	stp	q0, q0, [x19, 64]
	str	q0, [x19, 96]
.LEHB3:
	bl	_ZN8opendnp315DoubleBitBinaryC1Ev
	add	x0, x19, 40
	strh	wzr, [x19, 24]
	strh	w23, [x19, 26]
	strb	wzr, [x19, 28]
	strb	w25, [x19, 32]
	bl	_ZN8opendnp315DoubleBitBinaryC1Ev
	strb	wzr, [x19, 64]
	add	x0, x19, 80
	strb	wzr, [x19, 72]
	bl	_ZN8opendnp315DoubleBitBinaryC1Ev
.LEHE3:
	sub	x21, x21, #1
	strb	wzr, [x19, 104]
	add	x19, x19, 112
	cmn	x21, #1
	bne	.L82
.L81:
	ldrh	w1, [x22, 4]
	adrp	x2, :got:_ZTVN7openpal5ArrayIN8opendnp34CellINS1_10AnalogSpecEEEtEE
	mov	w0, 120
	add	x3, x20, 24
	ldr	x2, [x2, #:got_lo12:_ZTVN7openpal5ArrayIN8opendnp34CellINS1_10AnalogSpecEEEtEE]
	str	x24, [x3, 16]
	umull	x0, w1, w0
	strh	w1, [x20, 56]
	add	x2, x2, 16
	str	x2, [x20, 48]
	and	x19, x1, 65535
	str	x3, [sp, 96]
.LEHB4:
	bl	_Znam
.LEHE4:
	sub	x23, x19, #1
	mov	x21, x0
	cbz	x19, .L86
	mov	x19, x0
	mov	w24, 512
	mov	w25, 2
	.p2align 3,,7
.L87:
	movi	v0.4s, 0
	str	xzr, [x19, 112]
	mov	x0, x19
	stp	q0, q0, [x19]
	stp	q0, q0, [x19, 32]
	stp	q0, q0, [x19, 64]
	str	q0, [x19, 96]
.LEHB5:
	bl	_ZN8opendnp36AnalogC1Ev
	add	x0, x19, 48
	strh	wzr, [x19, 24]
	strh	w24, [x19, 26]
	strb	wzr, [x19, 28]
	str	xzr, [x19, 32]
	strb	w25, [x19, 40]
	bl	_ZN8opendnp36AnalogC1Ev
	strb	wzr, [x19, 72]
	add	x0, x19, 88
	strb	wzr, [x19, 80]
	bl	_ZN8opendnp36AnalogC1Ev
.LEHE5:
	sub	x23, x23, #1
	strb	wzr, [x19, 112]
	add	x19, x19, 120
	cmn	x23, #1
	bne	.L87
.L86:
	ldrh	w1, [x22, 6]
	adrp	x2, :got:_ZTVN7openpal5ArrayIN8opendnp34CellINS1_11CounterSpecEEEtEE
	mov	w0, 120
	add	x3, x20, 48
	ldr	x2, [x2, #:got_lo12:_ZTVN7openpal5ArrayIN8opendnp34CellINS1_11CounterSpecEEEtEE]
	str	x21, [x3, 16]
	umull	x0, w1, w0
	strh	w1, [x20, 80]
	add	x2, x2, 16
	str	x2, [x20, 72]
	and	x19, x1, 65535
	str	x3, [sp, 104]
.LEHB6:
	bl	_Znam
.LEHE6:
	sub	x23, x19, #1
	mov	x21, x0
	cbz	x19, .L91
	mov	x19, x0
	mov	w24, 512
	mov	w25, 2
	.p2align 3,,7
.L92:
	movi	v0.4s, 0
	str	xzr, [x19, 112]
	mov	x0, x19
	stp	q0, q0, [x19]
	stp	q0, q0, [x19, 32]
	stp	q0, q0, [x19, 64]
	str	q0, [x19, 96]
.LEHB7:
	bl	_ZN8opendnp37CounterC1Ev
	add	x0, x19, 48
	strh	wzr, [x19, 24]
	strh	w24, [x19, 26]
	strb	wzr, [x19, 28]
	str	wzr, [x19, 32]
	strb	w25, [x19, 40]
	bl	_ZN8opendnp37CounterC1Ev
	strb	wzr, [x19, 72]
	add	x0, x19, 88
	strb	wzr, [x19, 80]
	bl	_ZN8opendnp37CounterC1Ev
.LEHE7:
	sub	x23, x23, #1
	strb	wzr, [x19, 112]
	add	x19, x19, 120
	cmn	x23, #1
	bne	.L92
.L91:
	ldrh	w1, [x22, 8]
	adrp	x2, :got:_ZTVN7openpal5ArrayIN8opendnp34CellINS1_17FrozenCounterSpecEEEtEE
	mov	w0, 120
	add	x3, x20, 72
	ldr	x2, [x2, #:got_lo12:_ZTVN7openpal5ArrayIN8opendnp34CellINS1_17FrozenCounterSpecEEEtEE]
	str	x21, [x3, 16]
	umull	x0, w1, w0
	strh	w1, [x20, 104]
	add	x2, x2, 16
	str	x2, [x20, 96]
	and	x19, x1, 65535
	str	x3, [sp, 112]
.LEHB8:
	bl	_Znam
.LEHE8:
	sub	x23, x19, #1
	mov	x21, x0
	cbz	x19, .L96
	mov	x19, x0
	mov	w24, 512
	mov	w25, 2
	.p2align 3,,7
.L97:
	movi	v0.4s, 0
	str	xzr, [x19, 112]
	mov	x0, x19
	stp	q0, q0, [x19]
	stp	q0, q0, [x19, 32]
	stp	q0, q0, [x19, 64]
	str	q0, [x19, 96]
.LEHB9:
	bl	_ZN8opendnp313FrozenCounterC1Ev
	add	x0, x19, 48
	strh	wzr, [x19, 24]
	strh	w24, [x19, 26]
	strb	wzr, [x19, 28]
	str	wzr, [x19, 32]
	strb	w25, [x19, 40]
	bl	_ZN8opendnp313FrozenCounterC1Ev
	strb	wzr, [x19, 72]
	add	x0, x19, 88
	strb	wzr, [x19, 80]
	bl	_ZN8opendnp313FrozenCounterC1Ev
.LEHE9:
	sub	x23, x23, #1
	strb	wzr, [x19, 112]
	add	x19, x19, 120
	cmn	x23, #1
	bne	.L97
.L96:
	ldrh	w1, [x22, 10]
	adrp	x26, :got:_ZTVN7openpal5ArrayIN8opendnp34CellINS1_22BinaryOutputStatusSpecEEEtEE
	add	x0, x20, 96
	mov	x3, x0
	mov	w0, 112
	ldr	x2, [x26, #:got_lo12:_ZTVN7openpal5ArrayIN8opendnp34CellINS1_22BinaryOutputStatusSpecEEEtEE]
	umull	x0, w1, w0
	str	x21, [x3, 16]
	and	x19, x1, 65535
	add	x2, x2, 16
	str	x2, [x20, 120]
	strh	w1, [x20, 128]
	str	x3, [sp, 120]
.LEHB10:
	bl	_Znam
.LEHE10:
	sub	x23, x19, #1
	mov	x21, x0
	cbz	x19, .L101
	mov	x19, x0
	mov	w24, 512
	mov	w25, 2
	.p2align 3,,7
.L102:
	movi	v0.4s, 0
	mov	x0, x19
	stp	q0, q0, [x19]
	stp	q0, q0, [x19, 32]
	stp	q0, q0, [x19, 64]
	str	q0, [x19, 96]
.LEHB11:
	bl	_ZN8opendnp318BinaryOutputStatusC1Ev
	add	x0, x19, 40
	strh	wzr, [x19, 24]
	strh	w24, [x19, 26]
	strb	wzr, [x19, 28]
	strb	w25, [x19, 32]
	bl	_ZN8opendnp318BinaryOutputStatusC1Ev
	strb	wzr, [x19, 64]
	add	x0, x19, 80
	strb	wzr, [x19, 72]
	bl	_ZN8opendnp318BinaryOutputStatusC1Ev
.LEHE11:
	sub	x23, x23, #1
	strb	wzr, [x19, 104]
	add	x19, x19, 112
	cmn	x23, #1
	bne	.L102
.L101:
	ldrh	w1, [x22, 12]
	adrp	x27, :got:_ZTVN7openpal5ArrayIN8opendnp34CellINS1_22AnalogOutputStatusSpecEEEtEE
	mov	w0, 120
	str	x21, [x20, 136]
	ldr	x2, [x27, #:got_lo12:_ZTVN7openpal5ArrayIN8opendnp34CellINS1_22AnalogOutputStatusSpecEEEtEE]
	strh	w1, [x20, 152]
	umull	x0, w1, w0
	add	x28, x20, 120
	add	x2, x2, 16
	str	x2, [x20, 144]
	and	x19, x1, 65535
.LEHB12:
	bl	_Znam
.LEHE12:
	sub	x21, x19, #1
	mov	x25, x0
	cbz	x19, .L106
	mov	x19, x0
	mov	w23, 512
	mov	w24, 2
	.p2align 3,,7
.L107:
	movi	v0.4s, 0
	str	xzr, [x19, 112]
	mov	x0, x19
	stp	q0, q0, [x19]
	stp	q0, q0, [x19, 32]
	stp	q0, q0, [x19, 64]
	str	q0, [x19, 96]
.LEHB13:
	bl	_ZN8opendnp318AnalogOutputStatusC1Ev
	add	x0, x19, 48
	strh	wzr, [x19, 24]
	strh	w23, [x19, 26]
	strb	wzr, [x19, 28]
	str	xzr, [x19, 32]
	strb	w24, [x19, 40]
	bl	_ZN8opendnp318AnalogOutputStatusC1Ev
	strb	wzr, [x19, 72]
	add	x0, x19, 88
	strb	wzr, [x19, 80]
	bl	_ZN8opendnp318AnalogOutputStatusC1Ev
.LEHE13:
	sub	x21, x21, #1
	strb	wzr, [x19, 112]
	add	x19, x19, 120
	cmn	x21, #1
	bne	.L107
.L106:
	ldrh	w1, [x22, 14]
	adrp	x22, :got:_ZTVN7openpal5ArrayIN8opendnp34CellINS1_19TimeAndIntervalSpecEEEtEE
	mov	w0, 56
	str	x25, [x20, 160]
	ldr	x2, [x22, #:got_lo12:_ZTVN7openpal5ArrayIN8opendnp34CellINS1_19TimeAndIntervalSpecEEEtEE]
	strh	w1, [x20, 176]
	umull	x0, w1, w0
	add	x23, x20, 144
	add	x2, x2, 16
	str	x2, [x20, 168]
	and	x21, x1, 65535
.LEHB14:
	bl	_Znam
.LEHE14:
	sub	x19, x21, #1
	mov	x24, x0
	cbz	x21, .L111
	mov	x21, x0
	.p2align 3,,7
.L112:
	movi	v0.4s, 0
	str	xzr, [x21, 48]
	mov	x0, x21
	stp	q0, q0, [x21]
	str	q0, [x21, 32]
.LEHB15:
	bl	_ZN8opendnp315TimeAndIntervalC1Ev
	add	x0, x21, 32
	strh	wzr, [x21, 16]
	strb	wzr, [x21, 18]
	strb	wzr, [x21, 24]
	bl	_ZN8opendnp315TimeAndIntervalC1Ev
.LEHE15:
	sub	x19, x19, #1
	strb	wzr, [x21, 48]
	add	x21, x21, 56
	cmn	x19, #1
	bne	.L112
.L111:
	str	x24, [x20, 184]
	add	x19, x20, 168
	mov	x0, x20
.LEHB16:
	bl	_ZN8opendnp313StaticBuffers12GetArrayViewINS_10BinarySpecEEEN7openpal9ArrayViewINS_4CellIT_EEtEEv
	ands	w0, w0, 65535
	add	x1, x1, 24
	mov	w2, 0
	beq	.L114
	.p2align 3,,7
.L117:
	add	w3, w2, 1
	strh	w2, [x1], 112
	and	w2, w3, 65535
	cmp	w0, w3, uxth
	bne	.L117
.L114:
	mov	x0, x20
	bl	_ZN8opendnp313StaticBuffers12GetArrayViewINS_19DoubleBitBinarySpecEEEN7openpal9ArrayViewINS_4CellIT_EEtEEv
	ands	w0, w0, 65535
	beq	.L118
	add	x3, x1, 24
	mov	w1, 0
	.p2align 3,,7
.L119:
	add	w2, w1, 1
	strh	w1, [x3], 112
	and	w1, w2, 65535
	cmp	w0, w2, uxth
	bne	.L119
.L118:
	mov	x0, x20
	bl	_ZN8opendnp313StaticBuffers12GetArrayViewINS_11CounterSpecEEEN7openpal9ArrayViewINS_4CellIT_EEtEEv
	ands	w0, w0, 65535
	beq	.L120
	add	x3, x1, 24
	mov	w1, 0
	.p2align 3,,7
.L121:
	add	w2, w1, 1
	strh	w1, [x3], 120
	and	w1, w2, 65535
	cmp	w0, w2, uxth
	bne	.L121
.L120:
	mov	x0, x20
	bl	_ZN8opendnp313StaticBuffers12GetArrayViewINS_17FrozenCounterSpecEEEN7openpal9ArrayViewINS_4CellIT_EEtEEv
	ands	w0, w0, 65535
	beq	.L122
	add	x3, x1, 24
	mov	w1, 0
	.p2align 3,,7
.L123:
	add	w2, w1, 1
	strh	w1, [x3], 120
	and	w1, w2, 65535
	cmp	w0, w2, uxth
	bne	.L123
.L122:
	mov	x0, x20
	bl	_ZN8opendnp313StaticBuffers12GetArrayViewINS_10AnalogSpecEEEN7openpal9ArrayViewINS_4CellIT_EEtEEv
	ands	w0, w0, 65535
	beq	.L124
	add	x3, x1, 24
	mov	w1, 0
	.p2align 3,,7
.L125:
	add	w2, w1, 1
	strh	w1, [x3], 120
	and	w1, w2, 65535
	cmp	w0, w2, uxth
	bne	.L125
.L124:
	mov	x0, x20
	bl	_ZN8opendnp313StaticBuffers12GetArrayViewINS_22BinaryOutputStatusSpecEEEN7openpal9ArrayViewINS_4CellIT_EEtEEv
	ands	w0, w0, 65535
	beq	.L126
	add	x3, x1, 24
	mov	w1, 0
	.p2align 3,,7
.L127:
	add	w2, w1, 1
	strh	w1, [x3], 112
	and	w1, w2, 65535
	cmp	w0, w2, uxth
	bne	.L127
.L126:
	mov	x0, x20
	bl	_ZN8opendnp313StaticBuffers12GetArrayViewINS_22AnalogOutputStatusSpecEEEN7openpal9ArrayViewINS_4CellIT_EEtEEv
	ands	w0, w0, 65535
	beq	.L128
	add	x3, x1, 24
	mov	w1, 0
	.p2align 3,,7
.L129:
	add	w2, w1, 1
	strh	w1, [x3], 120
	and	w1, w2, 65535
	cmp	w0, w2, uxth
	bne	.L129
.L128:
	mov	x0, x20
	bl	_ZN8opendnp313StaticBuffers12GetArrayViewINS_19TimeAndIntervalSpecEEEN7openpal9ArrayViewINS_4CellIT_EEtEEv
.LEHE16:
	ands	w0, w0, 65535
	beq	.L157
	add	x3, x1, 16
	mov	w1, 0
	.p2align 3,,7
.L131:
	add	w2, w1, 1
	strh	w1, [x3], 56
	and	w1, w2, 65535
	cmp	w0, w2, uxth
	bne	.L131
.L157:
	ldp	x19, x20, [sp, 16]
	ldp	x21, x22, [sp, 32]
	ldp	x23, x24, [sp, 48]
	ldp	x25, x26, [sp, 64]
	ldp	x27, x28, [sp, 80]
	ldp	x29, x30, [sp], 128
	.cfi_remember_state
	.cfi_restore 30
	.cfi_restore 29
	.cfi_restore 27
	.cfi_restore 28
	.cfi_restore 25
	.cfi_restore 26
	.cfi_restore 23
	.cfi_restore 24
	.cfi_restore 21
	.cfi_restore 22
	.cfi_restore 19
	.cfi_restore 20
	.cfi_def_cfa_offset 0
	ret
.L150:
	.cfi_restore_state
	mov	x19, x0
	mov	x0, x26
	bl	_ZdaPv
	mov	x0, x19
.LEHB17:
	bl	_Unwind_Resume
.L148:
	ldr	x22, [x22, #:got_lo12:_ZTVN7openpal5ArrayIN8opendnp34CellINS1_19TimeAndIntervalSpecEEEtEE]
	ldr	x1, [x19, 16]
	add	x22, x22, 16
	str	x22, [x20, 168]
	mov	x19, x0
	cbz	x1, .L116
	mov	x0, x1
	bl	_ZdaPv
	b	.L116
.L156:
	mov	x19, x0
	mov	x0, x24
	bl	_ZdaPv
.L116:
	ldr	x1, [x27, #:got_lo12:_ZTVN7openpal5ArrayIN8opendnp34CellINS1_22AnalogOutputStatusSpecEEEtEE]
	ldr	x0, [x23, 16]
	add	x1, x1, 16
	str	x1, [x20, 144]
	cbz	x0, .L110
	bl	_ZdaPv
.L110:
	ldr	x1, [x26, #:got_lo12:_ZTVN7openpal5ArrayIN8opendnp34CellINS1_22BinaryOutputStatusSpecEEEtEE]
	ldr	x0, [x28, 16]
	add	x1, x1, 16
	str	x1, [x20, 120]
	cbz	x0, .L105
	bl	_ZdaPv
.L105:
	adrp	x0, :got:_ZTVN7openpal5ArrayIN8opendnp34CellINS1_17FrozenCounterSpecEEEtEE
	ldr	x1, [x0, #:got_lo12:_ZTVN7openpal5ArrayIN8opendnp34CellINS1_17FrozenCounterSpecEEEtEE]
	ldr	x0, [sp, 120]
	add	x1, x1, 16
	ldr	x0, [x0, 16]
	str	x1, [x20, 96]
	cbz	x0, .L100
	bl	_ZdaPv
.L100:
	adrp	x0, :got:_ZTVN7openpal5ArrayIN8opendnp34CellINS1_11CounterSpecEEEtEE
	ldr	x1, [x0, #:got_lo12:_ZTVN7openpal5ArrayIN8opendnp34CellINS1_11CounterSpecEEEtEE]
	ldr	x0, [sp, 112]
	add	x1, x1, 16
	ldr	x0, [x0, 16]
	str	x1, [x20, 72]
	cbz	x0, .L95
	bl	_ZdaPv
.L95:
	adrp	x0, :got:_ZTVN7openpal5ArrayIN8opendnp34CellINS1_10AnalogSpecEEEtEE
	ldr	x1, [x0, #:got_lo12:_ZTVN7openpal5ArrayIN8opendnp34CellINS1_10AnalogSpecEEEtEE]
	ldr	x0, [sp, 104]
	add	x1, x1, 16
	ldr	x0, [x0, 16]
	str	x1, [x20, 48]
	cbz	x0, .L90
	bl	_ZdaPv
.L90:
	adrp	x0, :got:_ZTVN7openpal5ArrayIN8opendnp34CellINS1_19DoubleBitBinarySpecEEEtEE
	ldr	x1, [x0, #:got_lo12:_ZTVN7openpal5ArrayIN8opendnp34CellINS1_19DoubleBitBinarySpecEEEtEE]
	ldr	x0, [sp, 96]
	add	x1, x1, 16
	ldr	x0, [x0, 16]
	str	x1, [x20, 24]
	cbz	x0, .L85
	bl	_ZdaPv
.L85:
	adrp	x0, :got:_ZTVN7openpal5ArrayIN8opendnp34CellINS1_10BinarySpecEEEtEE
	ldr	x1, [x0, #:got_lo12:_ZTVN7openpal5ArrayIN8opendnp34CellINS1_10BinarySpecEEEtEE]
	ldr	x0, [x20, 16]
	add	x1, x1, 16
	str	x1, [x20]
	cbz	x0, .L140
	bl	_ZdaPv
.L140:
	mov	x0, x19
	bl	_Unwind_Resume
.LEHE17:
.L147:
	mov	x19, x0
	b	.L116
.L155:
	mov	x19, x0
	mov	x0, x25
	bl	_ZdaPv
	b	.L110
.L146:
	mov	x19, x0
	b	.L110
.L154:
	mov	x19, x0
	mov	x0, x21
	bl	_ZdaPv
	b	.L105
.L145:
	mov	x19, x0
	b	.L105
.L153:
	mov	x19, x0
	mov	x0, x21
	bl	_ZdaPv
	b	.L100
.L144:
	mov	x19, x0
	b	.L100
.L152:
	mov	x19, x0
	mov	x0, x21
	bl	_ZdaPv
	b	.L95
.L143:
	mov	x19, x0
	b	.L95
.L151:
	mov	x19, x0
	mov	x0, x21
	bl	_ZdaPv
	b	.L90
.L142:
	mov	x19, x0
	b	.L90
.L149:
	mov	x19, x0
	mov	x0, x24
	bl	_ZdaPv
	b	.L85
.L141:
	mov	x19, x0
	b	.L85
	.cfi_endproc
.LFE114:
	.global	__gxx_personality_v0
	.section	.gcc_except_table,"a",@progbits
.LLSDA114:
	.byte	0xff
	.byte	0xff
	.byte	0x1
	.uleb128 .LLSDACSE114-.LLSDACSB114
.LLSDACSB114:
	.uleb128 .LEHB0-.LFB114
	.uleb128 .LEHE0-.LEHB0
	.uleb128 0
	.uleb128 0
	.uleb128 .LEHB1-.LFB114
	.uleb128 .LEHE1-.LEHB1
	.uleb128 .L150-.LFB114
	.uleb128 0
	.uleb128 .LEHB2-.LFB114
	.uleb128 .LEHE2-.LEHB2
	.uleb128 .L141-.LFB114
	.uleb128 0
	.uleb128 .LEHB3-.LFB114
	.uleb128 .LEHE3-.LEHB3
	.uleb128 .L149-.LFB114
	.uleb128 0
	.uleb128 .LEHB4-.LFB114
	.uleb128 .LEHE4-.LEHB4
	.uleb128 .L142-.LFB114
	.uleb128 0
	.uleb128 .LEHB5-.LFB114
	.uleb128 .LEHE5-.LEHB5
	.uleb128 .L151-.LFB114
	.uleb128 0
	.uleb128 .LEHB6-.LFB114
	.uleb128 .LEHE6-.LEHB6
	.uleb128 .L143-.LFB114
	.uleb128 0
	.uleb128 .LEHB7-.LFB114
	.uleb128 .LEHE7-.LEHB7
	.uleb128 .L152-.LFB114
	.uleb128 0
	.uleb128 .LEHB8-.LFB114
	.uleb128 .LEHE8-.LEHB8
	.uleb128 .L144-.LFB114
	.uleb128 0
	.uleb128 .LEHB9-.LFB114
	.uleb128 .LEHE9-.LEHB9
	.uleb128 .L153-.LFB114
	.uleb128 0
	.uleb128 .LEHB10-.LFB114
	.uleb128 .LEHE10-.LEHB10
	.uleb128 .L145-.LFB114
	.uleb128 0
	.uleb128 .LEHB11-.LFB114
	.uleb128 .LEHE11-.LEHB11
	.uleb128 .L154-.LFB114
	.uleb128 0
	.uleb128 .LEHB12-.LFB114
	.uleb128 .LEHE12-.LEHB12
	.uleb128 .L146-.LFB114
	.uleb128 0
	.uleb128 .LEHB13-.LFB114
	.uleb128 .LEHE13-.LEHB13
	.uleb128 .L155-.LFB114
	.uleb128 0
	.uleb128 .LEHB14-.LFB114
	.uleb128 .LEHE14-.LEHB14
	.uleb128 .L147-.LFB114
	.uleb128 0
	.uleb128 .LEHB15-.LFB114
	.uleb128 .LEHE15-.LEHB15
	.uleb128 .L156-.LFB114
	.uleb128 0
	.uleb128 .LEHB16-.LFB114
	.uleb128 .LEHE16-.LEHB16
	.uleb128 .L148-.LFB114
	.uleb128 0
	.uleb128 .LEHB17-.LFB114
	.uleb128 .LEHE17-.LEHB17
	.uleb128 0
	.uleb128 0
.LLSDACSE114:
	.text
	.size	_ZN8opendnp313StaticBuffersC2ERKNS_13DatabaseSizesE, .-_ZN8opendnp313StaticBuffersC2ERKNS_13DatabaseSizesE
	.global	_ZN8opendnp313StaticBuffersC1ERKNS_13DatabaseSizesE
	.set	_ZN8opendnp313StaticBuffersC1ERKNS_13DatabaseSizesE,_ZN8opendnp313StaticBuffersC2ERKNS_13DatabaseSizesE
	.weak	_ZTSN7openpal7HasSizeItEE
	.section	.rodata._ZTSN7openpal7HasSizeItEE,"aG",@progbits,_ZTSN7openpal7HasSizeItEE,comdat
	.align	3
	.type	_ZTSN7openpal7HasSizeItEE, %object
	.size	_ZTSN7openpal7HasSizeItEE, 22
_ZTSN7openpal7HasSizeItEE:
	.string	"N7openpal7HasSizeItEE"
	.weak	_ZTIN7openpal7HasSizeItEE
	.section	.data.rel.ro._ZTIN7openpal7HasSizeItEE,"awG",@progbits,_ZTIN7openpal7HasSizeItEE,comdat
	.align	3
	.type	_ZTIN7openpal7HasSizeItEE, %object
	.size	_ZTIN7openpal7HasSizeItEE, 16
_ZTIN7openpal7HasSizeItEE:
	.xword	_ZTVN10__cxxabiv117__class_type_infoE+16
	.xword	_ZTSN7openpal7HasSizeItEE
	.weak	_ZTSN7openpal5ArrayIN8opendnp34CellINS1_10BinarySpecEEEtEE
	.section	.rodata._ZTSN7openpal5ArrayIN8opendnp34CellINS1_10BinarySpecEEEtEE,"aG",@progbits,_ZTSN7openpal5ArrayIN8opendnp34CellINS1_10BinarySpecEEEtEE,comdat
	.align	3
	.type	_ZTSN7openpal5ArrayIN8opendnp34CellINS1_10BinarySpecEEEtEE, %object
	.size	_ZTSN7openpal5ArrayIN8opendnp34CellINS1_10BinarySpecEEEtEE, 55
_ZTSN7openpal5ArrayIN8opendnp34CellINS1_10BinarySpecEEEtEE:
	.string	"N7openpal5ArrayIN8opendnp34CellINS1_10BinarySpecEEEtEE"
	.weak	_ZTIN7openpal5ArrayIN8opendnp34CellINS1_10BinarySpecEEEtEE
	.section	.data.rel.ro._ZTIN7openpal5ArrayIN8opendnp34CellINS1_10BinarySpecEEEtEE,"awG",@progbits,_ZTIN7openpal5ArrayIN8opendnp34CellINS1_10BinarySpecEEEtEE,comdat
	.align	3
	.type	_ZTIN7openpal5ArrayIN8opendnp34CellINS1_10BinarySpecEEEtEE, %object
	.size	_ZTIN7openpal5ArrayIN8opendnp34CellINS1_10BinarySpecEEEtEE, 40
_ZTIN7openpal5ArrayIN8opendnp34CellINS1_10BinarySpecEEEtEE:
	.xword	_ZTVN10__cxxabiv121__vmi_class_type_infoE+16
	.xword	_ZTSN7openpal5ArrayIN8opendnp34CellINS1_10BinarySpecEEEtEE
	.word	0
	.word	1
	.xword	_ZTIN7openpal7HasSizeItEE
	.xword	2050
	.weak	_ZTSN7openpal5ArrayIN8opendnp34CellINS1_19DoubleBitBinarySpecEEEtEE
	.section	.rodata._ZTSN7openpal5ArrayIN8opendnp34CellINS1_19DoubleBitBinarySpecEEEtEE,"aG",@progbits,_ZTSN7openpal5ArrayIN8opendnp34CellINS1_19DoubleBitBinarySpecEEEtEE,comdat
	.align	3
	.type	_ZTSN7openpal5ArrayIN8opendnp34CellINS1_19DoubleBitBinarySpecEEEtEE, %object
	.size	_ZTSN7openpal5ArrayIN8opendnp34CellINS1_19DoubleBitBinarySpecEEEtEE, 64
_ZTSN7openpal5ArrayIN8opendnp34CellINS1_19DoubleBitBinarySpecEEEtEE:
	.string	"N7openpal5ArrayIN8opendnp34CellINS1_19DoubleBitBinarySpecEEEtEE"
	.weak	_ZTIN7openpal5ArrayIN8opendnp34CellINS1_19DoubleBitBinarySpecEEEtEE
	.section	.data.rel.ro._ZTIN7openpal5ArrayIN8opendnp34CellINS1_19DoubleBitBinarySpecEEEtEE,"awG",@progbits,_ZTIN7openpal5ArrayIN8opendnp34CellINS1_19DoubleBitBinarySpecEEEtEE,comdat
	.align	3
	.type	_ZTIN7openpal5ArrayIN8opendnp34CellINS1_19DoubleBitBinarySpecEEEtEE, %object
	.size	_ZTIN7openpal5ArrayIN8opendnp34CellINS1_19DoubleBitBinarySpecEEEtEE, 40
_ZTIN7openpal5ArrayIN8opendnp34CellINS1_19DoubleBitBinarySpecEEEtEE:
	.xword	_ZTVN10__cxxabiv121__vmi_class_type_infoE+16
	.xword	_ZTSN7openpal5ArrayIN8opendnp34CellINS1_19DoubleBitBinarySpecEEEtEE
	.word	0
	.word	1
	.xword	_ZTIN7openpal7HasSizeItEE
	.xword	2050
	.weak	_ZTSN7openpal5ArrayIN8opendnp34CellINS1_10AnalogSpecEEEtEE
	.section	.rodata._ZTSN7openpal5ArrayIN8opendnp34CellINS1_10AnalogSpecEEEtEE,"aG",@progbits,_ZTSN7openpal5ArrayIN8opendnp34CellINS1_10AnalogSpecEEEtEE,comdat
	.align	3
	.type	_ZTSN7openpal5ArrayIN8opendnp34CellINS1_10AnalogSpecEEEtEE, %object
	.size	_ZTSN7openpal5ArrayIN8opendnp34CellINS1_10AnalogSpecEEEtEE, 55
_ZTSN7openpal5ArrayIN8opendnp34CellINS1_10AnalogSpecEEEtEE:
	.string	"N7openpal5ArrayIN8opendnp34CellINS1_10AnalogSpecEEEtEE"
	.weak	_ZTIN7openpal5ArrayIN8opendnp34CellINS1_10AnalogSpecEEEtEE
	.section	.data.rel.ro._ZTIN7openpal5ArrayIN8opendnp34CellINS1_10AnalogSpecEEEtEE,"awG",@progbits,_ZTIN7openpal5ArrayIN8opendnp34CellINS1_10AnalogSpecEEEtEE,comdat
	.align	3
	.type	_ZTIN7openpal5ArrayIN8opendnp34CellINS1_10AnalogSpecEEEtEE, %object
	.size	_ZTIN7openpal5ArrayIN8opendnp34CellINS1_10AnalogSpecEEEtEE, 40
_ZTIN7openpal5ArrayIN8opendnp34CellINS1_10AnalogSpecEEEtEE:
	.xword	_ZTVN10__cxxabiv121__vmi_class_type_infoE+16
	.xword	_ZTSN7openpal5ArrayIN8opendnp34CellINS1_10AnalogSpecEEEtEE
	.word	0
	.word	1
	.xword	_ZTIN7openpal7HasSizeItEE
	.xword	2050
	.weak	_ZTSN7openpal5ArrayIN8opendnp34CellINS1_11CounterSpecEEEtEE
	.section	.rodata._ZTSN7openpal5ArrayIN8opendnp34CellINS1_11CounterSpecEEEtEE,"aG",@progbits,_ZTSN7openpal5ArrayIN8opendnp34CellINS1_11CounterSpecEEEtEE,comdat
	.align	3
	.type	_ZTSN7openpal5ArrayIN8opendnp34CellINS1_11CounterSpecEEEtEE, %object
	.size	_ZTSN7openpal5ArrayIN8opendnp34CellINS1_11CounterSpecEEEtEE, 56
_ZTSN7openpal5ArrayIN8opendnp34CellINS1_11CounterSpecEEEtEE:
	.string	"N7openpal5ArrayIN8opendnp34CellINS1_11CounterSpecEEEtEE"
	.weak	_ZTIN7openpal5ArrayIN8opendnp34CellINS1_11CounterSpecEEEtEE
	.section	.data.rel.ro._ZTIN7openpal5ArrayIN8opendnp34CellINS1_11CounterSpecEEEtEE,"awG",@progbits,_ZTIN7openpal5ArrayIN8opendnp34CellINS1_11CounterSpecEEEtEE,comdat
	.align	3
	.type	_ZTIN7openpal5ArrayIN8opendnp34CellINS1_11CounterSpecEEEtEE, %object
	.size	_ZTIN7openpal5ArrayIN8opendnp34CellINS1_11CounterSpecEEEtEE, 40
_ZTIN7openpal5ArrayIN8opendnp34CellINS1_11CounterSpecEEEtEE:
	.xword	_ZTVN10__cxxabiv121__vmi_class_type_infoE+16
	.xword	_ZTSN7openpal5ArrayIN8opendnp34CellINS1_11CounterSpecEEEtEE
	.word	0
	.word	1
	.xword	_ZTIN7openpal7HasSizeItEE
	.xword	2050
	.weak	_ZTSN7openpal5ArrayIN8opendnp34CellINS1_17FrozenCounterSpecEEEtEE
	.section	.rodata._ZTSN7openpal5ArrayIN8opendnp34CellINS1_17FrozenCounterSpecEEEtEE,"aG",@progbits,_ZTSN7openpal5ArrayIN8opendnp34CellINS1_17FrozenCounterSpecEEEtEE,comdat
	.align	3
	.type	_ZTSN7openpal5ArrayIN8opendnp34CellINS1_17FrozenCounterSpecEEEtEE, %object
	.size	_ZTSN7openpal5ArrayIN8opendnp34CellINS1_17FrozenCounterSpecEEEtEE, 62
_ZTSN7openpal5ArrayIN8opendnp34CellINS1_17FrozenCounterSpecEEEtEE:
	.string	"N7openpal5ArrayIN8opendnp34CellINS1_17FrozenCounterSpecEEEtEE"
	.weak	_ZTIN7openpal5ArrayIN8opendnp34CellINS1_17FrozenCounterSpecEEEtEE
	.section	.data.rel.ro._ZTIN7openpal5ArrayIN8opendnp34CellINS1_17FrozenCounterSpecEEEtEE,"awG",@progbits,_ZTIN7openpal5ArrayIN8opendnp34CellINS1_17FrozenCounterSpecEEEtEE,comdat
	.align	3
	.type	_ZTIN7openpal5ArrayIN8opendnp34CellINS1_17FrozenCounterSpecEEEtEE, %object
	.size	_ZTIN7openpal5ArrayIN8opendnp34CellINS1_17FrozenCounterSpecEEEtEE, 40
_ZTIN7openpal5ArrayIN8opendnp34CellINS1_17FrozenCounterSpecEEEtEE:
	.xword	_ZTVN10__cxxabiv121__vmi_class_type_infoE+16
	.xword	_ZTSN7openpal5ArrayIN8opendnp34CellINS1_17FrozenCounterSpecEEEtEE
	.word	0
	.word	1
	.xword	_ZTIN7openpal7HasSizeItEE
	.xword	2050
	.weak	_ZTSN7openpal5ArrayIN8opendnp34CellINS1_22BinaryOutputStatusSpecEEEtEE
	.section	.rodata._ZTSN7openpal5ArrayIN8opendnp34CellINS1_22BinaryOutputStatusSpecEEEtEE,"aG",@progbits,_ZTSN7openpal5ArrayIN8opendnp34CellINS1_22BinaryOutputStatusSpecEEEtEE,comdat
	.align	3
	.type	_ZTSN7openpal5ArrayIN8opendnp34CellINS1_22BinaryOutputStatusSpecEEEtEE, %object
	.size	_ZTSN7openpal5ArrayIN8opendnp34CellINS1_22BinaryOutputStatusSpecEEEtEE, 67
_ZTSN7openpal5ArrayIN8opendnp34CellINS1_22BinaryOutputStatusSpecEEEtEE:
	.string	"N7openpal5ArrayIN8opendnp34CellINS1_22BinaryOutputStatusSpecEEEtEE"
	.weak	_ZTIN7openpal5ArrayIN8opendnp34CellINS1_22BinaryOutputStatusSpecEEEtEE
	.section	.data.rel.ro._ZTIN7openpal5ArrayIN8opendnp34CellINS1_22BinaryOutputStatusSpecEEEtEE,"awG",@progbits,_ZTIN7openpal5ArrayIN8opendnp34CellINS1_22BinaryOutputStatusSpecEEEtEE,comdat
	.align	3
	.type	_ZTIN7openpal5ArrayIN8opendnp34CellINS1_22BinaryOutputStatusSpecEEEtEE, %object
	.size	_ZTIN7openpal5ArrayIN8opendnp34CellINS1_22BinaryOutputStatusSpecEEEtEE, 40
_ZTIN7openpal5ArrayIN8opendnp34CellINS1_22BinaryOutputStatusSpecEEEtEE:
	.xword	_ZTVN10__cxxabiv121__vmi_class_type_infoE+16
	.xword	_ZTSN7openpal5ArrayIN8opendnp34CellINS1_22BinaryOutputStatusSpecEEEtEE
	.word	0
	.word	1
	.xword	_ZTIN7openpal7HasSizeItEE
	.xword	2050
	.weak	_ZTSN7openpal5ArrayIN8opendnp34CellINS1_22AnalogOutputStatusSpecEEEtEE
	.section	.rodata._ZTSN7openpal5ArrayIN8opendnp34CellINS1_22AnalogOutputStatusSpecEEEtEE,"aG",@progbits,_ZTSN7openpal5ArrayIN8opendnp34CellINS1_22AnalogOutputStatusSpecEEEtEE,comdat
	.align	3
	.type	_ZTSN7openpal5ArrayIN8opendnp34CellINS1_22AnalogOutputStatusSpecEEEtEE, %object
	.size	_ZTSN7openpal5ArrayIN8opendnp34CellINS1_22AnalogOutputStatusSpecEEEtEE, 67
_ZTSN7openpal5ArrayIN8opendnp34CellINS1_22AnalogOutputStatusSpecEEEtEE:
	.string	"N7openpal5ArrayIN8opendnp34CellINS1_22AnalogOutputStatusSpecEEEtEE"
	.weak	_ZTIN7openpal5ArrayIN8opendnp34CellINS1_22AnalogOutputStatusSpecEEEtEE
	.section	.data.rel.ro._ZTIN7openpal5ArrayIN8opendnp34CellINS1_22AnalogOutputStatusSpecEEEtEE,"awG",@progbits,_ZTIN7openpal5ArrayIN8opendnp34CellINS1_22AnalogOutputStatusSpecEEEtEE,comdat
	.align	3
	.type	_ZTIN7openpal5ArrayIN8opendnp34CellINS1_22AnalogOutputStatusSpecEEEtEE, %object
	.size	_ZTIN7openpal5ArrayIN8opendnp34CellINS1_22AnalogOutputStatusSpecEEEtEE, 40
_ZTIN7openpal5ArrayIN8opendnp34CellINS1_22AnalogOutputStatusSpecEEEtEE:
	.xword	_ZTVN10__cxxabiv121__vmi_class_type_infoE+16
	.xword	_ZTSN7openpal5ArrayIN8opendnp34CellINS1_22AnalogOutputStatusSpecEEEtEE
	.word	0
	.word	1
	.xword	_ZTIN7openpal7HasSizeItEE
	.xword	2050
	.weak	_ZTSN7openpal5ArrayIN8opendnp34CellINS1_19TimeAndIntervalSpecEEEtEE
	.section	.rodata._ZTSN7openpal5ArrayIN8opendnp34CellINS1_19TimeAndIntervalSpecEEEtEE,"aG",@progbits,_ZTSN7openpal5ArrayIN8opendnp34CellINS1_19TimeAndIntervalSpecEEEtEE,comdat
	.align	3
	.type	_ZTSN7openpal5ArrayIN8opendnp34CellINS1_19TimeAndIntervalSpecEEEtEE, %object
	.size	_ZTSN7openpal5ArrayIN8opendnp34CellINS1_19TimeAndIntervalSpecEEEtEE, 64
_ZTSN7openpal5ArrayIN8opendnp34CellINS1_19TimeAndIntervalSpecEEEtEE:
	.string	"N7openpal5ArrayIN8opendnp34CellINS1_19TimeAndIntervalSpecEEEtEE"
	.weak	_ZTIN7openpal5ArrayIN8opendnp34CellINS1_19TimeAndIntervalSpecEEEtEE
	.section	.data.rel.ro._ZTIN7openpal5ArrayIN8opendnp34CellINS1_19TimeAndIntervalSpecEEEtEE,"awG",@progbits,_ZTIN7openpal5ArrayIN8opendnp34CellINS1_19TimeAndIntervalSpecEEEtEE,comdat
	.align	3
	.type	_ZTIN7openpal5ArrayIN8opendnp34CellINS1_19TimeAndIntervalSpecEEEtEE, %object
	.size	_ZTIN7openpal5ArrayIN8opendnp34CellINS1_19TimeAndIntervalSpecEEEtEE, 40
_ZTIN7openpal5ArrayIN8opendnp34CellINS1_19TimeAndIntervalSpecEEEtEE:
	.xword	_ZTVN10__cxxabiv121__vmi_class_type_infoE+16
	.xword	_ZTSN7openpal5ArrayIN8opendnp34CellINS1_19TimeAndIntervalSpecEEEtEE
	.word	0
	.word	1
	.xword	_ZTIN7openpal7HasSizeItEE
	.xword	2050
	.weak	_ZTVN7openpal5ArrayIN8opendnp34CellINS1_10BinarySpecEEEtEE
	.section	.data.rel.ro._ZTVN7openpal5ArrayIN8opendnp34CellINS1_10BinarySpecEEEtEE,"awG",@progbits,_ZTVN7openpal5ArrayIN8opendnp34CellINS1_10BinarySpecEEEtEE,comdat
	.align	3
	.type	_ZTVN7openpal5ArrayIN8opendnp34CellINS1_10BinarySpecEEEtEE, %object
	.size	_ZTVN7openpal5ArrayIN8opendnp34CellINS1_10BinarySpecEEEtEE, 32
_ZTVN7openpal5ArrayIN8opendnp34CellINS1_10BinarySpecEEEtEE:
	.xword	0
	.xword	_ZTIN7openpal5ArrayIN8opendnp34CellINS1_10BinarySpecEEEtEE
	.xword	_ZN7openpal5ArrayIN8opendnp34CellINS1_10BinarySpecEEEtED1Ev
	.xword	_ZN7openpal5ArrayIN8opendnp34CellINS1_10BinarySpecEEEtED0Ev
	.weak	_ZTVN7openpal5ArrayIN8opendnp34CellINS1_19DoubleBitBinarySpecEEEtEE
	.section	.data.rel.ro._ZTVN7openpal5ArrayIN8opendnp34CellINS1_19DoubleBitBinarySpecEEEtEE,"awG",@progbits,_ZTVN7openpal5ArrayIN8opendnp34CellINS1_19DoubleBitBinarySpecEEEtEE,comdat
	.align	3
	.type	_ZTVN7openpal5ArrayIN8opendnp34CellINS1_19DoubleBitBinarySpecEEEtEE, %object
	.size	_ZTVN7openpal5ArrayIN8opendnp34CellINS1_19DoubleBitBinarySpecEEEtEE, 32
_ZTVN7openpal5ArrayIN8opendnp34CellINS1_19DoubleBitBinarySpecEEEtEE:
	.xword	0
	.xword	_ZTIN7openpal5ArrayIN8opendnp34CellINS1_19DoubleBitBinarySpecEEEtEE
	.xword	_ZN7openpal5ArrayIN8opendnp34CellINS1_19DoubleBitBinarySpecEEEtED1Ev
	.xword	_ZN7openpal5ArrayIN8opendnp34CellINS1_19DoubleBitBinarySpecEEEtED0Ev
	.weak	_ZTVN7openpal5ArrayIN8opendnp34CellINS1_10AnalogSpecEEEtEE
	.section	.data.rel.ro._ZTVN7openpal5ArrayIN8opendnp34CellINS1_10AnalogSpecEEEtEE,"awG",@progbits,_ZTVN7openpal5ArrayIN8opendnp34CellINS1_10AnalogSpecEEEtEE,comdat
	.align	3
	.type	_ZTVN7openpal5ArrayIN8opendnp34CellINS1_10AnalogSpecEEEtEE, %object
	.size	_ZTVN7openpal5ArrayIN8opendnp34CellINS1_10AnalogSpecEEEtEE, 32
_ZTVN7openpal5ArrayIN8opendnp34CellINS1_10AnalogSpecEEEtEE:
	.xword	0
	.xword	_ZTIN7openpal5ArrayIN8opendnp34CellINS1_10AnalogSpecEEEtEE
	.xword	_ZN7openpal5ArrayIN8opendnp34CellINS1_10AnalogSpecEEEtED1Ev
	.xword	_ZN7openpal5ArrayIN8opendnp34CellINS1_10AnalogSpecEEEtED0Ev
	.weak	_ZTVN7openpal5ArrayIN8opendnp34CellINS1_11CounterSpecEEEtEE
	.section	.data.rel.ro._ZTVN7openpal5ArrayIN8opendnp34CellINS1_11CounterSpecEEEtEE,"awG",@progbits,_ZTVN7openpal5ArrayIN8opendnp34CellINS1_11CounterSpecEEEtEE,comdat
	.align	3
	.type	_ZTVN7openpal5ArrayIN8opendnp34CellINS1_11CounterSpecEEEtEE, %object
	.size	_ZTVN7openpal5ArrayIN8opendnp34CellINS1_11CounterSpecEEEtEE, 32
_ZTVN7openpal5ArrayIN8opendnp34CellINS1_11CounterSpecEEEtEE:
	.xword	0
	.xword	_ZTIN7openpal5ArrayIN8opendnp34CellINS1_11CounterSpecEEEtEE
	.xword	_ZN7openpal5ArrayIN8opendnp34CellINS1_11CounterSpecEEEtED1Ev
	.xword	_ZN7openpal5ArrayIN8opendnp34CellINS1_11CounterSpecEEEtED0Ev
	.weak	_ZTVN7openpal5ArrayIN8opendnp34CellINS1_17FrozenCounterSpecEEEtEE
	.section	.data.rel.ro._ZTVN7openpal5ArrayIN8opendnp34CellINS1_17FrozenCounterSpecEEEtEE,"awG",@progbits,_ZTVN7openpal5ArrayIN8opendnp34CellINS1_17FrozenCounterSpecEEEtEE,comdat
	.align	3
	.type	_ZTVN7openpal5ArrayIN8opendnp34CellINS1_17FrozenCounterSpecEEEtEE, %object
	.size	_ZTVN7openpal5ArrayIN8opendnp34CellINS1_17FrozenCounterSpecEEEtEE, 32
_ZTVN7openpal5ArrayIN8opendnp34CellINS1_17FrozenCounterSpecEEEtEE:
	.xword	0
	.xword	_ZTIN7openpal5ArrayIN8opendnp34CellINS1_17FrozenCounterSpecEEEtEE
	.xword	_ZN7openpal5ArrayIN8opendnp34CellINS1_17FrozenCounterSpecEEEtED1Ev
	.xword	_ZN7openpal5ArrayIN8opendnp34CellINS1_17FrozenCounterSpecEEEtED0Ev
	.weak	_ZTVN7openpal5ArrayIN8opendnp34CellINS1_22BinaryOutputStatusSpecEEEtEE
	.section	.data.rel.ro._ZTVN7openpal5ArrayIN8opendnp34CellINS1_22BinaryOutputStatusSpecEEEtEE,"awG",@progbits,_ZTVN7openpal5ArrayIN8opendnp34CellINS1_22BinaryOutputStatusSpecEEEtEE,comdat
	.align	3
	.type	_ZTVN7openpal5ArrayIN8opendnp34CellINS1_22BinaryOutputStatusSpecEEEtEE, %object
	.size	_ZTVN7openpal5ArrayIN8opendnp34CellINS1_22BinaryOutputStatusSpecEEEtEE, 32
_ZTVN7openpal5ArrayIN8opendnp34CellINS1_22BinaryOutputStatusSpecEEEtEE:
	.xword	0
	.xword	_ZTIN7openpal5ArrayIN8opendnp34CellINS1_22BinaryOutputStatusSpecEEEtEE
	.xword	_ZN7openpal5ArrayIN8opendnp34CellINS1_22BinaryOutputStatusSpecEEEtED1Ev
	.xword	_ZN7openpal5ArrayIN8opendnp34CellINS1_22BinaryOutputStatusSpecEEEtED0Ev
	.weak	_ZTVN7openpal5ArrayIN8opendnp34CellINS1_22AnalogOutputStatusSpecEEEtEE
	.section	.data.rel.ro._ZTVN7openpal5ArrayIN8opendnp34CellINS1_22AnalogOutputStatusSpecEEEtEE,"awG",@progbits,_ZTVN7openpal5ArrayIN8opendnp34CellINS1_22AnalogOutputStatusSpecEEEtEE,comdat
	.align	3
	.type	_ZTVN7openpal5ArrayIN8opendnp34CellINS1_22AnalogOutputStatusSpecEEEtEE, %object
	.size	_ZTVN7openpal5ArrayIN8opendnp34CellINS1_22AnalogOutputStatusSpecEEEtEE, 32
_ZTVN7openpal5ArrayIN8opendnp34CellINS1_22AnalogOutputStatusSpecEEEtEE:
	.xword	0
	.xword	_ZTIN7openpal5ArrayIN8opendnp34CellINS1_22AnalogOutputStatusSpecEEEtEE
	.xword	_ZN7openpal5ArrayIN8opendnp34CellINS1_22AnalogOutputStatusSpecEEEtED1Ev
	.xword	_ZN7openpal5ArrayIN8opendnp34CellINS1_22AnalogOutputStatusSpecEEEtED0Ev
	.weak	_ZTVN7openpal5ArrayIN8opendnp34CellINS1_19TimeAndIntervalSpecEEEtEE
	.section	.data.rel.ro._ZTVN7openpal5ArrayIN8opendnp34CellINS1_19TimeAndIntervalSpecEEEtEE,"awG",@progbits,_ZTVN7openpal5ArrayIN8opendnp34CellINS1_19TimeAndIntervalSpecEEEtEE,comdat
	.align	3
	.type	_ZTVN7openpal5ArrayIN8opendnp34CellINS1_19TimeAndIntervalSpecEEEtEE, %object
	.size	_ZTVN7openpal5ArrayIN8opendnp34CellINS1_19TimeAndIntervalSpecEEEtEE, 32
_ZTVN7openpal5ArrayIN8opendnp34CellINS1_19TimeAndIntervalSpecEEEtEE:
	.xword	0
	.xword	_ZTIN7openpal5ArrayIN8opendnp34CellINS1_19TimeAndIntervalSpecEEEtEE
	.xword	_ZN7openpal5ArrayIN8opendnp34CellINS1_19TimeAndIntervalSpecEEEtED1Ev
	.xword	_ZN7openpal5ArrayIN8opendnp34CellINS1_19TimeAndIntervalSpecEEEtED0Ev
	.hidden	DW.ref.__gxx_personality_v0
	.weak	DW.ref.__gxx_personality_v0
	.section	.data.rel.local.DW.ref.__gxx_personality_v0,"awG",@progbits,DW.ref.__gxx_personality_v0,comdat
	.align	3
	.type	DW.ref.__gxx_personality_v0, %object
	.size	DW.ref.__gxx_personality_v0, 8
DW.ref.__gxx_personality_v0:
	.xword	__gxx_personality_v0
	.ident	"GCC: (Ubuntu 11.4.0-1ubuntu1~22.04) 11.4.0"
	.section	.note.GNU-stack,"",@progbits
