	.arch armv8-a
	.file	"WriteHandler.cpp"
	.text
	.section	.text._ZN8opendnp312IAPDUHandler14OnHeaderResultERKNS_12HeaderRecordERKNS_8IINFieldE,"axG",@progbits,_ZN8opendnp312IAPDUHandler14OnHeaderResultERKNS_12HeaderRecordERKNS_8IINFieldE,comdat
	.align	2
	.p2align 4,,11
	.weak	_ZN8opendnp312IAPDUHandler14OnHeaderResultERKNS_12HeaderRecordERKNS_8IINFieldE
	.type	_ZN8opendnp312IAPDUHandler14OnHeaderResultERKNS_12HeaderRecordERKNS_8IINFieldE, %function
_ZN8opendnp312IAPDUHandler14OnHeaderResultERKNS_12HeaderRecordERKNS_8IINFieldE:
.LFB274:
	.cfi_startproc
	ret
	.cfi_endproc
.LFE274:
	.size	_ZN8opendnp312IAPDUHandler14OnHeaderResultERKNS_12HeaderRecordERKNS_8IINFieldE, .-_ZN8opendnp312IAPDUHandler14OnHeaderResultERKNS_12HeaderRecordERKNS_8IINFieldE
	.section	.text._ZN8opendnp322IOutstationApplication25SupportsWriteAbsoluteTimeEv,"axG",@progbits,_ZN8opendnp322IOutstationApplication25SupportsWriteAbsoluteTimeEv,comdat
	.align	2
	.p2align 4,,11
	.weak	_ZN8opendnp322IOutstationApplication25SupportsWriteAbsoluteTimeEv
	.type	_ZN8opendnp322IOutstationApplication25SupportsWriteAbsoluteTimeEv, %function
_ZN8opendnp322IOutstationApplication25SupportsWriteAbsoluteTimeEv:
.LFB1906:
	.cfi_startproc
	mov	w0, 0
	ret
	.cfi_endproc
.LFE1906:
	.size	_ZN8opendnp322IOutstationApplication25SupportsWriteAbsoluteTimeEv, .-_ZN8opendnp322IOutstationApplication25SupportsWriteAbsoluteTimeEv
	.section	.text._ZN8opendnp322IOutstationApplication17WriteAbsoluteTimeERKN7openpal12UTCTimestampE,"axG",@progbits,_ZN8opendnp322IOutstationApplication17WriteAbsoluteTimeERKN7openpal12UTCTimestampE,comdat
	.align	2
	.p2align 4,,11
	.weak	_ZN8opendnp322IOutstationApplication17WriteAbsoluteTimeERKN7openpal12UTCTimestampE
	.type	_ZN8opendnp322IOutstationApplication17WriteAbsoluteTimeERKN7openpal12UTCTimestampE, %function
_ZN8opendnp322IOutstationApplication17WriteAbsoluteTimeERKN7openpal12UTCTimestampE:
.LFB1907:
	.cfi_startproc
	mov	w0, 0
	ret
	.cfi_endproc
.LFE1907:
	.size	_ZN8opendnp322IOutstationApplication17WriteAbsoluteTimeERKN7openpal12UTCTimestampE, .-_ZN8opendnp322IOutstationApplication17WriteAbsoluteTimeERKN7openpal12UTCTimestampE
	.section	.text._ZN8opendnp322IOutstationApplication28SupportsWriteTimeAndIntervalEv,"axG",@progbits,_ZN8opendnp322IOutstationApplication28SupportsWriteTimeAndIntervalEv,comdat
	.align	2
	.p2align 4,,11
	.weak	_ZN8opendnp322IOutstationApplication28SupportsWriteTimeAndIntervalEv
	.type	_ZN8opendnp322IOutstationApplication28SupportsWriteTimeAndIntervalEv, %function
_ZN8opendnp322IOutstationApplication28SupportsWriteTimeAndIntervalEv:
.LFB1908:
	.cfi_startproc
	mov	w0, 0
	ret
	.cfi_endproc
.LFE1908:
	.size	_ZN8opendnp322IOutstationApplication28SupportsWriteTimeAndIntervalEv, .-_ZN8opendnp322IOutstationApplication28SupportsWriteTimeAndIntervalEv
	.section	.text._ZN8opendnp322IOutstationApplication20WriteTimeAndIntervalERKNS_11ICollectionINS_7IndexedINS_15TimeAndIntervalEEEEE,"axG",@progbits,_ZN8opendnp322IOutstationApplication20WriteTimeAndIntervalERKNS_11ICollectionINS_7IndexedINS_15TimeAndIntervalEEEEE,comdat
	.align	2
	.p2align 4,,11
	.weak	_ZN8opendnp322IOutstationApplication20WriteTimeAndIntervalERKNS_11ICollectionINS_7IndexedINS_15TimeAndIntervalEEEEE
	.type	_ZN8opendnp322IOutstationApplication20WriteTimeAndIntervalERKNS_11ICollectionINS_7IndexedINS_15TimeAndIntervalEEEEE, %function
_ZN8opendnp322IOutstationApplication20WriteTimeAndIntervalERKNS_11ICollectionINS_7IndexedINS_15TimeAndIntervalEEEEE:
.LFB1909:
	.cfi_startproc
	mov	w0, 0
	ret
	.cfi_endproc
.LFE1909:
	.size	_ZN8opendnp322IOutstationApplication20WriteTimeAndIntervalERKNS_11ICollectionINS_7IndexedINS_15TimeAndIntervalEEEEE, .-_ZN8opendnp322IOutstationApplication20WriteTimeAndIntervalERKNS_11ICollectionINS_7IndexedINS_15TimeAndIntervalEEEEE
	.section	.text._ZN8opendnp312WriteHandler9IsAllowedEjNS_14GroupVariationENS_13QualifierCodeE,"axG",@progbits,_ZN8opendnp312WriteHandler9IsAllowedEjNS_14GroupVariationENS_13QualifierCodeE,comdat
	.align	2
	.p2align 4,,11
	.weak	_ZN8opendnp312WriteHandler9IsAllowedEjNS_14GroupVariationENS_13QualifierCodeE
	.type	_ZN8opendnp312WriteHandler9IsAllowedEjNS_14GroupVariationENS_13QualifierCodeE, %function
_ZN8opendnp312WriteHandler9IsAllowedEjNS_14GroupVariationENS_13QualifierCodeE:
.LFB2391:
	.cfi_startproc
	mov	w0, 1
	ret
	.cfi_endproc
.LFE2391:
	.size	_ZN8opendnp312WriteHandler9IsAllowedEjNS_14GroupVariationENS_13QualifierCodeE, .-_ZN8opendnp312WriteHandler9IsAllowedEjNS_14GroupVariationENS_13QualifierCodeE
	.section	.text._ZN8opendnp314FunctorVisitorINS_11Group50Var1EZNKS_11ICollectionIS1_E13ReadOnlyValueERS1_EUlRKS1_E_E7OnValueES6_,"axG",@progbits,_ZN8opendnp314FunctorVisitorINS_11Group50Var1EZNKS_11ICollectionIS1_E13ReadOnlyValueERS1_EUlRKS1_E_E7OnValueES6_,comdat
	.align	2
	.p2align 4,,11
	.weak	_ZN8opendnp314FunctorVisitorINS_11Group50Var1EZNKS_11ICollectionIS1_E13ReadOnlyValueERS1_EUlRKS1_E_E7OnValueES6_
	.type	_ZN8opendnp314FunctorVisitorINS_11Group50Var1EZNKS_11ICollectionIS1_E13ReadOnlyValueERS1_EUlRKS1_E_E7OnValueES6_, %function
_ZN8opendnp314FunctorVisitorINS_11Group50Var1EZNKS_11ICollectionIS1_E13ReadOnlyValueERS1_EUlRKS1_E_E7OnValueES6_:
.LFB3224:
	.cfi_startproc
	ldr	x0, [x0, 8]
	ldr	x1, [x1]
	str	x1, [x0]
	ret
	.cfi_endproc
.LFE3224:
	.size	_ZN8opendnp314FunctorVisitorINS_11Group50Var1EZNKS_11ICollectionIS1_E13ReadOnlyValueERS1_EUlRKS1_E_E7OnValueES6_, .-_ZN8opendnp314FunctorVisitorINS_11Group50Var1EZNKS_11ICollectionIS1_E13ReadOnlyValueERS1_EUlRKS1_E_E7OnValueES6_
	.section	.text._ZN8opendnp314FunctorVisitorINS_7IndexedINS_8IINValueEEEZNKS_11ICollectionIS3_E13ReadOnlyValueERS3_EUlRKS3_E_E7OnValueES8_,"axG",@progbits,_ZN8opendnp314FunctorVisitorINS_7IndexedINS_8IINValueEEEZNKS_11ICollectionIS3_E13ReadOnlyValueERS3_EUlRKS3_E_E7OnValueES8_,comdat
	.align	2
	.p2align 4,,11
	.weak	_ZN8opendnp314FunctorVisitorINS_7IndexedINS_8IINValueEEEZNKS_11ICollectionIS3_E13ReadOnlyValueERS3_EUlRKS3_E_E7OnValueES8_
	.type	_ZN8opendnp314FunctorVisitorINS_7IndexedINS_8IINValueEEEZNKS_11ICollectionIS3_E13ReadOnlyValueERS3_EUlRKS3_E_E7OnValueES8_, %function
_ZN8opendnp314FunctorVisitorINS_7IndexedINS_8IINValueEEEZNKS_11ICollectionIS3_E13ReadOnlyValueERS3_EUlRKS3_E_E7OnValueES8_:
.LFB3225:
	.cfi_startproc
	ldr	x0, [x0, 8]
	ldr	w1, [x1]
	str	w1, [x0]
	ret
	.cfi_endproc
.LFE3225:
	.size	_ZN8opendnp314FunctorVisitorINS_7IndexedINS_8IINValueEEEZNKS_11ICollectionIS3_E13ReadOnlyValueERS3_EUlRKS3_E_E7OnValueES8_, .-_ZN8opendnp314FunctorVisitorINS_7IndexedINS_8IINValueEEEZNKS_11ICollectionIS3_E13ReadOnlyValueERS3_EUlRKS3_E_E7OnValueES8_
	.text
	.align	2
	.p2align 4,,11
	.global	_ZN8opendnp312WriteHandler13ProcessHeaderERKNS_11RangeHeaderERKNS_11ICollectionINS_7IndexedINS_8IINValueEEEEE
	.type	_ZN8opendnp312WriteHandler13ProcessHeaderERKNS_11RangeHeaderERKNS_11ICollectionINS_7IndexedINS_8IINValueEEEEE, %function
_ZN8opendnp312WriteHandler13ProcessHeaderERKNS_11RangeHeaderERKNS_11ICollectionINS_7IndexedINS_8IINValueEEEEE:
.LFB2395:
	.cfi_startproc
	stp	x29, x30, [sp, -80]!
	.cfi_def_cfa_offset 80
	.cfi_offset 29, -80
	.cfi_offset 30, -72
	adrp	x1, :got:__stack_chk_guard
	mov	x29, sp
	ldr	x1, [x1, #:got_lo12:__stack_chk_guard]
	stp	x19, x20, [sp, 16]
	.cfi_offset 19, -64
	.cfi_offset 20, -56
	mov	x19, x2
	stp	x21, x22, [sp, 32]
	.cfi_offset 21, -48
	.cfi_offset 22, -40
	mov	x21, x0
	ldr	x0, [x1]
	str	x0, [sp, 72]
	mov	x0, 0
	str	wzr, [sp, 48]
	mov	x0, x2
	ldr	x2, [x2]
	ldr	x1, [x2]
	blr	x1
	cmp	x0, 1
	beq	.L11
	add	x0, sp, 56
	mov	w1, 10
	strh	wzr, [sp, 56]
	bl	_ZN8opendnp38IINField6SetBitENS_6IINBitE
	ldrh	w0, [sp, 56]
.L12:
	adrp	x1, :got:__stack_chk_guard
	ldr	x1, [x1, #:got_lo12:__stack_chk_guard]
	ldr	x3, [sp, 72]
	ldr	x2, [x1]
	subs	x3, x3, x2
	mov	x2, 0
	bne	.L20
	ldp	x19, x20, [sp, 16]
	ldp	x21, x22, [sp, 32]
	ldp	x29, x30, [sp], 80
	.cfi_remember_state
	.cfi_restore 30
	.cfi_restore 29
	.cfi_restore 21
	.cfi_restore 22
	.cfi_restore 19
	.cfi_restore 20
	.cfi_def_cfa_offset 0
	ret
	.p2align 2,,3
.L11:
	.cfi_restore_state
	mov	x20, x0
	adrp	x2, :got:_ZTVN8opendnp314FunctorVisitorINS_7IndexedINS_8IINValueEEEZNKS_11ICollectionIS3_E13ReadOnlyValueERS3_EUlRKS3_E_EE
	ldr	x0, [x19]
	add	x1, sp, 48
	ldr	x2, [x2, #:got_lo12:_ZTVN8opendnp314FunctorVisitorINS_7IndexedINS_8IINValueEEEZNKS_11ICollectionIS3_E13ReadOnlyValueERS3_EUlRKS3_E_EE]
	add	x22, sp, 56
	ldr	x3, [x0, 8]
	add	x2, x2, 16
	stp	x2, x1, [sp, 56]
	mov	x0, x19
	mov	x1, x22
	blr	x3
	ldrb	w0, [x21, 41]
	cbnz	w0, .L19
	ldrh	w1, [sp, 50]
	cmp	w1, 7
	bne	.L19
	ldrb	w0, [sp, 48]
	cbz	w0, .L15
.L19:
	mov	x0, x22
	mov	w1, 10
	strh	wzr, [sp, 56]
	bl	_ZN8opendnp38IINField6SetBitENS_6IINBitE
	ldrh	w0, [sp, 56]
	b	.L12
	.p2align 2,,3
.L15:
	ldr	x0, [x21, 32]
	strb	w20, [x21, 41]
	bl	_ZN8opendnp38IINField8ClearBitENS_6IINBitE
	mov	w0, 0
	b	.L12
.L20:
	bl	__stack_chk_fail
	.cfi_endproc
.LFE2395:
	.size	_ZN8opendnp312WriteHandler13ProcessHeaderERKNS_11RangeHeaderERKNS_11ICollectionINS_7IndexedINS_8IINValueEEEEE, .-_ZN8opendnp312WriteHandler13ProcessHeaderERKNS_11RangeHeaderERKNS_11ICollectionINS_7IndexedINS_8IINValueEEEEE
	.align	2
	.p2align 4,,11
	.global	_ZN8opendnp312WriteHandler13ProcessHeaderERKNS_12PrefixHeaderERKNS_11ICollectionINS_7IndexedINS_15TimeAndIntervalEEEEE
	.type	_ZN8opendnp312WriteHandler13ProcessHeaderERKNS_12PrefixHeaderERKNS_11ICollectionINS_7IndexedINS_15TimeAndIntervalEEEEE, %function
_ZN8opendnp312WriteHandler13ProcessHeaderERKNS_12PrefixHeaderERKNS_11ICollectionINS_7IndexedINS_15TimeAndIntervalEEEEE:
.LFB2397:
	.cfi_startproc
	stp	x29, x30, [sp, -48]!
	.cfi_def_cfa_offset 48
	.cfi_offset 29, -48
	.cfi_offset 30, -40
	adrp	x4, :got:__stack_chk_guard
	adrp	x3, :got:_ZN8opendnp322IOutstationApplication28SupportsWriteTimeAndIntervalEv
	mov	x29, sp
	ldr	x4, [x4, #:got_lo12:__stack_chk_guard]
	stp	x19, x20, [sp, 16]
	.cfi_offset 19, -32
	.cfi_offset 20, -24
	mov	x19, x0
	ldr	x0, [x0, 24]
	ldr	x1, [x4]
	str	x1, [sp, 40]
	mov	x1, 0
	ldr	x3, [x3, #:got_lo12:_ZN8opendnp322IOutstationApplication28SupportsWriteTimeAndIntervalEv]
	ldr	x1, [x0]
	ldr	x1, [x1, 48]
	cmp	x1, x3
	bne	.L22
.L24:
	add	x0, sp, 32
	mov	w1, 8
	strh	wzr, [sp, 32]
	bl	_ZN8opendnp38IINField6SetBitENS_6IINBitE
	ldrh	w0, [sp, 32]
.L23:
	adrp	x1, :got:__stack_chk_guard
	ldr	x1, [x1, #:got_lo12:__stack_chk_guard]
	ldr	x3, [sp, 40]
	ldr	x2, [x1]
	subs	x3, x3, x2
	mov	x2, 0
	bne	.L34
	ldp	x19, x20, [sp, 16]
	ldp	x29, x30, [sp], 48
	.cfi_remember_state
	.cfi_restore 30
	.cfi_restore 29
	.cfi_restore 19
	.cfi_restore 20
	.cfi_def_cfa_offset 0
	ret
	.p2align 2,,3
.L22:
	.cfi_restore_state
	mov	x20, x2
	blr	x1
	tst	w0, 255
	beq	.L24
	ldr	x0, [x19, 24]
	adrp	x1, :got:_ZN8opendnp322IOutstationApplication20WriteTimeAndIntervalERKNS_11ICollectionINS_7IndexedINS_15TimeAndIntervalEEEEE
	ldr	x1, [x1, #:got_lo12:_ZN8opendnp322IOutstationApplication20WriteTimeAndIntervalERKNS_11ICollectionINS_7IndexedINS_15TimeAndIntervalEEEEE]
	ldr	x2, [x0]
	ldr	x2, [x2, 56]
	cmp	x2, x1
	bne	.L35
.L25:
	add	x0, sp, 32
	mov	w1, 10
	strh	wzr, [sp, 32]
	bl	_ZN8opendnp38IINField6SetBitENS_6IINBitE
	ldrh	w0, [sp, 32]
	b	.L23
	.p2align 2,,3
.L35:
	mov	x1, x20
	blr	x2
	tst	w0, 255
	beq	.L25
	mov	w0, 0
	b	.L23
.L34:
	bl	__stack_chk_fail
	.cfi_endproc
.LFE2397:
	.size	_ZN8opendnp312WriteHandler13ProcessHeaderERKNS_12PrefixHeaderERKNS_11ICollectionINS_7IndexedINS_15TimeAndIntervalEEEEE, .-_ZN8opendnp312WriteHandler13ProcessHeaderERKNS_12PrefixHeaderERKNS_11ICollectionINS_7IndexedINS_15TimeAndIntervalEEEEE
	.align	2
	.p2align 4,,11
	.global	_ZN8opendnp312WriteHandler13ProcessHeaderERKNS_11CountHeaderERKNS_11ICollectionINS_11Group50Var1EEE
	.type	_ZN8opendnp312WriteHandler13ProcessHeaderERKNS_11CountHeaderERKNS_11ICollectionINS_11Group50Var1EEE, %function
_ZN8opendnp312WriteHandler13ProcessHeaderERKNS_11CountHeaderERKNS_11ICollectionINS_11Group50Var1EEE:
.LFB2396:
	.cfi_startproc
	stp	x29, x30, [sp, -96]!
	.cfi_def_cfa_offset 96
	.cfi_offset 29, -96
	.cfi_offset 30, -88
	adrp	x1, :got:__stack_chk_guard
	mov	x29, sp
	ldr	x1, [x1, #:got_lo12:__stack_chk_guard]
	stp	x19, x20, [sp, 16]
	.cfi_offset 19, -80
	.cfi_offset 20, -72
	mov	x19, x0
	ldrb	w0, [x0, 40]
	mov	x20, x2
	ldr	x2, [x1]
	str	x2, [sp, 88]
	mov	x2, 0
	cbz	w0, .L37
	add	x0, sp, 72
	mov	w1, 10
	strh	wzr, [sp, 72]
	bl	_ZN8opendnp38IINField6SetBitENS_6IINBitE
	ldrh	w0, [sp, 72]
.L38:
	adrp	x1, :got:__stack_chk_guard
	ldr	x1, [x1, #:got_lo12:__stack_chk_guard]
	ldr	x3, [sp, 88]
	ldr	x2, [x1]
	subs	x3, x3, x2
	mov	x2, 0
	bne	.L52
	ldp	x19, x20, [sp, 16]
	ldp	x29, x30, [sp], 96
	.cfi_remember_state
	.cfi_restore 30
	.cfi_restore 29
	.cfi_restore 19
	.cfi_restore 20
	.cfi_def_cfa_offset 0
	ret
	.p2align 2,,3
.L37:
	.cfi_restore_state
	stp	x21, x22, [sp, 32]
	.cfi_offset 22, -56
	.cfi_offset 21, -64
	add	x22, sp, 64
	mov	x0, x22
	bl	_ZN8opendnp311Group50Var1C1Ev
	ldr	x1, [x20]
	mov	x0, x20
	ldr	x1, [x1]
	blr	x1
	mov	x21, x0
	cmp	x0, 1
	beq	.L39
	add	x0, sp, 72
	mov	w1, 10
.L51:
	strh	wzr, [sp, 72]
	bl	_ZN8opendnp38IINField6SetBitENS_6IINBitE
	ldrh	w0, [sp, 72]
	strh	w0, [sp, 56]
	ldp	x21, x22, [sp, 32]
	.cfi_remember_state
	.cfi_restore 22
	.cfi_restore 21
	b	.L38
	.p2align 2,,3
.L39:
	.cfi_restore_state
	adrp	x2, :got:_ZTVN8opendnp314FunctorVisitorINS_11Group50Var1EZNKS_11ICollectionIS1_E13ReadOnlyValueERS1_EUlRKS1_E_EE
	mov	x0, x20
	ldr	x1, [x20]
	ldr	x2, [x2, #:got_lo12:_ZTVN8opendnp314FunctorVisitorINS_11Group50Var1EZNKS_11ICollectionIS1_E13ReadOnlyValueERS1_EUlRKS1_E_EE]
	ldr	x3, [x1, 8]
	add	x2, x2, 16
	stp	x2, x22, [sp, 72]
	add	x22, sp, 72
	mov	x1, x22
	blr	x3
	ldr	x0, [x19, 24]
	adrp	x2, :got:_ZN8opendnp322IOutstationApplication25SupportsWriteAbsoluteTimeEv
	ldr	x2, [x2, #:got_lo12:_ZN8opendnp322IOutstationApplication25SupportsWriteAbsoluteTimeEv]
	ldr	x1, [x0]
	ldr	x1, [x1, 32]
	cmp	x1, x2
	bne	.L53
.L41:
	mov	x0, x22
	mov	w1, 8
	b	.L51
	.p2align 2,,3
.L53:
	blr	x1
	tst	w0, 255
	beq	.L41
	ldr	x0, [x19, 24]
	adrp	x1, :got:_ZN8opendnp322IOutstationApplication17WriteAbsoluteTimeERKN7openpal12UTCTimestampE
	ldr	x3, [sp, 64]
	strb	w21, [x19, 40]
	ldr	x2, [x0]
	ldr	x1, [x1, #:got_lo12:_ZN8opendnp322IOutstationApplication17WriteAbsoluteTimeERKN7openpal12UTCTimestampE]
	ldr	x2, [x2, 40]
	str	x3, [sp, 72]
	cmp	x2, x1
	bne	.L54
.L42:
	add	x0, sp, 56
	mov	w1, 10
	strh	wzr, [sp, 56]
	bl	_ZN8opendnp38IINField6SetBitENS_6IINBitE
	ldrh	w0, [sp, 56]
	ldp	x21, x22, [sp, 32]
	.cfi_remember_state
	.cfi_restore 22
	.cfi_restore 21
	b	.L38
	.p2align 2,,3
.L54:
	.cfi_restore_state
	mov	x1, x22
	blr	x2
	mov	w1, w0
	mov	w0, 0
	tst	w1, 255
	beq	.L42
	ldp	x21, x22, [sp, 32]
	.cfi_restore 22
	.cfi_restore 21
	b	.L38
.L52:
	stp	x21, x22, [sp, 32]
	.cfi_offset 22, -56
	.cfi_offset 21, -64
	bl	__stack_chk_fail
	.cfi_endproc
.LFE2396:
	.size	_ZN8opendnp312WriteHandler13ProcessHeaderERKNS_11CountHeaderERKNS_11ICollectionINS_11Group50Var1EEE, .-_ZN8opendnp312WriteHandler13ProcessHeaderERKNS_11CountHeaderERKNS_11ICollectionINS_11Group50Var1EEE
	.align	2
	.p2align 4,,11
	.global	_ZN8opendnp312WriteHandlerC2ERNS_22IOutstationApplicationEPNS_8IINFieldE
	.type	_ZN8opendnp312WriteHandlerC2ERNS_22IOutstationApplicationEPNS_8IINFieldE, %function
_ZN8opendnp312WriteHandlerC2ERNS_22IOutstationApplicationEPNS_8IINFieldE:
.LFB2393:
	.cfi_startproc
	stp	x29, x30, [sp, -48]!
	.cfi_def_cfa_offset 48
	.cfi_offset 29, -48
	.cfi_offset 30, -40
	mov	x29, sp
	stp	x19, x20, [sp, 16]
	.cfi_offset 19, -32
	.cfi_offset 20, -24
	mov	x19, x0
	mov	x20, x2
	str	x21, [sp, 32]
	.cfi_offset 21, -16
	mov	x21, x1
	bl	_ZN8opendnp312IAPDUHandlerC2Ev
	stp	x21, x20, [x19, 24]
	adrp	x0, :got:_ZTVN8opendnp312WriteHandlerE
	strh	wzr, [x19, 40]
	ldr	x0, [x0, #:got_lo12:_ZTVN8opendnp312WriteHandlerE]
	ldr	x21, [sp, 32]
	add	x0, x0, 16
	str	x0, [x19]
	ldp	x19, x20, [sp, 16]
	ldp	x29, x30, [sp], 48
	.cfi_restore 30
	.cfi_restore 29
	.cfi_restore 21
	.cfi_restore 19
	.cfi_restore 20
	.cfi_def_cfa_offset 0
	ret
	.cfi_endproc
.LFE2393:
	.size	_ZN8opendnp312WriteHandlerC2ERNS_22IOutstationApplicationEPNS_8IINFieldE, .-_ZN8opendnp312WriteHandlerC2ERNS_22IOutstationApplicationEPNS_8IINFieldE
	.global	_ZN8opendnp312WriteHandlerC1ERNS_22IOutstationApplicationEPNS_8IINFieldE
	.set	_ZN8opendnp312WriteHandlerC1ERNS_22IOutstationApplicationEPNS_8IINFieldE,_ZN8opendnp312WriteHandlerC2ERNS_22IOutstationApplicationEPNS_8IINFieldE
	.weak	_ZTSN8opendnp312WriteHandlerE
	.section	.rodata._ZTSN8opendnp312WriteHandlerE,"aG",@progbits,_ZTSN8opendnp312WriteHandlerE,comdat
	.align	3
	.type	_ZTSN8opendnp312WriteHandlerE, %object
	.size	_ZTSN8opendnp312WriteHandlerE, 26
_ZTSN8opendnp312WriteHandlerE:
	.string	"N8opendnp312WriteHandlerE"
	.weak	_ZTIN8opendnp312WriteHandlerE
	.section	.data.rel.ro._ZTIN8opendnp312WriteHandlerE,"awG",@progbits,_ZTIN8opendnp312WriteHandlerE,comdat
	.align	3
	.type	_ZTIN8opendnp312WriteHandlerE, %object
	.size	_ZTIN8opendnp312WriteHandlerE, 24
_ZTIN8opendnp312WriteHandlerE:
	.xword	_ZTVN10__cxxabiv120__si_class_type_infoE+16
	.xword	_ZTSN8opendnp312WriteHandlerE
	.xword	_ZTIN8opendnp312IAPDUHandlerE
	.weak	_ZTSN8opendnp38IVisitorINS_7IndexedINS_8IINValueEEEEE
	.section	.rodata._ZTSN8opendnp38IVisitorINS_7IndexedINS_8IINValueEEEEE,"aG",@progbits,_ZTSN8opendnp38IVisitorINS_7IndexedINS_8IINValueEEEEE,comdat
	.align	3
	.type	_ZTSN8opendnp38IVisitorINS_7IndexedINS_8IINValueEEEEE, %object
	.size	_ZTSN8opendnp38IVisitorINS_7IndexedINS_8IINValueEEEEE, 50
_ZTSN8opendnp38IVisitorINS_7IndexedINS_8IINValueEEEEE:
	.string	"N8opendnp38IVisitorINS_7IndexedINS_8IINValueEEEEE"
	.weak	_ZTIN8opendnp38IVisitorINS_7IndexedINS_8IINValueEEEEE
	.section	.data.rel.ro._ZTIN8opendnp38IVisitorINS_7IndexedINS_8IINValueEEEEE,"awG",@progbits,_ZTIN8opendnp38IVisitorINS_7IndexedINS_8IINValueEEEEE,comdat
	.align	3
	.type	_ZTIN8opendnp38IVisitorINS_7IndexedINS_8IINValueEEEEE, %object
	.size	_ZTIN8opendnp38IVisitorINS_7IndexedINS_8IINValueEEEEE, 16
_ZTIN8opendnp38IVisitorINS_7IndexedINS_8IINValueEEEEE:
	.xword	_ZTVN10__cxxabiv117__class_type_infoE+16
	.xword	_ZTSN8opendnp38IVisitorINS_7IndexedINS_8IINValueEEEEE
	.weak	_ZTSN8opendnp314FunctorVisitorINS_7IndexedINS_8IINValueEEEZNKS_11ICollectionIS3_E13ReadOnlyValueERS3_EUlRKS3_E_EE
	.section	.rodata._ZTSN8opendnp314FunctorVisitorINS_7IndexedINS_8IINValueEEEZNKS_11ICollectionIS3_E13ReadOnlyValueERS3_EUlRKS3_E_EE,"aG",@progbits,_ZTSN8opendnp314FunctorVisitorINS_7IndexedINS_8IINValueEEEZNKS_11ICollectionIS3_E13ReadOnlyValueERS3_EUlRKS3_E_EE,comdat
	.align	3
	.type	_ZTSN8opendnp314FunctorVisitorINS_7IndexedINS_8IINValueEEEZNKS_11ICollectionIS3_E13ReadOnlyValueERS3_EUlRKS3_E_EE, %object
	.size	_ZTSN8opendnp314FunctorVisitorINS_7IndexedINS_8IINValueEEEZNKS_11ICollectionIS3_E13ReadOnlyValueERS3_EUlRKS3_E_EE, 110
_ZTSN8opendnp314FunctorVisitorINS_7IndexedINS_8IINValueEEEZNKS_11ICollectionIS3_E13ReadOnlyValueERS3_EUlRKS3_E_EE:
	.string	"N8opendnp314FunctorVisitorINS_7IndexedINS_8IINValueEEEZNKS_11ICollectionIS3_E13ReadOnlyValueERS3_EUlRKS3_E_EE"
	.weak	_ZTIN8opendnp314FunctorVisitorINS_7IndexedINS_8IINValueEEEZNKS_11ICollectionIS3_E13ReadOnlyValueERS3_EUlRKS3_E_EE
	.section	.data.rel.ro._ZTIN8opendnp314FunctorVisitorINS_7IndexedINS_8IINValueEEEZNKS_11ICollectionIS3_E13ReadOnlyValueERS3_EUlRKS3_E_EE,"awG",@progbits,_ZTIN8opendnp314FunctorVisitorINS_7IndexedINS_8IINValueEEEZNKS_11ICollectionIS3_E13ReadOnlyValueERS3_EUlRKS3_E_EE,comdat
	.align	3
	.type	_ZTIN8opendnp314FunctorVisitorINS_7IndexedINS_8IINValueEEEZNKS_11ICollectionIS3_E13ReadOnlyValueERS3_EUlRKS3_E_EE, %object
	.size	_ZTIN8opendnp314FunctorVisitorINS_7IndexedINS_8IINValueEEEZNKS_11ICollectionIS3_E13ReadOnlyValueERS3_EUlRKS3_E_EE, 24
_ZTIN8opendnp314FunctorVisitorINS_7IndexedINS_8IINValueEEEZNKS_11ICollectionIS3_E13ReadOnlyValueERS3_EUlRKS3_E_EE:
	.xword	_ZTVN10__cxxabiv120__si_class_type_infoE+16
	.xword	_ZTSN8opendnp314FunctorVisitorINS_7IndexedINS_8IINValueEEEZNKS_11ICollectionIS3_E13ReadOnlyValueERS3_EUlRKS3_E_EE
	.xword	_ZTIN8opendnp38IVisitorINS_7IndexedINS_8IINValueEEEEE
	.weak	_ZTSN8opendnp38IVisitorINS_11Group50Var1EEE
	.section	.rodata._ZTSN8opendnp38IVisitorINS_11Group50Var1EEE,"aG",@progbits,_ZTSN8opendnp38IVisitorINS_11Group50Var1EEE,comdat
	.align	3
	.type	_ZTSN8opendnp38IVisitorINS_11Group50Var1EEE, %object
	.size	_ZTSN8opendnp38IVisitorINS_11Group50Var1EEE, 40
_ZTSN8opendnp38IVisitorINS_11Group50Var1EEE:
	.string	"N8opendnp38IVisitorINS_11Group50Var1EEE"
	.weak	_ZTIN8opendnp38IVisitorINS_11Group50Var1EEE
	.section	.data.rel.ro._ZTIN8opendnp38IVisitorINS_11Group50Var1EEE,"awG",@progbits,_ZTIN8opendnp38IVisitorINS_11Group50Var1EEE,comdat
	.align	3
	.type	_ZTIN8opendnp38IVisitorINS_11Group50Var1EEE, %object
	.size	_ZTIN8opendnp38IVisitorINS_11Group50Var1EEE, 16
_ZTIN8opendnp38IVisitorINS_11Group50Var1EEE:
	.xword	_ZTVN10__cxxabiv117__class_type_infoE+16
	.xword	_ZTSN8opendnp38IVisitorINS_11Group50Var1EEE
	.weak	_ZTSN8opendnp314FunctorVisitorINS_11Group50Var1EZNKS_11ICollectionIS1_E13ReadOnlyValueERS1_EUlRKS1_E_EE
	.section	.rodata._ZTSN8opendnp314FunctorVisitorINS_11Group50Var1EZNKS_11ICollectionIS1_E13ReadOnlyValueERS1_EUlRKS1_E_EE,"aG",@progbits,_ZTSN8opendnp314FunctorVisitorINS_11Group50Var1EZNKS_11ICollectionIS1_E13ReadOnlyValueERS1_EUlRKS1_E_EE,comdat
	.align	3
	.type	_ZTSN8opendnp314FunctorVisitorINS_11Group50Var1EZNKS_11ICollectionIS1_E13ReadOnlyValueERS1_EUlRKS1_E_EE, %object
	.size	_ZTSN8opendnp314FunctorVisitorINS_11Group50Var1EZNKS_11ICollectionIS1_E13ReadOnlyValueERS1_EUlRKS1_E_EE, 100
_ZTSN8opendnp314FunctorVisitorINS_11Group50Var1EZNKS_11ICollectionIS1_E13ReadOnlyValueERS1_EUlRKS1_E_EE:
	.string	"N8opendnp314FunctorVisitorINS_11Group50Var1EZNKS_11ICollectionIS1_E13ReadOnlyValueERS1_EUlRKS1_E_EE"
	.weak	_ZTIN8opendnp314FunctorVisitorINS_11Group50Var1EZNKS_11ICollectionIS1_E13ReadOnlyValueERS1_EUlRKS1_E_EE
	.section	.data.rel.ro._ZTIN8opendnp314FunctorVisitorINS_11Group50Var1EZNKS_11ICollectionIS1_E13ReadOnlyValueERS1_EUlRKS1_E_EE,"awG",@progbits,_ZTIN8opendnp314FunctorVisitorINS_11Group50Var1EZNKS_11ICollectionIS1_E13ReadOnlyValueERS1_EUlRKS1_E_EE,comdat
	.align	3
	.type	_ZTIN8opendnp314FunctorVisitorINS_11Group50Var1EZNKS_11ICollectionIS1_E13ReadOnlyValueERS1_EUlRKS1_E_EE, %object
	.size	_ZTIN8opendnp314FunctorVisitorINS_11Group50Var1EZNKS_11ICollectionIS1_E13ReadOnlyValueERS1_EUlRKS1_E_EE, 24
_ZTIN8opendnp314FunctorVisitorINS_11Group50Var1EZNKS_11ICollectionIS1_E13ReadOnlyValueERS1_EUlRKS1_E_EE:
	.xword	_ZTVN10__cxxabiv120__si_class_type_infoE+16
	.xword	_ZTSN8opendnp314FunctorVisitorINS_11Group50Var1EZNKS_11ICollectionIS1_E13ReadOnlyValueERS1_EUlRKS1_E_EE
	.xword	_ZTIN8opendnp38IVisitorINS_11Group50Var1EEE
	.weak	_ZTVN8opendnp312WriteHandlerE
	.section	.data.rel.ro._ZTVN8opendnp312WriteHandlerE,"awG",@progbits,_ZTVN8opendnp312WriteHandlerE,comdat
	.align	3
	.type	_ZTVN8opendnp312WriteHandlerE, %object
	.size	_ZTVN8opendnp312WriteHandlerE, 448
_ZTVN8opendnp312WriteHandlerE:
	.xword	0
	.xword	_ZTIN8opendnp312WriteHandlerE
	.xword	_ZN8opendnp312WriteHandler9IsAllowedEjNS_14GroupVariationENS_13QualifierCodeE
	.xword	_ZN8opendnp312IAPDUHandler13ProcessHeaderERKNS_16AllObjectsHeaderE
	.xword	_ZN8opendnp312IAPDUHandler13ProcessHeaderERKNS_11RangeHeaderE
	.xword	_ZN8opendnp312IAPDUHandler13ProcessHeaderERKNS_11CountHeaderE
	.xword	_ZN8opendnp312IAPDUHandler13ProcessHeaderERKNS_16FreeFormatHeaderERKNS_12Group120Var1ERKN7openpal6RSliceE
	.xword	_ZN8opendnp312IAPDUHandler13ProcessHeaderERKNS_16FreeFormatHeaderERKNS_12Group120Var2ERKN7openpal6RSliceE
	.xword	_ZN8opendnp312IAPDUHandler13ProcessHeaderERKNS_16FreeFormatHeaderERKNS_12Group120Var5ERKN7openpal6RSliceE
	.xword	_ZN8opendnp312IAPDUHandler13ProcessHeaderERKNS_16FreeFormatHeaderERKNS_12Group120Var6ERKN7openpal6RSliceE
	.xword	_ZN8opendnp312IAPDUHandler13ProcessHeaderERKNS_16FreeFormatHeaderERKNS_12Group120Var8ERKN7openpal6RSliceE
	.xword	_ZN8opendnp312IAPDUHandler13ProcessHeaderERKNS_16FreeFormatHeaderERKNS_12Group120Var7ERKN7openpal6RSliceE
	.xword	_ZN8opendnp312IAPDUHandler13ProcessHeaderERKNS_16FreeFormatHeaderERKNS_12Group120Var9ERKN7openpal6RSliceE
	.xword	_ZN8opendnp312IAPDUHandler13ProcessHeaderERKNS_16FreeFormatHeaderERKNS_13Group120Var10ERKN7openpal6RSliceE
	.xword	_ZN8opendnp312IAPDUHandler13ProcessHeaderERKNS_16FreeFormatHeaderERKNS_13Group120Var11ERKN7openpal6RSliceE
	.xword	_ZN8opendnp312IAPDUHandler13ProcessHeaderERKNS_16FreeFormatHeaderERKNS_13Group120Var12ERKN7openpal6RSliceE
	.xword	_ZN8opendnp312IAPDUHandler13ProcessHeaderERKNS_16FreeFormatHeaderERKNS_13Group120Var13ERKN7openpal6RSliceE
	.xword	_ZN8opendnp312IAPDUHandler13ProcessHeaderERKNS_16FreeFormatHeaderERKNS_13Group120Var14ERKN7openpal6RSliceE
	.xword	_ZN8opendnp312IAPDUHandler13ProcessHeaderERKNS_16FreeFormatHeaderERKNS_13Group120Var15ERKN7openpal6RSliceE
	.xword	_ZN8opendnp312WriteHandler13ProcessHeaderERKNS_11CountHeaderERKNS_11ICollectionINS_11Group50Var1EEE
	.xword	_ZN8opendnp312IAPDUHandler13ProcessHeaderERKNS_11CountHeaderERKNS_11ICollectionINS_11Group51Var1EEE
	.xword	_ZN8opendnp312IAPDUHandler13ProcessHeaderERKNS_11CountHeaderERKNS_11ICollectionINS_11Group51Var2EEE
	.xword	_ZN8opendnp312IAPDUHandler13ProcessHeaderERKNS_11CountHeaderERKNS_11ICollectionINS_11Group52Var1EEE
	.xword	_ZN8opendnp312IAPDUHandler13ProcessHeaderERKNS_11CountHeaderERKNS_11ICollectionINS_11Group52Var2EEE
	.xword	_ZN8opendnp312IAPDUHandler13ProcessHeaderERKNS_11CountHeaderERKNS_11ICollectionINS_12Group120Var3EEE
	.xword	_ZN8opendnp312IAPDUHandler13ProcessHeaderERKNS_11CountHeaderERKNS_11ICollectionINS_12Group120Var4EEE
	.xword	_ZN8opendnp312WriteHandler13ProcessHeaderERKNS_11RangeHeaderERKNS_11ICollectionINS_7IndexedINS_8IINValueEEEEE
	.xword	_ZN8opendnp312IAPDUHandler13ProcessHeaderERKNS_11RangeHeaderERKNS_11ICollectionINS_7IndexedINS_6BinaryEEEEE
	.xword	_ZN8opendnp312IAPDUHandler13ProcessHeaderERKNS_11RangeHeaderERKNS_11ICollectionINS_7IndexedINS_15DoubleBitBinaryEEEEE
	.xword	_ZN8opendnp312IAPDUHandler13ProcessHeaderERKNS_11RangeHeaderERKNS_11ICollectionINS_7IndexedINS_18BinaryOutputStatusEEEEE
	.xword	_ZN8opendnp312IAPDUHandler13ProcessHeaderERKNS_11RangeHeaderERKNS_11ICollectionINS_7IndexedINS_7CounterEEEEE
	.xword	_ZN8opendnp312IAPDUHandler13ProcessHeaderERKNS_11RangeHeaderERKNS_11ICollectionINS_7IndexedINS_13FrozenCounterEEEEE
	.xword	_ZN8opendnp312IAPDUHandler13ProcessHeaderERKNS_11RangeHeaderERKNS_11ICollectionINS_7IndexedINS_6AnalogEEEEE
	.xword	_ZN8opendnp312IAPDUHandler13ProcessHeaderERKNS_11RangeHeaderERKNS_11ICollectionINS_7IndexedINS_18AnalogOutputStatusEEEEE
	.xword	_ZN8opendnp312IAPDUHandler13ProcessHeaderERKNS_11RangeHeaderERKNS_11ICollectionINS_7IndexedINS_11OctetStringEEEEE
	.xword	_ZN8opendnp312IAPDUHandler13ProcessHeaderERKNS_11RangeHeaderERKNS_11ICollectionINS_7IndexedINS_15TimeAndIntervalEEEEE
	.xword	_ZN8opendnp312IAPDUHandler13ProcessHeaderERKNS_11RangeHeaderERKNS_11ICollectionINS_7IndexedINS_12Group121Var1EEEEE
	.xword	_ZN8opendnp312IAPDUHandler13ProcessHeaderERKNS_12PrefixHeaderERKNS_11ICollectionINS_7IndexedINS_6BinaryEEEEE
	.xword	_ZN8opendnp312IAPDUHandler13ProcessHeaderERKNS_12PrefixHeaderERKNS_11ICollectionINS_7IndexedINS_18BinaryOutputStatusEEEEE
	.xword	_ZN8opendnp312IAPDUHandler13ProcessHeaderERKNS_12PrefixHeaderERKNS_11ICollectionINS_7IndexedINS_15DoubleBitBinaryEEEEE
	.xword	_ZN8opendnp312IAPDUHandler13ProcessHeaderERKNS_12PrefixHeaderERKNS_11ICollectionINS_7IndexedINS_7CounterEEEEE
	.xword	_ZN8opendnp312IAPDUHandler13ProcessHeaderERKNS_12PrefixHeaderERKNS_11ICollectionINS_7IndexedINS_13FrozenCounterEEEEE
	.xword	_ZN8opendnp312IAPDUHandler13ProcessHeaderERKNS_12PrefixHeaderERKNS_11ICollectionINS_7IndexedINS_6AnalogEEEEE
	.xword	_ZN8opendnp312IAPDUHandler13ProcessHeaderERKNS_12PrefixHeaderERKNS_11ICollectionINS_7IndexedINS_18AnalogOutputStatusEEEEE
	.xword	_ZN8opendnp312IAPDUHandler13ProcessHeaderERKNS_12PrefixHeaderERKNS_11ICollectionINS_7IndexedINS_11OctetStringEEEEE
	.xword	_ZN8opendnp312WriteHandler13ProcessHeaderERKNS_12PrefixHeaderERKNS_11ICollectionINS_7IndexedINS_15TimeAndIntervalEEEEE
	.xword	_ZN8opendnp312IAPDUHandler13ProcessHeaderERKNS_12PrefixHeaderERKNS_11ICollectionINS_7IndexedINS_18BinaryCommandEventEEEEE
	.xword	_ZN8opendnp312IAPDUHandler13ProcessHeaderERKNS_12PrefixHeaderERKNS_11ICollectionINS_7IndexedINS_18AnalogCommandEventEEEEE
	.xword	_ZN8opendnp312IAPDUHandler13ProcessHeaderERKNS_12PrefixHeaderERKNS_11ICollectionINS_7IndexedINS_12Group122Var1EEEEE
	.xword	_ZN8opendnp312IAPDUHandler13ProcessHeaderERKNS_12PrefixHeaderERKNS_11ICollectionINS_7IndexedINS_12Group122Var2EEEEE
	.xword	_ZN8opendnp312IAPDUHandler13ProcessHeaderERKNS_12PrefixHeaderERKNS_11ICollectionINS_7IndexedINS_23ControlRelayOutputBlockEEEEE
	.xword	_ZN8opendnp312IAPDUHandler13ProcessHeaderERKNS_12PrefixHeaderERKNS_11ICollectionINS_7IndexedINS_17AnalogOutputInt16EEEEE
	.xword	_ZN8opendnp312IAPDUHandler13ProcessHeaderERKNS_12PrefixHeaderERKNS_11ICollectionINS_7IndexedINS_17AnalogOutputInt32EEEEE
	.xword	_ZN8opendnp312IAPDUHandler13ProcessHeaderERKNS_12PrefixHeaderERKNS_11ICollectionINS_7IndexedINS_19AnalogOutputFloat32EEEEE
	.xword	_ZN8opendnp312IAPDUHandler13ProcessHeaderERKNS_12PrefixHeaderERKNS_11ICollectionINS_7IndexedINS_20AnalogOutputDouble64EEEEE
	.xword	_ZN8opendnp312IAPDUHandler14OnHeaderResultERKNS_12HeaderRecordERKNS_8IINFieldE
	.weak	_ZTVN8opendnp314FunctorVisitorINS_7IndexedINS_8IINValueEEEZNKS_11ICollectionIS3_E13ReadOnlyValueERS3_EUlRKS3_E_EE
	.section	.data.rel.ro._ZTVN8opendnp314FunctorVisitorINS_7IndexedINS_8IINValueEEEZNKS_11ICollectionIS3_E13ReadOnlyValueERS3_EUlRKS3_E_EE,"awG",@progbits,_ZTVN8opendnp314FunctorVisitorINS_7IndexedINS_8IINValueEEEZNKS_11ICollectionIS3_E13ReadOnlyValueERS3_EUlRKS3_E_EE,comdat
	.align	3
	.type	_ZTVN8opendnp314FunctorVisitorINS_7IndexedINS_8IINValueEEEZNKS_11ICollectionIS3_E13ReadOnlyValueERS3_EUlRKS3_E_EE, %object
	.size	_ZTVN8opendnp314FunctorVisitorINS_7IndexedINS_8IINValueEEEZNKS_11ICollectionIS3_E13ReadOnlyValueERS3_EUlRKS3_E_EE, 24
_ZTVN8opendnp314FunctorVisitorINS_7IndexedINS_8IINValueEEEZNKS_11ICollectionIS3_E13ReadOnlyValueERS3_EUlRKS3_E_EE:
	.xword	0
	.xword	_ZTIN8opendnp314FunctorVisitorINS_7IndexedINS_8IINValueEEEZNKS_11ICollectionIS3_E13ReadOnlyValueERS3_EUlRKS3_E_EE
	.xword	_ZN8opendnp314FunctorVisitorINS_7IndexedINS_8IINValueEEEZNKS_11ICollectionIS3_E13ReadOnlyValueERS3_EUlRKS3_E_E7OnValueES8_
	.weak	_ZTVN8opendnp314FunctorVisitorINS_11Group50Var1EZNKS_11ICollectionIS1_E13ReadOnlyValueERS1_EUlRKS1_E_EE
	.section	.data.rel.ro._ZTVN8opendnp314FunctorVisitorINS_11Group50Var1EZNKS_11ICollectionIS1_E13ReadOnlyValueERS1_EUlRKS1_E_EE,"awG",@progbits,_ZTVN8opendnp314FunctorVisitorINS_11Group50Var1EZNKS_11ICollectionIS1_E13ReadOnlyValueERS1_EUlRKS1_E_EE,comdat
	.align	3
	.type	_ZTVN8opendnp314FunctorVisitorINS_11Group50Var1EZNKS_11ICollectionIS1_E13ReadOnlyValueERS1_EUlRKS1_E_EE, %object
	.size	_ZTVN8opendnp314FunctorVisitorINS_11Group50Var1EZNKS_11ICollectionIS1_E13ReadOnlyValueERS1_EUlRKS1_E_EE, 24
_ZTVN8opendnp314FunctorVisitorINS_11Group50Var1EZNKS_11ICollectionIS1_E13ReadOnlyValueERS1_EUlRKS1_E_EE:
	.xword	0
	.xword	_ZTIN8opendnp314FunctorVisitorINS_11Group50Var1EZNKS_11ICollectionIS1_E13ReadOnlyValueERS1_EUlRKS1_E_EE
	.xword	_ZN8opendnp314FunctorVisitorINS_11Group50Var1EZNKS_11ICollectionIS1_E13ReadOnlyValueERS1_EUlRKS1_E_E7OnValueES6_
	.ident	"GCC: (Ubuntu 11.4.0-1ubuntu1~22.04) 11.4.0"
	.section	.note.GNU-stack,"",@progbits
