	.arch armv8-a
	.file	"CountIndexParser.cpp"
	.text
	.section	.text._ZN7openpal12StaticBufferILj255EED2Ev,"axG",@progbits,_ZN7openpal12StaticBufferILj255EED5Ev,comdat
	.align	2
	.p2align 4,,11
	.weak	_ZN7openpal12StaticBufferILj255EED2Ev
	.type	_ZN7openpal12StaticBufferILj255EED2Ev, %function
_ZN7openpal12StaticBufferILj255EED2Ev:
.LFB2830:
	.cfi_startproc
	ret
	.cfi_endproc
.LFE2830:
	.size	_ZN7openpal12StaticBufferILj255EED2Ev, .-_ZN7openpal12StaticBufferILj255EED2Ev
	.weak	_ZN7openpal12StaticBufferILj255EED1Ev
	.set	_ZN7openpal12StaticBufferILj255EED1Ev,_ZN7openpal12StaticBufferILj255EED2Ev
	.section	.text._ZNK8opendnp318BufferedCollectionINS_7IndexedINS_12Group122Var2EEEZNS_16CountIndexParser17InvokeCountOfTypeIS2_EEvRKNS_12HeaderRecordEtRKNS_9NumParserERKN7openpal6RSliceERNS_12IAPDUHandlerEEUlRSD_jE_E5CountEv,"axG",@progbits,_ZNK8opendnp318BufferedCollectionINS_7IndexedINS_12Group122Var2EEEZNS_16CountIndexParser17InvokeCountOfTypeIS2_EEvRKNS_12HeaderRecordEtRKNS_9NumParserERKN7openpal6RSliceERNS_12IAPDUHandlerEEUlRSD_jE_E5CountEv,comdat
	.align	2
	.p2align 4,,11
	.weak	_ZNK8opendnp318BufferedCollectionINS_7IndexedINS_12Group122Var2EEEZNS_16CountIndexParser17InvokeCountOfTypeIS2_EEvRKNS_12HeaderRecordEtRKNS_9NumParserERKN7openpal6RSliceERNS_12IAPDUHandlerEEUlRSD_jE_E5CountEv
	.type	_ZNK8opendnp318BufferedCollectionINS_7IndexedINS_12Group122Var2EEEZNS_16CountIndexParser17InvokeCountOfTypeIS2_EEvRKNS_12HeaderRecordEtRKNS_9NumParserERKN7openpal6RSliceERNS_12IAPDUHandlerEEUlRSD_jE_E5CountEv, %function
_ZNK8opendnp318BufferedCollectionINS_7IndexedINS_12Group122Var2EEEZNS_16CountIndexParser17InvokeCountOfTypeIS2_EEvRKNS_12HeaderRecordEtRKNS_9NumParserERKN7openpal6RSliceERNS_12IAPDUHandlerEEUlRSD_jE_E5CountEv:
.LFB3980:
	.cfi_startproc
	ldr	x0, [x0, 24]
	ret
	.cfi_endproc
.LFE3980:
	.size	_ZNK8opendnp318BufferedCollectionINS_7IndexedINS_12Group122Var2EEEZNS_16CountIndexParser17InvokeCountOfTypeIS2_EEvRKNS_12HeaderRecordEtRKNS_9NumParserERKN7openpal6RSliceERNS_12IAPDUHandlerEEUlRSD_jE_E5CountEv, .-_ZNK8opendnp318BufferedCollectionINS_7IndexedINS_12Group122Var2EEEZNS_16CountIndexParser17InvokeCountOfTypeIS2_EEvRKNS_12HeaderRecordEtRKNS_9NumParserERKN7openpal6RSliceERNS_12IAPDUHandlerEEUlRSD_jE_E5CountEv
	.section	.text._ZNK8opendnp318BufferedCollectionINS_7IndexedINS_12Group122Var1EEEZNS_16CountIndexParser17InvokeCountOfTypeIS2_EEvRKNS_12HeaderRecordEtRKNS_9NumParserERKN7openpal6RSliceERNS_12IAPDUHandlerEEUlRSD_jE_E5CountEv,"axG",@progbits,_ZNK8opendnp318BufferedCollectionINS_7IndexedINS_12Group122Var1EEEZNS_16CountIndexParser17InvokeCountOfTypeIS2_EEvRKNS_12HeaderRecordEtRKNS_9NumParserERKN7openpal6RSliceERNS_12IAPDUHandlerEEUlRSD_jE_E5CountEv,comdat
	.align	2
	.p2align 4,,11
	.weak	_ZNK8opendnp318BufferedCollectionINS_7IndexedINS_12Group122Var1EEEZNS_16CountIndexParser17InvokeCountOfTypeIS2_EEvRKNS_12HeaderRecordEtRKNS_9NumParserERKN7openpal6RSliceERNS_12IAPDUHandlerEEUlRSD_jE_E5CountEv
	.type	_ZNK8opendnp318BufferedCollectionINS_7IndexedINS_12Group122Var1EEEZNS_16CountIndexParser17InvokeCountOfTypeIS2_EEvRKNS_12HeaderRecordEtRKNS_9NumParserERKN7openpal6RSliceERNS_12IAPDUHandlerEEUlRSD_jE_E5CountEv, %function
_ZNK8opendnp318BufferedCollectionINS_7IndexedINS_12Group122Var1EEEZNS_16CountIndexParser17InvokeCountOfTypeIS2_EEvRKNS_12HeaderRecordEtRKNS_9NumParserERKN7openpal6RSliceERNS_12IAPDUHandlerEEUlRSD_jE_E5CountEv:
.LFB3982:
	.cfi_startproc
	ldr	x0, [x0, 24]
	ret
	.cfi_endproc
.LFE3982:
	.size	_ZNK8opendnp318BufferedCollectionINS_7IndexedINS_12Group122Var1EEEZNS_16CountIndexParser17InvokeCountOfTypeIS2_EEvRKNS_12HeaderRecordEtRKNS_9NumParserERKN7openpal6RSliceERNS_12IAPDUHandlerEEUlRSD_jE_E5CountEv, .-_ZNK8opendnp318BufferedCollectionINS_7IndexedINS_12Group122Var1EEEZNS_16CountIndexParser17InvokeCountOfTypeIS2_EEvRKNS_12HeaderRecordEtRKNS_9NumParserERKN7openpal6RSliceERNS_12IAPDUHandlerEEUlRSD_jE_E5CountEv
	.section	.text._ZNK8opendnp318BufferedCollectionINS_7IndexedINS_15TimeAndIntervalEEEZNS_16CountIndexParser13InvokeCountOfINS_11Group50Var4EEEvRKNS_12HeaderRecordEtRKNS_9NumParserERKN7openpal6RSliceERNS_12IAPDUHandlerEEUlRSE_jE_E5CountEv,"axG",@progbits,_ZNK8opendnp318BufferedCollectionINS_7IndexedINS_15TimeAndIntervalEEEZNS_16CountIndexParser13InvokeCountOfINS_11Group50Var4EEEvRKNS_12HeaderRecordEtRKNS_9NumParserERKN7openpal6RSliceERNS_12IAPDUHandlerEEUlRSE_jE_E5CountEv,comdat
	.align	2
	.p2align 4,,11
	.weak	_ZNK8opendnp318BufferedCollectionINS_7IndexedINS_15TimeAndIntervalEEEZNS_16CountIndexParser13InvokeCountOfINS_11Group50Var4EEEvRKNS_12HeaderRecordEtRKNS_9NumParserERKN7openpal6RSliceERNS_12IAPDUHandlerEEUlRSE_jE_E5CountEv
	.type	_ZNK8opendnp318BufferedCollectionINS_7IndexedINS_15TimeAndIntervalEEEZNS_16CountIndexParser13InvokeCountOfINS_11Group50Var4EEEvRKNS_12HeaderRecordEtRKNS_9NumParserERKN7openpal6RSliceERNS_12IAPDUHandlerEEUlRSE_jE_E5CountEv, %function
_ZNK8opendnp318BufferedCollectionINS_7IndexedINS_15TimeAndIntervalEEEZNS_16CountIndexParser13InvokeCountOfINS_11Group50Var4EEEvRKNS_12HeaderRecordEtRKNS_9NumParserERKN7openpal6RSliceERNS_12IAPDUHandlerEEUlRSE_jE_E5CountEv:
.LFB3984:
	.cfi_startproc
	ldr	x0, [x0, 24]
	ret
	.cfi_endproc
.LFE3984:
	.size	_ZNK8opendnp318BufferedCollectionINS_7IndexedINS_15TimeAndIntervalEEEZNS_16CountIndexParser13InvokeCountOfINS_11Group50Var4EEEvRKNS_12HeaderRecordEtRKNS_9NumParserERKN7openpal6RSliceERNS_12IAPDUHandlerEEUlRSE_jE_E5CountEv, .-_ZNK8opendnp318BufferedCollectionINS_7IndexedINS_15TimeAndIntervalEEEZNS_16CountIndexParser13InvokeCountOfINS_11Group50Var4EEEvRKNS_12HeaderRecordEtRKNS_9NumParserERKN7openpal6RSliceERNS_12IAPDUHandlerEEUlRSE_jE_E5CountEv
	.section	.text._ZNK8opendnp318BufferedCollectionINS_7IndexedINS_18AnalogCommandEventEEEZNS_16CountIndexParser13InvokeCountOfINS_11Group43Var8EEEvRKNS_12HeaderRecordEtRKNS_9NumParserERKN7openpal6RSliceERNS_12IAPDUHandlerEEUlRSE_jE_E5CountEv,"axG",@progbits,_ZNK8opendnp318BufferedCollectionINS_7IndexedINS_18AnalogCommandEventEEEZNS_16CountIndexParser13InvokeCountOfINS_11Group43Var8EEEvRKNS_12HeaderRecordEtRKNS_9NumParserERKN7openpal6RSliceERNS_12IAPDUHandlerEEUlRSE_jE_E5CountEv,comdat
	.align	2
	.p2align 4,,11
	.weak	_ZNK8opendnp318BufferedCollectionINS_7IndexedINS_18AnalogCommandEventEEEZNS_16CountIndexParser13InvokeCountOfINS_11Group43Var8EEEvRKNS_12HeaderRecordEtRKNS_9NumParserERKN7openpal6RSliceERNS_12IAPDUHandlerEEUlRSE_jE_E5CountEv
	.type	_ZNK8opendnp318BufferedCollectionINS_7IndexedINS_18AnalogCommandEventEEEZNS_16CountIndexParser13InvokeCountOfINS_11Group43Var8EEEvRKNS_12HeaderRecordEtRKNS_9NumParserERKN7openpal6RSliceERNS_12IAPDUHandlerEEUlRSE_jE_E5CountEv, %function
_ZNK8opendnp318BufferedCollectionINS_7IndexedINS_18AnalogCommandEventEEEZNS_16CountIndexParser13InvokeCountOfINS_11Group43Var8EEEvRKNS_12HeaderRecordEtRKNS_9NumParserERKN7openpal6RSliceERNS_12IAPDUHandlerEEUlRSE_jE_E5CountEv:
.LFB3986:
	.cfi_startproc
	ldr	x0, [x0, 24]
	ret
	.cfi_endproc
.LFE3986:
	.size	_ZNK8opendnp318BufferedCollectionINS_7IndexedINS_18AnalogCommandEventEEEZNS_16CountIndexParser13InvokeCountOfINS_11Group43Var8EEEvRKNS_12HeaderRecordEtRKNS_9NumParserERKN7openpal6RSliceERNS_12IAPDUHandlerEEUlRSE_jE_E5CountEv, .-_ZNK8opendnp318BufferedCollectionINS_7IndexedINS_18AnalogCommandEventEEEZNS_16CountIndexParser13InvokeCountOfINS_11Group43Var8EEEvRKNS_12HeaderRecordEtRKNS_9NumParserERKN7openpal6RSliceERNS_12IAPDUHandlerEEUlRSE_jE_E5CountEv
	.section	.text._ZNK8opendnp318BufferedCollectionINS_7IndexedINS_18AnalogCommandEventEEEZNS_16CountIndexParser13InvokeCountOfINS_11Group43Var7EEEvRKNS_12HeaderRecordEtRKNS_9NumParserERKN7openpal6RSliceERNS_12IAPDUHandlerEEUlRSE_jE_E5CountEv,"axG",@progbits,_ZNK8opendnp318BufferedCollectionINS_7IndexedINS_18AnalogCommandEventEEEZNS_16CountIndexParser13InvokeCountOfINS_11Group43Var7EEEvRKNS_12HeaderRecordEtRKNS_9NumParserERKN7openpal6RSliceERNS_12IAPDUHandlerEEUlRSE_jE_E5CountEv,comdat
	.align	2
	.p2align 4,,11
	.weak	_ZNK8opendnp318BufferedCollectionINS_7IndexedINS_18AnalogCommandEventEEEZNS_16CountIndexParser13InvokeCountOfINS_11Group43Var7EEEvRKNS_12HeaderRecordEtRKNS_9NumParserERKN7openpal6RSliceERNS_12IAPDUHandlerEEUlRSE_jE_E5CountEv
	.type	_ZNK8opendnp318BufferedCollectionINS_7IndexedINS_18AnalogCommandEventEEEZNS_16CountIndexParser13InvokeCountOfINS_11Group43Var7EEEvRKNS_12HeaderRecordEtRKNS_9NumParserERKN7openpal6RSliceERNS_12IAPDUHandlerEEUlRSE_jE_E5CountEv, %function
_ZNK8opendnp318BufferedCollectionINS_7IndexedINS_18AnalogCommandEventEEEZNS_16CountIndexParser13InvokeCountOfINS_11Group43Var7EEEvRKNS_12HeaderRecordEtRKNS_9NumParserERKN7openpal6RSliceERNS_12IAPDUHandlerEEUlRSE_jE_E5CountEv:
.LFB3988:
	.cfi_startproc
	ldr	x0, [x0, 24]
	ret
	.cfi_endproc
.LFE3988:
	.size	_ZNK8opendnp318BufferedCollectionINS_7IndexedINS_18AnalogCommandEventEEEZNS_16CountIndexParser13InvokeCountOfINS_11Group43Var7EEEvRKNS_12HeaderRecordEtRKNS_9NumParserERKN7openpal6RSliceERNS_12IAPDUHandlerEEUlRSE_jE_E5CountEv, .-_ZNK8opendnp318BufferedCollectionINS_7IndexedINS_18AnalogCommandEventEEEZNS_16CountIndexParser13InvokeCountOfINS_11Group43Var7EEEvRKNS_12HeaderRecordEtRKNS_9NumParserERKN7openpal6RSliceERNS_12IAPDUHandlerEEUlRSE_jE_E5CountEv
	.section	.text._ZNK8opendnp318BufferedCollectionINS_7IndexedINS_18AnalogCommandEventEEEZNS_16CountIndexParser13InvokeCountOfINS_11Group43Var6EEEvRKNS_12HeaderRecordEtRKNS_9NumParserERKN7openpal6RSliceERNS_12IAPDUHandlerEEUlRSE_jE_E5CountEv,"axG",@progbits,_ZNK8opendnp318BufferedCollectionINS_7IndexedINS_18AnalogCommandEventEEEZNS_16CountIndexParser13InvokeCountOfINS_11Group43Var6EEEvRKNS_12HeaderRecordEtRKNS_9NumParserERKN7openpal6RSliceERNS_12IAPDUHandlerEEUlRSE_jE_E5CountEv,comdat
	.align	2
	.p2align 4,,11
	.weak	_ZNK8opendnp318BufferedCollectionINS_7IndexedINS_18AnalogCommandEventEEEZNS_16CountIndexParser13InvokeCountOfINS_11Group43Var6EEEvRKNS_12HeaderRecordEtRKNS_9NumParserERKN7openpal6RSliceERNS_12IAPDUHandlerEEUlRSE_jE_E5CountEv
	.type	_ZNK8opendnp318BufferedCollectionINS_7IndexedINS_18AnalogCommandEventEEEZNS_16CountIndexParser13InvokeCountOfINS_11Group43Var6EEEvRKNS_12HeaderRecordEtRKNS_9NumParserERKN7openpal6RSliceERNS_12IAPDUHandlerEEUlRSE_jE_E5CountEv, %function
_ZNK8opendnp318BufferedCollectionINS_7IndexedINS_18AnalogCommandEventEEEZNS_16CountIndexParser13InvokeCountOfINS_11Group43Var6EEEvRKNS_12HeaderRecordEtRKNS_9NumParserERKN7openpal6RSliceERNS_12IAPDUHandlerEEUlRSE_jE_E5CountEv:
.LFB3990:
	.cfi_startproc
	ldr	x0, [x0, 24]
	ret
	.cfi_endproc
.LFE3990:
	.size	_ZNK8opendnp318BufferedCollectionINS_7IndexedINS_18AnalogCommandEventEEEZNS_16CountIndexParser13InvokeCountOfINS_11Group43Var6EEEvRKNS_12HeaderRecordEtRKNS_9NumParserERKN7openpal6RSliceERNS_12IAPDUHandlerEEUlRSE_jE_E5CountEv, .-_ZNK8opendnp318BufferedCollectionINS_7IndexedINS_18AnalogCommandEventEEEZNS_16CountIndexParser13InvokeCountOfINS_11Group43Var6EEEvRKNS_12HeaderRecordEtRKNS_9NumParserERKN7openpal6RSliceERNS_12IAPDUHandlerEEUlRSE_jE_E5CountEv
	.section	.text._ZNK8opendnp318BufferedCollectionINS_7IndexedINS_18AnalogCommandEventEEEZNS_16CountIndexParser13InvokeCountOfINS_11Group43Var5EEEvRKNS_12HeaderRecordEtRKNS_9NumParserERKN7openpal6RSliceERNS_12IAPDUHandlerEEUlRSE_jE_E5CountEv,"axG",@progbits,_ZNK8opendnp318BufferedCollectionINS_7IndexedINS_18AnalogCommandEventEEEZNS_16CountIndexParser13InvokeCountOfINS_11Group43Var5EEEvRKNS_12HeaderRecordEtRKNS_9NumParserERKN7openpal6RSliceERNS_12IAPDUHandlerEEUlRSE_jE_E5CountEv,comdat
	.align	2
	.p2align 4,,11
	.weak	_ZNK8opendnp318BufferedCollectionINS_7IndexedINS_18AnalogCommandEventEEEZNS_16CountIndexParser13InvokeCountOfINS_11Group43Var5EEEvRKNS_12HeaderRecordEtRKNS_9NumParserERKN7openpal6RSliceERNS_12IAPDUHandlerEEUlRSE_jE_E5CountEv
	.type	_ZNK8opendnp318BufferedCollectionINS_7IndexedINS_18AnalogCommandEventEEEZNS_16CountIndexParser13InvokeCountOfINS_11Group43Var5EEEvRKNS_12HeaderRecordEtRKNS_9NumParserERKN7openpal6RSliceERNS_12IAPDUHandlerEEUlRSE_jE_E5CountEv, %function
_ZNK8opendnp318BufferedCollectionINS_7IndexedINS_18AnalogCommandEventEEEZNS_16CountIndexParser13InvokeCountOfINS_11Group43Var5EEEvRKNS_12HeaderRecordEtRKNS_9NumParserERKN7openpal6RSliceERNS_12IAPDUHandlerEEUlRSE_jE_E5CountEv:
.LFB3992:
	.cfi_startproc
	ldr	x0, [x0, 24]
	ret
	.cfi_endproc
.LFE3992:
	.size	_ZNK8opendnp318BufferedCollectionINS_7IndexedINS_18AnalogCommandEventEEEZNS_16CountIndexParser13InvokeCountOfINS_11Group43Var5EEEvRKNS_12HeaderRecordEtRKNS_9NumParserERKN7openpal6RSliceERNS_12IAPDUHandlerEEUlRSE_jE_E5CountEv, .-_ZNK8opendnp318BufferedCollectionINS_7IndexedINS_18AnalogCommandEventEEEZNS_16CountIndexParser13InvokeCountOfINS_11Group43Var5EEEvRKNS_12HeaderRecordEtRKNS_9NumParserERKN7openpal6RSliceERNS_12IAPDUHandlerEEUlRSE_jE_E5CountEv
	.section	.text._ZNK8opendnp318BufferedCollectionINS_7IndexedINS_18AnalogCommandEventEEEZNS_16CountIndexParser13InvokeCountOfINS_11Group43Var4EEEvRKNS_12HeaderRecordEtRKNS_9NumParserERKN7openpal6RSliceERNS_12IAPDUHandlerEEUlRSE_jE_E5CountEv,"axG",@progbits,_ZNK8opendnp318BufferedCollectionINS_7IndexedINS_18AnalogCommandEventEEEZNS_16CountIndexParser13InvokeCountOfINS_11Group43Var4EEEvRKNS_12HeaderRecordEtRKNS_9NumParserERKN7openpal6RSliceERNS_12IAPDUHandlerEEUlRSE_jE_E5CountEv,comdat
	.align	2
	.p2align 4,,11
	.weak	_ZNK8opendnp318BufferedCollectionINS_7IndexedINS_18AnalogCommandEventEEEZNS_16CountIndexParser13InvokeCountOfINS_11Group43Var4EEEvRKNS_12HeaderRecordEtRKNS_9NumParserERKN7openpal6RSliceERNS_12IAPDUHandlerEEUlRSE_jE_E5CountEv
	.type	_ZNK8opendnp318BufferedCollectionINS_7IndexedINS_18AnalogCommandEventEEEZNS_16CountIndexParser13InvokeCountOfINS_11Group43Var4EEEvRKNS_12HeaderRecordEtRKNS_9NumParserERKN7openpal6RSliceERNS_12IAPDUHandlerEEUlRSE_jE_E5CountEv, %function
_ZNK8opendnp318BufferedCollectionINS_7IndexedINS_18AnalogCommandEventEEEZNS_16CountIndexParser13InvokeCountOfINS_11Group43Var4EEEvRKNS_12HeaderRecordEtRKNS_9NumParserERKN7openpal6RSliceERNS_12IAPDUHandlerEEUlRSE_jE_E5CountEv:
.LFB3994:
	.cfi_startproc
	ldr	x0, [x0, 24]
	ret
	.cfi_endproc
.LFE3994:
	.size	_ZNK8opendnp318BufferedCollectionINS_7IndexedINS_18AnalogCommandEventEEEZNS_16CountIndexParser13InvokeCountOfINS_11Group43Var4EEEvRKNS_12HeaderRecordEtRKNS_9NumParserERKN7openpal6RSliceERNS_12IAPDUHandlerEEUlRSE_jE_E5CountEv, .-_ZNK8opendnp318BufferedCollectionINS_7IndexedINS_18AnalogCommandEventEEEZNS_16CountIndexParser13InvokeCountOfINS_11Group43Var4EEEvRKNS_12HeaderRecordEtRKNS_9NumParserERKN7openpal6RSliceERNS_12IAPDUHandlerEEUlRSE_jE_E5CountEv
	.section	.text._ZNK8opendnp318BufferedCollectionINS_7IndexedINS_18AnalogCommandEventEEEZNS_16CountIndexParser13InvokeCountOfINS_11Group43Var3EEEvRKNS_12HeaderRecordEtRKNS_9NumParserERKN7openpal6RSliceERNS_12IAPDUHandlerEEUlRSE_jE_E5CountEv,"axG",@progbits,_ZNK8opendnp318BufferedCollectionINS_7IndexedINS_18AnalogCommandEventEEEZNS_16CountIndexParser13InvokeCountOfINS_11Group43Var3EEEvRKNS_12HeaderRecordEtRKNS_9NumParserERKN7openpal6RSliceERNS_12IAPDUHandlerEEUlRSE_jE_E5CountEv,comdat
	.align	2
	.p2align 4,,11
	.weak	_ZNK8opendnp318BufferedCollectionINS_7IndexedINS_18AnalogCommandEventEEEZNS_16CountIndexParser13InvokeCountOfINS_11Group43Var3EEEvRKNS_12HeaderRecordEtRKNS_9NumParserERKN7openpal6RSliceERNS_12IAPDUHandlerEEUlRSE_jE_E5CountEv
	.type	_ZNK8opendnp318BufferedCollectionINS_7IndexedINS_18AnalogCommandEventEEEZNS_16CountIndexParser13InvokeCountOfINS_11Group43Var3EEEvRKNS_12HeaderRecordEtRKNS_9NumParserERKN7openpal6RSliceERNS_12IAPDUHandlerEEUlRSE_jE_E5CountEv, %function
_ZNK8opendnp318BufferedCollectionINS_7IndexedINS_18AnalogCommandEventEEEZNS_16CountIndexParser13InvokeCountOfINS_11Group43Var3EEEvRKNS_12HeaderRecordEtRKNS_9NumParserERKN7openpal6RSliceERNS_12IAPDUHandlerEEUlRSE_jE_E5CountEv:
.LFB3996:
	.cfi_startproc
	ldr	x0, [x0, 24]
	ret
	.cfi_endproc
.LFE3996:
	.size	_ZNK8opendnp318BufferedCollectionINS_7IndexedINS_18AnalogCommandEventEEEZNS_16CountIndexParser13InvokeCountOfINS_11Group43Var3EEEvRKNS_12HeaderRecordEtRKNS_9NumParserERKN7openpal6RSliceERNS_12IAPDUHandlerEEUlRSE_jE_E5CountEv, .-_ZNK8opendnp318BufferedCollectionINS_7IndexedINS_18AnalogCommandEventEEEZNS_16CountIndexParser13InvokeCountOfINS_11Group43Var3EEEvRKNS_12HeaderRecordEtRKNS_9NumParserERKN7openpal6RSliceERNS_12IAPDUHandlerEEUlRSE_jE_E5CountEv
	.section	.text._ZNK8opendnp318BufferedCollectionINS_7IndexedINS_18AnalogCommandEventEEEZNS_16CountIndexParser13InvokeCountOfINS_11Group43Var2EEEvRKNS_12HeaderRecordEtRKNS_9NumParserERKN7openpal6RSliceERNS_12IAPDUHandlerEEUlRSE_jE_E5CountEv,"axG",@progbits,_ZNK8opendnp318BufferedCollectionINS_7IndexedINS_18AnalogCommandEventEEEZNS_16CountIndexParser13InvokeCountOfINS_11Group43Var2EEEvRKNS_12HeaderRecordEtRKNS_9NumParserERKN7openpal6RSliceERNS_12IAPDUHandlerEEUlRSE_jE_E5CountEv,comdat
	.align	2
	.p2align 4,,11
	.weak	_ZNK8opendnp318BufferedCollectionINS_7IndexedINS_18AnalogCommandEventEEEZNS_16CountIndexParser13InvokeCountOfINS_11Group43Var2EEEvRKNS_12HeaderRecordEtRKNS_9NumParserERKN7openpal6RSliceERNS_12IAPDUHandlerEEUlRSE_jE_E5CountEv
	.type	_ZNK8opendnp318BufferedCollectionINS_7IndexedINS_18AnalogCommandEventEEEZNS_16CountIndexParser13InvokeCountOfINS_11Group43Var2EEEvRKNS_12HeaderRecordEtRKNS_9NumParserERKN7openpal6RSliceERNS_12IAPDUHandlerEEUlRSE_jE_E5CountEv, %function
_ZNK8opendnp318BufferedCollectionINS_7IndexedINS_18AnalogCommandEventEEEZNS_16CountIndexParser13InvokeCountOfINS_11Group43Var2EEEvRKNS_12HeaderRecordEtRKNS_9NumParserERKN7openpal6RSliceERNS_12IAPDUHandlerEEUlRSE_jE_E5CountEv:
.LFB3998:
	.cfi_startproc
	ldr	x0, [x0, 24]
	ret
	.cfi_endproc
.LFE3998:
	.size	_ZNK8opendnp318BufferedCollectionINS_7IndexedINS_18AnalogCommandEventEEEZNS_16CountIndexParser13InvokeCountOfINS_11Group43Var2EEEvRKNS_12HeaderRecordEtRKNS_9NumParserERKN7openpal6RSliceERNS_12IAPDUHandlerEEUlRSE_jE_E5CountEv, .-_ZNK8opendnp318BufferedCollectionINS_7IndexedINS_18AnalogCommandEventEEEZNS_16CountIndexParser13InvokeCountOfINS_11Group43Var2EEEvRKNS_12HeaderRecordEtRKNS_9NumParserERKN7openpal6RSliceERNS_12IAPDUHandlerEEUlRSE_jE_E5CountEv
	.section	.text._ZNK8opendnp318BufferedCollectionINS_7IndexedINS_18AnalogCommandEventEEEZNS_16CountIndexParser13InvokeCountOfINS_11Group43Var1EEEvRKNS_12HeaderRecordEtRKNS_9NumParserERKN7openpal6RSliceERNS_12IAPDUHandlerEEUlRSE_jE_E5CountEv,"axG",@progbits,_ZNK8opendnp318BufferedCollectionINS_7IndexedINS_18AnalogCommandEventEEEZNS_16CountIndexParser13InvokeCountOfINS_11Group43Var1EEEvRKNS_12HeaderRecordEtRKNS_9NumParserERKN7openpal6RSliceERNS_12IAPDUHandlerEEUlRSE_jE_E5CountEv,comdat
	.align	2
	.p2align 4,,11
	.weak	_ZNK8opendnp318BufferedCollectionINS_7IndexedINS_18AnalogCommandEventEEEZNS_16CountIndexParser13InvokeCountOfINS_11Group43Var1EEEvRKNS_12HeaderRecordEtRKNS_9NumParserERKN7openpal6RSliceERNS_12IAPDUHandlerEEUlRSE_jE_E5CountEv
	.type	_ZNK8opendnp318BufferedCollectionINS_7IndexedINS_18AnalogCommandEventEEEZNS_16CountIndexParser13InvokeCountOfINS_11Group43Var1EEEvRKNS_12HeaderRecordEtRKNS_9NumParserERKN7openpal6RSliceERNS_12IAPDUHandlerEEUlRSE_jE_E5CountEv, %function
_ZNK8opendnp318BufferedCollectionINS_7IndexedINS_18AnalogCommandEventEEEZNS_16CountIndexParser13InvokeCountOfINS_11Group43Var1EEEvRKNS_12HeaderRecordEtRKNS_9NumParserERKN7openpal6RSliceERNS_12IAPDUHandlerEEUlRSE_jE_E5CountEv:
.LFB4000:
	.cfi_startproc
	ldr	x0, [x0, 24]
	ret
	.cfi_endproc
.LFE4000:
	.size	_ZNK8opendnp318BufferedCollectionINS_7IndexedINS_18AnalogCommandEventEEEZNS_16CountIndexParser13InvokeCountOfINS_11Group43Var1EEEvRKNS_12HeaderRecordEtRKNS_9NumParserERKN7openpal6RSliceERNS_12IAPDUHandlerEEUlRSE_jE_E5CountEv, .-_ZNK8opendnp318BufferedCollectionINS_7IndexedINS_18AnalogCommandEventEEEZNS_16CountIndexParser13InvokeCountOfINS_11Group43Var1EEEvRKNS_12HeaderRecordEtRKNS_9NumParserERKN7openpal6RSliceERNS_12IAPDUHandlerEEUlRSE_jE_E5CountEv
	.section	.text._ZNK8opendnp318BufferedCollectionINS_7IndexedINS_18AnalogOutputStatusEEEZNS_16CountIndexParser13InvokeCountOfINS_11Group42Var8EEEvRKNS_12HeaderRecordEtRKNS_9NumParserERKN7openpal6RSliceERNS_12IAPDUHandlerEEUlRSE_jE_E5CountEv,"axG",@progbits,_ZNK8opendnp318BufferedCollectionINS_7IndexedINS_18AnalogOutputStatusEEEZNS_16CountIndexParser13InvokeCountOfINS_11Group42Var8EEEvRKNS_12HeaderRecordEtRKNS_9NumParserERKN7openpal6RSliceERNS_12IAPDUHandlerEEUlRSE_jE_E5CountEv,comdat
	.align	2
	.p2align 4,,11
	.weak	_ZNK8opendnp318BufferedCollectionINS_7IndexedINS_18AnalogOutputStatusEEEZNS_16CountIndexParser13InvokeCountOfINS_11Group42Var8EEEvRKNS_12HeaderRecordEtRKNS_9NumParserERKN7openpal6RSliceERNS_12IAPDUHandlerEEUlRSE_jE_E5CountEv
	.type	_ZNK8opendnp318BufferedCollectionINS_7IndexedINS_18AnalogOutputStatusEEEZNS_16CountIndexParser13InvokeCountOfINS_11Group42Var8EEEvRKNS_12HeaderRecordEtRKNS_9NumParserERKN7openpal6RSliceERNS_12IAPDUHandlerEEUlRSE_jE_E5CountEv, %function
_ZNK8opendnp318BufferedCollectionINS_7IndexedINS_18AnalogOutputStatusEEEZNS_16CountIndexParser13InvokeCountOfINS_11Group42Var8EEEvRKNS_12HeaderRecordEtRKNS_9NumParserERKN7openpal6RSliceERNS_12IAPDUHandlerEEUlRSE_jE_E5CountEv:
.LFB4002:
	.cfi_startproc
	ldr	x0, [x0, 24]
	ret
	.cfi_endproc
.LFE4002:
	.size	_ZNK8opendnp318BufferedCollectionINS_7IndexedINS_18AnalogOutputStatusEEEZNS_16CountIndexParser13InvokeCountOfINS_11Group42Var8EEEvRKNS_12HeaderRecordEtRKNS_9NumParserERKN7openpal6RSliceERNS_12IAPDUHandlerEEUlRSE_jE_E5CountEv, .-_ZNK8opendnp318BufferedCollectionINS_7IndexedINS_18AnalogOutputStatusEEEZNS_16CountIndexParser13InvokeCountOfINS_11Group42Var8EEEvRKNS_12HeaderRecordEtRKNS_9NumParserERKN7openpal6RSliceERNS_12IAPDUHandlerEEUlRSE_jE_E5CountEv
	.section	.text._ZNK8opendnp318BufferedCollectionINS_7IndexedINS_18AnalogOutputStatusEEEZNS_16CountIndexParser13InvokeCountOfINS_11Group42Var7EEEvRKNS_12HeaderRecordEtRKNS_9NumParserERKN7openpal6RSliceERNS_12IAPDUHandlerEEUlRSE_jE_E5CountEv,"axG",@progbits,_ZNK8opendnp318BufferedCollectionINS_7IndexedINS_18AnalogOutputStatusEEEZNS_16CountIndexParser13InvokeCountOfINS_11Group42Var7EEEvRKNS_12HeaderRecordEtRKNS_9NumParserERKN7openpal6RSliceERNS_12IAPDUHandlerEEUlRSE_jE_E5CountEv,comdat
	.align	2
	.p2align 4,,11
	.weak	_ZNK8opendnp318BufferedCollectionINS_7IndexedINS_18AnalogOutputStatusEEEZNS_16CountIndexParser13InvokeCountOfINS_11Group42Var7EEEvRKNS_12HeaderRecordEtRKNS_9NumParserERKN7openpal6RSliceERNS_12IAPDUHandlerEEUlRSE_jE_E5CountEv
	.type	_ZNK8opendnp318BufferedCollectionINS_7IndexedINS_18AnalogOutputStatusEEEZNS_16CountIndexParser13InvokeCountOfINS_11Group42Var7EEEvRKNS_12HeaderRecordEtRKNS_9NumParserERKN7openpal6RSliceERNS_12IAPDUHandlerEEUlRSE_jE_E5CountEv, %function
_ZNK8opendnp318BufferedCollectionINS_7IndexedINS_18AnalogOutputStatusEEEZNS_16CountIndexParser13InvokeCountOfINS_11Group42Var7EEEvRKNS_12HeaderRecordEtRKNS_9NumParserERKN7openpal6RSliceERNS_12IAPDUHandlerEEUlRSE_jE_E5CountEv:
.LFB4004:
	.cfi_startproc
	ldr	x0, [x0, 24]
	ret
	.cfi_endproc
.LFE4004:
	.size	_ZNK8opendnp318BufferedCollectionINS_7IndexedINS_18AnalogOutputStatusEEEZNS_16CountIndexParser13InvokeCountOfINS_11Group42Var7EEEvRKNS_12HeaderRecordEtRKNS_9NumParserERKN7openpal6RSliceERNS_12IAPDUHandlerEEUlRSE_jE_E5CountEv, .-_ZNK8opendnp318BufferedCollectionINS_7IndexedINS_18AnalogOutputStatusEEEZNS_16CountIndexParser13InvokeCountOfINS_11Group42Var7EEEvRKNS_12HeaderRecordEtRKNS_9NumParserERKN7openpal6RSliceERNS_12IAPDUHandlerEEUlRSE_jE_E5CountEv
	.section	.text._ZNK8opendnp318BufferedCollectionINS_7IndexedINS_18AnalogOutputStatusEEEZNS_16CountIndexParser13InvokeCountOfINS_11Group42Var6EEEvRKNS_12HeaderRecordEtRKNS_9NumParserERKN7openpal6RSliceERNS_12IAPDUHandlerEEUlRSE_jE_E5CountEv,"axG",@progbits,_ZNK8opendnp318BufferedCollectionINS_7IndexedINS_18AnalogOutputStatusEEEZNS_16CountIndexParser13InvokeCountOfINS_11Group42Var6EEEvRKNS_12HeaderRecordEtRKNS_9NumParserERKN7openpal6RSliceERNS_12IAPDUHandlerEEUlRSE_jE_E5CountEv,comdat
	.align	2
	.p2align 4,,11
	.weak	_ZNK8opendnp318BufferedCollectionINS_7IndexedINS_18AnalogOutputStatusEEEZNS_16CountIndexParser13InvokeCountOfINS_11Group42Var6EEEvRKNS_12HeaderRecordEtRKNS_9NumParserERKN7openpal6RSliceERNS_12IAPDUHandlerEEUlRSE_jE_E5CountEv
	.type	_ZNK8opendnp318BufferedCollectionINS_7IndexedINS_18AnalogOutputStatusEEEZNS_16CountIndexParser13InvokeCountOfINS_11Group42Var6EEEvRKNS_12HeaderRecordEtRKNS_9NumParserERKN7openpal6RSliceERNS_12IAPDUHandlerEEUlRSE_jE_E5CountEv, %function
_ZNK8opendnp318BufferedCollectionINS_7IndexedINS_18AnalogOutputStatusEEEZNS_16CountIndexParser13InvokeCountOfINS_11Group42Var6EEEvRKNS_12HeaderRecordEtRKNS_9NumParserERKN7openpal6RSliceERNS_12IAPDUHandlerEEUlRSE_jE_E5CountEv:
.LFB4006:
	.cfi_startproc
	ldr	x0, [x0, 24]
	ret
	.cfi_endproc
.LFE4006:
	.size	_ZNK8opendnp318BufferedCollectionINS_7IndexedINS_18AnalogOutputStatusEEEZNS_16CountIndexParser13InvokeCountOfINS_11Group42Var6EEEvRKNS_12HeaderRecordEtRKNS_9NumParserERKN7openpal6RSliceERNS_12IAPDUHandlerEEUlRSE_jE_E5CountEv, .-_ZNK8opendnp318BufferedCollectionINS_7IndexedINS_18AnalogOutputStatusEEEZNS_16CountIndexParser13InvokeCountOfINS_11Group42Var6EEEvRKNS_12HeaderRecordEtRKNS_9NumParserERKN7openpal6RSliceERNS_12IAPDUHandlerEEUlRSE_jE_E5CountEv
	.section	.text._ZNK8opendnp318BufferedCollectionINS_7IndexedINS_18AnalogOutputStatusEEEZNS_16CountIndexParser13InvokeCountOfINS_11Group42Var5EEEvRKNS_12HeaderRecordEtRKNS_9NumParserERKN7openpal6RSliceERNS_12IAPDUHandlerEEUlRSE_jE_E5CountEv,"axG",@progbits,_ZNK8opendnp318BufferedCollectionINS_7IndexedINS_18AnalogOutputStatusEEEZNS_16CountIndexParser13InvokeCountOfINS_11Group42Var5EEEvRKNS_12HeaderRecordEtRKNS_9NumParserERKN7openpal6RSliceERNS_12IAPDUHandlerEEUlRSE_jE_E5CountEv,comdat
	.align	2
	.p2align 4,,11
	.weak	_ZNK8opendnp318BufferedCollectionINS_7IndexedINS_18AnalogOutputStatusEEEZNS_16CountIndexParser13InvokeCountOfINS_11Group42Var5EEEvRKNS_12HeaderRecordEtRKNS_9NumParserERKN7openpal6RSliceERNS_12IAPDUHandlerEEUlRSE_jE_E5CountEv
	.type	_ZNK8opendnp318BufferedCollectionINS_7IndexedINS_18AnalogOutputStatusEEEZNS_16CountIndexParser13InvokeCountOfINS_11Group42Var5EEEvRKNS_12HeaderRecordEtRKNS_9NumParserERKN7openpal6RSliceERNS_12IAPDUHandlerEEUlRSE_jE_E5CountEv, %function
_ZNK8opendnp318BufferedCollectionINS_7IndexedINS_18AnalogOutputStatusEEEZNS_16CountIndexParser13InvokeCountOfINS_11Group42Var5EEEvRKNS_12HeaderRecordEtRKNS_9NumParserERKN7openpal6RSliceERNS_12IAPDUHandlerEEUlRSE_jE_E5CountEv:
.LFB4008:
	.cfi_startproc
	ldr	x0, [x0, 24]
	ret
	.cfi_endproc
.LFE4008:
	.size	_ZNK8opendnp318BufferedCollectionINS_7IndexedINS_18AnalogOutputStatusEEEZNS_16CountIndexParser13InvokeCountOfINS_11Group42Var5EEEvRKNS_12HeaderRecordEtRKNS_9NumParserERKN7openpal6RSliceERNS_12IAPDUHandlerEEUlRSE_jE_E5CountEv, .-_ZNK8opendnp318BufferedCollectionINS_7IndexedINS_18AnalogOutputStatusEEEZNS_16CountIndexParser13InvokeCountOfINS_11Group42Var5EEEvRKNS_12HeaderRecordEtRKNS_9NumParserERKN7openpal6RSliceERNS_12IAPDUHandlerEEUlRSE_jE_E5CountEv
	.section	.text._ZNK8opendnp318BufferedCollectionINS_7IndexedINS_18AnalogOutputStatusEEEZNS_16CountIndexParser13InvokeCountOfINS_11Group42Var4EEEvRKNS_12HeaderRecordEtRKNS_9NumParserERKN7openpal6RSliceERNS_12IAPDUHandlerEEUlRSE_jE_E5CountEv,"axG",@progbits,_ZNK8opendnp318BufferedCollectionINS_7IndexedINS_18AnalogOutputStatusEEEZNS_16CountIndexParser13InvokeCountOfINS_11Group42Var4EEEvRKNS_12HeaderRecordEtRKNS_9NumParserERKN7openpal6RSliceERNS_12IAPDUHandlerEEUlRSE_jE_E5CountEv,comdat
	.align	2
	.p2align 4,,11
	.weak	_ZNK8opendnp318BufferedCollectionINS_7IndexedINS_18AnalogOutputStatusEEEZNS_16CountIndexParser13InvokeCountOfINS_11Group42Var4EEEvRKNS_12HeaderRecordEtRKNS_9NumParserERKN7openpal6RSliceERNS_12IAPDUHandlerEEUlRSE_jE_E5CountEv
	.type	_ZNK8opendnp318BufferedCollectionINS_7IndexedINS_18AnalogOutputStatusEEEZNS_16CountIndexParser13InvokeCountOfINS_11Group42Var4EEEvRKNS_12HeaderRecordEtRKNS_9NumParserERKN7openpal6RSliceERNS_12IAPDUHandlerEEUlRSE_jE_E5CountEv, %function
_ZNK8opendnp318BufferedCollectionINS_7IndexedINS_18AnalogOutputStatusEEEZNS_16CountIndexParser13InvokeCountOfINS_11Group42Var4EEEvRKNS_12HeaderRecordEtRKNS_9NumParserERKN7openpal6RSliceERNS_12IAPDUHandlerEEUlRSE_jE_E5CountEv:
.LFB4010:
	.cfi_startproc
	ldr	x0, [x0, 24]
	ret
	.cfi_endproc
.LFE4010:
	.size	_ZNK8opendnp318BufferedCollectionINS_7IndexedINS_18AnalogOutputStatusEEEZNS_16CountIndexParser13InvokeCountOfINS_11Group42Var4EEEvRKNS_12HeaderRecordEtRKNS_9NumParserERKN7openpal6RSliceERNS_12IAPDUHandlerEEUlRSE_jE_E5CountEv, .-_ZNK8opendnp318BufferedCollectionINS_7IndexedINS_18AnalogOutputStatusEEEZNS_16CountIndexParser13InvokeCountOfINS_11Group42Var4EEEvRKNS_12HeaderRecordEtRKNS_9NumParserERKN7openpal6RSliceERNS_12IAPDUHandlerEEUlRSE_jE_E5CountEv
	.section	.text._ZNK8opendnp318BufferedCollectionINS_7IndexedINS_18AnalogOutputStatusEEEZNS_16CountIndexParser13InvokeCountOfINS_11Group42Var3EEEvRKNS_12HeaderRecordEtRKNS_9NumParserERKN7openpal6RSliceERNS_12IAPDUHandlerEEUlRSE_jE_E5CountEv,"axG",@progbits,_ZNK8opendnp318BufferedCollectionINS_7IndexedINS_18AnalogOutputStatusEEEZNS_16CountIndexParser13InvokeCountOfINS_11Group42Var3EEEvRKNS_12HeaderRecordEtRKNS_9NumParserERKN7openpal6RSliceERNS_12IAPDUHandlerEEUlRSE_jE_E5CountEv,comdat
	.align	2
	.p2align 4,,11
	.weak	_ZNK8opendnp318BufferedCollectionINS_7IndexedINS_18AnalogOutputStatusEEEZNS_16CountIndexParser13InvokeCountOfINS_11Group42Var3EEEvRKNS_12HeaderRecordEtRKNS_9NumParserERKN7openpal6RSliceERNS_12IAPDUHandlerEEUlRSE_jE_E5CountEv
	.type	_ZNK8opendnp318BufferedCollectionINS_7IndexedINS_18AnalogOutputStatusEEEZNS_16CountIndexParser13InvokeCountOfINS_11Group42Var3EEEvRKNS_12HeaderRecordEtRKNS_9NumParserERKN7openpal6RSliceERNS_12IAPDUHandlerEEUlRSE_jE_E5CountEv, %function
_ZNK8opendnp318BufferedCollectionINS_7IndexedINS_18AnalogOutputStatusEEEZNS_16CountIndexParser13InvokeCountOfINS_11Group42Var3EEEvRKNS_12HeaderRecordEtRKNS_9NumParserERKN7openpal6RSliceERNS_12IAPDUHandlerEEUlRSE_jE_E5CountEv:
.LFB4012:
	.cfi_startproc
	ldr	x0, [x0, 24]
	ret
	.cfi_endproc
.LFE4012:
	.size	_ZNK8opendnp318BufferedCollectionINS_7IndexedINS_18AnalogOutputStatusEEEZNS_16CountIndexParser13InvokeCountOfINS_11Group42Var3EEEvRKNS_12HeaderRecordEtRKNS_9NumParserERKN7openpal6RSliceERNS_12IAPDUHandlerEEUlRSE_jE_E5CountEv, .-_ZNK8opendnp318BufferedCollectionINS_7IndexedINS_18AnalogOutputStatusEEEZNS_16CountIndexParser13InvokeCountOfINS_11Group42Var3EEEvRKNS_12HeaderRecordEtRKNS_9NumParserERKN7openpal6RSliceERNS_12IAPDUHandlerEEUlRSE_jE_E5CountEv
	.section	.text._ZNK8opendnp318BufferedCollectionINS_7IndexedINS_18AnalogOutputStatusEEEZNS_16CountIndexParser13InvokeCountOfINS_11Group42Var2EEEvRKNS_12HeaderRecordEtRKNS_9NumParserERKN7openpal6RSliceERNS_12IAPDUHandlerEEUlRSE_jE_E5CountEv,"axG",@progbits,_ZNK8opendnp318BufferedCollectionINS_7IndexedINS_18AnalogOutputStatusEEEZNS_16CountIndexParser13InvokeCountOfINS_11Group42Var2EEEvRKNS_12HeaderRecordEtRKNS_9NumParserERKN7openpal6RSliceERNS_12IAPDUHandlerEEUlRSE_jE_E5CountEv,comdat
	.align	2
	.p2align 4,,11
	.weak	_ZNK8opendnp318BufferedCollectionINS_7IndexedINS_18AnalogOutputStatusEEEZNS_16CountIndexParser13InvokeCountOfINS_11Group42Var2EEEvRKNS_12HeaderRecordEtRKNS_9NumParserERKN7openpal6RSliceERNS_12IAPDUHandlerEEUlRSE_jE_E5CountEv
	.type	_ZNK8opendnp318BufferedCollectionINS_7IndexedINS_18AnalogOutputStatusEEEZNS_16CountIndexParser13InvokeCountOfINS_11Group42Var2EEEvRKNS_12HeaderRecordEtRKNS_9NumParserERKN7openpal6RSliceERNS_12IAPDUHandlerEEUlRSE_jE_E5CountEv, %function
_ZNK8opendnp318BufferedCollectionINS_7IndexedINS_18AnalogOutputStatusEEEZNS_16CountIndexParser13InvokeCountOfINS_11Group42Var2EEEvRKNS_12HeaderRecordEtRKNS_9NumParserERKN7openpal6RSliceERNS_12IAPDUHandlerEEUlRSE_jE_E5CountEv:
.LFB4014:
	.cfi_startproc
	ldr	x0, [x0, 24]
	ret
	.cfi_endproc
.LFE4014:
	.size	_ZNK8opendnp318BufferedCollectionINS_7IndexedINS_18AnalogOutputStatusEEEZNS_16CountIndexParser13InvokeCountOfINS_11Group42Var2EEEvRKNS_12HeaderRecordEtRKNS_9NumParserERKN7openpal6RSliceERNS_12IAPDUHandlerEEUlRSE_jE_E5CountEv, .-_ZNK8opendnp318BufferedCollectionINS_7IndexedINS_18AnalogOutputStatusEEEZNS_16CountIndexParser13InvokeCountOfINS_11Group42Var2EEEvRKNS_12HeaderRecordEtRKNS_9NumParserERKN7openpal6RSliceERNS_12IAPDUHandlerEEUlRSE_jE_E5CountEv
	.section	.text._ZNK8opendnp318BufferedCollectionINS_7IndexedINS_18AnalogOutputStatusEEEZNS_16CountIndexParser13InvokeCountOfINS_11Group42Var1EEEvRKNS_12HeaderRecordEtRKNS_9NumParserERKN7openpal6RSliceERNS_12IAPDUHandlerEEUlRSE_jE_E5CountEv,"axG",@progbits,_ZNK8opendnp318BufferedCollectionINS_7IndexedINS_18AnalogOutputStatusEEEZNS_16CountIndexParser13InvokeCountOfINS_11Group42Var1EEEvRKNS_12HeaderRecordEtRKNS_9NumParserERKN7openpal6RSliceERNS_12IAPDUHandlerEEUlRSE_jE_E5CountEv,comdat
	.align	2
	.p2align 4,,11
	.weak	_ZNK8opendnp318BufferedCollectionINS_7IndexedINS_18AnalogOutputStatusEEEZNS_16CountIndexParser13InvokeCountOfINS_11Group42Var1EEEvRKNS_12HeaderRecordEtRKNS_9NumParserERKN7openpal6RSliceERNS_12IAPDUHandlerEEUlRSE_jE_E5CountEv
	.type	_ZNK8opendnp318BufferedCollectionINS_7IndexedINS_18AnalogOutputStatusEEEZNS_16CountIndexParser13InvokeCountOfINS_11Group42Var1EEEvRKNS_12HeaderRecordEtRKNS_9NumParserERKN7openpal6RSliceERNS_12IAPDUHandlerEEUlRSE_jE_E5CountEv, %function
_ZNK8opendnp318BufferedCollectionINS_7IndexedINS_18AnalogOutputStatusEEEZNS_16CountIndexParser13InvokeCountOfINS_11Group42Var1EEEvRKNS_12HeaderRecordEtRKNS_9NumParserERKN7openpal6RSliceERNS_12IAPDUHandlerEEUlRSE_jE_E5CountEv:
.LFB4016:
	.cfi_startproc
	ldr	x0, [x0, 24]
	ret
	.cfi_endproc
.LFE4016:
	.size	_ZNK8opendnp318BufferedCollectionINS_7IndexedINS_18AnalogOutputStatusEEEZNS_16CountIndexParser13InvokeCountOfINS_11Group42Var1EEEvRKNS_12HeaderRecordEtRKNS_9NumParserERKN7openpal6RSliceERNS_12IAPDUHandlerEEUlRSE_jE_E5CountEv, .-_ZNK8opendnp318BufferedCollectionINS_7IndexedINS_18AnalogOutputStatusEEEZNS_16CountIndexParser13InvokeCountOfINS_11Group42Var1EEEvRKNS_12HeaderRecordEtRKNS_9NumParserERKN7openpal6RSliceERNS_12IAPDUHandlerEEUlRSE_jE_E5CountEv
	.section	.text._ZNK8opendnp318BufferedCollectionINS_7IndexedINS_20AnalogOutputDouble64EEEZNS_16CountIndexParser13InvokeCountOfINS_11Group41Var4EEEvRKNS_12HeaderRecordEtRKNS_9NumParserERKN7openpal6RSliceERNS_12IAPDUHandlerEEUlRSE_jE_E5CountEv,"axG",@progbits,_ZNK8opendnp318BufferedCollectionINS_7IndexedINS_20AnalogOutputDouble64EEEZNS_16CountIndexParser13InvokeCountOfINS_11Group41Var4EEEvRKNS_12HeaderRecordEtRKNS_9NumParserERKN7openpal6RSliceERNS_12IAPDUHandlerEEUlRSE_jE_E5CountEv,comdat
	.align	2
	.p2align 4,,11
	.weak	_ZNK8opendnp318BufferedCollectionINS_7IndexedINS_20AnalogOutputDouble64EEEZNS_16CountIndexParser13InvokeCountOfINS_11Group41Var4EEEvRKNS_12HeaderRecordEtRKNS_9NumParserERKN7openpal6RSliceERNS_12IAPDUHandlerEEUlRSE_jE_E5CountEv
	.type	_ZNK8opendnp318BufferedCollectionINS_7IndexedINS_20AnalogOutputDouble64EEEZNS_16CountIndexParser13InvokeCountOfINS_11Group41Var4EEEvRKNS_12HeaderRecordEtRKNS_9NumParserERKN7openpal6RSliceERNS_12IAPDUHandlerEEUlRSE_jE_E5CountEv, %function
_ZNK8opendnp318BufferedCollectionINS_7IndexedINS_20AnalogOutputDouble64EEEZNS_16CountIndexParser13InvokeCountOfINS_11Group41Var4EEEvRKNS_12HeaderRecordEtRKNS_9NumParserERKN7openpal6RSliceERNS_12IAPDUHandlerEEUlRSE_jE_E5CountEv:
.LFB4018:
	.cfi_startproc
	ldr	x0, [x0, 24]
	ret
	.cfi_endproc
.LFE4018:
	.size	_ZNK8opendnp318BufferedCollectionINS_7IndexedINS_20AnalogOutputDouble64EEEZNS_16CountIndexParser13InvokeCountOfINS_11Group41Var4EEEvRKNS_12HeaderRecordEtRKNS_9NumParserERKN7openpal6RSliceERNS_12IAPDUHandlerEEUlRSE_jE_E5CountEv, .-_ZNK8opendnp318BufferedCollectionINS_7IndexedINS_20AnalogOutputDouble64EEEZNS_16CountIndexParser13InvokeCountOfINS_11Group41Var4EEEvRKNS_12HeaderRecordEtRKNS_9NumParserERKN7openpal6RSliceERNS_12IAPDUHandlerEEUlRSE_jE_E5CountEv
	.section	.text._ZNK8opendnp318BufferedCollectionINS_7IndexedINS_19AnalogOutputFloat32EEEZNS_16CountIndexParser13InvokeCountOfINS_11Group41Var3EEEvRKNS_12HeaderRecordEtRKNS_9NumParserERKN7openpal6RSliceERNS_12IAPDUHandlerEEUlRSE_jE_E5CountEv,"axG",@progbits,_ZNK8opendnp318BufferedCollectionINS_7IndexedINS_19AnalogOutputFloat32EEEZNS_16CountIndexParser13InvokeCountOfINS_11Group41Var3EEEvRKNS_12HeaderRecordEtRKNS_9NumParserERKN7openpal6RSliceERNS_12IAPDUHandlerEEUlRSE_jE_E5CountEv,comdat
	.align	2
	.p2align 4,,11
	.weak	_ZNK8opendnp318BufferedCollectionINS_7IndexedINS_19AnalogOutputFloat32EEEZNS_16CountIndexParser13InvokeCountOfINS_11Group41Var3EEEvRKNS_12HeaderRecordEtRKNS_9NumParserERKN7openpal6RSliceERNS_12IAPDUHandlerEEUlRSE_jE_E5CountEv
	.type	_ZNK8opendnp318BufferedCollectionINS_7IndexedINS_19AnalogOutputFloat32EEEZNS_16CountIndexParser13InvokeCountOfINS_11Group41Var3EEEvRKNS_12HeaderRecordEtRKNS_9NumParserERKN7openpal6RSliceERNS_12IAPDUHandlerEEUlRSE_jE_E5CountEv, %function
_ZNK8opendnp318BufferedCollectionINS_7IndexedINS_19AnalogOutputFloat32EEEZNS_16CountIndexParser13InvokeCountOfINS_11Group41Var3EEEvRKNS_12HeaderRecordEtRKNS_9NumParserERKN7openpal6RSliceERNS_12IAPDUHandlerEEUlRSE_jE_E5CountEv:
.LFB4020:
	.cfi_startproc
	ldr	x0, [x0, 24]
	ret
	.cfi_endproc
.LFE4020:
	.size	_ZNK8opendnp318BufferedCollectionINS_7IndexedINS_19AnalogOutputFloat32EEEZNS_16CountIndexParser13InvokeCountOfINS_11Group41Var3EEEvRKNS_12HeaderRecordEtRKNS_9NumParserERKN7openpal6RSliceERNS_12IAPDUHandlerEEUlRSE_jE_E5CountEv, .-_ZNK8opendnp318BufferedCollectionINS_7IndexedINS_19AnalogOutputFloat32EEEZNS_16CountIndexParser13InvokeCountOfINS_11Group41Var3EEEvRKNS_12HeaderRecordEtRKNS_9NumParserERKN7openpal6RSliceERNS_12IAPDUHandlerEEUlRSE_jE_E5CountEv
	.section	.text._ZNK8opendnp318BufferedCollectionINS_7IndexedINS_17AnalogOutputInt16EEEZNS_16CountIndexParser13InvokeCountOfINS_11Group41Var2EEEvRKNS_12HeaderRecordEtRKNS_9NumParserERKN7openpal6RSliceERNS_12IAPDUHandlerEEUlRSE_jE_E5CountEv,"axG",@progbits,_ZNK8opendnp318BufferedCollectionINS_7IndexedINS_17AnalogOutputInt16EEEZNS_16CountIndexParser13InvokeCountOfINS_11Group41Var2EEEvRKNS_12HeaderRecordEtRKNS_9NumParserERKN7openpal6RSliceERNS_12IAPDUHandlerEEUlRSE_jE_E5CountEv,comdat
	.align	2
	.p2align 4,,11
	.weak	_ZNK8opendnp318BufferedCollectionINS_7IndexedINS_17AnalogOutputInt16EEEZNS_16CountIndexParser13InvokeCountOfINS_11Group41Var2EEEvRKNS_12HeaderRecordEtRKNS_9NumParserERKN7openpal6RSliceERNS_12IAPDUHandlerEEUlRSE_jE_E5CountEv
	.type	_ZNK8opendnp318BufferedCollectionINS_7IndexedINS_17AnalogOutputInt16EEEZNS_16CountIndexParser13InvokeCountOfINS_11Group41Var2EEEvRKNS_12HeaderRecordEtRKNS_9NumParserERKN7openpal6RSliceERNS_12IAPDUHandlerEEUlRSE_jE_E5CountEv, %function
_ZNK8opendnp318BufferedCollectionINS_7IndexedINS_17AnalogOutputInt16EEEZNS_16CountIndexParser13InvokeCountOfINS_11Group41Var2EEEvRKNS_12HeaderRecordEtRKNS_9NumParserERKN7openpal6RSliceERNS_12IAPDUHandlerEEUlRSE_jE_E5CountEv:
.LFB4022:
	.cfi_startproc
	ldr	x0, [x0, 24]
	ret
	.cfi_endproc
.LFE4022:
	.size	_ZNK8opendnp318BufferedCollectionINS_7IndexedINS_17AnalogOutputInt16EEEZNS_16CountIndexParser13InvokeCountOfINS_11Group41Var2EEEvRKNS_12HeaderRecordEtRKNS_9NumParserERKN7openpal6RSliceERNS_12IAPDUHandlerEEUlRSE_jE_E5CountEv, .-_ZNK8opendnp318BufferedCollectionINS_7IndexedINS_17AnalogOutputInt16EEEZNS_16CountIndexParser13InvokeCountOfINS_11Group41Var2EEEvRKNS_12HeaderRecordEtRKNS_9NumParserERKN7openpal6RSliceERNS_12IAPDUHandlerEEUlRSE_jE_E5CountEv
	.section	.text._ZNK8opendnp318BufferedCollectionINS_7IndexedINS_17AnalogOutputInt32EEEZNS_16CountIndexParser13InvokeCountOfINS_11Group41Var1EEEvRKNS_12HeaderRecordEtRKNS_9NumParserERKN7openpal6RSliceERNS_12IAPDUHandlerEEUlRSE_jE_E5CountEv,"axG",@progbits,_ZNK8opendnp318BufferedCollectionINS_7IndexedINS_17AnalogOutputInt32EEEZNS_16CountIndexParser13InvokeCountOfINS_11Group41Var1EEEvRKNS_12HeaderRecordEtRKNS_9NumParserERKN7openpal6RSliceERNS_12IAPDUHandlerEEUlRSE_jE_E5CountEv,comdat
	.align	2
	.p2align 4,,11
	.weak	_ZNK8opendnp318BufferedCollectionINS_7IndexedINS_17AnalogOutputInt32EEEZNS_16CountIndexParser13InvokeCountOfINS_11Group41Var1EEEvRKNS_12HeaderRecordEtRKNS_9NumParserERKN7openpal6RSliceERNS_12IAPDUHandlerEEUlRSE_jE_E5CountEv
	.type	_ZNK8opendnp318BufferedCollectionINS_7IndexedINS_17AnalogOutputInt32EEEZNS_16CountIndexParser13InvokeCountOfINS_11Group41Var1EEEvRKNS_12HeaderRecordEtRKNS_9NumParserERKN7openpal6RSliceERNS_12IAPDUHandlerEEUlRSE_jE_E5CountEv, %function
_ZNK8opendnp318BufferedCollectionINS_7IndexedINS_17AnalogOutputInt32EEEZNS_16CountIndexParser13InvokeCountOfINS_11Group41Var1EEEvRKNS_12HeaderRecordEtRKNS_9NumParserERKN7openpal6RSliceERNS_12IAPDUHandlerEEUlRSE_jE_E5CountEv:
.LFB4024:
	.cfi_startproc
	ldr	x0, [x0, 24]
	ret
	.cfi_endproc
.LFE4024:
	.size	_ZNK8opendnp318BufferedCollectionINS_7IndexedINS_17AnalogOutputInt32EEEZNS_16CountIndexParser13InvokeCountOfINS_11Group41Var1EEEvRKNS_12HeaderRecordEtRKNS_9NumParserERKN7openpal6RSliceERNS_12IAPDUHandlerEEUlRSE_jE_E5CountEv, .-_ZNK8opendnp318BufferedCollectionINS_7IndexedINS_17AnalogOutputInt32EEEZNS_16CountIndexParser13InvokeCountOfINS_11Group41Var1EEEvRKNS_12HeaderRecordEtRKNS_9NumParserERKN7openpal6RSliceERNS_12IAPDUHandlerEEUlRSE_jE_E5CountEv
	.section	.text._ZNK8opendnp318BufferedCollectionINS_7IndexedINS_6AnalogEEEZNS_16CountIndexParser13InvokeCountOfINS_11Group32Var8EEEvRKNS_12HeaderRecordEtRKNS_9NumParserERKN7openpal6RSliceERNS_12IAPDUHandlerEEUlRSE_jE_E5CountEv,"axG",@progbits,_ZNK8opendnp318BufferedCollectionINS_7IndexedINS_6AnalogEEEZNS_16CountIndexParser13InvokeCountOfINS_11Group32Var8EEEvRKNS_12HeaderRecordEtRKNS_9NumParserERKN7openpal6RSliceERNS_12IAPDUHandlerEEUlRSE_jE_E5CountEv,comdat
	.align	2
	.p2align 4,,11
	.weak	_ZNK8opendnp318BufferedCollectionINS_7IndexedINS_6AnalogEEEZNS_16CountIndexParser13InvokeCountOfINS_11Group32Var8EEEvRKNS_12HeaderRecordEtRKNS_9NumParserERKN7openpal6RSliceERNS_12IAPDUHandlerEEUlRSE_jE_E5CountEv
	.type	_ZNK8opendnp318BufferedCollectionINS_7IndexedINS_6AnalogEEEZNS_16CountIndexParser13InvokeCountOfINS_11Group32Var8EEEvRKNS_12HeaderRecordEtRKNS_9NumParserERKN7openpal6RSliceERNS_12IAPDUHandlerEEUlRSE_jE_E5CountEv, %function
_ZNK8opendnp318BufferedCollectionINS_7IndexedINS_6AnalogEEEZNS_16CountIndexParser13InvokeCountOfINS_11Group32Var8EEEvRKNS_12HeaderRecordEtRKNS_9NumParserERKN7openpal6RSliceERNS_12IAPDUHandlerEEUlRSE_jE_E5CountEv:
.LFB4026:
	.cfi_startproc
	ldr	x0, [x0, 24]
	ret
	.cfi_endproc
.LFE4026:
	.size	_ZNK8opendnp318BufferedCollectionINS_7IndexedINS_6AnalogEEEZNS_16CountIndexParser13InvokeCountOfINS_11Group32Var8EEEvRKNS_12HeaderRecordEtRKNS_9NumParserERKN7openpal6RSliceERNS_12IAPDUHandlerEEUlRSE_jE_E5CountEv, .-_ZNK8opendnp318BufferedCollectionINS_7IndexedINS_6AnalogEEEZNS_16CountIndexParser13InvokeCountOfINS_11Group32Var8EEEvRKNS_12HeaderRecordEtRKNS_9NumParserERKN7openpal6RSliceERNS_12IAPDUHandlerEEUlRSE_jE_E5CountEv
	.section	.text._ZNK8opendnp318BufferedCollectionINS_7IndexedINS_6AnalogEEEZNS_16CountIndexParser13InvokeCountOfINS_11Group32Var7EEEvRKNS_12HeaderRecordEtRKNS_9NumParserERKN7openpal6RSliceERNS_12IAPDUHandlerEEUlRSE_jE_E5CountEv,"axG",@progbits,_ZNK8opendnp318BufferedCollectionINS_7IndexedINS_6AnalogEEEZNS_16CountIndexParser13InvokeCountOfINS_11Group32Var7EEEvRKNS_12HeaderRecordEtRKNS_9NumParserERKN7openpal6RSliceERNS_12IAPDUHandlerEEUlRSE_jE_E5CountEv,comdat
	.align	2
	.p2align 4,,11
	.weak	_ZNK8opendnp318BufferedCollectionINS_7IndexedINS_6AnalogEEEZNS_16CountIndexParser13InvokeCountOfINS_11Group32Var7EEEvRKNS_12HeaderRecordEtRKNS_9NumParserERKN7openpal6RSliceERNS_12IAPDUHandlerEEUlRSE_jE_E5CountEv
	.type	_ZNK8opendnp318BufferedCollectionINS_7IndexedINS_6AnalogEEEZNS_16CountIndexParser13InvokeCountOfINS_11Group32Var7EEEvRKNS_12HeaderRecordEtRKNS_9NumParserERKN7openpal6RSliceERNS_12IAPDUHandlerEEUlRSE_jE_E5CountEv, %function
_ZNK8opendnp318BufferedCollectionINS_7IndexedINS_6AnalogEEEZNS_16CountIndexParser13InvokeCountOfINS_11Group32Var7EEEvRKNS_12HeaderRecordEtRKNS_9NumParserERKN7openpal6RSliceERNS_12IAPDUHandlerEEUlRSE_jE_E5CountEv:
.LFB4028:
	.cfi_startproc
	ldr	x0, [x0, 24]
	ret
	.cfi_endproc
.LFE4028:
	.size	_ZNK8opendnp318BufferedCollectionINS_7IndexedINS_6AnalogEEEZNS_16CountIndexParser13InvokeCountOfINS_11Group32Var7EEEvRKNS_12HeaderRecordEtRKNS_9NumParserERKN7openpal6RSliceERNS_12IAPDUHandlerEEUlRSE_jE_E5CountEv, .-_ZNK8opendnp318BufferedCollectionINS_7IndexedINS_6AnalogEEEZNS_16CountIndexParser13InvokeCountOfINS_11Group32Var7EEEvRKNS_12HeaderRecordEtRKNS_9NumParserERKN7openpal6RSliceERNS_12IAPDUHandlerEEUlRSE_jE_E5CountEv
	.section	.text._ZNK8opendnp318BufferedCollectionINS_7IndexedINS_6AnalogEEEZNS_16CountIndexParser13InvokeCountOfINS_11Group32Var6EEEvRKNS_12HeaderRecordEtRKNS_9NumParserERKN7openpal6RSliceERNS_12IAPDUHandlerEEUlRSE_jE_E5CountEv,"axG",@progbits,_ZNK8opendnp318BufferedCollectionINS_7IndexedINS_6AnalogEEEZNS_16CountIndexParser13InvokeCountOfINS_11Group32Var6EEEvRKNS_12HeaderRecordEtRKNS_9NumParserERKN7openpal6RSliceERNS_12IAPDUHandlerEEUlRSE_jE_E5CountEv,comdat
	.align	2
	.p2align 4,,11
	.weak	_ZNK8opendnp318BufferedCollectionINS_7IndexedINS_6AnalogEEEZNS_16CountIndexParser13InvokeCountOfINS_11Group32Var6EEEvRKNS_12HeaderRecordEtRKNS_9NumParserERKN7openpal6RSliceERNS_12IAPDUHandlerEEUlRSE_jE_E5CountEv
	.type	_ZNK8opendnp318BufferedCollectionINS_7IndexedINS_6AnalogEEEZNS_16CountIndexParser13InvokeCountOfINS_11Group32Var6EEEvRKNS_12HeaderRecordEtRKNS_9NumParserERKN7openpal6RSliceERNS_12IAPDUHandlerEEUlRSE_jE_E5CountEv, %function
_ZNK8opendnp318BufferedCollectionINS_7IndexedINS_6AnalogEEEZNS_16CountIndexParser13InvokeCountOfINS_11Group32Var6EEEvRKNS_12HeaderRecordEtRKNS_9NumParserERKN7openpal6RSliceERNS_12IAPDUHandlerEEUlRSE_jE_E5CountEv:
.LFB4030:
	.cfi_startproc
	ldr	x0, [x0, 24]
	ret
	.cfi_endproc
.LFE4030:
	.size	_ZNK8opendnp318BufferedCollectionINS_7IndexedINS_6AnalogEEEZNS_16CountIndexParser13InvokeCountOfINS_11Group32Var6EEEvRKNS_12HeaderRecordEtRKNS_9NumParserERKN7openpal6RSliceERNS_12IAPDUHandlerEEUlRSE_jE_E5CountEv, .-_ZNK8opendnp318BufferedCollectionINS_7IndexedINS_6AnalogEEEZNS_16CountIndexParser13InvokeCountOfINS_11Group32Var6EEEvRKNS_12HeaderRecordEtRKNS_9NumParserERKN7openpal6RSliceERNS_12IAPDUHandlerEEUlRSE_jE_E5CountEv
	.section	.text._ZNK8opendnp318BufferedCollectionINS_7IndexedINS_6AnalogEEEZNS_16CountIndexParser13InvokeCountOfINS_11Group32Var5EEEvRKNS_12HeaderRecordEtRKNS_9NumParserERKN7openpal6RSliceERNS_12IAPDUHandlerEEUlRSE_jE_E5CountEv,"axG",@progbits,_ZNK8opendnp318BufferedCollectionINS_7IndexedINS_6AnalogEEEZNS_16CountIndexParser13InvokeCountOfINS_11Group32Var5EEEvRKNS_12HeaderRecordEtRKNS_9NumParserERKN7openpal6RSliceERNS_12IAPDUHandlerEEUlRSE_jE_E5CountEv,comdat
	.align	2
	.p2align 4,,11
	.weak	_ZNK8opendnp318BufferedCollectionINS_7IndexedINS_6AnalogEEEZNS_16CountIndexParser13InvokeCountOfINS_11Group32Var5EEEvRKNS_12HeaderRecordEtRKNS_9NumParserERKN7openpal6RSliceERNS_12IAPDUHandlerEEUlRSE_jE_E5CountEv
	.type	_ZNK8opendnp318BufferedCollectionINS_7IndexedINS_6AnalogEEEZNS_16CountIndexParser13InvokeCountOfINS_11Group32Var5EEEvRKNS_12HeaderRecordEtRKNS_9NumParserERKN7openpal6RSliceERNS_12IAPDUHandlerEEUlRSE_jE_E5CountEv, %function
_ZNK8opendnp318BufferedCollectionINS_7IndexedINS_6AnalogEEEZNS_16CountIndexParser13InvokeCountOfINS_11Group32Var5EEEvRKNS_12HeaderRecordEtRKNS_9NumParserERKN7openpal6RSliceERNS_12IAPDUHandlerEEUlRSE_jE_E5CountEv:
.LFB4032:
	.cfi_startproc
	ldr	x0, [x0, 24]
	ret
	.cfi_endproc
.LFE4032:
	.size	_ZNK8opendnp318BufferedCollectionINS_7IndexedINS_6AnalogEEEZNS_16CountIndexParser13InvokeCountOfINS_11Group32Var5EEEvRKNS_12HeaderRecordEtRKNS_9NumParserERKN7openpal6RSliceERNS_12IAPDUHandlerEEUlRSE_jE_E5CountEv, .-_ZNK8opendnp318BufferedCollectionINS_7IndexedINS_6AnalogEEEZNS_16CountIndexParser13InvokeCountOfINS_11Group32Var5EEEvRKNS_12HeaderRecordEtRKNS_9NumParserERKN7openpal6RSliceERNS_12IAPDUHandlerEEUlRSE_jE_E5CountEv
	.section	.text._ZNK8opendnp318BufferedCollectionINS_7IndexedINS_6AnalogEEEZNS_16CountIndexParser13InvokeCountOfINS_11Group32Var4EEEvRKNS_12HeaderRecordEtRKNS_9NumParserERKN7openpal6RSliceERNS_12IAPDUHandlerEEUlRSE_jE_E5CountEv,"axG",@progbits,_ZNK8opendnp318BufferedCollectionINS_7IndexedINS_6AnalogEEEZNS_16CountIndexParser13InvokeCountOfINS_11Group32Var4EEEvRKNS_12HeaderRecordEtRKNS_9NumParserERKN7openpal6RSliceERNS_12IAPDUHandlerEEUlRSE_jE_E5CountEv,comdat
	.align	2
	.p2align 4,,11
	.weak	_ZNK8opendnp318BufferedCollectionINS_7IndexedINS_6AnalogEEEZNS_16CountIndexParser13InvokeCountOfINS_11Group32Var4EEEvRKNS_12HeaderRecordEtRKNS_9NumParserERKN7openpal6RSliceERNS_12IAPDUHandlerEEUlRSE_jE_E5CountEv
	.type	_ZNK8opendnp318BufferedCollectionINS_7IndexedINS_6AnalogEEEZNS_16CountIndexParser13InvokeCountOfINS_11Group32Var4EEEvRKNS_12HeaderRecordEtRKNS_9NumParserERKN7openpal6RSliceERNS_12IAPDUHandlerEEUlRSE_jE_E5CountEv, %function
_ZNK8opendnp318BufferedCollectionINS_7IndexedINS_6AnalogEEEZNS_16CountIndexParser13InvokeCountOfINS_11Group32Var4EEEvRKNS_12HeaderRecordEtRKNS_9NumParserERKN7openpal6RSliceERNS_12IAPDUHandlerEEUlRSE_jE_E5CountEv:
.LFB4034:
	.cfi_startproc
	ldr	x0, [x0, 24]
	ret
	.cfi_endproc
.LFE4034:
	.size	_ZNK8opendnp318BufferedCollectionINS_7IndexedINS_6AnalogEEEZNS_16CountIndexParser13InvokeCountOfINS_11Group32Var4EEEvRKNS_12HeaderRecordEtRKNS_9NumParserERKN7openpal6RSliceERNS_12IAPDUHandlerEEUlRSE_jE_E5CountEv, .-_ZNK8opendnp318BufferedCollectionINS_7IndexedINS_6AnalogEEEZNS_16CountIndexParser13InvokeCountOfINS_11Group32Var4EEEvRKNS_12HeaderRecordEtRKNS_9NumParserERKN7openpal6RSliceERNS_12IAPDUHandlerEEUlRSE_jE_E5CountEv
	.section	.text._ZNK8opendnp318BufferedCollectionINS_7IndexedINS_6AnalogEEEZNS_16CountIndexParser13InvokeCountOfINS_11Group32Var3EEEvRKNS_12HeaderRecordEtRKNS_9NumParserERKN7openpal6RSliceERNS_12IAPDUHandlerEEUlRSE_jE_E5CountEv,"axG",@progbits,_ZNK8opendnp318BufferedCollectionINS_7IndexedINS_6AnalogEEEZNS_16CountIndexParser13InvokeCountOfINS_11Group32Var3EEEvRKNS_12HeaderRecordEtRKNS_9NumParserERKN7openpal6RSliceERNS_12IAPDUHandlerEEUlRSE_jE_E5CountEv,comdat
	.align	2
	.p2align 4,,11
	.weak	_ZNK8opendnp318BufferedCollectionINS_7IndexedINS_6AnalogEEEZNS_16CountIndexParser13InvokeCountOfINS_11Group32Var3EEEvRKNS_12HeaderRecordEtRKNS_9NumParserERKN7openpal6RSliceERNS_12IAPDUHandlerEEUlRSE_jE_E5CountEv
	.type	_ZNK8opendnp318BufferedCollectionINS_7IndexedINS_6AnalogEEEZNS_16CountIndexParser13InvokeCountOfINS_11Group32Var3EEEvRKNS_12HeaderRecordEtRKNS_9NumParserERKN7openpal6RSliceERNS_12IAPDUHandlerEEUlRSE_jE_E5CountEv, %function
_ZNK8opendnp318BufferedCollectionINS_7IndexedINS_6AnalogEEEZNS_16CountIndexParser13InvokeCountOfINS_11Group32Var3EEEvRKNS_12HeaderRecordEtRKNS_9NumParserERKN7openpal6RSliceERNS_12IAPDUHandlerEEUlRSE_jE_E5CountEv:
.LFB4036:
	.cfi_startproc
	ldr	x0, [x0, 24]
	ret
	.cfi_endproc
.LFE4036:
	.size	_ZNK8opendnp318BufferedCollectionINS_7IndexedINS_6AnalogEEEZNS_16CountIndexParser13InvokeCountOfINS_11Group32Var3EEEvRKNS_12HeaderRecordEtRKNS_9NumParserERKN7openpal6RSliceERNS_12IAPDUHandlerEEUlRSE_jE_E5CountEv, .-_ZNK8opendnp318BufferedCollectionINS_7IndexedINS_6AnalogEEEZNS_16CountIndexParser13InvokeCountOfINS_11Group32Var3EEEvRKNS_12HeaderRecordEtRKNS_9NumParserERKN7openpal6RSliceERNS_12IAPDUHandlerEEUlRSE_jE_E5CountEv
	.section	.text._ZNK8opendnp318BufferedCollectionINS_7IndexedINS_6AnalogEEEZNS_16CountIndexParser13InvokeCountOfINS_11Group32Var2EEEvRKNS_12HeaderRecordEtRKNS_9NumParserERKN7openpal6RSliceERNS_12IAPDUHandlerEEUlRSE_jE_E5CountEv,"axG",@progbits,_ZNK8opendnp318BufferedCollectionINS_7IndexedINS_6AnalogEEEZNS_16CountIndexParser13InvokeCountOfINS_11Group32Var2EEEvRKNS_12HeaderRecordEtRKNS_9NumParserERKN7openpal6RSliceERNS_12IAPDUHandlerEEUlRSE_jE_E5CountEv,comdat
	.align	2
	.p2align 4,,11
	.weak	_ZNK8opendnp318BufferedCollectionINS_7IndexedINS_6AnalogEEEZNS_16CountIndexParser13InvokeCountOfINS_11Group32Var2EEEvRKNS_12HeaderRecordEtRKNS_9NumParserERKN7openpal6RSliceERNS_12IAPDUHandlerEEUlRSE_jE_E5CountEv
	.type	_ZNK8opendnp318BufferedCollectionINS_7IndexedINS_6AnalogEEEZNS_16CountIndexParser13InvokeCountOfINS_11Group32Var2EEEvRKNS_12HeaderRecordEtRKNS_9NumParserERKN7openpal6RSliceERNS_12IAPDUHandlerEEUlRSE_jE_E5CountEv, %function
_ZNK8opendnp318BufferedCollectionINS_7IndexedINS_6AnalogEEEZNS_16CountIndexParser13InvokeCountOfINS_11Group32Var2EEEvRKNS_12HeaderRecordEtRKNS_9NumParserERKN7openpal6RSliceERNS_12IAPDUHandlerEEUlRSE_jE_E5CountEv:
.LFB4038:
	.cfi_startproc
	ldr	x0, [x0, 24]
	ret
	.cfi_endproc
.LFE4038:
	.size	_ZNK8opendnp318BufferedCollectionINS_7IndexedINS_6AnalogEEEZNS_16CountIndexParser13InvokeCountOfINS_11Group32Var2EEEvRKNS_12HeaderRecordEtRKNS_9NumParserERKN7openpal6RSliceERNS_12IAPDUHandlerEEUlRSE_jE_E5CountEv, .-_ZNK8opendnp318BufferedCollectionINS_7IndexedINS_6AnalogEEEZNS_16CountIndexParser13InvokeCountOfINS_11Group32Var2EEEvRKNS_12HeaderRecordEtRKNS_9NumParserERKN7openpal6RSliceERNS_12IAPDUHandlerEEUlRSE_jE_E5CountEv
	.section	.text._ZNK8opendnp318BufferedCollectionINS_7IndexedINS_6AnalogEEEZNS_16CountIndexParser13InvokeCountOfINS_11Group32Var1EEEvRKNS_12HeaderRecordEtRKNS_9NumParserERKN7openpal6RSliceERNS_12IAPDUHandlerEEUlRSE_jE_E5CountEv,"axG",@progbits,_ZNK8opendnp318BufferedCollectionINS_7IndexedINS_6AnalogEEEZNS_16CountIndexParser13InvokeCountOfINS_11Group32Var1EEEvRKNS_12HeaderRecordEtRKNS_9NumParserERKN7openpal6RSliceERNS_12IAPDUHandlerEEUlRSE_jE_E5CountEv,comdat
	.align	2
	.p2align 4,,11
	.weak	_ZNK8opendnp318BufferedCollectionINS_7IndexedINS_6AnalogEEEZNS_16CountIndexParser13InvokeCountOfINS_11Group32Var1EEEvRKNS_12HeaderRecordEtRKNS_9NumParserERKN7openpal6RSliceERNS_12IAPDUHandlerEEUlRSE_jE_E5CountEv
	.type	_ZNK8opendnp318BufferedCollectionINS_7IndexedINS_6AnalogEEEZNS_16CountIndexParser13InvokeCountOfINS_11Group32Var1EEEvRKNS_12HeaderRecordEtRKNS_9NumParserERKN7openpal6RSliceERNS_12IAPDUHandlerEEUlRSE_jE_E5CountEv, %function
_ZNK8opendnp318BufferedCollectionINS_7IndexedINS_6AnalogEEEZNS_16CountIndexParser13InvokeCountOfINS_11Group32Var1EEEvRKNS_12HeaderRecordEtRKNS_9NumParserERKN7openpal6RSliceERNS_12IAPDUHandlerEEUlRSE_jE_E5CountEv:
.LFB4040:
	.cfi_startproc
	ldr	x0, [x0, 24]
	ret
	.cfi_endproc
.LFE4040:
	.size	_ZNK8opendnp318BufferedCollectionINS_7IndexedINS_6AnalogEEEZNS_16CountIndexParser13InvokeCountOfINS_11Group32Var1EEEvRKNS_12HeaderRecordEtRKNS_9NumParserERKN7openpal6RSliceERNS_12IAPDUHandlerEEUlRSE_jE_E5CountEv, .-_ZNK8opendnp318BufferedCollectionINS_7IndexedINS_6AnalogEEEZNS_16CountIndexParser13InvokeCountOfINS_11Group32Var1EEEvRKNS_12HeaderRecordEtRKNS_9NumParserERKN7openpal6RSliceERNS_12IAPDUHandlerEEUlRSE_jE_E5CountEv
	.section	.text._ZNK8opendnp318BufferedCollectionINS_7IndexedINS_13FrozenCounterEEEZNS_16CountIndexParser13InvokeCountOfINS_11Group23Var6EEEvRKNS_12HeaderRecordEtRKNS_9NumParserERKN7openpal6RSliceERNS_12IAPDUHandlerEEUlRSE_jE_E5CountEv,"axG",@progbits,_ZNK8opendnp318BufferedCollectionINS_7IndexedINS_13FrozenCounterEEEZNS_16CountIndexParser13InvokeCountOfINS_11Group23Var6EEEvRKNS_12HeaderRecordEtRKNS_9NumParserERKN7openpal6RSliceERNS_12IAPDUHandlerEEUlRSE_jE_E5CountEv,comdat
	.align	2
	.p2align 4,,11
	.weak	_ZNK8opendnp318BufferedCollectionINS_7IndexedINS_13FrozenCounterEEEZNS_16CountIndexParser13InvokeCountOfINS_11Group23Var6EEEvRKNS_12HeaderRecordEtRKNS_9NumParserERKN7openpal6RSliceERNS_12IAPDUHandlerEEUlRSE_jE_E5CountEv
	.type	_ZNK8opendnp318BufferedCollectionINS_7IndexedINS_13FrozenCounterEEEZNS_16CountIndexParser13InvokeCountOfINS_11Group23Var6EEEvRKNS_12HeaderRecordEtRKNS_9NumParserERKN7openpal6RSliceERNS_12IAPDUHandlerEEUlRSE_jE_E5CountEv, %function
_ZNK8opendnp318BufferedCollectionINS_7IndexedINS_13FrozenCounterEEEZNS_16CountIndexParser13InvokeCountOfINS_11Group23Var6EEEvRKNS_12HeaderRecordEtRKNS_9NumParserERKN7openpal6RSliceERNS_12IAPDUHandlerEEUlRSE_jE_E5CountEv:
.LFB4042:
	.cfi_startproc
	ldr	x0, [x0, 24]
	ret
	.cfi_endproc
.LFE4042:
	.size	_ZNK8opendnp318BufferedCollectionINS_7IndexedINS_13FrozenCounterEEEZNS_16CountIndexParser13InvokeCountOfINS_11Group23Var6EEEvRKNS_12HeaderRecordEtRKNS_9NumParserERKN7openpal6RSliceERNS_12IAPDUHandlerEEUlRSE_jE_E5CountEv, .-_ZNK8opendnp318BufferedCollectionINS_7IndexedINS_13FrozenCounterEEEZNS_16CountIndexParser13InvokeCountOfINS_11Group23Var6EEEvRKNS_12HeaderRecordEtRKNS_9NumParserERKN7openpal6RSliceERNS_12IAPDUHandlerEEUlRSE_jE_E5CountEv
	.section	.text._ZNK8opendnp318BufferedCollectionINS_7IndexedINS_13FrozenCounterEEEZNS_16CountIndexParser13InvokeCountOfINS_11Group23Var5EEEvRKNS_12HeaderRecordEtRKNS_9NumParserERKN7openpal6RSliceERNS_12IAPDUHandlerEEUlRSE_jE_E5CountEv,"axG",@progbits,_ZNK8opendnp318BufferedCollectionINS_7IndexedINS_13FrozenCounterEEEZNS_16CountIndexParser13InvokeCountOfINS_11Group23Var5EEEvRKNS_12HeaderRecordEtRKNS_9NumParserERKN7openpal6RSliceERNS_12IAPDUHandlerEEUlRSE_jE_E5CountEv,comdat
	.align	2
	.p2align 4,,11
	.weak	_ZNK8opendnp318BufferedCollectionINS_7IndexedINS_13FrozenCounterEEEZNS_16CountIndexParser13InvokeCountOfINS_11Group23Var5EEEvRKNS_12HeaderRecordEtRKNS_9NumParserERKN7openpal6RSliceERNS_12IAPDUHandlerEEUlRSE_jE_E5CountEv
	.type	_ZNK8opendnp318BufferedCollectionINS_7IndexedINS_13FrozenCounterEEEZNS_16CountIndexParser13InvokeCountOfINS_11Group23Var5EEEvRKNS_12HeaderRecordEtRKNS_9NumParserERKN7openpal6RSliceERNS_12IAPDUHandlerEEUlRSE_jE_E5CountEv, %function
_ZNK8opendnp318BufferedCollectionINS_7IndexedINS_13FrozenCounterEEEZNS_16CountIndexParser13InvokeCountOfINS_11Group23Var5EEEvRKNS_12HeaderRecordEtRKNS_9NumParserERKN7openpal6RSliceERNS_12IAPDUHandlerEEUlRSE_jE_E5CountEv:
.LFB4044:
	.cfi_startproc
	ldr	x0, [x0, 24]
	ret
	.cfi_endproc
.LFE4044:
	.size	_ZNK8opendnp318BufferedCollectionINS_7IndexedINS_13FrozenCounterEEEZNS_16CountIndexParser13InvokeCountOfINS_11Group23Var5EEEvRKNS_12HeaderRecordEtRKNS_9NumParserERKN7openpal6RSliceERNS_12IAPDUHandlerEEUlRSE_jE_E5CountEv, .-_ZNK8opendnp318BufferedCollectionINS_7IndexedINS_13FrozenCounterEEEZNS_16CountIndexParser13InvokeCountOfINS_11Group23Var5EEEvRKNS_12HeaderRecordEtRKNS_9NumParserERKN7openpal6RSliceERNS_12IAPDUHandlerEEUlRSE_jE_E5CountEv
	.section	.text._ZNK8opendnp318BufferedCollectionINS_7IndexedINS_13FrozenCounterEEEZNS_16CountIndexParser13InvokeCountOfINS_11Group23Var2EEEvRKNS_12HeaderRecordEtRKNS_9NumParserERKN7openpal6RSliceERNS_12IAPDUHandlerEEUlRSE_jE_E5CountEv,"axG",@progbits,_ZNK8opendnp318BufferedCollectionINS_7IndexedINS_13FrozenCounterEEEZNS_16CountIndexParser13InvokeCountOfINS_11Group23Var2EEEvRKNS_12HeaderRecordEtRKNS_9NumParserERKN7openpal6RSliceERNS_12IAPDUHandlerEEUlRSE_jE_E5CountEv,comdat
	.align	2
	.p2align 4,,11
	.weak	_ZNK8opendnp318BufferedCollectionINS_7IndexedINS_13FrozenCounterEEEZNS_16CountIndexParser13InvokeCountOfINS_11Group23Var2EEEvRKNS_12HeaderRecordEtRKNS_9NumParserERKN7openpal6RSliceERNS_12IAPDUHandlerEEUlRSE_jE_E5CountEv
	.type	_ZNK8opendnp318BufferedCollectionINS_7IndexedINS_13FrozenCounterEEEZNS_16CountIndexParser13InvokeCountOfINS_11Group23Var2EEEvRKNS_12HeaderRecordEtRKNS_9NumParserERKN7openpal6RSliceERNS_12IAPDUHandlerEEUlRSE_jE_E5CountEv, %function
_ZNK8opendnp318BufferedCollectionINS_7IndexedINS_13FrozenCounterEEEZNS_16CountIndexParser13InvokeCountOfINS_11Group23Var2EEEvRKNS_12HeaderRecordEtRKNS_9NumParserERKN7openpal6RSliceERNS_12IAPDUHandlerEEUlRSE_jE_E5CountEv:
.LFB4046:
	.cfi_startproc
	ldr	x0, [x0, 24]
	ret
	.cfi_endproc
.LFE4046:
	.size	_ZNK8opendnp318BufferedCollectionINS_7IndexedINS_13FrozenCounterEEEZNS_16CountIndexParser13InvokeCountOfINS_11Group23Var2EEEvRKNS_12HeaderRecordEtRKNS_9NumParserERKN7openpal6RSliceERNS_12IAPDUHandlerEEUlRSE_jE_E5CountEv, .-_ZNK8opendnp318BufferedCollectionINS_7IndexedINS_13FrozenCounterEEEZNS_16CountIndexParser13InvokeCountOfINS_11Group23Var2EEEvRKNS_12HeaderRecordEtRKNS_9NumParserERKN7openpal6RSliceERNS_12IAPDUHandlerEEUlRSE_jE_E5CountEv
	.section	.text._ZNK8opendnp318BufferedCollectionINS_7IndexedINS_13FrozenCounterEEEZNS_16CountIndexParser13InvokeCountOfINS_11Group23Var1EEEvRKNS_12HeaderRecordEtRKNS_9NumParserERKN7openpal6RSliceERNS_12IAPDUHandlerEEUlRSE_jE_E5CountEv,"axG",@progbits,_ZNK8opendnp318BufferedCollectionINS_7IndexedINS_13FrozenCounterEEEZNS_16CountIndexParser13InvokeCountOfINS_11Group23Var1EEEvRKNS_12HeaderRecordEtRKNS_9NumParserERKN7openpal6RSliceERNS_12IAPDUHandlerEEUlRSE_jE_E5CountEv,comdat
	.align	2
	.p2align 4,,11
	.weak	_ZNK8opendnp318BufferedCollectionINS_7IndexedINS_13FrozenCounterEEEZNS_16CountIndexParser13InvokeCountOfINS_11Group23Var1EEEvRKNS_12HeaderRecordEtRKNS_9NumParserERKN7openpal6RSliceERNS_12IAPDUHandlerEEUlRSE_jE_E5CountEv
	.type	_ZNK8opendnp318BufferedCollectionINS_7IndexedINS_13FrozenCounterEEEZNS_16CountIndexParser13InvokeCountOfINS_11Group23Var1EEEvRKNS_12HeaderRecordEtRKNS_9NumParserERKN7openpal6RSliceERNS_12IAPDUHandlerEEUlRSE_jE_E5CountEv, %function
_ZNK8opendnp318BufferedCollectionINS_7IndexedINS_13FrozenCounterEEEZNS_16CountIndexParser13InvokeCountOfINS_11Group23Var1EEEvRKNS_12HeaderRecordEtRKNS_9NumParserERKN7openpal6RSliceERNS_12IAPDUHandlerEEUlRSE_jE_E5CountEv:
.LFB4048:
	.cfi_startproc
	ldr	x0, [x0, 24]
	ret
	.cfi_endproc
.LFE4048:
	.size	_ZNK8opendnp318BufferedCollectionINS_7IndexedINS_13FrozenCounterEEEZNS_16CountIndexParser13InvokeCountOfINS_11Group23Var1EEEvRKNS_12HeaderRecordEtRKNS_9NumParserERKN7openpal6RSliceERNS_12IAPDUHandlerEEUlRSE_jE_E5CountEv, .-_ZNK8opendnp318BufferedCollectionINS_7IndexedINS_13FrozenCounterEEEZNS_16CountIndexParser13InvokeCountOfINS_11Group23Var1EEEvRKNS_12HeaderRecordEtRKNS_9NumParserERKN7openpal6RSliceERNS_12IAPDUHandlerEEUlRSE_jE_E5CountEv
	.section	.text._ZNK8opendnp318BufferedCollectionINS_7IndexedINS_7CounterEEEZNS_16CountIndexParser13InvokeCountOfINS_11Group22Var6EEEvRKNS_12HeaderRecordEtRKNS_9NumParserERKN7openpal6RSliceERNS_12IAPDUHandlerEEUlRSE_jE_E5CountEv,"axG",@progbits,_ZNK8opendnp318BufferedCollectionINS_7IndexedINS_7CounterEEEZNS_16CountIndexParser13InvokeCountOfINS_11Group22Var6EEEvRKNS_12HeaderRecordEtRKNS_9NumParserERKN7openpal6RSliceERNS_12IAPDUHandlerEEUlRSE_jE_E5CountEv,comdat
	.align	2
	.p2align 4,,11
	.weak	_ZNK8opendnp318BufferedCollectionINS_7IndexedINS_7CounterEEEZNS_16CountIndexParser13InvokeCountOfINS_11Group22Var6EEEvRKNS_12HeaderRecordEtRKNS_9NumParserERKN7openpal6RSliceERNS_12IAPDUHandlerEEUlRSE_jE_E5CountEv
	.type	_ZNK8opendnp318BufferedCollectionINS_7IndexedINS_7CounterEEEZNS_16CountIndexParser13InvokeCountOfINS_11Group22Var6EEEvRKNS_12HeaderRecordEtRKNS_9NumParserERKN7openpal6RSliceERNS_12IAPDUHandlerEEUlRSE_jE_E5CountEv, %function
_ZNK8opendnp318BufferedCollectionINS_7IndexedINS_7CounterEEEZNS_16CountIndexParser13InvokeCountOfINS_11Group22Var6EEEvRKNS_12HeaderRecordEtRKNS_9NumParserERKN7openpal6RSliceERNS_12IAPDUHandlerEEUlRSE_jE_E5CountEv:
.LFB4050:
	.cfi_startproc
	ldr	x0, [x0, 24]
	ret
	.cfi_endproc
.LFE4050:
	.size	_ZNK8opendnp318BufferedCollectionINS_7IndexedINS_7CounterEEEZNS_16CountIndexParser13InvokeCountOfINS_11Group22Var6EEEvRKNS_12HeaderRecordEtRKNS_9NumParserERKN7openpal6RSliceERNS_12IAPDUHandlerEEUlRSE_jE_E5CountEv, .-_ZNK8opendnp318BufferedCollectionINS_7IndexedINS_7CounterEEEZNS_16CountIndexParser13InvokeCountOfINS_11Group22Var6EEEvRKNS_12HeaderRecordEtRKNS_9NumParserERKN7openpal6RSliceERNS_12IAPDUHandlerEEUlRSE_jE_E5CountEv
	.section	.text._ZNK8opendnp318BufferedCollectionINS_7IndexedINS_7CounterEEEZNS_16CountIndexParser13InvokeCountOfINS_11Group22Var5EEEvRKNS_12HeaderRecordEtRKNS_9NumParserERKN7openpal6RSliceERNS_12IAPDUHandlerEEUlRSE_jE_E5CountEv,"axG",@progbits,_ZNK8opendnp318BufferedCollectionINS_7IndexedINS_7CounterEEEZNS_16CountIndexParser13InvokeCountOfINS_11Group22Var5EEEvRKNS_12HeaderRecordEtRKNS_9NumParserERKN7openpal6RSliceERNS_12IAPDUHandlerEEUlRSE_jE_E5CountEv,comdat
	.align	2
	.p2align 4,,11
	.weak	_ZNK8opendnp318BufferedCollectionINS_7IndexedINS_7CounterEEEZNS_16CountIndexParser13InvokeCountOfINS_11Group22Var5EEEvRKNS_12HeaderRecordEtRKNS_9NumParserERKN7openpal6RSliceERNS_12IAPDUHandlerEEUlRSE_jE_E5CountEv
	.type	_ZNK8opendnp318BufferedCollectionINS_7IndexedINS_7CounterEEEZNS_16CountIndexParser13InvokeCountOfINS_11Group22Var5EEEvRKNS_12HeaderRecordEtRKNS_9NumParserERKN7openpal6RSliceERNS_12IAPDUHandlerEEUlRSE_jE_E5CountEv, %function
_ZNK8opendnp318BufferedCollectionINS_7IndexedINS_7CounterEEEZNS_16CountIndexParser13InvokeCountOfINS_11Group22Var5EEEvRKNS_12HeaderRecordEtRKNS_9NumParserERKN7openpal6RSliceERNS_12IAPDUHandlerEEUlRSE_jE_E5CountEv:
.LFB4052:
	.cfi_startproc
	ldr	x0, [x0, 24]
	ret
	.cfi_endproc
.LFE4052:
	.size	_ZNK8opendnp318BufferedCollectionINS_7IndexedINS_7CounterEEEZNS_16CountIndexParser13InvokeCountOfINS_11Group22Var5EEEvRKNS_12HeaderRecordEtRKNS_9NumParserERKN7openpal6RSliceERNS_12IAPDUHandlerEEUlRSE_jE_E5CountEv, .-_ZNK8opendnp318BufferedCollectionINS_7IndexedINS_7CounterEEEZNS_16CountIndexParser13InvokeCountOfINS_11Group22Var5EEEvRKNS_12HeaderRecordEtRKNS_9NumParserERKN7openpal6RSliceERNS_12IAPDUHandlerEEUlRSE_jE_E5CountEv
	.section	.text._ZNK8opendnp318BufferedCollectionINS_7IndexedINS_7CounterEEEZNS_16CountIndexParser13InvokeCountOfINS_11Group22Var2EEEvRKNS_12HeaderRecordEtRKNS_9NumParserERKN7openpal6RSliceERNS_12IAPDUHandlerEEUlRSE_jE_E5CountEv,"axG",@progbits,_ZNK8opendnp318BufferedCollectionINS_7IndexedINS_7CounterEEEZNS_16CountIndexParser13InvokeCountOfINS_11Group22Var2EEEvRKNS_12HeaderRecordEtRKNS_9NumParserERKN7openpal6RSliceERNS_12IAPDUHandlerEEUlRSE_jE_E5CountEv,comdat
	.align	2
	.p2align 4,,11
	.weak	_ZNK8opendnp318BufferedCollectionINS_7IndexedINS_7CounterEEEZNS_16CountIndexParser13InvokeCountOfINS_11Group22Var2EEEvRKNS_12HeaderRecordEtRKNS_9NumParserERKN7openpal6RSliceERNS_12IAPDUHandlerEEUlRSE_jE_E5CountEv
	.type	_ZNK8opendnp318BufferedCollectionINS_7IndexedINS_7CounterEEEZNS_16CountIndexParser13InvokeCountOfINS_11Group22Var2EEEvRKNS_12HeaderRecordEtRKNS_9NumParserERKN7openpal6RSliceERNS_12IAPDUHandlerEEUlRSE_jE_E5CountEv, %function
_ZNK8opendnp318BufferedCollectionINS_7IndexedINS_7CounterEEEZNS_16CountIndexParser13InvokeCountOfINS_11Group22Var2EEEvRKNS_12HeaderRecordEtRKNS_9NumParserERKN7openpal6RSliceERNS_12IAPDUHandlerEEUlRSE_jE_E5CountEv:
.LFB4054:
	.cfi_startproc
	ldr	x0, [x0, 24]
	ret
	.cfi_endproc
.LFE4054:
	.size	_ZNK8opendnp318BufferedCollectionINS_7IndexedINS_7CounterEEEZNS_16CountIndexParser13InvokeCountOfINS_11Group22Var2EEEvRKNS_12HeaderRecordEtRKNS_9NumParserERKN7openpal6RSliceERNS_12IAPDUHandlerEEUlRSE_jE_E5CountEv, .-_ZNK8opendnp318BufferedCollectionINS_7IndexedINS_7CounterEEEZNS_16CountIndexParser13InvokeCountOfINS_11Group22Var2EEEvRKNS_12HeaderRecordEtRKNS_9NumParserERKN7openpal6RSliceERNS_12IAPDUHandlerEEUlRSE_jE_E5CountEv
	.section	.text._ZNK8opendnp318BufferedCollectionINS_7IndexedINS_7CounterEEEZNS_16CountIndexParser13InvokeCountOfINS_11Group22Var1EEEvRKNS_12HeaderRecordEtRKNS_9NumParserERKN7openpal6RSliceERNS_12IAPDUHandlerEEUlRSE_jE_E5CountEv,"axG",@progbits,_ZNK8opendnp318BufferedCollectionINS_7IndexedINS_7CounterEEEZNS_16CountIndexParser13InvokeCountOfINS_11Group22Var1EEEvRKNS_12HeaderRecordEtRKNS_9NumParserERKN7openpal6RSliceERNS_12IAPDUHandlerEEUlRSE_jE_E5CountEv,comdat
	.align	2
	.p2align 4,,11
	.weak	_ZNK8opendnp318BufferedCollectionINS_7IndexedINS_7CounterEEEZNS_16CountIndexParser13InvokeCountOfINS_11Group22Var1EEEvRKNS_12HeaderRecordEtRKNS_9NumParserERKN7openpal6RSliceERNS_12IAPDUHandlerEEUlRSE_jE_E5CountEv
	.type	_ZNK8opendnp318BufferedCollectionINS_7IndexedINS_7CounterEEEZNS_16CountIndexParser13InvokeCountOfINS_11Group22Var1EEEvRKNS_12HeaderRecordEtRKNS_9NumParserERKN7openpal6RSliceERNS_12IAPDUHandlerEEUlRSE_jE_E5CountEv, %function
_ZNK8opendnp318BufferedCollectionINS_7IndexedINS_7CounterEEEZNS_16CountIndexParser13InvokeCountOfINS_11Group22Var1EEEvRKNS_12HeaderRecordEtRKNS_9NumParserERKN7openpal6RSliceERNS_12IAPDUHandlerEEUlRSE_jE_E5CountEv:
.LFB4056:
	.cfi_startproc
	ldr	x0, [x0, 24]
	ret
	.cfi_endproc
.LFE4056:
	.size	_ZNK8opendnp318BufferedCollectionINS_7IndexedINS_7CounterEEEZNS_16CountIndexParser13InvokeCountOfINS_11Group22Var1EEEvRKNS_12HeaderRecordEtRKNS_9NumParserERKN7openpal6RSliceERNS_12IAPDUHandlerEEUlRSE_jE_E5CountEv, .-_ZNK8opendnp318BufferedCollectionINS_7IndexedINS_7CounterEEEZNS_16CountIndexParser13InvokeCountOfINS_11Group22Var1EEEvRKNS_12HeaderRecordEtRKNS_9NumParserERKN7openpal6RSliceERNS_12IAPDUHandlerEEUlRSE_jE_E5CountEv
	.section	.text._ZNK8opendnp318BufferedCollectionINS_7IndexedINS_18BinaryCommandEventEEEZNS_16CountIndexParser13InvokeCountOfINS_11Group13Var2EEEvRKNS_12HeaderRecordEtRKNS_9NumParserERKN7openpal6RSliceERNS_12IAPDUHandlerEEUlRSE_jE_E5CountEv,"axG",@progbits,_ZNK8opendnp318BufferedCollectionINS_7IndexedINS_18BinaryCommandEventEEEZNS_16CountIndexParser13InvokeCountOfINS_11Group13Var2EEEvRKNS_12HeaderRecordEtRKNS_9NumParserERKN7openpal6RSliceERNS_12IAPDUHandlerEEUlRSE_jE_E5CountEv,comdat
	.align	2
	.p2align 4,,11
	.weak	_ZNK8opendnp318BufferedCollectionINS_7IndexedINS_18BinaryCommandEventEEEZNS_16CountIndexParser13InvokeCountOfINS_11Group13Var2EEEvRKNS_12HeaderRecordEtRKNS_9NumParserERKN7openpal6RSliceERNS_12IAPDUHandlerEEUlRSE_jE_E5CountEv
	.type	_ZNK8opendnp318BufferedCollectionINS_7IndexedINS_18BinaryCommandEventEEEZNS_16CountIndexParser13InvokeCountOfINS_11Group13Var2EEEvRKNS_12HeaderRecordEtRKNS_9NumParserERKN7openpal6RSliceERNS_12IAPDUHandlerEEUlRSE_jE_E5CountEv, %function
_ZNK8opendnp318BufferedCollectionINS_7IndexedINS_18BinaryCommandEventEEEZNS_16CountIndexParser13InvokeCountOfINS_11Group13Var2EEEvRKNS_12HeaderRecordEtRKNS_9NumParserERKN7openpal6RSliceERNS_12IAPDUHandlerEEUlRSE_jE_E5CountEv:
.LFB4058:
	.cfi_startproc
	ldr	x0, [x0, 24]
	ret
	.cfi_endproc
.LFE4058:
	.size	_ZNK8opendnp318BufferedCollectionINS_7IndexedINS_18BinaryCommandEventEEEZNS_16CountIndexParser13InvokeCountOfINS_11Group13Var2EEEvRKNS_12HeaderRecordEtRKNS_9NumParserERKN7openpal6RSliceERNS_12IAPDUHandlerEEUlRSE_jE_E5CountEv, .-_ZNK8opendnp318BufferedCollectionINS_7IndexedINS_18BinaryCommandEventEEEZNS_16CountIndexParser13InvokeCountOfINS_11Group13Var2EEEvRKNS_12HeaderRecordEtRKNS_9NumParserERKN7openpal6RSliceERNS_12IAPDUHandlerEEUlRSE_jE_E5CountEv
	.section	.text._ZNK8opendnp318BufferedCollectionINS_7IndexedINS_18BinaryCommandEventEEEZNS_16CountIndexParser13InvokeCountOfINS_11Group13Var1EEEvRKNS_12HeaderRecordEtRKNS_9NumParserERKN7openpal6RSliceERNS_12IAPDUHandlerEEUlRSE_jE_E5CountEv,"axG",@progbits,_ZNK8opendnp318BufferedCollectionINS_7IndexedINS_18BinaryCommandEventEEEZNS_16CountIndexParser13InvokeCountOfINS_11Group13Var1EEEvRKNS_12HeaderRecordEtRKNS_9NumParserERKN7openpal6RSliceERNS_12IAPDUHandlerEEUlRSE_jE_E5CountEv,comdat
	.align	2
	.p2align 4,,11
	.weak	_ZNK8opendnp318BufferedCollectionINS_7IndexedINS_18BinaryCommandEventEEEZNS_16CountIndexParser13InvokeCountOfINS_11Group13Var1EEEvRKNS_12HeaderRecordEtRKNS_9NumParserERKN7openpal6RSliceERNS_12IAPDUHandlerEEUlRSE_jE_E5CountEv
	.type	_ZNK8opendnp318BufferedCollectionINS_7IndexedINS_18BinaryCommandEventEEEZNS_16CountIndexParser13InvokeCountOfINS_11Group13Var1EEEvRKNS_12HeaderRecordEtRKNS_9NumParserERKN7openpal6RSliceERNS_12IAPDUHandlerEEUlRSE_jE_E5CountEv, %function
_ZNK8opendnp318BufferedCollectionINS_7IndexedINS_18BinaryCommandEventEEEZNS_16CountIndexParser13InvokeCountOfINS_11Group13Var1EEEvRKNS_12HeaderRecordEtRKNS_9NumParserERKN7openpal6RSliceERNS_12IAPDUHandlerEEUlRSE_jE_E5CountEv:
.LFB4060:
	.cfi_startproc
	ldr	x0, [x0, 24]
	ret
	.cfi_endproc
.LFE4060:
	.size	_ZNK8opendnp318BufferedCollectionINS_7IndexedINS_18BinaryCommandEventEEEZNS_16CountIndexParser13InvokeCountOfINS_11Group13Var1EEEvRKNS_12HeaderRecordEtRKNS_9NumParserERKN7openpal6RSliceERNS_12IAPDUHandlerEEUlRSE_jE_E5CountEv, .-_ZNK8opendnp318BufferedCollectionINS_7IndexedINS_18BinaryCommandEventEEEZNS_16CountIndexParser13InvokeCountOfINS_11Group13Var1EEEvRKNS_12HeaderRecordEtRKNS_9NumParserERKN7openpal6RSliceERNS_12IAPDUHandlerEEUlRSE_jE_E5CountEv
	.section	.text._ZNK8opendnp318BufferedCollectionINS_7IndexedINS_23ControlRelayOutputBlockEEEZNS_16CountIndexParser13InvokeCountOfINS_11Group12Var1EEEvRKNS_12HeaderRecordEtRKNS_9NumParserERKN7openpal6RSliceERNS_12IAPDUHandlerEEUlRSE_jE_E5CountEv,"axG",@progbits,_ZNK8opendnp318BufferedCollectionINS_7IndexedINS_23ControlRelayOutputBlockEEEZNS_16CountIndexParser13InvokeCountOfINS_11Group12Var1EEEvRKNS_12HeaderRecordEtRKNS_9NumParserERKN7openpal6RSliceERNS_12IAPDUHandlerEEUlRSE_jE_E5CountEv,comdat
	.align	2
	.p2align 4,,11
	.weak	_ZNK8opendnp318BufferedCollectionINS_7IndexedINS_23ControlRelayOutputBlockEEEZNS_16CountIndexParser13InvokeCountOfINS_11Group12Var1EEEvRKNS_12HeaderRecordEtRKNS_9NumParserERKN7openpal6RSliceERNS_12IAPDUHandlerEEUlRSE_jE_E5CountEv
	.type	_ZNK8opendnp318BufferedCollectionINS_7IndexedINS_23ControlRelayOutputBlockEEEZNS_16CountIndexParser13InvokeCountOfINS_11Group12Var1EEEvRKNS_12HeaderRecordEtRKNS_9NumParserERKN7openpal6RSliceERNS_12IAPDUHandlerEEUlRSE_jE_E5CountEv, %function
_ZNK8opendnp318BufferedCollectionINS_7IndexedINS_23ControlRelayOutputBlockEEEZNS_16CountIndexParser13InvokeCountOfINS_11Group12Var1EEEvRKNS_12HeaderRecordEtRKNS_9NumParserERKN7openpal6RSliceERNS_12IAPDUHandlerEEUlRSE_jE_E5CountEv:
.LFB4062:
	.cfi_startproc
	ldr	x0, [x0, 24]
	ret
	.cfi_endproc
.LFE4062:
	.size	_ZNK8opendnp318BufferedCollectionINS_7IndexedINS_23ControlRelayOutputBlockEEEZNS_16CountIndexParser13InvokeCountOfINS_11Group12Var1EEEvRKNS_12HeaderRecordEtRKNS_9NumParserERKN7openpal6RSliceERNS_12IAPDUHandlerEEUlRSE_jE_E5CountEv, .-_ZNK8opendnp318BufferedCollectionINS_7IndexedINS_23ControlRelayOutputBlockEEEZNS_16CountIndexParser13InvokeCountOfINS_11Group12Var1EEEvRKNS_12HeaderRecordEtRKNS_9NumParserERKN7openpal6RSliceERNS_12IAPDUHandlerEEUlRSE_jE_E5CountEv
	.section	.text._ZNK8opendnp318BufferedCollectionINS_7IndexedINS_18BinaryOutputStatusEEEZNS_16CountIndexParser13InvokeCountOfINS_11Group11Var2EEEvRKNS_12HeaderRecordEtRKNS_9NumParserERKN7openpal6RSliceERNS_12IAPDUHandlerEEUlRSE_jE_E5CountEv,"axG",@progbits,_ZNK8opendnp318BufferedCollectionINS_7IndexedINS_18BinaryOutputStatusEEEZNS_16CountIndexParser13InvokeCountOfINS_11Group11Var2EEEvRKNS_12HeaderRecordEtRKNS_9NumParserERKN7openpal6RSliceERNS_12IAPDUHandlerEEUlRSE_jE_E5CountEv,comdat
	.align	2
	.p2align 4,,11
	.weak	_ZNK8opendnp318BufferedCollectionINS_7IndexedINS_18BinaryOutputStatusEEEZNS_16CountIndexParser13InvokeCountOfINS_11Group11Var2EEEvRKNS_12HeaderRecordEtRKNS_9NumParserERKN7openpal6RSliceERNS_12IAPDUHandlerEEUlRSE_jE_E5CountEv
	.type	_ZNK8opendnp318BufferedCollectionINS_7IndexedINS_18BinaryOutputStatusEEEZNS_16CountIndexParser13InvokeCountOfINS_11Group11Var2EEEvRKNS_12HeaderRecordEtRKNS_9NumParserERKN7openpal6RSliceERNS_12IAPDUHandlerEEUlRSE_jE_E5CountEv, %function
_ZNK8opendnp318BufferedCollectionINS_7IndexedINS_18BinaryOutputStatusEEEZNS_16CountIndexParser13InvokeCountOfINS_11Group11Var2EEEvRKNS_12HeaderRecordEtRKNS_9NumParserERKN7openpal6RSliceERNS_12IAPDUHandlerEEUlRSE_jE_E5CountEv:
.LFB4064:
	.cfi_startproc
	ldr	x0, [x0, 24]
	ret
	.cfi_endproc
.LFE4064:
	.size	_ZNK8opendnp318BufferedCollectionINS_7IndexedINS_18BinaryOutputStatusEEEZNS_16CountIndexParser13InvokeCountOfINS_11Group11Var2EEEvRKNS_12HeaderRecordEtRKNS_9NumParserERKN7openpal6RSliceERNS_12IAPDUHandlerEEUlRSE_jE_E5CountEv, .-_ZNK8opendnp318BufferedCollectionINS_7IndexedINS_18BinaryOutputStatusEEEZNS_16CountIndexParser13InvokeCountOfINS_11Group11Var2EEEvRKNS_12HeaderRecordEtRKNS_9NumParserERKN7openpal6RSliceERNS_12IAPDUHandlerEEUlRSE_jE_E5CountEv
	.section	.text._ZNK8opendnp318BufferedCollectionINS_7IndexedINS_18BinaryOutputStatusEEEZNS_16CountIndexParser13InvokeCountOfINS_11Group11Var1EEEvRKNS_12HeaderRecordEtRKNS_9NumParserERKN7openpal6RSliceERNS_12IAPDUHandlerEEUlRSE_jE_E5CountEv,"axG",@progbits,_ZNK8opendnp318BufferedCollectionINS_7IndexedINS_18BinaryOutputStatusEEEZNS_16CountIndexParser13InvokeCountOfINS_11Group11Var1EEEvRKNS_12HeaderRecordEtRKNS_9NumParserERKN7openpal6RSliceERNS_12IAPDUHandlerEEUlRSE_jE_E5CountEv,comdat
	.align	2
	.p2align 4,,11
	.weak	_ZNK8opendnp318BufferedCollectionINS_7IndexedINS_18BinaryOutputStatusEEEZNS_16CountIndexParser13InvokeCountOfINS_11Group11Var1EEEvRKNS_12HeaderRecordEtRKNS_9NumParserERKN7openpal6RSliceERNS_12IAPDUHandlerEEUlRSE_jE_E5CountEv
	.type	_ZNK8opendnp318BufferedCollectionINS_7IndexedINS_18BinaryOutputStatusEEEZNS_16CountIndexParser13InvokeCountOfINS_11Group11Var1EEEvRKNS_12HeaderRecordEtRKNS_9NumParserERKN7openpal6RSliceERNS_12IAPDUHandlerEEUlRSE_jE_E5CountEv, %function
_ZNK8opendnp318BufferedCollectionINS_7IndexedINS_18BinaryOutputStatusEEEZNS_16CountIndexParser13InvokeCountOfINS_11Group11Var1EEEvRKNS_12HeaderRecordEtRKNS_9NumParserERKN7openpal6RSliceERNS_12IAPDUHandlerEEUlRSE_jE_E5CountEv:
.LFB4066:
	.cfi_startproc
	ldr	x0, [x0, 24]
	ret
	.cfi_endproc
.LFE4066:
	.size	_ZNK8opendnp318BufferedCollectionINS_7IndexedINS_18BinaryOutputStatusEEEZNS_16CountIndexParser13InvokeCountOfINS_11Group11Var1EEEvRKNS_12HeaderRecordEtRKNS_9NumParserERKN7openpal6RSliceERNS_12IAPDUHandlerEEUlRSE_jE_E5CountEv, .-_ZNK8opendnp318BufferedCollectionINS_7IndexedINS_18BinaryOutputStatusEEEZNS_16CountIndexParser13InvokeCountOfINS_11Group11Var1EEEvRKNS_12HeaderRecordEtRKNS_9NumParserERKN7openpal6RSliceERNS_12IAPDUHandlerEEUlRSE_jE_E5CountEv
	.section	.text._ZNK8opendnp318BufferedCollectionINS_7IndexedINS_15DoubleBitBinaryEEEZNS_16CountIndexParser13InvokeCountOfINS_10Group4Var3EEEvRKNS_12HeaderRecordEtRKNS_9NumParserERKN7openpal6RSliceERNS_12IAPDUHandlerEEUlRSE_jE_E5CountEv,"axG",@progbits,_ZNK8opendnp318BufferedCollectionINS_7IndexedINS_15DoubleBitBinaryEEEZNS_16CountIndexParser13InvokeCountOfINS_10Group4Var3EEEvRKNS_12HeaderRecordEtRKNS_9NumParserERKN7openpal6RSliceERNS_12IAPDUHandlerEEUlRSE_jE_E5CountEv,comdat
	.align	2
	.p2align 4,,11
	.weak	_ZNK8opendnp318BufferedCollectionINS_7IndexedINS_15DoubleBitBinaryEEEZNS_16CountIndexParser13InvokeCountOfINS_10Group4Var3EEEvRKNS_12HeaderRecordEtRKNS_9NumParserERKN7openpal6RSliceERNS_12IAPDUHandlerEEUlRSE_jE_E5CountEv
	.type	_ZNK8opendnp318BufferedCollectionINS_7IndexedINS_15DoubleBitBinaryEEEZNS_16CountIndexParser13InvokeCountOfINS_10Group4Var3EEEvRKNS_12HeaderRecordEtRKNS_9NumParserERKN7openpal6RSliceERNS_12IAPDUHandlerEEUlRSE_jE_E5CountEv, %function
_ZNK8opendnp318BufferedCollectionINS_7IndexedINS_15DoubleBitBinaryEEEZNS_16CountIndexParser13InvokeCountOfINS_10Group4Var3EEEvRKNS_12HeaderRecordEtRKNS_9NumParserERKN7openpal6RSliceERNS_12IAPDUHandlerEEUlRSE_jE_E5CountEv:
.LFB4068:
	.cfi_startproc
	ldr	x0, [x0, 24]
	ret
	.cfi_endproc
.LFE4068:
	.size	_ZNK8opendnp318BufferedCollectionINS_7IndexedINS_15DoubleBitBinaryEEEZNS_16CountIndexParser13InvokeCountOfINS_10Group4Var3EEEvRKNS_12HeaderRecordEtRKNS_9NumParserERKN7openpal6RSliceERNS_12IAPDUHandlerEEUlRSE_jE_E5CountEv, .-_ZNK8opendnp318BufferedCollectionINS_7IndexedINS_15DoubleBitBinaryEEEZNS_16CountIndexParser13InvokeCountOfINS_10Group4Var3EEEvRKNS_12HeaderRecordEtRKNS_9NumParserERKN7openpal6RSliceERNS_12IAPDUHandlerEEUlRSE_jE_E5CountEv
	.section	.text._ZNK8opendnp318BufferedCollectionINS_7IndexedINS_15DoubleBitBinaryEEEZNS_16CountIndexParser13InvokeCountOfINS_10Group4Var2EEEvRKNS_12HeaderRecordEtRKNS_9NumParserERKN7openpal6RSliceERNS_12IAPDUHandlerEEUlRSE_jE_E5CountEv,"axG",@progbits,_ZNK8opendnp318BufferedCollectionINS_7IndexedINS_15DoubleBitBinaryEEEZNS_16CountIndexParser13InvokeCountOfINS_10Group4Var2EEEvRKNS_12HeaderRecordEtRKNS_9NumParserERKN7openpal6RSliceERNS_12IAPDUHandlerEEUlRSE_jE_E5CountEv,comdat
	.align	2
	.p2align 4,,11
	.weak	_ZNK8opendnp318BufferedCollectionINS_7IndexedINS_15DoubleBitBinaryEEEZNS_16CountIndexParser13InvokeCountOfINS_10Group4Var2EEEvRKNS_12HeaderRecordEtRKNS_9NumParserERKN7openpal6RSliceERNS_12IAPDUHandlerEEUlRSE_jE_E5CountEv
	.type	_ZNK8opendnp318BufferedCollectionINS_7IndexedINS_15DoubleBitBinaryEEEZNS_16CountIndexParser13InvokeCountOfINS_10Group4Var2EEEvRKNS_12HeaderRecordEtRKNS_9NumParserERKN7openpal6RSliceERNS_12IAPDUHandlerEEUlRSE_jE_E5CountEv, %function
_ZNK8opendnp318BufferedCollectionINS_7IndexedINS_15DoubleBitBinaryEEEZNS_16CountIndexParser13InvokeCountOfINS_10Group4Var2EEEvRKNS_12HeaderRecordEtRKNS_9NumParserERKN7openpal6RSliceERNS_12IAPDUHandlerEEUlRSE_jE_E5CountEv:
.LFB4070:
	.cfi_startproc
	ldr	x0, [x0, 24]
	ret
	.cfi_endproc
.LFE4070:
	.size	_ZNK8opendnp318BufferedCollectionINS_7IndexedINS_15DoubleBitBinaryEEEZNS_16CountIndexParser13InvokeCountOfINS_10Group4Var2EEEvRKNS_12HeaderRecordEtRKNS_9NumParserERKN7openpal6RSliceERNS_12IAPDUHandlerEEUlRSE_jE_E5CountEv, .-_ZNK8opendnp318BufferedCollectionINS_7IndexedINS_15DoubleBitBinaryEEEZNS_16CountIndexParser13InvokeCountOfINS_10Group4Var2EEEvRKNS_12HeaderRecordEtRKNS_9NumParserERKN7openpal6RSliceERNS_12IAPDUHandlerEEUlRSE_jE_E5CountEv
	.section	.text._ZNK8opendnp318BufferedCollectionINS_7IndexedINS_15DoubleBitBinaryEEEZNS_16CountIndexParser13InvokeCountOfINS_10Group4Var1EEEvRKNS_12HeaderRecordEtRKNS_9NumParserERKN7openpal6RSliceERNS_12IAPDUHandlerEEUlRSE_jE_E5CountEv,"axG",@progbits,_ZNK8opendnp318BufferedCollectionINS_7IndexedINS_15DoubleBitBinaryEEEZNS_16CountIndexParser13InvokeCountOfINS_10Group4Var1EEEvRKNS_12HeaderRecordEtRKNS_9NumParserERKN7openpal6RSliceERNS_12IAPDUHandlerEEUlRSE_jE_E5CountEv,comdat
	.align	2
	.p2align 4,,11
	.weak	_ZNK8opendnp318BufferedCollectionINS_7IndexedINS_15DoubleBitBinaryEEEZNS_16CountIndexParser13InvokeCountOfINS_10Group4Var1EEEvRKNS_12HeaderRecordEtRKNS_9NumParserERKN7openpal6RSliceERNS_12IAPDUHandlerEEUlRSE_jE_E5CountEv
	.type	_ZNK8opendnp318BufferedCollectionINS_7IndexedINS_15DoubleBitBinaryEEEZNS_16CountIndexParser13InvokeCountOfINS_10Group4Var1EEEvRKNS_12HeaderRecordEtRKNS_9NumParserERKN7openpal6RSliceERNS_12IAPDUHandlerEEUlRSE_jE_E5CountEv, %function
_ZNK8opendnp318BufferedCollectionINS_7IndexedINS_15DoubleBitBinaryEEEZNS_16CountIndexParser13InvokeCountOfINS_10Group4Var1EEEvRKNS_12HeaderRecordEtRKNS_9NumParserERKN7openpal6RSliceERNS_12IAPDUHandlerEEUlRSE_jE_E5CountEv:
.LFB4072:
	.cfi_startproc
	ldr	x0, [x0, 24]
	ret
	.cfi_endproc
.LFE4072:
	.size	_ZNK8opendnp318BufferedCollectionINS_7IndexedINS_15DoubleBitBinaryEEEZNS_16CountIndexParser13InvokeCountOfINS_10Group4Var1EEEvRKNS_12HeaderRecordEtRKNS_9NumParserERKN7openpal6RSliceERNS_12IAPDUHandlerEEUlRSE_jE_E5CountEv, .-_ZNK8opendnp318BufferedCollectionINS_7IndexedINS_15DoubleBitBinaryEEEZNS_16CountIndexParser13InvokeCountOfINS_10Group4Var1EEEvRKNS_12HeaderRecordEtRKNS_9NumParserERKN7openpal6RSliceERNS_12IAPDUHandlerEEUlRSE_jE_E5CountEv
	.section	.text._ZNK8opendnp318BufferedCollectionINS_7IndexedINS_6BinaryEEEZNS_16CountIndexParser13InvokeCountOfINS_10Group2Var3EEEvRKNS_12HeaderRecordEtRKNS_9NumParserERKN7openpal6RSliceERNS_12IAPDUHandlerEEUlRSE_jE_E5CountEv,"axG",@progbits,_ZNK8opendnp318BufferedCollectionINS_7IndexedINS_6BinaryEEEZNS_16CountIndexParser13InvokeCountOfINS_10Group2Var3EEEvRKNS_12HeaderRecordEtRKNS_9NumParserERKN7openpal6RSliceERNS_12IAPDUHandlerEEUlRSE_jE_E5CountEv,comdat
	.align	2
	.p2align 4,,11
	.weak	_ZNK8opendnp318BufferedCollectionINS_7IndexedINS_6BinaryEEEZNS_16CountIndexParser13InvokeCountOfINS_10Group2Var3EEEvRKNS_12HeaderRecordEtRKNS_9NumParserERKN7openpal6RSliceERNS_12IAPDUHandlerEEUlRSE_jE_E5CountEv
	.type	_ZNK8opendnp318BufferedCollectionINS_7IndexedINS_6BinaryEEEZNS_16CountIndexParser13InvokeCountOfINS_10Group2Var3EEEvRKNS_12HeaderRecordEtRKNS_9NumParserERKN7openpal6RSliceERNS_12IAPDUHandlerEEUlRSE_jE_E5CountEv, %function
_ZNK8opendnp318BufferedCollectionINS_7IndexedINS_6BinaryEEEZNS_16CountIndexParser13InvokeCountOfINS_10Group2Var3EEEvRKNS_12HeaderRecordEtRKNS_9NumParserERKN7openpal6RSliceERNS_12IAPDUHandlerEEUlRSE_jE_E5CountEv:
.LFB4074:
	.cfi_startproc
	ldr	x0, [x0, 24]
	ret
	.cfi_endproc
.LFE4074:
	.size	_ZNK8opendnp318BufferedCollectionINS_7IndexedINS_6BinaryEEEZNS_16CountIndexParser13InvokeCountOfINS_10Group2Var3EEEvRKNS_12HeaderRecordEtRKNS_9NumParserERKN7openpal6RSliceERNS_12IAPDUHandlerEEUlRSE_jE_E5CountEv, .-_ZNK8opendnp318BufferedCollectionINS_7IndexedINS_6BinaryEEEZNS_16CountIndexParser13InvokeCountOfINS_10Group2Var3EEEvRKNS_12HeaderRecordEtRKNS_9NumParserERKN7openpal6RSliceERNS_12IAPDUHandlerEEUlRSE_jE_E5CountEv
	.section	.text._ZNK8opendnp318BufferedCollectionINS_7IndexedINS_6BinaryEEEZNS_16CountIndexParser13InvokeCountOfINS_10Group2Var2EEEvRKNS_12HeaderRecordEtRKNS_9NumParserERKN7openpal6RSliceERNS_12IAPDUHandlerEEUlRSE_jE_E5CountEv,"axG",@progbits,_ZNK8opendnp318BufferedCollectionINS_7IndexedINS_6BinaryEEEZNS_16CountIndexParser13InvokeCountOfINS_10Group2Var2EEEvRKNS_12HeaderRecordEtRKNS_9NumParserERKN7openpal6RSliceERNS_12IAPDUHandlerEEUlRSE_jE_E5CountEv,comdat
	.align	2
	.p2align 4,,11
	.weak	_ZNK8opendnp318BufferedCollectionINS_7IndexedINS_6BinaryEEEZNS_16CountIndexParser13InvokeCountOfINS_10Group2Var2EEEvRKNS_12HeaderRecordEtRKNS_9NumParserERKN7openpal6RSliceERNS_12IAPDUHandlerEEUlRSE_jE_E5CountEv
	.type	_ZNK8opendnp318BufferedCollectionINS_7IndexedINS_6BinaryEEEZNS_16CountIndexParser13InvokeCountOfINS_10Group2Var2EEEvRKNS_12HeaderRecordEtRKNS_9NumParserERKN7openpal6RSliceERNS_12IAPDUHandlerEEUlRSE_jE_E5CountEv, %function
_ZNK8opendnp318BufferedCollectionINS_7IndexedINS_6BinaryEEEZNS_16CountIndexParser13InvokeCountOfINS_10Group2Var2EEEvRKNS_12HeaderRecordEtRKNS_9NumParserERKN7openpal6RSliceERNS_12IAPDUHandlerEEUlRSE_jE_E5CountEv:
.LFB4076:
	.cfi_startproc
	ldr	x0, [x0, 24]
	ret
	.cfi_endproc
.LFE4076:
	.size	_ZNK8opendnp318BufferedCollectionINS_7IndexedINS_6BinaryEEEZNS_16CountIndexParser13InvokeCountOfINS_10Group2Var2EEEvRKNS_12HeaderRecordEtRKNS_9NumParserERKN7openpal6RSliceERNS_12IAPDUHandlerEEUlRSE_jE_E5CountEv, .-_ZNK8opendnp318BufferedCollectionINS_7IndexedINS_6BinaryEEEZNS_16CountIndexParser13InvokeCountOfINS_10Group2Var2EEEvRKNS_12HeaderRecordEtRKNS_9NumParserERKN7openpal6RSliceERNS_12IAPDUHandlerEEUlRSE_jE_E5CountEv
	.section	.text._ZNK8opendnp318BufferedCollectionINS_7IndexedINS_6BinaryEEEZNS_16CountIndexParser13InvokeCountOfINS_10Group2Var1EEEvRKNS_12HeaderRecordEtRKNS_9NumParserERKN7openpal6RSliceERNS_12IAPDUHandlerEEUlRSE_jE_E5CountEv,"axG",@progbits,_ZNK8opendnp318BufferedCollectionINS_7IndexedINS_6BinaryEEEZNS_16CountIndexParser13InvokeCountOfINS_10Group2Var1EEEvRKNS_12HeaderRecordEtRKNS_9NumParserERKN7openpal6RSliceERNS_12IAPDUHandlerEEUlRSE_jE_E5CountEv,comdat
	.align	2
	.p2align 4,,11
	.weak	_ZNK8opendnp318BufferedCollectionINS_7IndexedINS_6BinaryEEEZNS_16CountIndexParser13InvokeCountOfINS_10Group2Var1EEEvRKNS_12HeaderRecordEtRKNS_9NumParserERKN7openpal6RSliceERNS_12IAPDUHandlerEEUlRSE_jE_E5CountEv
	.type	_ZNK8opendnp318BufferedCollectionINS_7IndexedINS_6BinaryEEEZNS_16CountIndexParser13InvokeCountOfINS_10Group2Var1EEEvRKNS_12HeaderRecordEtRKNS_9NumParserERKN7openpal6RSliceERNS_12IAPDUHandlerEEUlRSE_jE_E5CountEv, %function
_ZNK8opendnp318BufferedCollectionINS_7IndexedINS_6BinaryEEEZNS_16CountIndexParser13InvokeCountOfINS_10Group2Var1EEEvRKNS_12HeaderRecordEtRKNS_9NumParserERKN7openpal6RSliceERNS_12IAPDUHandlerEEUlRSE_jE_E5CountEv:
.LFB4078:
	.cfi_startproc
	ldr	x0, [x0, 24]
	ret
	.cfi_endproc
.LFE4078:
	.size	_ZNK8opendnp318BufferedCollectionINS_7IndexedINS_6BinaryEEEZNS_16CountIndexParser13InvokeCountOfINS_10Group2Var1EEEvRKNS_12HeaderRecordEtRKNS_9NumParserERKN7openpal6RSliceERNS_12IAPDUHandlerEEUlRSE_jE_E5CountEv, .-_ZNK8opendnp318BufferedCollectionINS_7IndexedINS_6BinaryEEEZNS_16CountIndexParser13InvokeCountOfINS_10Group2Var1EEEvRKNS_12HeaderRecordEtRKNS_9NumParserERKN7openpal6RSliceERNS_12IAPDUHandlerEEUlRSE_jE_E5CountEv
	.text
	.align	2
	.p2align 4,,11
	.type	_ZNK8opendnp318BufferedCollectionINS_7IndexedINS_11OctetStringEEEZNS_16CountIndexParser27ParseIndexPrefixedOctetDataERN7openpal6RSliceERKNS_12HeaderRecordERKNS_9NumParserEjPNS5_6LoggerEPNS_12IAPDUHandlerEEUlS7_jE_E5CountEv, %function
_ZNK8opendnp318BufferedCollectionINS_7IndexedINS_11OctetStringEEEZNS_16CountIndexParser27ParseIndexPrefixedOctetDataERN7openpal6RSliceERKNS_12HeaderRecordERKNS_9NumParserEjPNS5_6LoggerEPNS_12IAPDUHandlerEEUlS7_jE_E5CountEv:
.LFB4080:
	.cfi_startproc
	ldr	x0, [x0, 24]
	ret
	.cfi_endproc
.LFE4080:
	.size	_ZNK8opendnp318BufferedCollectionINS_7IndexedINS_11OctetStringEEEZNS_16CountIndexParser27ParseIndexPrefixedOctetDataERN7openpal6RSliceERKNS_12HeaderRecordERKNS_9NumParserEjPNS5_6LoggerEPNS_12IAPDUHandlerEEUlS7_jE_E5CountEv, .-_ZNK8opendnp318BufferedCollectionINS_7IndexedINS_11OctetStringEEEZNS_16CountIndexParser27ParseIndexPrefixedOctetDataERN7openpal6RSliceERKNS_12HeaderRecordERKNS_9NumParserEjPNS5_6LoggerEPNS_12IAPDUHandlerEEUlS7_jE_E5CountEv
	.section	.text._ZN8opendnp316CountIndexParser13InvokeCountOfINS_10Group2Var1EEEvRKNS_12HeaderRecordEtRKNS_9NumParserERKN7openpal6RSliceERNS_12IAPDUHandlerE,"axG",@progbits,_ZN8opendnp316CountIndexParser13InvokeCountOfINS_10Group2Var1EEEvRKNS_12HeaderRecordEtRKNS_9NumParserERKN7openpal6RSliceERNS_12IAPDUHandlerE,comdat
	.align	2
	.p2align 4,,11
	.weak	_ZN8opendnp316CountIndexParser13InvokeCountOfINS_10Group2Var1EEEvRKNS_12HeaderRecordEtRKNS_9NumParserERKN7openpal6RSliceERNS_12IAPDUHandlerE
	.type	_ZN8opendnp316CountIndexParser13InvokeCountOfINS_10Group2Var1EEEvRKNS_12HeaderRecordEtRKNS_9NumParserERKN7openpal6RSliceERNS_12IAPDUHandlerE, %function
_ZN8opendnp316CountIndexParser13InvokeCountOfINS_10Group2Var1EEEvRKNS_12HeaderRecordEtRKNS_9NumParserERKN7openpal6RSliceERNS_12IAPDUHandlerE:
.LFB3110:
	.cfi_startproc
	mov	x7, x0
	stp	x29, x30, [sp, -96]!
	.cfi_def_cfa_offset 96
	.cfi_offset 29, -96
	.cfi_offset 30, -88
	adrp	x5, :got:_ZTVN8opendnp318BufferedCollectionINS_7IndexedINS_6BinaryEEEZNS_16CountIndexParser13InvokeCountOfINS_10Group2Var1EEEvRKNS_12HeaderRecordEtRKNS_9NumParserERKN7openpal6RSliceERNS_12IAPDUHandlerEEUlRSE_jE_EE
	mov	x29, sp
	adrp	x6, :got:__stack_chk_guard
	ldr	x5, [x5, #:got_lo12:_ZTVN8opendnp318BufferedCollectionINS_7IndexedINS_6BinaryEEEZNS_16CountIndexParser13InvokeCountOfINS_10Group2Var1EEEvRKNS_12HeaderRecordEtRKNS_9NumParserERKN7openpal6RSliceERNS_12IAPDUHandlerEEUlRSE_jE_EE]
	mov	x0, x4
	ldp	x8, x9, [x3]
	and	x4, x1, 65535
	ldp	x10, x11, [x7]
	mov	x3, x2
	ldr	x6, [x6, #:got_lo12:__stack_chk_guard]
	add	x5, x5, 16
	ldr	x2, [x6]
	str	x2, [sp, 88]
	mov	x2, 0
	stp	x10, x11, [sp, 24]
	add	x2, sp, 48
	strh	w1, [sp, 40]
	add	x1, sp, 24
	str	x5, [sp, 48]
	stp	x8, x9, [sp, 56]
	stp	x4, x3, [sp, 72]
	bl	_ZN8opendnp312IAPDUHandler8OnHeaderERKNS_12PrefixHeaderERKNS_11ICollectionINS_7IndexedINS_6BinaryEEEEE
	adrp	x0, :got:__stack_chk_guard
	ldr	x0, [x0, #:got_lo12:__stack_chk_guard]
	ldr	x2, [sp, 88]
	ldr	x1, [x0]
	subs	x2, x2, x1
	mov	x1, 0
	bne	.L57
	ldp	x29, x30, [sp], 96
	.cfi_remember_state
	.cfi_restore 30
	.cfi_restore 29
	.cfi_def_cfa_offset 0
	ret
.L57:
	.cfi_restore_state
	bl	__stack_chk_fail
	.cfi_endproc
.LFE3110:
	.size	_ZN8opendnp316CountIndexParser13InvokeCountOfINS_10Group2Var1EEEvRKNS_12HeaderRecordEtRKNS_9NumParserERKN7openpal6RSliceERNS_12IAPDUHandlerE, .-_ZN8opendnp316CountIndexParser13InvokeCountOfINS_10Group2Var1EEEvRKNS_12HeaderRecordEtRKNS_9NumParserERKN7openpal6RSliceERNS_12IAPDUHandlerE
	.section	.text._ZN8opendnp316CountIndexParser13InvokeCountOfINS_10Group2Var2EEEvRKNS_12HeaderRecordEtRKNS_9NumParserERKN7openpal6RSliceERNS_12IAPDUHandlerE,"axG",@progbits,_ZN8opendnp316CountIndexParser13InvokeCountOfINS_10Group2Var2EEEvRKNS_12HeaderRecordEtRKNS_9NumParserERKN7openpal6RSliceERNS_12IAPDUHandlerE,comdat
	.align	2
	.p2align 4,,11
	.weak	_ZN8opendnp316CountIndexParser13InvokeCountOfINS_10Group2Var2EEEvRKNS_12HeaderRecordEtRKNS_9NumParserERKN7openpal6RSliceERNS_12IAPDUHandlerE
	.type	_ZN8opendnp316CountIndexParser13InvokeCountOfINS_10Group2Var2EEEvRKNS_12HeaderRecordEtRKNS_9NumParserERKN7openpal6RSliceERNS_12IAPDUHandlerE, %function
_ZN8opendnp316CountIndexParser13InvokeCountOfINS_10Group2Var2EEEvRKNS_12HeaderRecordEtRKNS_9NumParserERKN7openpal6RSliceERNS_12IAPDUHandlerE:
.LFB3118:
	.cfi_startproc
	mov	x7, x0
	stp	x29, x30, [sp, -96]!
	.cfi_def_cfa_offset 96
	.cfi_offset 29, -96
	.cfi_offset 30, -88
	adrp	x5, :got:_ZTVN8opendnp318BufferedCollectionINS_7IndexedINS_6BinaryEEEZNS_16CountIndexParser13InvokeCountOfINS_10Group2Var2EEEvRKNS_12HeaderRecordEtRKNS_9NumParserERKN7openpal6RSliceERNS_12IAPDUHandlerEEUlRSE_jE_EE
	mov	x29, sp
	adrp	x6, :got:__stack_chk_guard
	ldr	x5, [x5, #:got_lo12:_ZTVN8opendnp318BufferedCollectionINS_7IndexedINS_6BinaryEEEZNS_16CountIndexParser13InvokeCountOfINS_10Group2Var2EEEvRKNS_12HeaderRecordEtRKNS_9NumParserERKN7openpal6RSliceERNS_12IAPDUHandlerEEUlRSE_jE_EE]
	mov	x0, x4
	ldp	x8, x9, [x3]
	and	x4, x1, 65535
	ldp	x10, x11, [x7]
	mov	x3, x2
	ldr	x6, [x6, #:got_lo12:__stack_chk_guard]
	add	x5, x5, 16
	ldr	x2, [x6]
	str	x2, [sp, 88]
	mov	x2, 0
	stp	x10, x11, [sp, 24]
	add	x2, sp, 48
	strh	w1, [sp, 40]
	add	x1, sp, 24
	str	x5, [sp, 48]
	stp	x8, x9, [sp, 56]
	stp	x4, x3, [sp, 72]
	bl	_ZN8opendnp312IAPDUHandler8OnHeaderERKNS_12PrefixHeaderERKNS_11ICollectionINS_7IndexedINS_6BinaryEEEEE
	adrp	x0, :got:__stack_chk_guard
	ldr	x0, [x0, #:got_lo12:__stack_chk_guard]
	ldr	x2, [sp, 88]
	ldr	x1, [x0]
	subs	x2, x2, x1
	mov	x1, 0
	bne	.L61
	ldp	x29, x30, [sp], 96
	.cfi_remember_state
	.cfi_restore 30
	.cfi_restore 29
	.cfi_def_cfa_offset 0
	ret
.L61:
	.cfi_restore_state
	bl	__stack_chk_fail
	.cfi_endproc
.LFE3118:
	.size	_ZN8opendnp316CountIndexParser13InvokeCountOfINS_10Group2Var2EEEvRKNS_12HeaderRecordEtRKNS_9NumParserERKN7openpal6RSliceERNS_12IAPDUHandlerE, .-_ZN8opendnp316CountIndexParser13InvokeCountOfINS_10Group2Var2EEEvRKNS_12HeaderRecordEtRKNS_9NumParserERKN7openpal6RSliceERNS_12IAPDUHandlerE
	.section	.text._ZN8opendnp316CountIndexParser13InvokeCountOfINS_10Group2Var3EEEvRKNS_12HeaderRecordEtRKNS_9NumParserERKN7openpal6RSliceERNS_12IAPDUHandlerE,"axG",@progbits,_ZN8opendnp316CountIndexParser13InvokeCountOfINS_10Group2Var3EEEvRKNS_12HeaderRecordEtRKNS_9NumParserERKN7openpal6RSliceERNS_12IAPDUHandlerE,comdat
	.align	2
	.p2align 4,,11
	.weak	_ZN8opendnp316CountIndexParser13InvokeCountOfINS_10Group2Var3EEEvRKNS_12HeaderRecordEtRKNS_9NumParserERKN7openpal6RSliceERNS_12IAPDUHandlerE
	.type	_ZN8opendnp316CountIndexParser13InvokeCountOfINS_10Group2Var3EEEvRKNS_12HeaderRecordEtRKNS_9NumParserERKN7openpal6RSliceERNS_12IAPDUHandlerE, %function
_ZN8opendnp316CountIndexParser13InvokeCountOfINS_10Group2Var3EEEvRKNS_12HeaderRecordEtRKNS_9NumParserERKN7openpal6RSliceERNS_12IAPDUHandlerE:
.LFB3123:
	.cfi_startproc
	mov	x7, x0
	stp	x29, x30, [sp, -96]!
	.cfi_def_cfa_offset 96
	.cfi_offset 29, -96
	.cfi_offset 30, -88
	adrp	x5, :got:_ZTVN8opendnp318BufferedCollectionINS_7IndexedINS_6BinaryEEEZNS_16CountIndexParser13InvokeCountOfINS_10Group2Var3EEEvRKNS_12HeaderRecordEtRKNS_9NumParserERKN7openpal6RSliceERNS_12IAPDUHandlerEEUlRSE_jE_EE
	mov	x29, sp
	adrp	x6, :got:__stack_chk_guard
	ldr	x5, [x5, #:got_lo12:_ZTVN8opendnp318BufferedCollectionINS_7IndexedINS_6BinaryEEEZNS_16CountIndexParser13InvokeCountOfINS_10Group2Var3EEEvRKNS_12HeaderRecordEtRKNS_9NumParserERKN7openpal6RSliceERNS_12IAPDUHandlerEEUlRSE_jE_EE]
	mov	x0, x4
	ldp	x8, x9, [x3]
	and	x4, x1, 65535
	ldp	x10, x11, [x7]
	mov	x3, x2
	ldr	x6, [x6, #:got_lo12:__stack_chk_guard]
	add	x5, x5, 16
	ldr	x2, [x6]
	str	x2, [sp, 88]
	mov	x2, 0
	stp	x10, x11, [sp, 24]
	add	x2, sp, 48
	strh	w1, [sp, 40]
	add	x1, sp, 24
	str	x5, [sp, 48]
	stp	x8, x9, [sp, 56]
	stp	x4, x3, [sp, 72]
	bl	_ZN8opendnp312IAPDUHandler8OnHeaderERKNS_12PrefixHeaderERKNS_11ICollectionINS_7IndexedINS_6BinaryEEEEE
	adrp	x0, :got:__stack_chk_guard
	ldr	x0, [x0, #:got_lo12:__stack_chk_guard]
	ldr	x2, [sp, 88]
	ldr	x1, [x0]
	subs	x2, x2, x1
	mov	x1, 0
	bne	.L65
	ldp	x29, x30, [sp], 96
	.cfi_remember_state
	.cfi_restore 30
	.cfi_restore 29
	.cfi_def_cfa_offset 0
	ret
.L65:
	.cfi_restore_state
	bl	__stack_chk_fail
	.cfi_endproc
.LFE3123:
	.size	_ZN8opendnp316CountIndexParser13InvokeCountOfINS_10Group2Var3EEEvRKNS_12HeaderRecordEtRKNS_9NumParserERKN7openpal6RSliceERNS_12IAPDUHandlerE, .-_ZN8opendnp316CountIndexParser13InvokeCountOfINS_10Group2Var3EEEvRKNS_12HeaderRecordEtRKNS_9NumParserERKN7openpal6RSliceERNS_12IAPDUHandlerE
	.section	.text._ZN8opendnp316CountIndexParser13InvokeCountOfINS_10Group4Var1EEEvRKNS_12HeaderRecordEtRKNS_9NumParserERKN7openpal6RSliceERNS_12IAPDUHandlerE,"axG",@progbits,_ZN8opendnp316CountIndexParser13InvokeCountOfINS_10Group4Var1EEEvRKNS_12HeaderRecordEtRKNS_9NumParserERKN7openpal6RSliceERNS_12IAPDUHandlerE,comdat
	.align	2
	.p2align 4,,11
	.weak	_ZN8opendnp316CountIndexParser13InvokeCountOfINS_10Group4Var1EEEvRKNS_12HeaderRecordEtRKNS_9NumParserERKN7openpal6RSliceERNS_12IAPDUHandlerE
	.type	_ZN8opendnp316CountIndexParser13InvokeCountOfINS_10Group4Var1EEEvRKNS_12HeaderRecordEtRKNS_9NumParserERKN7openpal6RSliceERNS_12IAPDUHandlerE, %function
_ZN8opendnp316CountIndexParser13InvokeCountOfINS_10Group4Var1EEEvRKNS_12HeaderRecordEtRKNS_9NumParserERKN7openpal6RSliceERNS_12IAPDUHandlerE:
.LFB3128:
	.cfi_startproc
	mov	x7, x0
	stp	x29, x30, [sp, -96]!
	.cfi_def_cfa_offset 96
	.cfi_offset 29, -96
	.cfi_offset 30, -88
	adrp	x5, :got:_ZTVN8opendnp318BufferedCollectionINS_7IndexedINS_15DoubleBitBinaryEEEZNS_16CountIndexParser13InvokeCountOfINS_10Group4Var1EEEvRKNS_12HeaderRecordEtRKNS_9NumParserERKN7openpal6RSliceERNS_12IAPDUHandlerEEUlRSE_jE_EE
	mov	x29, sp
	adrp	x6, :got:__stack_chk_guard
	ldr	x5, [x5, #:got_lo12:_ZTVN8opendnp318BufferedCollectionINS_7IndexedINS_15DoubleBitBinaryEEEZNS_16CountIndexParser13InvokeCountOfINS_10Group4Var1EEEvRKNS_12HeaderRecordEtRKNS_9NumParserERKN7openpal6RSliceERNS_12IAPDUHandlerEEUlRSE_jE_EE]
	mov	x0, x4
	ldp	x8, x9, [x3]
	and	x4, x1, 65535
	ldp	x10, x11, [x7]
	mov	x3, x2
	ldr	x6, [x6, #:got_lo12:__stack_chk_guard]
	add	x5, x5, 16
	ldr	x2, [x6]
	str	x2, [sp, 88]
	mov	x2, 0
	stp	x10, x11, [sp, 24]
	add	x2, sp, 48
	strh	w1, [sp, 40]
	add	x1, sp, 24
	str	x5, [sp, 48]
	stp	x8, x9, [sp, 56]
	stp	x4, x3, [sp, 72]
	bl	_ZN8opendnp312IAPDUHandler8OnHeaderERKNS_12PrefixHeaderERKNS_11ICollectionINS_7IndexedINS_15DoubleBitBinaryEEEEE
	adrp	x0, :got:__stack_chk_guard
	ldr	x0, [x0, #:got_lo12:__stack_chk_guard]
	ldr	x2, [sp, 88]
	ldr	x1, [x0]
	subs	x2, x2, x1
	mov	x1, 0
	bne	.L69
	ldp	x29, x30, [sp], 96
	.cfi_remember_state
	.cfi_restore 30
	.cfi_restore 29
	.cfi_def_cfa_offset 0
	ret
.L69:
	.cfi_restore_state
	bl	__stack_chk_fail
	.cfi_endproc
.LFE3128:
	.size	_ZN8opendnp316CountIndexParser13InvokeCountOfINS_10Group4Var1EEEvRKNS_12HeaderRecordEtRKNS_9NumParserERKN7openpal6RSliceERNS_12IAPDUHandlerE, .-_ZN8opendnp316CountIndexParser13InvokeCountOfINS_10Group4Var1EEEvRKNS_12HeaderRecordEtRKNS_9NumParserERKN7openpal6RSliceERNS_12IAPDUHandlerE
	.section	.text._ZN8opendnp316CountIndexParser13InvokeCountOfINS_10Group4Var2EEEvRKNS_12HeaderRecordEtRKNS_9NumParserERKN7openpal6RSliceERNS_12IAPDUHandlerE,"axG",@progbits,_ZN8opendnp316CountIndexParser13InvokeCountOfINS_10Group4Var2EEEvRKNS_12HeaderRecordEtRKNS_9NumParserERKN7openpal6RSliceERNS_12IAPDUHandlerE,comdat
	.align	2
	.p2align 4,,11
	.weak	_ZN8opendnp316CountIndexParser13InvokeCountOfINS_10Group4Var2EEEvRKNS_12HeaderRecordEtRKNS_9NumParserERKN7openpal6RSliceERNS_12IAPDUHandlerE
	.type	_ZN8opendnp316CountIndexParser13InvokeCountOfINS_10Group4Var2EEEvRKNS_12HeaderRecordEtRKNS_9NumParserERKN7openpal6RSliceERNS_12IAPDUHandlerE, %function
_ZN8opendnp316CountIndexParser13InvokeCountOfINS_10Group4Var2EEEvRKNS_12HeaderRecordEtRKNS_9NumParserERKN7openpal6RSliceERNS_12IAPDUHandlerE:
.LFB3136:
	.cfi_startproc
	mov	x7, x0
	stp	x29, x30, [sp, -96]!
	.cfi_def_cfa_offset 96
	.cfi_offset 29, -96
	.cfi_offset 30, -88
	adrp	x5, :got:_ZTVN8opendnp318BufferedCollectionINS_7IndexedINS_15DoubleBitBinaryEEEZNS_16CountIndexParser13InvokeCountOfINS_10Group4Var2EEEvRKNS_12HeaderRecordEtRKNS_9NumParserERKN7openpal6RSliceERNS_12IAPDUHandlerEEUlRSE_jE_EE
	mov	x29, sp
	adrp	x6, :got:__stack_chk_guard
	ldr	x5, [x5, #:got_lo12:_ZTVN8opendnp318BufferedCollectionINS_7IndexedINS_15DoubleBitBinaryEEEZNS_16CountIndexParser13InvokeCountOfINS_10Group4Var2EEEvRKNS_12HeaderRecordEtRKNS_9NumParserERKN7openpal6RSliceERNS_12IAPDUHandlerEEUlRSE_jE_EE]
	mov	x0, x4
	ldp	x8, x9, [x3]
	and	x4, x1, 65535
	ldp	x10, x11, [x7]
	mov	x3, x2
	ldr	x6, [x6, #:got_lo12:__stack_chk_guard]
	add	x5, x5, 16
	ldr	x2, [x6]
	str	x2, [sp, 88]
	mov	x2, 0
	stp	x10, x11, [sp, 24]
	add	x2, sp, 48
	strh	w1, [sp, 40]
	add	x1, sp, 24
	str	x5, [sp, 48]
	stp	x8, x9, [sp, 56]
	stp	x4, x3, [sp, 72]
	bl	_ZN8opendnp312IAPDUHandler8OnHeaderERKNS_12PrefixHeaderERKNS_11ICollectionINS_7IndexedINS_15DoubleBitBinaryEEEEE
	adrp	x0, :got:__stack_chk_guard
	ldr	x0, [x0, #:got_lo12:__stack_chk_guard]
	ldr	x2, [sp, 88]
	ldr	x1, [x0]
	subs	x2, x2, x1
	mov	x1, 0
	bne	.L73
	ldp	x29, x30, [sp], 96
	.cfi_remember_state
	.cfi_restore 30
	.cfi_restore 29
	.cfi_def_cfa_offset 0
	ret
.L73:
	.cfi_restore_state
	bl	__stack_chk_fail
	.cfi_endproc
.LFE3136:
	.size	_ZN8opendnp316CountIndexParser13InvokeCountOfINS_10Group4Var2EEEvRKNS_12HeaderRecordEtRKNS_9NumParserERKN7openpal6RSliceERNS_12IAPDUHandlerE, .-_ZN8opendnp316CountIndexParser13InvokeCountOfINS_10Group4Var2EEEvRKNS_12HeaderRecordEtRKNS_9NumParserERKN7openpal6RSliceERNS_12IAPDUHandlerE
	.section	.text._ZN8opendnp316CountIndexParser13InvokeCountOfINS_10Group4Var3EEEvRKNS_12HeaderRecordEtRKNS_9NumParserERKN7openpal6RSliceERNS_12IAPDUHandlerE,"axG",@progbits,_ZN8opendnp316CountIndexParser13InvokeCountOfINS_10Group4Var3EEEvRKNS_12HeaderRecordEtRKNS_9NumParserERKN7openpal6RSliceERNS_12IAPDUHandlerE,comdat
	.align	2
	.p2align 4,,11
	.weak	_ZN8opendnp316CountIndexParser13InvokeCountOfINS_10Group4Var3EEEvRKNS_12HeaderRecordEtRKNS_9NumParserERKN7openpal6RSliceERNS_12IAPDUHandlerE
	.type	_ZN8opendnp316CountIndexParser13InvokeCountOfINS_10Group4Var3EEEvRKNS_12HeaderRecordEtRKNS_9NumParserERKN7openpal6RSliceERNS_12IAPDUHandlerE, %function
_ZN8opendnp316CountIndexParser13InvokeCountOfINS_10Group4Var3EEEvRKNS_12HeaderRecordEtRKNS_9NumParserERKN7openpal6RSliceERNS_12IAPDUHandlerE:
.LFB3141:
	.cfi_startproc
	mov	x7, x0
	stp	x29, x30, [sp, -96]!
	.cfi_def_cfa_offset 96
	.cfi_offset 29, -96
	.cfi_offset 30, -88
	adrp	x5, :got:_ZTVN8opendnp318BufferedCollectionINS_7IndexedINS_15DoubleBitBinaryEEEZNS_16CountIndexParser13InvokeCountOfINS_10Group4Var3EEEvRKNS_12HeaderRecordEtRKNS_9NumParserERKN7openpal6RSliceERNS_12IAPDUHandlerEEUlRSE_jE_EE
	mov	x29, sp
	adrp	x6, :got:__stack_chk_guard
	ldr	x5, [x5, #:got_lo12:_ZTVN8opendnp318BufferedCollectionINS_7IndexedINS_15DoubleBitBinaryEEEZNS_16CountIndexParser13InvokeCountOfINS_10Group4Var3EEEvRKNS_12HeaderRecordEtRKNS_9NumParserERKN7openpal6RSliceERNS_12IAPDUHandlerEEUlRSE_jE_EE]
	mov	x0, x4
	ldp	x8, x9, [x3]
	and	x4, x1, 65535
	ldp	x10, x11, [x7]
	mov	x3, x2
	ldr	x6, [x6, #:got_lo12:__stack_chk_guard]
	add	x5, x5, 16
	ldr	x2, [x6]
	str	x2, [sp, 88]
	mov	x2, 0
	stp	x10, x11, [sp, 24]
	add	x2, sp, 48
	strh	w1, [sp, 40]
	add	x1, sp, 24
	str	x5, [sp, 48]
	stp	x8, x9, [sp, 56]
	stp	x4, x3, [sp, 72]
	bl	_ZN8opendnp312IAPDUHandler8OnHeaderERKNS_12PrefixHeaderERKNS_11ICollectionINS_7IndexedINS_15DoubleBitBinaryEEEEE
	adrp	x0, :got:__stack_chk_guard
	ldr	x0, [x0, #:got_lo12:__stack_chk_guard]
	ldr	x2, [sp, 88]
	ldr	x1, [x0]
	subs	x2, x2, x1
	mov	x1, 0
	bne	.L77
	ldp	x29, x30, [sp], 96
	.cfi_remember_state
	.cfi_restore 30
	.cfi_restore 29
	.cfi_def_cfa_offset 0
	ret
.L77:
	.cfi_restore_state
	bl	__stack_chk_fail
	.cfi_endproc
.LFE3141:
	.size	_ZN8opendnp316CountIndexParser13InvokeCountOfINS_10Group4Var3EEEvRKNS_12HeaderRecordEtRKNS_9NumParserERKN7openpal6RSliceERNS_12IAPDUHandlerE, .-_ZN8opendnp316CountIndexParser13InvokeCountOfINS_10Group4Var3EEEvRKNS_12HeaderRecordEtRKNS_9NumParserERKN7openpal6RSliceERNS_12IAPDUHandlerE
	.section	.text._ZN8opendnp316CountIndexParser13InvokeCountOfINS_11Group11Var1EEEvRKNS_12HeaderRecordEtRKNS_9NumParserERKN7openpal6RSliceERNS_12IAPDUHandlerE,"axG",@progbits,_ZN8opendnp316CountIndexParser13InvokeCountOfINS_11Group11Var1EEEvRKNS_12HeaderRecordEtRKNS_9NumParserERKN7openpal6RSliceERNS_12IAPDUHandlerE,comdat
	.align	2
	.p2align 4,,11
	.weak	_ZN8opendnp316CountIndexParser13InvokeCountOfINS_11Group11Var1EEEvRKNS_12HeaderRecordEtRKNS_9NumParserERKN7openpal6RSliceERNS_12IAPDUHandlerE
	.type	_ZN8opendnp316CountIndexParser13InvokeCountOfINS_11Group11Var1EEEvRKNS_12HeaderRecordEtRKNS_9NumParserERKN7openpal6RSliceERNS_12IAPDUHandlerE, %function
_ZN8opendnp316CountIndexParser13InvokeCountOfINS_11Group11Var1EEEvRKNS_12HeaderRecordEtRKNS_9NumParserERKN7openpal6RSliceERNS_12IAPDUHandlerE:
.LFB3146:
	.cfi_startproc
	mov	x7, x0
	stp	x29, x30, [sp, -96]!
	.cfi_def_cfa_offset 96
	.cfi_offset 29, -96
	.cfi_offset 30, -88
	adrp	x5, :got:_ZTVN8opendnp318BufferedCollectionINS_7IndexedINS_18BinaryOutputStatusEEEZNS_16CountIndexParser13InvokeCountOfINS_11Group11Var1EEEvRKNS_12HeaderRecordEtRKNS_9NumParserERKN7openpal6RSliceERNS_12IAPDUHandlerEEUlRSE_jE_EE
	mov	x29, sp
	adrp	x6, :got:__stack_chk_guard
	ldr	x5, [x5, #:got_lo12:_ZTVN8opendnp318BufferedCollectionINS_7IndexedINS_18BinaryOutputStatusEEEZNS_16CountIndexParser13InvokeCountOfINS_11Group11Var1EEEvRKNS_12HeaderRecordEtRKNS_9NumParserERKN7openpal6RSliceERNS_12IAPDUHandlerEEUlRSE_jE_EE]
	mov	x0, x4
	ldp	x8, x9, [x3]
	and	x4, x1, 65535
	ldp	x10, x11, [x7]
	mov	x3, x2
	ldr	x6, [x6, #:got_lo12:__stack_chk_guard]
	add	x5, x5, 16
	ldr	x2, [x6]
	str	x2, [sp, 88]
	mov	x2, 0
	stp	x10, x11, [sp, 24]
	add	x2, sp, 48
	strh	w1, [sp, 40]
	add	x1, sp, 24
	str	x5, [sp, 48]
	stp	x8, x9, [sp, 56]
	stp	x4, x3, [sp, 72]
	bl	_ZN8opendnp312IAPDUHandler8OnHeaderERKNS_12PrefixHeaderERKNS_11ICollectionINS_7IndexedINS_18BinaryOutputStatusEEEEE
	adrp	x0, :got:__stack_chk_guard
	ldr	x0, [x0, #:got_lo12:__stack_chk_guard]
	ldr	x2, [sp, 88]
	ldr	x1, [x0]
	subs	x2, x2, x1
	mov	x1, 0
	bne	.L81
	ldp	x29, x30, [sp], 96
	.cfi_remember_state
	.cfi_restore 30
	.cfi_restore 29
	.cfi_def_cfa_offset 0
	ret
.L81:
	.cfi_restore_state
	bl	__stack_chk_fail
	.cfi_endproc
.LFE3146:
	.size	_ZN8opendnp316CountIndexParser13InvokeCountOfINS_11Group11Var1EEEvRKNS_12HeaderRecordEtRKNS_9NumParserERKN7openpal6RSliceERNS_12IAPDUHandlerE, .-_ZN8opendnp316CountIndexParser13InvokeCountOfINS_11Group11Var1EEEvRKNS_12HeaderRecordEtRKNS_9NumParserERKN7openpal6RSliceERNS_12IAPDUHandlerE
	.section	.text._ZN8opendnp316CountIndexParser13InvokeCountOfINS_11Group11Var2EEEvRKNS_12HeaderRecordEtRKNS_9NumParserERKN7openpal6RSliceERNS_12IAPDUHandlerE,"axG",@progbits,_ZN8opendnp316CountIndexParser13InvokeCountOfINS_11Group11Var2EEEvRKNS_12HeaderRecordEtRKNS_9NumParserERKN7openpal6RSliceERNS_12IAPDUHandlerE,comdat
	.align	2
	.p2align 4,,11
	.weak	_ZN8opendnp316CountIndexParser13InvokeCountOfINS_11Group11Var2EEEvRKNS_12HeaderRecordEtRKNS_9NumParserERKN7openpal6RSliceERNS_12IAPDUHandlerE
	.type	_ZN8opendnp316CountIndexParser13InvokeCountOfINS_11Group11Var2EEEvRKNS_12HeaderRecordEtRKNS_9NumParserERKN7openpal6RSliceERNS_12IAPDUHandlerE, %function
_ZN8opendnp316CountIndexParser13InvokeCountOfINS_11Group11Var2EEEvRKNS_12HeaderRecordEtRKNS_9NumParserERKN7openpal6RSliceERNS_12IAPDUHandlerE:
.LFB3154:
	.cfi_startproc
	mov	x7, x0
	stp	x29, x30, [sp, -96]!
	.cfi_def_cfa_offset 96
	.cfi_offset 29, -96
	.cfi_offset 30, -88
	adrp	x5, :got:_ZTVN8opendnp318BufferedCollectionINS_7IndexedINS_18BinaryOutputStatusEEEZNS_16CountIndexParser13InvokeCountOfINS_11Group11Var2EEEvRKNS_12HeaderRecordEtRKNS_9NumParserERKN7openpal6RSliceERNS_12IAPDUHandlerEEUlRSE_jE_EE
	mov	x29, sp
	adrp	x6, :got:__stack_chk_guard
	ldr	x5, [x5, #:got_lo12:_ZTVN8opendnp318BufferedCollectionINS_7IndexedINS_18BinaryOutputStatusEEEZNS_16CountIndexParser13InvokeCountOfINS_11Group11Var2EEEvRKNS_12HeaderRecordEtRKNS_9NumParserERKN7openpal6RSliceERNS_12IAPDUHandlerEEUlRSE_jE_EE]
	mov	x0, x4
	ldp	x8, x9, [x3]
	and	x4, x1, 65535
	ldp	x10, x11, [x7]
	mov	x3, x2
	ldr	x6, [x6, #:got_lo12:__stack_chk_guard]
	add	x5, x5, 16
	ldr	x2, [x6]
	str	x2, [sp, 88]
	mov	x2, 0
	stp	x10, x11, [sp, 24]
	add	x2, sp, 48
	strh	w1, [sp, 40]
	add	x1, sp, 24
	str	x5, [sp, 48]
	stp	x8, x9, [sp, 56]
	stp	x4, x3, [sp, 72]
	bl	_ZN8opendnp312IAPDUHandler8OnHeaderERKNS_12PrefixHeaderERKNS_11ICollectionINS_7IndexedINS_18BinaryOutputStatusEEEEE
	adrp	x0, :got:__stack_chk_guard
	ldr	x0, [x0, #:got_lo12:__stack_chk_guard]
	ldr	x2, [sp, 88]
	ldr	x1, [x0]
	subs	x2, x2, x1
	mov	x1, 0
	bne	.L85
	ldp	x29, x30, [sp], 96
	.cfi_remember_state
	.cfi_restore 30
	.cfi_restore 29
	.cfi_def_cfa_offset 0
	ret
.L85:
	.cfi_restore_state
	bl	__stack_chk_fail
	.cfi_endproc
.LFE3154:
	.size	_ZN8opendnp316CountIndexParser13InvokeCountOfINS_11Group11Var2EEEvRKNS_12HeaderRecordEtRKNS_9NumParserERKN7openpal6RSliceERNS_12IAPDUHandlerE, .-_ZN8opendnp316CountIndexParser13InvokeCountOfINS_11Group11Var2EEEvRKNS_12HeaderRecordEtRKNS_9NumParserERKN7openpal6RSliceERNS_12IAPDUHandlerE
	.section	.text._ZN8opendnp316CountIndexParser13InvokeCountOfINS_11Group12Var1EEEvRKNS_12HeaderRecordEtRKNS_9NumParserERKN7openpal6RSliceERNS_12IAPDUHandlerE,"axG",@progbits,_ZN8opendnp316CountIndexParser13InvokeCountOfINS_11Group12Var1EEEvRKNS_12HeaderRecordEtRKNS_9NumParserERKN7openpal6RSliceERNS_12IAPDUHandlerE,comdat
	.align	2
	.p2align 4,,11
	.weak	_ZN8opendnp316CountIndexParser13InvokeCountOfINS_11Group12Var1EEEvRKNS_12HeaderRecordEtRKNS_9NumParserERKN7openpal6RSliceERNS_12IAPDUHandlerE
	.type	_ZN8opendnp316CountIndexParser13InvokeCountOfINS_11Group12Var1EEEvRKNS_12HeaderRecordEtRKNS_9NumParserERKN7openpal6RSliceERNS_12IAPDUHandlerE, %function
_ZN8opendnp316CountIndexParser13InvokeCountOfINS_11Group12Var1EEEvRKNS_12HeaderRecordEtRKNS_9NumParserERKN7openpal6RSliceERNS_12IAPDUHandlerE:
.LFB3159:
	.cfi_startproc
	mov	x7, x0
	stp	x29, x30, [sp, -96]!
	.cfi_def_cfa_offset 96
	.cfi_offset 29, -96
	.cfi_offset 30, -88
	adrp	x5, :got:_ZTVN8opendnp318BufferedCollectionINS_7IndexedINS_23ControlRelayOutputBlockEEEZNS_16CountIndexParser13InvokeCountOfINS_11Group12Var1EEEvRKNS_12HeaderRecordEtRKNS_9NumParserERKN7openpal6RSliceERNS_12IAPDUHandlerEEUlRSE_jE_EE
	mov	x29, sp
	adrp	x6, :got:__stack_chk_guard
	ldr	x5, [x5, #:got_lo12:_ZTVN8opendnp318BufferedCollectionINS_7IndexedINS_23ControlRelayOutputBlockEEEZNS_16CountIndexParser13InvokeCountOfINS_11Group12Var1EEEvRKNS_12HeaderRecordEtRKNS_9NumParserERKN7openpal6RSliceERNS_12IAPDUHandlerEEUlRSE_jE_EE]
	mov	x0, x4
	ldp	x8, x9, [x3]
	and	x4, x1, 65535
	ldp	x10, x11, [x7]
	mov	x3, x2
	ldr	x6, [x6, #:got_lo12:__stack_chk_guard]
	add	x5, x5, 16
	ldr	x2, [x6]
	str	x2, [sp, 88]
	mov	x2, 0
	stp	x10, x11, [sp, 24]
	add	x2, sp, 48
	strh	w1, [sp, 40]
	add	x1, sp, 24
	str	x5, [sp, 48]
	stp	x8, x9, [sp, 56]
	stp	x4, x3, [sp, 72]
	bl	_ZN8opendnp312IAPDUHandler8OnHeaderERKNS_12PrefixHeaderERKNS_11ICollectionINS_7IndexedINS_23ControlRelayOutputBlockEEEEE
	adrp	x0, :got:__stack_chk_guard
	ldr	x0, [x0, #:got_lo12:__stack_chk_guard]
	ldr	x2, [sp, 88]
	ldr	x1, [x0]
	subs	x2, x2, x1
	mov	x1, 0
	bne	.L89
	ldp	x29, x30, [sp], 96
	.cfi_remember_state
	.cfi_restore 30
	.cfi_restore 29
	.cfi_def_cfa_offset 0
	ret
.L89:
	.cfi_restore_state
	bl	__stack_chk_fail
	.cfi_endproc
.LFE3159:
	.size	_ZN8opendnp316CountIndexParser13InvokeCountOfINS_11Group12Var1EEEvRKNS_12HeaderRecordEtRKNS_9NumParserERKN7openpal6RSliceERNS_12IAPDUHandlerE, .-_ZN8opendnp316CountIndexParser13InvokeCountOfINS_11Group12Var1EEEvRKNS_12HeaderRecordEtRKNS_9NumParserERKN7openpal6RSliceERNS_12IAPDUHandlerE
	.section	.text._ZNK8opendnp318BufferedCollectionINS_7IndexedINS_23ControlRelayOutputBlockEEEZNS_16CountIndexParser13InvokeCountOfINS_11Group12Var1EEEvRKNS_12HeaderRecordEtRKNS_9NumParserERKN7openpal6RSliceERNS_12IAPDUHandlerEEUlRSE_jE_E7ForeachERNS_8IVisitorIS3_EE,"axG",@progbits,_ZNK8opendnp318BufferedCollectionINS_7IndexedINS_23ControlRelayOutputBlockEEEZNS_16CountIndexParser13InvokeCountOfINS_11Group12Var1EEEvRKNS_12HeaderRecordEtRKNS_9NumParserERKN7openpal6RSliceERNS_12IAPDUHandlerEEUlRSE_jE_E7ForeachERNS_8IVisitorIS3_EE,comdat
	.align	2
	.p2align 4,,11
	.weak	_ZNK8opendnp318BufferedCollectionINS_7IndexedINS_23ControlRelayOutputBlockEEEZNS_16CountIndexParser13InvokeCountOfINS_11Group12Var1EEEvRKNS_12HeaderRecordEtRKNS_9NumParserERKN7openpal6RSliceERNS_12IAPDUHandlerEEUlRSE_jE_E7ForeachERNS_8IVisitorIS3_EE
	.type	_ZNK8opendnp318BufferedCollectionINS_7IndexedINS_23ControlRelayOutputBlockEEEZNS_16CountIndexParser13InvokeCountOfINS_11Group12Var1EEEvRKNS_12HeaderRecordEtRKNS_9NumParserERKN7openpal6RSliceERNS_12IAPDUHandlerEEUlRSE_jE_E7ForeachERNS_8IVisitorIS3_EE, %function
_ZNK8opendnp318BufferedCollectionINS_7IndexedINS_23ControlRelayOutputBlockEEEZNS_16CountIndexParser13InvokeCountOfINS_11Group12Var1EEEvRKNS_12HeaderRecordEtRKNS_9NumParserERKN7openpal6RSliceERNS_12IAPDUHandlerEEUlRSE_jE_E7ForeachERNS_8IVisitorIS3_EE:
.LFB4063:
	.cfi_startproc
	stp	x29, x30, [sp, -112]!
	.cfi_def_cfa_offset 112
	.cfi_offset 29, -112
	.cfi_offset 30, -104
	adrp	x2, :got:__stack_chk_guard
	mov	x29, sp
	ldr	x2, [x2, #:got_lo12:__stack_chk_guard]
	stp	x21, x22, [sp, 32]
	.cfi_offset 21, -80
	.cfi_offset 22, -72
	mov	x21, x0
	mov	x22, x1
	ldr	x1, [x2]
	str	x1, [sp, 104]
	mov	x1, 0
	ldp	x2, x3, [x0, 8]
	stp	x2, x3, [sp, 64]
	ldr	x0, [x0, 24]
	cbz	x0, .L90
	stp	x19, x20, [sp, 16]
	.cfi_offset 20, -88
	.cfi_offset 19, -96
	add	x20, sp, 80
	mov	w19, 0
	stp	x23, x24, [sp, 48]
	.cfi_offset 24, -56
	.cfi_offset 23, -64
	add	x23, sp, 64
	.p2align 3,,7
.L92:
	mov	w4, 100
	ldr	x6, [x22]
	mov	w3, w4
	mov	w5, 0
	mov	w2, 1
	mov	x0, x20
	mov	w1, 3
	ldr	x24, [x6]
	bl	_ZN8opendnp323ControlRelayOutputBlockC1ENS_11ControlCodeEhjjNS_13CommandStatusE
	ldr	x0, [x21, 32]
	mov	x1, x23
	strh	wzr, [sp, 96]
	add	w19, w19, 1
	bl	_ZNK8opendnp39NumParser7ReadNumERN7openpal6RSliceE
	mov	w2, w0
	mov	x1, x20
	mov	x0, x23
	strh	w2, [sp, 96]
	bl	_ZN8opendnp311Group12Var110ReadTargetERN7openpal6RSliceERNS_23ControlRelayOutputBlockE
	mov	x0, x22
	mov	x1, x20
	blr	x24
	ldr	x0, [x21, 24]
	cmp	x0, w19, uxtw
	bhi	.L92
	ldp	x19, x20, [sp, 16]
	.cfi_restore 20
	.cfi_restore 19
	ldp	x23, x24, [sp, 48]
	.cfi_restore 24
	.cfi_restore 23
.L90:
	adrp	x0, :got:__stack_chk_guard
	ldr	x0, [x0, #:got_lo12:__stack_chk_guard]
	ldr	x2, [sp, 104]
	ldr	x1, [x0]
	subs	x2, x2, x1
	mov	x1, 0
	bne	.L99
	ldp	x21, x22, [sp, 32]
	ldp	x29, x30, [sp], 112
	.cfi_remember_state
	.cfi_restore 30
	.cfi_restore 29
	.cfi_restore 21
	.cfi_restore 22
	.cfi_def_cfa_offset 0
	ret
.L99:
	.cfi_restore_state
	stp	x19, x20, [sp, 16]
	.cfi_offset 20, -88
	.cfi_offset 19, -96
	stp	x23, x24, [sp, 48]
	.cfi_offset 24, -56
	.cfi_offset 23, -64
	bl	__stack_chk_fail
	.cfi_endproc
.LFE4063:
	.size	_ZNK8opendnp318BufferedCollectionINS_7IndexedINS_23ControlRelayOutputBlockEEEZNS_16CountIndexParser13InvokeCountOfINS_11Group12Var1EEEvRKNS_12HeaderRecordEtRKNS_9NumParserERKN7openpal6RSliceERNS_12IAPDUHandlerEEUlRSE_jE_E7ForeachERNS_8IVisitorIS3_EE, .-_ZNK8opendnp318BufferedCollectionINS_7IndexedINS_23ControlRelayOutputBlockEEEZNS_16CountIndexParser13InvokeCountOfINS_11Group12Var1EEEvRKNS_12HeaderRecordEtRKNS_9NumParserERKN7openpal6RSliceERNS_12IAPDUHandlerEEUlRSE_jE_E7ForeachERNS_8IVisitorIS3_EE
	.section	.text._ZN8opendnp316CountIndexParser13InvokeCountOfINS_11Group13Var1EEEvRKNS_12HeaderRecordEtRKNS_9NumParserERKN7openpal6RSliceERNS_12IAPDUHandlerE,"axG",@progbits,_ZN8opendnp316CountIndexParser13InvokeCountOfINS_11Group13Var1EEEvRKNS_12HeaderRecordEtRKNS_9NumParserERKN7openpal6RSliceERNS_12IAPDUHandlerE,comdat
	.align	2
	.p2align 4,,11
	.weak	_ZN8opendnp316CountIndexParser13InvokeCountOfINS_11Group13Var1EEEvRKNS_12HeaderRecordEtRKNS_9NumParserERKN7openpal6RSliceERNS_12IAPDUHandlerE
	.type	_ZN8opendnp316CountIndexParser13InvokeCountOfINS_11Group13Var1EEEvRKNS_12HeaderRecordEtRKNS_9NumParserERKN7openpal6RSliceERNS_12IAPDUHandlerE, %function
_ZN8opendnp316CountIndexParser13InvokeCountOfINS_11Group13Var1EEEvRKNS_12HeaderRecordEtRKNS_9NumParserERKN7openpal6RSliceERNS_12IAPDUHandlerE:
.LFB3167:
	.cfi_startproc
	mov	x7, x0
	stp	x29, x30, [sp, -96]!
	.cfi_def_cfa_offset 96
	.cfi_offset 29, -96
	.cfi_offset 30, -88
	adrp	x5, :got:_ZTVN8opendnp318BufferedCollectionINS_7IndexedINS_18BinaryCommandEventEEEZNS_16CountIndexParser13InvokeCountOfINS_11Group13Var1EEEvRKNS_12HeaderRecordEtRKNS_9NumParserERKN7openpal6RSliceERNS_12IAPDUHandlerEEUlRSE_jE_EE
	mov	x29, sp
	adrp	x6, :got:__stack_chk_guard
	ldr	x5, [x5, #:got_lo12:_ZTVN8opendnp318BufferedCollectionINS_7IndexedINS_18BinaryCommandEventEEEZNS_16CountIndexParser13InvokeCountOfINS_11Group13Var1EEEvRKNS_12HeaderRecordEtRKNS_9NumParserERKN7openpal6RSliceERNS_12IAPDUHandlerEEUlRSE_jE_EE]
	mov	x0, x4
	ldp	x8, x9, [x3]
	and	x4, x1, 65535
	ldp	x10, x11, [x7]
	mov	x3, x2
	ldr	x6, [x6, #:got_lo12:__stack_chk_guard]
	add	x5, x5, 16
	ldr	x2, [x6]
	str	x2, [sp, 88]
	mov	x2, 0
	stp	x10, x11, [sp, 24]
	add	x2, sp, 48
	strh	w1, [sp, 40]
	add	x1, sp, 24
	str	x5, [sp, 48]
	stp	x8, x9, [sp, 56]
	stp	x4, x3, [sp, 72]
	bl	_ZN8opendnp312IAPDUHandler8OnHeaderERKNS_12PrefixHeaderERKNS_11ICollectionINS_7IndexedINS_18BinaryCommandEventEEEEE
	adrp	x0, :got:__stack_chk_guard
	ldr	x0, [x0, #:got_lo12:__stack_chk_guard]
	ldr	x2, [sp, 88]
	ldr	x1, [x0]
	subs	x2, x2, x1
	mov	x1, 0
	bne	.L103
	ldp	x29, x30, [sp], 96
	.cfi_remember_state
	.cfi_restore 30
	.cfi_restore 29
	.cfi_def_cfa_offset 0
	ret
.L103:
	.cfi_restore_state
	bl	__stack_chk_fail
	.cfi_endproc
.LFE3167:
	.size	_ZN8opendnp316CountIndexParser13InvokeCountOfINS_11Group13Var1EEEvRKNS_12HeaderRecordEtRKNS_9NumParserERKN7openpal6RSliceERNS_12IAPDUHandlerE, .-_ZN8opendnp316CountIndexParser13InvokeCountOfINS_11Group13Var1EEEvRKNS_12HeaderRecordEtRKNS_9NumParserERKN7openpal6RSliceERNS_12IAPDUHandlerE
	.section	.text._ZN8opendnp316CountIndexParser13InvokeCountOfINS_11Group13Var2EEEvRKNS_12HeaderRecordEtRKNS_9NumParserERKN7openpal6RSliceERNS_12IAPDUHandlerE,"axG",@progbits,_ZN8opendnp316CountIndexParser13InvokeCountOfINS_11Group13Var2EEEvRKNS_12HeaderRecordEtRKNS_9NumParserERKN7openpal6RSliceERNS_12IAPDUHandlerE,comdat
	.align	2
	.p2align 4,,11
	.weak	_ZN8opendnp316CountIndexParser13InvokeCountOfINS_11Group13Var2EEEvRKNS_12HeaderRecordEtRKNS_9NumParserERKN7openpal6RSliceERNS_12IAPDUHandlerE
	.type	_ZN8opendnp316CountIndexParser13InvokeCountOfINS_11Group13Var2EEEvRKNS_12HeaderRecordEtRKNS_9NumParserERKN7openpal6RSliceERNS_12IAPDUHandlerE, %function
_ZN8opendnp316CountIndexParser13InvokeCountOfINS_11Group13Var2EEEvRKNS_12HeaderRecordEtRKNS_9NumParserERKN7openpal6RSliceERNS_12IAPDUHandlerE:
.LFB3175:
	.cfi_startproc
	mov	x7, x0
	stp	x29, x30, [sp, -96]!
	.cfi_def_cfa_offset 96
	.cfi_offset 29, -96
	.cfi_offset 30, -88
	adrp	x5, :got:_ZTVN8opendnp318BufferedCollectionINS_7IndexedINS_18BinaryCommandEventEEEZNS_16CountIndexParser13InvokeCountOfINS_11Group13Var2EEEvRKNS_12HeaderRecordEtRKNS_9NumParserERKN7openpal6RSliceERNS_12IAPDUHandlerEEUlRSE_jE_EE
	mov	x29, sp
	adrp	x6, :got:__stack_chk_guard
	ldr	x5, [x5, #:got_lo12:_ZTVN8opendnp318BufferedCollectionINS_7IndexedINS_18BinaryCommandEventEEEZNS_16CountIndexParser13InvokeCountOfINS_11Group13Var2EEEvRKNS_12HeaderRecordEtRKNS_9NumParserERKN7openpal6RSliceERNS_12IAPDUHandlerEEUlRSE_jE_EE]
	mov	x0, x4
	ldp	x8, x9, [x3]
	and	x4, x1, 65535
	ldp	x10, x11, [x7]
	mov	x3, x2
	ldr	x6, [x6, #:got_lo12:__stack_chk_guard]
	add	x5, x5, 16
	ldr	x2, [x6]
	str	x2, [sp, 88]
	mov	x2, 0
	stp	x10, x11, [sp, 24]
	add	x2, sp, 48
	strh	w1, [sp, 40]
	add	x1, sp, 24
	str	x5, [sp, 48]
	stp	x8, x9, [sp, 56]
	stp	x4, x3, [sp, 72]
	bl	_ZN8opendnp312IAPDUHandler8OnHeaderERKNS_12PrefixHeaderERKNS_11ICollectionINS_7IndexedINS_18BinaryCommandEventEEEEE
	adrp	x0, :got:__stack_chk_guard
	ldr	x0, [x0, #:got_lo12:__stack_chk_guard]
	ldr	x2, [sp, 88]
	ldr	x1, [x0]
	subs	x2, x2, x1
	mov	x1, 0
	bne	.L107
	ldp	x29, x30, [sp], 96
	.cfi_remember_state
	.cfi_restore 30
	.cfi_restore 29
	.cfi_def_cfa_offset 0
	ret
.L107:
	.cfi_restore_state
	bl	__stack_chk_fail
	.cfi_endproc
.LFE3175:
	.size	_ZN8opendnp316CountIndexParser13InvokeCountOfINS_11Group13Var2EEEvRKNS_12HeaderRecordEtRKNS_9NumParserERKN7openpal6RSliceERNS_12IAPDUHandlerE, .-_ZN8opendnp316CountIndexParser13InvokeCountOfINS_11Group13Var2EEEvRKNS_12HeaderRecordEtRKNS_9NumParserERKN7openpal6RSliceERNS_12IAPDUHandlerE
	.section	.text._ZN8opendnp316CountIndexParser13InvokeCountOfINS_11Group22Var1EEEvRKNS_12HeaderRecordEtRKNS_9NumParserERKN7openpal6RSliceERNS_12IAPDUHandlerE,"axG",@progbits,_ZN8opendnp316CountIndexParser13InvokeCountOfINS_11Group22Var1EEEvRKNS_12HeaderRecordEtRKNS_9NumParserERKN7openpal6RSliceERNS_12IAPDUHandlerE,comdat
	.align	2
	.p2align 4,,11
	.weak	_ZN8opendnp316CountIndexParser13InvokeCountOfINS_11Group22Var1EEEvRKNS_12HeaderRecordEtRKNS_9NumParserERKN7openpal6RSliceERNS_12IAPDUHandlerE
	.type	_ZN8opendnp316CountIndexParser13InvokeCountOfINS_11Group22Var1EEEvRKNS_12HeaderRecordEtRKNS_9NumParserERKN7openpal6RSliceERNS_12IAPDUHandlerE, %function
_ZN8opendnp316CountIndexParser13InvokeCountOfINS_11Group22Var1EEEvRKNS_12HeaderRecordEtRKNS_9NumParserERKN7openpal6RSliceERNS_12IAPDUHandlerE:
.LFB3180:
	.cfi_startproc
	mov	x7, x0
	stp	x29, x30, [sp, -96]!
	.cfi_def_cfa_offset 96
	.cfi_offset 29, -96
	.cfi_offset 30, -88
	adrp	x5, :got:_ZTVN8opendnp318BufferedCollectionINS_7IndexedINS_7CounterEEEZNS_16CountIndexParser13InvokeCountOfINS_11Group22Var1EEEvRKNS_12HeaderRecordEtRKNS_9NumParserERKN7openpal6RSliceERNS_12IAPDUHandlerEEUlRSE_jE_EE
	mov	x29, sp
	adrp	x6, :got:__stack_chk_guard
	ldr	x5, [x5, #:got_lo12:_ZTVN8opendnp318BufferedCollectionINS_7IndexedINS_7CounterEEEZNS_16CountIndexParser13InvokeCountOfINS_11Group22Var1EEEvRKNS_12HeaderRecordEtRKNS_9NumParserERKN7openpal6RSliceERNS_12IAPDUHandlerEEUlRSE_jE_EE]
	mov	x0, x4
	ldp	x8, x9, [x3]
	and	x4, x1, 65535
	ldp	x10, x11, [x7]
	mov	x3, x2
	ldr	x6, [x6, #:got_lo12:__stack_chk_guard]
	add	x5, x5, 16
	ldr	x2, [x6]
	str	x2, [sp, 88]
	mov	x2, 0
	stp	x10, x11, [sp, 24]
	add	x2, sp, 48
	strh	w1, [sp, 40]
	add	x1, sp, 24
	str	x5, [sp, 48]
	stp	x8, x9, [sp, 56]
	stp	x4, x3, [sp, 72]
	bl	_ZN8opendnp312IAPDUHandler8OnHeaderERKNS_12PrefixHeaderERKNS_11ICollectionINS_7IndexedINS_7CounterEEEEE
	adrp	x0, :got:__stack_chk_guard
	ldr	x0, [x0, #:got_lo12:__stack_chk_guard]
	ldr	x2, [sp, 88]
	ldr	x1, [x0]
	subs	x2, x2, x1
	mov	x1, 0
	bne	.L111
	ldp	x29, x30, [sp], 96
	.cfi_remember_state
	.cfi_restore 30
	.cfi_restore 29
	.cfi_def_cfa_offset 0
	ret
.L111:
	.cfi_restore_state
	bl	__stack_chk_fail
	.cfi_endproc
.LFE3180:
	.size	_ZN8opendnp316CountIndexParser13InvokeCountOfINS_11Group22Var1EEEvRKNS_12HeaderRecordEtRKNS_9NumParserERKN7openpal6RSliceERNS_12IAPDUHandlerE, .-_ZN8opendnp316CountIndexParser13InvokeCountOfINS_11Group22Var1EEEvRKNS_12HeaderRecordEtRKNS_9NumParserERKN7openpal6RSliceERNS_12IAPDUHandlerE
	.section	.text._ZN8opendnp316CountIndexParser13InvokeCountOfINS_11Group22Var2EEEvRKNS_12HeaderRecordEtRKNS_9NumParserERKN7openpal6RSliceERNS_12IAPDUHandlerE,"axG",@progbits,_ZN8opendnp316CountIndexParser13InvokeCountOfINS_11Group22Var2EEEvRKNS_12HeaderRecordEtRKNS_9NumParserERKN7openpal6RSliceERNS_12IAPDUHandlerE,comdat
	.align	2
	.p2align 4,,11
	.weak	_ZN8opendnp316CountIndexParser13InvokeCountOfINS_11Group22Var2EEEvRKNS_12HeaderRecordEtRKNS_9NumParserERKN7openpal6RSliceERNS_12IAPDUHandlerE
	.type	_ZN8opendnp316CountIndexParser13InvokeCountOfINS_11Group22Var2EEEvRKNS_12HeaderRecordEtRKNS_9NumParserERKN7openpal6RSliceERNS_12IAPDUHandlerE, %function
_ZN8opendnp316CountIndexParser13InvokeCountOfINS_11Group22Var2EEEvRKNS_12HeaderRecordEtRKNS_9NumParserERKN7openpal6RSliceERNS_12IAPDUHandlerE:
.LFB3188:
	.cfi_startproc
	mov	x7, x0
	stp	x29, x30, [sp, -96]!
	.cfi_def_cfa_offset 96
	.cfi_offset 29, -96
	.cfi_offset 30, -88
	adrp	x5, :got:_ZTVN8opendnp318BufferedCollectionINS_7IndexedINS_7CounterEEEZNS_16CountIndexParser13InvokeCountOfINS_11Group22Var2EEEvRKNS_12HeaderRecordEtRKNS_9NumParserERKN7openpal6RSliceERNS_12IAPDUHandlerEEUlRSE_jE_EE
	mov	x29, sp
	adrp	x6, :got:__stack_chk_guard
	ldr	x5, [x5, #:got_lo12:_ZTVN8opendnp318BufferedCollectionINS_7IndexedINS_7CounterEEEZNS_16CountIndexParser13InvokeCountOfINS_11Group22Var2EEEvRKNS_12HeaderRecordEtRKNS_9NumParserERKN7openpal6RSliceERNS_12IAPDUHandlerEEUlRSE_jE_EE]
	mov	x0, x4
	ldp	x8, x9, [x3]
	and	x4, x1, 65535
	ldp	x10, x11, [x7]
	mov	x3, x2
	ldr	x6, [x6, #:got_lo12:__stack_chk_guard]
	add	x5, x5, 16
	ldr	x2, [x6]
	str	x2, [sp, 88]
	mov	x2, 0
	stp	x10, x11, [sp, 24]
	add	x2, sp, 48
	strh	w1, [sp, 40]
	add	x1, sp, 24
	str	x5, [sp, 48]
	stp	x8, x9, [sp, 56]
	stp	x4, x3, [sp, 72]
	bl	_ZN8opendnp312IAPDUHandler8OnHeaderERKNS_12PrefixHeaderERKNS_11ICollectionINS_7IndexedINS_7CounterEEEEE
	adrp	x0, :got:__stack_chk_guard
	ldr	x0, [x0, #:got_lo12:__stack_chk_guard]
	ldr	x2, [sp, 88]
	ldr	x1, [x0]
	subs	x2, x2, x1
	mov	x1, 0
	bne	.L115
	ldp	x29, x30, [sp], 96
	.cfi_remember_state
	.cfi_restore 30
	.cfi_restore 29
	.cfi_def_cfa_offset 0
	ret
.L115:
	.cfi_restore_state
	bl	__stack_chk_fail
	.cfi_endproc
.LFE3188:
	.size	_ZN8opendnp316CountIndexParser13InvokeCountOfINS_11Group22Var2EEEvRKNS_12HeaderRecordEtRKNS_9NumParserERKN7openpal6RSliceERNS_12IAPDUHandlerE, .-_ZN8opendnp316CountIndexParser13InvokeCountOfINS_11Group22Var2EEEvRKNS_12HeaderRecordEtRKNS_9NumParserERKN7openpal6RSliceERNS_12IAPDUHandlerE
	.section	.text._ZN8opendnp316CountIndexParser13InvokeCountOfINS_11Group22Var5EEEvRKNS_12HeaderRecordEtRKNS_9NumParserERKN7openpal6RSliceERNS_12IAPDUHandlerE,"axG",@progbits,_ZN8opendnp316CountIndexParser13InvokeCountOfINS_11Group22Var5EEEvRKNS_12HeaderRecordEtRKNS_9NumParserERKN7openpal6RSliceERNS_12IAPDUHandlerE,comdat
	.align	2
	.p2align 4,,11
	.weak	_ZN8opendnp316CountIndexParser13InvokeCountOfINS_11Group22Var5EEEvRKNS_12HeaderRecordEtRKNS_9NumParserERKN7openpal6RSliceERNS_12IAPDUHandlerE
	.type	_ZN8opendnp316CountIndexParser13InvokeCountOfINS_11Group22Var5EEEvRKNS_12HeaderRecordEtRKNS_9NumParserERKN7openpal6RSliceERNS_12IAPDUHandlerE, %function
_ZN8opendnp316CountIndexParser13InvokeCountOfINS_11Group22Var5EEEvRKNS_12HeaderRecordEtRKNS_9NumParserERKN7openpal6RSliceERNS_12IAPDUHandlerE:
.LFB3193:
	.cfi_startproc
	mov	x7, x0
	stp	x29, x30, [sp, -96]!
	.cfi_def_cfa_offset 96
	.cfi_offset 29, -96
	.cfi_offset 30, -88
	adrp	x5, :got:_ZTVN8opendnp318BufferedCollectionINS_7IndexedINS_7CounterEEEZNS_16CountIndexParser13InvokeCountOfINS_11Group22Var5EEEvRKNS_12HeaderRecordEtRKNS_9NumParserERKN7openpal6RSliceERNS_12IAPDUHandlerEEUlRSE_jE_EE
	mov	x29, sp
	adrp	x6, :got:__stack_chk_guard
	ldr	x5, [x5, #:got_lo12:_ZTVN8opendnp318BufferedCollectionINS_7IndexedINS_7CounterEEEZNS_16CountIndexParser13InvokeCountOfINS_11Group22Var5EEEvRKNS_12HeaderRecordEtRKNS_9NumParserERKN7openpal6RSliceERNS_12IAPDUHandlerEEUlRSE_jE_EE]
	mov	x0, x4
	ldp	x8, x9, [x3]
	and	x4, x1, 65535
	ldp	x10, x11, [x7]
	mov	x3, x2
	ldr	x6, [x6, #:got_lo12:__stack_chk_guard]
	add	x5, x5, 16
	ldr	x2, [x6]
	str	x2, [sp, 88]
	mov	x2, 0
	stp	x10, x11, [sp, 24]
	add	x2, sp, 48
	strh	w1, [sp, 40]
	add	x1, sp, 24
	str	x5, [sp, 48]
	stp	x8, x9, [sp, 56]
	stp	x4, x3, [sp, 72]
	bl	_ZN8opendnp312IAPDUHandler8OnHeaderERKNS_12PrefixHeaderERKNS_11ICollectionINS_7IndexedINS_7CounterEEEEE
	adrp	x0, :got:__stack_chk_guard
	ldr	x0, [x0, #:got_lo12:__stack_chk_guard]
	ldr	x2, [sp, 88]
	ldr	x1, [x0]
	subs	x2, x2, x1
	mov	x1, 0
	bne	.L119
	ldp	x29, x30, [sp], 96
	.cfi_remember_state
	.cfi_restore 30
	.cfi_restore 29
	.cfi_def_cfa_offset 0
	ret
.L119:
	.cfi_restore_state
	bl	__stack_chk_fail
	.cfi_endproc
.LFE3193:
	.size	_ZN8opendnp316CountIndexParser13InvokeCountOfINS_11Group22Var5EEEvRKNS_12HeaderRecordEtRKNS_9NumParserERKN7openpal6RSliceERNS_12IAPDUHandlerE, .-_ZN8opendnp316CountIndexParser13InvokeCountOfINS_11Group22Var5EEEvRKNS_12HeaderRecordEtRKNS_9NumParserERKN7openpal6RSliceERNS_12IAPDUHandlerE
	.section	.text._ZN8opendnp316CountIndexParser13InvokeCountOfINS_11Group22Var6EEEvRKNS_12HeaderRecordEtRKNS_9NumParserERKN7openpal6RSliceERNS_12IAPDUHandlerE,"axG",@progbits,_ZN8opendnp316CountIndexParser13InvokeCountOfINS_11Group22Var6EEEvRKNS_12HeaderRecordEtRKNS_9NumParserERKN7openpal6RSliceERNS_12IAPDUHandlerE,comdat
	.align	2
	.p2align 4,,11
	.weak	_ZN8opendnp316CountIndexParser13InvokeCountOfINS_11Group22Var6EEEvRKNS_12HeaderRecordEtRKNS_9NumParserERKN7openpal6RSliceERNS_12IAPDUHandlerE
	.type	_ZN8opendnp316CountIndexParser13InvokeCountOfINS_11Group22Var6EEEvRKNS_12HeaderRecordEtRKNS_9NumParserERKN7openpal6RSliceERNS_12IAPDUHandlerE, %function
_ZN8opendnp316CountIndexParser13InvokeCountOfINS_11Group22Var6EEEvRKNS_12HeaderRecordEtRKNS_9NumParserERKN7openpal6RSliceERNS_12IAPDUHandlerE:
.LFB3198:
	.cfi_startproc
	mov	x7, x0
	stp	x29, x30, [sp, -96]!
	.cfi_def_cfa_offset 96
	.cfi_offset 29, -96
	.cfi_offset 30, -88
	adrp	x5, :got:_ZTVN8opendnp318BufferedCollectionINS_7IndexedINS_7CounterEEEZNS_16CountIndexParser13InvokeCountOfINS_11Group22Var6EEEvRKNS_12HeaderRecordEtRKNS_9NumParserERKN7openpal6RSliceERNS_12IAPDUHandlerEEUlRSE_jE_EE
	mov	x29, sp
	adrp	x6, :got:__stack_chk_guard
	ldr	x5, [x5, #:got_lo12:_ZTVN8opendnp318BufferedCollectionINS_7IndexedINS_7CounterEEEZNS_16CountIndexParser13InvokeCountOfINS_11Group22Var6EEEvRKNS_12HeaderRecordEtRKNS_9NumParserERKN7openpal6RSliceERNS_12IAPDUHandlerEEUlRSE_jE_EE]
	mov	x0, x4
	ldp	x8, x9, [x3]
	and	x4, x1, 65535
	ldp	x10, x11, [x7]
	mov	x3, x2
	ldr	x6, [x6, #:got_lo12:__stack_chk_guard]
	add	x5, x5, 16
	ldr	x2, [x6]
	str	x2, [sp, 88]
	mov	x2, 0
	stp	x10, x11, [sp, 24]
	add	x2, sp, 48
	strh	w1, [sp, 40]
	add	x1, sp, 24
	str	x5, [sp, 48]
	stp	x8, x9, [sp, 56]
	stp	x4, x3, [sp, 72]
	bl	_ZN8opendnp312IAPDUHandler8OnHeaderERKNS_12PrefixHeaderERKNS_11ICollectionINS_7IndexedINS_7CounterEEEEE
	adrp	x0, :got:__stack_chk_guard
	ldr	x0, [x0, #:got_lo12:__stack_chk_guard]
	ldr	x2, [sp, 88]
	ldr	x1, [x0]
	subs	x2, x2, x1
	mov	x1, 0
	bne	.L123
	ldp	x29, x30, [sp], 96
	.cfi_remember_state
	.cfi_restore 30
	.cfi_restore 29
	.cfi_def_cfa_offset 0
	ret
.L123:
	.cfi_restore_state
	bl	__stack_chk_fail
	.cfi_endproc
.LFE3198:
	.size	_ZN8opendnp316CountIndexParser13InvokeCountOfINS_11Group22Var6EEEvRKNS_12HeaderRecordEtRKNS_9NumParserERKN7openpal6RSliceERNS_12IAPDUHandlerE, .-_ZN8opendnp316CountIndexParser13InvokeCountOfINS_11Group22Var6EEEvRKNS_12HeaderRecordEtRKNS_9NumParserERKN7openpal6RSliceERNS_12IAPDUHandlerE
	.section	.text._ZN8opendnp316CountIndexParser13InvokeCountOfINS_11Group23Var1EEEvRKNS_12HeaderRecordEtRKNS_9NumParserERKN7openpal6RSliceERNS_12IAPDUHandlerE,"axG",@progbits,_ZN8opendnp316CountIndexParser13InvokeCountOfINS_11Group23Var1EEEvRKNS_12HeaderRecordEtRKNS_9NumParserERKN7openpal6RSliceERNS_12IAPDUHandlerE,comdat
	.align	2
	.p2align 4,,11
	.weak	_ZN8opendnp316CountIndexParser13InvokeCountOfINS_11Group23Var1EEEvRKNS_12HeaderRecordEtRKNS_9NumParserERKN7openpal6RSliceERNS_12IAPDUHandlerE
	.type	_ZN8opendnp316CountIndexParser13InvokeCountOfINS_11Group23Var1EEEvRKNS_12HeaderRecordEtRKNS_9NumParserERKN7openpal6RSliceERNS_12IAPDUHandlerE, %function
_ZN8opendnp316CountIndexParser13InvokeCountOfINS_11Group23Var1EEEvRKNS_12HeaderRecordEtRKNS_9NumParserERKN7openpal6RSliceERNS_12IAPDUHandlerE:
.LFB3203:
	.cfi_startproc
	mov	x7, x0
	stp	x29, x30, [sp, -96]!
	.cfi_def_cfa_offset 96
	.cfi_offset 29, -96
	.cfi_offset 30, -88
	adrp	x5, :got:_ZTVN8opendnp318BufferedCollectionINS_7IndexedINS_13FrozenCounterEEEZNS_16CountIndexParser13InvokeCountOfINS_11Group23Var1EEEvRKNS_12HeaderRecordEtRKNS_9NumParserERKN7openpal6RSliceERNS_12IAPDUHandlerEEUlRSE_jE_EE
	mov	x29, sp
	adrp	x6, :got:__stack_chk_guard
	ldr	x5, [x5, #:got_lo12:_ZTVN8opendnp318BufferedCollectionINS_7IndexedINS_13FrozenCounterEEEZNS_16CountIndexParser13InvokeCountOfINS_11Group23Var1EEEvRKNS_12HeaderRecordEtRKNS_9NumParserERKN7openpal6RSliceERNS_12IAPDUHandlerEEUlRSE_jE_EE]
	mov	x0, x4
	ldp	x8, x9, [x3]
	and	x4, x1, 65535
	ldp	x10, x11, [x7]
	mov	x3, x2
	ldr	x6, [x6, #:got_lo12:__stack_chk_guard]
	add	x5, x5, 16
	ldr	x2, [x6]
	str	x2, [sp, 88]
	mov	x2, 0
	stp	x10, x11, [sp, 24]
	add	x2, sp, 48
	strh	w1, [sp, 40]
	add	x1, sp, 24
	str	x5, [sp, 48]
	stp	x8, x9, [sp, 56]
	stp	x4, x3, [sp, 72]
	bl	_ZN8opendnp312IAPDUHandler8OnHeaderERKNS_12PrefixHeaderERKNS_11ICollectionINS_7IndexedINS_13FrozenCounterEEEEE
	adrp	x0, :got:__stack_chk_guard
	ldr	x0, [x0, #:got_lo12:__stack_chk_guard]
	ldr	x2, [sp, 88]
	ldr	x1, [x0]
	subs	x2, x2, x1
	mov	x1, 0
	bne	.L127
	ldp	x29, x30, [sp], 96
	.cfi_remember_state
	.cfi_restore 30
	.cfi_restore 29
	.cfi_def_cfa_offset 0
	ret
.L127:
	.cfi_restore_state
	bl	__stack_chk_fail
	.cfi_endproc
.LFE3203:
	.size	_ZN8opendnp316CountIndexParser13InvokeCountOfINS_11Group23Var1EEEvRKNS_12HeaderRecordEtRKNS_9NumParserERKN7openpal6RSliceERNS_12IAPDUHandlerE, .-_ZN8opendnp316CountIndexParser13InvokeCountOfINS_11Group23Var1EEEvRKNS_12HeaderRecordEtRKNS_9NumParserERKN7openpal6RSliceERNS_12IAPDUHandlerE
	.section	.text._ZN8opendnp316CountIndexParser13InvokeCountOfINS_11Group23Var2EEEvRKNS_12HeaderRecordEtRKNS_9NumParserERKN7openpal6RSliceERNS_12IAPDUHandlerE,"axG",@progbits,_ZN8opendnp316CountIndexParser13InvokeCountOfINS_11Group23Var2EEEvRKNS_12HeaderRecordEtRKNS_9NumParserERKN7openpal6RSliceERNS_12IAPDUHandlerE,comdat
	.align	2
	.p2align 4,,11
	.weak	_ZN8opendnp316CountIndexParser13InvokeCountOfINS_11Group23Var2EEEvRKNS_12HeaderRecordEtRKNS_9NumParserERKN7openpal6RSliceERNS_12IAPDUHandlerE
	.type	_ZN8opendnp316CountIndexParser13InvokeCountOfINS_11Group23Var2EEEvRKNS_12HeaderRecordEtRKNS_9NumParserERKN7openpal6RSliceERNS_12IAPDUHandlerE, %function
_ZN8opendnp316CountIndexParser13InvokeCountOfINS_11Group23Var2EEEvRKNS_12HeaderRecordEtRKNS_9NumParserERKN7openpal6RSliceERNS_12IAPDUHandlerE:
.LFB3211:
	.cfi_startproc
	mov	x7, x0
	stp	x29, x30, [sp, -96]!
	.cfi_def_cfa_offset 96
	.cfi_offset 29, -96
	.cfi_offset 30, -88
	adrp	x5, :got:_ZTVN8opendnp318BufferedCollectionINS_7IndexedINS_13FrozenCounterEEEZNS_16CountIndexParser13InvokeCountOfINS_11Group23Var2EEEvRKNS_12HeaderRecordEtRKNS_9NumParserERKN7openpal6RSliceERNS_12IAPDUHandlerEEUlRSE_jE_EE
	mov	x29, sp
	adrp	x6, :got:__stack_chk_guard
	ldr	x5, [x5, #:got_lo12:_ZTVN8opendnp318BufferedCollectionINS_7IndexedINS_13FrozenCounterEEEZNS_16CountIndexParser13InvokeCountOfINS_11Group23Var2EEEvRKNS_12HeaderRecordEtRKNS_9NumParserERKN7openpal6RSliceERNS_12IAPDUHandlerEEUlRSE_jE_EE]
	mov	x0, x4
	ldp	x8, x9, [x3]
	and	x4, x1, 65535
	ldp	x10, x11, [x7]
	mov	x3, x2
	ldr	x6, [x6, #:got_lo12:__stack_chk_guard]
	add	x5, x5, 16
	ldr	x2, [x6]
	str	x2, [sp, 88]
	mov	x2, 0
	stp	x10, x11, [sp, 24]
	add	x2, sp, 48
	strh	w1, [sp, 40]
	add	x1, sp, 24
	str	x5, [sp, 48]
	stp	x8, x9, [sp, 56]
	stp	x4, x3, [sp, 72]
	bl	_ZN8opendnp312IAPDUHandler8OnHeaderERKNS_12PrefixHeaderERKNS_11ICollectionINS_7IndexedINS_13FrozenCounterEEEEE
	adrp	x0, :got:__stack_chk_guard
	ldr	x0, [x0, #:got_lo12:__stack_chk_guard]
	ldr	x2, [sp, 88]
	ldr	x1, [x0]
	subs	x2, x2, x1
	mov	x1, 0
	bne	.L131
	ldp	x29, x30, [sp], 96
	.cfi_remember_state
	.cfi_restore 30
	.cfi_restore 29
	.cfi_def_cfa_offset 0
	ret
.L131:
	.cfi_restore_state
	bl	__stack_chk_fail
	.cfi_endproc
.LFE3211:
	.size	_ZN8opendnp316CountIndexParser13InvokeCountOfINS_11Group23Var2EEEvRKNS_12HeaderRecordEtRKNS_9NumParserERKN7openpal6RSliceERNS_12IAPDUHandlerE, .-_ZN8opendnp316CountIndexParser13InvokeCountOfINS_11Group23Var2EEEvRKNS_12HeaderRecordEtRKNS_9NumParserERKN7openpal6RSliceERNS_12IAPDUHandlerE
	.section	.text._ZN8opendnp316CountIndexParser13InvokeCountOfINS_11Group23Var5EEEvRKNS_12HeaderRecordEtRKNS_9NumParserERKN7openpal6RSliceERNS_12IAPDUHandlerE,"axG",@progbits,_ZN8opendnp316CountIndexParser13InvokeCountOfINS_11Group23Var5EEEvRKNS_12HeaderRecordEtRKNS_9NumParserERKN7openpal6RSliceERNS_12IAPDUHandlerE,comdat
	.align	2
	.p2align 4,,11
	.weak	_ZN8opendnp316CountIndexParser13InvokeCountOfINS_11Group23Var5EEEvRKNS_12HeaderRecordEtRKNS_9NumParserERKN7openpal6RSliceERNS_12IAPDUHandlerE
	.type	_ZN8opendnp316CountIndexParser13InvokeCountOfINS_11Group23Var5EEEvRKNS_12HeaderRecordEtRKNS_9NumParserERKN7openpal6RSliceERNS_12IAPDUHandlerE, %function
_ZN8opendnp316CountIndexParser13InvokeCountOfINS_11Group23Var5EEEvRKNS_12HeaderRecordEtRKNS_9NumParserERKN7openpal6RSliceERNS_12IAPDUHandlerE:
.LFB3216:
	.cfi_startproc
	mov	x7, x0
	stp	x29, x30, [sp, -96]!
	.cfi_def_cfa_offset 96
	.cfi_offset 29, -96
	.cfi_offset 30, -88
	adrp	x5, :got:_ZTVN8opendnp318BufferedCollectionINS_7IndexedINS_13FrozenCounterEEEZNS_16CountIndexParser13InvokeCountOfINS_11Group23Var5EEEvRKNS_12HeaderRecordEtRKNS_9NumParserERKN7openpal6RSliceERNS_12IAPDUHandlerEEUlRSE_jE_EE
	mov	x29, sp
	adrp	x6, :got:__stack_chk_guard
	ldr	x5, [x5, #:got_lo12:_ZTVN8opendnp318BufferedCollectionINS_7IndexedINS_13FrozenCounterEEEZNS_16CountIndexParser13InvokeCountOfINS_11Group23Var5EEEvRKNS_12HeaderRecordEtRKNS_9NumParserERKN7openpal6RSliceERNS_12IAPDUHandlerEEUlRSE_jE_EE]
	mov	x0, x4
	ldp	x8, x9, [x3]
	and	x4, x1, 65535
	ldp	x10, x11, [x7]
	mov	x3, x2
	ldr	x6, [x6, #:got_lo12:__stack_chk_guard]
	add	x5, x5, 16
	ldr	x2, [x6]
	str	x2, [sp, 88]
	mov	x2, 0
	stp	x10, x11, [sp, 24]
	add	x2, sp, 48
	strh	w1, [sp, 40]
	add	x1, sp, 24
	str	x5, [sp, 48]
	stp	x8, x9, [sp, 56]
	stp	x4, x3, [sp, 72]
	bl	_ZN8opendnp312IAPDUHandler8OnHeaderERKNS_12PrefixHeaderERKNS_11ICollectionINS_7IndexedINS_13FrozenCounterEEEEE
	adrp	x0, :got:__stack_chk_guard
	ldr	x0, [x0, #:got_lo12:__stack_chk_guard]
	ldr	x2, [sp, 88]
	ldr	x1, [x0]
	subs	x2, x2, x1
	mov	x1, 0
	bne	.L135
	ldp	x29, x30, [sp], 96
	.cfi_remember_state
	.cfi_restore 30
	.cfi_restore 29
	.cfi_def_cfa_offset 0
	ret
.L135:
	.cfi_restore_state
	bl	__stack_chk_fail
	.cfi_endproc
.LFE3216:
	.size	_ZN8opendnp316CountIndexParser13InvokeCountOfINS_11Group23Var5EEEvRKNS_12HeaderRecordEtRKNS_9NumParserERKN7openpal6RSliceERNS_12IAPDUHandlerE, .-_ZN8opendnp316CountIndexParser13InvokeCountOfINS_11Group23Var5EEEvRKNS_12HeaderRecordEtRKNS_9NumParserERKN7openpal6RSliceERNS_12IAPDUHandlerE
	.section	.text._ZN8opendnp316CountIndexParser13InvokeCountOfINS_11Group23Var6EEEvRKNS_12HeaderRecordEtRKNS_9NumParserERKN7openpal6RSliceERNS_12IAPDUHandlerE,"axG",@progbits,_ZN8opendnp316CountIndexParser13InvokeCountOfINS_11Group23Var6EEEvRKNS_12HeaderRecordEtRKNS_9NumParserERKN7openpal6RSliceERNS_12IAPDUHandlerE,comdat
	.align	2
	.p2align 4,,11
	.weak	_ZN8opendnp316CountIndexParser13InvokeCountOfINS_11Group23Var6EEEvRKNS_12HeaderRecordEtRKNS_9NumParserERKN7openpal6RSliceERNS_12IAPDUHandlerE
	.type	_ZN8opendnp316CountIndexParser13InvokeCountOfINS_11Group23Var6EEEvRKNS_12HeaderRecordEtRKNS_9NumParserERKN7openpal6RSliceERNS_12IAPDUHandlerE, %function
_ZN8opendnp316CountIndexParser13InvokeCountOfINS_11Group23Var6EEEvRKNS_12HeaderRecordEtRKNS_9NumParserERKN7openpal6RSliceERNS_12IAPDUHandlerE:
.LFB3221:
	.cfi_startproc
	mov	x7, x0
	stp	x29, x30, [sp, -96]!
	.cfi_def_cfa_offset 96
	.cfi_offset 29, -96
	.cfi_offset 30, -88
	adrp	x5, :got:_ZTVN8opendnp318BufferedCollectionINS_7IndexedINS_13FrozenCounterEEEZNS_16CountIndexParser13InvokeCountOfINS_11Group23Var6EEEvRKNS_12HeaderRecordEtRKNS_9NumParserERKN7openpal6RSliceERNS_12IAPDUHandlerEEUlRSE_jE_EE
	mov	x29, sp
	adrp	x6, :got:__stack_chk_guard
	ldr	x5, [x5, #:got_lo12:_ZTVN8opendnp318BufferedCollectionINS_7IndexedINS_13FrozenCounterEEEZNS_16CountIndexParser13InvokeCountOfINS_11Group23Var6EEEvRKNS_12HeaderRecordEtRKNS_9NumParserERKN7openpal6RSliceERNS_12IAPDUHandlerEEUlRSE_jE_EE]
	mov	x0, x4
	ldp	x8, x9, [x3]
	and	x4, x1, 65535
	ldp	x10, x11, [x7]
	mov	x3, x2
	ldr	x6, [x6, #:got_lo12:__stack_chk_guard]
	add	x5, x5, 16
	ldr	x2, [x6]
	str	x2, [sp, 88]
	mov	x2, 0
	stp	x10, x11, [sp, 24]
	add	x2, sp, 48
	strh	w1, [sp, 40]
	add	x1, sp, 24
	str	x5, [sp, 48]
	stp	x8, x9, [sp, 56]
	stp	x4, x3, [sp, 72]
	bl	_ZN8opendnp312IAPDUHandler8OnHeaderERKNS_12PrefixHeaderERKNS_11ICollectionINS_7IndexedINS_13FrozenCounterEEEEE
	adrp	x0, :got:__stack_chk_guard
	ldr	x0, [x0, #:got_lo12:__stack_chk_guard]
	ldr	x2, [sp, 88]
	ldr	x1, [x0]
	subs	x2, x2, x1
	mov	x1, 0
	bne	.L139
	ldp	x29, x30, [sp], 96
	.cfi_remember_state
	.cfi_restore 30
	.cfi_restore 29
	.cfi_def_cfa_offset 0
	ret
.L139:
	.cfi_restore_state
	bl	__stack_chk_fail
	.cfi_endproc
.LFE3221:
	.size	_ZN8opendnp316CountIndexParser13InvokeCountOfINS_11Group23Var6EEEvRKNS_12HeaderRecordEtRKNS_9NumParserERKN7openpal6RSliceERNS_12IAPDUHandlerE, .-_ZN8opendnp316CountIndexParser13InvokeCountOfINS_11Group23Var6EEEvRKNS_12HeaderRecordEtRKNS_9NumParserERKN7openpal6RSliceERNS_12IAPDUHandlerE
	.section	.text._ZN8opendnp316CountIndexParser13InvokeCountOfINS_11Group32Var1EEEvRKNS_12HeaderRecordEtRKNS_9NumParserERKN7openpal6RSliceERNS_12IAPDUHandlerE,"axG",@progbits,_ZN8opendnp316CountIndexParser13InvokeCountOfINS_11Group32Var1EEEvRKNS_12HeaderRecordEtRKNS_9NumParserERKN7openpal6RSliceERNS_12IAPDUHandlerE,comdat
	.align	2
	.p2align 4,,11
	.weak	_ZN8opendnp316CountIndexParser13InvokeCountOfINS_11Group32Var1EEEvRKNS_12HeaderRecordEtRKNS_9NumParserERKN7openpal6RSliceERNS_12IAPDUHandlerE
	.type	_ZN8opendnp316CountIndexParser13InvokeCountOfINS_11Group32Var1EEEvRKNS_12HeaderRecordEtRKNS_9NumParserERKN7openpal6RSliceERNS_12IAPDUHandlerE, %function
_ZN8opendnp316CountIndexParser13InvokeCountOfINS_11Group32Var1EEEvRKNS_12HeaderRecordEtRKNS_9NumParserERKN7openpal6RSliceERNS_12IAPDUHandlerE:
.LFB3226:
	.cfi_startproc
	mov	x7, x0
	stp	x29, x30, [sp, -96]!
	.cfi_def_cfa_offset 96
	.cfi_offset 29, -96
	.cfi_offset 30, -88
	adrp	x5, :got:_ZTVN8opendnp318BufferedCollectionINS_7IndexedINS_6AnalogEEEZNS_16CountIndexParser13InvokeCountOfINS_11Group32Var1EEEvRKNS_12HeaderRecordEtRKNS_9NumParserERKN7openpal6RSliceERNS_12IAPDUHandlerEEUlRSE_jE_EE
	mov	x29, sp
	adrp	x6, :got:__stack_chk_guard
	ldr	x5, [x5, #:got_lo12:_ZTVN8opendnp318BufferedCollectionINS_7IndexedINS_6AnalogEEEZNS_16CountIndexParser13InvokeCountOfINS_11Group32Var1EEEvRKNS_12HeaderRecordEtRKNS_9NumParserERKN7openpal6RSliceERNS_12IAPDUHandlerEEUlRSE_jE_EE]
	mov	x0, x4
	ldp	x8, x9, [x3]
	and	x4, x1, 65535
	ldp	x10, x11, [x7]
	mov	x3, x2
	ldr	x6, [x6, #:got_lo12:__stack_chk_guard]
	add	x5, x5, 16
	ldr	x2, [x6]
	str	x2, [sp, 88]
	mov	x2, 0
	stp	x10, x11, [sp, 24]
	add	x2, sp, 48
	strh	w1, [sp, 40]
	add	x1, sp, 24
	str	x5, [sp, 48]
	stp	x8, x9, [sp, 56]
	stp	x4, x3, [sp, 72]
	bl	_ZN8opendnp312IAPDUHandler8OnHeaderERKNS_12PrefixHeaderERKNS_11ICollectionINS_7IndexedINS_6AnalogEEEEE
	adrp	x0, :got:__stack_chk_guard
	ldr	x0, [x0, #:got_lo12:__stack_chk_guard]
	ldr	x2, [sp, 88]
	ldr	x1, [x0]
	subs	x2, x2, x1
	mov	x1, 0
	bne	.L143
	ldp	x29, x30, [sp], 96
	.cfi_remember_state
	.cfi_restore 30
	.cfi_restore 29
	.cfi_def_cfa_offset 0
	ret
.L143:
	.cfi_restore_state
	bl	__stack_chk_fail
	.cfi_endproc
.LFE3226:
	.size	_ZN8opendnp316CountIndexParser13InvokeCountOfINS_11Group32Var1EEEvRKNS_12HeaderRecordEtRKNS_9NumParserERKN7openpal6RSliceERNS_12IAPDUHandlerE, .-_ZN8opendnp316CountIndexParser13InvokeCountOfINS_11Group32Var1EEEvRKNS_12HeaderRecordEtRKNS_9NumParserERKN7openpal6RSliceERNS_12IAPDUHandlerE
	.section	.text._ZN8opendnp316CountIndexParser13InvokeCountOfINS_11Group32Var2EEEvRKNS_12HeaderRecordEtRKNS_9NumParserERKN7openpal6RSliceERNS_12IAPDUHandlerE,"axG",@progbits,_ZN8opendnp316CountIndexParser13InvokeCountOfINS_11Group32Var2EEEvRKNS_12HeaderRecordEtRKNS_9NumParserERKN7openpal6RSliceERNS_12IAPDUHandlerE,comdat
	.align	2
	.p2align 4,,11
	.weak	_ZN8opendnp316CountIndexParser13InvokeCountOfINS_11Group32Var2EEEvRKNS_12HeaderRecordEtRKNS_9NumParserERKN7openpal6RSliceERNS_12IAPDUHandlerE
	.type	_ZN8opendnp316CountIndexParser13InvokeCountOfINS_11Group32Var2EEEvRKNS_12HeaderRecordEtRKNS_9NumParserERKN7openpal6RSliceERNS_12IAPDUHandlerE, %function
_ZN8opendnp316CountIndexParser13InvokeCountOfINS_11Group32Var2EEEvRKNS_12HeaderRecordEtRKNS_9NumParserERKN7openpal6RSliceERNS_12IAPDUHandlerE:
.LFB3234:
	.cfi_startproc
	mov	x7, x0
	stp	x29, x30, [sp, -96]!
	.cfi_def_cfa_offset 96
	.cfi_offset 29, -96
	.cfi_offset 30, -88
	adrp	x5, :got:_ZTVN8opendnp318BufferedCollectionINS_7IndexedINS_6AnalogEEEZNS_16CountIndexParser13InvokeCountOfINS_11Group32Var2EEEvRKNS_12HeaderRecordEtRKNS_9NumParserERKN7openpal6RSliceERNS_12IAPDUHandlerEEUlRSE_jE_EE
	mov	x29, sp
	adrp	x6, :got:__stack_chk_guard
	ldr	x5, [x5, #:got_lo12:_ZTVN8opendnp318BufferedCollectionINS_7IndexedINS_6AnalogEEEZNS_16CountIndexParser13InvokeCountOfINS_11Group32Var2EEEvRKNS_12HeaderRecordEtRKNS_9NumParserERKN7openpal6RSliceERNS_12IAPDUHandlerEEUlRSE_jE_EE]
	mov	x0, x4
	ldp	x8, x9, [x3]
	and	x4, x1, 65535
	ldp	x10, x11, [x7]
	mov	x3, x2
	ldr	x6, [x6, #:got_lo12:__stack_chk_guard]
	add	x5, x5, 16
	ldr	x2, [x6]
	str	x2, [sp, 88]
	mov	x2, 0
	stp	x10, x11, [sp, 24]
	add	x2, sp, 48
	strh	w1, [sp, 40]
	add	x1, sp, 24
	str	x5, [sp, 48]
	stp	x8, x9, [sp, 56]
	stp	x4, x3, [sp, 72]
	bl	_ZN8opendnp312IAPDUHandler8OnHeaderERKNS_12PrefixHeaderERKNS_11ICollectionINS_7IndexedINS_6AnalogEEEEE
	adrp	x0, :got:__stack_chk_guard
	ldr	x0, [x0, #:got_lo12:__stack_chk_guard]
	ldr	x2, [sp, 88]
	ldr	x1, [x0]
	subs	x2, x2, x1
	mov	x1, 0
	bne	.L147
	ldp	x29, x30, [sp], 96
	.cfi_remember_state
	.cfi_restore 30
	.cfi_restore 29
	.cfi_def_cfa_offset 0
	ret
.L147:
	.cfi_restore_state
	bl	__stack_chk_fail
	.cfi_endproc
.LFE3234:
	.size	_ZN8opendnp316CountIndexParser13InvokeCountOfINS_11Group32Var2EEEvRKNS_12HeaderRecordEtRKNS_9NumParserERKN7openpal6RSliceERNS_12IAPDUHandlerE, .-_ZN8opendnp316CountIndexParser13InvokeCountOfINS_11Group32Var2EEEvRKNS_12HeaderRecordEtRKNS_9NumParserERKN7openpal6RSliceERNS_12IAPDUHandlerE
	.section	.text._ZN8opendnp316CountIndexParser13InvokeCountOfINS_11Group32Var3EEEvRKNS_12HeaderRecordEtRKNS_9NumParserERKN7openpal6RSliceERNS_12IAPDUHandlerE,"axG",@progbits,_ZN8opendnp316CountIndexParser13InvokeCountOfINS_11Group32Var3EEEvRKNS_12HeaderRecordEtRKNS_9NumParserERKN7openpal6RSliceERNS_12IAPDUHandlerE,comdat
	.align	2
	.p2align 4,,11
	.weak	_ZN8opendnp316CountIndexParser13InvokeCountOfINS_11Group32Var3EEEvRKNS_12HeaderRecordEtRKNS_9NumParserERKN7openpal6RSliceERNS_12IAPDUHandlerE
	.type	_ZN8opendnp316CountIndexParser13InvokeCountOfINS_11Group32Var3EEEvRKNS_12HeaderRecordEtRKNS_9NumParserERKN7openpal6RSliceERNS_12IAPDUHandlerE, %function
_ZN8opendnp316CountIndexParser13InvokeCountOfINS_11Group32Var3EEEvRKNS_12HeaderRecordEtRKNS_9NumParserERKN7openpal6RSliceERNS_12IAPDUHandlerE:
.LFB3239:
	.cfi_startproc
	mov	x7, x0
	stp	x29, x30, [sp, -96]!
	.cfi_def_cfa_offset 96
	.cfi_offset 29, -96
	.cfi_offset 30, -88
	adrp	x5, :got:_ZTVN8opendnp318BufferedCollectionINS_7IndexedINS_6AnalogEEEZNS_16CountIndexParser13InvokeCountOfINS_11Group32Var3EEEvRKNS_12HeaderRecordEtRKNS_9NumParserERKN7openpal6RSliceERNS_12IAPDUHandlerEEUlRSE_jE_EE
	mov	x29, sp
	adrp	x6, :got:__stack_chk_guard
	ldr	x5, [x5, #:got_lo12:_ZTVN8opendnp318BufferedCollectionINS_7IndexedINS_6AnalogEEEZNS_16CountIndexParser13InvokeCountOfINS_11Group32Var3EEEvRKNS_12HeaderRecordEtRKNS_9NumParserERKN7openpal6RSliceERNS_12IAPDUHandlerEEUlRSE_jE_EE]
	mov	x0, x4
	ldp	x8, x9, [x3]
	and	x4, x1, 65535
	ldp	x10, x11, [x7]
	mov	x3, x2
	ldr	x6, [x6, #:got_lo12:__stack_chk_guard]
	add	x5, x5, 16
	ldr	x2, [x6]
	str	x2, [sp, 88]
	mov	x2, 0
	stp	x10, x11, [sp, 24]
	add	x2, sp, 48
	strh	w1, [sp, 40]
	add	x1, sp, 24
	str	x5, [sp, 48]
	stp	x8, x9, [sp, 56]
	stp	x4, x3, [sp, 72]
	bl	_ZN8opendnp312IAPDUHandler8OnHeaderERKNS_12PrefixHeaderERKNS_11ICollectionINS_7IndexedINS_6AnalogEEEEE
	adrp	x0, :got:__stack_chk_guard
	ldr	x0, [x0, #:got_lo12:__stack_chk_guard]
	ldr	x2, [sp, 88]
	ldr	x1, [x0]
	subs	x2, x2, x1
	mov	x1, 0
	bne	.L151
	ldp	x29, x30, [sp], 96
	.cfi_remember_state
	.cfi_restore 30
	.cfi_restore 29
	.cfi_def_cfa_offset 0
	ret
.L151:
	.cfi_restore_state
	bl	__stack_chk_fail
	.cfi_endproc
.LFE3239:
	.size	_ZN8opendnp316CountIndexParser13InvokeCountOfINS_11Group32Var3EEEvRKNS_12HeaderRecordEtRKNS_9NumParserERKN7openpal6RSliceERNS_12IAPDUHandlerE, .-_ZN8opendnp316CountIndexParser13InvokeCountOfINS_11Group32Var3EEEvRKNS_12HeaderRecordEtRKNS_9NumParserERKN7openpal6RSliceERNS_12IAPDUHandlerE
	.section	.text._ZN8opendnp316CountIndexParser13InvokeCountOfINS_11Group32Var4EEEvRKNS_12HeaderRecordEtRKNS_9NumParserERKN7openpal6RSliceERNS_12IAPDUHandlerE,"axG",@progbits,_ZN8opendnp316CountIndexParser13InvokeCountOfINS_11Group32Var4EEEvRKNS_12HeaderRecordEtRKNS_9NumParserERKN7openpal6RSliceERNS_12IAPDUHandlerE,comdat
	.align	2
	.p2align 4,,11
	.weak	_ZN8opendnp316CountIndexParser13InvokeCountOfINS_11Group32Var4EEEvRKNS_12HeaderRecordEtRKNS_9NumParserERKN7openpal6RSliceERNS_12IAPDUHandlerE
	.type	_ZN8opendnp316CountIndexParser13InvokeCountOfINS_11Group32Var4EEEvRKNS_12HeaderRecordEtRKNS_9NumParserERKN7openpal6RSliceERNS_12IAPDUHandlerE, %function
_ZN8opendnp316CountIndexParser13InvokeCountOfINS_11Group32Var4EEEvRKNS_12HeaderRecordEtRKNS_9NumParserERKN7openpal6RSliceERNS_12IAPDUHandlerE:
.LFB3244:
	.cfi_startproc
	mov	x7, x0
	stp	x29, x30, [sp, -96]!
	.cfi_def_cfa_offset 96
	.cfi_offset 29, -96
	.cfi_offset 30, -88
	adrp	x5, :got:_ZTVN8opendnp318BufferedCollectionINS_7IndexedINS_6AnalogEEEZNS_16CountIndexParser13InvokeCountOfINS_11Group32Var4EEEvRKNS_12HeaderRecordEtRKNS_9NumParserERKN7openpal6RSliceERNS_12IAPDUHandlerEEUlRSE_jE_EE
	mov	x29, sp
	adrp	x6, :got:__stack_chk_guard
	ldr	x5, [x5, #:got_lo12:_ZTVN8opendnp318BufferedCollectionINS_7IndexedINS_6AnalogEEEZNS_16CountIndexParser13InvokeCountOfINS_11Group32Var4EEEvRKNS_12HeaderRecordEtRKNS_9NumParserERKN7openpal6RSliceERNS_12IAPDUHandlerEEUlRSE_jE_EE]
	mov	x0, x4
	ldp	x8, x9, [x3]
	and	x4, x1, 65535
	ldp	x10, x11, [x7]
	mov	x3, x2
	ldr	x6, [x6, #:got_lo12:__stack_chk_guard]
	add	x5, x5, 16
	ldr	x2, [x6]
	str	x2, [sp, 88]
	mov	x2, 0
	stp	x10, x11, [sp, 24]
	add	x2, sp, 48
	strh	w1, [sp, 40]
	add	x1, sp, 24
	str	x5, [sp, 48]
	stp	x8, x9, [sp, 56]
	stp	x4, x3, [sp, 72]
	bl	_ZN8opendnp312IAPDUHandler8OnHeaderERKNS_12PrefixHeaderERKNS_11ICollectionINS_7IndexedINS_6AnalogEEEEE
	adrp	x0, :got:__stack_chk_guard
	ldr	x0, [x0, #:got_lo12:__stack_chk_guard]
	ldr	x2, [sp, 88]
	ldr	x1, [x0]
	subs	x2, x2, x1
	mov	x1, 0
	bne	.L155
	ldp	x29, x30, [sp], 96
	.cfi_remember_state
	.cfi_restore 30
	.cfi_restore 29
	.cfi_def_cfa_offset 0
	ret
.L155:
	.cfi_restore_state
	bl	__stack_chk_fail
	.cfi_endproc
.LFE3244:
	.size	_ZN8opendnp316CountIndexParser13InvokeCountOfINS_11Group32Var4EEEvRKNS_12HeaderRecordEtRKNS_9NumParserERKN7openpal6RSliceERNS_12IAPDUHandlerE, .-_ZN8opendnp316CountIndexParser13InvokeCountOfINS_11Group32Var4EEEvRKNS_12HeaderRecordEtRKNS_9NumParserERKN7openpal6RSliceERNS_12IAPDUHandlerE
	.section	.text._ZN8opendnp316CountIndexParser13InvokeCountOfINS_11Group32Var5EEEvRKNS_12HeaderRecordEtRKNS_9NumParserERKN7openpal6RSliceERNS_12IAPDUHandlerE,"axG",@progbits,_ZN8opendnp316CountIndexParser13InvokeCountOfINS_11Group32Var5EEEvRKNS_12HeaderRecordEtRKNS_9NumParserERKN7openpal6RSliceERNS_12IAPDUHandlerE,comdat
	.align	2
	.p2align 4,,11
	.weak	_ZN8opendnp316CountIndexParser13InvokeCountOfINS_11Group32Var5EEEvRKNS_12HeaderRecordEtRKNS_9NumParserERKN7openpal6RSliceERNS_12IAPDUHandlerE
	.type	_ZN8opendnp316CountIndexParser13InvokeCountOfINS_11Group32Var5EEEvRKNS_12HeaderRecordEtRKNS_9NumParserERKN7openpal6RSliceERNS_12IAPDUHandlerE, %function
_ZN8opendnp316CountIndexParser13InvokeCountOfINS_11Group32Var5EEEvRKNS_12HeaderRecordEtRKNS_9NumParserERKN7openpal6RSliceERNS_12IAPDUHandlerE:
.LFB3249:
	.cfi_startproc
	mov	x7, x0
	stp	x29, x30, [sp, -96]!
	.cfi_def_cfa_offset 96
	.cfi_offset 29, -96
	.cfi_offset 30, -88
	adrp	x5, :got:_ZTVN8opendnp318BufferedCollectionINS_7IndexedINS_6AnalogEEEZNS_16CountIndexParser13InvokeCountOfINS_11Group32Var5EEEvRKNS_12HeaderRecordEtRKNS_9NumParserERKN7openpal6RSliceERNS_12IAPDUHandlerEEUlRSE_jE_EE
	mov	x29, sp
	adrp	x6, :got:__stack_chk_guard
	ldr	x5, [x5, #:got_lo12:_ZTVN8opendnp318BufferedCollectionINS_7IndexedINS_6AnalogEEEZNS_16CountIndexParser13InvokeCountOfINS_11Group32Var5EEEvRKNS_12HeaderRecordEtRKNS_9NumParserERKN7openpal6RSliceERNS_12IAPDUHandlerEEUlRSE_jE_EE]
	mov	x0, x4
	ldp	x8, x9, [x3]
	and	x4, x1, 65535
	ldp	x10, x11, [x7]
	mov	x3, x2
	ldr	x6, [x6, #:got_lo12:__stack_chk_guard]
	add	x5, x5, 16
	ldr	x2, [x6]
	str	x2, [sp, 88]
	mov	x2, 0
	stp	x10, x11, [sp, 24]
	add	x2, sp, 48
	strh	w1, [sp, 40]
	add	x1, sp, 24
	str	x5, [sp, 48]
	stp	x8, x9, [sp, 56]
	stp	x4, x3, [sp, 72]
	bl	_ZN8opendnp312IAPDUHandler8OnHeaderERKNS_12PrefixHeaderERKNS_11ICollectionINS_7IndexedINS_6AnalogEEEEE
	adrp	x0, :got:__stack_chk_guard
	ldr	x0, [x0, #:got_lo12:__stack_chk_guard]
	ldr	x2, [sp, 88]
	ldr	x1, [x0]
	subs	x2, x2, x1
	mov	x1, 0
	bne	.L159
	ldp	x29, x30, [sp], 96
	.cfi_remember_state
	.cfi_restore 30
	.cfi_restore 29
	.cfi_def_cfa_offset 0
	ret
.L159:
	.cfi_restore_state
	bl	__stack_chk_fail
	.cfi_endproc
.LFE3249:
	.size	_ZN8opendnp316CountIndexParser13InvokeCountOfINS_11Group32Var5EEEvRKNS_12HeaderRecordEtRKNS_9NumParserERKN7openpal6RSliceERNS_12IAPDUHandlerE, .-_ZN8opendnp316CountIndexParser13InvokeCountOfINS_11Group32Var5EEEvRKNS_12HeaderRecordEtRKNS_9NumParserERKN7openpal6RSliceERNS_12IAPDUHandlerE
	.section	.text._ZN8opendnp316CountIndexParser13InvokeCountOfINS_11Group32Var6EEEvRKNS_12HeaderRecordEtRKNS_9NumParserERKN7openpal6RSliceERNS_12IAPDUHandlerE,"axG",@progbits,_ZN8opendnp316CountIndexParser13InvokeCountOfINS_11Group32Var6EEEvRKNS_12HeaderRecordEtRKNS_9NumParserERKN7openpal6RSliceERNS_12IAPDUHandlerE,comdat
	.align	2
	.p2align 4,,11
	.weak	_ZN8opendnp316CountIndexParser13InvokeCountOfINS_11Group32Var6EEEvRKNS_12HeaderRecordEtRKNS_9NumParserERKN7openpal6RSliceERNS_12IAPDUHandlerE
	.type	_ZN8opendnp316CountIndexParser13InvokeCountOfINS_11Group32Var6EEEvRKNS_12HeaderRecordEtRKNS_9NumParserERKN7openpal6RSliceERNS_12IAPDUHandlerE, %function
_ZN8opendnp316CountIndexParser13InvokeCountOfINS_11Group32Var6EEEvRKNS_12HeaderRecordEtRKNS_9NumParserERKN7openpal6RSliceERNS_12IAPDUHandlerE:
.LFB3254:
	.cfi_startproc
	mov	x7, x0
	stp	x29, x30, [sp, -96]!
	.cfi_def_cfa_offset 96
	.cfi_offset 29, -96
	.cfi_offset 30, -88
	adrp	x5, :got:_ZTVN8opendnp318BufferedCollectionINS_7IndexedINS_6AnalogEEEZNS_16CountIndexParser13InvokeCountOfINS_11Group32Var6EEEvRKNS_12HeaderRecordEtRKNS_9NumParserERKN7openpal6RSliceERNS_12IAPDUHandlerEEUlRSE_jE_EE
	mov	x29, sp
	adrp	x6, :got:__stack_chk_guard
	ldr	x5, [x5, #:got_lo12:_ZTVN8opendnp318BufferedCollectionINS_7IndexedINS_6AnalogEEEZNS_16CountIndexParser13InvokeCountOfINS_11Group32Var6EEEvRKNS_12HeaderRecordEtRKNS_9NumParserERKN7openpal6RSliceERNS_12IAPDUHandlerEEUlRSE_jE_EE]
	mov	x0, x4
	ldp	x8, x9, [x3]
	and	x4, x1, 65535
	ldp	x10, x11, [x7]
	mov	x3, x2
	ldr	x6, [x6, #:got_lo12:__stack_chk_guard]
	add	x5, x5, 16
	ldr	x2, [x6]
	str	x2, [sp, 88]
	mov	x2, 0
	stp	x10, x11, [sp, 24]
	add	x2, sp, 48
	strh	w1, [sp, 40]
	add	x1, sp, 24
	str	x5, [sp, 48]
	stp	x8, x9, [sp, 56]
	stp	x4, x3, [sp, 72]
	bl	_ZN8opendnp312IAPDUHandler8OnHeaderERKNS_12PrefixHeaderERKNS_11ICollectionINS_7IndexedINS_6AnalogEEEEE
	adrp	x0, :got:__stack_chk_guard
	ldr	x0, [x0, #:got_lo12:__stack_chk_guard]
	ldr	x2, [sp, 88]
	ldr	x1, [x0]
	subs	x2, x2, x1
	mov	x1, 0
	bne	.L163
	ldp	x29, x30, [sp], 96
	.cfi_remember_state
	.cfi_restore 30
	.cfi_restore 29
	.cfi_def_cfa_offset 0
	ret
.L163:
	.cfi_restore_state
	bl	__stack_chk_fail
	.cfi_endproc
.LFE3254:
	.size	_ZN8opendnp316CountIndexParser13InvokeCountOfINS_11Group32Var6EEEvRKNS_12HeaderRecordEtRKNS_9NumParserERKN7openpal6RSliceERNS_12IAPDUHandlerE, .-_ZN8opendnp316CountIndexParser13InvokeCountOfINS_11Group32Var6EEEvRKNS_12HeaderRecordEtRKNS_9NumParserERKN7openpal6RSliceERNS_12IAPDUHandlerE
	.section	.text._ZN8opendnp316CountIndexParser13InvokeCountOfINS_11Group32Var7EEEvRKNS_12HeaderRecordEtRKNS_9NumParserERKN7openpal6RSliceERNS_12IAPDUHandlerE,"axG",@progbits,_ZN8opendnp316CountIndexParser13InvokeCountOfINS_11Group32Var7EEEvRKNS_12HeaderRecordEtRKNS_9NumParserERKN7openpal6RSliceERNS_12IAPDUHandlerE,comdat
	.align	2
	.p2align 4,,11
	.weak	_ZN8opendnp316CountIndexParser13InvokeCountOfINS_11Group32Var7EEEvRKNS_12HeaderRecordEtRKNS_9NumParserERKN7openpal6RSliceERNS_12IAPDUHandlerE
	.type	_ZN8opendnp316CountIndexParser13InvokeCountOfINS_11Group32Var7EEEvRKNS_12HeaderRecordEtRKNS_9NumParserERKN7openpal6RSliceERNS_12IAPDUHandlerE, %function
_ZN8opendnp316CountIndexParser13InvokeCountOfINS_11Group32Var7EEEvRKNS_12HeaderRecordEtRKNS_9NumParserERKN7openpal6RSliceERNS_12IAPDUHandlerE:
.LFB3259:
	.cfi_startproc
	mov	x7, x0
	stp	x29, x30, [sp, -96]!
	.cfi_def_cfa_offset 96
	.cfi_offset 29, -96
	.cfi_offset 30, -88
	adrp	x5, :got:_ZTVN8opendnp318BufferedCollectionINS_7IndexedINS_6AnalogEEEZNS_16CountIndexParser13InvokeCountOfINS_11Group32Var7EEEvRKNS_12HeaderRecordEtRKNS_9NumParserERKN7openpal6RSliceERNS_12IAPDUHandlerEEUlRSE_jE_EE
	mov	x29, sp
	adrp	x6, :got:__stack_chk_guard
	ldr	x5, [x5, #:got_lo12:_ZTVN8opendnp318BufferedCollectionINS_7IndexedINS_6AnalogEEEZNS_16CountIndexParser13InvokeCountOfINS_11Group32Var7EEEvRKNS_12HeaderRecordEtRKNS_9NumParserERKN7openpal6RSliceERNS_12IAPDUHandlerEEUlRSE_jE_EE]
	mov	x0, x4
	ldp	x8, x9, [x3]
	and	x4, x1, 65535
	ldp	x10, x11, [x7]
	mov	x3, x2
	ldr	x6, [x6, #:got_lo12:__stack_chk_guard]
	add	x5, x5, 16
	ldr	x2, [x6]
	str	x2, [sp, 88]
	mov	x2, 0
	stp	x10, x11, [sp, 24]
	add	x2, sp, 48
	strh	w1, [sp, 40]
	add	x1, sp, 24
	str	x5, [sp, 48]
	stp	x8, x9, [sp, 56]
	stp	x4, x3, [sp, 72]
	bl	_ZN8opendnp312IAPDUHandler8OnHeaderERKNS_12PrefixHeaderERKNS_11ICollectionINS_7IndexedINS_6AnalogEEEEE
	adrp	x0, :got:__stack_chk_guard
	ldr	x0, [x0, #:got_lo12:__stack_chk_guard]
	ldr	x2, [sp, 88]
	ldr	x1, [x0]
	subs	x2, x2, x1
	mov	x1, 0
	bne	.L167
	ldp	x29, x30, [sp], 96
	.cfi_remember_state
	.cfi_restore 30
	.cfi_restore 29
	.cfi_def_cfa_offset 0
	ret
.L167:
	.cfi_restore_state
	bl	__stack_chk_fail
	.cfi_endproc
.LFE3259:
	.size	_ZN8opendnp316CountIndexParser13InvokeCountOfINS_11Group32Var7EEEvRKNS_12HeaderRecordEtRKNS_9NumParserERKN7openpal6RSliceERNS_12IAPDUHandlerE, .-_ZN8opendnp316CountIndexParser13InvokeCountOfINS_11Group32Var7EEEvRKNS_12HeaderRecordEtRKNS_9NumParserERKN7openpal6RSliceERNS_12IAPDUHandlerE
	.section	.text._ZN8opendnp316CountIndexParser13InvokeCountOfINS_11Group32Var8EEEvRKNS_12HeaderRecordEtRKNS_9NumParserERKN7openpal6RSliceERNS_12IAPDUHandlerE,"axG",@progbits,_ZN8opendnp316CountIndexParser13InvokeCountOfINS_11Group32Var8EEEvRKNS_12HeaderRecordEtRKNS_9NumParserERKN7openpal6RSliceERNS_12IAPDUHandlerE,comdat
	.align	2
	.p2align 4,,11
	.weak	_ZN8opendnp316CountIndexParser13InvokeCountOfINS_11Group32Var8EEEvRKNS_12HeaderRecordEtRKNS_9NumParserERKN7openpal6RSliceERNS_12IAPDUHandlerE
	.type	_ZN8opendnp316CountIndexParser13InvokeCountOfINS_11Group32Var8EEEvRKNS_12HeaderRecordEtRKNS_9NumParserERKN7openpal6RSliceERNS_12IAPDUHandlerE, %function
_ZN8opendnp316CountIndexParser13InvokeCountOfINS_11Group32Var8EEEvRKNS_12HeaderRecordEtRKNS_9NumParserERKN7openpal6RSliceERNS_12IAPDUHandlerE:
.LFB3264:
	.cfi_startproc
	mov	x7, x0
	stp	x29, x30, [sp, -96]!
	.cfi_def_cfa_offset 96
	.cfi_offset 29, -96
	.cfi_offset 30, -88
	adrp	x5, :got:_ZTVN8opendnp318BufferedCollectionINS_7IndexedINS_6AnalogEEEZNS_16CountIndexParser13InvokeCountOfINS_11Group32Var8EEEvRKNS_12HeaderRecordEtRKNS_9NumParserERKN7openpal6RSliceERNS_12IAPDUHandlerEEUlRSE_jE_EE
	mov	x29, sp
	adrp	x6, :got:__stack_chk_guard
	ldr	x5, [x5, #:got_lo12:_ZTVN8opendnp318BufferedCollectionINS_7IndexedINS_6AnalogEEEZNS_16CountIndexParser13InvokeCountOfINS_11Group32Var8EEEvRKNS_12HeaderRecordEtRKNS_9NumParserERKN7openpal6RSliceERNS_12IAPDUHandlerEEUlRSE_jE_EE]
	mov	x0, x4
	ldp	x8, x9, [x3]
	and	x4, x1, 65535
	ldp	x10, x11, [x7]
	mov	x3, x2
	ldr	x6, [x6, #:got_lo12:__stack_chk_guard]
	add	x5, x5, 16
	ldr	x2, [x6]
	str	x2, [sp, 88]
	mov	x2, 0
	stp	x10, x11, [sp, 24]
	add	x2, sp, 48
	strh	w1, [sp, 40]
	add	x1, sp, 24
	str	x5, [sp, 48]
	stp	x8, x9, [sp, 56]
	stp	x4, x3, [sp, 72]
	bl	_ZN8opendnp312IAPDUHandler8OnHeaderERKNS_12PrefixHeaderERKNS_11ICollectionINS_7IndexedINS_6AnalogEEEEE
	adrp	x0, :got:__stack_chk_guard
	ldr	x0, [x0, #:got_lo12:__stack_chk_guard]
	ldr	x2, [sp, 88]
	ldr	x1, [x0]
	subs	x2, x2, x1
	mov	x1, 0
	bne	.L171
	ldp	x29, x30, [sp], 96
	.cfi_remember_state
	.cfi_restore 30
	.cfi_restore 29
	.cfi_def_cfa_offset 0
	ret
.L171:
	.cfi_restore_state
	bl	__stack_chk_fail
	.cfi_endproc
.LFE3264:
	.size	_ZN8opendnp316CountIndexParser13InvokeCountOfINS_11Group32Var8EEEvRKNS_12HeaderRecordEtRKNS_9NumParserERKN7openpal6RSliceERNS_12IAPDUHandlerE, .-_ZN8opendnp316CountIndexParser13InvokeCountOfINS_11Group32Var8EEEvRKNS_12HeaderRecordEtRKNS_9NumParserERKN7openpal6RSliceERNS_12IAPDUHandlerE
	.section	.text._ZN8opendnp316CountIndexParser13InvokeCountOfINS_11Group41Var1EEEvRKNS_12HeaderRecordEtRKNS_9NumParserERKN7openpal6RSliceERNS_12IAPDUHandlerE,"axG",@progbits,_ZN8opendnp316CountIndexParser13InvokeCountOfINS_11Group41Var1EEEvRKNS_12HeaderRecordEtRKNS_9NumParserERKN7openpal6RSliceERNS_12IAPDUHandlerE,comdat
	.align	2
	.p2align 4,,11
	.weak	_ZN8opendnp316CountIndexParser13InvokeCountOfINS_11Group41Var1EEEvRKNS_12HeaderRecordEtRKNS_9NumParserERKN7openpal6RSliceERNS_12IAPDUHandlerE
	.type	_ZN8opendnp316CountIndexParser13InvokeCountOfINS_11Group41Var1EEEvRKNS_12HeaderRecordEtRKNS_9NumParserERKN7openpal6RSliceERNS_12IAPDUHandlerE, %function
_ZN8opendnp316CountIndexParser13InvokeCountOfINS_11Group41Var1EEEvRKNS_12HeaderRecordEtRKNS_9NumParserERKN7openpal6RSliceERNS_12IAPDUHandlerE:
.LFB3269:
	.cfi_startproc
	mov	x7, x0
	stp	x29, x30, [sp, -96]!
	.cfi_def_cfa_offset 96
	.cfi_offset 29, -96
	.cfi_offset 30, -88
	adrp	x5, :got:_ZTVN8opendnp318BufferedCollectionINS_7IndexedINS_17AnalogOutputInt32EEEZNS_16CountIndexParser13InvokeCountOfINS_11Group41Var1EEEvRKNS_12HeaderRecordEtRKNS_9NumParserERKN7openpal6RSliceERNS_12IAPDUHandlerEEUlRSE_jE_EE
	mov	x29, sp
	adrp	x6, :got:__stack_chk_guard
	ldr	x5, [x5, #:got_lo12:_ZTVN8opendnp318BufferedCollectionINS_7IndexedINS_17AnalogOutputInt32EEEZNS_16CountIndexParser13InvokeCountOfINS_11Group41Var1EEEvRKNS_12HeaderRecordEtRKNS_9NumParserERKN7openpal6RSliceERNS_12IAPDUHandlerEEUlRSE_jE_EE]
	mov	x0, x4
	ldp	x8, x9, [x3]
	and	x4, x1, 65535
	ldp	x10, x11, [x7]
	mov	x3, x2
	ldr	x6, [x6, #:got_lo12:__stack_chk_guard]
	add	x5, x5, 16
	ldr	x2, [x6]
	str	x2, [sp, 88]
	mov	x2, 0
	stp	x10, x11, [sp, 24]
	add	x2, sp, 48
	strh	w1, [sp, 40]
	add	x1, sp, 24
	str	x5, [sp, 48]
	stp	x8, x9, [sp, 56]
	stp	x4, x3, [sp, 72]
	bl	_ZN8opendnp312IAPDUHandler8OnHeaderERKNS_12PrefixHeaderERKNS_11ICollectionINS_7IndexedINS_17AnalogOutputInt32EEEEE
	adrp	x0, :got:__stack_chk_guard
	ldr	x0, [x0, #:got_lo12:__stack_chk_guard]
	ldr	x2, [sp, 88]
	ldr	x1, [x0]
	subs	x2, x2, x1
	mov	x1, 0
	bne	.L175
	ldp	x29, x30, [sp], 96
	.cfi_remember_state
	.cfi_restore 30
	.cfi_restore 29
	.cfi_def_cfa_offset 0
	ret
.L175:
	.cfi_restore_state
	bl	__stack_chk_fail
	.cfi_endproc
.LFE3269:
	.size	_ZN8opendnp316CountIndexParser13InvokeCountOfINS_11Group41Var1EEEvRKNS_12HeaderRecordEtRKNS_9NumParserERKN7openpal6RSliceERNS_12IAPDUHandlerE, .-_ZN8opendnp316CountIndexParser13InvokeCountOfINS_11Group41Var1EEEvRKNS_12HeaderRecordEtRKNS_9NumParserERKN7openpal6RSliceERNS_12IAPDUHandlerE
	.section	.text._ZN8opendnp316CountIndexParser13InvokeCountOfINS_11Group41Var2EEEvRKNS_12HeaderRecordEtRKNS_9NumParserERKN7openpal6RSliceERNS_12IAPDUHandlerE,"axG",@progbits,_ZN8opendnp316CountIndexParser13InvokeCountOfINS_11Group41Var2EEEvRKNS_12HeaderRecordEtRKNS_9NumParserERKN7openpal6RSliceERNS_12IAPDUHandlerE,comdat
	.align	2
	.p2align 4,,11
	.weak	_ZN8opendnp316CountIndexParser13InvokeCountOfINS_11Group41Var2EEEvRKNS_12HeaderRecordEtRKNS_9NumParserERKN7openpal6RSliceERNS_12IAPDUHandlerE
	.type	_ZN8opendnp316CountIndexParser13InvokeCountOfINS_11Group41Var2EEEvRKNS_12HeaderRecordEtRKNS_9NumParserERKN7openpal6RSliceERNS_12IAPDUHandlerE, %function
_ZN8opendnp316CountIndexParser13InvokeCountOfINS_11Group41Var2EEEvRKNS_12HeaderRecordEtRKNS_9NumParserERKN7openpal6RSliceERNS_12IAPDUHandlerE:
.LFB3277:
	.cfi_startproc
	mov	x7, x0
	stp	x29, x30, [sp, -96]!
	.cfi_def_cfa_offset 96
	.cfi_offset 29, -96
	.cfi_offset 30, -88
	adrp	x5, :got:_ZTVN8opendnp318BufferedCollectionINS_7IndexedINS_17AnalogOutputInt16EEEZNS_16CountIndexParser13InvokeCountOfINS_11Group41Var2EEEvRKNS_12HeaderRecordEtRKNS_9NumParserERKN7openpal6RSliceERNS_12IAPDUHandlerEEUlRSE_jE_EE
	mov	x29, sp
	adrp	x6, :got:__stack_chk_guard
	ldr	x5, [x5, #:got_lo12:_ZTVN8opendnp318BufferedCollectionINS_7IndexedINS_17AnalogOutputInt16EEEZNS_16CountIndexParser13InvokeCountOfINS_11Group41Var2EEEvRKNS_12HeaderRecordEtRKNS_9NumParserERKN7openpal6RSliceERNS_12IAPDUHandlerEEUlRSE_jE_EE]
	mov	x0, x4
	ldp	x8, x9, [x3]
	and	x4, x1, 65535
	ldp	x10, x11, [x7]
	mov	x3, x2
	ldr	x6, [x6, #:got_lo12:__stack_chk_guard]
	add	x5, x5, 16
	ldr	x2, [x6]
	str	x2, [sp, 88]
	mov	x2, 0
	stp	x10, x11, [sp, 24]
	add	x2, sp, 48
	strh	w1, [sp, 40]
	add	x1, sp, 24
	str	x5, [sp, 48]
	stp	x8, x9, [sp, 56]
	stp	x4, x3, [sp, 72]
	bl	_ZN8opendnp312IAPDUHandler8OnHeaderERKNS_12PrefixHeaderERKNS_11ICollectionINS_7IndexedINS_17AnalogOutputInt16EEEEE
	adrp	x0, :got:__stack_chk_guard
	ldr	x0, [x0, #:got_lo12:__stack_chk_guard]
	ldr	x2, [sp, 88]
	ldr	x1, [x0]
	subs	x2, x2, x1
	mov	x1, 0
	bne	.L179
	ldp	x29, x30, [sp], 96
	.cfi_remember_state
	.cfi_restore 30
	.cfi_restore 29
	.cfi_def_cfa_offset 0
	ret
.L179:
	.cfi_restore_state
	bl	__stack_chk_fail
	.cfi_endproc
.LFE3277:
	.size	_ZN8opendnp316CountIndexParser13InvokeCountOfINS_11Group41Var2EEEvRKNS_12HeaderRecordEtRKNS_9NumParserERKN7openpal6RSliceERNS_12IAPDUHandlerE, .-_ZN8opendnp316CountIndexParser13InvokeCountOfINS_11Group41Var2EEEvRKNS_12HeaderRecordEtRKNS_9NumParserERKN7openpal6RSliceERNS_12IAPDUHandlerE
	.section	.text._ZN8opendnp316CountIndexParser13InvokeCountOfINS_11Group41Var3EEEvRKNS_12HeaderRecordEtRKNS_9NumParserERKN7openpal6RSliceERNS_12IAPDUHandlerE,"axG",@progbits,_ZN8opendnp316CountIndexParser13InvokeCountOfINS_11Group41Var3EEEvRKNS_12HeaderRecordEtRKNS_9NumParserERKN7openpal6RSliceERNS_12IAPDUHandlerE,comdat
	.align	2
	.p2align 4,,11
	.weak	_ZN8opendnp316CountIndexParser13InvokeCountOfINS_11Group41Var3EEEvRKNS_12HeaderRecordEtRKNS_9NumParserERKN7openpal6RSliceERNS_12IAPDUHandlerE
	.type	_ZN8opendnp316CountIndexParser13InvokeCountOfINS_11Group41Var3EEEvRKNS_12HeaderRecordEtRKNS_9NumParserERKN7openpal6RSliceERNS_12IAPDUHandlerE, %function
_ZN8opendnp316CountIndexParser13InvokeCountOfINS_11Group41Var3EEEvRKNS_12HeaderRecordEtRKNS_9NumParserERKN7openpal6RSliceERNS_12IAPDUHandlerE:
.LFB3285:
	.cfi_startproc
	mov	x7, x0
	stp	x29, x30, [sp, -96]!
	.cfi_def_cfa_offset 96
	.cfi_offset 29, -96
	.cfi_offset 30, -88
	adrp	x5, :got:_ZTVN8opendnp318BufferedCollectionINS_7IndexedINS_19AnalogOutputFloat32EEEZNS_16CountIndexParser13InvokeCountOfINS_11Group41Var3EEEvRKNS_12HeaderRecordEtRKNS_9NumParserERKN7openpal6RSliceERNS_12IAPDUHandlerEEUlRSE_jE_EE
	mov	x29, sp
	adrp	x6, :got:__stack_chk_guard
	ldr	x5, [x5, #:got_lo12:_ZTVN8opendnp318BufferedCollectionINS_7IndexedINS_19AnalogOutputFloat32EEEZNS_16CountIndexParser13InvokeCountOfINS_11Group41Var3EEEvRKNS_12HeaderRecordEtRKNS_9NumParserERKN7openpal6RSliceERNS_12IAPDUHandlerEEUlRSE_jE_EE]
	mov	x0, x4
	ldp	x8, x9, [x3]
	and	x4, x1, 65535
	ldp	x10, x11, [x7]
	mov	x3, x2
	ldr	x6, [x6, #:got_lo12:__stack_chk_guard]
	add	x5, x5, 16
	ldr	x2, [x6]
	str	x2, [sp, 88]
	mov	x2, 0
	stp	x10, x11, [sp, 24]
	add	x2, sp, 48
	strh	w1, [sp, 40]
	add	x1, sp, 24
	str	x5, [sp, 48]
	stp	x8, x9, [sp, 56]
	stp	x4, x3, [sp, 72]
	bl	_ZN8opendnp312IAPDUHandler8OnHeaderERKNS_12PrefixHeaderERKNS_11ICollectionINS_7IndexedINS_19AnalogOutputFloat32EEEEE
	adrp	x0, :got:__stack_chk_guard
	ldr	x0, [x0, #:got_lo12:__stack_chk_guard]
	ldr	x2, [sp, 88]
	ldr	x1, [x0]
	subs	x2, x2, x1
	mov	x1, 0
	bne	.L183
	ldp	x29, x30, [sp], 96
	.cfi_remember_state
	.cfi_restore 30
	.cfi_restore 29
	.cfi_def_cfa_offset 0
	ret
.L183:
	.cfi_restore_state
	bl	__stack_chk_fail
	.cfi_endproc
.LFE3285:
	.size	_ZN8opendnp316CountIndexParser13InvokeCountOfINS_11Group41Var3EEEvRKNS_12HeaderRecordEtRKNS_9NumParserERKN7openpal6RSliceERNS_12IAPDUHandlerE, .-_ZN8opendnp316CountIndexParser13InvokeCountOfINS_11Group41Var3EEEvRKNS_12HeaderRecordEtRKNS_9NumParserERKN7openpal6RSliceERNS_12IAPDUHandlerE
	.section	.text._ZN8opendnp316CountIndexParser13InvokeCountOfINS_11Group41Var4EEEvRKNS_12HeaderRecordEtRKNS_9NumParserERKN7openpal6RSliceERNS_12IAPDUHandlerE,"axG",@progbits,_ZN8opendnp316CountIndexParser13InvokeCountOfINS_11Group41Var4EEEvRKNS_12HeaderRecordEtRKNS_9NumParserERKN7openpal6RSliceERNS_12IAPDUHandlerE,comdat
	.align	2
	.p2align 4,,11
	.weak	_ZN8opendnp316CountIndexParser13InvokeCountOfINS_11Group41Var4EEEvRKNS_12HeaderRecordEtRKNS_9NumParserERKN7openpal6RSliceERNS_12IAPDUHandlerE
	.type	_ZN8opendnp316CountIndexParser13InvokeCountOfINS_11Group41Var4EEEvRKNS_12HeaderRecordEtRKNS_9NumParserERKN7openpal6RSliceERNS_12IAPDUHandlerE, %function
_ZN8opendnp316CountIndexParser13InvokeCountOfINS_11Group41Var4EEEvRKNS_12HeaderRecordEtRKNS_9NumParserERKN7openpal6RSliceERNS_12IAPDUHandlerE:
.LFB3293:
	.cfi_startproc
	mov	x7, x0
	stp	x29, x30, [sp, -96]!
	.cfi_def_cfa_offset 96
	.cfi_offset 29, -96
	.cfi_offset 30, -88
	adrp	x5, :got:_ZTVN8opendnp318BufferedCollectionINS_7IndexedINS_20AnalogOutputDouble64EEEZNS_16CountIndexParser13InvokeCountOfINS_11Group41Var4EEEvRKNS_12HeaderRecordEtRKNS_9NumParserERKN7openpal6RSliceERNS_12IAPDUHandlerEEUlRSE_jE_EE
	mov	x29, sp
	adrp	x6, :got:__stack_chk_guard
	ldr	x5, [x5, #:got_lo12:_ZTVN8opendnp318BufferedCollectionINS_7IndexedINS_20AnalogOutputDouble64EEEZNS_16CountIndexParser13InvokeCountOfINS_11Group41Var4EEEvRKNS_12HeaderRecordEtRKNS_9NumParserERKN7openpal6RSliceERNS_12IAPDUHandlerEEUlRSE_jE_EE]
	mov	x0, x4
	ldp	x8, x9, [x3]
	and	x4, x1, 65535
	ldp	x10, x11, [x7]
	mov	x3, x2
	ldr	x6, [x6, #:got_lo12:__stack_chk_guard]
	add	x5, x5, 16
	ldr	x2, [x6]
	str	x2, [sp, 88]
	mov	x2, 0
	stp	x10, x11, [sp, 24]
	add	x2, sp, 48
	strh	w1, [sp, 40]
	add	x1, sp, 24
	str	x5, [sp, 48]
	stp	x8, x9, [sp, 56]
	stp	x4, x3, [sp, 72]
	bl	_ZN8opendnp312IAPDUHandler8OnHeaderERKNS_12PrefixHeaderERKNS_11ICollectionINS_7IndexedINS_20AnalogOutputDouble64EEEEE
	adrp	x0, :got:__stack_chk_guard
	ldr	x0, [x0, #:got_lo12:__stack_chk_guard]
	ldr	x2, [sp, 88]
	ldr	x1, [x0]
	subs	x2, x2, x1
	mov	x1, 0
	bne	.L187
	ldp	x29, x30, [sp], 96
	.cfi_remember_state
	.cfi_restore 30
	.cfi_restore 29
	.cfi_def_cfa_offset 0
	ret
.L187:
	.cfi_restore_state
	bl	__stack_chk_fail
	.cfi_endproc
.LFE3293:
	.size	_ZN8opendnp316CountIndexParser13InvokeCountOfINS_11Group41Var4EEEvRKNS_12HeaderRecordEtRKNS_9NumParserERKN7openpal6RSliceERNS_12IAPDUHandlerE, .-_ZN8opendnp316CountIndexParser13InvokeCountOfINS_11Group41Var4EEEvRKNS_12HeaderRecordEtRKNS_9NumParserERKN7openpal6RSliceERNS_12IAPDUHandlerE
	.section	.text._ZN8opendnp316CountIndexParser13InvokeCountOfINS_11Group42Var1EEEvRKNS_12HeaderRecordEtRKNS_9NumParserERKN7openpal6RSliceERNS_12IAPDUHandlerE,"axG",@progbits,_ZN8opendnp316CountIndexParser13InvokeCountOfINS_11Group42Var1EEEvRKNS_12HeaderRecordEtRKNS_9NumParserERKN7openpal6RSliceERNS_12IAPDUHandlerE,comdat
	.align	2
	.p2align 4,,11
	.weak	_ZN8opendnp316CountIndexParser13InvokeCountOfINS_11Group42Var1EEEvRKNS_12HeaderRecordEtRKNS_9NumParserERKN7openpal6RSliceERNS_12IAPDUHandlerE
	.type	_ZN8opendnp316CountIndexParser13InvokeCountOfINS_11Group42Var1EEEvRKNS_12HeaderRecordEtRKNS_9NumParserERKN7openpal6RSliceERNS_12IAPDUHandlerE, %function
_ZN8opendnp316CountIndexParser13InvokeCountOfINS_11Group42Var1EEEvRKNS_12HeaderRecordEtRKNS_9NumParserERKN7openpal6RSliceERNS_12IAPDUHandlerE:
.LFB3301:
	.cfi_startproc
	mov	x7, x0
	stp	x29, x30, [sp, -96]!
	.cfi_def_cfa_offset 96
	.cfi_offset 29, -96
	.cfi_offset 30, -88
	adrp	x5, :got:_ZTVN8opendnp318BufferedCollectionINS_7IndexedINS_18AnalogOutputStatusEEEZNS_16CountIndexParser13InvokeCountOfINS_11Group42Var1EEEvRKNS_12HeaderRecordEtRKNS_9NumParserERKN7openpal6RSliceERNS_12IAPDUHandlerEEUlRSE_jE_EE
	mov	x29, sp
	adrp	x6, :got:__stack_chk_guard
	ldr	x5, [x5, #:got_lo12:_ZTVN8opendnp318BufferedCollectionINS_7IndexedINS_18AnalogOutputStatusEEEZNS_16CountIndexParser13InvokeCountOfINS_11Group42Var1EEEvRKNS_12HeaderRecordEtRKNS_9NumParserERKN7openpal6RSliceERNS_12IAPDUHandlerEEUlRSE_jE_EE]
	mov	x0, x4
	ldp	x8, x9, [x3]
	and	x4, x1, 65535
	ldp	x10, x11, [x7]
	mov	x3, x2
	ldr	x6, [x6, #:got_lo12:__stack_chk_guard]
	add	x5, x5, 16
	ldr	x2, [x6]
	str	x2, [sp, 88]
	mov	x2, 0
	stp	x10, x11, [sp, 24]
	add	x2, sp, 48
	strh	w1, [sp, 40]
	add	x1, sp, 24
	str	x5, [sp, 48]
	stp	x8, x9, [sp, 56]
	stp	x4, x3, [sp, 72]
	bl	_ZN8opendnp312IAPDUHandler8OnHeaderERKNS_12PrefixHeaderERKNS_11ICollectionINS_7IndexedINS_18AnalogOutputStatusEEEEE
	adrp	x0, :got:__stack_chk_guard
	ldr	x0, [x0, #:got_lo12:__stack_chk_guard]
	ldr	x2, [sp, 88]
	ldr	x1, [x0]
	subs	x2, x2, x1
	mov	x1, 0
	bne	.L191
	ldp	x29, x30, [sp], 96
	.cfi_remember_state
	.cfi_restore 30
	.cfi_restore 29
	.cfi_def_cfa_offset 0
	ret
.L191:
	.cfi_restore_state
	bl	__stack_chk_fail
	.cfi_endproc
.LFE3301:
	.size	_ZN8opendnp316CountIndexParser13InvokeCountOfINS_11Group42Var1EEEvRKNS_12HeaderRecordEtRKNS_9NumParserERKN7openpal6RSliceERNS_12IAPDUHandlerE, .-_ZN8opendnp316CountIndexParser13InvokeCountOfINS_11Group42Var1EEEvRKNS_12HeaderRecordEtRKNS_9NumParserERKN7openpal6RSliceERNS_12IAPDUHandlerE
	.section	.text._ZN8opendnp316CountIndexParser13InvokeCountOfINS_11Group42Var2EEEvRKNS_12HeaderRecordEtRKNS_9NumParserERKN7openpal6RSliceERNS_12IAPDUHandlerE,"axG",@progbits,_ZN8opendnp316CountIndexParser13InvokeCountOfINS_11Group42Var2EEEvRKNS_12HeaderRecordEtRKNS_9NumParserERKN7openpal6RSliceERNS_12IAPDUHandlerE,comdat
	.align	2
	.p2align 4,,11
	.weak	_ZN8opendnp316CountIndexParser13InvokeCountOfINS_11Group42Var2EEEvRKNS_12HeaderRecordEtRKNS_9NumParserERKN7openpal6RSliceERNS_12IAPDUHandlerE
	.type	_ZN8opendnp316CountIndexParser13InvokeCountOfINS_11Group42Var2EEEvRKNS_12HeaderRecordEtRKNS_9NumParserERKN7openpal6RSliceERNS_12IAPDUHandlerE, %function
_ZN8opendnp316CountIndexParser13InvokeCountOfINS_11Group42Var2EEEvRKNS_12HeaderRecordEtRKNS_9NumParserERKN7openpal6RSliceERNS_12IAPDUHandlerE:
.LFB3309:
	.cfi_startproc
	mov	x7, x0
	stp	x29, x30, [sp, -96]!
	.cfi_def_cfa_offset 96
	.cfi_offset 29, -96
	.cfi_offset 30, -88
	adrp	x5, :got:_ZTVN8opendnp318BufferedCollectionINS_7IndexedINS_18AnalogOutputStatusEEEZNS_16CountIndexParser13InvokeCountOfINS_11Group42Var2EEEvRKNS_12HeaderRecordEtRKNS_9NumParserERKN7openpal6RSliceERNS_12IAPDUHandlerEEUlRSE_jE_EE
	mov	x29, sp
	adrp	x6, :got:__stack_chk_guard
	ldr	x5, [x5, #:got_lo12:_ZTVN8opendnp318BufferedCollectionINS_7IndexedINS_18AnalogOutputStatusEEEZNS_16CountIndexParser13InvokeCountOfINS_11Group42Var2EEEvRKNS_12HeaderRecordEtRKNS_9NumParserERKN7openpal6RSliceERNS_12IAPDUHandlerEEUlRSE_jE_EE]
	mov	x0, x4
	ldp	x8, x9, [x3]
	and	x4, x1, 65535
	ldp	x10, x11, [x7]
	mov	x3, x2
	ldr	x6, [x6, #:got_lo12:__stack_chk_guard]
	add	x5, x5, 16
	ldr	x2, [x6]
	str	x2, [sp, 88]
	mov	x2, 0
	stp	x10, x11, [sp, 24]
	add	x2, sp, 48
	strh	w1, [sp, 40]
	add	x1, sp, 24
	str	x5, [sp, 48]
	stp	x8, x9, [sp, 56]
	stp	x4, x3, [sp, 72]
	bl	_ZN8opendnp312IAPDUHandler8OnHeaderERKNS_12PrefixHeaderERKNS_11ICollectionINS_7IndexedINS_18AnalogOutputStatusEEEEE
	adrp	x0, :got:__stack_chk_guard
	ldr	x0, [x0, #:got_lo12:__stack_chk_guard]
	ldr	x2, [sp, 88]
	ldr	x1, [x0]
	subs	x2, x2, x1
	mov	x1, 0
	bne	.L195
	ldp	x29, x30, [sp], 96
	.cfi_remember_state
	.cfi_restore 30
	.cfi_restore 29
	.cfi_def_cfa_offset 0
	ret
.L195:
	.cfi_restore_state
	bl	__stack_chk_fail
	.cfi_endproc
.LFE3309:
	.size	_ZN8opendnp316CountIndexParser13InvokeCountOfINS_11Group42Var2EEEvRKNS_12HeaderRecordEtRKNS_9NumParserERKN7openpal6RSliceERNS_12IAPDUHandlerE, .-_ZN8opendnp316CountIndexParser13InvokeCountOfINS_11Group42Var2EEEvRKNS_12HeaderRecordEtRKNS_9NumParserERKN7openpal6RSliceERNS_12IAPDUHandlerE
	.section	.text._ZN8opendnp316CountIndexParser13InvokeCountOfINS_11Group42Var3EEEvRKNS_12HeaderRecordEtRKNS_9NumParserERKN7openpal6RSliceERNS_12IAPDUHandlerE,"axG",@progbits,_ZN8opendnp316CountIndexParser13InvokeCountOfINS_11Group42Var3EEEvRKNS_12HeaderRecordEtRKNS_9NumParserERKN7openpal6RSliceERNS_12IAPDUHandlerE,comdat
	.align	2
	.p2align 4,,11
	.weak	_ZN8opendnp316CountIndexParser13InvokeCountOfINS_11Group42Var3EEEvRKNS_12HeaderRecordEtRKNS_9NumParserERKN7openpal6RSliceERNS_12IAPDUHandlerE
	.type	_ZN8opendnp316CountIndexParser13InvokeCountOfINS_11Group42Var3EEEvRKNS_12HeaderRecordEtRKNS_9NumParserERKN7openpal6RSliceERNS_12IAPDUHandlerE, %function
_ZN8opendnp316CountIndexParser13InvokeCountOfINS_11Group42Var3EEEvRKNS_12HeaderRecordEtRKNS_9NumParserERKN7openpal6RSliceERNS_12IAPDUHandlerE:
.LFB3314:
	.cfi_startproc
	mov	x7, x0
	stp	x29, x30, [sp, -96]!
	.cfi_def_cfa_offset 96
	.cfi_offset 29, -96
	.cfi_offset 30, -88
	adrp	x5, :got:_ZTVN8opendnp318BufferedCollectionINS_7IndexedINS_18AnalogOutputStatusEEEZNS_16CountIndexParser13InvokeCountOfINS_11Group42Var3EEEvRKNS_12HeaderRecordEtRKNS_9NumParserERKN7openpal6RSliceERNS_12IAPDUHandlerEEUlRSE_jE_EE
	mov	x29, sp
	adrp	x6, :got:__stack_chk_guard
	ldr	x5, [x5, #:got_lo12:_ZTVN8opendnp318BufferedCollectionINS_7IndexedINS_18AnalogOutputStatusEEEZNS_16CountIndexParser13InvokeCountOfINS_11Group42Var3EEEvRKNS_12HeaderRecordEtRKNS_9NumParserERKN7openpal6RSliceERNS_12IAPDUHandlerEEUlRSE_jE_EE]
	mov	x0, x4
	ldp	x8, x9, [x3]
	and	x4, x1, 65535
	ldp	x10, x11, [x7]
	mov	x3, x2
	ldr	x6, [x6, #:got_lo12:__stack_chk_guard]
	add	x5, x5, 16
	ldr	x2, [x6]
	str	x2, [sp, 88]
	mov	x2, 0
	stp	x10, x11, [sp, 24]
	add	x2, sp, 48
	strh	w1, [sp, 40]
	add	x1, sp, 24
	str	x5, [sp, 48]
	stp	x8, x9, [sp, 56]
	stp	x4, x3, [sp, 72]
	bl	_ZN8opendnp312IAPDUHandler8OnHeaderERKNS_12PrefixHeaderERKNS_11ICollectionINS_7IndexedINS_18AnalogOutputStatusEEEEE
	adrp	x0, :got:__stack_chk_guard
	ldr	x0, [x0, #:got_lo12:__stack_chk_guard]
	ldr	x2, [sp, 88]
	ldr	x1, [x0]
	subs	x2, x2, x1
	mov	x1, 0
	bne	.L199
	ldp	x29, x30, [sp], 96
	.cfi_remember_state
	.cfi_restore 30
	.cfi_restore 29
	.cfi_def_cfa_offset 0
	ret
.L199:
	.cfi_restore_state
	bl	__stack_chk_fail
	.cfi_endproc
.LFE3314:
	.size	_ZN8opendnp316CountIndexParser13InvokeCountOfINS_11Group42Var3EEEvRKNS_12HeaderRecordEtRKNS_9NumParserERKN7openpal6RSliceERNS_12IAPDUHandlerE, .-_ZN8opendnp316CountIndexParser13InvokeCountOfINS_11Group42Var3EEEvRKNS_12HeaderRecordEtRKNS_9NumParserERKN7openpal6RSliceERNS_12IAPDUHandlerE
	.section	.text._ZN8opendnp316CountIndexParser13InvokeCountOfINS_11Group42Var4EEEvRKNS_12HeaderRecordEtRKNS_9NumParserERKN7openpal6RSliceERNS_12IAPDUHandlerE,"axG",@progbits,_ZN8opendnp316CountIndexParser13InvokeCountOfINS_11Group42Var4EEEvRKNS_12HeaderRecordEtRKNS_9NumParserERKN7openpal6RSliceERNS_12IAPDUHandlerE,comdat
	.align	2
	.p2align 4,,11
	.weak	_ZN8opendnp316CountIndexParser13InvokeCountOfINS_11Group42Var4EEEvRKNS_12HeaderRecordEtRKNS_9NumParserERKN7openpal6RSliceERNS_12IAPDUHandlerE
	.type	_ZN8opendnp316CountIndexParser13InvokeCountOfINS_11Group42Var4EEEvRKNS_12HeaderRecordEtRKNS_9NumParserERKN7openpal6RSliceERNS_12IAPDUHandlerE, %function
_ZN8opendnp316CountIndexParser13InvokeCountOfINS_11Group42Var4EEEvRKNS_12HeaderRecordEtRKNS_9NumParserERKN7openpal6RSliceERNS_12IAPDUHandlerE:
.LFB3319:
	.cfi_startproc
	mov	x7, x0
	stp	x29, x30, [sp, -96]!
	.cfi_def_cfa_offset 96
	.cfi_offset 29, -96
	.cfi_offset 30, -88
	adrp	x5, :got:_ZTVN8opendnp318BufferedCollectionINS_7IndexedINS_18AnalogOutputStatusEEEZNS_16CountIndexParser13InvokeCountOfINS_11Group42Var4EEEvRKNS_12HeaderRecordEtRKNS_9NumParserERKN7openpal6RSliceERNS_12IAPDUHandlerEEUlRSE_jE_EE
	mov	x29, sp
	adrp	x6, :got:__stack_chk_guard
	ldr	x5, [x5, #:got_lo12:_ZTVN8opendnp318BufferedCollectionINS_7IndexedINS_18AnalogOutputStatusEEEZNS_16CountIndexParser13InvokeCountOfINS_11Group42Var4EEEvRKNS_12HeaderRecordEtRKNS_9NumParserERKN7openpal6RSliceERNS_12IAPDUHandlerEEUlRSE_jE_EE]
	mov	x0, x4
	ldp	x8, x9, [x3]
	and	x4, x1, 65535
	ldp	x10, x11, [x7]
	mov	x3, x2
	ldr	x6, [x6, #:got_lo12:__stack_chk_guard]
	add	x5, x5, 16
	ldr	x2, [x6]
	str	x2, [sp, 88]
	mov	x2, 0
	stp	x10, x11, [sp, 24]
	add	x2, sp, 48
	strh	w1, [sp, 40]
	add	x1, sp, 24
	str	x5, [sp, 48]
	stp	x8, x9, [sp, 56]
	stp	x4, x3, [sp, 72]
	bl	_ZN8opendnp312IAPDUHandler8OnHeaderERKNS_12PrefixHeaderERKNS_11ICollectionINS_7IndexedINS_18AnalogOutputStatusEEEEE
	adrp	x0, :got:__stack_chk_guard
	ldr	x0, [x0, #:got_lo12:__stack_chk_guard]
	ldr	x2, [sp, 88]
	ldr	x1, [x0]
	subs	x2, x2, x1
	mov	x1, 0
	bne	.L203
	ldp	x29, x30, [sp], 96
	.cfi_remember_state
	.cfi_restore 30
	.cfi_restore 29
	.cfi_def_cfa_offset 0
	ret
.L203:
	.cfi_restore_state
	bl	__stack_chk_fail
	.cfi_endproc
.LFE3319:
	.size	_ZN8opendnp316CountIndexParser13InvokeCountOfINS_11Group42Var4EEEvRKNS_12HeaderRecordEtRKNS_9NumParserERKN7openpal6RSliceERNS_12IAPDUHandlerE, .-_ZN8opendnp316CountIndexParser13InvokeCountOfINS_11Group42Var4EEEvRKNS_12HeaderRecordEtRKNS_9NumParserERKN7openpal6RSliceERNS_12IAPDUHandlerE
	.section	.text._ZN8opendnp316CountIndexParser13InvokeCountOfINS_11Group42Var5EEEvRKNS_12HeaderRecordEtRKNS_9NumParserERKN7openpal6RSliceERNS_12IAPDUHandlerE,"axG",@progbits,_ZN8opendnp316CountIndexParser13InvokeCountOfINS_11Group42Var5EEEvRKNS_12HeaderRecordEtRKNS_9NumParserERKN7openpal6RSliceERNS_12IAPDUHandlerE,comdat
	.align	2
	.p2align 4,,11
	.weak	_ZN8opendnp316CountIndexParser13InvokeCountOfINS_11Group42Var5EEEvRKNS_12HeaderRecordEtRKNS_9NumParserERKN7openpal6RSliceERNS_12IAPDUHandlerE
	.type	_ZN8opendnp316CountIndexParser13InvokeCountOfINS_11Group42Var5EEEvRKNS_12HeaderRecordEtRKNS_9NumParserERKN7openpal6RSliceERNS_12IAPDUHandlerE, %function
_ZN8opendnp316CountIndexParser13InvokeCountOfINS_11Group42Var5EEEvRKNS_12HeaderRecordEtRKNS_9NumParserERKN7openpal6RSliceERNS_12IAPDUHandlerE:
.LFB3324:
	.cfi_startproc
	mov	x7, x0
	stp	x29, x30, [sp, -96]!
	.cfi_def_cfa_offset 96
	.cfi_offset 29, -96
	.cfi_offset 30, -88
	adrp	x5, :got:_ZTVN8opendnp318BufferedCollectionINS_7IndexedINS_18AnalogOutputStatusEEEZNS_16CountIndexParser13InvokeCountOfINS_11Group42Var5EEEvRKNS_12HeaderRecordEtRKNS_9NumParserERKN7openpal6RSliceERNS_12IAPDUHandlerEEUlRSE_jE_EE
	mov	x29, sp
	adrp	x6, :got:__stack_chk_guard
	ldr	x5, [x5, #:got_lo12:_ZTVN8opendnp318BufferedCollectionINS_7IndexedINS_18AnalogOutputStatusEEEZNS_16CountIndexParser13InvokeCountOfINS_11Group42Var5EEEvRKNS_12HeaderRecordEtRKNS_9NumParserERKN7openpal6RSliceERNS_12IAPDUHandlerEEUlRSE_jE_EE]
	mov	x0, x4
	ldp	x8, x9, [x3]
	and	x4, x1, 65535
	ldp	x10, x11, [x7]
	mov	x3, x2
	ldr	x6, [x6, #:got_lo12:__stack_chk_guard]
	add	x5, x5, 16
	ldr	x2, [x6]
	str	x2, [sp, 88]
	mov	x2, 0
	stp	x10, x11, [sp, 24]
	add	x2, sp, 48
	strh	w1, [sp, 40]
	add	x1, sp, 24
	str	x5, [sp, 48]
	stp	x8, x9, [sp, 56]
	stp	x4, x3, [sp, 72]
	bl	_ZN8opendnp312IAPDUHandler8OnHeaderERKNS_12PrefixHeaderERKNS_11ICollectionINS_7IndexedINS_18AnalogOutputStatusEEEEE
	adrp	x0, :got:__stack_chk_guard
	ldr	x0, [x0, #:got_lo12:__stack_chk_guard]
	ldr	x2, [sp, 88]
	ldr	x1, [x0]
	subs	x2, x2, x1
	mov	x1, 0
	bne	.L207
	ldp	x29, x30, [sp], 96
	.cfi_remember_state
	.cfi_restore 30
	.cfi_restore 29
	.cfi_def_cfa_offset 0
	ret
.L207:
	.cfi_restore_state
	bl	__stack_chk_fail
	.cfi_endproc
.LFE3324:
	.size	_ZN8opendnp316CountIndexParser13InvokeCountOfINS_11Group42Var5EEEvRKNS_12HeaderRecordEtRKNS_9NumParserERKN7openpal6RSliceERNS_12IAPDUHandlerE, .-_ZN8opendnp316CountIndexParser13InvokeCountOfINS_11Group42Var5EEEvRKNS_12HeaderRecordEtRKNS_9NumParserERKN7openpal6RSliceERNS_12IAPDUHandlerE
	.section	.text._ZN8opendnp316CountIndexParser13InvokeCountOfINS_11Group42Var6EEEvRKNS_12HeaderRecordEtRKNS_9NumParserERKN7openpal6RSliceERNS_12IAPDUHandlerE,"axG",@progbits,_ZN8opendnp316CountIndexParser13InvokeCountOfINS_11Group42Var6EEEvRKNS_12HeaderRecordEtRKNS_9NumParserERKN7openpal6RSliceERNS_12IAPDUHandlerE,comdat
	.align	2
	.p2align 4,,11
	.weak	_ZN8opendnp316CountIndexParser13InvokeCountOfINS_11Group42Var6EEEvRKNS_12HeaderRecordEtRKNS_9NumParserERKN7openpal6RSliceERNS_12IAPDUHandlerE
	.type	_ZN8opendnp316CountIndexParser13InvokeCountOfINS_11Group42Var6EEEvRKNS_12HeaderRecordEtRKNS_9NumParserERKN7openpal6RSliceERNS_12IAPDUHandlerE, %function
_ZN8opendnp316CountIndexParser13InvokeCountOfINS_11Group42Var6EEEvRKNS_12HeaderRecordEtRKNS_9NumParserERKN7openpal6RSliceERNS_12IAPDUHandlerE:
.LFB3329:
	.cfi_startproc
	mov	x7, x0
	stp	x29, x30, [sp, -96]!
	.cfi_def_cfa_offset 96
	.cfi_offset 29, -96
	.cfi_offset 30, -88
	adrp	x5, :got:_ZTVN8opendnp318BufferedCollectionINS_7IndexedINS_18AnalogOutputStatusEEEZNS_16CountIndexParser13InvokeCountOfINS_11Group42Var6EEEvRKNS_12HeaderRecordEtRKNS_9NumParserERKN7openpal6RSliceERNS_12IAPDUHandlerEEUlRSE_jE_EE
	mov	x29, sp
	adrp	x6, :got:__stack_chk_guard
	ldr	x5, [x5, #:got_lo12:_ZTVN8opendnp318BufferedCollectionINS_7IndexedINS_18AnalogOutputStatusEEEZNS_16CountIndexParser13InvokeCountOfINS_11Group42Var6EEEvRKNS_12HeaderRecordEtRKNS_9NumParserERKN7openpal6RSliceERNS_12IAPDUHandlerEEUlRSE_jE_EE]
	mov	x0, x4
	ldp	x8, x9, [x3]
	and	x4, x1, 65535
	ldp	x10, x11, [x7]
	mov	x3, x2
	ldr	x6, [x6, #:got_lo12:__stack_chk_guard]
	add	x5, x5, 16
	ldr	x2, [x6]
	str	x2, [sp, 88]
	mov	x2, 0
	stp	x10, x11, [sp, 24]
	add	x2, sp, 48
	strh	w1, [sp, 40]
	add	x1, sp, 24
	str	x5, [sp, 48]
	stp	x8, x9, [sp, 56]
	stp	x4, x3, [sp, 72]
	bl	_ZN8opendnp312IAPDUHandler8OnHeaderERKNS_12PrefixHeaderERKNS_11ICollectionINS_7IndexedINS_18AnalogOutputStatusEEEEE
	adrp	x0, :got:__stack_chk_guard
	ldr	x0, [x0, #:got_lo12:__stack_chk_guard]
	ldr	x2, [sp, 88]
	ldr	x1, [x0]
	subs	x2, x2, x1
	mov	x1, 0
	bne	.L211
	ldp	x29, x30, [sp], 96
	.cfi_remember_state
	.cfi_restore 30
	.cfi_restore 29
	.cfi_def_cfa_offset 0
	ret
.L211:
	.cfi_restore_state
	bl	__stack_chk_fail
	.cfi_endproc
.LFE3329:
	.size	_ZN8opendnp316CountIndexParser13InvokeCountOfINS_11Group42Var6EEEvRKNS_12HeaderRecordEtRKNS_9NumParserERKN7openpal6RSliceERNS_12IAPDUHandlerE, .-_ZN8opendnp316CountIndexParser13InvokeCountOfINS_11Group42Var6EEEvRKNS_12HeaderRecordEtRKNS_9NumParserERKN7openpal6RSliceERNS_12IAPDUHandlerE
	.section	.text._ZN8opendnp316CountIndexParser13InvokeCountOfINS_11Group42Var7EEEvRKNS_12HeaderRecordEtRKNS_9NumParserERKN7openpal6RSliceERNS_12IAPDUHandlerE,"axG",@progbits,_ZN8opendnp316CountIndexParser13InvokeCountOfINS_11Group42Var7EEEvRKNS_12HeaderRecordEtRKNS_9NumParserERKN7openpal6RSliceERNS_12IAPDUHandlerE,comdat
	.align	2
	.p2align 4,,11
	.weak	_ZN8opendnp316CountIndexParser13InvokeCountOfINS_11Group42Var7EEEvRKNS_12HeaderRecordEtRKNS_9NumParserERKN7openpal6RSliceERNS_12IAPDUHandlerE
	.type	_ZN8opendnp316CountIndexParser13InvokeCountOfINS_11Group42Var7EEEvRKNS_12HeaderRecordEtRKNS_9NumParserERKN7openpal6RSliceERNS_12IAPDUHandlerE, %function
_ZN8opendnp316CountIndexParser13InvokeCountOfINS_11Group42Var7EEEvRKNS_12HeaderRecordEtRKNS_9NumParserERKN7openpal6RSliceERNS_12IAPDUHandlerE:
.LFB3334:
	.cfi_startproc
	mov	x7, x0
	stp	x29, x30, [sp, -96]!
	.cfi_def_cfa_offset 96
	.cfi_offset 29, -96
	.cfi_offset 30, -88
	adrp	x5, :got:_ZTVN8opendnp318BufferedCollectionINS_7IndexedINS_18AnalogOutputStatusEEEZNS_16CountIndexParser13InvokeCountOfINS_11Group42Var7EEEvRKNS_12HeaderRecordEtRKNS_9NumParserERKN7openpal6RSliceERNS_12IAPDUHandlerEEUlRSE_jE_EE
	mov	x29, sp
	adrp	x6, :got:__stack_chk_guard
	ldr	x5, [x5, #:got_lo12:_ZTVN8opendnp318BufferedCollectionINS_7IndexedINS_18AnalogOutputStatusEEEZNS_16CountIndexParser13InvokeCountOfINS_11Group42Var7EEEvRKNS_12HeaderRecordEtRKNS_9NumParserERKN7openpal6RSliceERNS_12IAPDUHandlerEEUlRSE_jE_EE]
	mov	x0, x4
	ldp	x8, x9, [x3]
	and	x4, x1, 65535
	ldp	x10, x11, [x7]
	mov	x3, x2
	ldr	x6, [x6, #:got_lo12:__stack_chk_guard]
	add	x5, x5, 16
	ldr	x2, [x6]
	str	x2, [sp, 88]
	mov	x2, 0
	stp	x10, x11, [sp, 24]
	add	x2, sp, 48
	strh	w1, [sp, 40]
	add	x1, sp, 24
	str	x5, [sp, 48]
	stp	x8, x9, [sp, 56]
	stp	x4, x3, [sp, 72]
	bl	_ZN8opendnp312IAPDUHandler8OnHeaderERKNS_12PrefixHeaderERKNS_11ICollectionINS_7IndexedINS_18AnalogOutputStatusEEEEE
	adrp	x0, :got:__stack_chk_guard
	ldr	x0, [x0, #:got_lo12:__stack_chk_guard]
	ldr	x2, [sp, 88]
	ldr	x1, [x0]
	subs	x2, x2, x1
	mov	x1, 0
	bne	.L215
	ldp	x29, x30, [sp], 96
	.cfi_remember_state
	.cfi_restore 30
	.cfi_restore 29
	.cfi_def_cfa_offset 0
	ret
.L215:
	.cfi_restore_state
	bl	__stack_chk_fail
	.cfi_endproc
.LFE3334:
	.size	_ZN8opendnp316CountIndexParser13InvokeCountOfINS_11Group42Var7EEEvRKNS_12HeaderRecordEtRKNS_9NumParserERKN7openpal6RSliceERNS_12IAPDUHandlerE, .-_ZN8opendnp316CountIndexParser13InvokeCountOfINS_11Group42Var7EEEvRKNS_12HeaderRecordEtRKNS_9NumParserERKN7openpal6RSliceERNS_12IAPDUHandlerE
	.section	.text._ZN8opendnp316CountIndexParser13InvokeCountOfINS_11Group42Var8EEEvRKNS_12HeaderRecordEtRKNS_9NumParserERKN7openpal6RSliceERNS_12IAPDUHandlerE,"axG",@progbits,_ZN8opendnp316CountIndexParser13InvokeCountOfINS_11Group42Var8EEEvRKNS_12HeaderRecordEtRKNS_9NumParserERKN7openpal6RSliceERNS_12IAPDUHandlerE,comdat
	.align	2
	.p2align 4,,11
	.weak	_ZN8opendnp316CountIndexParser13InvokeCountOfINS_11Group42Var8EEEvRKNS_12HeaderRecordEtRKNS_9NumParserERKN7openpal6RSliceERNS_12IAPDUHandlerE
	.type	_ZN8opendnp316CountIndexParser13InvokeCountOfINS_11Group42Var8EEEvRKNS_12HeaderRecordEtRKNS_9NumParserERKN7openpal6RSliceERNS_12IAPDUHandlerE, %function
_ZN8opendnp316CountIndexParser13InvokeCountOfINS_11Group42Var8EEEvRKNS_12HeaderRecordEtRKNS_9NumParserERKN7openpal6RSliceERNS_12IAPDUHandlerE:
.LFB3339:
	.cfi_startproc
	mov	x7, x0
	stp	x29, x30, [sp, -96]!
	.cfi_def_cfa_offset 96
	.cfi_offset 29, -96
	.cfi_offset 30, -88
	adrp	x5, :got:_ZTVN8opendnp318BufferedCollectionINS_7IndexedINS_18AnalogOutputStatusEEEZNS_16CountIndexParser13InvokeCountOfINS_11Group42Var8EEEvRKNS_12HeaderRecordEtRKNS_9NumParserERKN7openpal6RSliceERNS_12IAPDUHandlerEEUlRSE_jE_EE
	mov	x29, sp
	adrp	x6, :got:__stack_chk_guard
	ldr	x5, [x5, #:got_lo12:_ZTVN8opendnp318BufferedCollectionINS_7IndexedINS_18AnalogOutputStatusEEEZNS_16CountIndexParser13InvokeCountOfINS_11Group42Var8EEEvRKNS_12HeaderRecordEtRKNS_9NumParserERKN7openpal6RSliceERNS_12IAPDUHandlerEEUlRSE_jE_EE]
	mov	x0, x4
	ldp	x8, x9, [x3]
	and	x4, x1, 65535
	ldp	x10, x11, [x7]
	mov	x3, x2
	ldr	x6, [x6, #:got_lo12:__stack_chk_guard]
	add	x5, x5, 16
	ldr	x2, [x6]
	str	x2, [sp, 88]
	mov	x2, 0
	stp	x10, x11, [sp, 24]
	add	x2, sp, 48
	strh	w1, [sp, 40]
	add	x1, sp, 24
	str	x5, [sp, 48]
	stp	x8, x9, [sp, 56]
	stp	x4, x3, [sp, 72]
	bl	_ZN8opendnp312IAPDUHandler8OnHeaderERKNS_12PrefixHeaderERKNS_11ICollectionINS_7IndexedINS_18AnalogOutputStatusEEEEE
	adrp	x0, :got:__stack_chk_guard
	ldr	x0, [x0, #:got_lo12:__stack_chk_guard]
	ldr	x2, [sp, 88]
	ldr	x1, [x0]
	subs	x2, x2, x1
	mov	x1, 0
	bne	.L219
	ldp	x29, x30, [sp], 96
	.cfi_remember_state
	.cfi_restore 30
	.cfi_restore 29
	.cfi_def_cfa_offset 0
	ret
.L219:
	.cfi_restore_state
	bl	__stack_chk_fail
	.cfi_endproc
.LFE3339:
	.size	_ZN8opendnp316CountIndexParser13InvokeCountOfINS_11Group42Var8EEEvRKNS_12HeaderRecordEtRKNS_9NumParserERKN7openpal6RSliceERNS_12IAPDUHandlerE, .-_ZN8opendnp316CountIndexParser13InvokeCountOfINS_11Group42Var8EEEvRKNS_12HeaderRecordEtRKNS_9NumParserERKN7openpal6RSliceERNS_12IAPDUHandlerE
	.section	.text._ZN8opendnp316CountIndexParser13InvokeCountOfINS_11Group43Var1EEEvRKNS_12HeaderRecordEtRKNS_9NumParserERKN7openpal6RSliceERNS_12IAPDUHandlerE,"axG",@progbits,_ZN8opendnp316CountIndexParser13InvokeCountOfINS_11Group43Var1EEEvRKNS_12HeaderRecordEtRKNS_9NumParserERKN7openpal6RSliceERNS_12IAPDUHandlerE,comdat
	.align	2
	.p2align 4,,11
	.weak	_ZN8opendnp316CountIndexParser13InvokeCountOfINS_11Group43Var1EEEvRKNS_12HeaderRecordEtRKNS_9NumParserERKN7openpal6RSliceERNS_12IAPDUHandlerE
	.type	_ZN8opendnp316CountIndexParser13InvokeCountOfINS_11Group43Var1EEEvRKNS_12HeaderRecordEtRKNS_9NumParserERKN7openpal6RSliceERNS_12IAPDUHandlerE, %function
_ZN8opendnp316CountIndexParser13InvokeCountOfINS_11Group43Var1EEEvRKNS_12HeaderRecordEtRKNS_9NumParserERKN7openpal6RSliceERNS_12IAPDUHandlerE:
.LFB3344:
	.cfi_startproc
	mov	x7, x0
	stp	x29, x30, [sp, -96]!
	.cfi_def_cfa_offset 96
	.cfi_offset 29, -96
	.cfi_offset 30, -88
	adrp	x5, :got:_ZTVN8opendnp318BufferedCollectionINS_7IndexedINS_18AnalogCommandEventEEEZNS_16CountIndexParser13InvokeCountOfINS_11Group43Var1EEEvRKNS_12HeaderRecordEtRKNS_9NumParserERKN7openpal6RSliceERNS_12IAPDUHandlerEEUlRSE_jE_EE
	mov	x29, sp
	adrp	x6, :got:__stack_chk_guard
	ldr	x5, [x5, #:got_lo12:_ZTVN8opendnp318BufferedCollectionINS_7IndexedINS_18AnalogCommandEventEEEZNS_16CountIndexParser13InvokeCountOfINS_11Group43Var1EEEvRKNS_12HeaderRecordEtRKNS_9NumParserERKN7openpal6RSliceERNS_12IAPDUHandlerEEUlRSE_jE_EE]
	mov	x0, x4
	ldp	x8, x9, [x3]
	and	x4, x1, 65535
	ldp	x10, x11, [x7]
	mov	x3, x2
	ldr	x6, [x6, #:got_lo12:__stack_chk_guard]
	add	x5, x5, 16
	ldr	x2, [x6]
	str	x2, [sp, 88]
	mov	x2, 0
	stp	x10, x11, [sp, 24]
	add	x2, sp, 48
	strh	w1, [sp, 40]
	add	x1, sp, 24
	str	x5, [sp, 48]
	stp	x8, x9, [sp, 56]
	stp	x4, x3, [sp, 72]
	bl	_ZN8opendnp312IAPDUHandler8OnHeaderERKNS_12PrefixHeaderERKNS_11ICollectionINS_7IndexedINS_18AnalogCommandEventEEEEE
	adrp	x0, :got:__stack_chk_guard
	ldr	x0, [x0, #:got_lo12:__stack_chk_guard]
	ldr	x2, [sp, 88]
	ldr	x1, [x0]
	subs	x2, x2, x1
	mov	x1, 0
	bne	.L223
	ldp	x29, x30, [sp], 96
	.cfi_remember_state
	.cfi_restore 30
	.cfi_restore 29
	.cfi_def_cfa_offset 0
	ret
.L223:
	.cfi_restore_state
	bl	__stack_chk_fail
	.cfi_endproc
.LFE3344:
	.size	_ZN8opendnp316CountIndexParser13InvokeCountOfINS_11Group43Var1EEEvRKNS_12HeaderRecordEtRKNS_9NumParserERKN7openpal6RSliceERNS_12IAPDUHandlerE, .-_ZN8opendnp316CountIndexParser13InvokeCountOfINS_11Group43Var1EEEvRKNS_12HeaderRecordEtRKNS_9NumParserERKN7openpal6RSliceERNS_12IAPDUHandlerE
	.section	.text._ZN8opendnp316CountIndexParser13InvokeCountOfINS_11Group43Var2EEEvRKNS_12HeaderRecordEtRKNS_9NumParserERKN7openpal6RSliceERNS_12IAPDUHandlerE,"axG",@progbits,_ZN8opendnp316CountIndexParser13InvokeCountOfINS_11Group43Var2EEEvRKNS_12HeaderRecordEtRKNS_9NumParserERKN7openpal6RSliceERNS_12IAPDUHandlerE,comdat
	.align	2
	.p2align 4,,11
	.weak	_ZN8opendnp316CountIndexParser13InvokeCountOfINS_11Group43Var2EEEvRKNS_12HeaderRecordEtRKNS_9NumParserERKN7openpal6RSliceERNS_12IAPDUHandlerE
	.type	_ZN8opendnp316CountIndexParser13InvokeCountOfINS_11Group43Var2EEEvRKNS_12HeaderRecordEtRKNS_9NumParserERKN7openpal6RSliceERNS_12IAPDUHandlerE, %function
_ZN8opendnp316CountIndexParser13InvokeCountOfINS_11Group43Var2EEEvRKNS_12HeaderRecordEtRKNS_9NumParserERKN7openpal6RSliceERNS_12IAPDUHandlerE:
.LFB3352:
	.cfi_startproc
	mov	x7, x0
	stp	x29, x30, [sp, -96]!
	.cfi_def_cfa_offset 96
	.cfi_offset 29, -96
	.cfi_offset 30, -88
	adrp	x5, :got:_ZTVN8opendnp318BufferedCollectionINS_7IndexedINS_18AnalogCommandEventEEEZNS_16CountIndexParser13InvokeCountOfINS_11Group43Var2EEEvRKNS_12HeaderRecordEtRKNS_9NumParserERKN7openpal6RSliceERNS_12IAPDUHandlerEEUlRSE_jE_EE
	mov	x29, sp
	adrp	x6, :got:__stack_chk_guard
	ldr	x5, [x5, #:got_lo12:_ZTVN8opendnp318BufferedCollectionINS_7IndexedINS_18AnalogCommandEventEEEZNS_16CountIndexParser13InvokeCountOfINS_11Group43Var2EEEvRKNS_12HeaderRecordEtRKNS_9NumParserERKN7openpal6RSliceERNS_12IAPDUHandlerEEUlRSE_jE_EE]
	mov	x0, x4
	ldp	x8, x9, [x3]
	and	x4, x1, 65535
	ldp	x10, x11, [x7]
	mov	x3, x2
	ldr	x6, [x6, #:got_lo12:__stack_chk_guard]
	add	x5, x5, 16
	ldr	x2, [x6]
	str	x2, [sp, 88]
	mov	x2, 0
	stp	x10, x11, [sp, 24]
	add	x2, sp, 48
	strh	w1, [sp, 40]
	add	x1, sp, 24
	str	x5, [sp, 48]
	stp	x8, x9, [sp, 56]
	stp	x4, x3, [sp, 72]
	bl	_ZN8opendnp312IAPDUHandler8OnHeaderERKNS_12PrefixHeaderERKNS_11ICollectionINS_7IndexedINS_18AnalogCommandEventEEEEE
	adrp	x0, :got:__stack_chk_guard
	ldr	x0, [x0, #:got_lo12:__stack_chk_guard]
	ldr	x2, [sp, 88]
	ldr	x1, [x0]
	subs	x2, x2, x1
	mov	x1, 0
	bne	.L227
	ldp	x29, x30, [sp], 96
	.cfi_remember_state
	.cfi_restore 30
	.cfi_restore 29
	.cfi_def_cfa_offset 0
	ret
.L227:
	.cfi_restore_state
	bl	__stack_chk_fail
	.cfi_endproc
.LFE3352:
	.size	_ZN8opendnp316CountIndexParser13InvokeCountOfINS_11Group43Var2EEEvRKNS_12HeaderRecordEtRKNS_9NumParserERKN7openpal6RSliceERNS_12IAPDUHandlerE, .-_ZN8opendnp316CountIndexParser13InvokeCountOfINS_11Group43Var2EEEvRKNS_12HeaderRecordEtRKNS_9NumParserERKN7openpal6RSliceERNS_12IAPDUHandlerE
	.section	.text._ZN8opendnp316CountIndexParser13InvokeCountOfINS_11Group43Var3EEEvRKNS_12HeaderRecordEtRKNS_9NumParserERKN7openpal6RSliceERNS_12IAPDUHandlerE,"axG",@progbits,_ZN8opendnp316CountIndexParser13InvokeCountOfINS_11Group43Var3EEEvRKNS_12HeaderRecordEtRKNS_9NumParserERKN7openpal6RSliceERNS_12IAPDUHandlerE,comdat
	.align	2
	.p2align 4,,11
	.weak	_ZN8opendnp316CountIndexParser13InvokeCountOfINS_11Group43Var3EEEvRKNS_12HeaderRecordEtRKNS_9NumParserERKN7openpal6RSliceERNS_12IAPDUHandlerE
	.type	_ZN8opendnp316CountIndexParser13InvokeCountOfINS_11Group43Var3EEEvRKNS_12HeaderRecordEtRKNS_9NumParserERKN7openpal6RSliceERNS_12IAPDUHandlerE, %function
_ZN8opendnp316CountIndexParser13InvokeCountOfINS_11Group43Var3EEEvRKNS_12HeaderRecordEtRKNS_9NumParserERKN7openpal6RSliceERNS_12IAPDUHandlerE:
.LFB3357:
	.cfi_startproc
	mov	x7, x0
	stp	x29, x30, [sp, -96]!
	.cfi_def_cfa_offset 96
	.cfi_offset 29, -96
	.cfi_offset 30, -88
	adrp	x5, :got:_ZTVN8opendnp318BufferedCollectionINS_7IndexedINS_18AnalogCommandEventEEEZNS_16CountIndexParser13InvokeCountOfINS_11Group43Var3EEEvRKNS_12HeaderRecordEtRKNS_9NumParserERKN7openpal6RSliceERNS_12IAPDUHandlerEEUlRSE_jE_EE
	mov	x29, sp
	adrp	x6, :got:__stack_chk_guard
	ldr	x5, [x5, #:got_lo12:_ZTVN8opendnp318BufferedCollectionINS_7IndexedINS_18AnalogCommandEventEEEZNS_16CountIndexParser13InvokeCountOfINS_11Group43Var3EEEvRKNS_12HeaderRecordEtRKNS_9NumParserERKN7openpal6RSliceERNS_12IAPDUHandlerEEUlRSE_jE_EE]
	mov	x0, x4
	ldp	x8, x9, [x3]
	and	x4, x1, 65535
	ldp	x10, x11, [x7]
	mov	x3, x2
	ldr	x6, [x6, #:got_lo12:__stack_chk_guard]
	add	x5, x5, 16
	ldr	x2, [x6]
	str	x2, [sp, 88]
	mov	x2, 0
	stp	x10, x11, [sp, 24]
	add	x2, sp, 48
	strh	w1, [sp, 40]
	add	x1, sp, 24
	str	x5, [sp, 48]
	stp	x8, x9, [sp, 56]
	stp	x4, x3, [sp, 72]
	bl	_ZN8opendnp312IAPDUHandler8OnHeaderERKNS_12PrefixHeaderERKNS_11ICollectionINS_7IndexedINS_18AnalogCommandEventEEEEE
	adrp	x0, :got:__stack_chk_guard
	ldr	x0, [x0, #:got_lo12:__stack_chk_guard]
	ldr	x2, [sp, 88]
	ldr	x1, [x0]
	subs	x2, x2, x1
	mov	x1, 0
	bne	.L231
	ldp	x29, x30, [sp], 96
	.cfi_remember_state
	.cfi_restore 30
	.cfi_restore 29
	.cfi_def_cfa_offset 0
	ret
.L231:
	.cfi_restore_state
	bl	__stack_chk_fail
	.cfi_endproc
.LFE3357:
	.size	_ZN8opendnp316CountIndexParser13InvokeCountOfINS_11Group43Var3EEEvRKNS_12HeaderRecordEtRKNS_9NumParserERKN7openpal6RSliceERNS_12IAPDUHandlerE, .-_ZN8opendnp316CountIndexParser13InvokeCountOfINS_11Group43Var3EEEvRKNS_12HeaderRecordEtRKNS_9NumParserERKN7openpal6RSliceERNS_12IAPDUHandlerE
	.section	.text._ZN8opendnp316CountIndexParser13InvokeCountOfINS_11Group43Var4EEEvRKNS_12HeaderRecordEtRKNS_9NumParserERKN7openpal6RSliceERNS_12IAPDUHandlerE,"axG",@progbits,_ZN8opendnp316CountIndexParser13InvokeCountOfINS_11Group43Var4EEEvRKNS_12HeaderRecordEtRKNS_9NumParserERKN7openpal6RSliceERNS_12IAPDUHandlerE,comdat
	.align	2
	.p2align 4,,11
	.weak	_ZN8opendnp316CountIndexParser13InvokeCountOfINS_11Group43Var4EEEvRKNS_12HeaderRecordEtRKNS_9NumParserERKN7openpal6RSliceERNS_12IAPDUHandlerE
	.type	_ZN8opendnp316CountIndexParser13InvokeCountOfINS_11Group43Var4EEEvRKNS_12HeaderRecordEtRKNS_9NumParserERKN7openpal6RSliceERNS_12IAPDUHandlerE, %function
_ZN8opendnp316CountIndexParser13InvokeCountOfINS_11Group43Var4EEEvRKNS_12HeaderRecordEtRKNS_9NumParserERKN7openpal6RSliceERNS_12IAPDUHandlerE:
.LFB3362:
	.cfi_startproc
	mov	x7, x0
	stp	x29, x30, [sp, -96]!
	.cfi_def_cfa_offset 96
	.cfi_offset 29, -96
	.cfi_offset 30, -88
	adrp	x5, :got:_ZTVN8opendnp318BufferedCollectionINS_7IndexedINS_18AnalogCommandEventEEEZNS_16CountIndexParser13InvokeCountOfINS_11Group43Var4EEEvRKNS_12HeaderRecordEtRKNS_9NumParserERKN7openpal6RSliceERNS_12IAPDUHandlerEEUlRSE_jE_EE
	mov	x29, sp
	adrp	x6, :got:__stack_chk_guard
	ldr	x5, [x5, #:got_lo12:_ZTVN8opendnp318BufferedCollectionINS_7IndexedINS_18AnalogCommandEventEEEZNS_16CountIndexParser13InvokeCountOfINS_11Group43Var4EEEvRKNS_12HeaderRecordEtRKNS_9NumParserERKN7openpal6RSliceERNS_12IAPDUHandlerEEUlRSE_jE_EE]
	mov	x0, x4
	ldp	x8, x9, [x3]
	and	x4, x1, 65535
	ldp	x10, x11, [x7]
	mov	x3, x2
	ldr	x6, [x6, #:got_lo12:__stack_chk_guard]
	add	x5, x5, 16
	ldr	x2, [x6]
	str	x2, [sp, 88]
	mov	x2, 0
	stp	x10, x11, [sp, 24]
	add	x2, sp, 48
	strh	w1, [sp, 40]
	add	x1, sp, 24
	str	x5, [sp, 48]
	stp	x8, x9, [sp, 56]
	stp	x4, x3, [sp, 72]
	bl	_ZN8opendnp312IAPDUHandler8OnHeaderERKNS_12PrefixHeaderERKNS_11ICollectionINS_7IndexedINS_18AnalogCommandEventEEEEE
	adrp	x0, :got:__stack_chk_guard
	ldr	x0, [x0, #:got_lo12:__stack_chk_guard]
	ldr	x2, [sp, 88]
	ldr	x1, [x0]
	subs	x2, x2, x1
	mov	x1, 0
	bne	.L235
	ldp	x29, x30, [sp], 96
	.cfi_remember_state
	.cfi_restore 30
	.cfi_restore 29
	.cfi_def_cfa_offset 0
	ret
.L235:
	.cfi_restore_state
	bl	__stack_chk_fail
	.cfi_endproc
.LFE3362:
	.size	_ZN8opendnp316CountIndexParser13InvokeCountOfINS_11Group43Var4EEEvRKNS_12HeaderRecordEtRKNS_9NumParserERKN7openpal6RSliceERNS_12IAPDUHandlerE, .-_ZN8opendnp316CountIndexParser13InvokeCountOfINS_11Group43Var4EEEvRKNS_12HeaderRecordEtRKNS_9NumParserERKN7openpal6RSliceERNS_12IAPDUHandlerE
	.section	.text._ZN8opendnp316CountIndexParser13InvokeCountOfINS_11Group43Var5EEEvRKNS_12HeaderRecordEtRKNS_9NumParserERKN7openpal6RSliceERNS_12IAPDUHandlerE,"axG",@progbits,_ZN8opendnp316CountIndexParser13InvokeCountOfINS_11Group43Var5EEEvRKNS_12HeaderRecordEtRKNS_9NumParserERKN7openpal6RSliceERNS_12IAPDUHandlerE,comdat
	.align	2
	.p2align 4,,11
	.weak	_ZN8opendnp316CountIndexParser13InvokeCountOfINS_11Group43Var5EEEvRKNS_12HeaderRecordEtRKNS_9NumParserERKN7openpal6RSliceERNS_12IAPDUHandlerE
	.type	_ZN8opendnp316CountIndexParser13InvokeCountOfINS_11Group43Var5EEEvRKNS_12HeaderRecordEtRKNS_9NumParserERKN7openpal6RSliceERNS_12IAPDUHandlerE, %function
_ZN8opendnp316CountIndexParser13InvokeCountOfINS_11Group43Var5EEEvRKNS_12HeaderRecordEtRKNS_9NumParserERKN7openpal6RSliceERNS_12IAPDUHandlerE:
.LFB3367:
	.cfi_startproc
	mov	x7, x0
	stp	x29, x30, [sp, -96]!
	.cfi_def_cfa_offset 96
	.cfi_offset 29, -96
	.cfi_offset 30, -88
	adrp	x5, :got:_ZTVN8opendnp318BufferedCollectionINS_7IndexedINS_18AnalogCommandEventEEEZNS_16CountIndexParser13InvokeCountOfINS_11Group43Var5EEEvRKNS_12HeaderRecordEtRKNS_9NumParserERKN7openpal6RSliceERNS_12IAPDUHandlerEEUlRSE_jE_EE
	mov	x29, sp
	adrp	x6, :got:__stack_chk_guard
	ldr	x5, [x5, #:got_lo12:_ZTVN8opendnp318BufferedCollectionINS_7IndexedINS_18AnalogCommandEventEEEZNS_16CountIndexParser13InvokeCountOfINS_11Group43Var5EEEvRKNS_12HeaderRecordEtRKNS_9NumParserERKN7openpal6RSliceERNS_12IAPDUHandlerEEUlRSE_jE_EE]
	mov	x0, x4
	ldp	x8, x9, [x3]
	and	x4, x1, 65535
	ldp	x10, x11, [x7]
	mov	x3, x2
	ldr	x6, [x6, #:got_lo12:__stack_chk_guard]
	add	x5, x5, 16
	ldr	x2, [x6]
	str	x2, [sp, 88]
	mov	x2, 0
	stp	x10, x11, [sp, 24]
	add	x2, sp, 48
	strh	w1, [sp, 40]
	add	x1, sp, 24
	str	x5, [sp, 48]
	stp	x8, x9, [sp, 56]
	stp	x4, x3, [sp, 72]
	bl	_ZN8opendnp312IAPDUHandler8OnHeaderERKNS_12PrefixHeaderERKNS_11ICollectionINS_7IndexedINS_18AnalogCommandEventEEEEE
	adrp	x0, :got:__stack_chk_guard
	ldr	x0, [x0, #:got_lo12:__stack_chk_guard]
	ldr	x2, [sp, 88]
	ldr	x1, [x0]
	subs	x2, x2, x1
	mov	x1, 0
	bne	.L239
	ldp	x29, x30, [sp], 96
	.cfi_remember_state
	.cfi_restore 30
	.cfi_restore 29
	.cfi_def_cfa_offset 0
	ret
.L239:
	.cfi_restore_state
	bl	__stack_chk_fail
	.cfi_endproc
.LFE3367:
	.size	_ZN8opendnp316CountIndexParser13InvokeCountOfINS_11Group43Var5EEEvRKNS_12HeaderRecordEtRKNS_9NumParserERKN7openpal6RSliceERNS_12IAPDUHandlerE, .-_ZN8opendnp316CountIndexParser13InvokeCountOfINS_11Group43Var5EEEvRKNS_12HeaderRecordEtRKNS_9NumParserERKN7openpal6RSliceERNS_12IAPDUHandlerE
	.section	.text._ZN8opendnp316CountIndexParser13InvokeCountOfINS_11Group43Var6EEEvRKNS_12HeaderRecordEtRKNS_9NumParserERKN7openpal6RSliceERNS_12IAPDUHandlerE,"axG",@progbits,_ZN8opendnp316CountIndexParser13InvokeCountOfINS_11Group43Var6EEEvRKNS_12HeaderRecordEtRKNS_9NumParserERKN7openpal6RSliceERNS_12IAPDUHandlerE,comdat
	.align	2
	.p2align 4,,11
	.weak	_ZN8opendnp316CountIndexParser13InvokeCountOfINS_11Group43Var6EEEvRKNS_12HeaderRecordEtRKNS_9NumParserERKN7openpal6RSliceERNS_12IAPDUHandlerE
	.type	_ZN8opendnp316CountIndexParser13InvokeCountOfINS_11Group43Var6EEEvRKNS_12HeaderRecordEtRKNS_9NumParserERKN7openpal6RSliceERNS_12IAPDUHandlerE, %function
_ZN8opendnp316CountIndexParser13InvokeCountOfINS_11Group43Var6EEEvRKNS_12HeaderRecordEtRKNS_9NumParserERKN7openpal6RSliceERNS_12IAPDUHandlerE:
.LFB3372:
	.cfi_startproc
	mov	x7, x0
	stp	x29, x30, [sp, -96]!
	.cfi_def_cfa_offset 96
	.cfi_offset 29, -96
	.cfi_offset 30, -88
	adrp	x5, :got:_ZTVN8opendnp318BufferedCollectionINS_7IndexedINS_18AnalogCommandEventEEEZNS_16CountIndexParser13InvokeCountOfINS_11Group43Var6EEEvRKNS_12HeaderRecordEtRKNS_9NumParserERKN7openpal6RSliceERNS_12IAPDUHandlerEEUlRSE_jE_EE
	mov	x29, sp
	adrp	x6, :got:__stack_chk_guard
	ldr	x5, [x5, #:got_lo12:_ZTVN8opendnp318BufferedCollectionINS_7IndexedINS_18AnalogCommandEventEEEZNS_16CountIndexParser13InvokeCountOfINS_11Group43Var6EEEvRKNS_12HeaderRecordEtRKNS_9NumParserERKN7openpal6RSliceERNS_12IAPDUHandlerEEUlRSE_jE_EE]
	mov	x0, x4
	ldp	x8, x9, [x3]
	and	x4, x1, 65535
	ldp	x10, x11, [x7]
	mov	x3, x2
	ldr	x6, [x6, #:got_lo12:__stack_chk_guard]
	add	x5, x5, 16
	ldr	x2, [x6]
	str	x2, [sp, 88]
	mov	x2, 0
	stp	x10, x11, [sp, 24]
	add	x2, sp, 48
	strh	w1, [sp, 40]
	add	x1, sp, 24
	str	x5, [sp, 48]
	stp	x8, x9, [sp, 56]
	stp	x4, x3, [sp, 72]
	bl	_ZN8opendnp312IAPDUHandler8OnHeaderERKNS_12PrefixHeaderERKNS_11ICollectionINS_7IndexedINS_18AnalogCommandEventEEEEE
	adrp	x0, :got:__stack_chk_guard
	ldr	x0, [x0, #:got_lo12:__stack_chk_guard]
	ldr	x2, [sp, 88]
	ldr	x1, [x0]
	subs	x2, x2, x1
	mov	x1, 0
	bne	.L243
	ldp	x29, x30, [sp], 96
	.cfi_remember_state
	.cfi_restore 30
	.cfi_restore 29
	.cfi_def_cfa_offset 0
	ret
.L243:
	.cfi_restore_state
	bl	__stack_chk_fail
	.cfi_endproc
.LFE3372:
	.size	_ZN8opendnp316CountIndexParser13InvokeCountOfINS_11Group43Var6EEEvRKNS_12HeaderRecordEtRKNS_9NumParserERKN7openpal6RSliceERNS_12IAPDUHandlerE, .-_ZN8opendnp316CountIndexParser13InvokeCountOfINS_11Group43Var6EEEvRKNS_12HeaderRecordEtRKNS_9NumParserERKN7openpal6RSliceERNS_12IAPDUHandlerE
	.section	.text._ZN8opendnp316CountIndexParser13InvokeCountOfINS_11Group43Var7EEEvRKNS_12HeaderRecordEtRKNS_9NumParserERKN7openpal6RSliceERNS_12IAPDUHandlerE,"axG",@progbits,_ZN8opendnp316CountIndexParser13InvokeCountOfINS_11Group43Var7EEEvRKNS_12HeaderRecordEtRKNS_9NumParserERKN7openpal6RSliceERNS_12IAPDUHandlerE,comdat
	.align	2
	.p2align 4,,11
	.weak	_ZN8opendnp316CountIndexParser13InvokeCountOfINS_11Group43Var7EEEvRKNS_12HeaderRecordEtRKNS_9NumParserERKN7openpal6RSliceERNS_12IAPDUHandlerE
	.type	_ZN8opendnp316CountIndexParser13InvokeCountOfINS_11Group43Var7EEEvRKNS_12HeaderRecordEtRKNS_9NumParserERKN7openpal6RSliceERNS_12IAPDUHandlerE, %function
_ZN8opendnp316CountIndexParser13InvokeCountOfINS_11Group43Var7EEEvRKNS_12HeaderRecordEtRKNS_9NumParserERKN7openpal6RSliceERNS_12IAPDUHandlerE:
.LFB3377:
	.cfi_startproc
	mov	x7, x0
	stp	x29, x30, [sp, -96]!
	.cfi_def_cfa_offset 96
	.cfi_offset 29, -96
	.cfi_offset 30, -88
	adrp	x5, :got:_ZTVN8opendnp318BufferedCollectionINS_7IndexedINS_18AnalogCommandEventEEEZNS_16CountIndexParser13InvokeCountOfINS_11Group43Var7EEEvRKNS_12HeaderRecordEtRKNS_9NumParserERKN7openpal6RSliceERNS_12IAPDUHandlerEEUlRSE_jE_EE
	mov	x29, sp
	adrp	x6, :got:__stack_chk_guard
	ldr	x5, [x5, #:got_lo12:_ZTVN8opendnp318BufferedCollectionINS_7IndexedINS_18AnalogCommandEventEEEZNS_16CountIndexParser13InvokeCountOfINS_11Group43Var7EEEvRKNS_12HeaderRecordEtRKNS_9NumParserERKN7openpal6RSliceERNS_12IAPDUHandlerEEUlRSE_jE_EE]
	mov	x0, x4
	ldp	x8, x9, [x3]
	and	x4, x1, 65535
	ldp	x10, x11, [x7]
	mov	x3, x2
	ldr	x6, [x6, #:got_lo12:__stack_chk_guard]
	add	x5, x5, 16
	ldr	x2, [x6]
	str	x2, [sp, 88]
	mov	x2, 0
	stp	x10, x11, [sp, 24]
	add	x2, sp, 48
	strh	w1, [sp, 40]
	add	x1, sp, 24
	str	x5, [sp, 48]
	stp	x8, x9, [sp, 56]
	stp	x4, x3, [sp, 72]
	bl	_ZN8opendnp312IAPDUHandler8OnHeaderERKNS_12PrefixHeaderERKNS_11ICollectionINS_7IndexedINS_18AnalogCommandEventEEEEE
	adrp	x0, :got:__stack_chk_guard
	ldr	x0, [x0, #:got_lo12:__stack_chk_guard]
	ldr	x2, [sp, 88]
	ldr	x1, [x0]
	subs	x2, x2, x1
	mov	x1, 0
	bne	.L247
	ldp	x29, x30, [sp], 96
	.cfi_remember_state
	.cfi_restore 30
	.cfi_restore 29
	.cfi_def_cfa_offset 0
	ret
.L247:
	.cfi_restore_state
	bl	__stack_chk_fail
	.cfi_endproc
.LFE3377:
	.size	_ZN8opendnp316CountIndexParser13InvokeCountOfINS_11Group43Var7EEEvRKNS_12HeaderRecordEtRKNS_9NumParserERKN7openpal6RSliceERNS_12IAPDUHandlerE, .-_ZN8opendnp316CountIndexParser13InvokeCountOfINS_11Group43Var7EEEvRKNS_12HeaderRecordEtRKNS_9NumParserERKN7openpal6RSliceERNS_12IAPDUHandlerE
	.section	.text._ZN8opendnp316CountIndexParser13InvokeCountOfINS_11Group43Var8EEEvRKNS_12HeaderRecordEtRKNS_9NumParserERKN7openpal6RSliceERNS_12IAPDUHandlerE,"axG",@progbits,_ZN8opendnp316CountIndexParser13InvokeCountOfINS_11Group43Var8EEEvRKNS_12HeaderRecordEtRKNS_9NumParserERKN7openpal6RSliceERNS_12IAPDUHandlerE,comdat
	.align	2
	.p2align 4,,11
	.weak	_ZN8opendnp316CountIndexParser13InvokeCountOfINS_11Group43Var8EEEvRKNS_12HeaderRecordEtRKNS_9NumParserERKN7openpal6RSliceERNS_12IAPDUHandlerE
	.type	_ZN8opendnp316CountIndexParser13InvokeCountOfINS_11Group43Var8EEEvRKNS_12HeaderRecordEtRKNS_9NumParserERKN7openpal6RSliceERNS_12IAPDUHandlerE, %function
_ZN8opendnp316CountIndexParser13InvokeCountOfINS_11Group43Var8EEEvRKNS_12HeaderRecordEtRKNS_9NumParserERKN7openpal6RSliceERNS_12IAPDUHandlerE:
.LFB3382:
	.cfi_startproc
	mov	x7, x0
	stp	x29, x30, [sp, -96]!
	.cfi_def_cfa_offset 96
	.cfi_offset 29, -96
	.cfi_offset 30, -88
	adrp	x5, :got:_ZTVN8opendnp318BufferedCollectionINS_7IndexedINS_18AnalogCommandEventEEEZNS_16CountIndexParser13InvokeCountOfINS_11Group43Var8EEEvRKNS_12HeaderRecordEtRKNS_9NumParserERKN7openpal6RSliceERNS_12IAPDUHandlerEEUlRSE_jE_EE
	mov	x29, sp
	adrp	x6, :got:__stack_chk_guard
	ldr	x5, [x5, #:got_lo12:_ZTVN8opendnp318BufferedCollectionINS_7IndexedINS_18AnalogCommandEventEEEZNS_16CountIndexParser13InvokeCountOfINS_11Group43Var8EEEvRKNS_12HeaderRecordEtRKNS_9NumParserERKN7openpal6RSliceERNS_12IAPDUHandlerEEUlRSE_jE_EE]
	mov	x0, x4
	ldp	x8, x9, [x3]
	and	x4, x1, 65535
	ldp	x10, x11, [x7]
	mov	x3, x2
	ldr	x6, [x6, #:got_lo12:__stack_chk_guard]
	add	x5, x5, 16
	ldr	x2, [x6]
	str	x2, [sp, 88]
	mov	x2, 0
	stp	x10, x11, [sp, 24]
	add	x2, sp, 48
	strh	w1, [sp, 40]
	add	x1, sp, 24
	str	x5, [sp, 48]
	stp	x8, x9, [sp, 56]
	stp	x4, x3, [sp, 72]
	bl	_ZN8opendnp312IAPDUHandler8OnHeaderERKNS_12PrefixHeaderERKNS_11ICollectionINS_7IndexedINS_18AnalogCommandEventEEEEE
	adrp	x0, :got:__stack_chk_guard
	ldr	x0, [x0, #:got_lo12:__stack_chk_guard]
	ldr	x2, [sp, 88]
	ldr	x1, [x0]
	subs	x2, x2, x1
	mov	x1, 0
	bne	.L251
	ldp	x29, x30, [sp], 96
	.cfi_remember_state
	.cfi_restore 30
	.cfi_restore 29
	.cfi_def_cfa_offset 0
	ret
.L251:
	.cfi_restore_state
	bl	__stack_chk_fail
	.cfi_endproc
.LFE3382:
	.size	_ZN8opendnp316CountIndexParser13InvokeCountOfINS_11Group43Var8EEEvRKNS_12HeaderRecordEtRKNS_9NumParserERKN7openpal6RSliceERNS_12IAPDUHandlerE, .-_ZN8opendnp316CountIndexParser13InvokeCountOfINS_11Group43Var8EEEvRKNS_12HeaderRecordEtRKNS_9NumParserERKN7openpal6RSliceERNS_12IAPDUHandlerE
	.section	.text._ZN8opendnp316CountIndexParser13InvokeCountOfINS_11Group50Var4EEEvRKNS_12HeaderRecordEtRKNS_9NumParserERKN7openpal6RSliceERNS_12IAPDUHandlerE,"axG",@progbits,_ZN8opendnp316CountIndexParser13InvokeCountOfINS_11Group50Var4EEEvRKNS_12HeaderRecordEtRKNS_9NumParserERKN7openpal6RSliceERNS_12IAPDUHandlerE,comdat
	.align	2
	.p2align 4,,11
	.weak	_ZN8opendnp316CountIndexParser13InvokeCountOfINS_11Group50Var4EEEvRKNS_12HeaderRecordEtRKNS_9NumParserERKN7openpal6RSliceERNS_12IAPDUHandlerE
	.type	_ZN8opendnp316CountIndexParser13InvokeCountOfINS_11Group50Var4EEEvRKNS_12HeaderRecordEtRKNS_9NumParserERKN7openpal6RSliceERNS_12IAPDUHandlerE, %function
_ZN8opendnp316CountIndexParser13InvokeCountOfINS_11Group50Var4EEEvRKNS_12HeaderRecordEtRKNS_9NumParserERKN7openpal6RSliceERNS_12IAPDUHandlerE:
.LFB3387:
	.cfi_startproc
	mov	x7, x0
	stp	x29, x30, [sp, -96]!
	.cfi_def_cfa_offset 96
	.cfi_offset 29, -96
	.cfi_offset 30, -88
	adrp	x5, :got:_ZTVN8opendnp318BufferedCollectionINS_7IndexedINS_15TimeAndIntervalEEEZNS_16CountIndexParser13InvokeCountOfINS_11Group50Var4EEEvRKNS_12HeaderRecordEtRKNS_9NumParserERKN7openpal6RSliceERNS_12IAPDUHandlerEEUlRSE_jE_EE
	mov	x29, sp
	adrp	x6, :got:__stack_chk_guard
	ldr	x5, [x5, #:got_lo12:_ZTVN8opendnp318BufferedCollectionINS_7IndexedINS_15TimeAndIntervalEEEZNS_16CountIndexParser13InvokeCountOfINS_11Group50Var4EEEvRKNS_12HeaderRecordEtRKNS_9NumParserERKN7openpal6RSliceERNS_12IAPDUHandlerEEUlRSE_jE_EE]
	mov	x0, x4
	ldp	x8, x9, [x3]
	and	x4, x1, 65535
	ldp	x10, x11, [x7]
	mov	x3, x2
	ldr	x6, [x6, #:got_lo12:__stack_chk_guard]
	add	x5, x5, 16
	ldr	x2, [x6]
	str	x2, [sp, 88]
	mov	x2, 0
	stp	x10, x11, [sp, 24]
	add	x2, sp, 48
	strh	w1, [sp, 40]
	add	x1, sp, 24
	str	x5, [sp, 48]
	stp	x8, x9, [sp, 56]
	stp	x4, x3, [sp, 72]
	bl	_ZN8opendnp312IAPDUHandler8OnHeaderERKNS_12PrefixHeaderERKNS_11ICollectionINS_7IndexedINS_15TimeAndIntervalEEEEE
	adrp	x0, :got:__stack_chk_guard
	ldr	x0, [x0, #:got_lo12:__stack_chk_guard]
	ldr	x2, [sp, 88]
	ldr	x1, [x0]
	subs	x2, x2, x1
	mov	x1, 0
	bne	.L255
	ldp	x29, x30, [sp], 96
	.cfi_remember_state
	.cfi_restore 30
	.cfi_restore 29
	.cfi_def_cfa_offset 0
	ret
.L255:
	.cfi_restore_state
	bl	__stack_chk_fail
	.cfi_endproc
.LFE3387:
	.size	_ZN8opendnp316CountIndexParser13InvokeCountOfINS_11Group50Var4EEEvRKNS_12HeaderRecordEtRKNS_9NumParserERKN7openpal6RSliceERNS_12IAPDUHandlerE, .-_ZN8opendnp316CountIndexParser13InvokeCountOfINS_11Group50Var4EEEvRKNS_12HeaderRecordEtRKNS_9NumParserERKN7openpal6RSliceERNS_12IAPDUHandlerE
	.section	.text._ZN8opendnp316CountIndexParser17InvokeCountOfTypeINS_12Group122Var1EEEvRKNS_12HeaderRecordEtRKNS_9NumParserERKN7openpal6RSliceERNS_12IAPDUHandlerE,"axG",@progbits,_ZN8opendnp316CountIndexParser17InvokeCountOfTypeINS_12Group122Var1EEEvRKNS_12HeaderRecordEtRKNS_9NumParserERKN7openpal6RSliceERNS_12IAPDUHandlerE,comdat
	.align	2
	.p2align 4,,11
	.weak	_ZN8opendnp316CountIndexParser17InvokeCountOfTypeINS_12Group122Var1EEEvRKNS_12HeaderRecordEtRKNS_9NumParserERKN7openpal6RSliceERNS_12IAPDUHandlerE
	.type	_ZN8opendnp316CountIndexParser17InvokeCountOfTypeINS_12Group122Var1EEEvRKNS_12HeaderRecordEtRKNS_9NumParserERKN7openpal6RSliceERNS_12IAPDUHandlerE, %function
_ZN8opendnp316CountIndexParser17InvokeCountOfTypeINS_12Group122Var1EEEvRKNS_12HeaderRecordEtRKNS_9NumParserERKN7openpal6RSliceERNS_12IAPDUHandlerE:
.LFB3395:
	.cfi_startproc
	mov	x7, x0
	stp	x29, x30, [sp, -96]!
	.cfi_def_cfa_offset 96
	.cfi_offset 29, -96
	.cfi_offset 30, -88
	adrp	x5, :got:_ZTVN8opendnp318BufferedCollectionINS_7IndexedINS_12Group122Var1EEEZNS_16CountIndexParser17InvokeCountOfTypeIS2_EEvRKNS_12HeaderRecordEtRKNS_9NumParserERKN7openpal6RSliceERNS_12IAPDUHandlerEEUlRSD_jE_EE
	mov	x29, sp
	adrp	x6, :got:__stack_chk_guard
	ldr	x5, [x5, #:got_lo12:_ZTVN8opendnp318BufferedCollectionINS_7IndexedINS_12Group122Var1EEEZNS_16CountIndexParser17InvokeCountOfTypeIS2_EEvRKNS_12HeaderRecordEtRKNS_9NumParserERKN7openpal6RSliceERNS_12IAPDUHandlerEEUlRSD_jE_EE]
	mov	x0, x4
	ldp	x8, x9, [x3]
	and	x4, x1, 65535
	ldp	x10, x11, [x7]
	mov	x3, x2
	ldr	x6, [x6, #:got_lo12:__stack_chk_guard]
	add	x5, x5, 16
	ldr	x2, [x6]
	str	x2, [sp, 88]
	mov	x2, 0
	stp	x10, x11, [sp, 24]
	add	x2, sp, 48
	strh	w1, [sp, 40]
	add	x1, sp, 24
	str	x5, [sp, 48]
	stp	x8, x9, [sp, 56]
	stp	x4, x3, [sp, 72]
	bl	_ZN8opendnp312IAPDUHandler8OnHeaderERKNS_12PrefixHeaderERKNS_11ICollectionINS_7IndexedINS_12Group122Var1EEEEE
	adrp	x0, :got:__stack_chk_guard
	ldr	x0, [x0, #:got_lo12:__stack_chk_guard]
	ldr	x2, [sp, 88]
	ldr	x1, [x0]
	subs	x2, x2, x1
	mov	x1, 0
	bne	.L259
	ldp	x29, x30, [sp], 96
	.cfi_remember_state
	.cfi_restore 30
	.cfi_restore 29
	.cfi_def_cfa_offset 0
	ret
.L259:
	.cfi_restore_state
	bl	__stack_chk_fail
	.cfi_endproc
.LFE3395:
	.size	_ZN8opendnp316CountIndexParser17InvokeCountOfTypeINS_12Group122Var1EEEvRKNS_12HeaderRecordEtRKNS_9NumParserERKN7openpal6RSliceERNS_12IAPDUHandlerE, .-_ZN8opendnp316CountIndexParser17InvokeCountOfTypeINS_12Group122Var1EEEvRKNS_12HeaderRecordEtRKNS_9NumParserERKN7openpal6RSliceERNS_12IAPDUHandlerE
	.section	.text._ZN8opendnp316CountIndexParser17InvokeCountOfTypeINS_12Group122Var2EEEvRKNS_12HeaderRecordEtRKNS_9NumParserERKN7openpal6RSliceERNS_12IAPDUHandlerE,"axG",@progbits,_ZN8opendnp316CountIndexParser17InvokeCountOfTypeINS_12Group122Var2EEEvRKNS_12HeaderRecordEtRKNS_9NumParserERKN7openpal6RSliceERNS_12IAPDUHandlerE,comdat
	.align	2
	.p2align 4,,11
	.weak	_ZN8opendnp316CountIndexParser17InvokeCountOfTypeINS_12Group122Var2EEEvRKNS_12HeaderRecordEtRKNS_9NumParserERKN7openpal6RSliceERNS_12IAPDUHandlerE
	.type	_ZN8opendnp316CountIndexParser17InvokeCountOfTypeINS_12Group122Var2EEEvRKNS_12HeaderRecordEtRKNS_9NumParserERKN7openpal6RSliceERNS_12IAPDUHandlerE, %function
_ZN8opendnp316CountIndexParser17InvokeCountOfTypeINS_12Group122Var2EEEvRKNS_12HeaderRecordEtRKNS_9NumParserERKN7openpal6RSliceERNS_12IAPDUHandlerE:
.LFB3403:
	.cfi_startproc
	mov	x7, x0
	stp	x29, x30, [sp, -96]!
	.cfi_def_cfa_offset 96
	.cfi_offset 29, -96
	.cfi_offset 30, -88
	adrp	x5, :got:_ZTVN8opendnp318BufferedCollectionINS_7IndexedINS_12Group122Var2EEEZNS_16CountIndexParser17InvokeCountOfTypeIS2_EEvRKNS_12HeaderRecordEtRKNS_9NumParserERKN7openpal6RSliceERNS_12IAPDUHandlerEEUlRSD_jE_EE
	mov	x29, sp
	adrp	x6, :got:__stack_chk_guard
	ldr	x5, [x5, #:got_lo12:_ZTVN8opendnp318BufferedCollectionINS_7IndexedINS_12Group122Var2EEEZNS_16CountIndexParser17InvokeCountOfTypeIS2_EEvRKNS_12HeaderRecordEtRKNS_9NumParserERKN7openpal6RSliceERNS_12IAPDUHandlerEEUlRSD_jE_EE]
	mov	x0, x4
	ldp	x8, x9, [x3]
	and	x4, x1, 65535
	ldp	x10, x11, [x7]
	mov	x3, x2
	ldr	x6, [x6, #:got_lo12:__stack_chk_guard]
	add	x5, x5, 16
	ldr	x2, [x6]
	str	x2, [sp, 88]
	mov	x2, 0
	stp	x10, x11, [sp, 24]
	add	x2, sp, 48
	strh	w1, [sp, 40]
	add	x1, sp, 24
	str	x5, [sp, 48]
	stp	x8, x9, [sp, 56]
	stp	x4, x3, [sp, 72]
	bl	_ZN8opendnp312IAPDUHandler8OnHeaderERKNS_12PrefixHeaderERKNS_11ICollectionINS_7IndexedINS_12Group122Var2EEEEE
	adrp	x0, :got:__stack_chk_guard
	ldr	x0, [x0, #:got_lo12:__stack_chk_guard]
	ldr	x2, [sp, 88]
	ldr	x1, [x0]
	subs	x2, x2, x1
	mov	x1, 0
	bne	.L263
	ldp	x29, x30, [sp], 96
	.cfi_remember_state
	.cfi_restore 30
	.cfi_restore 29
	.cfi_def_cfa_offset 0
	ret
.L263:
	.cfi_restore_state
	bl	__stack_chk_fail
	.cfi_endproc
.LFE3403:
	.size	_ZN8opendnp316CountIndexParser17InvokeCountOfTypeINS_12Group122Var2EEEvRKNS_12HeaderRecordEtRKNS_9NumParserERKN7openpal6RSliceERNS_12IAPDUHandlerE, .-_ZN8opendnp316CountIndexParser17InvokeCountOfTypeINS_12Group122Var2EEEvRKNS_12HeaderRecordEtRKNS_9NumParserERKN7openpal6RSliceERNS_12IAPDUHandlerE
	.section	.text._ZN7openpal12StaticBufferILj255EED0Ev,"axG",@progbits,_ZN7openpal12StaticBufferILj255EED5Ev,comdat
	.align	2
	.p2align 4,,11
	.weak	_ZN7openpal12StaticBufferILj255EED0Ev
	.type	_ZN7openpal12StaticBufferILj255EED0Ev, %function
_ZN7openpal12StaticBufferILj255EED0Ev:
.LFB2832:
	.cfi_startproc
	mov	x1, 264
	b	_ZdlPvm
	.cfi_endproc
.LFE2832:
	.size	_ZN7openpal12StaticBufferILj255EED0Ev, .-_ZN7openpal12StaticBufferILj255EED0Ev
	.section	.text._ZNK8opendnp318BufferedCollectionINS_7IndexedINS_12Group122Var2EEEZNS_16CountIndexParser17InvokeCountOfTypeIS2_EEvRKNS_12HeaderRecordEtRKNS_9NumParserERKN7openpal6RSliceERNS_12IAPDUHandlerEEUlRSD_jE_E7ForeachERNS_8IVisitorIS3_EE,"axG",@progbits,_ZNK8opendnp318BufferedCollectionINS_7IndexedINS_12Group122Var2EEEZNS_16CountIndexParser17InvokeCountOfTypeIS2_EEvRKNS_12HeaderRecordEtRKNS_9NumParserERKN7openpal6RSliceERNS_12IAPDUHandlerEEUlRSD_jE_E7ForeachERNS_8IVisitorIS3_EE,comdat
	.align	2
	.p2align 4,,11
	.weak	_ZNK8opendnp318BufferedCollectionINS_7IndexedINS_12Group122Var2EEEZNS_16CountIndexParser17InvokeCountOfTypeIS2_EEvRKNS_12HeaderRecordEtRKNS_9NumParserERKN7openpal6RSliceERNS_12IAPDUHandlerEEUlRSD_jE_E7ForeachERNS_8IVisitorIS3_EE
	.type	_ZNK8opendnp318BufferedCollectionINS_7IndexedINS_12Group122Var2EEEZNS_16CountIndexParser17InvokeCountOfTypeIS2_EEvRKNS_12HeaderRecordEtRKNS_9NumParserERKN7openpal6RSliceERNS_12IAPDUHandlerEEUlRSD_jE_E7ForeachERNS_8IVisitorIS3_EE, %function
_ZNK8opendnp318BufferedCollectionINS_7IndexedINS_12Group122Var2EEEZNS_16CountIndexParser17InvokeCountOfTypeIS2_EEvRKNS_12HeaderRecordEtRKNS_9NumParserERKN7openpal6RSliceERNS_12IAPDUHandlerEEUlRSD_jE_E7ForeachERNS_8IVisitorIS3_EE:
.LFB3981:
	.cfi_startproc
	stp	x29, x30, [sp, -112]!
	.cfi_def_cfa_offset 112
	.cfi_offset 29, -112
	.cfi_offset 30, -104
	adrp	x2, :got:__stack_chk_guard
	mov	x29, sp
	ldr	x2, [x2, #:got_lo12:__stack_chk_guard]
	stp	x21, x22, [sp, 32]
	.cfi_offset 21, -80
	.cfi_offset 22, -72
	mov	x21, x0
	mov	x22, x1
	ldr	x1, [x2]
	str	x1, [sp, 104]
	mov	x1, 0
	ldp	x2, x3, [x0, 8]
	stp	x2, x3, [sp, 64]
	ldr	x0, [x0, 24]
	cbz	x0, .L265
	stp	x19, x20, [sp, 16]
	.cfi_offset 20, -88
	.cfi_offset 19, -96
	add	x20, sp, 80
	mov	w19, 0
	stp	x23, x24, [sp, 48]
	.cfi_offset 24, -56
	.cfi_offset 23, -64
	add	x23, sp, 64
	.p2align 3,,7
.L267:
	mov	x0, x20
	ldr	x1, [x22]
	add	w19, w19, 1
	ldr	x24, [x1]
	bl	_ZN8opendnp312Group122Var2C1Ev
	ldr	x0, [x21, 32]
	mov	x1, x23
	strh	wzr, [sp, 96]
	bl	_ZNK8opendnp39NumParser7ReadNumERN7openpal6RSliceE
	mov	w2, w0
	mov	x1, x20
	mov	x0, x23
	strh	w2, [sp, 96]
	bl	_ZN8opendnp312Group122Var24ReadERN7openpal6RSliceERS0_
	mov	x0, x22
	mov	x1, x20
	blr	x24
	ldr	x0, [x21, 24]
	cmp	x0, w19, uxtw
	bhi	.L267
	ldp	x19, x20, [sp, 16]
	.cfi_restore 20
	.cfi_restore 19
	ldp	x23, x24, [sp, 48]
	.cfi_restore 24
	.cfi_restore 23
.L265:
	adrp	x0, :got:__stack_chk_guard
	ldr	x0, [x0, #:got_lo12:__stack_chk_guard]
	ldr	x2, [sp, 104]
	ldr	x1, [x0]
	subs	x2, x2, x1
	mov	x1, 0
	bne	.L274
	ldp	x21, x22, [sp, 32]
	ldp	x29, x30, [sp], 112
	.cfi_remember_state
	.cfi_restore 30
	.cfi_restore 29
	.cfi_restore 21
	.cfi_restore 22
	.cfi_def_cfa_offset 0
	ret
.L274:
	.cfi_restore_state
	stp	x19, x20, [sp, 16]
	.cfi_offset 20, -88
	.cfi_offset 19, -96
	stp	x23, x24, [sp, 48]
	.cfi_offset 24, -56
	.cfi_offset 23, -64
	bl	__stack_chk_fail
	.cfi_endproc
.LFE3981:
	.size	_ZNK8opendnp318BufferedCollectionINS_7IndexedINS_12Group122Var2EEEZNS_16CountIndexParser17InvokeCountOfTypeIS2_EEvRKNS_12HeaderRecordEtRKNS_9NumParserERKN7openpal6RSliceERNS_12IAPDUHandlerEEUlRSD_jE_E7ForeachERNS_8IVisitorIS3_EE, .-_ZNK8opendnp318BufferedCollectionINS_7IndexedINS_12Group122Var2EEEZNS_16CountIndexParser17InvokeCountOfTypeIS2_EEvRKNS_12HeaderRecordEtRKNS_9NumParserERKN7openpal6RSliceERNS_12IAPDUHandlerEEUlRSD_jE_E7ForeachERNS_8IVisitorIS3_EE
	.section	.text._ZNK8opendnp318BufferedCollectionINS_7IndexedINS_12Group122Var1EEEZNS_16CountIndexParser17InvokeCountOfTypeIS2_EEvRKNS_12HeaderRecordEtRKNS_9NumParserERKN7openpal6RSliceERNS_12IAPDUHandlerEEUlRSD_jE_E7ForeachERNS_8IVisitorIS3_EE,"axG",@progbits,_ZNK8opendnp318BufferedCollectionINS_7IndexedINS_12Group122Var1EEEZNS_16CountIndexParser17InvokeCountOfTypeIS2_EEvRKNS_12HeaderRecordEtRKNS_9NumParserERKN7openpal6RSliceERNS_12IAPDUHandlerEEUlRSD_jE_E7ForeachERNS_8IVisitorIS3_EE,comdat
	.align	2
	.p2align 4,,11
	.weak	_ZNK8opendnp318BufferedCollectionINS_7IndexedINS_12Group122Var1EEEZNS_16CountIndexParser17InvokeCountOfTypeIS2_EEvRKNS_12HeaderRecordEtRKNS_9NumParserERKN7openpal6RSliceERNS_12IAPDUHandlerEEUlRSD_jE_E7ForeachERNS_8IVisitorIS3_EE
	.type	_ZNK8opendnp318BufferedCollectionINS_7IndexedINS_12Group122Var1EEEZNS_16CountIndexParser17InvokeCountOfTypeIS2_EEvRKNS_12HeaderRecordEtRKNS_9NumParserERKN7openpal6RSliceERNS_12IAPDUHandlerEEUlRSD_jE_E7ForeachERNS_8IVisitorIS3_EE, %function
_ZNK8opendnp318BufferedCollectionINS_7IndexedINS_12Group122Var1EEEZNS_16CountIndexParser17InvokeCountOfTypeIS2_EEvRKNS_12HeaderRecordEtRKNS_9NumParserERKN7openpal6RSliceERNS_12IAPDUHandlerEEUlRSD_jE_E7ForeachERNS_8IVisitorIS3_EE:
.LFB3983:
	.cfi_startproc
	stp	x29, x30, [sp, -112]!
	.cfi_def_cfa_offset 112
	.cfi_offset 29, -112
	.cfi_offset 30, -104
	adrp	x2, :got:__stack_chk_guard
	mov	x29, sp
	ldr	x2, [x2, #:got_lo12:__stack_chk_guard]
	stp	x21, x22, [sp, 32]
	.cfi_offset 21, -80
	.cfi_offset 22, -72
	mov	x21, x0
	mov	x22, x1
	ldr	x1, [x2]
	str	x1, [sp, 104]
	mov	x1, 0
	ldp	x2, x3, [x0, 8]
	stp	x2, x3, [sp, 88]
	ldr	x0, [x0, 24]
	cbz	x0, .L275
	stp	x19, x20, [sp, 16]
	.cfi_offset 20, -88
	.cfi_offset 19, -96
	add	x20, sp, 72
	mov	w19, 0
	stp	x23, x24, [sp, 48]
	.cfi_offset 24, -56
	.cfi_offset 23, -64
	add	x23, sp, 88
	.p2align 3,,7
.L277:
	mov	x0, x20
	ldr	x1, [x22]
	add	w19, w19, 1
	ldr	x24, [x1]
	bl	_ZN8opendnp312Group122Var1C1Ev
	ldr	x0, [x21, 32]
	mov	x1, x23
	strh	wzr, [sp, 80]
	bl	_ZNK8opendnp39NumParser7ReadNumERN7openpal6RSliceE
	mov	w2, w0
	mov	x1, x20
	mov	x0, x23
	strh	w2, [sp, 80]
	bl	_ZN8opendnp312Group122Var14ReadERN7openpal6RSliceERS0_
	mov	x0, x22
	mov	x1, x20
	blr	x24
	ldr	x0, [x21, 24]
	cmp	x0, w19, uxtw
	bhi	.L277
	ldp	x19, x20, [sp, 16]
	.cfi_restore 20
	.cfi_restore 19
	ldp	x23, x24, [sp, 48]
	.cfi_restore 24
	.cfi_restore 23
.L275:
	adrp	x0, :got:__stack_chk_guard
	ldr	x0, [x0, #:got_lo12:__stack_chk_guard]
	ldr	x2, [sp, 104]
	ldr	x1, [x0]
	subs	x2, x2, x1
	mov	x1, 0
	bne	.L284
	ldp	x21, x22, [sp, 32]
	ldp	x29, x30, [sp], 112
	.cfi_remember_state
	.cfi_restore 30
	.cfi_restore 29
	.cfi_restore 21
	.cfi_restore 22
	.cfi_def_cfa_offset 0
	ret
.L284:
	.cfi_restore_state
	stp	x19, x20, [sp, 16]
	.cfi_offset 20, -88
	.cfi_offset 19, -96
	stp	x23, x24, [sp, 48]
	.cfi_offset 24, -56
	.cfi_offset 23, -64
	bl	__stack_chk_fail
	.cfi_endproc
.LFE3983:
	.size	_ZNK8opendnp318BufferedCollectionINS_7IndexedINS_12Group122Var1EEEZNS_16CountIndexParser17InvokeCountOfTypeIS2_EEvRKNS_12HeaderRecordEtRKNS_9NumParserERKN7openpal6RSliceERNS_12IAPDUHandlerEEUlRSD_jE_E7ForeachERNS_8IVisitorIS3_EE, .-_ZNK8opendnp318BufferedCollectionINS_7IndexedINS_12Group122Var1EEEZNS_16CountIndexParser17InvokeCountOfTypeIS2_EEvRKNS_12HeaderRecordEtRKNS_9NumParserERKN7openpal6RSliceERNS_12IAPDUHandlerEEUlRSD_jE_E7ForeachERNS_8IVisitorIS3_EE
	.section	.text._ZNK8opendnp318BufferedCollectionINS_7IndexedINS_15TimeAndIntervalEEEZNS_16CountIndexParser13InvokeCountOfINS_11Group50Var4EEEvRKNS_12HeaderRecordEtRKNS_9NumParserERKN7openpal6RSliceERNS_12IAPDUHandlerEEUlRSE_jE_E7ForeachERNS_8IVisitorIS3_EE,"axG",@progbits,_ZNK8opendnp318BufferedCollectionINS_7IndexedINS_15TimeAndIntervalEEEZNS_16CountIndexParser13InvokeCountOfINS_11Group50Var4EEEvRKNS_12HeaderRecordEtRKNS_9NumParserERKN7openpal6RSliceERNS_12IAPDUHandlerEEUlRSE_jE_E7ForeachERNS_8IVisitorIS3_EE,comdat
	.align	2
	.p2align 4,,11
	.weak	_ZNK8opendnp318BufferedCollectionINS_7IndexedINS_15TimeAndIntervalEEEZNS_16CountIndexParser13InvokeCountOfINS_11Group50Var4EEEvRKNS_12HeaderRecordEtRKNS_9NumParserERKN7openpal6RSliceERNS_12IAPDUHandlerEEUlRSE_jE_E7ForeachERNS_8IVisitorIS3_EE
	.type	_ZNK8opendnp318BufferedCollectionINS_7IndexedINS_15TimeAndIntervalEEEZNS_16CountIndexParser13InvokeCountOfINS_11Group50Var4EEEvRKNS_12HeaderRecordEtRKNS_9NumParserERKN7openpal6RSliceERNS_12IAPDUHandlerEEUlRSE_jE_E7ForeachERNS_8IVisitorIS3_EE, %function
_ZNK8opendnp318BufferedCollectionINS_7IndexedINS_15TimeAndIntervalEEEZNS_16CountIndexParser13InvokeCountOfINS_11Group50Var4EEEvRKNS_12HeaderRecordEtRKNS_9NumParserERKN7openpal6RSliceERNS_12IAPDUHandlerEEUlRSE_jE_E7ForeachERNS_8IVisitorIS3_EE:
.LFB3985:
	.cfi_startproc
	stp	x29, x30, [sp, -112]!
	.cfi_def_cfa_offset 112
	.cfi_offset 29, -112
	.cfi_offset 30, -104
	adrp	x2, :got:__stack_chk_guard
	mov	x29, sp
	ldr	x2, [x2, #:got_lo12:__stack_chk_guard]
	stp	x21, x22, [sp, 32]
	.cfi_offset 21, -80
	.cfi_offset 22, -72
	mov	x21, x0
	mov	x22, x1
	ldr	x1, [x2]
	str	x1, [sp, 104]
	mov	x1, 0
	ldp	x2, x3, [x0, 8]
	stp	x2, x3, [sp, 64]
	ldr	x0, [x0, 24]
	cbz	x0, .L285
	stp	x19, x20, [sp, 16]
	.cfi_offset 20, -88
	.cfi_offset 19, -96
	add	x20, sp, 80
	mov	w19, 0
	stp	x23, x24, [sp, 48]
	.cfi_offset 24, -56
	.cfi_offset 23, -64
	add	x23, sp, 64
	.p2align 3,,7
.L287:
	mov	x0, x20
	ldr	x1, [x22]
	add	w19, w19, 1
	ldr	x24, [x1]
	bl	_ZN8opendnp315TimeAndIntervalC1Ev
	ldr	x0, [x21, 32]
	mov	x1, x23
	strh	wzr, [sp, 96]
	bl	_ZNK8opendnp39NumParser7ReadNumERN7openpal6RSliceE
	mov	w2, w0
	mov	x1, x20
	mov	x0, x23
	strh	w2, [sp, 96]
	bl	_ZN8opendnp311Group50Var410ReadTargetERN7openpal6RSliceERNS_15TimeAndIntervalE
	mov	x0, x22
	mov	x1, x20
	blr	x24
	ldr	x0, [x21, 24]
	cmp	x0, w19, uxtw
	bhi	.L287
	ldp	x19, x20, [sp, 16]
	.cfi_restore 20
	.cfi_restore 19
	ldp	x23, x24, [sp, 48]
	.cfi_restore 24
	.cfi_restore 23
.L285:
	adrp	x0, :got:__stack_chk_guard
	ldr	x0, [x0, #:got_lo12:__stack_chk_guard]
	ldr	x2, [sp, 104]
	ldr	x1, [x0]
	subs	x2, x2, x1
	mov	x1, 0
	bne	.L294
	ldp	x21, x22, [sp, 32]
	ldp	x29, x30, [sp], 112
	.cfi_remember_state
	.cfi_restore 30
	.cfi_restore 29
	.cfi_restore 21
	.cfi_restore 22
	.cfi_def_cfa_offset 0
	ret
.L294:
	.cfi_restore_state
	stp	x19, x20, [sp, 16]
	.cfi_offset 20, -88
	.cfi_offset 19, -96
	stp	x23, x24, [sp, 48]
	.cfi_offset 24, -56
	.cfi_offset 23, -64
	bl	__stack_chk_fail
	.cfi_endproc
.LFE3985:
	.size	_ZNK8opendnp318BufferedCollectionINS_7IndexedINS_15TimeAndIntervalEEEZNS_16CountIndexParser13InvokeCountOfINS_11Group50Var4EEEvRKNS_12HeaderRecordEtRKNS_9NumParserERKN7openpal6RSliceERNS_12IAPDUHandlerEEUlRSE_jE_E7ForeachERNS_8IVisitorIS3_EE, .-_ZNK8opendnp318BufferedCollectionINS_7IndexedINS_15TimeAndIntervalEEEZNS_16CountIndexParser13InvokeCountOfINS_11Group50Var4EEEvRKNS_12HeaderRecordEtRKNS_9NumParserERKN7openpal6RSliceERNS_12IAPDUHandlerEEUlRSE_jE_E7ForeachERNS_8IVisitorIS3_EE
	.section	.text._ZNK8opendnp318BufferedCollectionINS_7IndexedINS_18AnalogCommandEventEEEZNS_16CountIndexParser13InvokeCountOfINS_11Group43Var8EEEvRKNS_12HeaderRecordEtRKNS_9NumParserERKN7openpal6RSliceERNS_12IAPDUHandlerEEUlRSE_jE_E7ForeachERNS_8IVisitorIS3_EE,"axG",@progbits,_ZNK8opendnp318BufferedCollectionINS_7IndexedINS_18AnalogCommandEventEEEZNS_16CountIndexParser13InvokeCountOfINS_11Group43Var8EEEvRKNS_12HeaderRecordEtRKNS_9NumParserERKN7openpal6RSliceERNS_12IAPDUHandlerEEUlRSE_jE_E7ForeachERNS_8IVisitorIS3_EE,comdat
	.align	2
	.p2align 4,,11
	.weak	_ZNK8opendnp318BufferedCollectionINS_7IndexedINS_18AnalogCommandEventEEEZNS_16CountIndexParser13InvokeCountOfINS_11Group43Var8EEEvRKNS_12HeaderRecordEtRKNS_9NumParserERKN7openpal6RSliceERNS_12IAPDUHandlerEEUlRSE_jE_E7ForeachERNS_8IVisitorIS3_EE
	.type	_ZNK8opendnp318BufferedCollectionINS_7IndexedINS_18AnalogCommandEventEEEZNS_16CountIndexParser13InvokeCountOfINS_11Group43Var8EEEvRKNS_12HeaderRecordEtRKNS_9NumParserERKN7openpal6RSliceERNS_12IAPDUHandlerEEUlRSE_jE_E7ForeachERNS_8IVisitorIS3_EE, %function
_ZNK8opendnp318BufferedCollectionINS_7IndexedINS_18AnalogCommandEventEEEZNS_16CountIndexParser13InvokeCountOfINS_11Group43Var8EEEvRKNS_12HeaderRecordEtRKNS_9NumParserERKN7openpal6RSliceERNS_12IAPDUHandlerEEUlRSE_jE_E7ForeachERNS_8IVisitorIS3_EE:
.LFB3987:
	.cfi_startproc
	stp	x29, x30, [sp, -128]!
	.cfi_def_cfa_offset 128
	.cfi_offset 29, -128
	.cfi_offset 30, -120
	adrp	x2, :got:__stack_chk_guard
	mov	x29, sp
	ldr	x2, [x2, #:got_lo12:__stack_chk_guard]
	stp	x21, x22, [sp, 32]
	.cfi_offset 21, -96
	.cfi_offset 22, -88
	mov	x21, x0
	mov	x22, x1
	ldr	x1, [x2]
	str	x1, [sp, 120]
	mov	x1, 0
	ldp	x2, x3, [x0, 8]
	stp	x2, x3, [sp, 72]
	ldr	x0, [x0, 24]
	cbz	x0, .L295
	stp	x19, x20, [sp, 16]
	.cfi_offset 20, -104
	.cfi_offset 19, -112
	add	x20, sp, 88
	mov	w19, 0
	stp	x23, x24, [sp, 48]
	.cfi_offset 24, -72
	.cfi_offset 23, -80
	add	x23, sp, 72
	.p2align 3,,7
.L297:
	mov	x0, x20
	ldr	x1, [x22]
	add	w19, w19, 1
	ldr	x24, [x1]
	bl	_ZN8opendnp318AnalogCommandEventC1Ev
	ldr	x0, [x21, 32]
	mov	x1, x23
	strh	wzr, [sp, 112]
	bl	_ZNK8opendnp39NumParser7ReadNumERN7openpal6RSliceE
	mov	w2, w0
	mov	x1, x20
	mov	x0, x23
	strh	w2, [sp, 112]
	bl	_ZN8opendnp311Group43Var810ReadTargetERN7openpal6RSliceERNS_18AnalogCommandEventE
	mov	x0, x22
	mov	x1, x20
	blr	x24
	ldr	x0, [x21, 24]
	cmp	x0, w19, uxtw
	bhi	.L297
	ldp	x19, x20, [sp, 16]
	.cfi_restore 20
	.cfi_restore 19
	ldp	x23, x24, [sp, 48]
	.cfi_restore 24
	.cfi_restore 23
.L295:
	adrp	x0, :got:__stack_chk_guard
	ldr	x0, [x0, #:got_lo12:__stack_chk_guard]
	ldr	x2, [sp, 120]
	ldr	x1, [x0]
	subs	x2, x2, x1
	mov	x1, 0
	bne	.L304
	ldp	x21, x22, [sp, 32]
	ldp	x29, x30, [sp], 128
	.cfi_remember_state
	.cfi_restore 30
	.cfi_restore 29
	.cfi_restore 21
	.cfi_restore 22
	.cfi_def_cfa_offset 0
	ret
.L304:
	.cfi_restore_state
	stp	x19, x20, [sp, 16]
	.cfi_offset 20, -104
	.cfi_offset 19, -112
	stp	x23, x24, [sp, 48]
	.cfi_offset 24, -72
	.cfi_offset 23, -80
	bl	__stack_chk_fail
	.cfi_endproc
.LFE3987:
	.size	_ZNK8opendnp318BufferedCollectionINS_7IndexedINS_18AnalogCommandEventEEEZNS_16CountIndexParser13InvokeCountOfINS_11Group43Var8EEEvRKNS_12HeaderRecordEtRKNS_9NumParserERKN7openpal6RSliceERNS_12IAPDUHandlerEEUlRSE_jE_E7ForeachERNS_8IVisitorIS3_EE, .-_ZNK8opendnp318BufferedCollectionINS_7IndexedINS_18AnalogCommandEventEEEZNS_16CountIndexParser13InvokeCountOfINS_11Group43Var8EEEvRKNS_12HeaderRecordEtRKNS_9NumParserERKN7openpal6RSliceERNS_12IAPDUHandlerEEUlRSE_jE_E7ForeachERNS_8IVisitorIS3_EE
	.section	.text._ZNK8opendnp318BufferedCollectionINS_7IndexedINS_18AnalogCommandEventEEEZNS_16CountIndexParser13InvokeCountOfINS_11Group43Var7EEEvRKNS_12HeaderRecordEtRKNS_9NumParserERKN7openpal6RSliceERNS_12IAPDUHandlerEEUlRSE_jE_E7ForeachERNS_8IVisitorIS3_EE,"axG",@progbits,_ZNK8opendnp318BufferedCollectionINS_7IndexedINS_18AnalogCommandEventEEEZNS_16CountIndexParser13InvokeCountOfINS_11Group43Var7EEEvRKNS_12HeaderRecordEtRKNS_9NumParserERKN7openpal6RSliceERNS_12IAPDUHandlerEEUlRSE_jE_E7ForeachERNS_8IVisitorIS3_EE,comdat
	.align	2
	.p2align 4,,11
	.weak	_ZNK8opendnp318BufferedCollectionINS_7IndexedINS_18AnalogCommandEventEEEZNS_16CountIndexParser13InvokeCountOfINS_11Group43Var7EEEvRKNS_12HeaderRecordEtRKNS_9NumParserERKN7openpal6RSliceERNS_12IAPDUHandlerEEUlRSE_jE_E7ForeachERNS_8IVisitorIS3_EE
	.type	_ZNK8opendnp318BufferedCollectionINS_7IndexedINS_18AnalogCommandEventEEEZNS_16CountIndexParser13InvokeCountOfINS_11Group43Var7EEEvRKNS_12HeaderRecordEtRKNS_9NumParserERKN7openpal6RSliceERNS_12IAPDUHandlerEEUlRSE_jE_E7ForeachERNS_8IVisitorIS3_EE, %function
_ZNK8opendnp318BufferedCollectionINS_7IndexedINS_18AnalogCommandEventEEEZNS_16CountIndexParser13InvokeCountOfINS_11Group43Var7EEEvRKNS_12HeaderRecordEtRKNS_9NumParserERKN7openpal6RSliceERNS_12IAPDUHandlerEEUlRSE_jE_E7ForeachERNS_8IVisitorIS3_EE:
.LFB3989:
	.cfi_startproc
	stp	x29, x30, [sp, -128]!
	.cfi_def_cfa_offset 128
	.cfi_offset 29, -128
	.cfi_offset 30, -120
	adrp	x2, :got:__stack_chk_guard
	mov	x29, sp
	ldr	x2, [x2, #:got_lo12:__stack_chk_guard]
	stp	x21, x22, [sp, 32]
	.cfi_offset 21, -96
	.cfi_offset 22, -88
	mov	x21, x0
	mov	x22, x1
	ldr	x1, [x2]
	str	x1, [sp, 120]
	mov	x1, 0
	ldp	x2, x3, [x0, 8]
	stp	x2, x3, [sp, 72]
	ldr	x0, [x0, 24]
	cbz	x0, .L305
	stp	x19, x20, [sp, 16]
	.cfi_offset 20, -104
	.cfi_offset 19, -112
	add	x20, sp, 88
	mov	w19, 0
	stp	x23, x24, [sp, 48]
	.cfi_offset 24, -72
	.cfi_offset 23, -80
	add	x23, sp, 72
	.p2align 3,,7
.L307:
	mov	x0, x20
	ldr	x1, [x22]
	add	w19, w19, 1
	ldr	x24, [x1]
	bl	_ZN8opendnp318AnalogCommandEventC1Ev
	ldr	x0, [x21, 32]
	mov	x1, x23
	strh	wzr, [sp, 112]
	bl	_ZNK8opendnp39NumParser7ReadNumERN7openpal6RSliceE
	mov	w2, w0
	mov	x1, x20
	mov	x0, x23
	strh	w2, [sp, 112]
	bl	_ZN8opendnp311Group43Var710ReadTargetERN7openpal6RSliceERNS_18AnalogCommandEventE
	mov	x0, x22
	mov	x1, x20
	blr	x24
	ldr	x0, [x21, 24]
	cmp	x0, w19, uxtw
	bhi	.L307
	ldp	x19, x20, [sp, 16]
	.cfi_restore 20
	.cfi_restore 19
	ldp	x23, x24, [sp, 48]
	.cfi_restore 24
	.cfi_restore 23
.L305:
	adrp	x0, :got:__stack_chk_guard
	ldr	x0, [x0, #:got_lo12:__stack_chk_guard]
	ldr	x2, [sp, 120]
	ldr	x1, [x0]
	subs	x2, x2, x1
	mov	x1, 0
	bne	.L314
	ldp	x21, x22, [sp, 32]
	ldp	x29, x30, [sp], 128
	.cfi_remember_state
	.cfi_restore 30
	.cfi_restore 29
	.cfi_restore 21
	.cfi_restore 22
	.cfi_def_cfa_offset 0
	ret
.L314:
	.cfi_restore_state
	stp	x19, x20, [sp, 16]
	.cfi_offset 20, -104
	.cfi_offset 19, -112
	stp	x23, x24, [sp, 48]
	.cfi_offset 24, -72
	.cfi_offset 23, -80
	bl	__stack_chk_fail
	.cfi_endproc
.LFE3989:
	.size	_ZNK8opendnp318BufferedCollectionINS_7IndexedINS_18AnalogCommandEventEEEZNS_16CountIndexParser13InvokeCountOfINS_11Group43Var7EEEvRKNS_12HeaderRecordEtRKNS_9NumParserERKN7openpal6RSliceERNS_12IAPDUHandlerEEUlRSE_jE_E7ForeachERNS_8IVisitorIS3_EE, .-_ZNK8opendnp318BufferedCollectionINS_7IndexedINS_18AnalogCommandEventEEEZNS_16CountIndexParser13InvokeCountOfINS_11Group43Var7EEEvRKNS_12HeaderRecordEtRKNS_9NumParserERKN7openpal6RSliceERNS_12IAPDUHandlerEEUlRSE_jE_E7ForeachERNS_8IVisitorIS3_EE
	.section	.text._ZNK8opendnp318BufferedCollectionINS_7IndexedINS_18AnalogCommandEventEEEZNS_16CountIndexParser13InvokeCountOfINS_11Group43Var6EEEvRKNS_12HeaderRecordEtRKNS_9NumParserERKN7openpal6RSliceERNS_12IAPDUHandlerEEUlRSE_jE_E7ForeachERNS_8IVisitorIS3_EE,"axG",@progbits,_ZNK8opendnp318BufferedCollectionINS_7IndexedINS_18AnalogCommandEventEEEZNS_16CountIndexParser13InvokeCountOfINS_11Group43Var6EEEvRKNS_12HeaderRecordEtRKNS_9NumParserERKN7openpal6RSliceERNS_12IAPDUHandlerEEUlRSE_jE_E7ForeachERNS_8IVisitorIS3_EE,comdat
	.align	2
	.p2align 4,,11
	.weak	_ZNK8opendnp318BufferedCollectionINS_7IndexedINS_18AnalogCommandEventEEEZNS_16CountIndexParser13InvokeCountOfINS_11Group43Var6EEEvRKNS_12HeaderRecordEtRKNS_9NumParserERKN7openpal6RSliceERNS_12IAPDUHandlerEEUlRSE_jE_E7ForeachERNS_8IVisitorIS3_EE
	.type	_ZNK8opendnp318BufferedCollectionINS_7IndexedINS_18AnalogCommandEventEEEZNS_16CountIndexParser13InvokeCountOfINS_11Group43Var6EEEvRKNS_12HeaderRecordEtRKNS_9NumParserERKN7openpal6RSliceERNS_12IAPDUHandlerEEUlRSE_jE_E7ForeachERNS_8IVisitorIS3_EE, %function
_ZNK8opendnp318BufferedCollectionINS_7IndexedINS_18AnalogCommandEventEEEZNS_16CountIndexParser13InvokeCountOfINS_11Group43Var6EEEvRKNS_12HeaderRecordEtRKNS_9NumParserERKN7openpal6RSliceERNS_12IAPDUHandlerEEUlRSE_jE_E7ForeachERNS_8IVisitorIS3_EE:
.LFB3991:
	.cfi_startproc
	stp	x29, x30, [sp, -128]!
	.cfi_def_cfa_offset 128
	.cfi_offset 29, -128
	.cfi_offset 30, -120
	adrp	x2, :got:__stack_chk_guard
	mov	x29, sp
	ldr	x2, [x2, #:got_lo12:__stack_chk_guard]
	stp	x21, x22, [sp, 32]
	.cfi_offset 21, -96
	.cfi_offset 22, -88
	mov	x21, x0
	mov	x22, x1
	ldr	x1, [x2]
	str	x1, [sp, 120]
	mov	x1, 0
	ldp	x2, x3, [x0, 8]
	stp	x2, x3, [sp, 72]
	ldr	x0, [x0, 24]
	cbz	x0, .L315
	stp	x19, x20, [sp, 16]
	.cfi_offset 20, -104
	.cfi_offset 19, -112
	add	x20, sp, 88
	mov	w19, 0
	stp	x23, x24, [sp, 48]
	.cfi_offset 24, -72
	.cfi_offset 23, -80
	add	x23, sp, 72
	.p2align 3,,7
.L317:
	mov	x0, x20
	ldr	x1, [x22]
	add	w19, w19, 1
	ldr	x24, [x1]
	bl	_ZN8opendnp318AnalogCommandEventC1Ev
	ldr	x0, [x21, 32]
	mov	x1, x23
	strh	wzr, [sp, 112]
	bl	_ZNK8opendnp39NumParser7ReadNumERN7openpal6RSliceE
	mov	w2, w0
	mov	x1, x20
	mov	x0, x23
	strh	w2, [sp, 112]
	bl	_ZN8opendnp311Group43Var610ReadTargetERN7openpal6RSliceERNS_18AnalogCommandEventE
	mov	x0, x22
	mov	x1, x20
	blr	x24
	ldr	x0, [x21, 24]
	cmp	x0, w19, uxtw
	bhi	.L317
	ldp	x19, x20, [sp, 16]
	.cfi_restore 20
	.cfi_restore 19
	ldp	x23, x24, [sp, 48]
	.cfi_restore 24
	.cfi_restore 23
.L315:
	adrp	x0, :got:__stack_chk_guard
	ldr	x0, [x0, #:got_lo12:__stack_chk_guard]
	ldr	x2, [sp, 120]
	ldr	x1, [x0]
	subs	x2, x2, x1
	mov	x1, 0
	bne	.L324
	ldp	x21, x22, [sp, 32]
	ldp	x29, x30, [sp], 128
	.cfi_remember_state
	.cfi_restore 30
	.cfi_restore 29
	.cfi_restore 21
	.cfi_restore 22
	.cfi_def_cfa_offset 0
	ret
.L324:
	.cfi_restore_state
	stp	x19, x20, [sp, 16]
	.cfi_offset 20, -104
	.cfi_offset 19, -112
	stp	x23, x24, [sp, 48]
	.cfi_offset 24, -72
	.cfi_offset 23, -80
	bl	__stack_chk_fail
	.cfi_endproc
.LFE3991:
	.size	_ZNK8opendnp318BufferedCollectionINS_7IndexedINS_18AnalogCommandEventEEEZNS_16CountIndexParser13InvokeCountOfINS_11Group43Var6EEEvRKNS_12HeaderRecordEtRKNS_9NumParserERKN7openpal6RSliceERNS_12IAPDUHandlerEEUlRSE_jE_E7ForeachERNS_8IVisitorIS3_EE, .-_ZNK8opendnp318BufferedCollectionINS_7IndexedINS_18AnalogCommandEventEEEZNS_16CountIndexParser13InvokeCountOfINS_11Group43Var6EEEvRKNS_12HeaderRecordEtRKNS_9NumParserERKN7openpal6RSliceERNS_12IAPDUHandlerEEUlRSE_jE_E7ForeachERNS_8IVisitorIS3_EE
	.section	.text._ZNK8opendnp318BufferedCollectionINS_7IndexedINS_18AnalogCommandEventEEEZNS_16CountIndexParser13InvokeCountOfINS_11Group43Var5EEEvRKNS_12HeaderRecordEtRKNS_9NumParserERKN7openpal6RSliceERNS_12IAPDUHandlerEEUlRSE_jE_E7ForeachERNS_8IVisitorIS3_EE,"axG",@progbits,_ZNK8opendnp318BufferedCollectionINS_7IndexedINS_18AnalogCommandEventEEEZNS_16CountIndexParser13InvokeCountOfINS_11Group43Var5EEEvRKNS_12HeaderRecordEtRKNS_9NumParserERKN7openpal6RSliceERNS_12IAPDUHandlerEEUlRSE_jE_E7ForeachERNS_8IVisitorIS3_EE,comdat
	.align	2
	.p2align 4,,11
	.weak	_ZNK8opendnp318BufferedCollectionINS_7IndexedINS_18AnalogCommandEventEEEZNS_16CountIndexParser13InvokeCountOfINS_11Group43Var5EEEvRKNS_12HeaderRecordEtRKNS_9NumParserERKN7openpal6RSliceERNS_12IAPDUHandlerEEUlRSE_jE_E7ForeachERNS_8IVisitorIS3_EE
	.type	_ZNK8opendnp318BufferedCollectionINS_7IndexedINS_18AnalogCommandEventEEEZNS_16CountIndexParser13InvokeCountOfINS_11Group43Var5EEEvRKNS_12HeaderRecordEtRKNS_9NumParserERKN7openpal6RSliceERNS_12IAPDUHandlerEEUlRSE_jE_E7ForeachERNS_8IVisitorIS3_EE, %function
_ZNK8opendnp318BufferedCollectionINS_7IndexedINS_18AnalogCommandEventEEEZNS_16CountIndexParser13InvokeCountOfINS_11Group43Var5EEEvRKNS_12HeaderRecordEtRKNS_9NumParserERKN7openpal6RSliceERNS_12IAPDUHandlerEEUlRSE_jE_E7ForeachERNS_8IVisitorIS3_EE:
.LFB3993:
	.cfi_startproc
	stp	x29, x30, [sp, -128]!
	.cfi_def_cfa_offset 128
	.cfi_offset 29, -128
	.cfi_offset 30, -120
	adrp	x2, :got:__stack_chk_guard
	mov	x29, sp
	ldr	x2, [x2, #:got_lo12:__stack_chk_guard]
	stp	x21, x22, [sp, 32]
	.cfi_offset 21, -96
	.cfi_offset 22, -88
	mov	x21, x0
	mov	x22, x1
	ldr	x1, [x2]
	str	x1, [sp, 120]
	mov	x1, 0
	ldp	x2, x3, [x0, 8]
	stp	x2, x3, [sp, 72]
	ldr	x0, [x0, 24]
	cbz	x0, .L325
	stp	x19, x20, [sp, 16]
	.cfi_offset 20, -104
	.cfi_offset 19, -112
	add	x20, sp, 88
	mov	w19, 0
	stp	x23, x24, [sp, 48]
	.cfi_offset 24, -72
	.cfi_offset 23, -80
	add	x23, sp, 72
	.p2align 3,,7
.L327:
	mov	x0, x20
	ldr	x1, [x22]
	add	w19, w19, 1
	ldr	x24, [x1]
	bl	_ZN8opendnp318AnalogCommandEventC1Ev
	ldr	x0, [x21, 32]
	mov	x1, x23
	strh	wzr, [sp, 112]
	bl	_ZNK8opendnp39NumParser7ReadNumERN7openpal6RSliceE
	mov	w2, w0
	mov	x1, x20
	mov	x0, x23
	strh	w2, [sp, 112]
	bl	_ZN8opendnp311Group43Var510ReadTargetERN7openpal6RSliceERNS_18AnalogCommandEventE
	mov	x0, x22
	mov	x1, x20
	blr	x24
	ldr	x0, [x21, 24]
	cmp	x0, w19, uxtw
	bhi	.L327
	ldp	x19, x20, [sp, 16]
	.cfi_restore 20
	.cfi_restore 19
	ldp	x23, x24, [sp, 48]
	.cfi_restore 24
	.cfi_restore 23
.L325:
	adrp	x0, :got:__stack_chk_guard
	ldr	x0, [x0, #:got_lo12:__stack_chk_guard]
	ldr	x2, [sp, 120]
	ldr	x1, [x0]
	subs	x2, x2, x1
	mov	x1, 0
	bne	.L334
	ldp	x21, x22, [sp, 32]
	ldp	x29, x30, [sp], 128
	.cfi_remember_state
	.cfi_restore 30
	.cfi_restore 29
	.cfi_restore 21
	.cfi_restore 22
	.cfi_def_cfa_offset 0
	ret
.L334:
	.cfi_restore_state
	stp	x19, x20, [sp, 16]
	.cfi_offset 20, -104
	.cfi_offset 19, -112
	stp	x23, x24, [sp, 48]
	.cfi_offset 24, -72
	.cfi_offset 23, -80
	bl	__stack_chk_fail
	.cfi_endproc
.LFE3993:
	.size	_ZNK8opendnp318BufferedCollectionINS_7IndexedINS_18AnalogCommandEventEEEZNS_16CountIndexParser13InvokeCountOfINS_11Group43Var5EEEvRKNS_12HeaderRecordEtRKNS_9NumParserERKN7openpal6RSliceERNS_12IAPDUHandlerEEUlRSE_jE_E7ForeachERNS_8IVisitorIS3_EE, .-_ZNK8opendnp318BufferedCollectionINS_7IndexedINS_18AnalogCommandEventEEEZNS_16CountIndexParser13InvokeCountOfINS_11Group43Var5EEEvRKNS_12HeaderRecordEtRKNS_9NumParserERKN7openpal6RSliceERNS_12IAPDUHandlerEEUlRSE_jE_E7ForeachERNS_8IVisitorIS3_EE
	.section	.text._ZNK8opendnp318BufferedCollectionINS_7IndexedINS_18AnalogCommandEventEEEZNS_16CountIndexParser13InvokeCountOfINS_11Group43Var4EEEvRKNS_12HeaderRecordEtRKNS_9NumParserERKN7openpal6RSliceERNS_12IAPDUHandlerEEUlRSE_jE_E7ForeachERNS_8IVisitorIS3_EE,"axG",@progbits,_ZNK8opendnp318BufferedCollectionINS_7IndexedINS_18AnalogCommandEventEEEZNS_16CountIndexParser13InvokeCountOfINS_11Group43Var4EEEvRKNS_12HeaderRecordEtRKNS_9NumParserERKN7openpal6RSliceERNS_12IAPDUHandlerEEUlRSE_jE_E7ForeachERNS_8IVisitorIS3_EE,comdat
	.align	2
	.p2align 4,,11
	.weak	_ZNK8opendnp318BufferedCollectionINS_7IndexedINS_18AnalogCommandEventEEEZNS_16CountIndexParser13InvokeCountOfINS_11Group43Var4EEEvRKNS_12HeaderRecordEtRKNS_9NumParserERKN7openpal6RSliceERNS_12IAPDUHandlerEEUlRSE_jE_E7ForeachERNS_8IVisitorIS3_EE
	.type	_ZNK8opendnp318BufferedCollectionINS_7IndexedINS_18AnalogCommandEventEEEZNS_16CountIndexParser13InvokeCountOfINS_11Group43Var4EEEvRKNS_12HeaderRecordEtRKNS_9NumParserERKN7openpal6RSliceERNS_12IAPDUHandlerEEUlRSE_jE_E7ForeachERNS_8IVisitorIS3_EE, %function
_ZNK8opendnp318BufferedCollectionINS_7IndexedINS_18AnalogCommandEventEEEZNS_16CountIndexParser13InvokeCountOfINS_11Group43Var4EEEvRKNS_12HeaderRecordEtRKNS_9NumParserERKN7openpal6RSliceERNS_12IAPDUHandlerEEUlRSE_jE_E7ForeachERNS_8IVisitorIS3_EE:
.LFB3995:
	.cfi_startproc
	stp	x29, x30, [sp, -128]!
	.cfi_def_cfa_offset 128
	.cfi_offset 29, -128
	.cfi_offset 30, -120
	adrp	x2, :got:__stack_chk_guard
	mov	x29, sp
	ldr	x2, [x2, #:got_lo12:__stack_chk_guard]
	stp	x21, x22, [sp, 32]
	.cfi_offset 21, -96
	.cfi_offset 22, -88
	mov	x21, x0
	mov	x22, x1
	ldr	x1, [x2]
	str	x1, [sp, 120]
	mov	x1, 0
	ldp	x2, x3, [x0, 8]
	stp	x2, x3, [sp, 72]
	ldr	x0, [x0, 24]
	cbz	x0, .L335
	stp	x19, x20, [sp, 16]
	.cfi_offset 20, -104
	.cfi_offset 19, -112
	add	x20, sp, 88
	mov	w19, 0
	stp	x23, x24, [sp, 48]
	.cfi_offset 24, -72
	.cfi_offset 23, -80
	add	x23, sp, 72
	.p2align 3,,7
.L337:
	mov	x0, x20
	ldr	x1, [x22]
	add	w19, w19, 1
	ldr	x24, [x1]
	bl	_ZN8opendnp318AnalogCommandEventC1Ev
	ldr	x0, [x21, 32]
	mov	x1, x23
	strh	wzr, [sp, 112]
	bl	_ZNK8opendnp39NumParser7ReadNumERN7openpal6RSliceE
	mov	w2, w0
	mov	x1, x20
	mov	x0, x23
	strh	w2, [sp, 112]
	bl	_ZN8opendnp311Group43Var410ReadTargetERN7openpal6RSliceERNS_18AnalogCommandEventE
	mov	x0, x22
	mov	x1, x20
	blr	x24
	ldr	x0, [x21, 24]
	cmp	x0, w19, uxtw
	bhi	.L337
	ldp	x19, x20, [sp, 16]
	.cfi_restore 20
	.cfi_restore 19
	ldp	x23, x24, [sp, 48]
	.cfi_restore 24
	.cfi_restore 23
.L335:
	adrp	x0, :got:__stack_chk_guard
	ldr	x0, [x0, #:got_lo12:__stack_chk_guard]
	ldr	x2, [sp, 120]
	ldr	x1, [x0]
	subs	x2, x2, x1
	mov	x1, 0
	bne	.L344
	ldp	x21, x22, [sp, 32]
	ldp	x29, x30, [sp], 128
	.cfi_remember_state
	.cfi_restore 30
	.cfi_restore 29
	.cfi_restore 21
	.cfi_restore 22
	.cfi_def_cfa_offset 0
	ret
.L344:
	.cfi_restore_state
	stp	x19, x20, [sp, 16]
	.cfi_offset 20, -104
	.cfi_offset 19, -112
	stp	x23, x24, [sp, 48]
	.cfi_offset 24, -72
	.cfi_offset 23, -80
	bl	__stack_chk_fail
	.cfi_endproc
.LFE3995:
	.size	_ZNK8opendnp318BufferedCollectionINS_7IndexedINS_18AnalogCommandEventEEEZNS_16CountIndexParser13InvokeCountOfINS_11Group43Var4EEEvRKNS_12HeaderRecordEtRKNS_9NumParserERKN7openpal6RSliceERNS_12IAPDUHandlerEEUlRSE_jE_E7ForeachERNS_8IVisitorIS3_EE, .-_ZNK8opendnp318BufferedCollectionINS_7IndexedINS_18AnalogCommandEventEEEZNS_16CountIndexParser13InvokeCountOfINS_11Group43Var4EEEvRKNS_12HeaderRecordEtRKNS_9NumParserERKN7openpal6RSliceERNS_12IAPDUHandlerEEUlRSE_jE_E7ForeachERNS_8IVisitorIS3_EE
	.section	.text._ZNK8opendnp318BufferedCollectionINS_7IndexedINS_18AnalogCommandEventEEEZNS_16CountIndexParser13InvokeCountOfINS_11Group43Var3EEEvRKNS_12HeaderRecordEtRKNS_9NumParserERKN7openpal6RSliceERNS_12IAPDUHandlerEEUlRSE_jE_E7ForeachERNS_8IVisitorIS3_EE,"axG",@progbits,_ZNK8opendnp318BufferedCollectionINS_7IndexedINS_18AnalogCommandEventEEEZNS_16CountIndexParser13InvokeCountOfINS_11Group43Var3EEEvRKNS_12HeaderRecordEtRKNS_9NumParserERKN7openpal6RSliceERNS_12IAPDUHandlerEEUlRSE_jE_E7ForeachERNS_8IVisitorIS3_EE,comdat
	.align	2
	.p2align 4,,11
	.weak	_ZNK8opendnp318BufferedCollectionINS_7IndexedINS_18AnalogCommandEventEEEZNS_16CountIndexParser13InvokeCountOfINS_11Group43Var3EEEvRKNS_12HeaderRecordEtRKNS_9NumParserERKN7openpal6RSliceERNS_12IAPDUHandlerEEUlRSE_jE_E7ForeachERNS_8IVisitorIS3_EE
	.type	_ZNK8opendnp318BufferedCollectionINS_7IndexedINS_18AnalogCommandEventEEEZNS_16CountIndexParser13InvokeCountOfINS_11Group43Var3EEEvRKNS_12HeaderRecordEtRKNS_9NumParserERKN7openpal6RSliceERNS_12IAPDUHandlerEEUlRSE_jE_E7ForeachERNS_8IVisitorIS3_EE, %function
_ZNK8opendnp318BufferedCollectionINS_7IndexedINS_18AnalogCommandEventEEEZNS_16CountIndexParser13InvokeCountOfINS_11Group43Var3EEEvRKNS_12HeaderRecordEtRKNS_9NumParserERKN7openpal6RSliceERNS_12IAPDUHandlerEEUlRSE_jE_E7ForeachERNS_8IVisitorIS3_EE:
.LFB3997:
	.cfi_startproc
	stp	x29, x30, [sp, -128]!
	.cfi_def_cfa_offset 128
	.cfi_offset 29, -128
	.cfi_offset 30, -120
	adrp	x2, :got:__stack_chk_guard
	mov	x29, sp
	ldr	x2, [x2, #:got_lo12:__stack_chk_guard]
	stp	x21, x22, [sp, 32]
	.cfi_offset 21, -96
	.cfi_offset 22, -88
	mov	x21, x0
	mov	x22, x1
	ldr	x1, [x2]
	str	x1, [sp, 120]
	mov	x1, 0
	ldp	x2, x3, [x0, 8]
	stp	x2, x3, [sp, 72]
	ldr	x0, [x0, 24]
	cbz	x0, .L345
	stp	x19, x20, [sp, 16]
	.cfi_offset 20, -104
	.cfi_offset 19, -112
	add	x20, sp, 88
	mov	w19, 0
	stp	x23, x24, [sp, 48]
	.cfi_offset 24, -72
	.cfi_offset 23, -80
	add	x23, sp, 72
	.p2align 3,,7
.L347:
	mov	x0, x20
	ldr	x1, [x22]
	add	w19, w19, 1
	ldr	x24, [x1]
	bl	_ZN8opendnp318AnalogCommandEventC1Ev
	ldr	x0, [x21, 32]
	mov	x1, x23
	strh	wzr, [sp, 112]
	bl	_ZNK8opendnp39NumParser7ReadNumERN7openpal6RSliceE
	mov	w2, w0
	mov	x1, x20
	mov	x0, x23
	strh	w2, [sp, 112]
	bl	_ZN8opendnp311Group43Var310ReadTargetERN7openpal6RSliceERNS_18AnalogCommandEventE
	mov	x0, x22
	mov	x1, x20
	blr	x24
	ldr	x0, [x21, 24]
	cmp	x0, w19, uxtw
	bhi	.L347
	ldp	x19, x20, [sp, 16]
	.cfi_restore 20
	.cfi_restore 19
	ldp	x23, x24, [sp, 48]
	.cfi_restore 24
	.cfi_restore 23
.L345:
	adrp	x0, :got:__stack_chk_guard
	ldr	x0, [x0, #:got_lo12:__stack_chk_guard]
	ldr	x2, [sp, 120]
	ldr	x1, [x0]
	subs	x2, x2, x1
	mov	x1, 0
	bne	.L354
	ldp	x21, x22, [sp, 32]
	ldp	x29, x30, [sp], 128
	.cfi_remember_state
	.cfi_restore 30
	.cfi_restore 29
	.cfi_restore 21
	.cfi_restore 22
	.cfi_def_cfa_offset 0
	ret
.L354:
	.cfi_restore_state
	stp	x19, x20, [sp, 16]
	.cfi_offset 20, -104
	.cfi_offset 19, -112
	stp	x23, x24, [sp, 48]
	.cfi_offset 24, -72
	.cfi_offset 23, -80
	bl	__stack_chk_fail
	.cfi_endproc
.LFE3997:
	.size	_ZNK8opendnp318BufferedCollectionINS_7IndexedINS_18AnalogCommandEventEEEZNS_16CountIndexParser13InvokeCountOfINS_11Group43Var3EEEvRKNS_12HeaderRecordEtRKNS_9NumParserERKN7openpal6RSliceERNS_12IAPDUHandlerEEUlRSE_jE_E7ForeachERNS_8IVisitorIS3_EE, .-_ZNK8opendnp318BufferedCollectionINS_7IndexedINS_18AnalogCommandEventEEEZNS_16CountIndexParser13InvokeCountOfINS_11Group43Var3EEEvRKNS_12HeaderRecordEtRKNS_9NumParserERKN7openpal6RSliceERNS_12IAPDUHandlerEEUlRSE_jE_E7ForeachERNS_8IVisitorIS3_EE
	.section	.text._ZNK8opendnp318BufferedCollectionINS_7IndexedINS_18AnalogCommandEventEEEZNS_16CountIndexParser13InvokeCountOfINS_11Group43Var2EEEvRKNS_12HeaderRecordEtRKNS_9NumParserERKN7openpal6RSliceERNS_12IAPDUHandlerEEUlRSE_jE_E7ForeachERNS_8IVisitorIS3_EE,"axG",@progbits,_ZNK8opendnp318BufferedCollectionINS_7IndexedINS_18AnalogCommandEventEEEZNS_16CountIndexParser13InvokeCountOfINS_11Group43Var2EEEvRKNS_12HeaderRecordEtRKNS_9NumParserERKN7openpal6RSliceERNS_12IAPDUHandlerEEUlRSE_jE_E7ForeachERNS_8IVisitorIS3_EE,comdat
	.align	2
	.p2align 4,,11
	.weak	_ZNK8opendnp318BufferedCollectionINS_7IndexedINS_18AnalogCommandEventEEEZNS_16CountIndexParser13InvokeCountOfINS_11Group43Var2EEEvRKNS_12HeaderRecordEtRKNS_9NumParserERKN7openpal6RSliceERNS_12IAPDUHandlerEEUlRSE_jE_E7ForeachERNS_8IVisitorIS3_EE
	.type	_ZNK8opendnp318BufferedCollectionINS_7IndexedINS_18AnalogCommandEventEEEZNS_16CountIndexParser13InvokeCountOfINS_11Group43Var2EEEvRKNS_12HeaderRecordEtRKNS_9NumParserERKN7openpal6RSliceERNS_12IAPDUHandlerEEUlRSE_jE_E7ForeachERNS_8IVisitorIS3_EE, %function
_ZNK8opendnp318BufferedCollectionINS_7IndexedINS_18AnalogCommandEventEEEZNS_16CountIndexParser13InvokeCountOfINS_11Group43Var2EEEvRKNS_12HeaderRecordEtRKNS_9NumParserERKN7openpal6RSliceERNS_12IAPDUHandlerEEUlRSE_jE_E7ForeachERNS_8IVisitorIS3_EE:
.LFB3999:
	.cfi_startproc
	stp	x29, x30, [sp, -128]!
	.cfi_def_cfa_offset 128
	.cfi_offset 29, -128
	.cfi_offset 30, -120
	adrp	x2, :got:__stack_chk_guard
	mov	x29, sp
	ldr	x2, [x2, #:got_lo12:__stack_chk_guard]
	stp	x21, x22, [sp, 32]
	.cfi_offset 21, -96
	.cfi_offset 22, -88
	mov	x21, x0
	mov	x22, x1
	ldr	x1, [x2]
	str	x1, [sp, 120]
	mov	x1, 0
	ldp	x2, x3, [x0, 8]
	stp	x2, x3, [sp, 72]
	ldr	x0, [x0, 24]
	cbz	x0, .L355
	stp	x19, x20, [sp, 16]
	.cfi_offset 20, -104
	.cfi_offset 19, -112
	add	x20, sp, 88
	mov	w19, 0
	stp	x23, x24, [sp, 48]
	.cfi_offset 24, -72
	.cfi_offset 23, -80
	add	x23, sp, 72
	.p2align 3,,7
.L357:
	mov	x0, x20
	ldr	x1, [x22]
	add	w19, w19, 1
	ldr	x24, [x1]
	bl	_ZN8opendnp318AnalogCommandEventC1Ev
	ldr	x0, [x21, 32]
