	.arch armv8-a
	.file	"CountParser.cpp"
	.text
	.section	.text._ZNK8opendnp318BufferedCollectionINS_12Group120Var4EZNS_11CountParser13InvokeCountOfIS1_EEvRKNS_12HeaderRecordEtRKN7openpal6RSliceERNS_12IAPDUHandlerEEUlRS8_jE_E5CountEv,"axG",@progbits,_ZNK8opendnp318BufferedCollectionINS_12Group120Var4EZNS_11CountParser13InvokeCountOfIS1_EEvRKNS_12HeaderRecordEtRKN7openpal6RSliceERNS_12IAPDUHandlerEEUlRS8_jE_E5CountEv,comdat
	.align	2
	.p2align 4,,11
	.weak	_ZNK8opendnp318BufferedCollectionINS_12Group120Var4EZNS_11CountParser13InvokeCountOfIS1_EEvRKNS_12HeaderRecordEtRKN7openpal6RSliceERNS_12IAPDUHandlerEEUlRS8_jE_E5CountEv
	.type	_ZNK8opendnp318BufferedCollectionINS_12Group120Var4EZNS_11CountParser13InvokeCountOfIS1_EEvRKNS_12HeaderRecordEtRKN7openpal6RSliceERNS_12IAPDUHandlerEEUlRS8_jE_E5CountEv, %function
_ZNK8opendnp318BufferedCollectionINS_12Group120Var4EZNS_11CountParser13InvokeCountOfIS1_EEvRKNS_12HeaderRecordEtRKN7openpal6RSliceERNS_12IAPDUHandlerEEUlRS8_jE_E5CountEv:
.LFB3188:
	.cfi_startproc
	ldr	x0, [x0, 24]
	ret
	.cfi_endproc
.LFE3188:
	.size	_ZNK8opendnp318BufferedCollectionINS_12Group120Var4EZNS_11CountParser13InvokeCountOfIS1_EEvRKNS_12HeaderRecordEtRKN7openpal6RSliceERNS_12IAPDUHandlerEEUlRS8_jE_E5CountEv, .-_ZNK8opendnp318BufferedCollectionINS_12Group120Var4EZNS_11CountParser13InvokeCountOfIS1_EEvRKNS_12HeaderRecordEtRKN7openpal6RSliceERNS_12IAPDUHandlerEEUlRS8_jE_E5CountEv
	.section	.text._ZNK8opendnp318BufferedCollectionINS_12Group120Var3EZNS_11CountParser13InvokeCountOfIS1_EEvRKNS_12HeaderRecordEtRKN7openpal6RSliceERNS_12IAPDUHandlerEEUlRS8_jE_E5CountEv,"axG",@progbits,_ZNK8opendnp318BufferedCollectionINS_12Group120Var3EZNS_11CountParser13InvokeCountOfIS1_EEvRKNS_12HeaderRecordEtRKN7openpal6RSliceERNS_12IAPDUHandlerEEUlRS8_jE_E5CountEv,comdat
	.align	2
	.p2align 4,,11
	.weak	_ZNK8opendnp318BufferedCollectionINS_12Group120Var3EZNS_11CountParser13InvokeCountOfIS1_EEvRKNS_12HeaderRecordEtRKN7openpal6RSliceERNS_12IAPDUHandlerEEUlRS8_jE_E5CountEv
	.type	_ZNK8opendnp318BufferedCollectionINS_12Group120Var3EZNS_11CountParser13InvokeCountOfIS1_EEvRKNS_12HeaderRecordEtRKN7openpal6RSliceERNS_12IAPDUHandlerEEUlRS8_jE_E5CountEv, %function
_ZNK8opendnp318BufferedCollectionINS_12Group120Var3EZNS_11CountParser13InvokeCountOfIS1_EEvRKNS_12HeaderRecordEtRKN7openpal6RSliceERNS_12IAPDUHandlerEEUlRS8_jE_E5CountEv:
.LFB3190:
	.cfi_startproc
	ldr	x0, [x0, 24]
	ret
	.cfi_endproc
.LFE3190:
	.size	_ZNK8opendnp318BufferedCollectionINS_12Group120Var3EZNS_11CountParser13InvokeCountOfIS1_EEvRKNS_12HeaderRecordEtRKN7openpal6RSliceERNS_12IAPDUHandlerEEUlRS8_jE_E5CountEv, .-_ZNK8opendnp318BufferedCollectionINS_12Group120Var3EZNS_11CountParser13InvokeCountOfIS1_EEvRKNS_12HeaderRecordEtRKN7openpal6RSliceERNS_12IAPDUHandlerEEUlRS8_jE_E5CountEv
	.section	.text._ZNK8opendnp318BufferedCollectionINS_11Group52Var2EZNS_11CountParser13InvokeCountOfIS1_EEvRKNS_12HeaderRecordEtRKN7openpal6RSliceERNS_12IAPDUHandlerEEUlRS8_jE_E5CountEv,"axG",@progbits,_ZNK8opendnp318BufferedCollectionINS_11Group52Var2EZNS_11CountParser13InvokeCountOfIS1_EEvRKNS_12HeaderRecordEtRKN7openpal6RSliceERNS_12IAPDUHandlerEEUlRS8_jE_E5CountEv,comdat
	.align	2
	.p2align 4,,11
	.weak	_ZNK8opendnp318BufferedCollectionINS_11Group52Var2EZNS_11CountParser13InvokeCountOfIS1_EEvRKNS_12HeaderRecordEtRKN7openpal6RSliceERNS_12IAPDUHandlerEEUlRS8_jE_E5CountEv
	.type	_ZNK8opendnp318BufferedCollectionINS_11Group52Var2EZNS_11CountParser13InvokeCountOfIS1_EEvRKNS_12HeaderRecordEtRKN7openpal6RSliceERNS_12IAPDUHandlerEEUlRS8_jE_E5CountEv, %function
_ZNK8opendnp318BufferedCollectionINS_11Group52Var2EZNS_11CountParser13InvokeCountOfIS1_EEvRKNS_12HeaderRecordEtRKN7openpal6RSliceERNS_12IAPDUHandlerEEUlRS8_jE_E5CountEv:
.LFB3192:
	.cfi_startproc
	ldr	x0, [x0, 24]
	ret
	.cfi_endproc
.LFE3192:
	.size	_ZNK8opendnp318BufferedCollectionINS_11Group52Var2EZNS_11CountParser13InvokeCountOfIS1_EEvRKNS_12HeaderRecordEtRKN7openpal6RSliceERNS_12IAPDUHandlerEEUlRS8_jE_E5CountEv, .-_ZNK8opendnp318BufferedCollectionINS_11Group52Var2EZNS_11CountParser13InvokeCountOfIS1_EEvRKNS_12HeaderRecordEtRKN7openpal6RSliceERNS_12IAPDUHandlerEEUlRS8_jE_E5CountEv
	.section	.text._ZNK8opendnp318BufferedCollectionINS_11Group52Var1EZNS_11CountParser13InvokeCountOfIS1_EEvRKNS_12HeaderRecordEtRKN7openpal6RSliceERNS_12IAPDUHandlerEEUlRS8_jE_E5CountEv,"axG",@progbits,_ZNK8opendnp318BufferedCollectionINS_11Group52Var1EZNS_11CountParser13InvokeCountOfIS1_EEvRKNS_12HeaderRecordEtRKN7openpal6RSliceERNS_12IAPDUHandlerEEUlRS8_jE_E5CountEv,comdat
	.align	2
	.p2align 4,,11
	.weak	_ZNK8opendnp318BufferedCollectionINS_11Group52Var1EZNS_11CountParser13InvokeCountOfIS1_EEvRKNS_12HeaderRecordEtRKN7openpal6RSliceERNS_12IAPDUHandlerEEUlRS8_jE_E5CountEv
	.type	_ZNK8opendnp318BufferedCollectionINS_11Group52Var1EZNS_11CountParser13InvokeCountOfIS1_EEvRKNS_12HeaderRecordEtRKN7openpal6RSliceERNS_12IAPDUHandlerEEUlRS8_jE_E5CountEv, %function
_ZNK8opendnp318BufferedCollectionINS_11Group52Var1EZNS_11CountParser13InvokeCountOfIS1_EEvRKNS_12HeaderRecordEtRKN7openpal6RSliceERNS_12IAPDUHandlerEEUlRS8_jE_E5CountEv:
.LFB3194:
	.cfi_startproc
	ldr	x0, [x0, 24]
	ret
	.cfi_endproc
.LFE3194:
	.size	_ZNK8opendnp318BufferedCollectionINS_11Group52Var1EZNS_11CountParser13InvokeCountOfIS1_EEvRKNS_12HeaderRecordEtRKN7openpal6RSliceERNS_12IAPDUHandlerEEUlRS8_jE_E5CountEv, .-_ZNK8opendnp318BufferedCollectionINS_11Group52Var1EZNS_11CountParser13InvokeCountOfIS1_EEvRKNS_12HeaderRecordEtRKN7openpal6RSliceERNS_12IAPDUHandlerEEUlRS8_jE_E5CountEv
	.section	.text._ZNK8opendnp318BufferedCollectionINS_11Group51Var2EZNS_11CountParser13InvokeCountOfIS1_EEvRKNS_12HeaderRecordEtRKN7openpal6RSliceERNS_12IAPDUHandlerEEUlRS8_jE_E5CountEv,"axG",@progbits,_ZNK8opendnp318BufferedCollectionINS_11Group51Var2EZNS_11CountParser13InvokeCountOfIS1_EEvRKNS_12HeaderRecordEtRKN7openpal6RSliceERNS_12IAPDUHandlerEEUlRS8_jE_E5CountEv,comdat
	.align	2
	.p2align 4,,11
	.weak	_ZNK8opendnp318BufferedCollectionINS_11Group51Var2EZNS_11CountParser13InvokeCountOfIS1_EEvRKNS_12HeaderRecordEtRKN7openpal6RSliceERNS_12IAPDUHandlerEEUlRS8_jE_E5CountEv
	.type	_ZNK8opendnp318BufferedCollectionINS_11Group51Var2EZNS_11CountParser13InvokeCountOfIS1_EEvRKNS_12HeaderRecordEtRKN7openpal6RSliceERNS_12IAPDUHandlerEEUlRS8_jE_E5CountEv, %function
_ZNK8opendnp318BufferedCollectionINS_11Group51Var2EZNS_11CountParser13InvokeCountOfIS1_EEvRKNS_12HeaderRecordEtRKN7openpal6RSliceERNS_12IAPDUHandlerEEUlRS8_jE_E5CountEv:
.LFB3196:
	.cfi_startproc
	ldr	x0, [x0, 24]
	ret
	.cfi_endproc
.LFE3196:
	.size	_ZNK8opendnp318BufferedCollectionINS_11Group51Var2EZNS_11CountParser13InvokeCountOfIS1_EEvRKNS_12HeaderRecordEtRKN7openpal6RSliceERNS_12IAPDUHandlerEEUlRS8_jE_E5CountEv, .-_ZNK8opendnp318BufferedCollectionINS_11Group51Var2EZNS_11CountParser13InvokeCountOfIS1_EEvRKNS_12HeaderRecordEtRKN7openpal6RSliceERNS_12IAPDUHandlerEEUlRS8_jE_E5CountEv
	.section	.text._ZNK8opendnp318BufferedCollectionINS_11Group51Var1EZNS_11CountParser13InvokeCountOfIS1_EEvRKNS_12HeaderRecordEtRKN7openpal6RSliceERNS_12IAPDUHandlerEEUlRS8_jE_E5CountEv,"axG",@progbits,_ZNK8opendnp318BufferedCollectionINS_11Group51Var1EZNS_11CountParser13InvokeCountOfIS1_EEvRKNS_12HeaderRecordEtRKN7openpal6RSliceERNS_12IAPDUHandlerEEUlRS8_jE_E5CountEv,comdat
	.align	2
	.p2align 4,,11
	.weak	_ZNK8opendnp318BufferedCollectionINS_11Group51Var1EZNS_11CountParser13InvokeCountOfIS1_EEvRKNS_12HeaderRecordEtRKN7openpal6RSliceERNS_12IAPDUHandlerEEUlRS8_jE_E5CountEv
	.type	_ZNK8opendnp318BufferedCollectionINS_11Group51Var1EZNS_11CountParser13InvokeCountOfIS1_EEvRKNS_12HeaderRecordEtRKN7openpal6RSliceERNS_12IAPDUHandlerEEUlRS8_jE_E5CountEv, %function
_ZNK8opendnp318BufferedCollectionINS_11Group51Var1EZNS_11CountParser13InvokeCountOfIS1_EEvRKNS_12HeaderRecordEtRKN7openpal6RSliceERNS_12IAPDUHandlerEEUlRS8_jE_E5CountEv:
.LFB3198:
	.cfi_startproc
	ldr	x0, [x0, 24]
	ret
	.cfi_endproc
.LFE3198:
	.size	_ZNK8opendnp318BufferedCollectionINS_11Group51Var1EZNS_11CountParser13InvokeCountOfIS1_EEvRKNS_12HeaderRecordEtRKN7openpal6RSliceERNS_12IAPDUHandlerEEUlRS8_jE_E5CountEv, .-_ZNK8opendnp318BufferedCollectionINS_11Group51Var1EZNS_11CountParser13InvokeCountOfIS1_EEvRKNS_12HeaderRecordEtRKN7openpal6RSliceERNS_12IAPDUHandlerEEUlRS8_jE_E5CountEv
	.section	.text._ZNK8opendnp318BufferedCollectionINS_11Group50Var1EZNS_11CountParser13InvokeCountOfIS1_EEvRKNS_12HeaderRecordEtRKN7openpal6RSliceERNS_12IAPDUHandlerEEUlRS8_jE_E5CountEv,"axG",@progbits,_ZNK8opendnp318BufferedCollectionINS_11Group50Var1EZNS_11CountParser13InvokeCountOfIS1_EEvRKNS_12HeaderRecordEtRKN7openpal6RSliceERNS_12IAPDUHandlerEEUlRS8_jE_E5CountEv,comdat
	.align	2
	.p2align 4,,11
	.weak	_ZNK8opendnp318BufferedCollectionINS_11Group50Var1EZNS_11CountParser13InvokeCountOfIS1_EEvRKNS_12HeaderRecordEtRKN7openpal6RSliceERNS_12IAPDUHandlerEEUlRS8_jE_E5CountEv
	.type	_ZNK8opendnp318BufferedCollectionINS_11Group50Var1EZNS_11CountParser13InvokeCountOfIS1_EEvRKNS_12HeaderRecordEtRKN7openpal6RSliceERNS_12IAPDUHandlerEEUlRS8_jE_E5CountEv, %function
_ZNK8opendnp318BufferedCollectionINS_11Group50Var1EZNS_11CountParser13InvokeCountOfIS1_EEvRKNS_12HeaderRecordEtRKN7openpal6RSliceERNS_12IAPDUHandlerEEUlRS8_jE_E5CountEv:
.LFB3200:
	.cfi_startproc
	ldr	x0, [x0, 24]
	ret
	.cfi_endproc
.LFE3200:
	.size	_ZNK8opendnp318BufferedCollectionINS_11Group50Var1EZNS_11CountParser13InvokeCountOfIS1_EEvRKNS_12HeaderRecordEtRKN7openpal6RSliceERNS_12IAPDUHandlerEEUlRS8_jE_E5CountEv, .-_ZNK8opendnp318BufferedCollectionINS_11Group50Var1EZNS_11CountParser13InvokeCountOfIS1_EEvRKNS_12HeaderRecordEtRKN7openpal6RSliceERNS_12IAPDUHandlerEEUlRS8_jE_E5CountEv
	.section	.text._ZN8opendnp311CountParser13InvokeCountOfINS_11Group50Var1EEEvRKNS_12HeaderRecordEtRKN7openpal6RSliceERNS_12IAPDUHandlerE,"axG",@progbits,_ZN8opendnp311CountParser13InvokeCountOfINS_11Group50Var1EEEvRKNS_12HeaderRecordEtRKN7openpal6RSliceERNS_12IAPDUHandlerE,comdat
	.align	2
	.p2align 4,,11
	.weak	_ZN8opendnp311CountParser13InvokeCountOfINS_11Group50Var1EEEvRKNS_12HeaderRecordEtRKN7openpal6RSliceERNS_12IAPDUHandlerE
	.type	_ZN8opendnp311CountParser13InvokeCountOfINS_11Group50Var1EEEvRKNS_12HeaderRecordEtRKN7openpal6RSliceERNS_12IAPDUHandlerE, %function
_ZN8opendnp311CountParser13InvokeCountOfINS_11Group50Var1EEEvRKNS_12HeaderRecordEtRKN7openpal6RSliceERNS_12IAPDUHandlerE:
.LFB2811:
	.cfi_startproc
	mov	x8, x0
	stp	x29, x30, [sp, -96]!
	.cfi_def_cfa_offset 96
	.cfi_offset 29, -96
	.cfi_offset 30, -88
	adrp	x4, :got:_ZTVN8opendnp318BufferedCollectionINS_11Group50Var1EZNS_11CountParser13InvokeCountOfIS1_EEvRKNS_12HeaderRecordEtRKN7openpal6RSliceERNS_12IAPDUHandlerEEUlRS8_jE_EE
	mov	x29, sp
	adrp	x5, :got:__stack_chk_guard
	ldr	x4, [x4, #:got_lo12:_ZTVN8opendnp318BufferedCollectionINS_11Group50Var1EZNS_11CountParser13InvokeCountOfIS1_EEvRKNS_12HeaderRecordEtRKN7openpal6RSliceERNS_12IAPDUHandlerEEUlRS8_jE_EE]
	mov	x0, x3
	ldp	x6, x7, [x2]
	and	x3, x1, 65535
	ldp	x8, x9, [x8]
	add	x4, x4, 16
	ldr	x5, [x5, #:got_lo12:__stack_chk_guard]
	ldr	x2, [x5]
	str	x2, [sp, 88]
	mov	x2, 0
	stp	x8, x9, [sp, 24]
	add	x2, sp, 48
	strh	w1, [sp, 40]
	add	x1, sp, 24
	str	x4, [sp, 48]
	stp	x6, x7, [sp, 56]
	str	x3, [sp, 72]
	bl	_ZN8opendnp312IAPDUHandler8OnHeaderERKNS_11CountHeaderERKNS_11ICollectionINS_11Group50Var1EEE
	adrp	x0, :got:__stack_chk_guard
	ldr	x0, [x0, #:got_lo12:__stack_chk_guard]
	ldr	x2, [sp, 88]
	ldr	x1, [x0]
	subs	x2, x2, x1
	mov	x1, 0
	bne	.L12
	ldp	x29, x30, [sp], 96
	.cfi_remember_state
	.cfi_restore 30
	.cfi_restore 29
	.cfi_def_cfa_offset 0
	ret
.L12:
	.cfi_restore_state
	bl	__stack_chk_fail
	.cfi_endproc
.LFE2811:
	.size	_ZN8opendnp311CountParser13InvokeCountOfINS_11Group50Var1EEEvRKNS_12HeaderRecordEtRKN7openpal6RSliceERNS_12IAPDUHandlerE, .-_ZN8opendnp311CountParser13InvokeCountOfINS_11Group50Var1EEEvRKNS_12HeaderRecordEtRKN7openpal6RSliceERNS_12IAPDUHandlerE
	.section	.text._ZNK8opendnp318BufferedCollectionINS_11Group50Var1EZNS_11CountParser13InvokeCountOfIS1_EEvRKNS_12HeaderRecordEtRKN7openpal6RSliceERNS_12IAPDUHandlerEEUlRS8_jE_E7ForeachERNS_8IVisitorIS1_EE,"axG",@progbits,_ZNK8opendnp318BufferedCollectionINS_11Group50Var1EZNS_11CountParser13InvokeCountOfIS1_EEvRKNS_12HeaderRecordEtRKN7openpal6RSliceERNS_12IAPDUHandlerEEUlRS8_jE_E7ForeachERNS_8IVisitorIS1_EE,comdat
	.align	2
	.p2align 4,,11
	.weak	_ZNK8opendnp318BufferedCollectionINS_11Group50Var1EZNS_11CountParser13InvokeCountOfIS1_EEvRKNS_12HeaderRecordEtRKN7openpal6RSliceERNS_12IAPDUHandlerEEUlRS8_jE_E7ForeachERNS_8IVisitorIS1_EE
	.type	_ZNK8opendnp318BufferedCollectionINS_11Group50Var1EZNS_11CountParser13InvokeCountOfIS1_EEvRKNS_12HeaderRecordEtRKN7openpal6RSliceERNS_12IAPDUHandlerEEUlRS8_jE_E7ForeachERNS_8IVisitorIS1_EE, %function
_ZNK8opendnp318BufferedCollectionINS_11Group50Var1EZNS_11CountParser13InvokeCountOfIS1_EEvRKNS_12HeaderRecordEtRKN7openpal6RSliceERNS_12IAPDUHandlerEEUlRS8_jE_E7ForeachERNS_8IVisitorIS1_EE:
.LFB3201:
	.cfi_startproc
	stp	x29, x30, [sp, -96]!
	.cfi_def_cfa_offset 96
	.cfi_offset 29, -96
	.cfi_offset 30, -88
	adrp	x2, :got:__stack_chk_guard
	mov	x29, sp
	ldr	x2, [x2, #:got_lo12:__stack_chk_guard]
	stp	x21, x22, [sp, 32]
	.cfi_offset 21, -64
	.cfi_offset 22, -56
	mov	x21, x1
	stp	x23, x24, [sp, 48]
	.cfi_offset 23, -48
	.cfi_offset 24, -40
	mov	x23, x0
	ldr	x1, [x2]
	str	x1, [sp, 88]
	mov	x1, 0
	ldp	x2, x3, [x0, 8]
	stp	x2, x3, [sp, 72]
	ldr	x0, [x0, 24]
	cbz	x0, .L13
	add	x24, sp, 72
	stp	x19, x20, [sp, 16]
	.cfi_offset 20, -72
	.cfi_offset 19, -80
	add	x20, sp, 64
	mov	w19, 0
	.p2align 3,,7
.L15:
	ldr	x1, [x21]
	mov	x0, x20
	add	w19, w19, 1
	ldr	x22, [x1]
	bl	_ZN8opendnp311Group50Var1C1Ev
	mov	x1, x20
	mov	x0, x24
	bl	_ZN8opendnp311Group50Var14ReadERN7openpal6RSliceERS0_
	mov	x1, x20
	mov	x0, x21
	blr	x22
	ldr	x1, [x23, 24]
	cmp	x1, w19, uxtw
	bhi	.L15
	ldp	x19, x20, [sp, 16]
	.cfi_restore 20
	.cfi_restore 19
.L13:
	adrp	x0, :got:__stack_chk_guard
	ldr	x0, [x0, #:got_lo12:__stack_chk_guard]
	ldr	x2, [sp, 88]
	ldr	x1, [x0]
	subs	x2, x2, x1
	mov	x1, 0
	bne	.L22
	ldp	x21, x22, [sp, 32]
	ldp	x23, x24, [sp, 48]
	ldp	x29, x30, [sp], 96
	.cfi_remember_state
	.cfi_restore 30
	.cfi_restore 29
	.cfi_restore 23
	.cfi_restore 24
	.cfi_restore 21
	.cfi_restore 22
	.cfi_def_cfa_offset 0
	ret
.L22:
	.cfi_restore_state
	stp	x19, x20, [sp, 16]
	.cfi_offset 20, -72
	.cfi_offset 19, -80
	bl	__stack_chk_fail
	.cfi_endproc
.LFE3201:
	.size	_ZNK8opendnp318BufferedCollectionINS_11Group50Var1EZNS_11CountParser13InvokeCountOfIS1_EEvRKNS_12HeaderRecordEtRKN7openpal6RSliceERNS_12IAPDUHandlerEEUlRS8_jE_E7ForeachERNS_8IVisitorIS1_EE, .-_ZNK8opendnp318BufferedCollectionINS_11Group50Var1EZNS_11CountParser13InvokeCountOfIS1_EEvRKNS_12HeaderRecordEtRKN7openpal6RSliceERNS_12IAPDUHandlerEEUlRS8_jE_E7ForeachERNS_8IVisitorIS1_EE
	.section	.text._ZN8opendnp311CountParser13InvokeCountOfINS_11Group51Var1EEEvRKNS_12HeaderRecordEtRKN7openpal6RSliceERNS_12IAPDUHandlerE,"axG",@progbits,_ZN8opendnp311CountParser13InvokeCountOfINS_11Group51Var1EEEvRKNS_12HeaderRecordEtRKN7openpal6RSliceERNS_12IAPDUHandlerE,comdat
	.align	2
	.p2align 4,,11
	.weak	_ZN8opendnp311CountParser13InvokeCountOfINS_11Group51Var1EEEvRKNS_12HeaderRecordEtRKN7openpal6RSliceERNS_12IAPDUHandlerE
	.type	_ZN8opendnp311CountParser13InvokeCountOfINS_11Group51Var1EEEvRKNS_12HeaderRecordEtRKN7openpal6RSliceERNS_12IAPDUHandlerE, %function
_ZN8opendnp311CountParser13InvokeCountOfINS_11Group51Var1EEEvRKNS_12HeaderRecordEtRKN7openpal6RSliceERNS_12IAPDUHandlerE:
.LFB2821:
	.cfi_startproc
	mov	x8, x0
	stp	x29, x30, [sp, -96]!
	.cfi_def_cfa_offset 96
	.cfi_offset 29, -96
	.cfi_offset 30, -88
	adrp	x4, :got:_ZTVN8opendnp318BufferedCollectionINS_11Group51Var1EZNS_11CountParser13InvokeCountOfIS1_EEvRKNS_12HeaderRecordEtRKN7openpal6RSliceERNS_12IAPDUHandlerEEUlRS8_jE_EE
	mov	x29, sp
	adrp	x5, :got:__stack_chk_guard
	ldr	x4, [x4, #:got_lo12:_ZTVN8opendnp318BufferedCollectionINS_11Group51Var1EZNS_11CountParser13InvokeCountOfIS1_EEvRKNS_12HeaderRecordEtRKN7openpal6RSliceERNS_12IAPDUHandlerEEUlRS8_jE_EE]
	mov	x0, x3
	ldp	x6, x7, [x2]
	and	x3, x1, 65535
	ldp	x8, x9, [x8]
	add	x4, x4, 16
	ldr	x5, [x5, #:got_lo12:__stack_chk_guard]
	ldr	x2, [x5]
	str	x2, [sp, 88]
	mov	x2, 0
	stp	x8, x9, [sp, 24]
	add	x2, sp, 48
	strh	w1, [sp, 40]
	add	x1, sp, 24
	str	x4, [sp, 48]
	stp	x6, x7, [sp, 56]
	str	x3, [sp, 72]
	bl	_ZN8opendnp312IAPDUHandler8OnHeaderERKNS_11CountHeaderERKNS_11ICollectionINS_11Group51Var1EEE
	adrp	x0, :got:__stack_chk_guard
	ldr	x0, [x0, #:got_lo12:__stack_chk_guard]
	ldr	x2, [sp, 88]
	ldr	x1, [x0]
	subs	x2, x2, x1
	mov	x1, 0
	bne	.L26
	ldp	x29, x30, [sp], 96
	.cfi_remember_state
	.cfi_restore 30
	.cfi_restore 29
	.cfi_def_cfa_offset 0
	ret
.L26:
	.cfi_restore_state
	bl	__stack_chk_fail
	.cfi_endproc
.LFE2821:
	.size	_ZN8opendnp311CountParser13InvokeCountOfINS_11Group51Var1EEEvRKNS_12HeaderRecordEtRKN7openpal6RSliceERNS_12IAPDUHandlerE, .-_ZN8opendnp311CountParser13InvokeCountOfINS_11Group51Var1EEEvRKNS_12HeaderRecordEtRKN7openpal6RSliceERNS_12IAPDUHandlerE
	.section	.text._ZNK8opendnp318BufferedCollectionINS_11Group51Var1EZNS_11CountParser13InvokeCountOfIS1_EEvRKNS_12HeaderRecordEtRKN7openpal6RSliceERNS_12IAPDUHandlerEEUlRS8_jE_E7ForeachERNS_8IVisitorIS1_EE,"axG",@progbits,_ZNK8opendnp318BufferedCollectionINS_11Group51Var1EZNS_11CountParser13InvokeCountOfIS1_EEvRKNS_12HeaderRecordEtRKN7openpal6RSliceERNS_12IAPDUHandlerEEUlRS8_jE_E7ForeachERNS_8IVisitorIS1_EE,comdat
	.align	2
	.p2align 4,,11
	.weak	_ZNK8opendnp318BufferedCollectionINS_11Group51Var1EZNS_11CountParser13InvokeCountOfIS1_EEvRKNS_12HeaderRecordEtRKN7openpal6RSliceERNS_12IAPDUHandlerEEUlRS8_jE_E7ForeachERNS_8IVisitorIS1_EE
	.type	_ZNK8opendnp318BufferedCollectionINS_11Group51Var1EZNS_11CountParser13InvokeCountOfIS1_EEvRKNS_12HeaderRecordEtRKN7openpal6RSliceERNS_12IAPDUHandlerEEUlRS8_jE_E7ForeachERNS_8IVisitorIS1_EE, %function
_ZNK8opendnp318BufferedCollectionINS_11Group51Var1EZNS_11CountParser13InvokeCountOfIS1_EEvRKNS_12HeaderRecordEtRKN7openpal6RSliceERNS_12IAPDUHandlerEEUlRS8_jE_E7ForeachERNS_8IVisitorIS1_EE:
.LFB3199:
	.cfi_startproc
	stp	x29, x30, [sp, -96]!
	.cfi_def_cfa_offset 96
	.cfi_offset 29, -96
	.cfi_offset 30, -88
	adrp	x2, :got:__stack_chk_guard
	mov	x29, sp
	ldr	x2, [x2, #:got_lo12:__stack_chk_guard]
	stp	x21, x22, [sp, 32]
	.cfi_offset 21, -64
	.cfi_offset 22, -56
	mov	x21, x1
	stp	x23, x24, [sp, 48]
	.cfi_offset 23, -48
	.cfi_offset 24, -40
	mov	x23, x0
	ldr	x1, [x2]
	str	x1, [sp, 88]
	mov	x1, 0
	ldp	x2, x3, [x0, 8]
	stp	x2, x3, [sp, 72]
	ldr	x0, [x0, 24]
	cbz	x0, .L27
	add	x24, sp, 72
	stp	x19, x20, [sp, 16]
	.cfi_offset 20, -72
	.cfi_offset 19, -80
	add	x20, sp, 64
	mov	w19, 0
	.p2align 3,,7
.L29:
	ldr	x1, [x21]
	mov	x0, x20
	add	w19, w19, 1
	ldr	x22, [x1]
	bl	_ZN8opendnp311Group51Var1C1Ev
	mov	x1, x20
	mov	x0, x24
	bl	_ZN8opendnp311Group51Var14ReadERN7openpal6RSliceERS0_
	mov	x1, x20
	mov	x0, x21
	blr	x22
	ldr	x1, [x23, 24]
	cmp	x1, w19, uxtw
	bhi	.L29
	ldp	x19, x20, [sp, 16]
	.cfi_restore 20
	.cfi_restore 19
.L27:
	adrp	x0, :got:__stack_chk_guard
	ldr	x0, [x0, #:got_lo12:__stack_chk_guard]
	ldr	x2, [sp, 88]
	ldr	x1, [x0]
	subs	x2, x2, x1
	mov	x1, 0
	bne	.L36
	ldp	x21, x22, [sp, 32]
	ldp	x23, x24, [sp, 48]
	ldp	x29, x30, [sp], 96
	.cfi_remember_state
	.cfi_restore 30
	.cfi_restore 29
	.cfi_restore 23
	.cfi_restore 24
	.cfi_restore 21
	.cfi_restore 22
	.cfi_def_cfa_offset 0
	ret
.L36:
	.cfi_restore_state
	stp	x19, x20, [sp, 16]
	.cfi_offset 20, -72
	.cfi_offset 19, -80
	bl	__stack_chk_fail
	.cfi_endproc
.LFE3199:
	.size	_ZNK8opendnp318BufferedCollectionINS_11Group51Var1EZNS_11CountParser13InvokeCountOfIS1_EEvRKNS_12HeaderRecordEtRKN7openpal6RSliceERNS_12IAPDUHandlerEEUlRS8_jE_E7ForeachERNS_8IVisitorIS1_EE, .-_ZNK8opendnp318BufferedCollectionINS_11Group51Var1EZNS_11CountParser13InvokeCountOfIS1_EEvRKNS_12HeaderRecordEtRKN7openpal6RSliceERNS_12IAPDUHandlerEEUlRS8_jE_E7ForeachERNS_8IVisitorIS1_EE
	.section	.text._ZN8opendnp311CountParser13InvokeCountOfINS_11Group51Var2EEEvRKNS_12HeaderRecordEtRKN7openpal6RSliceERNS_12IAPDUHandlerE,"axG",@progbits,_ZN8opendnp311CountParser13InvokeCountOfINS_11Group51Var2EEEvRKNS_12HeaderRecordEtRKN7openpal6RSliceERNS_12IAPDUHandlerE,comdat
	.align	2
	.p2align 4,,11
	.weak	_ZN8opendnp311CountParser13InvokeCountOfINS_11Group51Var2EEEvRKNS_12HeaderRecordEtRKN7openpal6RSliceERNS_12IAPDUHandlerE
	.type	_ZN8opendnp311CountParser13InvokeCountOfINS_11Group51Var2EEEvRKNS_12HeaderRecordEtRKN7openpal6RSliceERNS_12IAPDUHandlerE, %function
_ZN8opendnp311CountParser13InvokeCountOfINS_11Group51Var2EEEvRKNS_12HeaderRecordEtRKN7openpal6RSliceERNS_12IAPDUHandlerE:
.LFB2831:
	.cfi_startproc
	mov	x8, x0
	stp	x29, x30, [sp, -96]!
	.cfi_def_cfa_offset 96
	.cfi_offset 29, -96
	.cfi_offset 30, -88
	adrp	x4, :got:_ZTVN8opendnp318BufferedCollectionINS_11Group51Var2EZNS_11CountParser13InvokeCountOfIS1_EEvRKNS_12HeaderRecordEtRKN7openpal6RSliceERNS_12IAPDUHandlerEEUlRS8_jE_EE
	mov	x29, sp
	adrp	x5, :got:__stack_chk_guard
	ldr	x4, [x4, #:got_lo12:_ZTVN8opendnp318BufferedCollectionINS_11Group51Var2EZNS_11CountParser13InvokeCountOfIS1_EEvRKNS_12HeaderRecordEtRKN7openpal6RSliceERNS_12IAPDUHandlerEEUlRS8_jE_EE]
	mov	x0, x3
	ldp	x6, x7, [x2]
	and	x3, x1, 65535
	ldp	x8, x9, [x8]
	add	x4, x4, 16
	ldr	x5, [x5, #:got_lo12:__stack_chk_guard]
	ldr	x2, [x5]
	str	x2, [sp, 88]
	mov	x2, 0
	stp	x8, x9, [sp, 24]
	add	x2, sp, 48
	strh	w1, [sp, 40]
	add	x1, sp, 24
	str	x4, [sp, 48]
	stp	x6, x7, [sp, 56]
	str	x3, [sp, 72]
	bl	_ZN8opendnp312IAPDUHandler8OnHeaderERKNS_11CountHeaderERKNS_11ICollectionINS_11Group51Var2EEE
	adrp	x0, :got:__stack_chk_guard
	ldr	x0, [x0, #:got_lo12:__stack_chk_guard]
	ldr	x2, [sp, 88]
	ldr	x1, [x0]
	subs	x2, x2, x1
	mov	x1, 0
	bne	.L40
	ldp	x29, x30, [sp], 96
	.cfi_remember_state
	.cfi_restore 30
	.cfi_restore 29
	.cfi_def_cfa_offset 0
	ret
.L40:
	.cfi_restore_state
	bl	__stack_chk_fail
	.cfi_endproc
.LFE2831:
	.size	_ZN8opendnp311CountParser13InvokeCountOfINS_11Group51Var2EEEvRKNS_12HeaderRecordEtRKN7openpal6RSliceERNS_12IAPDUHandlerE, .-_ZN8opendnp311CountParser13InvokeCountOfINS_11Group51Var2EEEvRKNS_12HeaderRecordEtRKN7openpal6RSliceERNS_12IAPDUHandlerE
	.section	.text._ZNK8opendnp318BufferedCollectionINS_11Group51Var2EZNS_11CountParser13InvokeCountOfIS1_EEvRKNS_12HeaderRecordEtRKN7openpal6RSliceERNS_12IAPDUHandlerEEUlRS8_jE_E7ForeachERNS_8IVisitorIS1_EE,"axG",@progbits,_ZNK8opendnp318BufferedCollectionINS_11Group51Var2EZNS_11CountParser13InvokeCountOfIS1_EEvRKNS_12HeaderRecordEtRKN7openpal6RSliceERNS_12IAPDUHandlerEEUlRS8_jE_E7ForeachERNS_8IVisitorIS1_EE,comdat
	.align	2
	.p2align 4,,11
	.weak	_ZNK8opendnp318BufferedCollectionINS_11Group51Var2EZNS_11CountParser13InvokeCountOfIS1_EEvRKNS_12HeaderRecordEtRKN7openpal6RSliceERNS_12IAPDUHandlerEEUlRS8_jE_E7ForeachERNS_8IVisitorIS1_EE
	.type	_ZNK8opendnp318BufferedCollectionINS_11Group51Var2EZNS_11CountParser13InvokeCountOfIS1_EEvRKNS_12HeaderRecordEtRKN7openpal6RSliceERNS_12IAPDUHandlerEEUlRS8_jE_E7ForeachERNS_8IVisitorIS1_EE, %function
_ZNK8opendnp318BufferedCollectionINS_11Group51Var2EZNS_11CountParser13InvokeCountOfIS1_EEvRKNS_12HeaderRecordEtRKN7openpal6RSliceERNS_12IAPDUHandlerEEUlRS8_jE_E7ForeachERNS_8IVisitorIS1_EE:
.LFB3197:
	.cfi_startproc
	stp	x29, x30, [sp, -96]!
	.cfi_def_cfa_offset 96
	.cfi_offset 29, -96
	.cfi_offset 30, -88
	adrp	x2, :got:__stack_chk_guard
	mov	x29, sp
	ldr	x2, [x2, #:got_lo12:__stack_chk_guard]
	stp	x21, x22, [sp, 32]
	.cfi_offset 21, -64
	.cfi_offset 22, -56
	mov	x21, x1
	stp	x23, x24, [sp, 48]
	.cfi_offset 23, -48
	.cfi_offset 24, -40
	mov	x23, x0
	ldr	x1, [x2]
	str	x1, [sp, 88]
	mov	x1, 0
	ldp	x2, x3, [x0, 8]
	stp	x2, x3, [sp, 72]
	ldr	x0, [x0, 24]
	cbz	x0, .L41
	add	x24, sp, 72
	stp	x19, x20, [sp, 16]
	.cfi_offset 20, -72
	.cfi_offset 19, -80
	add	x20, sp, 64
	mov	w19, 0
	.p2align 3,,7
.L43:
	ldr	x1, [x21]
	mov	x0, x20
	add	w19, w19, 1
	ldr	x22, [x1]
	bl	_ZN8opendnp311Group51Var2C1Ev
	mov	x1, x20
	mov	x0, x24
	bl	_ZN8opendnp311Group51Var24ReadERN7openpal6RSliceERS0_
	mov	x1, x20
	mov	x0, x21
	blr	x22
	ldr	x1, [x23, 24]
	cmp	x1, w19, uxtw
	bhi	.L43
	ldp	x19, x20, [sp, 16]
	.cfi_restore 20
	.cfi_restore 19
.L41:
	adrp	x0, :got:__stack_chk_guard
	ldr	x0, [x0, #:got_lo12:__stack_chk_guard]
	ldr	x2, [sp, 88]
	ldr	x1, [x0]
	subs	x2, x2, x1
	mov	x1, 0
	bne	.L50
	ldp	x21, x22, [sp, 32]
	ldp	x23, x24, [sp, 48]
	ldp	x29, x30, [sp], 96
	.cfi_remember_state
	.cfi_restore 30
	.cfi_restore 29
	.cfi_restore 23
	.cfi_restore 24
	.cfi_restore 21
	.cfi_restore 22
	.cfi_def_cfa_offset 0
	ret
.L50:
	.cfi_restore_state
	stp	x19, x20, [sp, 16]
	.cfi_offset 20, -72
	.cfi_offset 19, -80
	bl	__stack_chk_fail
	.cfi_endproc
.LFE3197:
	.size	_ZNK8opendnp318BufferedCollectionINS_11Group51Var2EZNS_11CountParser13InvokeCountOfIS1_EEvRKNS_12HeaderRecordEtRKN7openpal6RSliceERNS_12IAPDUHandlerEEUlRS8_jE_E7ForeachERNS_8IVisitorIS1_EE, .-_ZNK8opendnp318BufferedCollectionINS_11Group51Var2EZNS_11CountParser13InvokeCountOfIS1_EEvRKNS_12HeaderRecordEtRKN7openpal6RSliceERNS_12IAPDUHandlerEEUlRS8_jE_E7ForeachERNS_8IVisitorIS1_EE
	.section	.text._ZN8opendnp311CountParser13InvokeCountOfINS_11Group52Var1EEEvRKNS_12HeaderRecordEtRKN7openpal6RSliceERNS_12IAPDUHandlerE,"axG",@progbits,_ZN8opendnp311CountParser13InvokeCountOfINS_11Group52Var1EEEvRKNS_12HeaderRecordEtRKN7openpal6RSliceERNS_12IAPDUHandlerE,comdat
	.align	2
	.p2align 4,,11
	.weak	_ZN8opendnp311CountParser13InvokeCountOfINS_11Group52Var1EEEvRKNS_12HeaderRecordEtRKN7openpal6RSliceERNS_12IAPDUHandlerE
	.type	_ZN8opendnp311CountParser13InvokeCountOfINS_11Group52Var1EEEvRKNS_12HeaderRecordEtRKN7openpal6RSliceERNS_12IAPDUHandlerE, %function
_ZN8opendnp311CountParser13InvokeCountOfINS_11Group52Var1EEEvRKNS_12HeaderRecordEtRKN7openpal6RSliceERNS_12IAPDUHandlerE:
.LFB2841:
	.cfi_startproc
	mov	x8, x0
	stp	x29, x30, [sp, -96]!
	.cfi_def_cfa_offset 96
	.cfi_offset 29, -96
	.cfi_offset 30, -88
	adrp	x4, :got:_ZTVN8opendnp318BufferedCollectionINS_11Group52Var1EZNS_11CountParser13InvokeCountOfIS1_EEvRKNS_12HeaderRecordEtRKN7openpal6RSliceERNS_12IAPDUHandlerEEUlRS8_jE_EE
	mov	x29, sp
	adrp	x5, :got:__stack_chk_guard
	ldr	x4, [x4, #:got_lo12:_ZTVN8opendnp318BufferedCollectionINS_11Group52Var1EZNS_11CountParser13InvokeCountOfIS1_EEvRKNS_12HeaderRecordEtRKN7openpal6RSliceERNS_12IAPDUHandlerEEUlRS8_jE_EE]
	mov	x0, x3
	ldp	x6, x7, [x2]
	and	x3, x1, 65535
	ldp	x8, x9, [x8]
	add	x4, x4, 16
	ldr	x5, [x5, #:got_lo12:__stack_chk_guard]
	ldr	x2, [x5]
	str	x2, [sp, 88]
	mov	x2, 0
	stp	x8, x9, [sp, 24]
	add	x2, sp, 48
	strh	w1, [sp, 40]
	add	x1, sp, 24
	str	x4, [sp, 48]
	stp	x6, x7, [sp, 56]
	str	x3, [sp, 72]
	bl	_ZN8opendnp312IAPDUHandler8OnHeaderERKNS_11CountHeaderERKNS_11ICollectionINS_11Group52Var1EEE
	adrp	x0, :got:__stack_chk_guard
	ldr	x0, [x0, #:got_lo12:__stack_chk_guard]
	ldr	x2, [sp, 88]
	ldr	x1, [x0]
	subs	x2, x2, x1
	mov	x1, 0
	bne	.L54
	ldp	x29, x30, [sp], 96
	.cfi_remember_state
	.cfi_restore 30
	.cfi_restore 29
	.cfi_def_cfa_offset 0
	ret
.L54:
	.cfi_restore_state
	bl	__stack_chk_fail
	.cfi_endproc
.LFE2841:
	.size	_ZN8opendnp311CountParser13InvokeCountOfINS_11Group52Var1EEEvRKNS_12HeaderRecordEtRKN7openpal6RSliceERNS_12IAPDUHandlerE, .-_ZN8opendnp311CountParser13InvokeCountOfINS_11Group52Var1EEEvRKNS_12HeaderRecordEtRKN7openpal6RSliceERNS_12IAPDUHandlerE
	.section	.text._ZNK8opendnp318BufferedCollectionINS_11Group52Var1EZNS_11CountParser13InvokeCountOfIS1_EEvRKNS_12HeaderRecordEtRKN7openpal6RSliceERNS_12IAPDUHandlerEEUlRS8_jE_E7ForeachERNS_8IVisitorIS1_EE,"axG",@progbits,_ZNK8opendnp318BufferedCollectionINS_11Group52Var1EZNS_11CountParser13InvokeCountOfIS1_EEvRKNS_12HeaderRecordEtRKN7openpal6RSliceERNS_12IAPDUHandlerEEUlRS8_jE_E7ForeachERNS_8IVisitorIS1_EE,comdat
	.align	2
	.p2align 4,,11
	.weak	_ZNK8opendnp318BufferedCollectionINS_11Group52Var1EZNS_11CountParser13InvokeCountOfIS1_EEvRKNS_12HeaderRecordEtRKN7openpal6RSliceERNS_12IAPDUHandlerEEUlRS8_jE_E7ForeachERNS_8IVisitorIS1_EE
	.type	_ZNK8opendnp318BufferedCollectionINS_11Group52Var1EZNS_11CountParser13InvokeCountOfIS1_EEvRKNS_12HeaderRecordEtRKN7openpal6RSliceERNS_12IAPDUHandlerEEUlRS8_jE_E7ForeachERNS_8IVisitorIS1_EE, %function
_ZNK8opendnp318BufferedCollectionINS_11Group52Var1EZNS_11CountParser13InvokeCountOfIS1_EEvRKNS_12HeaderRecordEtRKN7openpal6RSliceERNS_12IAPDUHandlerEEUlRS8_jE_E7ForeachERNS_8IVisitorIS1_EE:
.LFB3195:
	.cfi_startproc
	stp	x29, x30, [sp, -96]!
	.cfi_def_cfa_offset 96
	.cfi_offset 29, -96
	.cfi_offset 30, -88
	adrp	x2, :got:__stack_chk_guard
	mov	x29, sp
	ldr	x2, [x2, #:got_lo12:__stack_chk_guard]
	stp	x21, x22, [sp, 32]
	.cfi_offset 21, -64
	.cfi_offset 22, -56
	mov	x21, x1
	stp	x23, x24, [sp, 48]
	.cfi_offset 23, -48
	.cfi_offset 24, -40
	mov	x23, x0
	ldr	x1, [x2]
	str	x1, [sp, 88]
	mov	x1, 0
	ldp	x2, x3, [x0, 8]
	stp	x2, x3, [sp, 72]
	ldr	x0, [x0, 24]
	cbz	x0, .L55
	add	x24, sp, 72
	stp	x19, x20, [sp, 16]
	.cfi_offset 20, -72
	.cfi_offset 19, -80
	add	x20, sp, 64
	mov	w19, 0
	.p2align 3,,7
.L57:
	ldr	x1, [x21]
	mov	x0, x20
	add	w19, w19, 1
	ldr	x22, [x1]
	bl	_ZN8opendnp311Group52Var1C1Ev
	mov	x1, x20
	mov	x0, x24
	bl	_ZN8opendnp311Group52Var14ReadERN7openpal6RSliceERS0_
	mov	x1, x20
	mov	x0, x21
	blr	x22
	ldr	x1, [x23, 24]
	cmp	x1, w19, uxtw
	bhi	.L57
	ldp	x19, x20, [sp, 16]
	.cfi_restore 20
	.cfi_restore 19
.L55:
	adrp	x0, :got:__stack_chk_guard
	ldr	x0, [x0, #:got_lo12:__stack_chk_guard]
	ldr	x2, [sp, 88]
	ldr	x1, [x0]
	subs	x2, x2, x1
	mov	x1, 0
	bne	.L64
	ldp	x21, x22, [sp, 32]
	ldp	x23, x24, [sp, 48]
	ldp	x29, x30, [sp], 96
	.cfi_remember_state
	.cfi_restore 30
	.cfi_restore 29
	.cfi_restore 23
	.cfi_restore 24
	.cfi_restore 21
	.cfi_restore 22
	.cfi_def_cfa_offset 0
	ret
.L64:
	.cfi_restore_state
	stp	x19, x20, [sp, 16]
	.cfi_offset 20, -72
	.cfi_offset 19, -80
	bl	__stack_chk_fail
	.cfi_endproc
.LFE3195:
	.size	_ZNK8opendnp318BufferedCollectionINS_11Group52Var1EZNS_11CountParser13InvokeCountOfIS1_EEvRKNS_12HeaderRecordEtRKN7openpal6RSliceERNS_12IAPDUHandlerEEUlRS8_jE_E7ForeachERNS_8IVisitorIS1_EE, .-_ZNK8opendnp318BufferedCollectionINS_11Group52Var1EZNS_11CountParser13InvokeCountOfIS1_EEvRKNS_12HeaderRecordEtRKN7openpal6RSliceERNS_12IAPDUHandlerEEUlRS8_jE_E7ForeachERNS_8IVisitorIS1_EE
	.section	.text._ZN8opendnp311CountParser13InvokeCountOfINS_11Group52Var2EEEvRKNS_12HeaderRecordEtRKN7openpal6RSliceERNS_12IAPDUHandlerE,"axG",@progbits,_ZN8opendnp311CountParser13InvokeCountOfINS_11Group52Var2EEEvRKNS_12HeaderRecordEtRKN7openpal6RSliceERNS_12IAPDUHandlerE,comdat
	.align	2
	.p2align 4,,11
	.weak	_ZN8opendnp311CountParser13InvokeCountOfINS_11Group52Var2EEEvRKNS_12HeaderRecordEtRKN7openpal6RSliceERNS_12IAPDUHandlerE
	.type	_ZN8opendnp311CountParser13InvokeCountOfINS_11Group52Var2EEEvRKNS_12HeaderRecordEtRKN7openpal6RSliceERNS_12IAPDUHandlerE, %function
_ZN8opendnp311CountParser13InvokeCountOfINS_11Group52Var2EEEvRKNS_12HeaderRecordEtRKN7openpal6RSliceERNS_12IAPDUHandlerE:
.LFB2851:
	.cfi_startproc
	mov	x8, x0
	stp	x29, x30, [sp, -96]!
	.cfi_def_cfa_offset 96
	.cfi_offset 29, -96
	.cfi_offset 30, -88
	adrp	x4, :got:_ZTVN8opendnp318BufferedCollectionINS_11Group52Var2EZNS_11CountParser13InvokeCountOfIS1_EEvRKNS_12HeaderRecordEtRKN7openpal6RSliceERNS_12IAPDUHandlerEEUlRS8_jE_EE
	mov	x29, sp
	adrp	x5, :got:__stack_chk_guard
	ldr	x4, [x4, #:got_lo12:_ZTVN8opendnp318BufferedCollectionINS_11Group52Var2EZNS_11CountParser13InvokeCountOfIS1_EEvRKNS_12HeaderRecordEtRKN7openpal6RSliceERNS_12IAPDUHandlerEEUlRS8_jE_EE]
	mov	x0, x3
	ldp	x6, x7, [x2]
	and	x3, x1, 65535
	ldp	x8, x9, [x8]
	add	x4, x4, 16
	ldr	x5, [x5, #:got_lo12:__stack_chk_guard]
	ldr	x2, [x5]
	str	x2, [sp, 88]
	mov	x2, 0
	stp	x8, x9, [sp, 24]
	add	x2, sp, 48
	strh	w1, [sp, 40]
	add	x1, sp, 24
	str	x4, [sp, 48]
	stp	x6, x7, [sp, 56]
	str	x3, [sp, 72]
	bl	_ZN8opendnp312IAPDUHandler8OnHeaderERKNS_11CountHeaderERKNS_11ICollectionINS_11Group52Var2EEE
	adrp	x0, :got:__stack_chk_guard
	ldr	x0, [x0, #:got_lo12:__stack_chk_guard]
	ldr	x2, [sp, 88]
	ldr	x1, [x0]
	subs	x2, x2, x1
	mov	x1, 0
	bne	.L68
	ldp	x29, x30, [sp], 96
	.cfi_remember_state
	.cfi_restore 30
	.cfi_restore 29
	.cfi_def_cfa_offset 0
	ret
.L68:
	.cfi_restore_state
	bl	__stack_chk_fail
	.cfi_endproc
.LFE2851:
	.size	_ZN8opendnp311CountParser13InvokeCountOfINS_11Group52Var2EEEvRKNS_12HeaderRecordEtRKN7openpal6RSliceERNS_12IAPDUHandlerE, .-_ZN8opendnp311CountParser13InvokeCountOfINS_11Group52Var2EEEvRKNS_12HeaderRecordEtRKN7openpal6RSliceERNS_12IAPDUHandlerE
	.section	.text._ZNK8opendnp318BufferedCollectionINS_11Group52Var2EZNS_11CountParser13InvokeCountOfIS1_EEvRKNS_12HeaderRecordEtRKN7openpal6RSliceERNS_12IAPDUHandlerEEUlRS8_jE_E7ForeachERNS_8IVisitorIS1_EE,"axG",@progbits,_ZNK8opendnp318BufferedCollectionINS_11Group52Var2EZNS_11CountParser13InvokeCountOfIS1_EEvRKNS_12HeaderRecordEtRKN7openpal6RSliceERNS_12IAPDUHandlerEEUlRS8_jE_E7ForeachERNS_8IVisitorIS1_EE,comdat
	.align	2
	.p2align 4,,11
	.weak	_ZNK8opendnp318BufferedCollectionINS_11Group52Var2EZNS_11CountParser13InvokeCountOfIS1_EEvRKNS_12HeaderRecordEtRKN7openpal6RSliceERNS_12IAPDUHandlerEEUlRS8_jE_E7ForeachERNS_8IVisitorIS1_EE
	.type	_ZNK8opendnp318BufferedCollectionINS_11Group52Var2EZNS_11CountParser13InvokeCountOfIS1_EEvRKNS_12HeaderRecordEtRKN7openpal6RSliceERNS_12IAPDUHandlerEEUlRS8_jE_E7ForeachERNS_8IVisitorIS1_EE, %function
_ZNK8opendnp318BufferedCollectionINS_11Group52Var2EZNS_11CountParser13InvokeCountOfIS1_EEvRKNS_12HeaderRecordEtRKN7openpal6RSliceERNS_12IAPDUHandlerEEUlRS8_jE_E7ForeachERNS_8IVisitorIS1_EE:
.LFB3193:
	.cfi_startproc
	stp	x29, x30, [sp, -96]!
	.cfi_def_cfa_offset 96
	.cfi_offset 29, -96
	.cfi_offset 30, -88
	adrp	x2, :got:__stack_chk_guard
	mov	x29, sp
	ldr	x2, [x2, #:got_lo12:__stack_chk_guard]
	stp	x21, x22, [sp, 32]
	.cfi_offset 21, -64
	.cfi_offset 22, -56
	mov	x21, x1
	stp	x23, x24, [sp, 48]
	.cfi_offset 23, -48
	.cfi_offset 24, -40
	mov	x23, x0
	ldr	x1, [x2]
	str	x1, [sp, 88]
	mov	x1, 0
	ldp	x2, x3, [x0, 8]
	stp	x2, x3, [sp, 72]
	ldr	x0, [x0, 24]
	cbz	x0, .L69
	add	x24, sp, 72
	stp	x19, x20, [sp, 16]
	.cfi_offset 20, -72
	.cfi_offset 19, -80
	add	x20, sp, 64
	mov	w19, 0
	.p2align 3,,7
.L71:
	ldr	x1, [x21]
	mov	x0, x20
	add	w19, w19, 1
	ldr	x22, [x1]
	bl	_ZN8opendnp311Group52Var2C1Ev
	mov	x1, x20
	mov	x0, x24
	bl	_ZN8opendnp311Group52Var24ReadERN7openpal6RSliceERS0_
	mov	x1, x20
	mov	x0, x21
	blr	x22
	ldr	x1, [x23, 24]
	cmp	x1, w19, uxtw
	bhi	.L71
	ldp	x19, x20, [sp, 16]
	.cfi_restore 20
	.cfi_restore 19
.L69:
	adrp	x0, :got:__stack_chk_guard
	ldr	x0, [x0, #:got_lo12:__stack_chk_guard]
	ldr	x2, [sp, 88]
	ldr	x1, [x0]
	subs	x2, x2, x1
	mov	x1, 0
	bne	.L78
	ldp	x21, x22, [sp, 32]
	ldp	x23, x24, [sp, 48]
	ldp	x29, x30, [sp], 96
	.cfi_remember_state
	.cfi_restore 30
	.cfi_restore 29
	.cfi_restore 23
	.cfi_restore 24
	.cfi_restore 21
	.cfi_restore 22
	.cfi_def_cfa_offset 0
	ret
.L78:
	.cfi_restore_state
	stp	x19, x20, [sp, 16]
	.cfi_offset 20, -72
	.cfi_offset 19, -80
	bl	__stack_chk_fail
	.cfi_endproc
.LFE3193:
	.size	_ZNK8opendnp318BufferedCollectionINS_11Group52Var2EZNS_11CountParser13InvokeCountOfIS1_EEvRKNS_12HeaderRecordEtRKN7openpal6RSliceERNS_12IAPDUHandlerEEUlRS8_jE_E7ForeachERNS_8IVisitorIS1_EE, .-_ZNK8opendnp318BufferedCollectionINS_11Group52Var2EZNS_11CountParser13InvokeCountOfIS1_EEvRKNS_12HeaderRecordEtRKN7openpal6RSliceERNS_12IAPDUHandlerEEUlRS8_jE_E7ForeachERNS_8IVisitorIS1_EE
	.section	.text._ZN8opendnp311CountParser13InvokeCountOfINS_12Group120Var3EEEvRKNS_12HeaderRecordEtRKN7openpal6RSliceERNS_12IAPDUHandlerE,"axG",@progbits,_ZN8opendnp311CountParser13InvokeCountOfINS_12Group120Var3EEEvRKNS_12HeaderRecordEtRKN7openpal6RSliceERNS_12IAPDUHandlerE,comdat
	.align	2
	.p2align 4,,11
	.weak	_ZN8opendnp311CountParser13InvokeCountOfINS_12Group120Var3EEEvRKNS_12HeaderRecordEtRKN7openpal6RSliceERNS_12IAPDUHandlerE
	.type	_ZN8opendnp311CountParser13InvokeCountOfINS_12Group120Var3EEEvRKNS_12HeaderRecordEtRKN7openpal6RSliceERNS_12IAPDUHandlerE, %function
_ZN8opendnp311CountParser13InvokeCountOfINS_12Group120Var3EEEvRKNS_12HeaderRecordEtRKN7openpal6RSliceERNS_12IAPDUHandlerE:
.LFB2861:
	.cfi_startproc
	mov	x8, x0
	stp	x29, x30, [sp, -96]!
	.cfi_def_cfa_offset 96
	.cfi_offset 29, -96
	.cfi_offset 30, -88
	adrp	x4, :got:_ZTVN8opendnp318BufferedCollectionINS_12Group120Var3EZNS_11CountParser13InvokeCountOfIS1_EEvRKNS_12HeaderRecordEtRKN7openpal6RSliceERNS_12IAPDUHandlerEEUlRS8_jE_EE
	mov	x29, sp
	adrp	x5, :got:__stack_chk_guard
	ldr	x4, [x4, #:got_lo12:_ZTVN8opendnp318BufferedCollectionINS_12Group120Var3EZNS_11CountParser13InvokeCountOfIS1_EEvRKNS_12HeaderRecordEtRKN7openpal6RSliceERNS_12IAPDUHandlerEEUlRS8_jE_EE]
	mov	x0, x3
	ldp	x6, x7, [x2]
	and	x3, x1, 65535
	ldp	x8, x9, [x8]
	add	x4, x4, 16
	ldr	x5, [x5, #:got_lo12:__stack_chk_guard]
	ldr	x2, [x5]
	str	x2, [sp, 88]
	mov	x2, 0
	stp	x8, x9, [sp, 24]
	add	x2, sp, 48
	strh	w1, [sp, 40]
	add	x1, sp, 24
	str	x4, [sp, 48]
	stp	x6, x7, [sp, 56]
	str	x3, [sp, 72]
	bl	_ZN8opendnp312IAPDUHandler8OnHeaderERKNS_11CountHeaderERKNS_11ICollectionINS_12Group120Var3EEE
	adrp	x0, :got:__stack_chk_guard
	ldr	x0, [x0, #:got_lo12:__stack_chk_guard]
	ldr	x2, [sp, 88]
	ldr	x1, [x0]
	subs	x2, x2, x1
	mov	x1, 0
	bne	.L82
	ldp	x29, x30, [sp], 96
	.cfi_remember_state
	.cfi_restore 30
	.cfi_restore 29
	.cfi_def_cfa_offset 0
	ret
.L82:
	.cfi_restore_state
	bl	__stack_chk_fail
	.cfi_endproc
.LFE2861:
	.size	_ZN8opendnp311CountParser13InvokeCountOfINS_12Group120Var3EEEvRKNS_12HeaderRecordEtRKN7openpal6RSliceERNS_12IAPDUHandlerE, .-_ZN8opendnp311CountParser13InvokeCountOfINS_12Group120Var3EEEvRKNS_12HeaderRecordEtRKN7openpal6RSliceERNS_12IAPDUHandlerE
	.section	.text._ZNK8opendnp318BufferedCollectionINS_12Group120Var3EZNS_11CountParser13InvokeCountOfIS1_EEvRKNS_12HeaderRecordEtRKN7openpal6RSliceERNS_12IAPDUHandlerEEUlRS8_jE_E7ForeachERNS_8IVisitorIS1_EE,"axG",@progbits,_ZNK8opendnp318BufferedCollectionINS_12Group120Var3EZNS_11CountParser13InvokeCountOfIS1_EEvRKNS_12HeaderRecordEtRKN7openpal6RSliceERNS_12IAPDUHandlerEEUlRS8_jE_E7ForeachERNS_8IVisitorIS1_EE,comdat
	.align	2
	.p2align 4,,11
	.weak	_ZNK8opendnp318BufferedCollectionINS_12Group120Var3EZNS_11CountParser13InvokeCountOfIS1_EEvRKNS_12HeaderRecordEtRKN7openpal6RSliceERNS_12IAPDUHandlerEEUlRS8_jE_E7ForeachERNS_8IVisitorIS1_EE
	.type	_ZNK8opendnp318BufferedCollectionINS_12Group120Var3EZNS_11CountParser13InvokeCountOfIS1_EEvRKNS_12HeaderRecordEtRKN7openpal6RSliceERNS_12IAPDUHandlerEEUlRS8_jE_E7ForeachERNS_8IVisitorIS1_EE, %function
_ZNK8opendnp318BufferedCollectionINS_12Group120Var3EZNS_11CountParser13InvokeCountOfIS1_EEvRKNS_12HeaderRecordEtRKN7openpal6RSliceERNS_12IAPDUHandlerEEUlRS8_jE_E7ForeachERNS_8IVisitorIS1_EE:
.LFB3191:
	.cfi_startproc
	stp	x29, x30, [sp, -96]!
	.cfi_def_cfa_offset 96
	.cfi_offset 29, -96
	.cfi_offset 30, -88
	adrp	x2, :got:__stack_chk_guard
	mov	x29, sp
	ldr	x2, [x2, #:got_lo12:__stack_chk_guard]
	stp	x21, x22, [sp, 32]
	.cfi_offset 21, -64
	.cfi_offset 22, -56
	mov	x21, x1
	stp	x23, x24, [sp, 48]
	.cfi_offset 23, -48
	.cfi_offset 24, -40
	mov	x23, x0
	ldr	x1, [x2]
	str	x1, [sp, 88]
	mov	x1, 0
	ldp	x2, x3, [x0, 8]
	stp	x2, x3, [sp, 72]
	ldr	x0, [x0, 24]
	cbz	x0, .L83
	add	x24, sp, 72
	stp	x19, x20, [sp, 16]
	.cfi_offset 20, -72
	.cfi_offset 19, -80
	add	x20, sp, 64
	mov	w19, 0
	.p2align 3,,7
.L85:
	ldr	x1, [x21]
	mov	x0, x20
	add	w19, w19, 1
	ldr	x22, [x1]
	bl	_ZN8opendnp312Group120Var3C1Ev
	mov	x1, x20
	mov	x0, x24
	bl	_ZN8opendnp312Group120Var34ReadERN7openpal6RSliceERS0_
	mov	x1, x20
	mov	x0, x21
	blr	x22
	ldr	x1, [x23, 24]
	cmp	x1, w19, uxtw
	bhi	.L85
	ldp	x19, x20, [sp, 16]
	.cfi_restore 20
	.cfi_restore 19
.L83:
	adrp	x0, :got:__stack_chk_guard
	ldr	x0, [x0, #:got_lo12:__stack_chk_guard]
	ldr	x2, [sp, 88]
	ldr	x1, [x0]
	subs	x2, x2, x1
	mov	x1, 0
	bne	.L92
	ldp	x21, x22, [sp, 32]
	ldp	x23, x24, [sp, 48]
	ldp	x29, x30, [sp], 96
	.cfi_remember_state
	.cfi_restore 30
	.cfi_restore 29
	.cfi_restore 23
	.cfi_restore 24
	.cfi_restore 21
	.cfi_restore 22
	.cfi_def_cfa_offset 0
	ret
.L92:
	.cfi_restore_state
	stp	x19, x20, [sp, 16]
	.cfi_offset 20, -72
	.cfi_offset 19, -80
	bl	__stack_chk_fail
	.cfi_endproc
.LFE3191:
	.size	_ZNK8opendnp318BufferedCollectionINS_12Group120Var3EZNS_11CountParser13InvokeCountOfIS1_EEvRKNS_12HeaderRecordEtRKN7openpal6RSliceERNS_12IAPDUHandlerEEUlRS8_jE_E7ForeachERNS_8IVisitorIS1_EE, .-_ZNK8opendnp318BufferedCollectionINS_12Group120Var3EZNS_11CountParser13InvokeCountOfIS1_EEvRKNS_12HeaderRecordEtRKN7openpal6RSliceERNS_12IAPDUHandlerEEUlRS8_jE_E7ForeachERNS_8IVisitorIS1_EE
	.section	.text._ZN8opendnp311CountParser13InvokeCountOfINS_12Group120Var4EEEvRKNS_12HeaderRecordEtRKN7openpal6RSliceERNS_12IAPDUHandlerE,"axG",@progbits,_ZN8opendnp311CountParser13InvokeCountOfINS_12Group120Var4EEEvRKNS_12HeaderRecordEtRKN7openpal6RSliceERNS_12IAPDUHandlerE,comdat
	.align	2
	.p2align 4,,11
	.weak	_ZN8opendnp311CountParser13InvokeCountOfINS_12Group120Var4EEEvRKNS_12HeaderRecordEtRKN7openpal6RSliceERNS_12IAPDUHandlerE
	.type	_ZN8opendnp311CountParser13InvokeCountOfINS_12Group120Var4EEEvRKNS_12HeaderRecordEtRKN7openpal6RSliceERNS_12IAPDUHandlerE, %function
_ZN8opendnp311CountParser13InvokeCountOfINS_12Group120Var4EEEvRKNS_12HeaderRecordEtRKN7openpal6RSliceERNS_12IAPDUHandlerE:
.LFB2871:
	.cfi_startproc
	mov	x8, x0
	stp	x29, x30, [sp, -96]!
	.cfi_def_cfa_offset 96
	.cfi_offset 29, -96
	.cfi_offset 30, -88
	adrp	x4, :got:_ZTVN8opendnp318BufferedCollectionINS_12Group120Var4EZNS_11CountParser13InvokeCountOfIS1_EEvRKNS_12HeaderRecordEtRKN7openpal6RSliceERNS_12IAPDUHandlerEEUlRS8_jE_EE
	mov	x29, sp
	adrp	x5, :got:__stack_chk_guard
	ldr	x4, [x4, #:got_lo12:_ZTVN8opendnp318BufferedCollectionINS_12Group120Var4EZNS_11CountParser13InvokeCountOfIS1_EEvRKNS_12HeaderRecordEtRKN7openpal6RSliceERNS_12IAPDUHandlerEEUlRS8_jE_EE]
	mov	x0, x3
	ldp	x6, x7, [x2]
	and	x3, x1, 65535
	ldp	x8, x9, [x8]
	add	x4, x4, 16
	ldr	x5, [x5, #:got_lo12:__stack_chk_guard]
	ldr	x2, [x5]
	str	x2, [sp, 88]
	mov	x2, 0
	stp	x8, x9, [sp, 24]
	add	x2, sp, 48
	strh	w1, [sp, 40]
	add	x1, sp, 24
	str	x4, [sp, 48]
	stp	x6, x7, [sp, 56]
	str	x3, [sp, 72]
	bl	_ZN8opendnp312IAPDUHandler8OnHeaderERKNS_11CountHeaderERKNS_11ICollectionINS_12Group120Var4EEE
	adrp	x0, :got:__stack_chk_guard
	ldr	x0, [x0, #:got_lo12:__stack_chk_guard]
	ldr	x2, [sp, 88]
	ldr	x1, [x0]
	subs	x2, x2, x1
	mov	x1, 0
	bne	.L96
	ldp	x29, x30, [sp], 96
	.cfi_remember_state
	.cfi_restore 30
	.cfi_restore 29
	.cfi_def_cfa_offset 0
	ret
.L96:
	.cfi_restore_state
	bl	__stack_chk_fail
	.cfi_endproc
.LFE2871:
	.size	_ZN8opendnp311CountParser13InvokeCountOfINS_12Group120Var4EEEvRKNS_12HeaderRecordEtRKN7openpal6RSliceERNS_12IAPDUHandlerE, .-_ZN8opendnp311CountParser13InvokeCountOfINS_12Group120Var4EEEvRKNS_12HeaderRecordEtRKN7openpal6RSliceERNS_12IAPDUHandlerE
	.section	.text._ZNK8opendnp318BufferedCollectionINS_12Group120Var4EZNS_11CountParser13InvokeCountOfIS1_EEvRKNS_12HeaderRecordEtRKN7openpal6RSliceERNS_12IAPDUHandlerEEUlRS8_jE_E7ForeachERNS_8IVisitorIS1_EE,"axG",@progbits,_ZNK8opendnp318BufferedCollectionINS_12Group120Var4EZNS_11CountParser13InvokeCountOfIS1_EEvRKNS_12HeaderRecordEtRKN7openpal6RSliceERNS_12IAPDUHandlerEEUlRS8_jE_E7ForeachERNS_8IVisitorIS1_EE,comdat
	.align	2
	.p2align 4,,11
	.weak	_ZNK8opendnp318BufferedCollectionINS_12Group120Var4EZNS_11CountParser13InvokeCountOfIS1_EEvRKNS_12HeaderRecordEtRKN7openpal6RSliceERNS_12IAPDUHandlerEEUlRS8_jE_E7ForeachERNS_8IVisitorIS1_EE
	.type	_ZNK8opendnp318BufferedCollectionINS_12Group120Var4EZNS_11CountParser13InvokeCountOfIS1_EEvRKNS_12HeaderRecordEtRKN7openpal6RSliceERNS_12IAPDUHandlerEEUlRS8_jE_E7ForeachERNS_8IVisitorIS1_EE, %function
_ZNK8opendnp318BufferedCollectionINS_12Group120Var4EZNS_11CountParser13InvokeCountOfIS1_EEvRKNS_12HeaderRecordEtRKN7openpal6RSliceERNS_12IAPDUHandlerEEUlRS8_jE_E7ForeachERNS_8IVisitorIS1_EE:
.LFB3189:
	.cfi_startproc
	stp	x29, x30, [sp, -96]!
	.cfi_def_cfa_offset 96
	.cfi_offset 29, -96
	.cfi_offset 30, -88
	adrp	x2, :got:__stack_chk_guard
	mov	x29, sp
	ldr	x2, [x2, #:got_lo12:__stack_chk_guard]
	stp	x21, x22, [sp, 32]
	.cfi_offset 21, -64
	.cfi_offset 22, -56
	mov	x21, x1
	stp	x23, x24, [sp, 48]
	.cfi_offset 23, -48
	.cfi_offset 24, -40
	mov	x23, x0
	ldr	x1, [x2]
	str	x1, [sp, 88]
	mov	x1, 0
	ldp	x2, x3, [x0, 8]
	stp	x2, x3, [sp, 72]
	ldr	x0, [x0, 24]
	cbz	x0, .L97
	add	x24, sp, 72
	stp	x19, x20, [sp, 16]
	.cfi_offset 20, -72
	.cfi_offset 19, -80
	add	x20, sp, 64
	mov	w19, 0
	.p2align 3,,7
.L99:
	ldr	x1, [x21]
	mov	x0, x20
	add	w19, w19, 1
	ldr	x22, [x1]
	bl	_ZN8opendnp312Group120Var4C1Ev
	mov	x1, x20
	mov	x0, x24
	bl	_ZN8opendnp312Group120Var44ReadERN7openpal6RSliceERS0_
	mov	x1, x20
	mov	x0, x21
	blr	x22
	ldr	x1, [x23, 24]
	cmp	x1, w19, uxtw
	bhi	.L99
	ldp	x19, x20, [sp, 16]
	.cfi_restore 20
	.cfi_restore 19
.L97:
	adrp	x0, :got:__stack_chk_guard
	ldr	x0, [x0, #:got_lo12:__stack_chk_guard]
	ldr	x2, [sp, 88]
	ldr	x1, [x0]
	subs	x2, x2, x1
	mov	x1, 0
	bne	.L106
	ldp	x21, x22, [sp, 32]
	ldp	x23, x24, [sp, 48]
	ldp	x29, x30, [sp], 96
	.cfi_remember_state
	.cfi_restore 30
	.cfi_restore 29
	.cfi_restore 23
	.cfi_restore 24
	.cfi_restore 21
	.cfi_restore 22
	.cfi_def_cfa_offset 0
	ret
.L106:
	.cfi_restore_state
	stp	x19, x20, [sp, 16]
	.cfi_offset 20, -72
	.cfi_offset 19, -80
	bl	__stack_chk_fail
	.cfi_endproc
.LFE3189:
	.size	_ZNK8opendnp318BufferedCollectionINS_12Group120Var4EZNS_11CountParser13InvokeCountOfIS1_EEvRKNS_12HeaderRecordEtRKN7openpal6RSliceERNS_12IAPDUHandlerEEUlRS8_jE_E7ForeachERNS_8IVisitorIS1_EE, .-_ZNK8opendnp318BufferedCollectionINS_12Group120Var4EZNS_11CountParser13InvokeCountOfIS1_EEvRKNS_12HeaderRecordEtRKN7openpal6RSliceERNS_12IAPDUHandlerEEUlRS8_jE_E7ForeachERNS_8IVisitorIS1_EE
	.text
	.align	2
	.p2align 4,,11
	.global	_ZN8opendnp311CountParserC2EtjPFvRKNS_12HeaderRecordEtRKN7openpal6RSliceERNS_12IAPDUHandlerEE
	.type	_ZN8opendnp311CountParserC2EtjPFvRKNS_12HeaderRecordEtRKN7openpal6RSliceERNS_12IAPDUHandlerEE, %function
_ZN8opendnp311CountParserC2EtjPFvRKNS_12HeaderRecordEtRKN7openpal6RSliceERNS_12IAPDUHandlerEE:
.LFB2372:
	.cfi_startproc
	strh	w1, [x0]
	str	w2, [x0, 4]
	str	x3, [x0, 8]
	ret
	.cfi_endproc
.LFE2372:
	.size	_ZN8opendnp311CountParserC2EtjPFvRKNS_12HeaderRecordEtRKN7openpal6RSliceERNS_12IAPDUHandlerEE, .-_ZN8opendnp311CountParserC2EtjPFvRKNS_12HeaderRecordEtRKN7openpal6RSliceERNS_12IAPDUHandlerEE
	.global	_ZN8opendnp311CountParserC1EtjPFvRKNS_12HeaderRecordEtRKN7openpal6RSliceERNS_12IAPDUHandlerEE
	.set	_ZN8opendnp311CountParserC1EtjPFvRKNS_12HeaderRecordEtRKN7openpal6RSliceERNS_12IAPDUHandlerEE,_ZN8opendnp311CountParserC2EtjPFvRKNS_12HeaderRecordEtRKN7openpal6RSliceERNS_12IAPDUHandlerEE
	.section	.rodata.str1.8,"aMS",@progbits,1
	.align	3
.LC0:
	.string	"Not enough data for specified objects"
	.align	3
.LC1:
	.string	"/home/jaehyun/OpenPLC_v3/utils/dnp3_src/cpp/libs/src/opendnp3/app/parsing/CountParser.cpp(42)"
	.text
	.align	2
	.p2align 4,,11
	.global	_ZNK8opendnp311CountParser7ProcessERKNS_12HeaderRecordERN7openpal6RSliceEPNS_12IAPDUHandlerEPNS4_6LoggerE
	.type	_ZNK8opendnp311CountParser7ProcessERKNS_12HeaderRecordERN7openpal6RSliceEPNS_12IAPDUHandlerEPNS4_6LoggerE, %function
_ZNK8opendnp311CountParser7ProcessERKNS_12HeaderRecordERN7openpal6RSliceEPNS_12IAPDUHandlerEPNS4_6LoggerE:
.LFB2374:
	.cfi_startproc
	stp	x29, x30, [sp, -64]!
	.cfi_def_cfa_offset 64
	.cfi_offset 29, -64
	.cfi_offset 30, -56
	adrp	x5, :got:__stack_chk_guard
	mov	x29, sp
	ldr	x5, [x5, #:got_lo12:__stack_chk_guard]
	stp	x19, x20, [sp, 16]
	ldr	w6, [x0, 4]
	ldr	w7, [x2]
	.cfi_offset 19, -48
	.cfi_offset 20, -40
	mov	x19, x0
	ldr	x0, [x5]
	str	x0, [sp, 56]
	mov	x0, 0
	cmp	w6, w7
	bhi	.L124
	mov	x20, x2
	cbz	x3, .L112
	mov	x0, x1
	ldrh	w1, [x19]
	ldr	x4, [x19, 8]
	blr	x4
	ldr	w6, [x19, 4]
.L112:
	mov	x0, x20
	mov	w1, w6
	bl	_ZN7openpal6RSlice7AdvanceEj
	mov	w0, 0
.L111:
	adrp	x1, :got:__stack_chk_guard
	ldr	x1, [x1, #:got_lo12:__stack_chk_guard]
	ldr	x3, [sp, 56]
	ldr	x2, [x1]
	subs	x3, x3, x2
	mov	x2, 0
	bne	.L125
	ldp	x19, x20, [sp, 16]
	ldp	x29, x30, [sp], 64
	.cfi_remember_state
	.cfi_restore 30
	.cfi_restore 29
	.cfi_restore 19
	.cfi_restore 20
	.cfi_def_cfa_offset 0
	ret
	.p2align 2,,3
.L124:
	.cfi_restore_state
	str	x21, [sp, 32]
	.cfi_offset 21, -32
	mov	x21, x4
	cbz	x4, .L110
	add	x20, sp, 48
	mov	w19, 4
	mov	x1, x20
	mov	x0, x4
	str	w19, [sp, 48]
	bl	_ZNK7openpal6Logger9IsEnabledERKNS_10LogFiltersE
	tst	w0, 255
	beq	.L110
	mov	x0, x21
	mov	x1, x20
	adrp	x3, .LC0
	adrp	x2, .LC1
	add	x3, x3, :lo12:.LC0
	add	x2, x2, :lo12:.LC1
	str	w19, [sp, 48]
	bl	_ZN7openpal6Logger3LogERKNS_10LogFiltersEPKcS5_
	mov	w0, w19
	ldr	x21, [sp, 32]
	.cfi_restore 21
	b	.L111
	.p2align 2,,3
.L110:
	.cfi_offset 21, -32
	mov	w0, 4
	ldr	x21, [sp, 32]
	.cfi_restore 21
	b	.L111
.L125:
	str	x21, [sp, 32]
	.cfi_offset 21, -32
	bl	__stack_chk_fail
	.cfi_endproc
.LFE2374:
	.size	_ZNK8opendnp311CountParser7ProcessERKNS_12HeaderRecordERN7openpal6RSliceEPNS_12IAPDUHandlerEPNS4_6LoggerE, .-_ZNK8opendnp311CountParser7ProcessERKNS_12HeaderRecordERN7openpal6RSliceEPNS_12IAPDUHandlerEPNS4_6LoggerE
	.section	.rodata.str1.8
	.align	3
.LC2:
	.string	"Unsupported qualifier/object - %s - %i / %i"
	.align	3
.LC3:
	.string	"/home/jaehyun/OpenPLC_v3/utils/dnp3_src/cpp/libs/src/opendnp3/app/parsing/CountParser.cpp(116)"
	.text
	.align	2
	.p2align 4,,11
	.global	_ZN8opendnp311CountParser19ParseCountOfObjectsERN7openpal6RSliceERKNS_12HeaderRecordEtPNS1_6LoggerEPNS_12IAPDUHandlerE
	.type	_ZN8opendnp311CountParser19ParseCountOfObjectsERN7openpal6RSliceERKNS_12HeaderRecordEtPNS1_6LoggerEPNS_12IAPDUHandlerE, %function
_ZN8opendnp311CountParser19ParseCountOfObjectsERN7openpal6RSliceERKNS_12HeaderRecordEtPNS1_6LoggerEPNS_12IAPDUHandlerE:
.LFB2376:
	.cfi_startproc
	stp	x29, x30, [sp, -208]!
	.cfi_def_cfa_offset 208
	.cfi_offset 29, -208
	.cfi_offset 30, -200
	adrp	x5, :got:__stack_chk_guard
	mov	x29, sp
	stp	x19, x20, [sp, 16]
	.cfi_offset 19, -192
	.cfi_offset 20, -184
	mov	x19, x1
	mov	x20, x3
	ldr	x1, [x5, #:got_lo12:__stack_chk_guard]
	stp	x21, x22, [sp, 32]
	ldrh	w5, [x19]
	ldr	x6, [x1]
	str	x6, [sp, 200]
	mov	x6, 0
	.cfi_offset 21, -176
	.cfi_offset 22, -168
	mov	x22, x0
	mov	x21, x4
	and	w1, w2, 65535
	mov	w6, 13313
	cmp	w5, w6
	beq	.L127
	bhi	.L128
	mov	w6, 13057
	cmp	w5, w6
	beq	.L129
	mov	w6, 13058
	cmp	w5, w6
	bne	.L148
	adrp	x3, :got:_ZN8opendnp311CountParser13InvokeCountOfINS_11Group51Var2EEEvRKNS_12HeaderRecordEtRKN7openpal6RSliceERNS_12IAPDUHandlerE
	add	w2, w1, w1, lsl 1
	str	x23, [sp, 48]
	.cfi_offset 23, -160
	add	x23, sp, 64
	ldr	x3, [x3, #:got_lo12:_ZN8opendnp311CountParser13InvokeCountOfINS_11Group51Var2EEEvRKNS_12HeaderRecordEtRKN7openpal6RSliceERNS_12IAPDUHandlerE]
.L146:
	lsl	w2, w2, 1
	mov	x0, x23
.L147:
	bl	_ZN8opendnp311CountParserC1EtjPFvRKNS_12HeaderRecordEtRKN7openpal6RSliceERNS_12IAPDUHandlerEE
	mov	x0, x23
	mov	x4, x20
	mov	x3, x21
	mov	x2, x22
	mov	x1, x19
	bl	_ZNK8opendnp311CountParser7ProcessERKNS_12HeaderRecordERN7openpal6RSliceEPNS_12IAPDUHandlerEPNS4_6LoggerE
	ldr	x23, [sp, 48]
	.cfi_restore 23
	and	w0, w0, 255
.L136:
	adrp	x1, :got:__stack_chk_guard
	ldr	x1, [x1, #:got_lo12:__stack_chk_guard]
	ldr	x3, [sp, 200]
	ldr	x2, [x1]
	subs	x3, x3, x2
	mov	x2, 0
	bne	.L149
	ldp	x19, x20, [sp, 16]
	ldp	x21, x22, [sp, 32]
	ldp	x29, x30, [sp], 208
	.cfi_remember_state
	.cfi_restore 30
	.cfi_restore 29
	.cfi_restore 21
	.cfi_restore 22
	.cfi_restore 19
	.cfi_restore 20
	.cfi_def_cfa_offset 0
	ret
	.p2align 2,,3
.L148:
	.cfi_restore_state
	mov	w6, 12801
	cmp	w5, w6
	bne	.L132
	adrp	x3, :got:_ZN8opendnp311CountParser13InvokeCountOfINS_11Group50Var1EEEvRKNS_12HeaderRecordEtRKN7openpal6RSliceERNS_12IAPDUHandlerE
	add	w2, w1, w1, lsl 1
	str	x23, [sp, 48]
	.cfi_remember_state
	.cfi_offset 23, -160
	add	x23, sp, 64
	ldr	x3, [x3, #:got_lo12:_ZN8opendnp311CountParser13InvokeCountOfINS_11Group50Var1EEEvRKNS_12HeaderRecordEtRKN7openpal6RSliceERNS_12IAPDUHandlerE]
	b	.L146
	.p2align 2,,3
.L128:
	.cfi_restore_state
	mov	w6, 30723
	cmp	w5, w6
	beq	.L133
	mov	w6, 30724
	cmp	w5, w6
	bne	.L150
	adrp	x3, :got:_ZN8opendnp311CountParser13InvokeCountOfINS_12Group120Var4EEEvRKNS_12HeaderRecordEtRKN7openpal6RSliceERNS_12IAPDUHandlerE
	str	x23, [sp, 48]
	.cfi_remember_state
	.cfi_offset 23, -160
	add	x23, sp, 64
	lsl	w2, w1, 1
	ldr	x3, [x3, #:got_lo12:_ZN8opendnp311CountParser13InvokeCountOfINS_12Group120Var4EEEvRKNS_12HeaderRecordEtRKN7openpal6RSliceERNS_12IAPDUHandlerE]
	mov	x0, x23
	b	.L147
	.p2align 2,,3
.L150:
	.cfi_restore_state
	mov	w6, 13314
	cmp	w5, w6
	bne	.L132
	adrp	x3, :got:_ZN8opendnp311CountParser13InvokeCountOfINS_11Group52Var2EEEvRKNS_12HeaderRecordEtRKN7openpal6RSliceERNS_12IAPDUHandlerE
	str	x23, [sp, 48]
	.cfi_remember_state
	.cfi_offset 23, -160
	add	x23, sp, 64
	lsl	w2, w1, 1
	ldr	x3, [x3, #:got_lo12:_ZN8opendnp311CountParser13InvokeCountOfINS_11Group52Var2EEEvRKNS_12HeaderRecordEtRKN7openpal6RSliceERNS_12IAPDUHandlerE]
	mov	x0, x23
	b	.L147
	.p2align 2,,3
.L127:
	.cfi_restore_state
	adrp	x3, :got:_ZN8opendnp311CountParser13InvokeCountOfINS_11Group52Var1EEEvRKNS_12HeaderRecordEtRKN7openpal6RSliceERNS_12IAPDUHandlerE
	str	x23, [sp, 48]
	.cfi_remember_state
	.cfi_offset 23, -160
	add	x23, sp, 64
	lsl	w2, w1, 1
	ldr	x3, [x3, #:got_lo12:_ZN8opendnp311CountParser13InvokeCountOfINS_11Group52Var1EEEvRKNS_12HeaderRecordEtRKN7openpal6RSliceERNS_12IAPDUHandlerE]
	mov	x0, x23
	b	.L147
	.p2align 2,,3
.L129:
	.cfi_restore_state
	adrp	x3, :got:_ZN8opendnp311CountParser13InvokeCountOfINS_11Group51Var1EEEvRKNS_12HeaderRecordEtRKN7openpal6RSliceERNS_12IAPDUHandlerE
	add	w2, w1, w1, lsl 1
	str	x23, [sp, 48]
	.cfi_remember_state
	.cfi_offset 23, -160
	add	x23, sp, 64
	ldr	x3, [x3, #:got_lo12:_ZN8opendnp311CountParser13InvokeCountOfINS_11Group51Var1EEEvRKNS_12HeaderRecordEtRKN7openpal6RSliceERNS_12IAPDUHandlerE]
	b	.L146
	.p2align 2,,3
.L132:
	.cfi_restore_state
	cbz	x20, .L137
	add	x22, sp, 64
	mov	w21, 4
	mov	x1, x22
	mov	x0, x20
	str	w21, [sp, 64]
	bl	_ZNK7openpal6Logger9IsEnabledERKNS_10LogFiltersE
	tst	w0, 255
	bne	.L151
.L137:
	mov	w0, 8
	b	.L136
	.p2align 2,,3
.L133:
	adrp	x3, :got:_ZN8opendnp311CountParser13InvokeCountOfINS_12Group120Var3EEEvRKNS_12HeaderRecordEtRKN7openpal6RSliceERNS_12IAPDUHandlerE
	add	w2, w1, w1, lsl 1
	str	x23, [sp, 48]
	.cfi_remember_state
	.cfi_offset 23, -160
	add	x23, sp, 64
	ldr	x3, [x3, #:got_lo12:_ZN8opendnp311CountParser13InvokeCountOfINS_12Group120Var3EEEvRKNS_12HeaderRecordEtRKN7openpal6RSliceERNS_12IAPDUHandlerE]
	b	.L146
	.p2align 2,,3
.L151:
	.cfi_restore_state
	mov	x0, x19
	bl	_ZNK8opendnp312HeaderRecord16GetQualifierCodeEv
	bl	_ZN8opendnp321QualifierCodeToStringENS_13QualifierCodeE
	mov	x5, x0
	ldrb	w7, [x19, 9]
	adrp	x4, .LC2
	ldrb	w6, [x19, 8]
	add	x4, x4, :lo12:.LC2
	add	x19, sp, 80
	mov	x3, 120
	mov	w2, 1
	mov	x1, x3
	mov	x0, x19
	bl	__snprintf_chk
	str	w21, [sp, 64]
	mov	x0, x20
	mov	x3, x19
	mov	x1, x22
	adrp	x2, .LC3
	add	x2, x2, :lo12:.LC3
	bl	_ZN7openpal6Logger3LogERKNS_10LogFiltersEPKcS5_
	mov	w0, 8
	b	.L136
.L149:
	str	x23, [sp, 48]
	.cfi_offset 23, -160
	bl	__stack_chk_fail
	.cfi_endproc
.LFE2376:
	.size	_ZN8opendnp311CountParser19ParseCountOfObjectsERN7openpal6RSliceERKNS_12HeaderRecordEtPNS1_6LoggerEPNS_12IAPDUHandlerE, .-_ZN8opendnp311CountParser19ParseCountOfObjectsERN7openpal6RSliceERKNS_12HeaderRecordEtPNS1_6LoggerEPNS_12IAPDUHandlerE
	.section	.rodata.str1.8
	.align	3
.LC4:
	.string	"%03u,%03u %s, %s [%u]"
	.align	3
.LC5:
	.string	"/home/jaehyun/OpenPLC_v3/utils/dnp3_src/cpp/libs/src/opendnp3/app/parsing/CountParser.cpp(62)"
	.text
	.align	2
	.p2align 4,,11
	.global	_ZN8opendnp311CountParser11ParseHeaderERN7openpal6RSliceERKNS_9NumParserERKNS_14ParserSettingsERKNS_12HeaderRecordEPNS1_6LoggerEPNS_12IAPDUHandlerE
	.type	_ZN8opendnp311CountParser11ParseHeaderERN7openpal6RSliceERKNS_9NumParserERKNS_14ParserSettingsERKNS_12HeaderRecordEPNS1_6LoggerEPNS_12IAPDUHandlerE, %function
_ZN8opendnp311CountParser11ParseHeaderERN7openpal6RSliceERKNS_9NumParserERKNS_14ParserSettingsERKNS_12HeaderRecordEPNS1_6LoggerEPNS_12IAPDUHandlerE:
.LFB2375:
	.cfi_startproc
	sub	sp, sp, #288
	.cfi_def_cfa_offset 288
	adrp	x6, :got:__stack_chk_guard
	stp	x29, x30, [sp, 16]
	.cfi_offset 29, -272
	.cfi_offset 30, -264
	add	x29, sp, 16
	ldr	x6, [x6, #:got_lo12:__stack_chk_guard]
	stp	x19, x20, [sp, 32]
	.cfi_offset 19, -256
	.cfi_offset 20, -248
	mov	x20, x2
	stp	x21, x22, [sp, 48]
	.cfi_offset 21, -240
	.cfi_offset 22, -232
	mov	x21, x3
	mov	x22, x5
	stp	x23, x24, [sp, 64]
	mov	x3, x4
	.cfi_offset 23, -224
	.cfi_offset 24, -216
	mov	x24, x4
	stp	x25, x26, [sp, 80]
	.cfi_offset 25, -208
	.cfi_offset 26, -200
	mov	x25, x0
	mov	x0, x1
	ldr	x2, [x6]
	str	x2, [sp, 280]
	mov	x2, 0
	mov	x1, x25
	add	x2, sp, 134
	bl	_ZNK8opendnp39NumParser10ParseCountERN7openpal6RSliceERtPNS1_6LoggerE
	ands	w19, w0, 255
	bne	.L153
	cbz	x24, .L155
	ldr	w2, [x20, 4]
	add	x23, sp, 136
	mov	x1, x23
	mov	x0, x24
	str	w2, [sp, 136]
	bl	_ZNK7openpal6Logger9IsEnabledERKNS_10LogFiltersE
	tst	w0, 255
	bne	.L168
.L155:
	ldrb	w0, [x20]
	cbnz	w0, .L169
.L156:
	cbz	x22, .L153
	ldp	x4, x5, [x21]
	mov	x0, x22
	ldrh	w2, [sp, 134]
	add	x1, sp, 136
	stp	x4, x5, [sp, 136]
	strh	w2, [sp, 152]
	bl	_ZN8opendnp312IAPDUHandler8OnHeaderERKNS_11CountHeaderE
	.p2align 3,,7
.L153:
	adrp	x1, :got:__stack_chk_guard
	ldr	x1, [x1, #:got_lo12:__stack_chk_guard]
	ldr	x0, [sp, 280]
	ldr	x2, [x1]
	subs	x0, x0, x2
	mov	x2, 0
	bne	.L170
	mov	w0, w19
	ldp	x29, x30, [sp, 16]
	ldp	x19, x20, [sp, 32]
	ldp	x21, x22, [sp, 48]
	ldp	x23, x24, [sp, 64]
	ldp	x25, x26, [sp, 80]
	add	sp, sp, 288
	.cfi_remember_state
	.cfi_restore 29
	.cfi_restore 30
	.cfi_restore 25
	.cfi_restore 26
	.cfi_restore 23
	.cfi_restore 24
	.cfi_restore 21
	.cfi_restore 22
	.cfi_restore 19
	.cfi_restore 20
	.cfi_def_cfa_offset 0
	ret
	.p2align 2,,3
.L169:
	.cfi_restore_state
	ldrh	w2, [sp, 134]
	mov	x4, x22
	mov	x3, x24
	mov	x1, x21
	mov	x0, x25
	bl	_ZN8opendnp311CountParser19ParseCountOfObjectsERN7openpal6RSliceERKNS_12HeaderRecordEtPNS1_6LoggerEPNS_12IAPDUHandlerE
	and	w19, w0, 255
	b	.L153
	.p2align 2,,3
.L168:
	stp	x27, x28, [sp, 96]
	.cfi_offset 28, -184
	.cfi_offset 27, -192
	add	x26, sp, 160
	ldrh	w0, [x21]
	ldrb	w6, [x21, 9]
	ldrb	w28, [x21, 8]
	str	w6, [sp, 124]
	bl	_ZN8opendnp322GroupVariationToStringENS_14GroupVariationE
	mov	x27, x0
	mov	x0, x21
	bl	_ZNK8opendnp312HeaderRecord16GetQualifierCodeEv
	bl	_ZN8opendnp321QualifierCodeToStringENS_13QualifierCodeE
	str	x0, [sp]
	ldr	w6, [sp, 124]
	mov	x7, x27
	ldrh	w1, [sp, 134]
	mov	w5, w28
	str	w1, [sp, 8]
	mov	x3, 120
	mov	w2, 1
	mov	x1, x3
	mov	x0, x26
	adrp	x4, .LC4
	add	x4, x4, :lo12:.LC4
	bl	__snprintf_chk
	ldr	w4, [x20, 4]
	mov	x0, x24
	mov	x3, x26
	mov	x1, x23
	adrp	x2, .LC5
	add	x2, x2, :lo12:.LC5
	str	w4, [sp, 136]
	bl	_ZN7openpal6Logger3LogERKNS_10LogFiltersEPKcS5_
	ldrb	w0, [x20]
	ldp	x27, x28, [sp, 96]
	.cfi_restore 28
	.cfi_restore 27
	cbz	w0, .L156
	b	.L169
.L170:
	stp	x27, x28, [sp, 96]
	.cfi_offset 28, -184
	.cfi_offset 27, -192
	bl	__stack_chk_fail
	.cfi_endproc
.LFE2375:
	.size	_ZN8opendnp311CountParser11ParseHeaderERN7openpal6RSliceERKNS_9NumParserERKNS_14ParserSettingsERKNS_12HeaderRecordEPNS1_6LoggerEPNS_12IAPDUHandlerE, .-_ZN8opendnp311CountParser11ParseHeaderERN7openpal6RSliceERKNS_9NumParserERKNS_14ParserSettingsERKNS_12HeaderRecordEPNS1_6LoggerEPNS_12IAPDUHandlerE
	.weak	_ZTSN8opendnp311ICollectionINS_11Group50Var1EEE
	.section	.rodata._ZTSN8opendnp311ICollectionINS_11Group50Var1EEE,"aG",@progbits,_ZTSN8opendnp311ICollectionINS_11Group50Var1EEE,comdat
	.align	3
	.type	_ZTSN8opendnp311ICollectionINS_11Group50Var1EEE, %object
	.size	_ZTSN8opendnp311ICollectionINS_11Group50Var1EEE, 44
_ZTSN8opendnp311ICollectionINS_11Group50Var1EEE:
	.string	"N8opendnp311ICollectionINS_11Group50Var1EEE"
	.weak	_ZTIN8opendnp311ICollectionINS_11Group50Var1EEE
	.section	.data.rel.ro._ZTIN8opendnp311ICollectionINS_11Group50Var1EEE,"awG",@progbits,_ZTIN8opendnp311ICollectionINS_11Group50Var1EEE,comdat
	.align	3
	.type	_ZTIN8opendnp311ICollectionINS_11Group50Var1EEE, %object
	.size	_ZTIN8opendnp311ICollectionINS_11Group50Var1EEE, 16
_ZTIN8opendnp311ICollectionINS_11Group50Var1EEE:
	.xword	_ZTVN10__cxxabiv117__class_type_infoE+16
	.xword	_ZTSN8opendnp311ICollectionINS_11Group50Var1EEE
	.weak	_ZTSN8opendnp318BufferedCollectionINS_11Group50Var1EZNS_11CountParser13InvokeCountOfIS1_EEvRKNS_12HeaderRecordEtRKN7openpal6RSliceERNS_12IAPDUHandlerEEUlRS8_jE_EE
	.section	.rodata._ZTSN8opendnp318BufferedCollectionINS_11Group50Var1EZNS_11CountParser13InvokeCountOfIS1_EEvRKNS_12HeaderRecordEtRKN7openpal6RSliceERNS_12IAPDUHandlerEEUlRS8_jE_EE,"aG",@progbits,_ZTSN8opendnp318BufferedCollectionINS_11Group50Var1EZNS_11CountParser13InvokeCountOfIS1_EEvRKNS_12HeaderRecordEtRKN7openpal6RSliceERNS_12IAPDUHandlerEEUlRS8_jE_EE,comdat
	.align	3
	.type	_ZTSN8opendnp318BufferedCollectionINS_11Group50Var1EZNS_11CountParser13InvokeCountOfIS1_EEvRKNS_12HeaderRecordEtRKN7openpal6RSliceERNS_12IAPDUHandlerEEUlRS8_jE_EE, %object
	.size	_ZTSN8opendnp318BufferedCollectionINS_11Group50Var1EZNS_11CountParser13InvokeCountOfIS1_EEvRKNS_12HeaderRecordEtRKN7openpal6RSliceERNS_12IAPDUHandlerEEUlRS8_jE_EE, 159
_ZTSN8opendnp318BufferedCollectionINS_11Group50Var1EZNS_11CountParser13InvokeCountOfIS1_EEvRKNS_12HeaderRecordEtRKN7openpal6RSliceERNS_12IAPDUHandlerEEUlRS8_jE_EE:
	.string	"N8opendnp318BufferedCollectionINS_11Group50Var1EZNS_11CountParser13InvokeCountOfIS1_EEvRKNS_12HeaderRecordEtRKN7openpal6RSliceERNS_12IAPDUHandlerEEUlRS8_jE_EE"
	.weak	_ZTIN8opendnp318BufferedCollectionINS_11Group50Var1EZNS_11CountParser13InvokeCountOfIS1_EEvRKNS_12HeaderRecordEtRKN7openpal6RSliceERNS_12IAPDUHandlerEEUlRS8_jE_EE
	.section	.data.rel.ro._ZTIN8opendnp318BufferedCollectionINS_11Group50Var1EZNS_11CountParser13InvokeCountOfIS1_EEvRKNS_12HeaderRecordEtRKN7openpal6RSliceERNS_12IAPDUHandlerEEUlRS8_jE_EE,"awG",@progbits,_ZTIN8opendnp318BufferedCollectionINS_11Group50Var1EZNS_11CountParser13InvokeCountOfIS1_EEvRKNS_12HeaderRecordEtRKN7openpal6RSliceERNS_12IAPDUHandlerEEUlRS8_jE_EE,comdat
	.align	3
	.type	_ZTIN8opendnp318BufferedCollectionINS_11Group50Var1EZNS_11CountParser13InvokeCountOfIS1_EEvRKNS_12HeaderRecordEtRKN7openpal6RSliceERNS_12IAPDUHandlerEEUlRS8_jE_EE, %object
	.size	_ZTIN8opendnp318BufferedCollectionINS_11Group50Var1EZNS_11CountParser13InvokeCountOfIS1_EEvRKNS_12HeaderRecordEtRKN7openpal6RSliceERNS_12IAPDUHandlerEEUlRS8_jE_EE, 24
_ZTIN8opendnp318BufferedCollectionINS_11Group50Var1EZNS_11CountParser13InvokeCountOfIS1_EEvRKNS_12HeaderRecordEtRKN7openpal6RSliceERNS_12IAPDUHandlerEEUlRS8_jE_EE:
	.xword	_ZTVN10__cxxabiv120__si_class_type_infoE+16
	.xword	_ZTSN8opendnp318BufferedCollectionINS_11Group50Var1EZNS_11CountParser13InvokeCountOfIS1_EEvRKNS_12HeaderRecordEtRKN7openpal6RSliceERNS_12IAPDUHandlerEEUlRS8_jE_EE
	.xword	_ZTIN8opendnp311ICollectionINS_11Group50Var1EEE
	.weak	_ZTSN8opendnp311ICollectionINS_12Group120Var4EEE
	.section	.rodata._ZTSN8opendnp311ICollectionINS_12Group120Var4EEE,"aG",@progbits,_ZTSN8opendnp311ICollectionINS_12Group120Var4EEE,comdat
	.align	3
	.type	_ZTSN8opendnp311ICollectionINS_12Group120Var4EEE, %object
	.size	_ZTSN8opendnp311ICollectionINS_12Group120Var4EEE, 45
_ZTSN8opendnp311ICollectionINS_12Group120Var4EEE:
	.string	"N8opendnp311ICollectionINS_12Group120Var4EEE"
	.weak	_ZTIN8opendnp311ICollectionINS_12Group120Var4EEE
	.section	.data.rel.ro._ZTIN8opendnp311ICollectionINS_12Group120Var4EEE,"awG",@progbits,_ZTIN8opendnp311ICollectionINS_12Group120Var4EEE,comdat
	.align	3
	.type	_ZTIN8opendnp311ICollectionINS_12Group120Var4EEE, %object
	.size	_ZTIN8opendnp311ICollectionINS_12Group120Var4EEE, 16
_ZTIN8opendnp311ICollectionINS_12Group120Var4EEE:
	.xword	_ZTVN10__cxxabiv117__class_type_infoE+16
	.xword	_ZTSN8opendnp311ICollectionINS_12Group120Var4EEE
	.weak	_ZTSN8opendnp311ICollectionINS_12Group120Var3EEE
	.section	.rodata._ZTSN8opendnp311ICollectionINS_12Group120Var3EEE,"aG",@progbits,_ZTSN8opendnp311ICollectionINS_12Group120Var3EEE,comdat
	.align	3
	.type	_ZTSN8opendnp311ICollectionINS_12Group120Var3EEE, %object
	.size	_ZTSN8opendnp311ICollectionINS_12Group120Var3EEE, 45
_ZTSN8opendnp311ICollectionINS_12Group120Var3EEE:
	.string	"N8opendnp311ICollectionINS_12Group120Var3EEE"
	.weak	_ZTIN8opendnp311ICollectionINS_12Group120Var3EEE
	.section	.data.rel.ro._ZTIN8opendnp311ICollectionINS_12Group120Var3EEE,"awG",@progbits,_ZTIN8opendnp311ICollectionINS_12Group120Var3EEE,comdat
	.align	3
	.type	_ZTIN8opendnp311ICollectionINS_12Group120Var3EEE, %object
	.size	_ZTIN8opendnp311ICollectionINS_12Group120Var3EEE, 16
_ZTIN8opendnp311ICollectionINS_12Group120Var3EEE:
	.xword	_ZTVN10__cxxabiv117__class_type_infoE+16
	.xword	_ZTSN8opendnp311ICollectionINS_12Group120Var3EEE
	.weak	_ZTSN8opendnp311ICollectionINS_11Group52Var2EEE
	.section	.rodata._ZTSN8opendnp311ICollectionINS_11Group52Var2EEE,"aG",@progbits,_ZTSN8opendnp311ICollectionINS_11Group52Var2EEE,comdat
	.align	3
	.type	_ZTSN8opendnp311ICollectionINS_11Group52Var2EEE, %object
	.size	_ZTSN8opendnp311ICollectionINS_11Group52Var2EEE, 44
_ZTSN8opendnp311ICollectionINS_11Group52Var2EEE:
	.string	"N8opendnp311ICollectionINS_11Group52Var2EEE"
	.weak	_ZTIN8opendnp311ICollectionINS_11Group52Var2EEE
	.section	.data.rel.ro._ZTIN8opendnp311ICollectionINS_11Group52Var2EEE,"awG",@progbits,_ZTIN8opendnp311ICollectionINS_11Group52Var2EEE,comdat
	.align	3
	.type	_ZTIN8opendnp311ICollectionINS_11Group52Var2EEE, %object
	.size	_ZTIN8opendnp311ICollectionINS_11Group52Var2EEE, 16
_ZTIN8opendnp311ICollectionINS_11Group52Var2EEE:
	.xword	_ZTVN10__cxxabiv117__class_type_infoE+16
	.xword	_ZTSN8opendnp311ICollectionINS_11Group52Var2EEE
	.weak	_ZTSN8opendnp311ICollectionINS_11Group52Var1EEE
	.section	.rodata._ZTSN8opendnp311ICollectionINS_11Group52Var1EEE,"aG",@progbits,_ZTSN8opendnp311ICollectionINS_11Group52Var1EEE,comdat
	.align	3
	.type	_ZTSN8opendnp311ICollectionINS_11Group52Var1EEE, %object
	.size	_ZTSN8opendnp311ICollectionINS_11Group52Var1EEE, 44
_ZTSN8opendnp311ICollectionINS_11Group52Var1EEE:
	.string	"N8opendnp311ICollectionINS_11Group52Var1EEE"
	.weak	_ZTIN8opendnp311ICollectionINS_11Group52Var1EEE
	.section	.data.rel.ro._ZTIN8opendnp311ICollectionINS_11Group52Var1EEE,"awG",@progbits,_ZTIN8opendnp311ICollectionINS_11Group52Var1EEE,comdat
	.align	3
	.type	_ZTIN8opendnp311ICollectionINS_11Group52Var1EEE, %object
	.size	_ZTIN8opendnp311ICollectionINS_11Group52Var1EEE, 16
_ZTIN8opendnp311ICollectionINS_11Group52Var1EEE:
	.xword	_ZTVN10__cxxabiv117__class_type_infoE+16
	.xword	_ZTSN8opendnp311ICollectionINS_11Group52Var1EEE
	.weak	_ZTSN8opendnp311ICollectionINS_11Group51Var2EEE
	.section	.rodata._ZTSN8opendnp311ICollectionINS_11Group51Var2EEE,"aG",@progbits,_ZTSN8opendnp311ICollectionINS_11Group51Var2EEE,comdat
	.align	3
	.type	_ZTSN8opendnp311ICollectionINS_11Group51Var2EEE, %object
	.size	_ZTSN8opendnp311ICollectionINS_11Group51Var2EEE, 44
_ZTSN8opendnp311ICollectionINS_11Group51Var2EEE:
	.string	"N8opendnp311ICollectionINS_11Group51Var2EEE"
	.weak	_ZTIN8opendnp311ICollectionINS_11Group51Var2EEE
	.section	.data.rel.ro._ZTIN8opendnp311ICollectionINS_11Group51Var2EEE,"awG",@progbits,_ZTIN8opendnp311ICollectionINS_11Group51Var2EEE,comdat
	.align	3
	.type	_ZTIN8opendnp311ICollectionINS_11Group51Var2EEE, %object
	.size	_ZTIN8opendnp311ICollectionINS_11Group51Var2EEE, 16
_ZTIN8opendnp311ICollectionINS_11Group51Var2EEE:
	.xword	_ZTVN10__cxxabiv117__class_type_infoE+16
	.xword	_ZTSN8opendnp311ICollectionINS_11Group51Var2EEE
	.weak	_ZTSN8opendnp311ICollectionINS_11Group51Var1EEE
	.section	.rodata._ZTSN8opendnp311ICollectionINS_11Group51Var1EEE,"aG",@progbits,_ZTSN8opendnp311ICollectionINS_11Group51Var1EEE,comdat
	.align	3
	.type	_ZTSN8opendnp311ICollectionINS_11Group51Var1EEE, %object
	.size	_ZTSN8opendnp311ICollectionINS_11Group51Var1EEE, 44
_ZTSN8opendnp311ICollectionINS_11Group51Var1EEE:
	.string	"N8opendnp311ICollectionINS_11Group51Var1EEE"
	.weak	_ZTIN8opendnp311ICollectionINS_11Group51Var1EEE
	.section	.data.rel.ro._ZTIN8opendnp311ICollectionINS_11Group51Var1EEE,"awG",@progbits,_ZTIN8opendnp311ICollectionINS_11Group51Var1EEE,comdat
	.align	3
	.type	_ZTIN8opendnp311ICollectionINS_11Group51Var1EEE, %object
	.size	_ZTIN8opendnp311ICollectionINS_11Group51Var1EEE, 16
_ZTIN8opendnp311ICollectionINS_11Group51Var1EEE:
	.xword	_ZTVN10__cxxabiv117__class_type_infoE+16
	.xword	_ZTSN8opendnp311ICollectionINS_11Group51Var1EEE
	.weak	_ZTSN8opendnp318BufferedCollectionINS_11Group51Var1EZNS_11CountParser13InvokeCountOfIS1_EEvRKNS_12HeaderRecordEtRKN7openpal6RSliceERNS_12IAPDUHandlerEEUlRS8_jE_EE
	.section	.rodata._ZTSN8opendnp318BufferedCollectionINS_11Group51Var1EZNS_11CountParser13InvokeCountOfIS1_EEvRKNS_12HeaderRecordEtRKN7openpal6RSliceERNS_12IAPDUHandlerEEUlRS8_jE_EE,"aG",@progbits,_ZTSN8opendnp318BufferedCollectionINS_11Group51Var1EZNS_11CountParser13InvokeCountOfIS1_EEvRKNS_12HeaderRecordEtRKN7openpal6RSliceERNS_12IAPDUHandlerEEUlRS8_jE_EE,comdat
	.align	3
	.type	_ZTSN8opendnp318BufferedCollectionINS_11Group51Var1EZNS_11CountParser13InvokeCountOfIS1_EEvRKNS_12HeaderRecordEtRKN7openpal6RSliceERNS_12IAPDUHandlerEEUlRS8_jE_EE, %object
	.size	_ZTSN8opendnp318BufferedCollectionINS_11Group51Var1EZNS_11CountParser13InvokeCountOfIS1_EEvRKNS_12HeaderRecordEtRKN7openpal6RSliceERNS_12IAPDUHandlerEEUlRS8_jE_EE, 159
_ZTSN8opendnp318BufferedCollectionINS_11Group51Var1EZNS_11CountParser13InvokeCountOfIS1_EEvRKNS_12HeaderRecordEtRKN7openpal6RSliceERNS_12IAPDUHandlerEEUlRS8_jE_EE:
	.string	"N8opendnp318BufferedCollectionINS_11Group51Var1EZNS_11CountParser13InvokeCountOfIS1_EEvRKNS_12HeaderRecordEtRKN7openpal6RSliceERNS_12IAPDUHandlerEEUlRS8_jE_EE"
	.weak	_ZTIN8opendnp318BufferedCollectionINS_11Group51Var1EZNS_11CountParser13InvokeCountOfIS1_EEvRKNS_12HeaderRecordEtRKN7openpal6RSliceERNS_12IAPDUHandlerEEUlRS8_jE_EE
	.section	.data.rel.ro._ZTIN8opendnp318BufferedCollectionINS_11Group51Var1EZNS_11CountParser13InvokeCountOfIS1_EEvRKNS_12HeaderRecordEtRKN7openpal6RSliceERNS_12IAPDUHandlerEEUlRS8_jE_EE,"awG",@progbits,_ZTIN8opendnp318BufferedCollectionINS_11Group51Var1EZNS_11CountParser13InvokeCountOfIS1_EEvRKNS_12HeaderRecordEtRKN7openpal6RSliceERNS_12IAPDUHandlerEEUlRS8_jE_EE,comdat
	.align	3
	.type	_ZTIN8opendnp318BufferedCollectionINS_11Group51Var1EZNS_11CountParser13InvokeCountOfIS1_EEvRKNS_12HeaderRecordEtRKN7openpal6RSliceERNS_12IAPDUHandlerEEUlRS8_jE_EE, %object
	.size	_ZTIN8opendnp318BufferedCollectionINS_11Group51Var1EZNS_11CountParser13InvokeCountOfIS1_EEvRKNS_12HeaderRecordEtRKN7openpal6RSliceERNS_12IAPDUHandlerEEUlRS8_jE_EE, 24
_ZTIN8opendnp318BufferedCollectionINS_11Group51Var1EZNS_11CountParser13InvokeCountOfIS1_EEvRKNS_12HeaderRecordEtRKN7openpal6RSliceERNS_12IAPDUHandlerEEUlRS8_jE_EE:
	.xword	_ZTVN10__cxxabiv120__si_class_type_infoE+16
	.xword	_ZTSN8opendnp318BufferedCollectionINS_11Group51Var1EZNS_11CountParser13InvokeCountOfIS1_EEvRKNS_12HeaderRecordEtRKN7openpal6RSliceERNS_12IAPDUHandlerEEUlRS8_jE_EE
	.xword	_ZTIN8opendnp311ICollectionINS_11Group51Var1EEE
	.weak	_ZTSN8opendnp318BufferedCollectionINS_11Group51Var2EZNS_11CountParser13InvokeCountOfIS1_EEvRKNS_12HeaderRecordEtRKN7openpal6RSliceERNS_12IAPDUHandlerEEUlRS8_jE_EE
	.section	.rodata._ZTSN8opendnp318BufferedCollectionINS_11Group51Var2EZNS_11CountParser13InvokeCountOfIS1_EEvRKNS_12HeaderRecordEtRKN7openpal6RSliceERNS_12IAPDUHandlerEEUlRS8_jE_EE,"aG",@progbits,_ZTSN8opendnp318BufferedCollectionINS_11Group51Var2EZNS_11CountParser13InvokeCountOfIS1_EEvRKNS_12HeaderRecordEtRKN7openpal6RSliceERNS_12IAPDUHandlerEEUlRS8_jE_EE,comdat
	.align	3
	.type	_ZTSN8opendnp318BufferedCollectionINS_11Group51Var2EZNS_11CountParser13InvokeCountOfIS1_EEvRKNS_12HeaderRecordEtRKN7openpal6RSliceERNS_12IAPDUHandlerEEUlRS8_jE_EE, %object
	.size	_ZTSN8opendnp318BufferedCollectionINS_11Group51Var2EZNS_11CountParser13InvokeCountOfIS1_EEvRKNS_12HeaderRecordEtRKN7openpal6RSliceERNS_12IAPDUHandlerEEUlRS8_jE_EE, 159
_ZTSN8opendnp318BufferedCollectionINS_11Group51Var2EZNS_11CountParser13InvokeCountOfIS1_EEvRKNS_12HeaderRecordEtRKN7openpal6RSliceERNS_12IAPDUHandlerEEUlRS8_jE_EE:
	.string	"N8opendnp318BufferedCollectionINS_11Group51Var2EZNS_11CountParser13InvokeCountOfIS1_EEvRKNS_12HeaderRecordEtRKN7openpal6RSliceERNS_12IAPDUHandlerEEUlRS8_jE_EE"
	.weak	_ZTIN8opendnp318BufferedCollectionINS_11Group51Var2EZNS_11CountParser13InvokeCountOfIS1_EEvRKNS_12HeaderRecordEtRKN7openpal6RSliceERNS_12IAPDUHandlerEEUlRS8_jE_EE
	.section	.data.rel.ro._ZTIN8opendnp318BufferedCollectionINS_11Group51Var2EZNS_11CountParser13InvokeCountOfIS1_EEvRKNS_12HeaderRecordEtRKN7openpal6RSliceERNS_12IAPDUHandlerEEUlRS8_jE_EE,"awG",@progbits,_ZTIN8opendnp318BufferedCollectionINS_11Group51Var2EZNS_11CountParser13InvokeCountOfIS1_EEvRKNS_12HeaderRecordEtRKN7openpal6RSliceERNS_12IAPDUHandlerEEUlRS8_jE_EE,comdat
	.align	3
	.type	_ZTIN8opendnp318BufferedCollectionINS_11Group51Var2EZNS_11CountParser13InvokeCountOfIS1_EEvRKNS_12HeaderRecordEtRKN7openpal6RSliceERNS_12IAPDUHandlerEEUlRS8_jE_EE, %object
	.size	_ZTIN8opendnp318BufferedCollectionINS_11Group51Var2EZNS_11CountParser13InvokeCountOfIS1_EEvRKNS_12HeaderRecordEtRKN7openpal6RSliceERNS_12IAPDUHandlerEEUlRS8_jE_EE, 24
_ZTIN8opendnp318BufferedCollectionINS_11Group51Var2EZNS_11CountParser13InvokeCountOfIS1_EEvRKNS_12HeaderRecordEtRKN7openpal6RSliceERNS_12IAPDUHandlerEEUlRS8_jE_EE:
	.xword	_ZTVN10__cxxabiv120__si_class_type_infoE+16
	.xword	_ZTSN8opendnp318BufferedCollectionINS_11Group51Var2EZNS_11CountParser13InvokeCountOfIS1_EEvRKNS_12HeaderRecordEtRKN7openpal6RSliceERNS_12IAPDUHandlerEEUlRS8_jE_EE
	.xword	_ZTIN8opendnp311ICollectionINS_11Group51Var2EEE
	.weak	_ZTSN8opendnp318BufferedCollectionINS_11Group52Var1EZNS_11CountParser13InvokeCountOfIS1_EEvRKNS_12HeaderRecordEtRKN7openpal6RSliceERNS_12IAPDUHandlerEEUlRS8_jE_EE
	.section	.rodata._ZTSN8opendnp318BufferedCollectionINS_11Group52Var1EZNS_11CountParser13InvokeCountOfIS1_EEvRKNS_12HeaderRecordEtRKN7openpal6RSliceERNS_12IAPDUHandlerEEUlRS8_jE_EE,"aG",@progbits,_ZTSN8opendnp318BufferedCollectionINS_11Group52Var1EZNS_11CountParser13InvokeCountOfIS1_EEvRKNS_12HeaderRecordEtRKN7openpal6RSliceERNS_12IAPDUHandlerEEUlRS8_jE_EE,comdat
	.align	3
	.type	_ZTSN8opendnp318BufferedCollectionINS_11Group52Var1EZNS_11CountParser13InvokeCountOfIS1_EEvRKNS_12HeaderRecordEtRKN7openpal6RSliceERNS_12IAPDUHandlerEEUlRS8_jE_EE, %object
	.size	_ZTSN8opendnp318BufferedCollectionINS_11Group52Var1EZNS_11CountParser13InvokeCountOfIS1_EEvRKNS_12HeaderRecordEtRKN7openpal6RSliceERNS_12IAPDUHandlerEEUlRS8_jE_EE, 159
_ZTSN8opendnp318BufferedCollectionINS_11Group52Var1EZNS_11CountParser13InvokeCountOfIS1_EEvRKNS_12HeaderRecordEtRKN7openpal6RSliceERNS_12IAPDUHandlerEEUlRS8_jE_EE:
	.string	"N8opendnp318BufferedCollectionINS_11Group52Var1EZNS_11CountParser13InvokeCountOfIS1_EEvRKNS_12HeaderRecordEtRKN7openpal6RSliceERNS_12IAPDUHandlerEEUlRS8_jE_EE"
	.weak	_ZTIN8opendnp318BufferedCollectionINS_11Group52Var1EZNS_11CountParser13InvokeCountOfIS1_EEvRKNS_12HeaderRecordEtRKN7openpal6RSliceERNS_12IAPDUHandlerEEUlRS8_jE_EE
	.section	.data.rel.ro._ZTIN8opendnp318BufferedCollectionINS_11Group52Var1EZNS_11CountParser13InvokeCountOfIS1_EEvRKNS_12HeaderRecordEtRKN7openpal6RSliceERNS_12IAPDUHandlerEEUlRS8_jE_EE,"awG",@progbits,_ZTIN8opendnp318BufferedCollectionINS_11Group52Var1EZNS_11CountParser13InvokeCountOfIS1_EEvRKNS_12HeaderRecordEtRKN7openpal6RSliceERNS_12IAPDUHandlerEEUlRS8_jE_EE,comdat
	.align	3
	.type	_ZTIN8opendnp318BufferedCollectionINS_11Group52Var1EZNS_11CountParser13InvokeCountOfIS1_EEvRKNS_12HeaderRecordEtRKN7openpal6RSliceERNS_12IAPDUHandlerEEUlRS8_jE_EE, %object
	.size	_ZTIN8opendnp318BufferedCollectionINS_11Group52Var1EZNS_11CountParser13InvokeCountOfIS1_EEvRKNS_12HeaderRecordEtRKN7openpal6RSliceERNS_12IAPDUHandlerEEUlRS8_jE_EE, 24
_ZTIN8opendnp318BufferedCollectionINS_11Group52Var1EZNS_11CountParser13InvokeCountOfIS1_EEvRKNS_12HeaderRecordEtRKN7openpal6RSliceERNS_12IAPDUHandlerEEUlRS8_jE_EE:
	.xword	_ZTVN10__cxxabiv120__si_class_type_infoE+16
	.xword	_ZTSN8opendnp318BufferedCollectionINS_11Group52Var1EZNS_11CountParser13InvokeCountOfIS1_EEvRKNS_12HeaderRecordEtRKN7openpal6RSliceERNS_12IAPDUHandlerEEUlRS8_jE_EE
	.xword	_ZTIN8opendnp311ICollectionINS_11Group52Var1EEE
	.weak	_ZTSN8opendnp318BufferedCollectionINS_11Group52Var2EZNS_11CountParser13InvokeCountOfIS1_EEvRKNS_12HeaderRecordEtRKN7openpal6RSliceERNS_12IAPDUHandlerEEUlRS8_jE_EE
	.section	.rodata._ZTSN8opendnp318BufferedCollectionINS_11Group52Var2EZNS_11CountParser13InvokeCountOfIS1_EEvRKNS_12HeaderRecordEtRKN7openpal6RSliceERNS_12IAPDUHandlerEEUlRS8_jE_EE,"aG",@progbits,_ZTSN8opendnp318BufferedCollectionINS_11Group52Var2EZNS_11CountParser13InvokeCountOfIS1_EEvRKNS_12HeaderRecordEtRKN7openpal6RSliceERNS_12IAPDUHandlerEEUlRS8_jE_EE,comdat
	.align	3
	.type	_ZTSN8opendnp318BufferedCollectionINS_11Group52Var2EZNS_11CountParser13InvokeCountOfIS1_EEvRKNS_12HeaderRecordEtRKN7openpal6RSliceERNS_12IAPDUHandlerEEUlRS8_jE_EE, %object
	.size	_ZTSN8opendnp318BufferedCollectionINS_11Group52Var2EZNS_11CountParser13InvokeCountOfIS1_EEvRKNS_12HeaderRecordEtRKN7openpal6RSliceERNS_12IAPDUHandlerEEUlRS8_jE_EE, 159
_ZTSN8opendnp318BufferedCollectionINS_11Group52Var2EZNS_11CountParser13InvokeCountOfIS1_EEvRKNS_12HeaderRecordEtRKN7openpal6RSliceERNS_12IAPDUHandlerEEUlRS8_jE_EE:
	.string	"N8opendnp318BufferedCollectionINS_11Group52Var2EZNS_11CountParser13InvokeCountOfIS1_EEvRKNS_12HeaderRecordEtRKN7openpal6RSliceERNS_12IAPDUHandlerEEUlRS8_jE_EE"
	.weak	_ZTIN8opendnp318BufferedCollectionINS_11Group52Var2EZNS_11CountParser13InvokeCountOfIS1_EEvRKNS_12HeaderRecordEtRKN7openpal6RSliceERNS_12IAPDUHandlerEEUlRS8_jE_EE
	.section	.data.rel.ro._ZTIN8opendnp318BufferedCollectionINS_11Group52Var2EZNS_11CountParser13InvokeCountOfIS1_EEvRKNS_12HeaderRecordEtRKN7openpal6RSliceERNS_12IAPDUHandlerEEUlRS8_jE_EE,"awG",@progbits,_ZTIN8opendnp318BufferedCollectionINS_11Group52Var2EZNS_11CountParser13InvokeCountOfIS1_EEvRKNS_12HeaderRecordEtRKN7openpal6RSliceERNS_12IAPDUHandlerEEUlRS8_jE_EE,comdat
	.align	3
	.type	_ZTIN8opendnp318BufferedCollectionINS_11Group52Var2EZNS_11CountParser13InvokeCountOfIS1_EEvRKNS_12HeaderRecordEtRKN7openpal6RSliceERNS_12IAPDUHandlerEEUlRS8_jE_EE, %object
	.size	_ZTIN8opendnp318BufferedCollectionINS_11Group52Var2EZNS_11CountParser13InvokeCountOfIS1_EEvRKNS_12HeaderRecordEtRKN7openpal6RSliceERNS_12IAPDUHandlerEEUlRS8_jE_EE, 24
_ZTIN8opendnp318BufferedCollectionINS_11Group52Var2EZNS_11CountParser13InvokeCountOfIS1_EEvRKNS_12HeaderRecordEtRKN7openpal6RSliceERNS_12IAPDUHandlerEEUlRS8_jE_EE:
	.xword	_ZTVN10__cxxabiv120__si_class_type_infoE+16
	.xword	_ZTSN8opendnp318BufferedCollectionINS_11Group52Var2EZNS_11CountParser13InvokeCountOfIS1_EEvRKNS_12HeaderRecordEtRKN7openpal6RSliceERNS_12IAPDUHandlerEEUlRS8_jE_EE
	.xword	_ZTIN8opendnp311ICollectionINS_11Group52Var2EEE
	.weak	_ZTSN8opendnp318BufferedCollectionINS_12Group120Var3EZNS_11CountParser13InvokeCountOfIS1_EEvRKNS_12HeaderRecordEtRKN7openpal6RSliceERNS_12IAPDUHandlerEEUlRS8_jE_EE
	.section	.rodata._ZTSN8opendnp318BufferedCollectionINS_12Group120Var3EZNS_11CountParser13InvokeCountOfIS1_EEvRKNS_12HeaderRecordEtRKN7openpal6RSliceERNS_12IAPDUHandlerEEUlRS8_jE_EE,"aG",@progbits,_ZTSN8opendnp318BufferedCollectionINS_12Group120Var3EZNS_11CountParser13InvokeCountOfIS1_EEvRKNS_12HeaderRecordEtRKN7openpal6RSliceERNS_12IAPDUHandlerEEUlRS8_jE_EE,comdat
	.align	3
	.type	_ZTSN8opendnp318BufferedCollectionINS_12Group120Var3EZNS_11CountParser13InvokeCountOfIS1_EEvRKNS_12HeaderRecordEtRKN7openpal6RSliceERNS_12IAPDUHandlerEEUlRS8_jE_EE, %object
	.size	_ZTSN8opendnp318BufferedCollectionINS_12Group120Var3EZNS_11CountParser13InvokeCountOfIS1_EEvRKNS_12HeaderRecordEtRKN7openpal6RSliceERNS_12IAPDUHandlerEEUlRS8_jE_EE, 160
_ZTSN8opendnp318BufferedCollectionINS_12Group120Var3EZNS_11CountParser13InvokeCountOfIS1_EEvRKNS_12HeaderRecordEtRKN7openpal6RSliceERNS_12IAPDUHandlerEEUlRS8_jE_EE:
	.string	"N8opendnp318BufferedCollectionINS_12Group120Var3EZNS_11CountParser13InvokeCountOfIS1_EEvRKNS_12HeaderRecordEtRKN7openpal6RSliceERNS_12IAPDUHandlerEEUlRS8_jE_EE"
	.weak	_ZTIN8opendnp318BufferedCollectionINS_12Group120Var3EZNS_11CountParser13InvokeCountOfIS1_EEvRKNS_12HeaderRecordEtRKN7openpal6RSliceERNS_12IAPDUHandlerEEUlRS8_jE_EE
	.section	.data.rel.ro._ZTIN8opendnp318BufferedCollectionINS_12Group120Var3EZNS_11CountParser13InvokeCountOfIS1_EEvRKNS_12HeaderRecordEtRKN7openpal6RSliceERNS_12IAPDUHandlerEEUlRS8_jE_EE,"awG",@progbits,_ZTIN8opendnp318BufferedCollectionINS_12Group120Var3EZNS_11CountParser13InvokeCountOfIS1_EEvRKNS_12HeaderRecordEtRKN7openpal6RSliceERNS_12IAPDUHandlerEEUlRS8_jE_EE,comdat
	.align	3
	.type	_ZTIN8opendnp318BufferedCollectionINS_12Group120Var3EZNS_11CountParser13InvokeCountOfIS1_EEvRKNS_12HeaderRecordEtRKN7openpal6RSliceERNS_12IAPDUHandlerEEUlRS8_jE_EE, %object
	.size	_ZTIN8opendnp318BufferedCollectionINS_12Group120Var3EZNS_11CountParser13InvokeCountOfIS1_EEvRKNS_12HeaderRecordEtRKN7openpal6RSliceERNS_12IAPDUHandlerEEUlRS8_jE_EE, 24
_ZTIN8opendnp318BufferedCollectionINS_12Group120Var3EZNS_11CountParser13InvokeCountOfIS1_EEvRKNS_12HeaderRecordEtRKN7openpal6RSliceERNS_12IAPDUHandlerEEUlRS8_jE_EE:
	.xword	_ZTVN10__cxxabiv120__si_class_type_infoE+16
	.xword	_ZTSN8opendnp318BufferedCollectionINS_12Group120Var3EZNS_11CountParser13InvokeCountOfIS1_EEvRKNS_12HeaderRecordEtRKN7openpal6RSliceERNS_12IAPDUHandlerEEUlRS8_jE_EE
	.xword	_ZTIN8opendnp311ICollectionINS_12Group120Var3EEE
	.weak	_ZTSN8opendnp318BufferedCollectionINS_12Group120Var4EZNS_11CountParser13InvokeCountOfIS1_EEvRKNS_12HeaderRecordEtRKN7openpal6RSliceERNS_12IAPDUHandlerEEUlRS8_jE_EE
	.section	.rodata._ZTSN8opendnp318BufferedCollectionINS_12Group120Var4EZNS_11CountParser13InvokeCountOfIS1_EEvRKNS_12HeaderRecordEtRKN7openpal6RSliceERNS_12IAPDUHandlerEEUlRS8_jE_EE,"aG",@progbits,_ZTSN8opendnp318BufferedCollectionINS_12Group120Var4EZNS_11CountParser13InvokeCountOfIS1_EEvRKNS_12HeaderRecordEtRKN7openpal6RSliceERNS_12IAPDUHandlerEEUlRS8_jE_EE,comdat
	.align	3
	.type	_ZTSN8opendnp318BufferedCollectionINS_12Group120Var4EZNS_11CountParser13InvokeCountOfIS1_EEvRKNS_12HeaderRecordEtRKN7openpal6RSliceERNS_12IAPDUHandlerEEUlRS8_jE_EE, %object
	.size	_ZTSN8opendnp318BufferedCollectionINS_12Group120Var4EZNS_11CountParser13InvokeCountOfIS1_EEvRKNS_12HeaderRecordEtRKN7openpal6RSliceERNS_12IAPDUHandlerEEUlRS8_jE_EE, 160
_ZTSN8opendnp318BufferedCollectionINS_12Group120Var4EZNS_11CountParser13InvokeCountOfIS1_EEvRKNS_12HeaderRecordEtRKN7openpal6RSliceERNS_12IAPDUHandlerEEUlRS8_jE_EE:
	.string	"N8opendnp318BufferedCollectionINS_12Group120Var4EZNS_11CountParser13InvokeCountOfIS1_EEvRKNS_12HeaderRecordEtRKN7openpal6RSliceERNS_12IAPDUHandlerEEUlRS8_jE_EE"
	.weak	_ZTIN8opendnp318BufferedCollectionINS_12Group120Var4EZNS_11CountParser13InvokeCountOfIS1_EEvRKNS_12HeaderRecordEtRKN7openpal6RSliceERNS_12IAPDUHandlerEEUlRS8_jE_EE
	.section	.data.rel.ro._ZTIN8opendnp318BufferedCollectionINS_12Group120Var4EZNS_11CountParser13InvokeCountOfIS1_EEvRKNS_12HeaderRecordEtRKN7openpal6RSliceERNS_12IAPDUHandlerEEUlRS8_jE_EE,"awG",@progbits,_ZTIN8opendnp318BufferedCollectionINS_12Group120Var4EZNS_11CountParser13InvokeCountOfIS1_EEvRKNS_12HeaderRecordEtRKN7openpal6RSliceERNS_12IAPDUHandlerEEUlRS8_jE_EE,comdat
	.align	3
	.type	_ZTIN8opendnp318BufferedCollectionINS_12Group120Var4EZNS_11CountParser13InvokeCountOfIS1_EEvRKNS_12HeaderRecordEtRKN7openpal6RSliceERNS_12IAPDUHandlerEEUlRS8_jE_EE, %object
	.size	_ZTIN8opendnp318BufferedCollectionINS_12Group120Var4EZNS_11CountParser13InvokeCountOfIS1_EEvRKNS_12HeaderRecordEtRKN7openpal6RSliceERNS_12IAPDUHandlerEEUlRS8_jE_EE, 24
_ZTIN8opendnp318BufferedCollectionINS_12Group120Var4EZNS_11CountParser13InvokeCountOfIS1_EEvRKNS_12HeaderRecordEtRKN7openpal6RSliceERNS_12IAPDUHandlerEEUlRS8_jE_EE:
	.xword	_ZTVN10__cxxabiv120__si_class_type_infoE+16
	.xword	_ZTSN8opendnp318BufferedCollectionINS_12Group120Var4EZNS_11CountParser13InvokeCountOfIS1_EEvRKNS_12HeaderRecordEtRKN7openpal6RSliceERNS_12IAPDUHandlerEEUlRS8_jE_EE
	.xword	_ZTIN8opendnp311ICollectionINS_12Group120Var4EEE
	.weak	_ZTVN8opendnp318BufferedCollectionINS_11Group50Var1EZNS_11CountParser13InvokeCountOfIS1_EEvRKNS_12HeaderRecordEtRKN7openpal6RSliceERNS_12IAPDUHandlerEEUlRS8_jE_EE
	.section	.data.rel.ro._ZTVN8opendnp318BufferedCollectionINS_11Group50Var1EZNS_11CountParser13InvokeCountOfIS1_EEvRKNS_12HeaderRecordEtRKN7openpal6RSliceERNS_12IAPDUHandlerEEUlRS8_jE_EE,"awG",@progbits,_ZTVN8opendnp318BufferedCollectionINS_11Group50Var1EZNS_11CountParser13InvokeCountOfIS1_EEvRKNS_12HeaderRecordEtRKN7openpal6RSliceERNS_12IAPDUHandlerEEUlRS8_jE_EE,comdat
	.align	3
	.type	_ZTVN8opendnp318BufferedCollectionINS_11Group50Var1EZNS_11CountParser13InvokeCountOfIS1_EEvRKNS_12HeaderRecordEtRKN7openpal6RSliceERNS_12IAPDUHandlerEEUlRS8_jE_EE, %object
	.size	_ZTVN8opendnp318BufferedCollectionINS_11Group50Var1EZNS_11CountParser13InvokeCountOfIS1_EEvRKNS_12HeaderRecordEtRKN7openpal6RSliceERNS_12IAPDUHandlerEEUlRS8_jE_EE, 32
_ZTVN8opendnp318BufferedCollectionINS_11Group50Var1EZNS_11CountParser13InvokeCountOfIS1_EEvRKNS_12HeaderRecordEtRKN7openpal6RSliceERNS_12IAPDUHandlerEEUlRS8_jE_EE:
	.xword	0
	.xword	_ZTIN8opendnp318BufferedCollectionINS_11Group50Var1EZNS_11CountParser13InvokeCountOfIS1_EEvRKNS_12HeaderRecordEtRKN7openpal6RSliceERNS_12IAPDUHandlerEEUlRS8_jE_EE
	.xword	_ZNK8opendnp318BufferedCollectionINS_11Group50Var1EZNS_11CountParser13InvokeCountOfIS1_EEvRKNS_12HeaderRecordEtRKN7openpal6RSliceERNS_12IAPDUHandlerEEUlRS8_jE_E5CountEv
	.xword	_ZNK8opendnp318BufferedCollectionINS_11Group50Var1EZNS_11CountParser13InvokeCountOfIS1_EEvRKNS_12HeaderRecordEtRKN7openpal6RSliceERNS_12IAPDUHandlerEEUlRS8_jE_E7ForeachERNS_8IVisitorIS1_EE
	.weak	_ZTVN8opendnp318BufferedCollectionINS_11Group51Var1EZNS_11CountParser13InvokeCountOfIS1_EEvRKNS_12HeaderRecordEtRKN7openpal6RSliceERNS_12IAPDUHandlerEEUlRS8_jE_EE
	.section	.data.rel.ro._ZTVN8opendnp318BufferedCollectionINS_11Group51Var1EZNS_11CountParser13InvokeCountOfIS1_EEvRKNS_12HeaderRecordEtRKN7openpal6RSliceERNS_12IAPDUHandlerEEUlRS8_jE_EE,"awG",@progbits,_ZTVN8opendnp318BufferedCollectionINS_11Group51Var1EZNS_11CountParser13InvokeCountOfIS1_EEvRKNS_12HeaderRecordEtRKN7openpal6RSliceERNS_12IAPDUHandlerEEUlRS8_jE_EE,comdat
	.align	3
	.type	_ZTVN8opendnp318BufferedCollectionINS_11Group51Var1EZNS_11CountParser13InvokeCountOfIS1_EEvRKNS_12HeaderRecordEtRKN7openpal6RSliceERNS_12IAPDUHandlerEEUlRS8_jE_EE, %object
	.size	_ZTVN8opendnp318BufferedCollectionINS_11Group51Var1EZNS_11CountParser13InvokeCountOfIS1_EEvRKNS_12HeaderRecordEtRKN7openpal6RSliceERNS_12IAPDUHandlerEEUlRS8_jE_EE, 32
_ZTVN8opendnp318BufferedCollectionINS_11Group51Var1EZNS_11CountParser13InvokeCountOfIS1_EEvRKNS_12HeaderRecordEtRKN7openpal6RSliceERNS_12IAPDUHandlerEEUlRS8_jE_EE:
	.xword	0
	.xword	_ZTIN8opendnp318BufferedCollectionINS_11Group51Var1EZNS_11CountParser13InvokeCountOfIS1_EEvRKNS_12HeaderRecordEtRKN7openpal6RSliceERNS_12IAPDUHandlerEEUlRS8_jE_EE
	.xword	_ZNK8opendnp318BufferedCollectionINS_11Group51Var1EZNS_11CountParser13InvokeCountOfIS1_EEvRKNS_12HeaderRecordEtRKN7openpal6RSliceERNS_12IAPDUHandlerEEUlRS8_jE_E5CountEv
	.xword	_ZNK8opendnp318BufferedCollectionINS_11Group51Var1EZNS_11CountParser13InvokeCountOfIS1_EEvRKNS_12HeaderRecordEtRKN7openpal6RSliceERNS_12IAPDUHandlerEEUlRS8_jE_E7ForeachERNS_8IVisitorIS1_EE
	.weak	_ZTVN8opendnp318BufferedCollectionINS_11Group51Var2EZNS_11CountParser13InvokeCountOfIS1_EEvRKNS_12HeaderRecordEtRKN7openpal6RSliceERNS_12IAPDUHandlerEEUlRS8_jE_EE
	.section	.data.rel.ro._ZTVN8opendnp318BufferedCollectionINS_11Group51Var2EZNS_11CountParser13InvokeCountOfIS1_EEvRKNS_12HeaderRecordEtRKN7openpal6RSliceERNS_12IAPDUHandlerEEUlRS8_jE_EE,"awG",@progbits,_ZTVN8opendnp318BufferedCollectionINS_11Group51Var2EZNS_11CountParser13InvokeCountOfIS1_EEvRKNS_12HeaderRecordEtRKN7openpal6RSliceERNS_12IAPDUHandlerEEUlRS8_jE_EE,comdat
	.align	3
	.type	_ZTVN8opendnp318BufferedCollectionINS_11Group51Var2EZNS_11CountParser13InvokeCountOfIS1_EEvRKNS_12HeaderRecordEtRKN7openpal6RSliceERNS_12IAPDUHandlerEEUlRS8_jE_EE, %object
	.size	_ZTVN8opendnp318BufferedCollectionINS_11Group51Var2EZNS_11CountParser13InvokeCountOfIS1_EEvRKNS_12HeaderRecordEtRKN7openpal6RSliceERNS_12IAPDUHandlerEEUlRS8_jE_EE, 32
_ZTVN8opendnp318BufferedCollectionINS_11Group51Var2EZNS_11CountParser13InvokeCountOfIS1_EEvRKNS_12HeaderRecordEtRKN7openpal6RSliceERNS_12IAPDUHandlerEEUlRS8_jE_EE:
	.xword	0
	.xword	_ZTIN8opendnp318BufferedCollectionINS_11Group51Var2EZNS_11CountParser13InvokeCountOfIS1_EEvRKNS_12HeaderRecordEtRKN7openpal6RSliceERNS_12IAPDUHandlerEEUlRS8_jE_EE
	.xword	_ZNK8opendnp318BufferedCollectionINS_11Group51Var2EZNS_11CountParser13InvokeCountOfIS1_EEvRKNS_12HeaderRecordEtRKN7openpal6RSliceERNS_12IAPDUHandlerEEUlRS8_jE_E5CountEv
	.xword	_ZNK8opendnp318BufferedCollectionINS_11Group51Var2EZNS_11CountParser13InvokeCountOfIS1_EEvRKNS_12HeaderRecordEtRKN7openpal6RSliceERNS_12IAPDUHandlerEEUlRS8_jE_E7ForeachERNS_8IVisitorIS1_EE
	.weak	_ZTVN8opendnp318BufferedCollectionINS_11Group52Var1EZNS_11CountParser13InvokeCountOfIS1_EEvRKNS_12HeaderRecordEtRKN7openpal6RSliceERNS_12IAPDUHandlerEEUlRS8_jE_EE
	.section	.data.rel.ro._ZTVN8opendnp318BufferedCollectionINS_11Group52Var1EZNS_11CountParser13InvokeCountOfIS1_EEvRKNS_12HeaderRecordEtRKN7openpal6RSliceERNS_12IAPDUHandlerEEUlRS8_jE_EE,"awG",@progbits,_ZTVN8opendnp318BufferedCollectionINS_11Group52Var1EZNS_11CountParser13InvokeCountOfIS1_EEvRKNS_12HeaderRecordEtRKN7openpal6RSliceERNS_12IAPDUHandlerEEUlRS8_jE_EE,comdat
	.align	3
	.type	_ZTVN8opendnp318BufferedCollectionINS_11Group52Var1EZNS_11CountParser13InvokeCountOfIS1_EEvRKNS_12HeaderRecordEtRKN7openpal6RSliceERNS_12IAPDUHandlerEEUlRS8_jE_EE, %object
	.size	_ZTVN8opendnp318BufferedCollectionINS_11Group52Var1EZNS_11CountParser13InvokeCountOfIS1_EEvRKNS_12HeaderRecordEtRKN7openpal6RSliceERNS_12IAPDUHandlerEEUlRS8_jE_EE, 32
_ZTVN8opendnp318BufferedCollectionINS_11Group52Var1EZNS_11CountParser13InvokeCountOfIS1_EEvRKNS_12HeaderRecordEtRKN7openpal6RSliceERNS_12IAPDUHandlerEEUlRS8_jE_EE:
	.xword	0
	.xword	_ZTIN8opendnp318BufferedCollectionINS_11Group52Var1EZNS_11CountParser13InvokeCountOfIS1_EEvRKNS_12HeaderRecordEtRKN7openpal6RSliceERNS_12IAPDUHandlerEEUlRS8_jE_EE
	.xword	_ZNK8opendnp318BufferedCollectionINS_11Group52Var1EZNS_11CountParser13InvokeCountOfIS1_EEvRKNS_12HeaderRecordEtRKN7openpal6RSliceERNS_12IAPDUHandlerEEUlRS8_jE_E5CountEv
	.xword	_ZNK8opendnp318BufferedCollectionINS_11Group52Var1EZNS_11CountParser13InvokeCountOfIS1_EEvRKNS_12HeaderRecordEtRKN7openpal6RSliceERNS_12IAPDUHandlerEEUlRS8_jE_E7ForeachERNS_8IVisitorIS1_EE
	.weak	_ZTVN8opendnp318BufferedCollectionINS_11Group52Var2EZNS_11CountParser13InvokeCountOfIS1_EEvRKNS_12HeaderRecordEtRKN7openpal6RSliceERNS_12IAPDUHandlerEEUlRS8_jE_EE
	.section	.data.rel.ro._ZTVN8opendnp318BufferedCollectionINS_11Group52Var2EZNS_11CountParser13InvokeCountOfIS1_EEvRKNS_12HeaderRecordEtRKN7openpal6RSliceERNS_12IAPDUHandlerEEUlRS8_jE_EE,"awG",@progbits,_ZTVN8opendnp318BufferedCollectionINS_11Group52Var2EZNS_11CountParser13InvokeCountOfIS1_EEvRKNS_12HeaderRecordEtRKN7openpal6RSliceERNS_12IAPDUHandlerEEUlRS8_jE_EE,comdat
	.align	3
	.type	_ZTVN8opendnp318BufferedCollectionINS_11Group52Var2EZNS_11CountParser13InvokeCountOfIS1_EEvRKNS_12HeaderRecordEtRKN7openpal6RSliceERNS_12IAPDUHandlerEEUlRS8_jE_EE, %object
	.size	_ZTVN8opendnp318BufferedCollectionINS_11Group52Var2EZNS_11CountParser13InvokeCountOfIS1_EEvRKNS_12HeaderRecordEtRKN7openpal6RSliceERNS_12IAPDUHandlerEEUlRS8_jE_EE, 32
_ZTVN8opendnp318BufferedCollectionINS_11Group52Var2EZNS_11CountParser13InvokeCountOfIS1_EEvRKNS_12HeaderRecordEtRKN7openpal6RSliceERNS_12IAPDUHandlerEEUlRS8_jE_EE:
	.xword	0
	.xword	_ZTIN8opendnp318BufferedCollectionINS_11Group52Var2EZNS_11CountParser13InvokeCountOfIS1_EEvRKNS_12HeaderRecordEtRKN7openpal6RSliceERNS_12IAPDUHandlerEEUlRS8_jE_EE
	.xword	_ZNK8opendnp318BufferedCollectionINS_11Group52Var2EZNS_11CountParser13InvokeCountOfIS1_EEvRKNS_12HeaderRecordEtRKN7openpal6RSliceERNS_12IAPDUHandlerEEUlRS8_jE_E5CountEv
	.xword	_ZNK8opendnp318BufferedCollectionINS_11Group52Var2EZNS_11CountParser13InvokeCountOfIS1_EEvRKNS_12HeaderRecordEtRKN7openpal6RSliceERNS_12IAPDUHandlerEEUlRS8_jE_E7ForeachERNS_8IVisitorIS1_EE
	.weak	_ZTVN8opendnp318BufferedCollectionINS_12Group120Var3EZNS_11CountParser13InvokeCountOfIS1_EEvRKNS_12HeaderRecordEtRKN7openpal6RSliceERNS_12IAPDUHandlerEEUlRS8_jE_EE
	.section	.data.rel.ro._ZTVN8opendnp318BufferedCollectionINS_12Group120Var3EZNS_11CountParser13InvokeCountOfIS1_EEvRKNS_12HeaderRecordEtRKN7openpal6RSliceERNS_12IAPDUHandlerEEUlRS8_jE_EE,"awG",@progbits,_ZTVN8opendnp318BufferedCollectionINS_12Group120Var3EZNS_11CountParser13InvokeCountOfIS1_EEvRKNS_12HeaderRecordEtRKN7openpal6RSliceERNS_12IAPDUHandlerEEUlRS8_jE_EE,comdat
	.align	3
	.type	_ZTVN8opendnp318BufferedCollectionINS_12Group120Var3EZNS_11CountParser13InvokeCountOfIS1_EEvRKNS_12HeaderRecordEtRKN7openpal6RSliceERNS_12IAPDUHandlerEEUlRS8_jE_EE, %object
	.size	_ZTVN8opendnp318BufferedCollectionINS_12Group120Var3EZNS_11CountParser13InvokeCountOfIS1_EEvRKNS_12HeaderRecordEtRKN7openpal6RSliceERNS_12IAPDUHandlerEEUlRS8_jE_EE, 32
_ZTVN8opendnp318BufferedCollectionINS_12Group120Var3EZNS_11CountParser13InvokeCountOfIS1_EEvRKNS_12HeaderRecordEtRKN7openpal6RSliceERNS_12IAPDUHandlerEEUlRS8_jE_EE:
	.xword	0
	.xword	_ZTIN8opendnp318BufferedCollectionINS_12Group120Var3EZNS_11CountParser13InvokeCountOfIS1_EEvRKNS_12HeaderRecordEtRKN7openpal6RSliceERNS_12IAPDUHandlerEEUlRS8_jE_EE
	.xword	_ZNK8opendnp318BufferedCollectionINS_12Group120Var3EZNS_11CountParser13InvokeCountOfIS1_EEvRKNS_12HeaderRecordEtRKN7openpal6RSliceERNS_12IAPDUHandlerEEUlRS8_jE_E5CountEv
	.xword	_ZNK8opendnp318BufferedCollectionINS_12Group120Var3EZNS_11CountParser13InvokeCountOfIS1_EEvRKNS_12HeaderRecordEtRKN7openpal6RSliceERNS_12IAPDUHandlerEEUlRS8_jE_E7ForeachERNS_8IVisitorIS1_EE
	.weak	_ZTVN8opendnp318BufferedCollectionINS_12Group120Var4EZNS_11CountParser13InvokeCountOfIS1_EEvRKNS_12HeaderRecordEtRKN7openpal6RSliceERNS_12IAPDUHandlerEEUlRS8_jE_EE
	.section	.data.rel.ro._ZTVN8opendnp318BufferedCollectionINS_12Group120Var4EZNS_11CountParser13InvokeCountOfIS1_EEvRKNS_12HeaderRecordEtRKN7openpal6RSliceERNS_12IAPDUHandlerEEUlRS8_jE_EE,"awG",@progbits,_ZTVN8opendnp318BufferedCollectionINS_12Group120Var4EZNS_11CountParser13InvokeCountOfIS1_EEvRKNS_12HeaderRecordEtRKN7openpal6RSliceERNS_12IAPDUHandlerEEUlRS8_jE_EE,comdat
	.align	3
	.type	_ZTVN8opendnp318BufferedCollectionINS_12Group120Var4EZNS_11CountParser13InvokeCountOfIS1_EEvRKNS_12HeaderRecordEtRKN7openpal6RSliceERNS_12IAPDUHandlerEEUlRS8_jE_EE, %object
	.size	_ZTVN8opendnp318BufferedCollectionINS_12Group120Var4EZNS_11CountParser13InvokeCountOfIS1_EEvRKNS_12HeaderRecordEtRKN7openpal6RSliceERNS_12IAPDUHandlerEEUlRS8_jE_EE, 32
_ZTVN8opendnp318BufferedCollectionINS_12Group120Var4EZNS_11CountParser13InvokeCountOfIS1_EEvRKNS_12HeaderRecordEtRKN7openpal6RSliceERNS_12IAPDUHandlerEEUlRS8_jE_EE:
	.xword	0
	.xword	_ZTIN8opendnp318BufferedCollectionINS_12Group120Var4EZNS_11CountParser13InvokeCountOfIS1_EEvRKNS_12HeaderRecordEtRKN7openpal6RSliceERNS_12IAPDUHandlerEEUlRS8_jE_EE
	.xword	_ZNK8opendnp318BufferedCollectionINS_12Group120Var4EZNS_11CountParser13InvokeCountOfIS1_EEvRKNS_12HeaderRecordEtRKN7openpal6RSliceERNS_12IAPDUHandlerEEUlRS8_jE_E5CountEv
	.xword	_ZNK8opendnp318BufferedCollectionINS_12Group120Var4EZNS_11CountParser13InvokeCountOfIS1_EEvRKNS_12HeaderRecordEtRKN7openpal6RSliceERNS_12IAPDUHandlerEEUlRS8_jE_E7ForeachERNS_8IVisitorIS1_EE
	.ident	"GCC: (Ubuntu 11.4.0-1ubuntu1~22.04) 11.4.0"
	.section	.note.GNU-stack,"",@progbits
