	.arch armv8-a
	.file	"RangeParser.cpp"
	.text
	.section	.text._ZN7openpal12StaticBufferILj255EED2Ev,"axG",@progbits,_ZN7openpal12StaticBufferILj255EED5Ev,comdat
	.align	2
	.p2align 4,,11
	.weak	_ZN7openpal12StaticBufferILj255EED2Ev
	.type	_ZN7openpal12StaticBufferILj255EED2Ev, %function
_ZN7openpal12StaticBufferILj255EED2Ev:
.LFB2765:
	.cfi_startproc
	ret
	.cfi_endproc
.LFE2765:
	.size	_ZN7openpal12StaticBufferILj255EED2Ev, .-_ZN7openpal12StaticBufferILj255EED2Ev
	.weak	_ZN7openpal12StaticBufferILj255EED1Ev
	.set	_ZN7openpal12StaticBufferILj255EED1Ev,_ZN7openpal12StaticBufferILj255EED2Ev
	.section	.text._ZNK8opendnp318BufferedCollectionINS_7IndexedINS_12Group121Var1EEEZNS_11RangeParser17InvokeRangeOfTypeIS2_EEvRKNS_12HeaderRecordERKNS_5RangeERKN7openpal6RSliceERNS_12IAPDUHandlerEEUlRSD_jE_E5CountEv,"axG",@progbits,_ZNK8opendnp318BufferedCollectionINS_7IndexedINS_12Group121Var1EEEZNS_11RangeParser17InvokeRangeOfTypeIS2_EEvRKNS_12HeaderRecordERKNS_5RangeERKN7openpal6RSliceERNS_12IAPDUHandlerEEUlRSD_jE_E5CountEv,comdat
	.align	2
	.p2align 4,,11
	.weak	_ZNK8opendnp318BufferedCollectionINS_7IndexedINS_12Group121Var1EEEZNS_11RangeParser17InvokeRangeOfTypeIS2_EEvRKNS_12HeaderRecordERKNS_5RangeERKN7openpal6RSliceERNS_12IAPDUHandlerEEUlRSD_jE_E5CountEv
	.type	_ZNK8opendnp318BufferedCollectionINS_7IndexedINS_12Group121Var1EEEZNS_11RangeParser17InvokeRangeOfTypeIS2_EEvRKNS_12HeaderRecordERKNS_5RangeERKN7openpal6RSliceERNS_12IAPDUHandlerEEUlRSD_jE_E5CountEv, %function
_ZNK8opendnp318BufferedCollectionINS_7IndexedINS_12Group121Var1EEEZNS_11RangeParser17InvokeRangeOfTypeIS2_EEvRKNS_12HeaderRecordERKNS_5RangeERKN7openpal6RSliceERNS_12IAPDUHandlerEEUlRSD_jE_E5CountEv:
.LFB3610:
	.cfi_startproc
	ldr	x0, [x0, 24]
	ret
	.cfi_endproc
.LFE3610:
	.size	_ZNK8opendnp318BufferedCollectionINS_7IndexedINS_12Group121Var1EEEZNS_11RangeParser17InvokeRangeOfTypeIS2_EEvRKNS_12HeaderRecordERKNS_5RangeERKN7openpal6RSliceERNS_12IAPDUHandlerEEUlRSD_jE_E5CountEv, .-_ZNK8opendnp318BufferedCollectionINS_7IndexedINS_12Group121Var1EEEZNS_11RangeParser17InvokeRangeOfTypeIS2_EEvRKNS_12HeaderRecordERKNS_5RangeERKN7openpal6RSliceERNS_12IAPDUHandlerEEUlRSD_jE_E5CountEv
	.section	.text._ZNK8opendnp318BufferedCollectionINS_7IndexedINS_8IINValueEEEZNS_11RangeParser23InvokeRangeBitfieldTypeIS2_EEvRKNS_12HeaderRecordERKNS_5RangeERKN7openpal6RSliceERNS_12IAPDUHandlerEEUlRSD_jE_E5CountEv,"axG",@progbits,_ZNK8opendnp318BufferedCollectionINS_7IndexedINS_8IINValueEEEZNS_11RangeParser23InvokeRangeBitfieldTypeIS2_EEvRKNS_12HeaderRecordERKNS_5RangeERKN7openpal6RSliceERNS_12IAPDUHandlerEEUlRSD_jE_E5CountEv,comdat
	.align	2
	.p2align 4,,11
	.weak	_ZNK8opendnp318BufferedCollectionINS_7IndexedINS_8IINValueEEEZNS_11RangeParser23InvokeRangeBitfieldTypeIS2_EEvRKNS_12HeaderRecordERKNS_5RangeERKN7openpal6RSliceERNS_12IAPDUHandlerEEUlRSD_jE_E5CountEv
	.type	_ZNK8opendnp318BufferedCollectionINS_7IndexedINS_8IINValueEEEZNS_11RangeParser23InvokeRangeBitfieldTypeIS2_EEvRKNS_12HeaderRecordERKNS_5RangeERKN7openpal6RSliceERNS_12IAPDUHandlerEEUlRSD_jE_E5CountEv, %function
_ZNK8opendnp318BufferedCollectionINS_7IndexedINS_8IINValueEEEZNS_11RangeParser23InvokeRangeBitfieldTypeIS2_EEvRKNS_12HeaderRecordERKNS_5RangeERKN7openpal6RSliceERNS_12IAPDUHandlerEEUlRSD_jE_E5CountEv:
.LFB3612:
	.cfi_startproc
	ldr	x0, [x0, 24]
	ret
	.cfi_endproc
.LFE3612:
	.size	_ZNK8opendnp318BufferedCollectionINS_7IndexedINS_8IINValueEEEZNS_11RangeParser23InvokeRangeBitfieldTypeIS2_EEvRKNS_12HeaderRecordERKNS_5RangeERKN7openpal6RSliceERNS_12IAPDUHandlerEEUlRSD_jE_E5CountEv, .-_ZNK8opendnp318BufferedCollectionINS_7IndexedINS_8IINValueEEEZNS_11RangeParser23InvokeRangeBitfieldTypeIS2_EEvRKNS_12HeaderRecordERKNS_5RangeERKN7openpal6RSliceERNS_12IAPDUHandlerEEUlRSD_jE_E5CountEv
	.section	.text._ZNK8opendnp318BufferedCollectionINS_7IndexedINS_15TimeAndIntervalEEEZNS_11RangeParser13InvokeRangeOfINS_11Group50Var4EEEvRKNS_12HeaderRecordERKNS_5RangeERKN7openpal6RSliceERNS_12IAPDUHandlerEEUlRSE_jE_E5CountEv,"axG",@progbits,_ZNK8opendnp318BufferedCollectionINS_7IndexedINS_15TimeAndIntervalEEEZNS_11RangeParser13InvokeRangeOfINS_11Group50Var4EEEvRKNS_12HeaderRecordERKNS_5RangeERKN7openpal6RSliceERNS_12IAPDUHandlerEEUlRSE_jE_E5CountEv,comdat
	.align	2
	.p2align 4,,11
	.weak	_ZNK8opendnp318BufferedCollectionINS_7IndexedINS_15TimeAndIntervalEEEZNS_11RangeParser13InvokeRangeOfINS_11Group50Var4EEEvRKNS_12HeaderRecordERKNS_5RangeERKN7openpal6RSliceERNS_12IAPDUHandlerEEUlRSE_jE_E5CountEv
	.type	_ZNK8opendnp318BufferedCollectionINS_7IndexedINS_15TimeAndIntervalEEEZNS_11RangeParser13InvokeRangeOfINS_11Group50Var4EEEvRKNS_12HeaderRecordERKNS_5RangeERKN7openpal6RSliceERNS_12IAPDUHandlerEEUlRSE_jE_E5CountEv, %function
_ZNK8opendnp318BufferedCollectionINS_7IndexedINS_15TimeAndIntervalEEEZNS_11RangeParser13InvokeRangeOfINS_11Group50Var4EEEvRKNS_12HeaderRecordERKNS_5RangeERKN7openpal6RSliceERNS_12IAPDUHandlerEEUlRSE_jE_E5CountEv:
.LFB3614:
	.cfi_startproc
	ldr	x0, [x0, 24]
	ret
	.cfi_endproc
.LFE3614:
	.size	_ZNK8opendnp318BufferedCollectionINS_7IndexedINS_15TimeAndIntervalEEEZNS_11RangeParser13InvokeRangeOfINS_11Group50Var4EEEvRKNS_12HeaderRecordERKNS_5RangeERKN7openpal6RSliceERNS_12IAPDUHandlerEEUlRSE_jE_E5CountEv, .-_ZNK8opendnp318BufferedCollectionINS_7IndexedINS_15TimeAndIntervalEEEZNS_11RangeParser13InvokeRangeOfINS_11Group50Var4EEEvRKNS_12HeaderRecordERKNS_5RangeERKN7openpal6RSliceERNS_12IAPDUHandlerEEUlRSE_jE_E5CountEv
	.section	.text._ZNK8opendnp318BufferedCollectionINS_7IndexedINS_18AnalogOutputStatusEEEZNS_11RangeParser13InvokeRangeOfINS_11Group40Var4EEEvRKNS_12HeaderRecordERKNS_5RangeERKN7openpal6RSliceERNS_12IAPDUHandlerEEUlRSE_jE_E5CountEv,"axG",@progbits,_ZNK8opendnp318BufferedCollectionINS_7IndexedINS_18AnalogOutputStatusEEEZNS_11RangeParser13InvokeRangeOfINS_11Group40Var4EEEvRKNS_12HeaderRecordERKNS_5RangeERKN7openpal6RSliceERNS_12IAPDUHandlerEEUlRSE_jE_E5CountEv,comdat
	.align	2
	.p2align 4,,11
	.weak	_ZNK8opendnp318BufferedCollectionINS_7IndexedINS_18AnalogOutputStatusEEEZNS_11RangeParser13InvokeRangeOfINS_11Group40Var4EEEvRKNS_12HeaderRecordERKNS_5RangeERKN7openpal6RSliceERNS_12IAPDUHandlerEEUlRSE_jE_E5CountEv
	.type	_ZNK8opendnp318BufferedCollectionINS_7IndexedINS_18AnalogOutputStatusEEEZNS_11RangeParser13InvokeRangeOfINS_11Group40Var4EEEvRKNS_12HeaderRecordERKNS_5RangeERKN7openpal6RSliceERNS_12IAPDUHandlerEEUlRSE_jE_E5CountEv, %function
_ZNK8opendnp318BufferedCollectionINS_7IndexedINS_18AnalogOutputStatusEEEZNS_11RangeParser13InvokeRangeOfINS_11Group40Var4EEEvRKNS_12HeaderRecordERKNS_5RangeERKN7openpal6RSliceERNS_12IAPDUHandlerEEUlRSE_jE_E5CountEv:
.LFB3616:
	.cfi_startproc
	ldr	x0, [x0, 24]
	ret
	.cfi_endproc
.LFE3616:
	.size	_ZNK8opendnp318BufferedCollectionINS_7IndexedINS_18AnalogOutputStatusEEEZNS_11RangeParser13InvokeRangeOfINS_11Group40Var4EEEvRKNS_12HeaderRecordERKNS_5RangeERKN7openpal6RSliceERNS_12IAPDUHandlerEEUlRSE_jE_E5CountEv, .-_ZNK8opendnp318BufferedCollectionINS_7IndexedINS_18AnalogOutputStatusEEEZNS_11RangeParser13InvokeRangeOfINS_11Group40Var4EEEvRKNS_12HeaderRecordERKNS_5RangeERKN7openpal6RSliceERNS_12IAPDUHandlerEEUlRSE_jE_E5CountEv
	.section	.text._ZNK8opendnp318BufferedCollectionINS_7IndexedINS_18AnalogOutputStatusEEEZNS_11RangeParser13InvokeRangeOfINS_11Group40Var3EEEvRKNS_12HeaderRecordERKNS_5RangeERKN7openpal6RSliceERNS_12IAPDUHandlerEEUlRSE_jE_E5CountEv,"axG",@progbits,_ZNK8opendnp318BufferedCollectionINS_7IndexedINS_18AnalogOutputStatusEEEZNS_11RangeParser13InvokeRangeOfINS_11Group40Var3EEEvRKNS_12HeaderRecordERKNS_5RangeERKN7openpal6RSliceERNS_12IAPDUHandlerEEUlRSE_jE_E5CountEv,comdat
	.align	2
	.p2align 4,,11
	.weak	_ZNK8opendnp318BufferedCollectionINS_7IndexedINS_18AnalogOutputStatusEEEZNS_11RangeParser13InvokeRangeOfINS_11Group40Var3EEEvRKNS_12HeaderRecordERKNS_5RangeERKN7openpal6RSliceERNS_12IAPDUHandlerEEUlRSE_jE_E5CountEv
	.type	_ZNK8opendnp318BufferedCollectionINS_7IndexedINS_18AnalogOutputStatusEEEZNS_11RangeParser13InvokeRangeOfINS_11Group40Var3EEEvRKNS_12HeaderRecordERKNS_5RangeERKN7openpal6RSliceERNS_12IAPDUHandlerEEUlRSE_jE_E5CountEv, %function
_ZNK8opendnp318BufferedCollectionINS_7IndexedINS_18AnalogOutputStatusEEEZNS_11RangeParser13InvokeRangeOfINS_11Group40Var3EEEvRKNS_12HeaderRecordERKNS_5RangeERKN7openpal6RSliceERNS_12IAPDUHandlerEEUlRSE_jE_E5CountEv:
.LFB3618:
	.cfi_startproc
	ldr	x0, [x0, 24]
	ret
	.cfi_endproc
.LFE3618:
	.size	_ZNK8opendnp318BufferedCollectionINS_7IndexedINS_18AnalogOutputStatusEEEZNS_11RangeParser13InvokeRangeOfINS_11Group40Var3EEEvRKNS_12HeaderRecordERKNS_5RangeERKN7openpal6RSliceERNS_12IAPDUHandlerEEUlRSE_jE_E5CountEv, .-_ZNK8opendnp318BufferedCollectionINS_7IndexedINS_18AnalogOutputStatusEEEZNS_11RangeParser13InvokeRangeOfINS_11Group40Var3EEEvRKNS_12HeaderRecordERKNS_5RangeERKN7openpal6RSliceERNS_12IAPDUHandlerEEUlRSE_jE_E5CountEv
	.section	.text._ZNK8opendnp318BufferedCollectionINS_7IndexedINS_18AnalogOutputStatusEEEZNS_11RangeParser13InvokeRangeOfINS_11Group40Var2EEEvRKNS_12HeaderRecordERKNS_5RangeERKN7openpal6RSliceERNS_12IAPDUHandlerEEUlRSE_jE_E5CountEv,"axG",@progbits,_ZNK8opendnp318BufferedCollectionINS_7IndexedINS_18AnalogOutputStatusEEEZNS_11RangeParser13InvokeRangeOfINS_11Group40Var2EEEvRKNS_12HeaderRecordERKNS_5RangeERKN7openpal6RSliceERNS_12IAPDUHandlerEEUlRSE_jE_E5CountEv,comdat
	.align	2
	.p2align 4,,11
	.weak	_ZNK8opendnp318BufferedCollectionINS_7IndexedINS_18AnalogOutputStatusEEEZNS_11RangeParser13InvokeRangeOfINS_11Group40Var2EEEvRKNS_12HeaderRecordERKNS_5RangeERKN7openpal6RSliceERNS_12IAPDUHandlerEEUlRSE_jE_E5CountEv
	.type	_ZNK8opendnp318BufferedCollectionINS_7IndexedINS_18AnalogOutputStatusEEEZNS_11RangeParser13InvokeRangeOfINS_11Group40Var2EEEvRKNS_12HeaderRecordERKNS_5RangeERKN7openpal6RSliceERNS_12IAPDUHandlerEEUlRSE_jE_E5CountEv, %function
_ZNK8opendnp318BufferedCollectionINS_7IndexedINS_18AnalogOutputStatusEEEZNS_11RangeParser13InvokeRangeOfINS_11Group40Var2EEEvRKNS_12HeaderRecordERKNS_5RangeERKN7openpal6RSliceERNS_12IAPDUHandlerEEUlRSE_jE_E5CountEv:
.LFB3620:
	.cfi_startproc
	ldr	x0, [x0, 24]
	ret
	.cfi_endproc
.LFE3620:
	.size	_ZNK8opendnp318BufferedCollectionINS_7IndexedINS_18AnalogOutputStatusEEEZNS_11RangeParser13InvokeRangeOfINS_11Group40Var2EEEvRKNS_12HeaderRecordERKNS_5RangeERKN7openpal6RSliceERNS_12IAPDUHandlerEEUlRSE_jE_E5CountEv, .-_ZNK8opendnp318BufferedCollectionINS_7IndexedINS_18AnalogOutputStatusEEEZNS_11RangeParser13InvokeRangeOfINS_11Group40Var2EEEvRKNS_12HeaderRecordERKNS_5RangeERKN7openpal6RSliceERNS_12IAPDUHandlerEEUlRSE_jE_E5CountEv
	.section	.text._ZNK8opendnp318BufferedCollectionINS_7IndexedINS_18AnalogOutputStatusEEEZNS_11RangeParser13InvokeRangeOfINS_11Group40Var1EEEvRKNS_12HeaderRecordERKNS_5RangeERKN7openpal6RSliceERNS_12IAPDUHandlerEEUlRSE_jE_E5CountEv,"axG",@progbits,_ZNK8opendnp318BufferedCollectionINS_7IndexedINS_18AnalogOutputStatusEEEZNS_11RangeParser13InvokeRangeOfINS_11Group40Var1EEEvRKNS_12HeaderRecordERKNS_5RangeERKN7openpal6RSliceERNS_12IAPDUHandlerEEUlRSE_jE_E5CountEv,comdat
	.align	2
	.p2align 4,,11
	.weak	_ZNK8opendnp318BufferedCollectionINS_7IndexedINS_18AnalogOutputStatusEEEZNS_11RangeParser13InvokeRangeOfINS_11Group40Var1EEEvRKNS_12HeaderRecordERKNS_5RangeERKN7openpal6RSliceERNS_12IAPDUHandlerEEUlRSE_jE_E5CountEv
	.type	_ZNK8opendnp318BufferedCollectionINS_7IndexedINS_18AnalogOutputStatusEEEZNS_11RangeParser13InvokeRangeOfINS_11Group40Var1EEEvRKNS_12HeaderRecordERKNS_5RangeERKN7openpal6RSliceERNS_12IAPDUHandlerEEUlRSE_jE_E5CountEv, %function
_ZNK8opendnp318BufferedCollectionINS_7IndexedINS_18AnalogOutputStatusEEEZNS_11RangeParser13InvokeRangeOfINS_11Group40Var1EEEvRKNS_12HeaderRecordERKNS_5RangeERKN7openpal6RSliceERNS_12IAPDUHandlerEEUlRSE_jE_E5CountEv:
.LFB3622:
	.cfi_startproc
	ldr	x0, [x0, 24]
	ret
	.cfi_endproc
.LFE3622:
	.size	_ZNK8opendnp318BufferedCollectionINS_7IndexedINS_18AnalogOutputStatusEEEZNS_11RangeParser13InvokeRangeOfINS_11Group40Var1EEEvRKNS_12HeaderRecordERKNS_5RangeERKN7openpal6RSliceERNS_12IAPDUHandlerEEUlRSE_jE_E5CountEv, .-_ZNK8opendnp318BufferedCollectionINS_7IndexedINS_18AnalogOutputStatusEEEZNS_11RangeParser13InvokeRangeOfINS_11Group40Var1EEEvRKNS_12HeaderRecordERKNS_5RangeERKN7openpal6RSliceERNS_12IAPDUHandlerEEUlRSE_jE_E5CountEv
	.section	.text._ZNK8opendnp318BufferedCollectionINS_7IndexedINS_6AnalogEEEZNS_11RangeParser13InvokeRangeOfINS_11Group30Var6EEEvRKNS_12HeaderRecordERKNS_5RangeERKN7openpal6RSliceERNS_12IAPDUHandlerEEUlRSE_jE_E5CountEv,"axG",@progbits,_ZNK8opendnp318BufferedCollectionINS_7IndexedINS_6AnalogEEEZNS_11RangeParser13InvokeRangeOfINS_11Group30Var6EEEvRKNS_12HeaderRecordERKNS_5RangeERKN7openpal6RSliceERNS_12IAPDUHandlerEEUlRSE_jE_E5CountEv,comdat
	.align	2
	.p2align 4,,11
	.weak	_ZNK8opendnp318BufferedCollectionINS_7IndexedINS_6AnalogEEEZNS_11RangeParser13InvokeRangeOfINS_11Group30Var6EEEvRKNS_12HeaderRecordERKNS_5RangeERKN7openpal6RSliceERNS_12IAPDUHandlerEEUlRSE_jE_E5CountEv
	.type	_ZNK8opendnp318BufferedCollectionINS_7IndexedINS_6AnalogEEEZNS_11RangeParser13InvokeRangeOfINS_11Group30Var6EEEvRKNS_12HeaderRecordERKNS_5RangeERKN7openpal6RSliceERNS_12IAPDUHandlerEEUlRSE_jE_E5CountEv, %function
_ZNK8opendnp318BufferedCollectionINS_7IndexedINS_6AnalogEEEZNS_11RangeParser13InvokeRangeOfINS_11Group30Var6EEEvRKNS_12HeaderRecordERKNS_5RangeERKN7openpal6RSliceERNS_12IAPDUHandlerEEUlRSE_jE_E5CountEv:
.LFB3624:
	.cfi_startproc
	ldr	x0, [x0, 24]
	ret
	.cfi_endproc
.LFE3624:
	.size	_ZNK8opendnp318BufferedCollectionINS_7IndexedINS_6AnalogEEEZNS_11RangeParser13InvokeRangeOfINS_11Group30Var6EEEvRKNS_12HeaderRecordERKNS_5RangeERKN7openpal6RSliceERNS_12IAPDUHandlerEEUlRSE_jE_E5CountEv, .-_ZNK8opendnp318BufferedCollectionINS_7IndexedINS_6AnalogEEEZNS_11RangeParser13InvokeRangeOfINS_11Group30Var6EEEvRKNS_12HeaderRecordERKNS_5RangeERKN7openpal6RSliceERNS_12IAPDUHandlerEEUlRSE_jE_E5CountEv
	.section	.text._ZNK8opendnp318BufferedCollectionINS_7IndexedINS_6AnalogEEEZNS_11RangeParser13InvokeRangeOfINS_11Group30Var5EEEvRKNS_12HeaderRecordERKNS_5RangeERKN7openpal6RSliceERNS_12IAPDUHandlerEEUlRSE_jE_E5CountEv,"axG",@progbits,_ZNK8opendnp318BufferedCollectionINS_7IndexedINS_6AnalogEEEZNS_11RangeParser13InvokeRangeOfINS_11Group30Var5EEEvRKNS_12HeaderRecordERKNS_5RangeERKN7openpal6RSliceERNS_12IAPDUHandlerEEUlRSE_jE_E5CountEv,comdat
	.align	2
	.p2align 4,,11
	.weak	_ZNK8opendnp318BufferedCollectionINS_7IndexedINS_6AnalogEEEZNS_11RangeParser13InvokeRangeOfINS_11Group30Var5EEEvRKNS_12HeaderRecordERKNS_5RangeERKN7openpal6RSliceERNS_12IAPDUHandlerEEUlRSE_jE_E5CountEv
	.type	_ZNK8opendnp318BufferedCollectionINS_7IndexedINS_6AnalogEEEZNS_11RangeParser13InvokeRangeOfINS_11Group30Var5EEEvRKNS_12HeaderRecordERKNS_5RangeERKN7openpal6RSliceERNS_12IAPDUHandlerEEUlRSE_jE_E5CountEv, %function
_ZNK8opendnp318BufferedCollectionINS_7IndexedINS_6AnalogEEEZNS_11RangeParser13InvokeRangeOfINS_11Group30Var5EEEvRKNS_12HeaderRecordERKNS_5RangeERKN7openpal6RSliceERNS_12IAPDUHandlerEEUlRSE_jE_E5CountEv:
.LFB3626:
	.cfi_startproc
	ldr	x0, [x0, 24]
	ret
	.cfi_endproc
.LFE3626:
	.size	_ZNK8opendnp318BufferedCollectionINS_7IndexedINS_6AnalogEEEZNS_11RangeParser13InvokeRangeOfINS_11Group30Var5EEEvRKNS_12HeaderRecordERKNS_5RangeERKN7openpal6RSliceERNS_12IAPDUHandlerEEUlRSE_jE_E5CountEv, .-_ZNK8opendnp318BufferedCollectionINS_7IndexedINS_6AnalogEEEZNS_11RangeParser13InvokeRangeOfINS_11Group30Var5EEEvRKNS_12HeaderRecordERKNS_5RangeERKN7openpal6RSliceERNS_12IAPDUHandlerEEUlRSE_jE_E5CountEv
	.section	.text._ZNK8opendnp318BufferedCollectionINS_7IndexedINS_6AnalogEEEZNS_11RangeParser13InvokeRangeOfINS_11Group30Var4EEEvRKNS_12HeaderRecordERKNS_5RangeERKN7openpal6RSliceERNS_12IAPDUHandlerEEUlRSE_jE_E5CountEv,"axG",@progbits,_ZNK8opendnp318BufferedCollectionINS_7IndexedINS_6AnalogEEEZNS_11RangeParser13InvokeRangeOfINS_11Group30Var4EEEvRKNS_12HeaderRecordERKNS_5RangeERKN7openpal6RSliceERNS_12IAPDUHandlerEEUlRSE_jE_E5CountEv,comdat
	.align	2
	.p2align 4,,11
	.weak	_ZNK8opendnp318BufferedCollectionINS_7IndexedINS_6AnalogEEEZNS_11RangeParser13InvokeRangeOfINS_11Group30Var4EEEvRKNS_12HeaderRecordERKNS_5RangeERKN7openpal6RSliceERNS_12IAPDUHandlerEEUlRSE_jE_E5CountEv
	.type	_ZNK8opendnp318BufferedCollectionINS_7IndexedINS_6AnalogEEEZNS_11RangeParser13InvokeRangeOfINS_11Group30Var4EEEvRKNS_12HeaderRecordERKNS_5RangeERKN7openpal6RSliceERNS_12IAPDUHandlerEEUlRSE_jE_E5CountEv, %function
_ZNK8opendnp318BufferedCollectionINS_7IndexedINS_6AnalogEEEZNS_11RangeParser13InvokeRangeOfINS_11Group30Var4EEEvRKNS_12HeaderRecordERKNS_5RangeERKN7openpal6RSliceERNS_12IAPDUHandlerEEUlRSE_jE_E5CountEv:
.LFB3628:
	.cfi_startproc
	ldr	x0, [x0, 24]
	ret
	.cfi_endproc
.LFE3628:
	.size	_ZNK8opendnp318BufferedCollectionINS_7IndexedINS_6AnalogEEEZNS_11RangeParser13InvokeRangeOfINS_11Group30Var4EEEvRKNS_12HeaderRecordERKNS_5RangeERKN7openpal6RSliceERNS_12IAPDUHandlerEEUlRSE_jE_E5CountEv, .-_ZNK8opendnp318BufferedCollectionINS_7IndexedINS_6AnalogEEEZNS_11RangeParser13InvokeRangeOfINS_11Group30Var4EEEvRKNS_12HeaderRecordERKNS_5RangeERKN7openpal6RSliceERNS_12IAPDUHandlerEEUlRSE_jE_E5CountEv
	.section	.text._ZNK8opendnp318BufferedCollectionINS_7IndexedINS_6AnalogEEEZNS_11RangeParser13InvokeRangeOfINS_11Group30Var3EEEvRKNS_12HeaderRecordERKNS_5RangeERKN7openpal6RSliceERNS_12IAPDUHandlerEEUlRSE_jE_E5CountEv,"axG",@progbits,_ZNK8opendnp318BufferedCollectionINS_7IndexedINS_6AnalogEEEZNS_11RangeParser13InvokeRangeOfINS_11Group30Var3EEEvRKNS_12HeaderRecordERKNS_5RangeERKN7openpal6RSliceERNS_12IAPDUHandlerEEUlRSE_jE_E5CountEv,comdat
	.align	2
	.p2align 4,,11
	.weak	_ZNK8opendnp318BufferedCollectionINS_7IndexedINS_6AnalogEEEZNS_11RangeParser13InvokeRangeOfINS_11Group30Var3EEEvRKNS_12HeaderRecordERKNS_5RangeERKN7openpal6RSliceERNS_12IAPDUHandlerEEUlRSE_jE_E5CountEv
	.type	_ZNK8opendnp318BufferedCollectionINS_7IndexedINS_6AnalogEEEZNS_11RangeParser13InvokeRangeOfINS_11Group30Var3EEEvRKNS_12HeaderRecordERKNS_5RangeERKN7openpal6RSliceERNS_12IAPDUHandlerEEUlRSE_jE_E5CountEv, %function
_ZNK8opendnp318BufferedCollectionINS_7IndexedINS_6AnalogEEEZNS_11RangeParser13InvokeRangeOfINS_11Group30Var3EEEvRKNS_12HeaderRecordERKNS_5RangeERKN7openpal6RSliceERNS_12IAPDUHandlerEEUlRSE_jE_E5CountEv:
.LFB3630:
	.cfi_startproc
	ldr	x0, [x0, 24]
	ret
	.cfi_endproc
.LFE3630:
	.size	_ZNK8opendnp318BufferedCollectionINS_7IndexedINS_6AnalogEEEZNS_11RangeParser13InvokeRangeOfINS_11Group30Var3EEEvRKNS_12HeaderRecordERKNS_5RangeERKN7openpal6RSliceERNS_12IAPDUHandlerEEUlRSE_jE_E5CountEv, .-_ZNK8opendnp318BufferedCollectionINS_7IndexedINS_6AnalogEEEZNS_11RangeParser13InvokeRangeOfINS_11Group30Var3EEEvRKNS_12HeaderRecordERKNS_5RangeERKN7openpal6RSliceERNS_12IAPDUHandlerEEUlRSE_jE_E5CountEv
	.section	.text._ZNK8opendnp318BufferedCollectionINS_7IndexedINS_6AnalogEEEZNS_11RangeParser13InvokeRangeOfINS_11Group30Var2EEEvRKNS_12HeaderRecordERKNS_5RangeERKN7openpal6RSliceERNS_12IAPDUHandlerEEUlRSE_jE_E5CountEv,"axG",@progbits,_ZNK8opendnp318BufferedCollectionINS_7IndexedINS_6AnalogEEEZNS_11RangeParser13InvokeRangeOfINS_11Group30Var2EEEvRKNS_12HeaderRecordERKNS_5RangeERKN7openpal6RSliceERNS_12IAPDUHandlerEEUlRSE_jE_E5CountEv,comdat
	.align	2
	.p2align 4,,11
	.weak	_ZNK8opendnp318BufferedCollectionINS_7IndexedINS_6AnalogEEEZNS_11RangeParser13InvokeRangeOfINS_11Group30Var2EEEvRKNS_12HeaderRecordERKNS_5RangeERKN7openpal6RSliceERNS_12IAPDUHandlerEEUlRSE_jE_E5CountEv
	.type	_ZNK8opendnp318BufferedCollectionINS_7IndexedINS_6AnalogEEEZNS_11RangeParser13InvokeRangeOfINS_11Group30Var2EEEvRKNS_12HeaderRecordERKNS_5RangeERKN7openpal6RSliceERNS_12IAPDUHandlerEEUlRSE_jE_E5CountEv, %function
_ZNK8opendnp318BufferedCollectionINS_7IndexedINS_6AnalogEEEZNS_11RangeParser13InvokeRangeOfINS_11Group30Var2EEEvRKNS_12HeaderRecordERKNS_5RangeERKN7openpal6RSliceERNS_12IAPDUHandlerEEUlRSE_jE_E5CountEv:
.LFB3632:
	.cfi_startproc
	ldr	x0, [x0, 24]
	ret
	.cfi_endproc
.LFE3632:
	.size	_ZNK8opendnp318BufferedCollectionINS_7IndexedINS_6AnalogEEEZNS_11RangeParser13InvokeRangeOfINS_11Group30Var2EEEvRKNS_12HeaderRecordERKNS_5RangeERKN7openpal6RSliceERNS_12IAPDUHandlerEEUlRSE_jE_E5CountEv, .-_ZNK8opendnp318BufferedCollectionINS_7IndexedINS_6AnalogEEEZNS_11RangeParser13InvokeRangeOfINS_11Group30Var2EEEvRKNS_12HeaderRecordERKNS_5RangeERKN7openpal6RSliceERNS_12IAPDUHandlerEEUlRSE_jE_E5CountEv
	.section	.text._ZNK8opendnp318BufferedCollectionINS_7IndexedINS_6AnalogEEEZNS_11RangeParser13InvokeRangeOfINS_11Group30Var1EEEvRKNS_12HeaderRecordERKNS_5RangeERKN7openpal6RSliceERNS_12IAPDUHandlerEEUlRSE_jE_E5CountEv,"axG",@progbits,_ZNK8opendnp318BufferedCollectionINS_7IndexedINS_6AnalogEEEZNS_11RangeParser13InvokeRangeOfINS_11Group30Var1EEEvRKNS_12HeaderRecordERKNS_5RangeERKN7openpal6RSliceERNS_12IAPDUHandlerEEUlRSE_jE_E5CountEv,comdat
	.align	2
	.p2align 4,,11
	.weak	_ZNK8opendnp318BufferedCollectionINS_7IndexedINS_6AnalogEEEZNS_11RangeParser13InvokeRangeOfINS_11Group30Var1EEEvRKNS_12HeaderRecordERKNS_5RangeERKN7openpal6RSliceERNS_12IAPDUHandlerEEUlRSE_jE_E5CountEv
	.type	_ZNK8opendnp318BufferedCollectionINS_7IndexedINS_6AnalogEEEZNS_11RangeParser13InvokeRangeOfINS_11Group30Var1EEEvRKNS_12HeaderRecordERKNS_5RangeERKN7openpal6RSliceERNS_12IAPDUHandlerEEUlRSE_jE_E5CountEv, %function
_ZNK8opendnp318BufferedCollectionINS_7IndexedINS_6AnalogEEEZNS_11RangeParser13InvokeRangeOfINS_11Group30Var1EEEvRKNS_12HeaderRecordERKNS_5RangeERKN7openpal6RSliceERNS_12IAPDUHandlerEEUlRSE_jE_E5CountEv:
.LFB3634:
	.cfi_startproc
	ldr	x0, [x0, 24]
	ret
	.cfi_endproc
.LFE3634:
	.size	_ZNK8opendnp318BufferedCollectionINS_7IndexedINS_6AnalogEEEZNS_11RangeParser13InvokeRangeOfINS_11Group30Var1EEEvRKNS_12HeaderRecordERKNS_5RangeERKN7openpal6RSliceERNS_12IAPDUHandlerEEUlRSE_jE_E5CountEv, .-_ZNK8opendnp318BufferedCollectionINS_7IndexedINS_6AnalogEEEZNS_11RangeParser13InvokeRangeOfINS_11Group30Var1EEEvRKNS_12HeaderRecordERKNS_5RangeERKN7openpal6RSliceERNS_12IAPDUHandlerEEUlRSE_jE_E5CountEv
	.section	.text._ZNK8opendnp318BufferedCollectionINS_7IndexedINS_13FrozenCounterEEEZNS_11RangeParser13InvokeRangeOfINS_12Group21Var10EEEvRKNS_12HeaderRecordERKNS_5RangeERKN7openpal6RSliceERNS_12IAPDUHandlerEEUlRSE_jE_E5CountEv,"axG",@progbits,_ZNK8opendnp318BufferedCollectionINS_7IndexedINS_13FrozenCounterEEEZNS_11RangeParser13InvokeRangeOfINS_12Group21Var10EEEvRKNS_12HeaderRecordERKNS_5RangeERKN7openpal6RSliceERNS_12IAPDUHandlerEEUlRSE_jE_E5CountEv,comdat
	.align	2
	.p2align 4,,11
	.weak	_ZNK8opendnp318BufferedCollectionINS_7IndexedINS_13FrozenCounterEEEZNS_11RangeParser13InvokeRangeOfINS_12Group21Var10EEEvRKNS_12HeaderRecordERKNS_5RangeERKN7openpal6RSliceERNS_12IAPDUHandlerEEUlRSE_jE_E5CountEv
	.type	_ZNK8opendnp318BufferedCollectionINS_7IndexedINS_13FrozenCounterEEEZNS_11RangeParser13InvokeRangeOfINS_12Group21Var10EEEvRKNS_12HeaderRecordERKNS_5RangeERKN7openpal6RSliceERNS_12IAPDUHandlerEEUlRSE_jE_E5CountEv, %function
_ZNK8opendnp318BufferedCollectionINS_7IndexedINS_13FrozenCounterEEEZNS_11RangeParser13InvokeRangeOfINS_12Group21Var10EEEvRKNS_12HeaderRecordERKNS_5RangeERKN7openpal6RSliceERNS_12IAPDUHandlerEEUlRSE_jE_E5CountEv:
.LFB3636:
	.cfi_startproc
	ldr	x0, [x0, 24]
	ret
	.cfi_endproc
.LFE3636:
	.size	_ZNK8opendnp318BufferedCollectionINS_7IndexedINS_13FrozenCounterEEEZNS_11RangeParser13InvokeRangeOfINS_12Group21Var10EEEvRKNS_12HeaderRecordERKNS_5RangeERKN7openpal6RSliceERNS_12IAPDUHandlerEEUlRSE_jE_E5CountEv, .-_ZNK8opendnp318BufferedCollectionINS_7IndexedINS_13FrozenCounterEEEZNS_11RangeParser13InvokeRangeOfINS_12Group21Var10EEEvRKNS_12HeaderRecordERKNS_5RangeERKN7openpal6RSliceERNS_12IAPDUHandlerEEUlRSE_jE_E5CountEv
	.section	.text._ZNK8opendnp318BufferedCollectionINS_7IndexedINS_13FrozenCounterEEEZNS_11RangeParser13InvokeRangeOfINS_11Group21Var9EEEvRKNS_12HeaderRecordERKNS_5RangeERKN7openpal6RSliceERNS_12IAPDUHandlerEEUlRSE_jE_E5CountEv,"axG",@progbits,_ZNK8opendnp318BufferedCollectionINS_7IndexedINS_13FrozenCounterEEEZNS_11RangeParser13InvokeRangeOfINS_11Group21Var9EEEvRKNS_12HeaderRecordERKNS_5RangeERKN7openpal6RSliceERNS_12IAPDUHandlerEEUlRSE_jE_E5CountEv,comdat
	.align	2
	.p2align 4,,11
	.weak	_ZNK8opendnp318BufferedCollectionINS_7IndexedINS_13FrozenCounterEEEZNS_11RangeParser13InvokeRangeOfINS_11Group21Var9EEEvRKNS_12HeaderRecordERKNS_5RangeERKN7openpal6RSliceERNS_12IAPDUHandlerEEUlRSE_jE_E5CountEv
	.type	_ZNK8opendnp318BufferedCollectionINS_7IndexedINS_13FrozenCounterEEEZNS_11RangeParser13InvokeRangeOfINS_11Group21Var9EEEvRKNS_12HeaderRecordERKNS_5RangeERKN7openpal6RSliceERNS_12IAPDUHandlerEEUlRSE_jE_E5CountEv, %function
_ZNK8opendnp318BufferedCollectionINS_7IndexedINS_13FrozenCounterEEEZNS_11RangeParser13InvokeRangeOfINS_11Group21Var9EEEvRKNS_12HeaderRecordERKNS_5RangeERKN7openpal6RSliceERNS_12IAPDUHandlerEEUlRSE_jE_E5CountEv:
.LFB3638:
	.cfi_startproc
	ldr	x0, [x0, 24]
	ret
	.cfi_endproc
.LFE3638:
	.size	_ZNK8opendnp318BufferedCollectionINS_7IndexedINS_13FrozenCounterEEEZNS_11RangeParser13InvokeRangeOfINS_11Group21Var9EEEvRKNS_12HeaderRecordERKNS_5RangeERKN7openpal6RSliceERNS_12IAPDUHandlerEEUlRSE_jE_E5CountEv, .-_ZNK8opendnp318BufferedCollectionINS_7IndexedINS_13FrozenCounterEEEZNS_11RangeParser13InvokeRangeOfINS_11Group21Var9EEEvRKNS_12HeaderRecordERKNS_5RangeERKN7openpal6RSliceERNS_12IAPDUHandlerEEUlRSE_jE_E5CountEv
	.section	.text._ZNK8opendnp318BufferedCollectionINS_7IndexedINS_13FrozenCounterEEEZNS_11RangeParser13InvokeRangeOfINS_11Group21Var6EEEvRKNS_12HeaderRecordERKNS_5RangeERKN7openpal6RSliceERNS_12IAPDUHandlerEEUlRSE_jE_E5CountEv,"axG",@progbits,_ZNK8opendnp318BufferedCollectionINS_7IndexedINS_13FrozenCounterEEEZNS_11RangeParser13InvokeRangeOfINS_11Group21Var6EEEvRKNS_12HeaderRecordERKNS_5RangeERKN7openpal6RSliceERNS_12IAPDUHandlerEEUlRSE_jE_E5CountEv,comdat
	.align	2
	.p2align 4,,11
	.weak	_ZNK8opendnp318BufferedCollectionINS_7IndexedINS_13FrozenCounterEEEZNS_11RangeParser13InvokeRangeOfINS_11Group21Var6EEEvRKNS_12HeaderRecordERKNS_5RangeERKN7openpal6RSliceERNS_12IAPDUHandlerEEUlRSE_jE_E5CountEv
	.type	_ZNK8opendnp318BufferedCollectionINS_7IndexedINS_13FrozenCounterEEEZNS_11RangeParser13InvokeRangeOfINS_11Group21Var6EEEvRKNS_12HeaderRecordERKNS_5RangeERKN7openpal6RSliceERNS_12IAPDUHandlerEEUlRSE_jE_E5CountEv, %function
_ZNK8opendnp318BufferedCollectionINS_7IndexedINS_13FrozenCounterEEEZNS_11RangeParser13InvokeRangeOfINS_11Group21Var6EEEvRKNS_12HeaderRecordERKNS_5RangeERKN7openpal6RSliceERNS_12IAPDUHandlerEEUlRSE_jE_E5CountEv:
.LFB3640:
	.cfi_startproc
	ldr	x0, [x0, 24]
	ret
	.cfi_endproc
.LFE3640:
	.size	_ZNK8opendnp318BufferedCollectionINS_7IndexedINS_13FrozenCounterEEEZNS_11RangeParser13InvokeRangeOfINS_11Group21Var6EEEvRKNS_12HeaderRecordERKNS_5RangeERKN7openpal6RSliceERNS_12IAPDUHandlerEEUlRSE_jE_E5CountEv, .-_ZNK8opendnp318BufferedCollectionINS_7IndexedINS_13FrozenCounterEEEZNS_11RangeParser13InvokeRangeOfINS_11Group21Var6EEEvRKNS_12HeaderRecordERKNS_5RangeERKN7openpal6RSliceERNS_12IAPDUHandlerEEUlRSE_jE_E5CountEv
	.section	.text._ZNK8opendnp318BufferedCollectionINS_7IndexedINS_13FrozenCounterEEEZNS_11RangeParser13InvokeRangeOfINS_11Group21Var5EEEvRKNS_12HeaderRecordERKNS_5RangeERKN7openpal6RSliceERNS_12IAPDUHandlerEEUlRSE_jE_E5CountEv,"axG",@progbits,_ZNK8opendnp318BufferedCollectionINS_7IndexedINS_13FrozenCounterEEEZNS_11RangeParser13InvokeRangeOfINS_11Group21Var5EEEvRKNS_12HeaderRecordERKNS_5RangeERKN7openpal6RSliceERNS_12IAPDUHandlerEEUlRSE_jE_E5CountEv,comdat
	.align	2
	.p2align 4,,11
	.weak	_ZNK8opendnp318BufferedCollectionINS_7IndexedINS_13FrozenCounterEEEZNS_11RangeParser13InvokeRangeOfINS_11Group21Var5EEEvRKNS_12HeaderRecordERKNS_5RangeERKN7openpal6RSliceERNS_12IAPDUHandlerEEUlRSE_jE_E5CountEv
	.type	_ZNK8opendnp318BufferedCollectionINS_7IndexedINS_13FrozenCounterEEEZNS_11RangeParser13InvokeRangeOfINS_11Group21Var5EEEvRKNS_12HeaderRecordERKNS_5RangeERKN7openpal6RSliceERNS_12IAPDUHandlerEEUlRSE_jE_E5CountEv, %function
_ZNK8opendnp318BufferedCollectionINS_7IndexedINS_13FrozenCounterEEEZNS_11RangeParser13InvokeRangeOfINS_11Group21Var5EEEvRKNS_12HeaderRecordERKNS_5RangeERKN7openpal6RSliceERNS_12IAPDUHandlerEEUlRSE_jE_E5CountEv:
.LFB3642:
	.cfi_startproc
	ldr	x0, [x0, 24]
	ret
	.cfi_endproc
.LFE3642:
	.size	_ZNK8opendnp318BufferedCollectionINS_7IndexedINS_13FrozenCounterEEEZNS_11RangeParser13InvokeRangeOfINS_11Group21Var5EEEvRKNS_12HeaderRecordERKNS_5RangeERKN7openpal6RSliceERNS_12IAPDUHandlerEEUlRSE_jE_E5CountEv, .-_ZNK8opendnp318BufferedCollectionINS_7IndexedINS_13FrozenCounterEEEZNS_11RangeParser13InvokeRangeOfINS_11Group21Var5EEEvRKNS_12HeaderRecordERKNS_5RangeERKN7openpal6RSliceERNS_12IAPDUHandlerEEUlRSE_jE_E5CountEv
	.section	.text._ZNK8opendnp318BufferedCollectionINS_7IndexedINS_13FrozenCounterEEEZNS_11RangeParser13InvokeRangeOfINS_11Group21Var2EEEvRKNS_12HeaderRecordERKNS_5RangeERKN7openpal6RSliceERNS_12IAPDUHandlerEEUlRSE_jE_E5CountEv,"axG",@progbits,_ZNK8opendnp318BufferedCollectionINS_7IndexedINS_13FrozenCounterEEEZNS_11RangeParser13InvokeRangeOfINS_11Group21Var2EEEvRKNS_12HeaderRecordERKNS_5RangeERKN7openpal6RSliceERNS_12IAPDUHandlerEEUlRSE_jE_E5CountEv,comdat
	.align	2
	.p2align 4,,11
	.weak	_ZNK8opendnp318BufferedCollectionINS_7IndexedINS_13FrozenCounterEEEZNS_11RangeParser13InvokeRangeOfINS_11Group21Var2EEEvRKNS_12HeaderRecordERKNS_5RangeERKN7openpal6RSliceERNS_12IAPDUHandlerEEUlRSE_jE_E5CountEv
	.type	_ZNK8opendnp318BufferedCollectionINS_7IndexedINS_13FrozenCounterEEEZNS_11RangeParser13InvokeRangeOfINS_11Group21Var2EEEvRKNS_12HeaderRecordERKNS_5RangeERKN7openpal6RSliceERNS_12IAPDUHandlerEEUlRSE_jE_E5CountEv, %function
_ZNK8opendnp318BufferedCollectionINS_7IndexedINS_13FrozenCounterEEEZNS_11RangeParser13InvokeRangeOfINS_11Group21Var2EEEvRKNS_12HeaderRecordERKNS_5RangeERKN7openpal6RSliceERNS_12IAPDUHandlerEEUlRSE_jE_E5CountEv:
.LFB3644:
	.cfi_startproc
	ldr	x0, [x0, 24]
	ret
	.cfi_endproc
.LFE3644:
	.size	_ZNK8opendnp318BufferedCollectionINS_7IndexedINS_13FrozenCounterEEEZNS_11RangeParser13InvokeRangeOfINS_11Group21Var2EEEvRKNS_12HeaderRecordERKNS_5RangeERKN7openpal6RSliceERNS_12IAPDUHandlerEEUlRSE_jE_E5CountEv, .-_ZNK8opendnp318BufferedCollectionINS_7IndexedINS_13FrozenCounterEEEZNS_11RangeParser13InvokeRangeOfINS_11Group21Var2EEEvRKNS_12HeaderRecordERKNS_5RangeERKN7openpal6RSliceERNS_12IAPDUHandlerEEUlRSE_jE_E5CountEv
	.section	.text._ZNK8opendnp318BufferedCollectionINS_7IndexedINS_13FrozenCounterEEEZNS_11RangeParser13InvokeRangeOfINS_11Group21Var1EEEvRKNS_12HeaderRecordERKNS_5RangeERKN7openpal6RSliceERNS_12IAPDUHandlerEEUlRSE_jE_E5CountEv,"axG",@progbits,_ZNK8opendnp318BufferedCollectionINS_7IndexedINS_13FrozenCounterEEEZNS_11RangeParser13InvokeRangeOfINS_11Group21Var1EEEvRKNS_12HeaderRecordERKNS_5RangeERKN7openpal6RSliceERNS_12IAPDUHandlerEEUlRSE_jE_E5CountEv,comdat
	.align	2
	.p2align 4,,11
	.weak	_ZNK8opendnp318BufferedCollectionINS_7IndexedINS_13FrozenCounterEEEZNS_11RangeParser13InvokeRangeOfINS_11Group21Var1EEEvRKNS_12HeaderRecordERKNS_5RangeERKN7openpal6RSliceERNS_12IAPDUHandlerEEUlRSE_jE_E5CountEv
	.type	_ZNK8opendnp318BufferedCollectionINS_7IndexedINS_13FrozenCounterEEEZNS_11RangeParser13InvokeRangeOfINS_11Group21Var1EEEvRKNS_12HeaderRecordERKNS_5RangeERKN7openpal6RSliceERNS_12IAPDUHandlerEEUlRSE_jE_E5CountEv, %function
_ZNK8opendnp318BufferedCollectionINS_7IndexedINS_13FrozenCounterEEEZNS_11RangeParser13InvokeRangeOfINS_11Group21Var1EEEvRKNS_12HeaderRecordERKNS_5RangeERKN7openpal6RSliceERNS_12IAPDUHandlerEEUlRSE_jE_E5CountEv:
.LFB3646:
	.cfi_startproc
	ldr	x0, [x0, 24]
	ret
	.cfi_endproc
.LFE3646:
	.size	_ZNK8opendnp318BufferedCollectionINS_7IndexedINS_13FrozenCounterEEEZNS_11RangeParser13InvokeRangeOfINS_11Group21Var1EEEvRKNS_12HeaderRecordERKNS_5RangeERKN7openpal6RSliceERNS_12IAPDUHandlerEEUlRSE_jE_E5CountEv, .-_ZNK8opendnp318BufferedCollectionINS_7IndexedINS_13FrozenCounterEEEZNS_11RangeParser13InvokeRangeOfINS_11Group21Var1EEEvRKNS_12HeaderRecordERKNS_5RangeERKN7openpal6RSliceERNS_12IAPDUHandlerEEUlRSE_jE_E5CountEv
	.section	.text._ZNK8opendnp318BufferedCollectionINS_7IndexedINS_7CounterEEEZNS_11RangeParser13InvokeRangeOfINS_11Group20Var6EEEvRKNS_12HeaderRecordERKNS_5RangeERKN7openpal6RSliceERNS_12IAPDUHandlerEEUlRSE_jE_E5CountEv,"axG",@progbits,_ZNK8opendnp318BufferedCollectionINS_7IndexedINS_7CounterEEEZNS_11RangeParser13InvokeRangeOfINS_11Group20Var6EEEvRKNS_12HeaderRecordERKNS_5RangeERKN7openpal6RSliceERNS_12IAPDUHandlerEEUlRSE_jE_E5CountEv,comdat
	.align	2
	.p2align 4,,11
	.weak	_ZNK8opendnp318BufferedCollectionINS_7IndexedINS_7CounterEEEZNS_11RangeParser13InvokeRangeOfINS_11Group20Var6EEEvRKNS_12HeaderRecordERKNS_5RangeERKN7openpal6RSliceERNS_12IAPDUHandlerEEUlRSE_jE_E5CountEv
	.type	_ZNK8opendnp318BufferedCollectionINS_7IndexedINS_7CounterEEEZNS_11RangeParser13InvokeRangeOfINS_11Group20Var6EEEvRKNS_12HeaderRecordERKNS_5RangeERKN7openpal6RSliceERNS_12IAPDUHandlerEEUlRSE_jE_E5CountEv, %function
_ZNK8opendnp318BufferedCollectionINS_7IndexedINS_7CounterEEEZNS_11RangeParser13InvokeRangeOfINS_11Group20Var6EEEvRKNS_12HeaderRecordERKNS_5RangeERKN7openpal6RSliceERNS_12IAPDUHandlerEEUlRSE_jE_E5CountEv:
.LFB3648:
	.cfi_startproc
	ldr	x0, [x0, 24]
	ret
	.cfi_endproc
.LFE3648:
	.size	_ZNK8opendnp318BufferedCollectionINS_7IndexedINS_7CounterEEEZNS_11RangeParser13InvokeRangeOfINS_11Group20Var6EEEvRKNS_12HeaderRecordERKNS_5RangeERKN7openpal6RSliceERNS_12IAPDUHandlerEEUlRSE_jE_E5CountEv, .-_ZNK8opendnp318BufferedCollectionINS_7IndexedINS_7CounterEEEZNS_11RangeParser13InvokeRangeOfINS_11Group20Var6EEEvRKNS_12HeaderRecordERKNS_5RangeERKN7openpal6RSliceERNS_12IAPDUHandlerEEUlRSE_jE_E5CountEv
	.section	.text._ZNK8opendnp318BufferedCollectionINS_7IndexedINS_7CounterEEEZNS_11RangeParser13InvokeRangeOfINS_11Group20Var5EEEvRKNS_12HeaderRecordERKNS_5RangeERKN7openpal6RSliceERNS_12IAPDUHandlerEEUlRSE_jE_E5CountEv,"axG",@progbits,_ZNK8opendnp318BufferedCollectionINS_7IndexedINS_7CounterEEEZNS_11RangeParser13InvokeRangeOfINS_11Group20Var5EEEvRKNS_12HeaderRecordERKNS_5RangeERKN7openpal6RSliceERNS_12IAPDUHandlerEEUlRSE_jE_E5CountEv,comdat
	.align	2
	.p2align 4,,11
	.weak	_ZNK8opendnp318BufferedCollectionINS_7IndexedINS_7CounterEEEZNS_11RangeParser13InvokeRangeOfINS_11Group20Var5EEEvRKNS_12HeaderRecordERKNS_5RangeERKN7openpal6RSliceERNS_12IAPDUHandlerEEUlRSE_jE_E5CountEv
	.type	_ZNK8opendnp318BufferedCollectionINS_7IndexedINS_7CounterEEEZNS_11RangeParser13InvokeRangeOfINS_11Group20Var5EEEvRKNS_12HeaderRecordERKNS_5RangeERKN7openpal6RSliceERNS_12IAPDUHandlerEEUlRSE_jE_E5CountEv, %function
_ZNK8opendnp318BufferedCollectionINS_7IndexedINS_7CounterEEEZNS_11RangeParser13InvokeRangeOfINS_11Group20Var5EEEvRKNS_12HeaderRecordERKNS_5RangeERKN7openpal6RSliceERNS_12IAPDUHandlerEEUlRSE_jE_E5CountEv:
.LFB3650:
	.cfi_startproc
	ldr	x0, [x0, 24]
	ret
	.cfi_endproc
.LFE3650:
	.size	_ZNK8opendnp318BufferedCollectionINS_7IndexedINS_7CounterEEEZNS_11RangeParser13InvokeRangeOfINS_11Group20Var5EEEvRKNS_12HeaderRecordERKNS_5RangeERKN7openpal6RSliceERNS_12IAPDUHandlerEEUlRSE_jE_E5CountEv, .-_ZNK8opendnp318BufferedCollectionINS_7IndexedINS_7CounterEEEZNS_11RangeParser13InvokeRangeOfINS_11Group20Var5EEEvRKNS_12HeaderRecordERKNS_5RangeERKN7openpal6RSliceERNS_12IAPDUHandlerEEUlRSE_jE_E5CountEv
	.section	.text._ZNK8opendnp318BufferedCollectionINS_7IndexedINS_7CounterEEEZNS_11RangeParser13InvokeRangeOfINS_11Group20Var2EEEvRKNS_12HeaderRecordERKNS_5RangeERKN7openpal6RSliceERNS_12IAPDUHandlerEEUlRSE_jE_E5CountEv,"axG",@progbits,_ZNK8opendnp318BufferedCollectionINS_7IndexedINS_7CounterEEEZNS_11RangeParser13InvokeRangeOfINS_11Group20Var2EEEvRKNS_12HeaderRecordERKNS_5RangeERKN7openpal6RSliceERNS_12IAPDUHandlerEEUlRSE_jE_E5CountEv,comdat
	.align	2
	.p2align 4,,11
	.weak	_ZNK8opendnp318BufferedCollectionINS_7IndexedINS_7CounterEEEZNS_11RangeParser13InvokeRangeOfINS_11Group20Var2EEEvRKNS_12HeaderRecordERKNS_5RangeERKN7openpal6RSliceERNS_12IAPDUHandlerEEUlRSE_jE_E5CountEv
	.type	_ZNK8opendnp318BufferedCollectionINS_7IndexedINS_7CounterEEEZNS_11RangeParser13InvokeRangeOfINS_11Group20Var2EEEvRKNS_12HeaderRecordERKNS_5RangeERKN7openpal6RSliceERNS_12IAPDUHandlerEEUlRSE_jE_E5CountEv, %function
_ZNK8opendnp318BufferedCollectionINS_7IndexedINS_7CounterEEEZNS_11RangeParser13InvokeRangeOfINS_11Group20Var2EEEvRKNS_12HeaderRecordERKNS_5RangeERKN7openpal6RSliceERNS_12IAPDUHandlerEEUlRSE_jE_E5CountEv:
.LFB3652:
	.cfi_startproc
	ldr	x0, [x0, 24]
	ret
	.cfi_endproc
.LFE3652:
	.size	_ZNK8opendnp318BufferedCollectionINS_7IndexedINS_7CounterEEEZNS_11RangeParser13InvokeRangeOfINS_11Group20Var2EEEvRKNS_12HeaderRecordERKNS_5RangeERKN7openpal6RSliceERNS_12IAPDUHandlerEEUlRSE_jE_E5CountEv, .-_ZNK8opendnp318BufferedCollectionINS_7IndexedINS_7CounterEEEZNS_11RangeParser13InvokeRangeOfINS_11Group20Var2EEEvRKNS_12HeaderRecordERKNS_5RangeERKN7openpal6RSliceERNS_12IAPDUHandlerEEUlRSE_jE_E5CountEv
	.section	.text._ZNK8opendnp318BufferedCollectionINS_7IndexedINS_7CounterEEEZNS_11RangeParser13InvokeRangeOfINS_11Group20Var1EEEvRKNS_12HeaderRecordERKNS_5RangeERKN7openpal6RSliceERNS_12IAPDUHandlerEEUlRSE_jE_E5CountEv,"axG",@progbits,_ZNK8opendnp318BufferedCollectionINS_7IndexedINS_7CounterEEEZNS_11RangeParser13InvokeRangeOfINS_11Group20Var1EEEvRKNS_12HeaderRecordERKNS_5RangeERKN7openpal6RSliceERNS_12IAPDUHandlerEEUlRSE_jE_E5CountEv,comdat
	.align	2
	.p2align 4,,11
	.weak	_ZNK8opendnp318BufferedCollectionINS_7IndexedINS_7CounterEEEZNS_11RangeParser13InvokeRangeOfINS_11Group20Var1EEEvRKNS_12HeaderRecordERKNS_5RangeERKN7openpal6RSliceERNS_12IAPDUHandlerEEUlRSE_jE_E5CountEv
	.type	_ZNK8opendnp318BufferedCollectionINS_7IndexedINS_7CounterEEEZNS_11RangeParser13InvokeRangeOfINS_11Group20Var1EEEvRKNS_12HeaderRecordERKNS_5RangeERKN7openpal6RSliceERNS_12IAPDUHandlerEEUlRSE_jE_E5CountEv, %function
_ZNK8opendnp318BufferedCollectionINS_7IndexedINS_7CounterEEEZNS_11RangeParser13InvokeRangeOfINS_11Group20Var1EEEvRKNS_12HeaderRecordERKNS_5RangeERKN7openpal6RSliceERNS_12IAPDUHandlerEEUlRSE_jE_E5CountEv:
.LFB3654:
	.cfi_startproc
	ldr	x0, [x0, 24]
	ret
	.cfi_endproc
.LFE3654:
	.size	_ZNK8opendnp318BufferedCollectionINS_7IndexedINS_7CounterEEEZNS_11RangeParser13InvokeRangeOfINS_11Group20Var1EEEvRKNS_12HeaderRecordERKNS_5RangeERKN7openpal6RSliceERNS_12IAPDUHandlerEEUlRSE_jE_E5CountEv, .-_ZNK8opendnp318BufferedCollectionINS_7IndexedINS_7CounterEEEZNS_11RangeParser13InvokeRangeOfINS_11Group20Var1EEEvRKNS_12HeaderRecordERKNS_5RangeERKN7openpal6RSliceERNS_12IAPDUHandlerEEUlRSE_jE_E5CountEv
	.section	.text._ZNK8opendnp318BufferedCollectionINS_7IndexedINS_18BinaryOutputStatusEEEZNS_11RangeParser13InvokeRangeOfINS_11Group10Var2EEEvRKNS_12HeaderRecordERKNS_5RangeERKN7openpal6RSliceERNS_12IAPDUHandlerEEUlRSE_jE_E5CountEv,"axG",@progbits,_ZNK8opendnp318BufferedCollectionINS_7IndexedINS_18BinaryOutputStatusEEEZNS_11RangeParser13InvokeRangeOfINS_11Group10Var2EEEvRKNS_12HeaderRecordERKNS_5RangeERKN7openpal6RSliceERNS_12IAPDUHandlerEEUlRSE_jE_E5CountEv,comdat
	.align	2
	.p2align 4,,11
	.weak	_ZNK8opendnp318BufferedCollectionINS_7IndexedINS_18BinaryOutputStatusEEEZNS_11RangeParser13InvokeRangeOfINS_11Group10Var2EEEvRKNS_12HeaderRecordERKNS_5RangeERKN7openpal6RSliceERNS_12IAPDUHandlerEEUlRSE_jE_E5CountEv
	.type	_ZNK8opendnp318BufferedCollectionINS_7IndexedINS_18BinaryOutputStatusEEEZNS_11RangeParser13InvokeRangeOfINS_11Group10Var2EEEvRKNS_12HeaderRecordERKNS_5RangeERKN7openpal6RSliceERNS_12IAPDUHandlerEEUlRSE_jE_E5CountEv, %function
_ZNK8opendnp318BufferedCollectionINS_7IndexedINS_18BinaryOutputStatusEEEZNS_11RangeParser13InvokeRangeOfINS_11Group10Var2EEEvRKNS_12HeaderRecordERKNS_5RangeERKN7openpal6RSliceERNS_12IAPDUHandlerEEUlRSE_jE_E5CountEv:
.LFB3656:
	.cfi_startproc
	ldr	x0, [x0, 24]
	ret
	.cfi_endproc
.LFE3656:
	.size	_ZNK8opendnp318BufferedCollectionINS_7IndexedINS_18BinaryOutputStatusEEEZNS_11RangeParser13InvokeRangeOfINS_11Group10Var2EEEvRKNS_12HeaderRecordERKNS_5RangeERKN7openpal6RSliceERNS_12IAPDUHandlerEEUlRSE_jE_E5CountEv, .-_ZNK8opendnp318BufferedCollectionINS_7IndexedINS_18BinaryOutputStatusEEEZNS_11RangeParser13InvokeRangeOfINS_11Group10Var2EEEvRKNS_12HeaderRecordERKNS_5RangeERKN7openpal6RSliceERNS_12IAPDUHandlerEEUlRSE_jE_E5CountEv
	.section	.text._ZNK8opendnp318BufferedCollectionINS_7IndexedINS_15DoubleBitBinaryEEEZNS_11RangeParser13InvokeRangeOfINS_10Group3Var2EEEvRKNS_12HeaderRecordERKNS_5RangeERKN7openpal6RSliceERNS_12IAPDUHandlerEEUlRSE_jE_E5CountEv,"axG",@progbits,_ZNK8opendnp318BufferedCollectionINS_7IndexedINS_15DoubleBitBinaryEEEZNS_11RangeParser13InvokeRangeOfINS_10Group3Var2EEEvRKNS_12HeaderRecordERKNS_5RangeERKN7openpal6RSliceERNS_12IAPDUHandlerEEUlRSE_jE_E5CountEv,comdat
	.align	2
	.p2align 4,,11
	.weak	_ZNK8opendnp318BufferedCollectionINS_7IndexedINS_15DoubleBitBinaryEEEZNS_11RangeParser13InvokeRangeOfINS_10Group3Var2EEEvRKNS_12HeaderRecordERKNS_5RangeERKN7openpal6RSliceERNS_12IAPDUHandlerEEUlRSE_jE_E5CountEv
	.type	_ZNK8opendnp318BufferedCollectionINS_7IndexedINS_15DoubleBitBinaryEEEZNS_11RangeParser13InvokeRangeOfINS_10Group3Var2EEEvRKNS_12HeaderRecordERKNS_5RangeERKN7openpal6RSliceERNS_12IAPDUHandlerEEUlRSE_jE_E5CountEv, %function
_ZNK8opendnp318BufferedCollectionINS_7IndexedINS_15DoubleBitBinaryEEEZNS_11RangeParser13InvokeRangeOfINS_10Group3Var2EEEvRKNS_12HeaderRecordERKNS_5RangeERKN7openpal6RSliceERNS_12IAPDUHandlerEEUlRSE_jE_E5CountEv:
.LFB3658:
	.cfi_startproc
	ldr	x0, [x0, 24]
	ret
	.cfi_endproc
.LFE3658:
	.size	_ZNK8opendnp318BufferedCollectionINS_7IndexedINS_15DoubleBitBinaryEEEZNS_11RangeParser13InvokeRangeOfINS_10Group3Var2EEEvRKNS_12HeaderRecordERKNS_5RangeERKN7openpal6RSliceERNS_12IAPDUHandlerEEUlRSE_jE_E5CountEv, .-_ZNK8opendnp318BufferedCollectionINS_7IndexedINS_15DoubleBitBinaryEEEZNS_11RangeParser13InvokeRangeOfINS_10Group3Var2EEEvRKNS_12HeaderRecordERKNS_5RangeERKN7openpal6RSliceERNS_12IAPDUHandlerEEUlRSE_jE_E5CountEv
	.section	.text._ZNK8opendnp318BufferedCollectionINS_7IndexedINS_18BinaryOutputStatusEEEZNS_11RangeParser23InvokeRangeBitfieldTypeIS2_EEvRKNS_12HeaderRecordERKNS_5RangeERKN7openpal6RSliceERNS_12IAPDUHandlerEEUlRSD_jE_E5CountEv,"axG",@progbits,_ZNK8opendnp318BufferedCollectionINS_7IndexedINS_18BinaryOutputStatusEEEZNS_11RangeParser23InvokeRangeBitfieldTypeIS2_EEvRKNS_12HeaderRecordERKNS_5RangeERKN7openpal6RSliceERNS_12IAPDUHandlerEEUlRSD_jE_E5CountEv,comdat
	.align	2
	.p2align 4,,11
	.weak	_ZNK8opendnp318BufferedCollectionINS_7IndexedINS_18BinaryOutputStatusEEEZNS_11RangeParser23InvokeRangeBitfieldTypeIS2_EEvRKNS_12HeaderRecordERKNS_5RangeERKN7openpal6RSliceERNS_12IAPDUHandlerEEUlRSD_jE_E5CountEv
	.type	_ZNK8opendnp318BufferedCollectionINS_7IndexedINS_18BinaryOutputStatusEEEZNS_11RangeParser23InvokeRangeBitfieldTypeIS2_EEvRKNS_12HeaderRecordERKNS_5RangeERKN7openpal6RSliceERNS_12IAPDUHandlerEEUlRSD_jE_E5CountEv, %function
_ZNK8opendnp318BufferedCollectionINS_7IndexedINS_18BinaryOutputStatusEEEZNS_11RangeParser23InvokeRangeBitfieldTypeIS2_EEvRKNS_12HeaderRecordERKNS_5RangeERKN7openpal6RSliceERNS_12IAPDUHandlerEEUlRSD_jE_E5CountEv:
.LFB3660:
	.cfi_startproc
	ldr	x0, [x0, 24]
	ret
	.cfi_endproc
.LFE3660:
	.size	_ZNK8opendnp318BufferedCollectionINS_7IndexedINS_18BinaryOutputStatusEEEZNS_11RangeParser23InvokeRangeBitfieldTypeIS2_EEvRKNS_12HeaderRecordERKNS_5RangeERKN7openpal6RSliceERNS_12IAPDUHandlerEEUlRSD_jE_E5CountEv, .-_ZNK8opendnp318BufferedCollectionINS_7IndexedINS_18BinaryOutputStatusEEEZNS_11RangeParser23InvokeRangeBitfieldTypeIS2_EEvRKNS_12HeaderRecordERKNS_5RangeERKN7openpal6RSliceERNS_12IAPDUHandlerEEUlRSD_jE_E5CountEv
	.section	.text._ZNK8opendnp318BufferedCollectionINS_7IndexedINS_15DoubleBitBinaryEEEZNS_11RangeParser29InvokeRangeDoubleBitfieldTypeIS2_EEvRKNS_12HeaderRecordERKNS_5RangeERKN7openpal6RSliceERNS_12IAPDUHandlerEEUlRSD_jE_E5CountEv,"axG",@progbits,_ZNK8opendnp318BufferedCollectionINS_7IndexedINS_15DoubleBitBinaryEEEZNS_11RangeParser29InvokeRangeDoubleBitfieldTypeIS2_EEvRKNS_12HeaderRecordERKNS_5RangeERKN7openpal6RSliceERNS_12IAPDUHandlerEEUlRSD_jE_E5CountEv,comdat
	.align	2
	.p2align 4,,11
	.weak	_ZNK8opendnp318BufferedCollectionINS_7IndexedINS_15DoubleBitBinaryEEEZNS_11RangeParser29InvokeRangeDoubleBitfieldTypeIS2_EEvRKNS_12HeaderRecordERKNS_5RangeERKN7openpal6RSliceERNS_12IAPDUHandlerEEUlRSD_jE_E5CountEv
	.type	_ZNK8opendnp318BufferedCollectionINS_7IndexedINS_15DoubleBitBinaryEEEZNS_11RangeParser29InvokeRangeDoubleBitfieldTypeIS2_EEvRKNS_12HeaderRecordERKNS_5RangeERKN7openpal6RSliceERNS_12IAPDUHandlerEEUlRSD_jE_E5CountEv, %function
_ZNK8opendnp318BufferedCollectionINS_7IndexedINS_15DoubleBitBinaryEEEZNS_11RangeParser29InvokeRangeDoubleBitfieldTypeIS2_EEvRKNS_12HeaderRecordERKNS_5RangeERKN7openpal6RSliceERNS_12IAPDUHandlerEEUlRSD_jE_E5CountEv:
.LFB3662:
	.cfi_startproc
	ldr	x0, [x0, 24]
	ret
	.cfi_endproc
.LFE3662:
	.size	_ZNK8opendnp318BufferedCollectionINS_7IndexedINS_15DoubleBitBinaryEEEZNS_11RangeParser29InvokeRangeDoubleBitfieldTypeIS2_EEvRKNS_12HeaderRecordERKNS_5RangeERKN7openpal6RSliceERNS_12IAPDUHandlerEEUlRSD_jE_E5CountEv, .-_ZNK8opendnp318BufferedCollectionINS_7IndexedINS_15DoubleBitBinaryEEEZNS_11RangeParser29InvokeRangeDoubleBitfieldTypeIS2_EEvRKNS_12HeaderRecordERKNS_5RangeERKN7openpal6RSliceERNS_12IAPDUHandlerEEUlRSD_jE_E5CountEv
	.section	.text._ZNK8opendnp318BufferedCollectionINS_7IndexedINS_6BinaryEEEZNS_11RangeParser13InvokeRangeOfINS_10Group1Var2EEEvRKNS_12HeaderRecordERKNS_5RangeERKN7openpal6RSliceERNS_12IAPDUHandlerEEUlRSE_jE_E5CountEv,"axG",@progbits,_ZNK8opendnp318BufferedCollectionINS_7IndexedINS_6BinaryEEEZNS_11RangeParser13InvokeRangeOfINS_10Group1Var2EEEvRKNS_12HeaderRecordERKNS_5RangeERKN7openpal6RSliceERNS_12IAPDUHandlerEEUlRSE_jE_E5CountEv,comdat
	.align	2
	.p2align 4,,11
	.weak	_ZNK8opendnp318BufferedCollectionINS_7IndexedINS_6BinaryEEEZNS_11RangeParser13InvokeRangeOfINS_10Group1Var2EEEvRKNS_12HeaderRecordERKNS_5RangeERKN7openpal6RSliceERNS_12IAPDUHandlerEEUlRSE_jE_E5CountEv
	.type	_ZNK8opendnp318BufferedCollectionINS_7IndexedINS_6BinaryEEEZNS_11RangeParser13InvokeRangeOfINS_10Group1Var2EEEvRKNS_12HeaderRecordERKNS_5RangeERKN7openpal6RSliceERNS_12IAPDUHandlerEEUlRSE_jE_E5CountEv, %function
_ZNK8opendnp318BufferedCollectionINS_7IndexedINS_6BinaryEEEZNS_11RangeParser13InvokeRangeOfINS_10Group1Var2EEEvRKNS_12HeaderRecordERKNS_5RangeERKN7openpal6RSliceERNS_12IAPDUHandlerEEUlRSE_jE_E5CountEv:
.LFB3664:
	.cfi_startproc
	ldr	x0, [x0, 24]
	ret
	.cfi_endproc
.LFE3664:
	.size	_ZNK8opendnp318BufferedCollectionINS_7IndexedINS_6BinaryEEEZNS_11RangeParser13InvokeRangeOfINS_10Group1Var2EEEvRKNS_12HeaderRecordERKNS_5RangeERKN7openpal6RSliceERNS_12IAPDUHandlerEEUlRSE_jE_E5CountEv, .-_ZNK8opendnp318BufferedCollectionINS_7IndexedINS_6BinaryEEEZNS_11RangeParser13InvokeRangeOfINS_10Group1Var2EEEvRKNS_12HeaderRecordERKNS_5RangeERKN7openpal6RSliceERNS_12IAPDUHandlerEEUlRSE_jE_E5CountEv
	.section	.text._ZNK8opendnp318BufferedCollectionINS_7IndexedINS_6BinaryEEEZNS_11RangeParser23InvokeRangeBitfieldTypeIS2_EEvRKNS_12HeaderRecordERKNS_5RangeERKN7openpal6RSliceERNS_12IAPDUHandlerEEUlRSD_jE_E5CountEv,"axG",@progbits,_ZNK8opendnp318BufferedCollectionINS_7IndexedINS_6BinaryEEEZNS_11RangeParser23InvokeRangeBitfieldTypeIS2_EEvRKNS_12HeaderRecordERKNS_5RangeERKN7openpal6RSliceERNS_12IAPDUHandlerEEUlRSD_jE_E5CountEv,comdat
	.align	2
	.p2align 4,,11
	.weak	_ZNK8opendnp318BufferedCollectionINS_7IndexedINS_6BinaryEEEZNS_11RangeParser23InvokeRangeBitfieldTypeIS2_EEvRKNS_12HeaderRecordERKNS_5RangeERKN7openpal6RSliceERNS_12IAPDUHandlerEEUlRSD_jE_E5CountEv
	.type	_ZNK8opendnp318BufferedCollectionINS_7IndexedINS_6BinaryEEEZNS_11RangeParser23InvokeRangeBitfieldTypeIS2_EEvRKNS_12HeaderRecordERKNS_5RangeERKN7openpal6RSliceERNS_12IAPDUHandlerEEUlRSD_jE_E5CountEv, %function
_ZNK8opendnp318BufferedCollectionINS_7IndexedINS_6BinaryEEEZNS_11RangeParser23InvokeRangeBitfieldTypeIS2_EEvRKNS_12HeaderRecordERKNS_5RangeERKN7openpal6RSliceERNS_12IAPDUHandlerEEUlRSD_jE_E5CountEv:
.LFB3666:
	.cfi_startproc
	ldr	x0, [x0, 24]
	ret
	.cfi_endproc
.LFE3666:
	.size	_ZNK8opendnp318BufferedCollectionINS_7IndexedINS_6BinaryEEEZNS_11RangeParser23InvokeRangeBitfieldTypeIS2_EEvRKNS_12HeaderRecordERKNS_5RangeERKN7openpal6RSliceERNS_12IAPDUHandlerEEUlRSD_jE_E5CountEv, .-_ZNK8opendnp318BufferedCollectionINS_7IndexedINS_6BinaryEEEZNS_11RangeParser23InvokeRangeBitfieldTypeIS2_EEvRKNS_12HeaderRecordERKNS_5RangeERKN7openpal6RSliceERNS_12IAPDUHandlerEEUlRSD_jE_E5CountEv
	.text
	.align	2
	.p2align 4,,11
	.type	_ZNK8opendnp318BufferedCollectionINS_7IndexedINS_11OctetStringEEEZNS_11RangeParser21ParseRangeOfOctetDataERN7openpal6RSliceERKNS_12HeaderRecordERKNS_5RangeEPNS5_6LoggerEPNS_12IAPDUHandlerEEUlS7_jE_E5CountEv, %function
_ZNK8opendnp318BufferedCollectionINS_7IndexedINS_11OctetStringEEEZNS_11RangeParser21ParseRangeOfOctetDataERN7openpal6RSliceERKNS_12HeaderRecordERKNS_5RangeEPNS5_6LoggerEPNS_12IAPDUHandlerEEUlS7_jE_E5CountEv:
.LFB3668:
	.cfi_startproc
	ldr	x0, [x0, 24]
	ret
	.cfi_endproc
.LFE3668:
	.size	_ZNK8opendnp318BufferedCollectionINS_7IndexedINS_11OctetStringEEEZNS_11RangeParser21ParseRangeOfOctetDataERN7openpal6RSliceERKNS_12HeaderRecordERKNS_5RangeEPNS5_6LoggerEPNS_12IAPDUHandlerEEUlS7_jE_E5CountEv, .-_ZNK8opendnp318BufferedCollectionINS_7IndexedINS_11OctetStringEEEZNS_11RangeParser21ParseRangeOfOctetDataERN7openpal6RSliceERKNS_12HeaderRecordERKNS_5RangeEPNS5_6LoggerEPNS_12IAPDUHandlerEEUlS7_jE_E5CountEv
	.section	.text._ZN8opendnp311RangeParser23InvokeRangeBitfieldTypeINS_6BinaryEEEvRKNS_12HeaderRecordERKNS_5RangeERKN7openpal6RSliceERNS_12IAPDUHandlerE,"axG",@progbits,_ZN8opendnp311RangeParser23InvokeRangeBitfieldTypeINS_6BinaryEEEvRKNS_12HeaderRecordERKNS_5RangeERKN7openpal6RSliceERNS_12IAPDUHandlerE,comdat
	.align	2
	.p2align 4,,11
	.weak	_ZN8opendnp311RangeParser23InvokeRangeBitfieldTypeINS_6BinaryEEEvRKNS_12HeaderRecordERKNS_5RangeERKN7openpal6RSliceERNS_12IAPDUHandlerE
	.type	_ZN8opendnp311RangeParser23InvokeRangeBitfieldTypeINS_6BinaryEEEvRKNS_12HeaderRecordERKNS_5RangeERKN7openpal6RSliceERNS_12IAPDUHandlerE, %function
_ZN8opendnp311RangeParser23InvokeRangeBitfieldTypeINS_6BinaryEEEvRKNS_12HeaderRecordERKNS_5RangeERKN7openpal6RSliceERNS_12IAPDUHandlerE:
.LFB2982:
	.cfi_startproc
	stp	x29, x30, [sp, -96]!
	.cfi_def_cfa_offset 96
	.cfi_offset 29, -96
	.cfi_offset 30, -88
	adrp	x5, :got:__stack_chk_guard
	mov	x10, x0
	mov	x29, sp
	ldr	x7, [x5, #:got_lo12:__stack_chk_guard]
	adrp	x4, :got:_ZTVN8opendnp318BufferedCollectionINS_7IndexedINS_6BinaryEEEZNS_11RangeParser23InvokeRangeBitfieldTypeIS2_EEvRKNS_12HeaderRecordERKNS_5RangeERKN7openpal6RSliceERNS_12IAPDUHandlerEEUlRSD_jE_EE
	ldrh	w5, [x1, 2]
	mov	x0, x3
	ldrh	w6, [x1]
	ldr	x3, [x7]
	str	x3, [sp, 88]
	mov	x3, 0
	ldr	x4, [x4, #:got_lo12:_ZTVN8opendnp318BufferedCollectionINS_7IndexedINS_6BinaryEEEZNS_11RangeParser23InvokeRangeBitfieldTypeIS2_EEvRKNS_12HeaderRecordERKNS_5RangeERKN7openpal6RSliceERNS_12IAPDUHandlerEEUlRSD_jE_EE]
	add	w3, w5, 1
	ldp	x8, x9, [x2]
	cmp	w6, w5
	ldp	x10, x11, [x10]
	sub	w3, w3, w6
	ldr	w7, [x1]
	csel	x3, x3, xzr, ls
	add	x4, x4, 16
	add	x2, sp, 48
	add	x1, sp, 24
	stp	x10, x11, [sp, 24]
	str	w7, [sp, 40]
	str	x4, [sp, 48]
	stp	x8, x9, [sp, 56]
	str	x3, [sp, 72]
	strh	w6, [sp, 80]
	strh	w5, [sp, 82]
	bl	_ZN8opendnp312IAPDUHandler8OnHeaderERKNS_11RangeHeaderERKNS_11ICollectionINS_7IndexedINS_6BinaryEEEEE
	adrp	x0, :got:__stack_chk_guard
	ldr	x0, [x0, #:got_lo12:__stack_chk_guard]
	ldr	x2, [sp, 88]
	ldr	x1, [x0]
	subs	x2, x2, x1
	mov	x1, 0
	bne	.L38
	ldp	x29, x30, [sp], 96
	.cfi_remember_state
	.cfi_restore 30
	.cfi_restore 29
	.cfi_def_cfa_offset 0
	ret
.L38:
	.cfi_restore_state
	bl	__stack_chk_fail
	.cfi_endproc
.LFE2982:
	.size	_ZN8opendnp311RangeParser23InvokeRangeBitfieldTypeINS_6BinaryEEEvRKNS_12HeaderRecordERKNS_5RangeERKN7openpal6RSliceERNS_12IAPDUHandlerE, .-_ZN8opendnp311RangeParser23InvokeRangeBitfieldTypeINS_6BinaryEEEvRKNS_12HeaderRecordERKNS_5RangeERKN7openpal6RSliceERNS_12IAPDUHandlerE
	.section	.text._ZN8opendnp311RangeParser13InvokeRangeOfINS_10Group1Var2EEEvRKNS_12HeaderRecordERKNS_5RangeERKN7openpal6RSliceERNS_12IAPDUHandlerE,"axG",@progbits,_ZN8opendnp311RangeParser13InvokeRangeOfINS_10Group1Var2EEEvRKNS_12HeaderRecordERKNS_5RangeERKN7openpal6RSliceERNS_12IAPDUHandlerE,comdat
	.align	2
	.p2align 4,,11
	.weak	_ZN8opendnp311RangeParser13InvokeRangeOfINS_10Group1Var2EEEvRKNS_12HeaderRecordERKNS_5RangeERKN7openpal6RSliceERNS_12IAPDUHandlerE
	.type	_ZN8opendnp311RangeParser13InvokeRangeOfINS_10Group1Var2EEEvRKNS_12HeaderRecordERKNS_5RangeERKN7openpal6RSliceERNS_12IAPDUHandlerE, %function
_ZN8opendnp311RangeParser13InvokeRangeOfINS_10Group1Var2EEEvRKNS_12HeaderRecordERKNS_5RangeERKN7openpal6RSliceERNS_12IAPDUHandlerE:
.LFB2990:
	.cfi_startproc
	stp	x29, x30, [sp, -96]!
	.cfi_def_cfa_offset 96
	.cfi_offset 29, -96
	.cfi_offset 30, -88
	adrp	x5, :got:__stack_chk_guard
	mov	x10, x0
	mov	x29, sp
	ldr	x7, [x5, #:got_lo12:__stack_chk_guard]
	adrp	x4, :got:_ZTVN8opendnp318BufferedCollectionINS_7IndexedINS_6BinaryEEEZNS_11RangeParser13InvokeRangeOfINS_10Group1Var2EEEvRKNS_12HeaderRecordERKNS_5RangeERKN7openpal6RSliceERNS_12IAPDUHandlerEEUlRSE_jE_EE
	ldrh	w5, [x1, 2]
	mov	x0, x3
	ldrh	w6, [x1]
	ldr	x3, [x7]
	str	x3, [sp, 88]
	mov	x3, 0
	ldr	x4, [x4, #:got_lo12:_ZTVN8opendnp318BufferedCollectionINS_7IndexedINS_6BinaryEEEZNS_11RangeParser13InvokeRangeOfINS_10Group1Var2EEEvRKNS_12HeaderRecordERKNS_5RangeERKN7openpal6RSliceERNS_12IAPDUHandlerEEUlRSE_jE_EE]
	add	w3, w5, 1
	ldp	x8, x9, [x2]
	cmp	w6, w5
	ldp	x10, x11, [x10]
	sub	w3, w3, w6
	ldr	w7, [x1]
	csel	x3, x3, xzr, ls
	add	x4, x4, 16
	add	x2, sp, 48
	add	x1, sp, 24
	stp	x10, x11, [sp, 24]
	str	w7, [sp, 40]
	str	x4, [sp, 48]
	stp	x8, x9, [sp, 56]
	str	x3, [sp, 72]
	strh	w6, [sp, 80]
	strh	w5, [sp, 82]
	bl	_ZN8opendnp312IAPDUHandler8OnHeaderERKNS_11RangeHeaderERKNS_11ICollectionINS_7IndexedINS_6BinaryEEEEE
	adrp	x0, :got:__stack_chk_guard
	ldr	x0, [x0, #:got_lo12:__stack_chk_guard]
	ldr	x2, [sp, 88]
	ldr	x1, [x0]
	subs	x2, x2, x1
	mov	x1, 0
	bne	.L44
	ldp	x29, x30, [sp], 96
	.cfi_remember_state
	.cfi_restore 30
	.cfi_restore 29
	.cfi_def_cfa_offset 0
	ret
.L44:
	.cfi_restore_state
	bl	__stack_chk_fail
	.cfi_endproc
.LFE2990:
	.size	_ZN8opendnp311RangeParser13InvokeRangeOfINS_10Group1Var2EEEvRKNS_12HeaderRecordERKNS_5RangeERKN7openpal6RSliceERNS_12IAPDUHandlerE, .-_ZN8opendnp311RangeParser13InvokeRangeOfINS_10Group1Var2EEEvRKNS_12HeaderRecordERKNS_5RangeERKN7openpal6RSliceERNS_12IAPDUHandlerE
	.section	.text._ZNK8opendnp318BufferedCollectionINS_7IndexedINS_8IINValueEEEZNS_11RangeParser23InvokeRangeBitfieldTypeIS2_EEvRKNS_12HeaderRecordERKNS_5RangeERKN7openpal6RSliceERNS_12IAPDUHandlerEEUlRSD_jE_E7ForeachERNS_8IVisitorIS3_EE,"axG",@progbits,_ZNK8opendnp318BufferedCollectionINS_7IndexedINS_8IINValueEEEZNS_11RangeParser23InvokeRangeBitfieldTypeIS2_EEvRKNS_12HeaderRecordERKNS_5RangeERKN7openpal6RSliceERNS_12IAPDUHandlerEEUlRSD_jE_E7ForeachERNS_8IVisitorIS3_EE,comdat
	.align	2
	.p2align 4,,11
	.weak	_ZNK8opendnp318BufferedCollectionINS_7IndexedINS_8IINValueEEEZNS_11RangeParser23InvokeRangeBitfieldTypeIS2_EEvRKNS_12HeaderRecordERKNS_5RangeERKN7openpal6RSliceERNS_12IAPDUHandlerEEUlRSD_jE_E7ForeachERNS_8IVisitorIS3_EE
	.type	_ZNK8opendnp318BufferedCollectionINS_7IndexedINS_8IINValueEEEZNS_11RangeParser23InvokeRangeBitfieldTypeIS2_EEvRKNS_12HeaderRecordERKNS_5RangeERKN7openpal6RSliceERNS_12IAPDUHandlerEEUlRSD_jE_E7ForeachERNS_8IVisitorIS3_EE, %function
_ZNK8opendnp318BufferedCollectionINS_7IndexedINS_8IINValueEEEZNS_11RangeParser23InvokeRangeBitfieldTypeIS2_EEvRKNS_12HeaderRecordERKNS_5RangeERKN7openpal6RSliceERNS_12IAPDUHandlerEEUlRSD_jE_E7ForeachERNS_8IVisitorIS3_EE:
.LFB3613:
	.cfi_startproc
	stp	x29, x30, [sp, -96]!
	.cfi_def_cfa_offset 96
	.cfi_offset 29, -96
	.cfi_offset 30, -88
	adrp	x2, :got:__stack_chk_guard
	mov	x29, sp
	ldr	x2, [x2, #:got_lo12:__stack_chk_guard]
	stp	x19, x20, [sp, 16]
	.cfi_offset 19, -80
	.cfi_offset 20, -72
	mov	x20, x0
	stp	x21, x22, [sp, 32]
	.cfi_offset 21, -64
	.cfi_offset 22, -56
	mov	x21, x1
	ldr	x1, [x2]
	str	x1, [sp, 88]
	mov	x1, 0
	ldp	x2, x3, [x0, 8]
	stp	x2, x3, [sp, 72]
	ldr	x0, [x0, 24]
	cbz	x0, .L45
	stp	x23, x24, [sp, 48]
	.cfi_offset 24, -40
	.cfi_offset 23, -48
	add	x24, sp, 72
	add	x23, sp, 64
	mov	w19, 0
	.p2align 3,,7
.L47:
	ldr	x2, [x21]
	mov	w1, w19
	mov	x0, x24
	ldr	x22, [x2]
	bl	_ZN8opendnp36GetBitERKN7openpal6RSliceEj
	ldrh	w2, [x20, 32]
	mov	x1, x23
	strb	w0, [sp, 64]
	mov	x0, x21
	add	w2, w19, w2
	strh	w2, [sp, 66]
	add	w19, w19, 1
	blr	x22
	ldr	x0, [x20, 24]
	cmp	x0, w19, uxtw
	bhi	.L47
	ldp	x23, x24, [sp, 48]
	.cfi_restore 24
	.cfi_restore 23
.L45:
	adrp	x0, :got:__stack_chk_guard
	ldr	x0, [x0, #:got_lo12:__stack_chk_guard]
	ldr	x2, [sp, 88]
	ldr	x1, [x0]
	subs	x2, x2, x1
	mov	x1, 0
	bne	.L54
	ldp	x19, x20, [sp, 16]
	ldp	x21, x22, [sp, 32]
	ldp	x29, x30, [sp], 96
	.cfi_remember_state
	.cfi_restore 30
	.cfi_restore 29
	.cfi_restore 21
	.cfi_restore 22
	.cfi_restore 19
	.cfi_restore 20
	.cfi_def_cfa_offset 0
	ret
.L54:
	.cfi_restore_state
	stp	x23, x24, [sp, 48]
	.cfi_offset 24, -40
	.cfi_offset 23, -48
	bl	__stack_chk_fail
	.cfi_endproc
.LFE3613:
	.size	_ZNK8opendnp318BufferedCollectionINS_7IndexedINS_8IINValueEEEZNS_11RangeParser23InvokeRangeBitfieldTypeIS2_EEvRKNS_12HeaderRecordERKNS_5RangeERKN7openpal6RSliceERNS_12IAPDUHandlerEEUlRSD_jE_E7ForeachERNS_8IVisitorIS3_EE, .-_ZNK8opendnp318BufferedCollectionINS_7IndexedINS_8IINValueEEEZNS_11RangeParser23InvokeRangeBitfieldTypeIS2_EEvRKNS_12HeaderRecordERKNS_5RangeERKN7openpal6RSliceERNS_12IAPDUHandlerEEUlRSD_jE_E7ForeachERNS_8IVisitorIS3_EE
	.section	.text._ZNK8opendnp318BufferedCollectionINS_7IndexedINS_6BinaryEEEZNS_11RangeParser23InvokeRangeBitfieldTypeIS2_EEvRKNS_12HeaderRecordERKNS_5RangeERKN7openpal6RSliceERNS_12IAPDUHandlerEEUlRSD_jE_E7ForeachERNS_8IVisitorIS3_EE,"axG",@progbits,_ZNK8opendnp318BufferedCollectionINS_7IndexedINS_6BinaryEEEZNS_11RangeParser23InvokeRangeBitfieldTypeIS2_EEvRKNS_12HeaderRecordERKNS_5RangeERKN7openpal6RSliceERNS_12IAPDUHandlerEEUlRSD_jE_E7ForeachERNS_8IVisitorIS3_EE,comdat
	.align	2
	.p2align 4,,11
	.weak	_ZNK8opendnp318BufferedCollectionINS_7IndexedINS_6BinaryEEEZNS_11RangeParser23InvokeRangeBitfieldTypeIS2_EEvRKNS_12HeaderRecordERKNS_5RangeERKN7openpal6RSliceERNS_12IAPDUHandlerEEUlRSD_jE_E7ForeachERNS_8IVisitorIS3_EE
	.type	_ZNK8opendnp318BufferedCollectionINS_7IndexedINS_6BinaryEEEZNS_11RangeParser23InvokeRangeBitfieldTypeIS2_EEvRKNS_12HeaderRecordERKNS_5RangeERKN7openpal6RSliceERNS_12IAPDUHandlerEEUlRSD_jE_E7ForeachERNS_8IVisitorIS3_EE, %function
_ZNK8opendnp318BufferedCollectionINS_7IndexedINS_6BinaryEEEZNS_11RangeParser23InvokeRangeBitfieldTypeIS2_EEvRKNS_12HeaderRecordERKNS_5RangeERKN7openpal6RSliceERNS_12IAPDUHandlerEEUlRSD_jE_E7ForeachERNS_8IVisitorIS3_EE:
.LFB3667:
	.cfi_startproc
	stp	x29, x30, [sp, -160]!
	.cfi_def_cfa_offset 160
	.cfi_offset 29, -160
	.cfi_offset 30, -152
	adrp	x2, :got:__stack_chk_guard
	mov	x29, sp
	ldr	x2, [x2, #:got_lo12:__stack_chk_guard]
	stp	x21, x22, [sp, 32]
	.cfi_offset 21, -128
	.cfi_offset 22, -120
	mov	x22, x0
	stp	x23, x24, [sp, 48]
	.cfi_offset 23, -112
	.cfi_offset 24, -104
	mov	x23, x1
	ldr	x1, [x2]
	str	x1, [sp, 152]
	mov	x1, 0
	ldp	x2, x3, [x0, 8]
	stp	x2, x3, [sp, 80]
	ldr	x0, [x0, 24]
	cbz	x0, .L55
	add	x21, sp, 96
	stp	x19, x20, [sp, 16]
	.cfi_offset 20, -136
	.cfi_offset 19, -144
	add	x20, sp, 120
	str	x25, [sp, 64]
	.cfi_offset 25, -96
	add	x25, sp, 80
	mov	w19, 0
	.p2align 3,,7
.L57:
	ldr	x2, [x23]
	mov	w1, w19
	mov	x0, x25
	ldr	x24, [x2]
	bl	_ZN8opendnp36GetBitERKN7openpal6RSliceEj
	mov	w1, w0
	mov	x0, x21
	bl	_ZN8opendnp36BinaryC1Eb
	ldp	x4, x5, [x21]
	stp	x4, x5, [x20]
	ldrh	w2, [x22, 32]
	ldr	x3, [x21, 16]
	add	w2, w19, w2
	str	x3, [x20, 16]
	mov	x0, x23
	strh	w2, [sp, 144]
	mov	x1, x20
	add	w19, w19, 1
	blr	x24
	ldr	x0, [x22, 24]
	cmp	x0, w19, uxtw
	bhi	.L57
	ldp	x19, x20, [sp, 16]
	.cfi_restore 20
	.cfi_restore 19
	ldr	x25, [sp, 64]
	.cfi_restore 25
.L55:
	adrp	x0, :got:__stack_chk_guard
	ldr	x0, [x0, #:got_lo12:__stack_chk_guard]
	ldr	x2, [sp, 152]
	ldr	x1, [x0]
	subs	x2, x2, x1
	mov	x1, 0
	bne	.L64
	ldp	x21, x22, [sp, 32]
	ldp	x23, x24, [sp, 48]
	ldp	x29, x30, [sp], 160
	.cfi_remember_state
	.cfi_restore 30
	.cfi_restore 29
	.cfi_restore 23
	.cfi_restore 24
	.cfi_restore 21
	.cfi_restore 22
	.cfi_def_cfa_offset 0
	ret
.L64:
	.cfi_restore_state
	stp	x19, x20, [sp, 16]
	.cfi_offset 20, -136
	.cfi_offset 19, -144
	str	x25, [sp, 64]
	.cfi_offset 25, -96
	bl	__stack_chk_fail
	.cfi_endproc
.LFE3667:
	.size	_ZNK8opendnp318BufferedCollectionINS_7IndexedINS_6BinaryEEEZNS_11RangeParser23InvokeRangeBitfieldTypeIS2_EEvRKNS_12HeaderRecordERKNS_5RangeERKN7openpal6RSliceERNS_12IAPDUHandlerEEUlRSD_jE_E7ForeachERNS_8IVisitorIS3_EE, .-_ZNK8opendnp318BufferedCollectionINS_7IndexedINS_6BinaryEEEZNS_11RangeParser23InvokeRangeBitfieldTypeIS2_EEvRKNS_12HeaderRecordERKNS_5RangeERKN7openpal6RSliceERNS_12IAPDUHandlerEEUlRSD_jE_E7ForeachERNS_8IVisitorIS3_EE
	.section	.text._ZNK8opendnp318BufferedCollectionINS_7IndexedINS_6BinaryEEEZNS_11RangeParser13InvokeRangeOfINS_10Group1Var2EEEvRKNS_12HeaderRecordERKNS_5RangeERKN7openpal6RSliceERNS_12IAPDUHandlerEEUlRSE_jE_E7ForeachERNS_8IVisitorIS3_EE,"axG",@progbits,_ZNK8opendnp318BufferedCollectionINS_7IndexedINS_6BinaryEEEZNS_11RangeParser13InvokeRangeOfINS_10Group1Var2EEEvRKNS_12HeaderRecordERKNS_5RangeERKN7openpal6RSliceERNS_12IAPDUHandlerEEUlRSE_jE_E7ForeachERNS_8IVisitorIS3_EE,comdat
	.align	2
	.p2align 4,,11
	.weak	_ZNK8opendnp318BufferedCollectionINS_7IndexedINS_6BinaryEEEZNS_11RangeParser13InvokeRangeOfINS_10Group1Var2EEEvRKNS_12HeaderRecordERKNS_5RangeERKN7openpal6RSliceERNS_12IAPDUHandlerEEUlRSE_jE_E7ForeachERNS_8IVisitorIS3_EE
	.type	_ZNK8opendnp318BufferedCollectionINS_7IndexedINS_6BinaryEEEZNS_11RangeParser13InvokeRangeOfINS_10Group1Var2EEEvRKNS_12HeaderRecordERKNS_5RangeERKN7openpal6RSliceERNS_12IAPDUHandlerEEUlRSE_jE_E7ForeachERNS_8IVisitorIS3_EE, %function
_ZNK8opendnp318BufferedCollectionINS_7IndexedINS_6BinaryEEEZNS_11RangeParser13InvokeRangeOfINS_10Group1Var2EEEvRKNS_12HeaderRecordERKNS_5RangeERKN7openpal6RSliceERNS_12IAPDUHandlerEEUlRSE_jE_E7ForeachERNS_8IVisitorIS3_EE:
.LFB3665:
	.cfi_startproc
	stp	x29, x30, [sp, -160]!
	.cfi_def_cfa_offset 160
	.cfi_offset 29, -160
	.cfi_offset 30, -152
	adrp	x2, :got:__stack_chk_guard
	mov	x29, sp
	ldr	x2, [x2, #:got_lo12:__stack_chk_guard]
	stp	x21, x22, [sp, 32]
	.cfi_offset 21, -128
	.cfi_offset 22, -120
	mov	x22, x0
	stp	x23, x24, [sp, 48]
	.cfi_offset 23, -112
	.cfi_offset 24, -104
	mov	x23, x1
	ldr	x1, [x2]
	str	x1, [sp, 152]
	mov	x1, 0
	ldp	x2, x3, [x0, 8]
	stp	x2, x3, [sp, 80]
	ldr	x0, [x0, 24]
	cbz	x0, .L65
	add	x24, sp, 80
	add	x21, sp, 120
	stp	x19, x20, [sp, 16]
	.cfi_offset 20, -136
	.cfi_offset 19, -144
	add	x20, sp, 96
	mov	w19, 0
	str	x25, [sp, 64]
	.cfi_offset 25, -96
	.p2align 3,,7
.L67:
	ldr	x1, [x23]
	mov	x0, x20
	ldr	x25, [x1]
	bl	_ZN8opendnp36BinaryC1Ev
	mov	x1, x20
	mov	x0, x24
	bl	_ZN8opendnp310Group1Var210ReadTargetERN7openpal6RSliceERNS_6BinaryE
	ldrh	w2, [x22, 32]
	ldr	x3, [x20, 16]
	add	w2, w19, w2
	ldp	x0, x1, [x20]
	stp	x0, x1, [x21]
	add	w19, w19, 1
	str	x3, [x21, 16]
	mov	x0, x23
	strh	w2, [sp, 144]
	mov	x1, x21
	blr	x25
	ldr	x0, [x22, 24]
	cmp	x0, w19, uxtw
	bhi	.L67
	ldp	x19, x20, [sp, 16]
	.cfi_restore 20
	.cfi_restore 19
	ldr	x25, [sp, 64]
	.cfi_restore 25
.L65:
	adrp	x0, :got:__stack_chk_guard
	ldr	x0, [x0, #:got_lo12:__stack_chk_guard]
	ldr	x2, [sp, 152]
	ldr	x1, [x0]
	subs	x2, x2, x1
	mov	x1, 0
	bne	.L74
	ldp	x21, x22, [sp, 32]
	ldp	x23, x24, [sp, 48]
	ldp	x29, x30, [sp], 160
	.cfi_remember_state
	.cfi_restore 30
	.cfi_restore 29
	.cfi_restore 23
	.cfi_restore 24
	.cfi_restore 21
	.cfi_restore 22
	.cfi_def_cfa_offset 0
	ret
.L74:
	.cfi_restore_state
	stp	x19, x20, [sp, 16]
	.cfi_offset 20, -136
	.cfi_offset 19, -144
	str	x25, [sp, 64]
	.cfi_offset 25, -96
	bl	__stack_chk_fail
	.cfi_endproc
.LFE3665:
	.size	_ZNK8opendnp318BufferedCollectionINS_7IndexedINS_6BinaryEEEZNS_11RangeParser13InvokeRangeOfINS_10Group1Var2EEEvRKNS_12HeaderRecordERKNS_5RangeERKN7openpal6RSliceERNS_12IAPDUHandlerEEUlRSE_jE_E7ForeachERNS_8IVisitorIS3_EE, .-_ZNK8opendnp318BufferedCollectionINS_7IndexedINS_6BinaryEEEZNS_11RangeParser13InvokeRangeOfINS_10Group1Var2EEEvRKNS_12HeaderRecordERKNS_5RangeERKN7openpal6RSliceERNS_12IAPDUHandlerEEUlRSE_jE_E7ForeachERNS_8IVisitorIS3_EE
	.section	.text._ZN8opendnp311RangeParser29InvokeRangeDoubleBitfieldTypeINS_15DoubleBitBinaryEEEvRKNS_12HeaderRecordERKNS_5RangeERKN7openpal6RSliceERNS_12IAPDUHandlerE,"axG",@progbits,_ZN8opendnp311RangeParser29InvokeRangeDoubleBitfieldTypeINS_15DoubleBitBinaryEEEvRKNS_12HeaderRecordERKNS_5RangeERKN7openpal6RSliceERNS_12IAPDUHandlerE,comdat
	.align	2
	.p2align 4,,11
	.weak	_ZN8opendnp311RangeParser29InvokeRangeDoubleBitfieldTypeINS_15DoubleBitBinaryEEEvRKNS_12HeaderRecordERKNS_5RangeERKN7openpal6RSliceERNS_12IAPDUHandlerE
	.type	_ZN8opendnp311RangeParser29InvokeRangeDoubleBitfieldTypeINS_15DoubleBitBinaryEEEvRKNS_12HeaderRecordERKNS_5RangeERKN7openpal6RSliceERNS_12IAPDUHandlerE, %function
_ZN8opendnp311RangeParser29InvokeRangeDoubleBitfieldTypeINS_15DoubleBitBinaryEEEvRKNS_12HeaderRecordERKNS_5RangeERKN7openpal6RSliceERNS_12IAPDUHandlerE:
.LFB2995:
	.cfi_startproc
	stp	x29, x30, [sp, -96]!
	.cfi_def_cfa_offset 96
	.cfi_offset 29, -96
	.cfi_offset 30, -88
	adrp	x5, :got:__stack_chk_guard
	mov	x10, x0
	mov	x29, sp
	ldr	x7, [x5, #:got_lo12:__stack_chk_guard]
	adrp	x4, :got:_ZTVN8opendnp318BufferedCollectionINS_7IndexedINS_15DoubleBitBinaryEEEZNS_11RangeParser29InvokeRangeDoubleBitfieldTypeIS2_EEvRKNS_12HeaderRecordERKNS_5RangeERKN7openpal6RSliceERNS_12IAPDUHandlerEEUlRSD_jE_EE
	ldrh	w5, [x1, 2]
	mov	x0, x3
	ldrh	w6, [x1]
	ldr	x3, [x7]
	str	x3, [sp, 88]
	mov	x3, 0
	ldr	x4, [x4, #:got_lo12:_ZTVN8opendnp318BufferedCollectionINS_7IndexedINS_15DoubleBitBinaryEEEZNS_11RangeParser29InvokeRangeDoubleBitfieldTypeIS2_EEvRKNS_12HeaderRecordERKNS_5RangeERKN7openpal6RSliceERNS_12IAPDUHandlerEEUlRSD_jE_EE]
	add	w3, w5, 1
	ldp	x8, x9, [x2]
	cmp	w6, w5
	ldp	x10, x11, [x10]
	sub	w3, w3, w6
	ldr	w7, [x1]
	csel	x3, x3, xzr, ls
	add	x4, x4, 16
	add	x2, sp, 48
	add	x1, sp, 24
	stp	x10, x11, [sp, 24]
	str	w7, [sp, 40]
	str	x4, [sp, 48]
	stp	x8, x9, [sp, 56]
	str	x3, [sp, 72]
	strh	w6, [sp, 80]
	strh	w5, [sp, 82]
	bl	_ZN8opendnp312IAPDUHandler8OnHeaderERKNS_11RangeHeaderERKNS_11ICollectionINS_7IndexedINS_15DoubleBitBinaryEEEEE
	adrp	x0, :got:__stack_chk_guard
	ldr	x0, [x0, #:got_lo12:__stack_chk_guard]
	ldr	x2, [sp, 88]
	ldr	x1, [x0]
	subs	x2, x2, x1
	mov	x1, 0
	bne	.L80
	ldp	x29, x30, [sp], 96
	.cfi_remember_state
	.cfi_restore 30
	.cfi_restore 29
	.cfi_def_cfa_offset 0
	ret
.L80:
	.cfi_restore_state
	bl	__stack_chk_fail
	.cfi_endproc
.LFE2995:
	.size	_ZN8opendnp311RangeParser29InvokeRangeDoubleBitfieldTypeINS_15DoubleBitBinaryEEEvRKNS_12HeaderRecordERKNS_5RangeERKN7openpal6RSliceERNS_12IAPDUHandlerE, .-_ZN8opendnp311RangeParser29InvokeRangeDoubleBitfieldTypeINS_15DoubleBitBinaryEEEvRKNS_12HeaderRecordERKNS_5RangeERKN7openpal6RSliceERNS_12IAPDUHandlerE
	.section	.text._ZN8opendnp311RangeParser13InvokeRangeOfINS_10Group3Var2EEEvRKNS_12HeaderRecordERKNS_5RangeERKN7openpal6RSliceERNS_12IAPDUHandlerE,"axG",@progbits,_ZN8opendnp311RangeParser13InvokeRangeOfINS_10Group3Var2EEEvRKNS_12HeaderRecordERKNS_5RangeERKN7openpal6RSliceERNS_12IAPDUHandlerE,comdat
	.align	2
	.p2align 4,,11
	.weak	_ZN8opendnp311RangeParser13InvokeRangeOfINS_10Group3Var2EEEvRKNS_12HeaderRecordERKNS_5RangeERKN7openpal6RSliceERNS_12IAPDUHandlerE
	.type	_ZN8opendnp311RangeParser13InvokeRangeOfINS_10Group3Var2EEEvRKNS_12HeaderRecordERKNS_5RangeERKN7openpal6RSliceERNS_12IAPDUHandlerE, %function
_ZN8opendnp311RangeParser13InvokeRangeOfINS_10Group3Var2EEEvRKNS_12HeaderRecordERKNS_5RangeERKN7openpal6RSliceERNS_12IAPDUHandlerE:
.LFB3011:
	.cfi_startproc
	stp	x29, x30, [sp, -96]!
	.cfi_def_cfa_offset 96
	.cfi_offset 29, -96
	.cfi_offset 30, -88
	adrp	x5, :got:__stack_chk_guard
	mov	x10, x0
	mov	x29, sp
	ldr	x7, [x5, #:got_lo12:__stack_chk_guard]
	adrp	x4, :got:_ZTVN8opendnp318BufferedCollectionINS_7IndexedINS_15DoubleBitBinaryEEEZNS_11RangeParser13InvokeRangeOfINS_10Group3Var2EEEvRKNS_12HeaderRecordERKNS_5RangeERKN7openpal6RSliceERNS_12IAPDUHandlerEEUlRSE_jE_EE
	ldrh	w5, [x1, 2]
	mov	x0, x3
	ldrh	w6, [x1]
	ldr	x3, [x7]
	str	x3, [sp, 88]
	mov	x3, 0
	ldr	x4, [x4, #:got_lo12:_ZTVN8opendnp318BufferedCollectionINS_7IndexedINS_15DoubleBitBinaryEEEZNS_11RangeParser13InvokeRangeOfINS_10Group3Var2EEEvRKNS_12HeaderRecordERKNS_5RangeERKN7openpal6RSliceERNS_12IAPDUHandlerEEUlRSE_jE_EE]
	add	w3, w5, 1
	ldp	x8, x9, [x2]
	cmp	w6, w5
	ldp	x10, x11, [x10]
	sub	w3, w3, w6
	ldr	w7, [x1]
	csel	x3, x3, xzr, ls
	add	x4, x4, 16
	add	x2, sp, 48
	add	x1, sp, 24
	stp	x10, x11, [sp, 24]
	str	w7, [sp, 40]
	str	x4, [sp, 48]
	stp	x8, x9, [sp, 56]
	str	x3, [sp, 72]
	strh	w6, [sp, 80]
	strh	w5, [sp, 82]
	bl	_ZN8opendnp312IAPDUHandler8OnHeaderERKNS_11RangeHeaderERKNS_11ICollectionINS_7IndexedINS_15DoubleBitBinaryEEEEE
	adrp	x0, :got:__stack_chk_guard
	ldr	x0, [x0, #:got_lo12:__stack_chk_guard]
	ldr	x2, [sp, 88]
	ldr	x1, [x0]
	subs	x2, x2, x1
	mov	x1, 0
	bne	.L86
	ldp	x29, x30, [sp], 96
	.cfi_remember_state
	.cfi_restore 30
	.cfi_restore 29
	.cfi_def_cfa_offset 0
	ret
.L86:
	.cfi_restore_state
	bl	__stack_chk_fail
	.cfi_endproc
.LFE3011:
	.size	_ZN8opendnp311RangeParser13InvokeRangeOfINS_10Group3Var2EEEvRKNS_12HeaderRecordERKNS_5RangeERKN7openpal6RSliceERNS_12IAPDUHandlerE, .-_ZN8opendnp311RangeParser13InvokeRangeOfINS_10Group3Var2EEEvRKNS_12HeaderRecordERKNS_5RangeERKN7openpal6RSliceERNS_12IAPDUHandlerE
	.section	.text._ZNK8opendnp318BufferedCollectionINS_7IndexedINS_15DoubleBitBinaryEEEZNS_11RangeParser29InvokeRangeDoubleBitfieldTypeIS2_EEvRKNS_12HeaderRecordERKNS_5RangeERKN7openpal6RSliceERNS_12IAPDUHandlerEEUlRSD_jE_E7ForeachERNS_8IVisitorIS3_EE,"axG",@progbits,_ZNK8opendnp318BufferedCollectionINS_7IndexedINS_15DoubleBitBinaryEEEZNS_11RangeParser29InvokeRangeDoubleBitfieldTypeIS2_EEvRKNS_12HeaderRecordERKNS_5RangeERKN7openpal6RSliceERNS_12IAPDUHandlerEEUlRSD_jE_E7ForeachERNS_8IVisitorIS3_EE,comdat
	.align	2
	.p2align 4,,11
	.weak	_ZNK8opendnp318BufferedCollectionINS_7IndexedINS_15DoubleBitBinaryEEEZNS_11RangeParser29InvokeRangeDoubleBitfieldTypeIS2_EEvRKNS_12HeaderRecordERKNS_5RangeERKN7openpal6RSliceERNS_12IAPDUHandlerEEUlRSD_jE_E7ForeachERNS_8IVisitorIS3_EE
	.type	_ZNK8opendnp318BufferedCollectionINS_7IndexedINS_15DoubleBitBinaryEEEZNS_11RangeParser29InvokeRangeDoubleBitfieldTypeIS2_EEvRKNS_12HeaderRecordERKNS_5RangeERKN7openpal6RSliceERNS_12IAPDUHandlerEEUlRSD_jE_E7ForeachERNS_8IVisitorIS3_EE, %function
_ZNK8opendnp318BufferedCollectionINS_7IndexedINS_15DoubleBitBinaryEEEZNS_11RangeParser29InvokeRangeDoubleBitfieldTypeIS2_EEvRKNS_12HeaderRecordERKNS_5RangeERKN7openpal6RSliceERNS_12IAPDUHandlerEEUlRSD_jE_E7ForeachERNS_8IVisitorIS3_EE:
.LFB3663:
	.cfi_startproc
	stp	x29, x30, [sp, -160]!
	.cfi_def_cfa_offset 160
	.cfi_offset 29, -160
	.cfi_offset 30, -152
	adrp	x2, :got:__stack_chk_guard
	mov	x29, sp
	ldr	x2, [x2, #:got_lo12:__stack_chk_guard]
	stp	x21, x22, [sp, 32]
	.cfi_offset 21, -128
	.cfi_offset 22, -120
	mov	x22, x0
	stp	x23, x24, [sp, 48]
	.cfi_offset 23, -112
	.cfi_offset 24, -104
	mov	x23, x1
	ldr	x1, [x2]
	str	x1, [sp, 152]
	mov	x1, 0
	ldp	x2, x3, [x0, 8]
	stp	x2, x3, [sp, 80]
	ldr	x0, [x0, 24]
	cbz	x0, .L87
	add	x21, sp, 96
	stp	x19, x20, [sp, 16]
	.cfi_offset 20, -136
	.cfi_offset 19, -144
	add	x20, sp, 120
	str	x25, [sp, 64]
	.cfi_offset 25, -96
	add	x25, sp, 80
	mov	w19, 0
	.p2align 3,,7
.L89:
	ldr	x2, [x23]
	mov	w1, w19
	mov	x0, x25
	ldr	x24, [x2]
	bl	_ZN8opendnp312GetDoubleBitERKN7openpal6RSliceEj
	mov	w1, w0
	mov	x0, x21
	bl	_ZN8opendnp315DoubleBitBinaryC1ENS_9DoubleBitE
	ldp	x4, x5, [x21]
	stp	x4, x5, [x20]
	ldrh	w2, [x22, 32]
	ldr	x3, [x21, 16]
	add	w2, w19, w2
	str	x3, [x20, 16]
	mov	x0, x23
	strh	w2, [sp, 144]
	mov	x1, x20
	add	w19, w19, 1
	blr	x24
	ldr	x0, [x22, 24]
	cmp	x0, w19, uxtw
	bhi	.L89
	ldp	x19, x20, [sp, 16]
	.cfi_restore 20
	.cfi_restore 19
	ldr	x25, [sp, 64]
	.cfi_restore 25
.L87:
	adrp	x0, :got:__stack_chk_guard
	ldr	x0, [x0, #:got_lo12:__stack_chk_guard]
	ldr	x2, [sp, 152]
	ldr	x1, [x0]
	subs	x2, x2, x1
	mov	x1, 0
	bne	.L96
	ldp	x21, x22, [sp, 32]
	ldp	x23, x24, [sp, 48]
	ldp	x29, x30, [sp], 160
	.cfi_remember_state
	.cfi_restore 30
	.cfi_restore 29
	.cfi_restore 23
	.cfi_restore 24
	.cfi_restore 21
	.cfi_restore 22
	.cfi_def_cfa_offset 0
	ret
.L96:
	.cfi_restore_state
	stp	x19, x20, [sp, 16]
	.cfi_offset 20, -136
	.cfi_offset 19, -144
	str	x25, [sp, 64]
	.cfi_offset 25, -96
	bl	__stack_chk_fail
	.cfi_endproc
.LFE3663:
	.size	_ZNK8opendnp318BufferedCollectionINS_7IndexedINS_15DoubleBitBinaryEEEZNS_11RangeParser29InvokeRangeDoubleBitfieldTypeIS2_EEvRKNS_12HeaderRecordERKNS_5RangeERKN7openpal6RSliceERNS_12IAPDUHandlerEEUlRSD_jE_E7ForeachERNS_8IVisitorIS3_EE, .-_ZNK8opendnp318BufferedCollectionINS_7IndexedINS_15DoubleBitBinaryEEEZNS_11RangeParser29InvokeRangeDoubleBitfieldTypeIS2_EEvRKNS_12HeaderRecordERKNS_5RangeERKN7openpal6RSliceERNS_12IAPDUHandlerEEUlRSD_jE_E7ForeachERNS_8IVisitorIS3_EE
	.section	.text._ZN8opendnp311RangeParser23InvokeRangeBitfieldTypeINS_18BinaryOutputStatusEEEvRKNS_12HeaderRecordERKNS_5RangeERKN7openpal6RSliceERNS_12IAPDUHandlerE,"axG",@progbits,_ZN8opendnp311RangeParser23InvokeRangeBitfieldTypeINS_18BinaryOutputStatusEEEvRKNS_12HeaderRecordERKNS_5RangeERKN7openpal6RSliceERNS_12IAPDUHandlerE,comdat
	.align	2
	.p2align 4,,11
	.weak	_ZN8opendnp311RangeParser23InvokeRangeBitfieldTypeINS_18BinaryOutputStatusEEEvRKNS_12HeaderRecordERKNS_5RangeERKN7openpal6RSliceERNS_12IAPDUHandlerE
	.type	_ZN8opendnp311RangeParser23InvokeRangeBitfieldTypeINS_18BinaryOutputStatusEEEvRKNS_12HeaderRecordERKNS_5RangeERKN7openpal6RSliceERNS_12IAPDUHandlerE, %function
_ZN8opendnp311RangeParser23InvokeRangeBitfieldTypeINS_18BinaryOutputStatusEEEvRKNS_12HeaderRecordERKNS_5RangeERKN7openpal6RSliceERNS_12IAPDUHandlerE:
.LFB3003:
	.cfi_startproc
	stp	x29, x30, [sp, -96]!
	.cfi_def_cfa_offset 96
	.cfi_offset 29, -96
	.cfi_offset 30, -88
	adrp	x5, :got:__stack_chk_guard
	mov	x10, x0
	mov	x29, sp
	ldr	x7, [x5, #:got_lo12:__stack_chk_guard]
	adrp	x4, :got:_ZTVN8opendnp318BufferedCollectionINS_7IndexedINS_18BinaryOutputStatusEEEZNS_11RangeParser23InvokeRangeBitfieldTypeIS2_EEvRKNS_12HeaderRecordERKNS_5RangeERKN7openpal6RSliceERNS_12IAPDUHandlerEEUlRSD_jE_EE
	ldrh	w5, [x1, 2]
	mov	x0, x3
	ldrh	w6, [x1]
	ldr	x3, [x7]
	str	x3, [sp, 88]
	mov	x3, 0
	ldr	x4, [x4, #:got_lo12:_ZTVN8opendnp318BufferedCollectionINS_7IndexedINS_18BinaryOutputStatusEEEZNS_11RangeParser23InvokeRangeBitfieldTypeIS2_EEvRKNS_12HeaderRecordERKNS_5RangeERKN7openpal6RSliceERNS_12IAPDUHandlerEEUlRSD_jE_EE]
	add	w3, w5, 1
	ldp	x8, x9, [x2]
	cmp	w6, w5
	ldp	x10, x11, [x10]
	sub	w3, w3, w6
	ldr	w7, [x1]
	csel	x3, x3, xzr, ls
	add	x4, x4, 16
	add	x2, sp, 48
	add	x1, sp, 24
	stp	x10, x11, [sp, 24]
	str	w7, [sp, 40]
	str	x4, [sp, 48]
	stp	x8, x9, [sp, 56]
	str	x3, [sp, 72]
	strh	w6, [sp, 80]
	strh	w5, [sp, 82]
	bl	_ZN8opendnp312IAPDUHandler8OnHeaderERKNS_11RangeHeaderERKNS_11ICollectionINS_7IndexedINS_18BinaryOutputStatusEEEEE
	adrp	x0, :got:__stack_chk_guard
	ldr	x0, [x0, #:got_lo12:__stack_chk_guard]
	ldr	x2, [sp, 88]
	ldr	x1, [x0]
	subs	x2, x2, x1
	mov	x1, 0
	bne	.L102
	ldp	x29, x30, [sp], 96
	.cfi_remember_state
	.cfi_restore 30
	.cfi_restore 29
	.cfi_def_cfa_offset 0
	ret
.L102:
	.cfi_restore_state
	bl	__stack_chk_fail
	.cfi_endproc
.LFE3003:
	.size	_ZN8opendnp311RangeParser23InvokeRangeBitfieldTypeINS_18BinaryOutputStatusEEEvRKNS_12HeaderRecordERKNS_5RangeERKN7openpal6RSliceERNS_12IAPDUHandlerE, .-_ZN8opendnp311RangeParser23InvokeRangeBitfieldTypeINS_18BinaryOutputStatusEEEvRKNS_12HeaderRecordERKNS_5RangeERKN7openpal6RSliceERNS_12IAPDUHandlerE
	.section	.text._ZN8opendnp311RangeParser13InvokeRangeOfINS_11Group10Var2EEEvRKNS_12HeaderRecordERKNS_5RangeERKN7openpal6RSliceERNS_12IAPDUHandlerE,"axG",@progbits,_ZN8opendnp311RangeParser13InvokeRangeOfINS_11Group10Var2EEEvRKNS_12HeaderRecordERKNS_5RangeERKN7openpal6RSliceERNS_12IAPDUHandlerE,comdat
	.align	2
	.p2align 4,,11
	.weak	_ZN8opendnp311RangeParser13InvokeRangeOfINS_11Group10Var2EEEvRKNS_12HeaderRecordERKNS_5RangeERKN7openpal6RSliceERNS_12IAPDUHandlerE
	.type	_ZN8opendnp311RangeParser13InvokeRangeOfINS_11Group10Var2EEEvRKNS_12HeaderRecordERKNS_5RangeERKN7openpal6RSliceERNS_12IAPDUHandlerE, %function
_ZN8opendnp311RangeParser13InvokeRangeOfINS_11Group10Var2EEEvRKNS_12HeaderRecordERKNS_5RangeERKN7openpal6RSliceERNS_12IAPDUHandlerE:
.LFB3016:
	.cfi_startproc
	stp	x29, x30, [sp, -96]!
	.cfi_def_cfa_offset 96
	.cfi_offset 29, -96
	.cfi_offset 30, -88
	adrp	x5, :got:__stack_chk_guard
	mov	x10, x0
	mov	x29, sp
	ldr	x7, [x5, #:got_lo12:__stack_chk_guard]
	adrp	x4, :got:_ZTVN8opendnp318BufferedCollectionINS_7IndexedINS_18BinaryOutputStatusEEEZNS_11RangeParser13InvokeRangeOfINS_11Group10Var2EEEvRKNS_12HeaderRecordERKNS_5RangeERKN7openpal6RSliceERNS_12IAPDUHandlerEEUlRSE_jE_EE
	ldrh	w5, [x1, 2]
	mov	x0, x3
	ldrh	w6, [x1]
	ldr	x3, [x7]
	str	x3, [sp, 88]
	mov	x3, 0
	ldr	x4, [x4, #:got_lo12:_ZTVN8opendnp318BufferedCollectionINS_7IndexedINS_18BinaryOutputStatusEEEZNS_11RangeParser13InvokeRangeOfINS_11Group10Var2EEEvRKNS_12HeaderRecordERKNS_5RangeERKN7openpal6RSliceERNS_12IAPDUHandlerEEUlRSE_jE_EE]
	add	w3, w5, 1
	ldp	x8, x9, [x2]
	cmp	w6, w5
	ldp	x10, x11, [x10]
	sub	w3, w3, w6
	ldr	w7, [x1]
	csel	x3, x3, xzr, ls
	add	x4, x4, 16
	add	x2, sp, 48
	add	x1, sp, 24
	stp	x10, x11, [sp, 24]
	str	w7, [sp, 40]
	str	x4, [sp, 48]
	stp	x8, x9, [sp, 56]
	str	x3, [sp, 72]
	strh	w6, [sp, 80]
	strh	w5, [sp, 82]
	bl	_ZN8opendnp312IAPDUHandler8OnHeaderERKNS_11RangeHeaderERKNS_11ICollectionINS_7IndexedINS_18BinaryOutputStatusEEEEE
	adrp	x0, :got:__stack_chk_guard
	ldr	x0, [x0, #:got_lo12:__stack_chk_guard]
	ldr	x2, [sp, 88]
	ldr	x1, [x0]
	subs	x2, x2, x1
	mov	x1, 0
	bne	.L108
	ldp	x29, x30, [sp], 96
	.cfi_remember_state
	.cfi_restore 30
	.cfi_restore 29
	.cfi_def_cfa_offset 0
	ret
.L108:
	.cfi_restore_state
	bl	__stack_chk_fail
	.cfi_endproc
.LFE3016:
	.size	_ZN8opendnp311RangeParser13InvokeRangeOfINS_11Group10Var2EEEvRKNS_12HeaderRecordERKNS_5RangeERKN7openpal6RSliceERNS_12IAPDUHandlerE, .-_ZN8opendnp311RangeParser13InvokeRangeOfINS_11Group10Var2EEEvRKNS_12HeaderRecordERKNS_5RangeERKN7openpal6RSliceERNS_12IAPDUHandlerE
	.section	.text._ZNK8opendnp318BufferedCollectionINS_7IndexedINS_18BinaryOutputStatusEEEZNS_11RangeParser23InvokeRangeBitfieldTypeIS2_EEvRKNS_12HeaderRecordERKNS_5RangeERKN7openpal6RSliceERNS_12IAPDUHandlerEEUlRSD_jE_E7ForeachERNS_8IVisitorIS3_EE,"axG",@progbits,_ZNK8opendnp318BufferedCollectionINS_7IndexedINS_18BinaryOutputStatusEEEZNS_11RangeParser23InvokeRangeBitfieldTypeIS2_EEvRKNS_12HeaderRecordERKNS_5RangeERKN7openpal6RSliceERNS_12IAPDUHandlerEEUlRSD_jE_E7ForeachERNS_8IVisitorIS3_EE,comdat
	.align	2
	.p2align 4,,11
	.weak	_ZNK8opendnp318BufferedCollectionINS_7IndexedINS_18BinaryOutputStatusEEEZNS_11RangeParser23InvokeRangeBitfieldTypeIS2_EEvRKNS_12HeaderRecordERKNS_5RangeERKN7openpal6RSliceERNS_12IAPDUHandlerEEUlRSD_jE_E7ForeachERNS_8IVisitorIS3_EE
	.type	_ZNK8opendnp318BufferedCollectionINS_7IndexedINS_18BinaryOutputStatusEEEZNS_11RangeParser23InvokeRangeBitfieldTypeIS2_EEvRKNS_12HeaderRecordERKNS_5RangeERKN7openpal6RSliceERNS_12IAPDUHandlerEEUlRSD_jE_E7ForeachERNS_8IVisitorIS3_EE, %function
_ZNK8opendnp318BufferedCollectionINS_7IndexedINS_18BinaryOutputStatusEEEZNS_11RangeParser23InvokeRangeBitfieldTypeIS2_EEvRKNS_12HeaderRecordERKNS_5RangeERKN7openpal6RSliceERNS_12IAPDUHandlerEEUlRSD_jE_E7ForeachERNS_8IVisitorIS3_EE:
.LFB3661:
	.cfi_startproc
	stp	x29, x30, [sp, -160]!
	.cfi_def_cfa_offset 160
	.cfi_offset 29, -160
	.cfi_offset 30, -152
	adrp	x2, :got:__stack_chk_guard
	mov	x29, sp
	ldr	x2, [x2, #:got_lo12:__stack_chk_guard]
	stp	x21, x22, [sp, 32]
	.cfi_offset 21, -128
	.cfi_offset 22, -120
	mov	x22, x0
	stp	x23, x24, [sp, 48]
	.cfi_offset 23, -112
	.cfi_offset 24, -104
	mov	x23, x1
	ldr	x1, [x2]
	str	x1, [sp, 152]
	mov	x1, 0
	ldp	x2, x3, [x0, 8]
	stp	x2, x3, [sp, 80]
	ldr	x0, [x0, 24]
	cbz	x0, .L109
	add	x21, sp, 96
	stp	x19, x20, [sp, 16]
	.cfi_offset 20, -136
	.cfi_offset 19, -144
	add	x20, sp, 120
	str	x25, [sp, 64]
	.cfi_offset 25, -96
	add	x25, sp, 80
	mov	w19, 0
	.p2align 3,,7
.L111:
	ldr	x2, [x23]
	mov	w1, w19
	mov	x0, x25
	ldr	x24, [x2]
	bl	_ZN8opendnp36GetBitERKN7openpal6RSliceEj
	mov	w1, w0
	mov	x0, x21
	bl	_ZN8opendnp318BinaryOutputStatusC1Eb
	ldp	x4, x5, [x21]
	stp	x4, x5, [x20]
	ldrh	w2, [x22, 32]
	ldr	x3, [x21, 16]
	add	w2, w19, w2
	str	x3, [x20, 16]
	mov	x0, x23
	strh	w2, [sp, 144]
	mov	x1, x20
	add	w19, w19, 1
	blr	x24
	ldr	x0, [x22, 24]
	cmp	x0, w19, uxtw
	bhi	.L111
	ldp	x19, x20, [sp, 16]
	.cfi_restore 20
	.cfi_restore 19
	ldr	x25, [sp, 64]
	.cfi_restore 25
.L109:
	adrp	x0, :got:__stack_chk_guard
	ldr	x0, [x0, #:got_lo12:__stack_chk_guard]
	ldr	x2, [sp, 152]
	ldr	x1, [x0]
	subs	x2, x2, x1
	mov	x1, 0
	bne	.L118
	ldp	x21, x22, [sp, 32]
	ldp	x23, x24, [sp, 48]
	ldp	x29, x30, [sp], 160
	.cfi_remember_state
	.cfi_restore 30
	.cfi_restore 29
	.cfi_restore 23
	.cfi_restore 24
	.cfi_restore 21
	.cfi_restore 22
	.cfi_def_cfa_offset 0
	ret
.L118:
	.cfi_restore_state
	stp	x19, x20, [sp, 16]
	.cfi_offset 20, -136
	.cfi_offset 19, -144
	str	x25, [sp, 64]
	.cfi_offset 25, -96
	bl	__stack_chk_fail
	.cfi_endproc
.LFE3661:
	.size	_ZNK8opendnp318BufferedCollectionINS_7IndexedINS_18BinaryOutputStatusEEEZNS_11RangeParser23InvokeRangeBitfieldTypeIS2_EEvRKNS_12HeaderRecordERKNS_5RangeERKN7openpal6RSliceERNS_12IAPDUHandlerEEUlRSD_jE_E7ForeachERNS_8IVisitorIS3_EE, .-_ZNK8opendnp318BufferedCollectionINS_7IndexedINS_18BinaryOutputStatusEEEZNS_11RangeParser23InvokeRangeBitfieldTypeIS2_EEvRKNS_12HeaderRecordERKNS_5RangeERKN7openpal6RSliceERNS_12IAPDUHandlerEEUlRSD_jE_E7ForeachERNS_8IVisitorIS3_EE
	.section	.text._ZNK8opendnp318BufferedCollectionINS_7IndexedINS_15DoubleBitBinaryEEEZNS_11RangeParser13InvokeRangeOfINS_10Group3Var2EEEvRKNS_12HeaderRecordERKNS_5RangeERKN7openpal6RSliceERNS_12IAPDUHandlerEEUlRSE_jE_E7ForeachERNS_8IVisitorIS3_EE,"axG",@progbits,_ZNK8opendnp318BufferedCollectionINS_7IndexedINS_15DoubleBitBinaryEEEZNS_11RangeParser13InvokeRangeOfINS_10Group3Var2EEEvRKNS_12HeaderRecordERKNS_5RangeERKN7openpal6RSliceERNS_12IAPDUHandlerEEUlRSE_jE_E7ForeachERNS_8IVisitorIS3_EE,comdat
	.align	2
	.p2align 4,,11
	.weak	_ZNK8opendnp318BufferedCollectionINS_7IndexedINS_15DoubleBitBinaryEEEZNS_11RangeParser13InvokeRangeOfINS_10Group3Var2EEEvRKNS_12HeaderRecordERKNS_5RangeERKN7openpal6RSliceERNS_12IAPDUHandlerEEUlRSE_jE_E7ForeachERNS_8IVisitorIS3_EE
	.type	_ZNK8opendnp318BufferedCollectionINS_7IndexedINS_15DoubleBitBinaryEEEZNS_11RangeParser13InvokeRangeOfINS_10Group3Var2EEEvRKNS_12HeaderRecordERKNS_5RangeERKN7openpal6RSliceERNS_12IAPDUHandlerEEUlRSE_jE_E7ForeachERNS_8IVisitorIS3_EE, %function
_ZNK8opendnp318BufferedCollectionINS_7IndexedINS_15DoubleBitBinaryEEEZNS_11RangeParser13InvokeRangeOfINS_10Group3Var2EEEvRKNS_12HeaderRecordERKNS_5RangeERKN7openpal6RSliceERNS_12IAPDUHandlerEEUlRSE_jE_E7ForeachERNS_8IVisitorIS3_EE:
.LFB3659:
	.cfi_startproc
	stp	x29, x30, [sp, -160]!
	.cfi_def_cfa_offset 160
	.cfi_offset 29, -160
	.cfi_offset 30, -152
	adrp	x2, :got:__stack_chk_guard
	mov	x29, sp
	ldr	x2, [x2, #:got_lo12:__stack_chk_guard]
	stp	x21, x22, [sp, 32]
	.cfi_offset 21, -128
	.cfi_offset 22, -120
	mov	x22, x0
	stp	x23, x24, [sp, 48]
	.cfi_offset 23, -112
	.cfi_offset 24, -104
	mov	x23, x1
	ldr	x1, [x2]
	str	x1, [sp, 152]
	mov	x1, 0
	ldp	x2, x3, [x0, 8]
	stp	x2, x3, [sp, 80]
	ldr	x0, [x0, 24]
	cbz	x0, .L119
	add	x24, sp, 80
	add	x21, sp, 120
	stp	x19, x20, [sp, 16]
	.cfi_offset 20, -136
	.cfi_offset 19, -144
	add	x20, sp, 96
	mov	w19, 0
	str	x25, [sp, 64]
	.cfi_offset 25, -96
	.p2align 3,,7
.L121:
	ldr	x1, [x23]
	mov	x0, x20
	ldr	x25, [x1]
	bl	_ZN8opendnp315DoubleBitBinaryC1Ev
	mov	x1, x20
	mov	x0, x24
	bl	_ZN8opendnp310Group3Var210ReadTargetERN7openpal6RSliceERNS_15DoubleBitBinaryE
	ldrh	w2, [x22, 32]
	ldr	x3, [x20, 16]
	add	w2, w19, w2
	ldp	x0, x1, [x20]
	stp	x0, x1, [x21]
	add	w19, w19, 1
	str	x3, [x21, 16]
	mov	x0, x23
	strh	w2, [sp, 144]
	mov	x1, x21
	blr	x25
	ldr	x0, [x22, 24]
	cmp	x0, w19, uxtw
	bhi	.L121
	ldp	x19, x20, [sp, 16]
	.cfi_restore 20
	.cfi_restore 19
	ldr	x25, [sp, 64]
	.cfi_restore 25
.L119:
	adrp	x0, :got:__stack_chk_guard
	ldr	x0, [x0, #:got_lo12:__stack_chk_guard]
	ldr	x2, [sp, 152]
	ldr	x1, [x0]
	subs	x2, x2, x1
	mov	x1, 0
	bne	.L128
	ldp	x21, x22, [sp, 32]
	ldp	x23, x24, [sp, 48]
	ldp	x29, x30, [sp], 160
	.cfi_remember_state
	.cfi_restore 30
	.cfi_restore 29
	.cfi_restore 23
	.cfi_restore 24
	.cfi_restore 21
	.cfi_restore 22
	.cfi_def_cfa_offset 0
	ret
.L128:
	.cfi_restore_state
	stp	x19, x20, [sp, 16]
	.cfi_offset 20, -136
	.cfi_offset 19, -144
	str	x25, [sp, 64]
	.cfi_offset 25, -96
	bl	__stack_chk_fail
	.cfi_endproc
.LFE3659:
	.size	_ZNK8opendnp318BufferedCollectionINS_7IndexedINS_15DoubleBitBinaryEEEZNS_11RangeParser13InvokeRangeOfINS_10Group3Var2EEEvRKNS_12HeaderRecordERKNS_5RangeERKN7openpal6RSliceERNS_12IAPDUHandlerEEUlRSE_jE_E7ForeachERNS_8IVisitorIS3_EE, .-_ZNK8opendnp318BufferedCollectionINS_7IndexedINS_15DoubleBitBinaryEEEZNS_11RangeParser13InvokeRangeOfINS_10Group3Var2EEEvRKNS_12HeaderRecordERKNS_5RangeERKN7openpal6RSliceERNS_12IAPDUHandlerEEUlRSE_jE_E7ForeachERNS_8IVisitorIS3_EE
	.section	.text._ZNK8opendnp318BufferedCollectionINS_7IndexedINS_18BinaryOutputStatusEEEZNS_11RangeParser13InvokeRangeOfINS_11Group10Var2EEEvRKNS_12HeaderRecordERKNS_5RangeERKN7openpal6RSliceERNS_12IAPDUHandlerEEUlRSE_jE_E7ForeachERNS_8IVisitorIS3_EE,"axG",@progbits,_ZNK8opendnp318BufferedCollectionINS_7IndexedINS_18BinaryOutputStatusEEEZNS_11RangeParser13InvokeRangeOfINS_11Group10Var2EEEvRKNS_12HeaderRecordERKNS_5RangeERKN7openpal6RSliceERNS_12IAPDUHandlerEEUlRSE_jE_E7ForeachERNS_8IVisitorIS3_EE,comdat
	.align	2
	.p2align 4,,11
	.weak	_ZNK8opendnp318BufferedCollectionINS_7IndexedINS_18BinaryOutputStatusEEEZNS_11RangeParser13InvokeRangeOfINS_11Group10Var2EEEvRKNS_12HeaderRecordERKNS_5RangeERKN7openpal6RSliceERNS_12IAPDUHandlerEEUlRSE_jE_E7ForeachERNS_8IVisitorIS3_EE
	.type	_ZNK8opendnp318BufferedCollectionINS_7IndexedINS_18BinaryOutputStatusEEEZNS_11RangeParser13InvokeRangeOfINS_11Group10Var2EEEvRKNS_12HeaderRecordERKNS_5RangeERKN7openpal6RSliceERNS_12IAPDUHandlerEEUlRSE_jE_E7ForeachERNS_8IVisitorIS3_EE, %function
_ZNK8opendnp318BufferedCollectionINS_7IndexedINS_18BinaryOutputStatusEEEZNS_11RangeParser13InvokeRangeOfINS_11Group10Var2EEEvRKNS_12HeaderRecordERKNS_5RangeERKN7openpal6RSliceERNS_12IAPDUHandlerEEUlRSE_jE_E7ForeachERNS_8IVisitorIS3_EE:
.LFB3657:
	.cfi_startproc
	stp	x29, x30, [sp, -160]!
	.cfi_def_cfa_offset 160
	.cfi_offset 29, -160
	.cfi_offset 30, -152
	adrp	x2, :got:__stack_chk_guard
	mov	x29, sp
	ldr	x2, [x2, #:got_lo12:__stack_chk_guard]
	stp	x21, x22, [sp, 32]
	.cfi_offset 21, -128
	.cfi_offset 22, -120
	mov	x22, x0
	stp	x23, x24, [sp, 48]
	.cfi_offset 23, -112
	.cfi_offset 24, -104
	mov	x23, x1
	ldr	x1, [x2]
	str	x1, [sp, 152]
	mov	x1, 0
	ldp	x2, x3, [x0, 8]
	stp	x2, x3, [sp, 80]
	ldr	x0, [x0, 24]
	cbz	x0, .L129
	add	x24, sp, 80
	add	x21, sp, 120
	stp	x19, x20, [sp, 16]
	.cfi_offset 20, -136
	.cfi_offset 19, -144
	add	x20, sp, 96
	mov	w19, 0
	str	x25, [sp, 64]
	.cfi_offset 25, -96
	.p2align 3,,7
.L131:
	ldr	x1, [x23]
	mov	x0, x20
	ldr	x25, [x1]
	bl	_ZN8opendnp318BinaryOutputStatusC1Ev
	mov	x1, x20
	mov	x0, x24
	bl	_ZN8opendnp311Group10Var210ReadTargetERN7openpal6RSliceERNS_18BinaryOutputStatusE
	ldrh	w2, [x22, 32]
	ldr	x3, [x20, 16]
	add	w2, w19, w2
	ldp	x0, x1, [x20]
	stp	x0, x1, [x21]
	add	w19, w19, 1
	str	x3, [x21, 16]
	mov	x0, x23
	strh	w2, [sp, 144]
	mov	x1, x21
	blr	x25
	ldr	x0, [x22, 24]
	cmp	x0, w19, uxtw
	bhi	.L131
	ldp	x19, x20, [sp, 16]
	.cfi_restore 20
	.cfi_restore 19
	ldr	x25, [sp, 64]
	.cfi_restore 25
.L129:
	adrp	x0, :got:__stack_chk_guard
	ldr	x0, [x0, #:got_lo12:__stack_chk_guard]
	ldr	x2, [sp, 152]
	ldr	x1, [x0]
	subs	x2, x2, x1
	mov	x1, 0
	bne	.L138
	ldp	x21, x22, [sp, 32]
	ldp	x23, x24, [sp, 48]
	ldp	x29, x30, [sp], 160
	.cfi_remember_state
	.cfi_restore 30
	.cfi_restore 29
	.cfi_restore 23
	.cfi_restore 24
	.cfi_restore 21
	.cfi_restore 22
	.cfi_def_cfa_offset 0
	ret
.L138:
	.cfi_restore_state
	stp	x19, x20, [sp, 16]
	.cfi_offset 20, -136
	.cfi_offset 19, -144
	str	x25, [sp, 64]
	.cfi_offset 25, -96
	bl	__stack_chk_fail
	.cfi_endproc
.LFE3657:
	.size	_ZNK8opendnp318BufferedCollectionINS_7IndexedINS_18BinaryOutputStatusEEEZNS_11RangeParser13InvokeRangeOfINS_11Group10Var2EEEvRKNS_12HeaderRecordERKNS_5RangeERKN7openpal6RSliceERNS_12IAPDUHandlerEEUlRSE_jE_E7ForeachERNS_8IVisitorIS3_EE, .-_ZNK8opendnp318BufferedCollectionINS_7IndexedINS_18BinaryOutputStatusEEEZNS_11RangeParser13InvokeRangeOfINS_11Group10Var2EEEvRKNS_12HeaderRecordERKNS_5RangeERKN7openpal6RSliceERNS_12IAPDUHandlerEEUlRSE_jE_E7ForeachERNS_8IVisitorIS3_EE
	.section	.text._ZN8opendnp311RangeParser13InvokeRangeOfINS_11Group20Var1EEEvRKNS_12HeaderRecordERKNS_5RangeERKN7openpal6RSliceERNS_12IAPDUHandlerE,"axG",@progbits,_ZN8opendnp311RangeParser13InvokeRangeOfINS_11Group20Var1EEEvRKNS_12HeaderRecordERKNS_5RangeERKN7openpal6RSliceERNS_12IAPDUHandlerE,comdat
	.align	2
	.p2align 4,,11
	.weak	_ZN8opendnp311RangeParser13InvokeRangeOfINS_11Group20Var1EEEvRKNS_12HeaderRecordERKNS_5RangeERKN7openpal6RSliceERNS_12IAPDUHandlerE
	.type	_ZN8opendnp311RangeParser13InvokeRangeOfINS_11Group20Var1EEEvRKNS_12HeaderRecordERKNS_5RangeERKN7openpal6RSliceERNS_12IAPDUHandlerE, %function
_ZN8opendnp311RangeParser13InvokeRangeOfINS_11Group20Var1EEEvRKNS_12HeaderRecordERKNS_5RangeERKN7openpal6RSliceERNS_12IAPDUHandlerE:
.LFB3021:
	.cfi_startproc
	stp	x29, x30, [sp, -96]!
	.cfi_def_cfa_offset 96
	.cfi_offset 29, -96
	.cfi_offset 30, -88
	adrp	x5, :got:__stack_chk_guard
	mov	x10, x0
	mov	x29, sp
	ldr	x7, [x5, #:got_lo12:__stack_chk_guard]
	adrp	x4, :got:_ZTVN8opendnp318BufferedCollectionINS_7IndexedINS_7CounterEEEZNS_11RangeParser13InvokeRangeOfINS_11Group20Var1EEEvRKNS_12HeaderRecordERKNS_5RangeERKN7openpal6RSliceERNS_12IAPDUHandlerEEUlRSE_jE_EE
	ldrh	w5, [x1, 2]
	mov	x0, x3
	ldrh	w6, [x1]
	ldr	x3, [x7]
	str	x3, [sp, 88]
	mov	x3, 0
	ldr	x4, [x4, #:got_lo12:_ZTVN8opendnp318BufferedCollectionINS_7IndexedINS_7CounterEEEZNS_11RangeParser13InvokeRangeOfINS_11Group20Var1EEEvRKNS_12HeaderRecordERKNS_5RangeERKN7openpal6RSliceERNS_12IAPDUHandlerEEUlRSE_jE_EE]
	add	w3, w5, 1
	ldp	x8, x9, [x2]
	cmp	w6, w5
	ldp	x10, x11, [x10]
	sub	w3, w3, w6
	ldr	w7, [x1]
	csel	x3, x3, xzr, ls
	add	x4, x4, 16
	add	x2, sp, 48
	add	x1, sp, 24
	stp	x10, x11, [sp, 24]
	str	w7, [sp, 40]
	str	x4, [sp, 48]
	stp	x8, x9, [sp, 56]
	str	x3, [sp, 72]
	strh	w6, [sp, 80]
	strh	w5, [sp, 82]
	bl	_ZN8opendnp312IAPDUHandler8OnHeaderERKNS_11RangeHeaderERKNS_11ICollectionINS_7IndexedINS_7CounterEEEEE
	adrp	x0, :got:__stack_chk_guard
	ldr	x0, [x0, #:got_lo12:__stack_chk_guard]
	ldr	x2, [sp, 88]
	ldr	x1, [x0]
	subs	x2, x2, x1
	mov	x1, 0
	bne	.L144
	ldp	x29, x30, [sp], 96
	.cfi_remember_state
	.cfi_restore 30
	.cfi_restore 29
	.cfi_def_cfa_offset 0
	ret
.L144:
	.cfi_restore_state
	bl	__stack_chk_fail
	.cfi_endproc
.LFE3021:
	.size	_ZN8opendnp311RangeParser13InvokeRangeOfINS_11Group20Var1EEEvRKNS_12HeaderRecordERKNS_5RangeERKN7openpal6RSliceERNS_12IAPDUHandlerE, .-_ZN8opendnp311RangeParser13InvokeRangeOfINS_11Group20Var1EEEvRKNS_12HeaderRecordERKNS_5RangeERKN7openpal6RSliceERNS_12IAPDUHandlerE
	.section	.text._ZN8opendnp311RangeParser13InvokeRangeOfINS_11Group20Var2EEEvRKNS_12HeaderRecordERKNS_5RangeERKN7openpal6RSliceERNS_12IAPDUHandlerE,"axG",@progbits,_ZN8opendnp311RangeParser13InvokeRangeOfINS_11Group20Var2EEEvRKNS_12HeaderRecordERKNS_5RangeERKN7openpal6RSliceERNS_12IAPDUHandlerE,comdat
	.align	2
	.p2align 4,,11
	.weak	_ZN8opendnp311RangeParser13InvokeRangeOfINS_11Group20Var2EEEvRKNS_12HeaderRecordERKNS_5RangeERKN7openpal6RSliceERNS_12IAPDUHandlerE
	.type	_ZN8opendnp311RangeParser13InvokeRangeOfINS_11Group20Var2EEEvRKNS_12HeaderRecordERKNS_5RangeERKN7openpal6RSliceERNS_12IAPDUHandlerE, %function
_ZN8opendnp311RangeParser13InvokeRangeOfINS_11Group20Var2EEEvRKNS_12HeaderRecordERKNS_5RangeERKN7openpal6RSliceERNS_12IAPDUHandlerE:
.LFB3029:
	.cfi_startproc
	stp	x29, x30, [sp, -96]!
	.cfi_def_cfa_offset 96
	.cfi_offset 29, -96
	.cfi_offset 30, -88
	adrp	x5, :got:__stack_chk_guard
	mov	x10, x0
	mov	x29, sp
	ldr	x7, [x5, #:got_lo12:__stack_chk_guard]
	adrp	x4, :got:_ZTVN8opendnp318BufferedCollectionINS_7IndexedINS_7CounterEEEZNS_11RangeParser13InvokeRangeOfINS_11Group20Var2EEEvRKNS_12HeaderRecordERKNS_5RangeERKN7openpal6RSliceERNS_12IAPDUHandlerEEUlRSE_jE_EE
	ldrh	w5, [x1, 2]
	mov	x0, x3
	ldrh	w6, [x1]
	ldr	x3, [x7]
	str	x3, [sp, 88]
	mov	x3, 0
	ldr	x4, [x4, #:got_lo12:_ZTVN8opendnp318BufferedCollectionINS_7IndexedINS_7CounterEEEZNS_11RangeParser13InvokeRangeOfINS_11Group20Var2EEEvRKNS_12HeaderRecordERKNS_5RangeERKN7openpal6RSliceERNS_12IAPDUHandlerEEUlRSE_jE_EE]
	add	w3, w5, 1
	ldp	x8, x9, [x2]
	cmp	w6, w5
	ldp	x10, x11, [x10]
	sub	w3, w3, w6
	ldr	w7, [x1]
	csel	x3, x3, xzr, ls
	add	x4, x4, 16
	add	x2, sp, 48
	add	x1, sp, 24
	stp	x10, x11, [sp, 24]
	str	w7, [sp, 40]
	str	x4, [sp, 48]
	stp	x8, x9, [sp, 56]
	str	x3, [sp, 72]
	strh	w6, [sp, 80]
	strh	w5, [sp, 82]
	bl	_ZN8opendnp312IAPDUHandler8OnHeaderERKNS_11RangeHeaderERKNS_11ICollectionINS_7IndexedINS_7CounterEEEEE
	adrp	x0, :got:__stack_chk_guard
	ldr	x0, [x0, #:got_lo12:__stack_chk_guard]
	ldr	x2, [sp, 88]
	ldr	x1, [x0]
	subs	x2, x2, x1
	mov	x1, 0
	bne	.L150
	ldp	x29, x30, [sp], 96
	.cfi_remember_state
	.cfi_restore 30
	.cfi_restore 29
	.cfi_def_cfa_offset 0
	ret
.L150:
	.cfi_restore_state
	bl	__stack_chk_fail
	.cfi_endproc
.LFE3029:
	.size	_ZN8opendnp311RangeParser13InvokeRangeOfINS_11Group20Var2EEEvRKNS_12HeaderRecordERKNS_5RangeERKN7openpal6RSliceERNS_12IAPDUHandlerE, .-_ZN8opendnp311RangeParser13InvokeRangeOfINS_11Group20Var2EEEvRKNS_12HeaderRecordERKNS_5RangeERKN7openpal6RSliceERNS_12IAPDUHandlerE
	.section	.text._ZN8opendnp311RangeParser13InvokeRangeOfINS_11Group20Var5EEEvRKNS_12HeaderRecordERKNS_5RangeERKN7openpal6RSliceERNS_12IAPDUHandlerE,"axG",@progbits,_ZN8opendnp311RangeParser13InvokeRangeOfINS_11Group20Var5EEEvRKNS_12HeaderRecordERKNS_5RangeERKN7openpal6RSliceERNS_12IAPDUHandlerE,comdat
	.align	2
	.p2align 4,,11
	.weak	_ZN8opendnp311RangeParser13InvokeRangeOfINS_11Group20Var5EEEvRKNS_12HeaderRecordERKNS_5RangeERKN7openpal6RSliceERNS_12IAPDUHandlerE
	.type	_ZN8opendnp311RangeParser13InvokeRangeOfINS_11Group20Var5EEEvRKNS_12HeaderRecordERKNS_5RangeERKN7openpal6RSliceERNS_12IAPDUHandlerE, %function
_ZN8opendnp311RangeParser13InvokeRangeOfINS_11Group20Var5EEEvRKNS_12HeaderRecordERKNS_5RangeERKN7openpal6RSliceERNS_12IAPDUHandlerE:
.LFB3034:
	.cfi_startproc
	stp	x29, x30, [sp, -96]!
	.cfi_def_cfa_offset 96
	.cfi_offset 29, -96
	.cfi_offset 30, -88
	adrp	x5, :got:__stack_chk_guard
	mov	x10, x0
	mov	x29, sp
	ldr	x7, [x5, #:got_lo12:__stack_chk_guard]
	adrp	x4, :got:_ZTVN8opendnp318BufferedCollectionINS_7IndexedINS_7CounterEEEZNS_11RangeParser13InvokeRangeOfINS_11Group20Var5EEEvRKNS_12HeaderRecordERKNS_5RangeERKN7openpal6RSliceERNS_12IAPDUHandlerEEUlRSE_jE_EE
	ldrh	w5, [x1, 2]
	mov	x0, x3
	ldrh	w6, [x1]
	ldr	x3, [x7]
	str	x3, [sp, 88]
	mov	x3, 0
	ldr	x4, [x4, #:got_lo12:_ZTVN8opendnp318BufferedCollectionINS_7IndexedINS_7CounterEEEZNS_11RangeParser13InvokeRangeOfINS_11Group20Var5EEEvRKNS_12HeaderRecordERKNS_5RangeERKN7openpal6RSliceERNS_12IAPDUHandlerEEUlRSE_jE_EE]
	add	w3, w5, 1
	ldp	x8, x9, [x2]
	cmp	w6, w5
	ldp	x10, x11, [x10]
	sub	w3, w3, w6
	ldr	w7, [x1]
	csel	x3, x3, xzr, ls
	add	x4, x4, 16
	add	x2, sp, 48
	add	x1, sp, 24
	stp	x10, x11, [sp, 24]
	str	w7, [sp, 40]
	str	x4, [sp, 48]
	stp	x8, x9, [sp, 56]
	str	x3, [sp, 72]
	strh	w6, [sp, 80]
	strh	w5, [sp, 82]
	bl	_ZN8opendnp312IAPDUHandler8OnHeaderERKNS_11RangeHeaderERKNS_11ICollectionINS_7IndexedINS_7CounterEEEEE
	adrp	x0, :got:__stack_chk_guard
	ldr	x0, [x0, #:got_lo12:__stack_chk_guard]
	ldr	x2, [sp, 88]
	ldr	x1, [x0]
	subs	x2, x2, x1
	mov	x1, 0
	bne	.L156
	ldp	x29, x30, [sp], 96
	.cfi_remember_state
	.cfi_restore 30
	.cfi_restore 29
	.cfi_def_cfa_offset 0
	ret
.L156:
	.cfi_restore_state
	bl	__stack_chk_fail
	.cfi_endproc
.LFE3034:
	.size	_ZN8opendnp311RangeParser13InvokeRangeOfINS_11Group20Var5EEEvRKNS_12HeaderRecordERKNS_5RangeERKN7openpal6RSliceERNS_12IAPDUHandlerE, .-_ZN8opendnp311RangeParser13InvokeRangeOfINS_11Group20Var5EEEvRKNS_12HeaderRecordERKNS_5RangeERKN7openpal6RSliceERNS_12IAPDUHandlerE
	.section	.text._ZN8opendnp311RangeParser13InvokeRangeOfINS_11Group20Var6EEEvRKNS_12HeaderRecordERKNS_5RangeERKN7openpal6RSliceERNS_12IAPDUHandlerE,"axG",@progbits,_ZN8opendnp311RangeParser13InvokeRangeOfINS_11Group20Var6EEEvRKNS_12HeaderRecordERKNS_5RangeERKN7openpal6RSliceERNS_12IAPDUHandlerE,comdat
	.align	2
	.p2align 4,,11
	.weak	_ZN8opendnp311RangeParser13InvokeRangeOfINS_11Group20Var6EEEvRKNS_12HeaderRecordERKNS_5RangeERKN7openpal6RSliceERNS_12IAPDUHandlerE
	.type	_ZN8opendnp311RangeParser13InvokeRangeOfINS_11Group20Var6EEEvRKNS_12HeaderRecordERKNS_5RangeERKN7openpal6RSliceERNS_12IAPDUHandlerE, %function
_ZN8opendnp311RangeParser13InvokeRangeOfINS_11Group20Var6EEEvRKNS_12HeaderRecordERKNS_5RangeERKN7openpal6RSliceERNS_12IAPDUHandlerE:
.LFB3039:
	.cfi_startproc
	stp	x29, x30, [sp, -96]!
	.cfi_def_cfa_offset 96
	.cfi_offset 29, -96
	.cfi_offset 30, -88
	adrp	x5, :got:__stack_chk_guard
	mov	x10, x0
	mov	x29, sp
	ldr	x7, [x5, #:got_lo12:__stack_chk_guard]
	adrp	x4, :got:_ZTVN8opendnp318BufferedCollectionINS_7IndexedINS_7CounterEEEZNS_11RangeParser13InvokeRangeOfINS_11Group20Var6EEEvRKNS_12HeaderRecordERKNS_5RangeERKN7openpal6RSliceERNS_12IAPDUHandlerEEUlRSE_jE_EE
	ldrh	w5, [x1, 2]
	mov	x0, x3
	ldrh	w6, [x1]
	ldr	x3, [x7]
	str	x3, [sp, 88]
	mov	x3, 0
	ldr	x4, [x4, #:got_lo12:_ZTVN8opendnp318BufferedCollectionINS_7IndexedINS_7CounterEEEZNS_11RangeParser13InvokeRangeOfINS_11Group20Var6EEEvRKNS_12HeaderRecordERKNS_5RangeERKN7openpal6RSliceERNS_12IAPDUHandlerEEUlRSE_jE_EE]
	add	w3, w5, 1
	ldp	x8, x9, [x2]
	cmp	w6, w5
	ldp	x10, x11, [x10]
	sub	w3, w3, w6
	ldr	w7, [x1]
	csel	x3, x3, xzr, ls
	add	x4, x4, 16
	add	x2, sp, 48
	add	x1, sp, 24
	stp	x10, x11, [sp, 24]
	str	w7, [sp, 40]
	str	x4, [sp, 48]
	stp	x8, x9, [sp, 56]
	str	x3, [sp, 72]
	strh	w6, [sp, 80]
	strh	w5, [sp, 82]
	bl	_ZN8opendnp312IAPDUHandler8OnHeaderERKNS_11RangeHeaderERKNS_11ICollectionINS_7IndexedINS_7CounterEEEEE
	adrp	x0, :got:__stack_chk_guard
	ldr	x0, [x0, #:got_lo12:__stack_chk_guard]
	ldr	x2, [sp, 88]
	ldr	x1, [x0]
	subs	x2, x2, x1
	mov	x1, 0
	bne	.L162
	ldp	x29, x30, [sp], 96
	.cfi_remember_state
	.cfi_restore 30
	.cfi_restore 29
	.cfi_def_cfa_offset 0
	ret
.L162:
	.cfi_restore_state
	bl	__stack_chk_fail
	.cfi_endproc
.LFE3039:
	.size	_ZN8opendnp311RangeParser13InvokeRangeOfINS_11Group20Var6EEEvRKNS_12HeaderRecordERKNS_5RangeERKN7openpal6RSliceERNS_12IAPDUHandlerE, .-_ZN8opendnp311RangeParser13InvokeRangeOfINS_11Group20Var6EEEvRKNS_12HeaderRecordERKNS_5RangeERKN7openpal6RSliceERNS_12IAPDUHandlerE
	.section	.text._ZNK8opendnp318BufferedCollectionINS_7IndexedINS_7CounterEEEZNS_11RangeParser13InvokeRangeOfINS_11Group20Var1EEEvRKNS_12HeaderRecordERKNS_5RangeERKN7openpal6RSliceERNS_12IAPDUHandlerEEUlRSE_jE_E7ForeachERNS_8IVisitorIS3_EE,"axG",@progbits,_ZNK8opendnp318BufferedCollectionINS_7IndexedINS_7CounterEEEZNS_11RangeParser13InvokeRangeOfINS_11Group20Var1EEEvRKNS_12HeaderRecordERKNS_5RangeERKN7openpal6RSliceERNS_12IAPDUHandlerEEUlRSE_jE_E7ForeachERNS_8IVisitorIS3_EE,comdat
	.align	2
	.p2align 4,,11
	.weak	_ZNK8opendnp318BufferedCollectionINS_7IndexedINS_7CounterEEEZNS_11RangeParser13InvokeRangeOfINS_11Group20Var1EEEvRKNS_12HeaderRecordERKNS_5RangeERKN7openpal6RSliceERNS_12IAPDUHandlerEEUlRSE_jE_E7ForeachERNS_8IVisitorIS3_EE
	.type	_ZNK8opendnp318BufferedCollectionINS_7IndexedINS_7CounterEEEZNS_11RangeParser13InvokeRangeOfINS_11Group20Var1EEEvRKNS_12HeaderRecordERKNS_5RangeERKN7openpal6RSliceERNS_12IAPDUHandlerEEUlRSE_jE_E7ForeachERNS_8IVisitorIS3_EE, %function
_ZNK8opendnp318BufferedCollectionINS_7IndexedINS_7CounterEEEZNS_11RangeParser13InvokeRangeOfINS_11Group20Var1EEEvRKNS_12HeaderRecordERKNS_5RangeERKN7openpal6RSliceERNS_12IAPDUHandlerEEUlRSE_jE_E7ForeachERNS_8IVisitorIS3_EE:
.LFB3655:
	.cfi_startproc
	stp	x29, x30, [sp, -160]!
	.cfi_def_cfa_offset 160
	.cfi_offset 29, -160
	.cfi_offset 30, -152
	adrp	x2, :got:__stack_chk_guard
	mov	x29, sp
	ldr	x2, [x2, #:got_lo12:__stack_chk_guard]
	stp	x21, x22, [sp, 32]
	.cfi_offset 21, -128
	.cfi_offset 22, -120
	mov	x22, x0
	stp	x23, x24, [sp, 48]
	.cfi_offset 23, -112
	.cfi_offset 24, -104
	mov	x23, x1
	ldr	x1, [x2]
	str	x1, [sp, 152]
	mov	x1, 0
	ldp	x2, x3, [x0, 8]
	stp	x2, x3, [sp, 80]
	ldr	x0, [x0, 24]
	cbz	x0, .L163
	add	x24, sp, 80
	add	x21, sp, 120
	stp	x19, x20, [sp, 16]
	.cfi_offset 20, -136
	.cfi_offset 19, -144
	add	x20, sp, 96
	mov	w19, 0
	str	x25, [sp, 64]
	.cfi_offset 25, -96
	.p2align 3,,7
.L165:
	ldr	x1, [x23]
	mov	x0, x20
	ldr	x25, [x1]
	bl	_ZN8opendnp37CounterC1Ev
	mov	x1, x20
	mov	x0, x24
	bl	_ZN8opendnp311Group20Var110ReadTargetERN7openpal6RSliceERNS_7CounterE
	ldrh	w2, [x22, 32]
	ldr	x3, [x20, 16]
	add	w2, w19, w2
	ldp	x0, x1, [x20]
	stp	x0, x1, [x21]
	add	w19, w19, 1
	str	x3, [x21, 16]
	mov	x0, x23
	strh	w2, [sp, 144]
	mov	x1, x21
	blr	x25
	ldr	x0, [x22, 24]
	cmp	x0, w19, uxtw
	bhi	.L165
	ldp	x19, x20, [sp, 16]
	.cfi_restore 20
	.cfi_restore 19
	ldr	x25, [sp, 64]
	.cfi_restore 25
.L163:
	adrp	x0, :got:__stack_chk_guard
	ldr	x0, [x0, #:got_lo12:__stack_chk_guard]
	ldr	x2, [sp, 152]
	ldr	x1, [x0]
	subs	x2, x2, x1
	mov	x1, 0
	bne	.L172
	ldp	x21, x22, [sp, 32]
	ldp	x23, x24, [sp, 48]
	ldp	x29, x30, [sp], 160
	.cfi_remember_state
	.cfi_restore 30
	.cfi_restore 29
	.cfi_restore 23
	.cfi_restore 24
	.cfi_restore 21
	.cfi_restore 22
	.cfi_def_cfa_offset 0
	ret
.L172:
	.cfi_restore_state
	stp	x19, x20, [sp, 16]
	.cfi_offset 20, -136
	.cfi_offset 19, -144
	str	x25, [sp, 64]
	.cfi_offset 25, -96
	bl	__stack_chk_fail
	.cfi_endproc
.LFE3655:
	.size	_ZNK8opendnp318BufferedCollectionINS_7IndexedINS_7CounterEEEZNS_11RangeParser13InvokeRangeOfINS_11Group20Var1EEEvRKNS_12HeaderRecordERKNS_5RangeERKN7openpal6RSliceERNS_12IAPDUHandlerEEUlRSE_jE_E7ForeachERNS_8IVisitorIS3_EE, .-_ZNK8opendnp318BufferedCollectionINS_7IndexedINS_7CounterEEEZNS_11RangeParser13InvokeRangeOfINS_11Group20Var1EEEvRKNS_12HeaderRecordERKNS_5RangeERKN7openpal6RSliceERNS_12IAPDUHandlerEEUlRSE_jE_E7ForeachERNS_8IVisitorIS3_EE
	.section	.text._ZNK8opendnp318BufferedCollectionINS_7IndexedINS_7CounterEEEZNS_11RangeParser13InvokeRangeOfINS_11Group20Var2EEEvRKNS_12HeaderRecordERKNS_5RangeERKN7openpal6RSliceERNS_12IAPDUHandlerEEUlRSE_jE_E7ForeachERNS_8IVisitorIS3_EE,"axG",@progbits,_ZNK8opendnp318BufferedCollectionINS_7IndexedINS_7CounterEEEZNS_11RangeParser13InvokeRangeOfINS_11Group20Var2EEEvRKNS_12HeaderRecordERKNS_5RangeERKN7openpal6RSliceERNS_12IAPDUHandlerEEUlRSE_jE_E7ForeachERNS_8IVisitorIS3_EE,comdat
	.align	2
	.p2align 4,,11
	.weak	_ZNK8opendnp318BufferedCollectionINS_7IndexedINS_7CounterEEEZNS_11RangeParser13InvokeRangeOfINS_11Group20Var2EEEvRKNS_12HeaderRecordERKNS_5RangeERKN7openpal6RSliceERNS_12IAPDUHandlerEEUlRSE_jE_E7ForeachERNS_8IVisitorIS3_EE
	.type	_ZNK8opendnp318BufferedCollectionINS_7IndexedINS_7CounterEEEZNS_11RangeParser13InvokeRangeOfINS_11Group20Var2EEEvRKNS_12HeaderRecordERKNS_5RangeERKN7openpal6RSliceERNS_12IAPDUHandlerEEUlRSE_jE_E7ForeachERNS_8IVisitorIS3_EE, %function
_ZNK8opendnp318BufferedCollectionINS_7IndexedINS_7CounterEEEZNS_11RangeParser13InvokeRangeOfINS_11Group20Var2EEEvRKNS_12HeaderRecordERKNS_5RangeERKN7openpal6RSliceERNS_12IAPDUHandlerEEUlRSE_jE_E7ForeachERNS_8IVisitorIS3_EE:
.LFB3653:
	.cfi_startproc
	stp	x29, x30, [sp, -160]!
	.cfi_def_cfa_offset 160
	.cfi_offset 29, -160
	.cfi_offset 30, -152
	adrp	x2, :got:__stack_chk_guard
	mov	x29, sp
	ldr	x2, [x2, #:got_lo12:__stack_chk_guard]
	stp	x21, x22, [sp, 32]
	.cfi_offset 21, -128
	.cfi_offset 22, -120
	mov	x22, x0
	stp	x23, x24, [sp, 48]
	.cfi_offset 23, -112
	.cfi_offset 24, -104
	mov	x23, x1
	ldr	x1, [x2]
	str	x1, [sp, 152]
	mov	x1, 0
	ldp	x2, x3, [x0, 8]
	stp	x2, x3, [sp, 80]
	ldr	x0, [x0, 24]
	cbz	x0, .L173
	add	x24, sp, 80
	add	x21, sp, 120
	stp	x19, x20, [sp, 16]
	.cfi_offset 20, -136
	.cfi_offset 19, -144
	add	x20, sp, 96
	mov	w19, 0
	str	x25, [sp, 64]
	.cfi_offset 25, -96
	.p2align 3,,7
.L175:
	ldr	x1, [x23]
	mov	x0, x20
	ldr	x25, [x1]
	bl	_ZN8opendnp37CounterC1Ev
	mov	x1, x20
	mov	x0, x24
	bl	_ZN8opendnp311Group20Var210ReadTargetERN7openpal6RSliceERNS_7CounterE
	ldrh	w2, [x22, 32]
	ldr	x3, [x20, 16]
	add	w2, w19, w2
	ldp	x0, x1, [x20]
	stp	x0, x1, [x21]
	add	w19, w19, 1
	str	x3, [x21, 16]
	mov	x0, x23
	strh	w2, [sp, 144]
	mov	x1, x21
	blr	x25
	ldr	x0, [x22, 24]
	cmp	x0, w19, uxtw
	bhi	.L175
	ldp	x19, x20, [sp, 16]
	.cfi_restore 20
	.cfi_restore 19
	ldr	x25, [sp, 64]
	.cfi_restore 25
.L173:
	adrp	x0, :got:__stack_chk_guard
	ldr	x0, [x0, #:got_lo12:__stack_chk_guard]
	ldr	x2, [sp, 152]
	ldr	x1, [x0]
	subs	x2, x2, x1
	mov	x1, 0
	bne	.L182
	ldp	x21, x22, [sp, 32]
	ldp	x23, x24, [sp, 48]
	ldp	x29, x30, [sp], 160
	.cfi_remember_state
	.cfi_restore 30
	.cfi_restore 29
	.cfi_restore 23
	.cfi_restore 24
	.cfi_restore 21
	.cfi_restore 22
	.cfi_def_cfa_offset 0
	ret
.L182:
	.cfi_restore_state
	stp	x19, x20, [sp, 16]
	.cfi_offset 20, -136
	.cfi_offset 19, -144
	str	x25, [sp, 64]
	.cfi_offset 25, -96
	bl	__stack_chk_fail
	.cfi_endproc
.LFE3653:
	.size	_ZNK8opendnp318BufferedCollectionINS_7IndexedINS_7CounterEEEZNS_11RangeParser13InvokeRangeOfINS_11Group20Var2EEEvRKNS_12HeaderRecordERKNS_5RangeERKN7openpal6RSliceERNS_12IAPDUHandlerEEUlRSE_jE_E7ForeachERNS_8IVisitorIS3_EE, .-_ZNK8opendnp318BufferedCollectionINS_7IndexedINS_7CounterEEEZNS_11RangeParser13InvokeRangeOfINS_11Group20Var2EEEvRKNS_12HeaderRecordERKNS_5RangeERKN7openpal6RSliceERNS_12IAPDUHandlerEEUlRSE_jE_E7ForeachERNS_8IVisitorIS3_EE
	.section	.text._ZNK8opendnp318BufferedCollectionINS_7IndexedINS_7CounterEEEZNS_11RangeParser13InvokeRangeOfINS_11Group20Var5EEEvRKNS_12HeaderRecordERKNS_5RangeERKN7openpal6RSliceERNS_12IAPDUHandlerEEUlRSE_jE_E7ForeachERNS_8IVisitorIS3_EE,"axG",@progbits,_ZNK8opendnp318BufferedCollectionINS_7IndexedINS_7CounterEEEZNS_11RangeParser13InvokeRangeOfINS_11Group20Var5EEEvRKNS_12HeaderRecordERKNS_5RangeERKN7openpal6RSliceERNS_12IAPDUHandlerEEUlRSE_jE_E7ForeachERNS_8IVisitorIS3_EE,comdat
	.align	2
	.p2align 4,,11
	.weak	_ZNK8opendnp318BufferedCollectionINS_7IndexedINS_7CounterEEEZNS_11RangeParser13InvokeRangeOfINS_11Group20Var5EEEvRKNS_12HeaderRecordERKNS_5RangeERKN7openpal6RSliceERNS_12IAPDUHandlerEEUlRSE_jE_E7ForeachERNS_8IVisitorIS3_EE
	.type	_ZNK8opendnp318BufferedCollectionINS_7IndexedINS_7CounterEEEZNS_11RangeParser13InvokeRangeOfINS_11Group20Var5EEEvRKNS_12HeaderRecordERKNS_5RangeERKN7openpal6RSliceERNS_12IAPDUHandlerEEUlRSE_jE_E7ForeachERNS_8IVisitorIS3_EE, %function
_ZNK8opendnp318BufferedCollectionINS_7IndexedINS_7CounterEEEZNS_11RangeParser13InvokeRangeOfINS_11Group20Var5EEEvRKNS_12HeaderRecordERKNS_5RangeERKN7openpal6RSliceERNS_12IAPDUHandlerEEUlRSE_jE_E7ForeachERNS_8IVisitorIS3_EE:
.LFB3651:
	.cfi_startproc
	stp	x29, x30, [sp, -160]!
	.cfi_def_cfa_offset 160
	.cfi_offset 29, -160
	.cfi_offset 30, -152
	adrp	x2, :got:__stack_chk_guard
	mov	x29, sp
	ldr	x2, [x2, #:got_lo12:__stack_chk_guard]
	stp	x21, x22, [sp, 32]
	.cfi_offset 21, -128
	.cfi_offset 22, -120
	mov	x22, x0
	stp	x23, x24, [sp, 48]
	.cfi_offset 23, -112
	.cfi_offset 24, -104
	mov	x23, x1
	ldr	x1, [x2]
	str	x1, [sp, 152]
	mov	x1, 0
	ldp	x2, x3, [x0, 8]
	stp	x2, x3, [sp, 80]
	ldr	x0, [x0, 24]
	cbz	x0, .L183
	add	x24, sp, 80
	add	x21, sp, 120
	stp	x19, x20, [sp, 16]
	.cfi_offset 20, -136
	.cfi_offset 19, -144
	add	x20, sp, 96
	mov	w19, 0
	str	x25, [sp, 64]
	.cfi_offset 25, -96
	.p2align 3,,7
.L185:
	ldr	x1, [x23]
	mov	x0, x20
	ldr	x25, [x1]
	bl	_ZN8opendnp37CounterC1Ev
	mov	x1, x20
	mov	x0, x24
	bl	_ZN8opendnp311Group20Var510ReadTargetERN7openpal6RSliceERNS_7CounterE
	ldrh	w2, [x22, 32]
	ldr	x3, [x20, 16]
	add	w2, w19, w2
	ldp	x0, x1, [x20]
	stp	x0, x1, [x21]
	add	w19, w19, 1
	str	x3, [x21, 16]
	mov	x0, x23
	strh	w2, [sp, 144]
	mov	x1, x21
	blr	x25
	ldr	x0, [x22, 24]
	cmp	x0, w19, uxtw
	bhi	.L185
	ldp	x19, x20, [sp, 16]
	.cfi_restore 20
	.cfi_restore 19
	ldr	x25, [sp, 64]
	.cfi_restore 25
.L183:
	adrp	x0, :got:__stack_chk_guard
	ldr	x0, [x0, #:got_lo12:__stack_chk_guard]
	ldr	x2, [sp, 152]
	ldr	x1, [x0]
	subs	x2, x2, x1
	mov	x1, 0
	bne	.L192
	ldp	x21, x22, [sp, 32]
	ldp	x23, x24, [sp, 48]
	ldp	x29, x30, [sp], 160
	.cfi_remember_state
	.cfi_restore 30
	.cfi_restore 29
	.cfi_restore 23
	.cfi_restore 24
	.cfi_restore 21
	.cfi_restore 22
	.cfi_def_cfa_offset 0
	ret
.L192:
	.cfi_restore_state
	stp	x19, x20, [sp, 16]
	.cfi_offset 20, -136
	.cfi_offset 19, -144
	str	x25, [sp, 64]
	.cfi_offset 25, -96
	bl	__stack_chk_fail
	.cfi_endproc
.LFE3651:
	.size	_ZNK8opendnp318BufferedCollectionINS_7IndexedINS_7CounterEEEZNS_11RangeParser13InvokeRangeOfINS_11Group20Var5EEEvRKNS_12HeaderRecordERKNS_5RangeERKN7openpal6RSliceERNS_12IAPDUHandlerEEUlRSE_jE_E7ForeachERNS_8IVisitorIS3_EE, .-_ZNK8opendnp318BufferedCollectionINS_7IndexedINS_7CounterEEEZNS_11RangeParser13InvokeRangeOfINS_11Group20Var5EEEvRKNS_12HeaderRecordERKNS_5RangeERKN7openpal6RSliceERNS_12IAPDUHandlerEEUlRSE_jE_E7ForeachERNS_8IVisitorIS3_EE
	.section	.text._ZNK8opendnp318BufferedCollectionINS_7IndexedINS_7CounterEEEZNS_11RangeParser13InvokeRangeOfINS_11Group20Var6EEEvRKNS_12HeaderRecordERKNS_5RangeERKN7openpal6RSliceERNS_12IAPDUHandlerEEUlRSE_jE_E7ForeachERNS_8IVisitorIS3_EE,"axG",@progbits,_ZNK8opendnp318BufferedCollectionINS_7IndexedINS_7CounterEEEZNS_11RangeParser13InvokeRangeOfINS_11Group20Var6EEEvRKNS_12HeaderRecordERKNS_5RangeERKN7openpal6RSliceERNS_12IAPDUHandlerEEUlRSE_jE_E7ForeachERNS_8IVisitorIS3_EE,comdat
	.align	2
	.p2align 4,,11
	.weak	_ZNK8opendnp318BufferedCollectionINS_7IndexedINS_7CounterEEEZNS_11RangeParser13InvokeRangeOfINS_11Group20Var6EEEvRKNS_12HeaderRecordERKNS_5RangeERKN7openpal6RSliceERNS_12IAPDUHandlerEEUlRSE_jE_E7ForeachERNS_8IVisitorIS3_EE
	.type	_ZNK8opendnp318BufferedCollectionINS_7IndexedINS_7CounterEEEZNS_11RangeParser13InvokeRangeOfINS_11Group20Var6EEEvRKNS_12HeaderRecordERKNS_5RangeERKN7openpal6RSliceERNS_12IAPDUHandlerEEUlRSE_jE_E7ForeachERNS_8IVisitorIS3_EE, %function
_ZNK8opendnp318BufferedCollectionINS_7IndexedINS_7CounterEEEZNS_11RangeParser13InvokeRangeOfINS_11Group20Var6EEEvRKNS_12HeaderRecordERKNS_5RangeERKN7openpal6RSliceERNS_12IAPDUHandlerEEUlRSE_jE_E7ForeachERNS_8IVisitorIS3_EE:
.LFB3649:
	.cfi_startproc
	stp	x29, x30, [sp, -160]!
	.cfi_def_cfa_offset 160
	.cfi_offset 29, -160
	.cfi_offset 30, -152
	adrp	x2, :got:__stack_chk_guard
	mov	x29, sp
	ldr	x2, [x2, #:got_lo12:__stack_chk_guard]
	stp	x21, x22, [sp, 32]
	.cfi_offset 21, -128
	.cfi_offset 22, -120
	mov	x22, x0
	stp	x23, x24, [sp, 48]
	.cfi_offset 23, -112
	.cfi_offset 24, -104
	mov	x23, x1
	ldr	x1, [x2]
	str	x1, [sp, 152]
	mov	x1, 0
	ldp	x2, x3, [x0, 8]
	stp	x2, x3, [sp, 80]
	ldr	x0, [x0, 24]
	cbz	x0, .L193
	add	x24, sp, 80
	add	x21, sp, 120
	stp	x19, x20, [sp, 16]
	.cfi_offset 20, -136
	.cfi_offset 19, -144
	add	x20, sp, 96
	mov	w19, 0
	str	x25, [sp, 64]
	.cfi_offset 25, -96
	.p2align 3,,7
.L195:
	ldr	x1, [x23]
	mov	x0, x20
	ldr	x25, [x1]
	bl	_ZN8opendnp37CounterC1Ev
	mov	x1, x20
	mov	x0, x24
	bl	_ZN8opendnp311Group20Var610ReadTargetERN7openpal6RSliceERNS_7CounterE
	ldrh	w2, [x22, 32]
	ldr	x3, [x20, 16]
	add	w2, w19, w2
	ldp	x0, x1, [x20]
	stp	x0, x1, [x21]
	add	w19, w19, 1
	str	x3, [x21, 16]
	mov	x0, x23
	strh	w2, [sp, 144]
	mov	x1, x21
	blr	x25
	ldr	x0, [x22, 24]
	cmp	x0, w19, uxtw
	bhi	.L195
	ldp	x19, x20, [sp, 16]
	.cfi_restore 20
	.cfi_restore 19
	ldr	x25, [sp, 64]
	.cfi_restore 25
.L193:
	adrp	x0, :got:__stack_chk_guard
	ldr	x0, [x0, #:got_lo12:__stack_chk_guard]
	ldr	x2, [sp, 152]
	ldr	x1, [x0]
	subs	x2, x2, x1
	mov	x1, 0
	bne	.L202
	ldp	x21, x22, [sp, 32]
	ldp	x23, x24, [sp, 48]
	ldp	x29, x30, [sp], 160
	.cfi_remember_state
	.cfi_restore 30
	.cfi_restore 29
	.cfi_restore 23
	.cfi_restore 24
	.cfi_restore 21
	.cfi_restore 22
	.cfi_def_cfa_offset 0
	ret
.L202:
	.cfi_restore_state
	stp	x19, x20, [sp, 16]
	.cfi_offset 20, -136
	.cfi_offset 19, -144
	str	x25, [sp, 64]
	.cfi_offset 25, -96
	bl	__stack_chk_fail
	.cfi_endproc
.LFE3649:
	.size	_ZNK8opendnp318BufferedCollectionINS_7IndexedINS_7CounterEEEZNS_11RangeParser13InvokeRangeOfINS_11Group20Var6EEEvRKNS_12HeaderRecordERKNS_5RangeERKN7openpal6RSliceERNS_12IAPDUHandlerEEUlRSE_jE_E7ForeachERNS_8IVisitorIS3_EE, .-_ZNK8opendnp318BufferedCollectionINS_7IndexedINS_7CounterEEEZNS_11RangeParser13InvokeRangeOfINS_11Group20Var6EEEvRKNS_12HeaderRecordERKNS_5RangeERKN7openpal6RSliceERNS_12IAPDUHandlerEEUlRSE_jE_E7ForeachERNS_8IVisitorIS3_EE
	.section	.text._ZN8opendnp311RangeParser13InvokeRangeOfINS_11Group21Var1EEEvRKNS_12HeaderRecordERKNS_5RangeERKN7openpal6RSliceERNS_12IAPDUHandlerE,"axG",@progbits,_ZN8opendnp311RangeParser13InvokeRangeOfINS_11Group21Var1EEEvRKNS_12HeaderRecordERKNS_5RangeERKN7openpal6RSliceERNS_12IAPDUHandlerE,comdat
	.align	2
	.p2align 4,,11
	.weak	_ZN8opendnp311RangeParser13InvokeRangeOfINS_11Group21Var1EEEvRKNS_12HeaderRecordERKNS_5RangeERKN7openpal6RSliceERNS_12IAPDUHandlerE
	.type	_ZN8opendnp311RangeParser13InvokeRangeOfINS_11Group21Var1EEEvRKNS_12HeaderRecordERKNS_5RangeERKN7openpal6RSliceERNS_12IAPDUHandlerE, %function
_ZN8opendnp311RangeParser13InvokeRangeOfINS_11Group21Var1EEEvRKNS_12HeaderRecordERKNS_5RangeERKN7openpal6RSliceERNS_12IAPDUHandlerE:
.LFB3044:
	.cfi_startproc
	stp	x29, x30, [sp, -96]!
	.cfi_def_cfa_offset 96
	.cfi_offset 29, -96
	.cfi_offset 30, -88
	adrp	x5, :got:__stack_chk_guard
	mov	x10, x0
	mov	x29, sp
	ldr	x7, [x5, #:got_lo12:__stack_chk_guard]
	adrp	x4, :got:_ZTVN8opendnp318BufferedCollectionINS_7IndexedINS_13FrozenCounterEEEZNS_11RangeParser13InvokeRangeOfINS_11Group21Var1EEEvRKNS_12HeaderRecordERKNS_5RangeERKN7openpal6RSliceERNS_12IAPDUHandlerEEUlRSE_jE_EE
	ldrh	w5, [x1, 2]
	mov	x0, x3
	ldrh	w6, [x1]
	ldr	x3, [x7]
	str	x3, [sp, 88]
	mov	x3, 0
	ldr	x4, [x4, #:got_lo12:_ZTVN8opendnp318BufferedCollectionINS_7IndexedINS_13FrozenCounterEEEZNS_11RangeParser13InvokeRangeOfINS_11Group21Var1EEEvRKNS_12HeaderRecordERKNS_5RangeERKN7openpal6RSliceERNS_12IAPDUHandlerEEUlRSE_jE_EE]
	add	w3, w5, 1
	ldp	x8, x9, [x2]
	cmp	w6, w5
	ldp	x10, x11, [x10]
	sub	w3, w3, w6
	ldr	w7, [x1]
	csel	x3, x3, xzr, ls
	add	x4, x4, 16
	add	x2, sp, 48
	add	x1, sp, 24
	stp	x10, x11, [sp, 24]
	str	w7, [sp, 40]
	str	x4, [sp, 48]
	stp	x8, x9, [sp, 56]
	str	x3, [sp, 72]
	strh	w6, [sp, 80]
	strh	w5, [sp, 82]
	bl	_ZN8opendnp312IAPDUHandler8OnHeaderERKNS_11RangeHeaderERKNS_11ICollectionINS_7IndexedINS_13FrozenCounterEEEEE
	adrp	x0, :got:__stack_chk_guard
	ldr	x0, [x0, #:got_lo12:__stack_chk_guard]
	ldr	x2, [sp, 88]
	ldr	x1, [x0]
	subs	x2, x2, x1
	mov	x1, 0
	bne	.L208
	ldp	x29, x30, [sp], 96
	.cfi_remember_state
	.cfi_restore 30
	.cfi_restore 29
	.cfi_def_cfa_offset 0
	ret
.L208:
	.cfi_restore_state
	bl	__stack_chk_fail
	.cfi_endproc
.LFE3044:
	.size	_ZN8opendnp311RangeParser13InvokeRangeOfINS_11Group21Var1EEEvRKNS_12HeaderRecordERKNS_5RangeERKN7openpal6RSliceERNS_12IAPDUHandlerE, .-_ZN8opendnp311RangeParser13InvokeRangeOfINS_11Group21Var1EEEvRKNS_12HeaderRecordERKNS_5RangeERKN7openpal6RSliceERNS_12IAPDUHandlerE
	.section	.text._ZN8opendnp311RangeParser13InvokeRangeOfINS_11Group21Var2EEEvRKNS_12HeaderRecordERKNS_5RangeERKN7openpal6RSliceERNS_12IAPDUHandlerE,"axG",@progbits,_ZN8opendnp311RangeParser13InvokeRangeOfINS_11Group21Var2EEEvRKNS_12HeaderRecordERKNS_5RangeERKN7openpal6RSliceERNS_12IAPDUHandlerE,comdat
	.align	2
	.p2align 4,,11
	.weak	_ZN8opendnp311RangeParser13InvokeRangeOfINS_11Group21Var2EEEvRKNS_12HeaderRecordERKNS_5RangeERKN7openpal6RSliceERNS_12IAPDUHandlerE
	.type	_ZN8opendnp311RangeParser13InvokeRangeOfINS_11Group21Var2EEEvRKNS_12HeaderRecordERKNS_5RangeERKN7openpal6RSliceERNS_12IAPDUHandlerE, %function
_ZN8opendnp311RangeParser13InvokeRangeOfINS_11Group21Var2EEEvRKNS_12HeaderRecordERKNS_5RangeERKN7openpal6RSliceERNS_12IAPDUHandlerE:
.LFB3052:
	.cfi_startproc
	stp	x29, x30, [sp, -96]!
	.cfi_def_cfa_offset 96
	.cfi_offset 29, -96
	.cfi_offset 30, -88
	adrp	x5, :got:__stack_chk_guard
	mov	x10, x0
	mov	x29, sp
	ldr	x7, [x5, #:got_lo12:__stack_chk_guard]
	adrp	x4, :got:_ZTVN8opendnp318BufferedCollectionINS_7IndexedINS_13FrozenCounterEEEZNS_11RangeParser13InvokeRangeOfINS_11Group21Var2EEEvRKNS_12HeaderRecordERKNS_5RangeERKN7openpal6RSliceERNS_12IAPDUHandlerEEUlRSE_jE_EE
	ldrh	w5, [x1, 2]
	mov	x0, x3
	ldrh	w6, [x1]
	ldr	x3, [x7]
	str	x3, [sp, 88]
	mov	x3, 0
	ldr	x4, [x4, #:got_lo12:_ZTVN8opendnp318BufferedCollectionINS_7IndexedINS_13FrozenCounterEEEZNS_11RangeParser13InvokeRangeOfINS_11Group21Var2EEEvRKNS_12HeaderRecordERKNS_5RangeERKN7openpal6RSliceERNS_12IAPDUHandlerEEUlRSE_jE_EE]
	add	w3, w5, 1
	ldp	x8, x9, [x2]
	cmp	w6, w5
	ldp	x10, x11, [x10]
	sub	w3, w3, w6
	ldr	w7, [x1]
	csel	x3, x3, xzr, ls
	add	x4, x4, 16
	add	x2, sp, 48
	add	x1, sp, 24
	stp	x10, x11, [sp, 24]
	str	w7, [sp, 40]
	str	x4, [sp, 48]
	stp	x8, x9, [sp, 56]
	str	x3, [sp, 72]
	strh	w6, [sp, 80]
	strh	w5, [sp, 82]
	bl	_ZN8opendnp312IAPDUHandler8OnHeaderERKNS_11RangeHeaderERKNS_11ICollectionINS_7IndexedINS_13FrozenCounterEEEEE
	adrp	x0, :got:__stack_chk_guard
	ldr	x0, [x0, #:got_lo12:__stack_chk_guard]
	ldr	x2, [sp, 88]
	ldr	x1, [x0]
	subs	x2, x2, x1
	mov	x1, 0
	bne	.L214
	ldp	x29, x30, [sp], 96
	.cfi_remember_state
	.cfi_restore 30
	.cfi_restore 29
	.cfi_def_cfa_offset 0
	ret
.L214:
	.cfi_restore_state
	bl	__stack_chk_fail
	.cfi_endproc
.LFE3052:
	.size	_ZN8opendnp311RangeParser13InvokeRangeOfINS_11Group21Var2EEEvRKNS_12HeaderRecordERKNS_5RangeERKN7openpal6RSliceERNS_12IAPDUHandlerE, .-_ZN8opendnp311RangeParser13InvokeRangeOfINS_11Group21Var2EEEvRKNS_12HeaderRecordERKNS_5RangeERKN7openpal6RSliceERNS_12IAPDUHandlerE
	.section	.text._ZN8opendnp311RangeParser13InvokeRangeOfINS_11Group21Var5EEEvRKNS_12HeaderRecordERKNS_5RangeERKN7openpal6RSliceERNS_12IAPDUHandlerE,"axG",@progbits,_ZN8opendnp311RangeParser13InvokeRangeOfINS_11Group21Var5EEEvRKNS_12HeaderRecordERKNS_5RangeERKN7openpal6RSliceERNS_12IAPDUHandlerE,comdat
	.align	2
	.p2align 4,,11
	.weak	_ZN8opendnp311RangeParser13InvokeRangeOfINS_11Group21Var5EEEvRKNS_12HeaderRecordERKNS_5RangeERKN7openpal6RSliceERNS_12IAPDUHandlerE
	.type	_ZN8opendnp311RangeParser13InvokeRangeOfINS_11Group21Var5EEEvRKNS_12HeaderRecordERKNS_5RangeERKN7openpal6RSliceERNS_12IAPDUHandlerE, %function
_ZN8opendnp311RangeParser13InvokeRangeOfINS_11Group21Var5EEEvRKNS_12HeaderRecordERKNS_5RangeERKN7openpal6RSliceERNS_12IAPDUHandlerE:
.LFB3057:
	.cfi_startproc
	stp	x29, x30, [sp, -96]!
	.cfi_def_cfa_offset 96
	.cfi_offset 29, -96
	.cfi_offset 30, -88
	adrp	x5, :got:__stack_chk_guard
	mov	x10, x0
	mov	x29, sp
	ldr	x7, [x5, #:got_lo12:__stack_chk_guard]
	adrp	x4, :got:_ZTVN8opendnp318BufferedCollectionINS_7IndexedINS_13FrozenCounterEEEZNS_11RangeParser13InvokeRangeOfINS_11Group21Var5EEEvRKNS_12HeaderRecordERKNS_5RangeERKN7openpal6RSliceERNS_12IAPDUHandlerEEUlRSE_jE_EE
	ldrh	w5, [x1, 2]
	mov	x0, x3
	ldrh	w6, [x1]
	ldr	x3, [x7]
	str	x3, [sp, 88]
	mov	x3, 0
	ldr	x4, [x4, #:got_lo12:_ZTVN8opendnp318BufferedCollectionINS_7IndexedINS_13FrozenCounterEEEZNS_11RangeParser13InvokeRangeOfINS_11Group21Var5EEEvRKNS_12HeaderRecordERKNS_5RangeERKN7openpal6RSliceERNS_12IAPDUHandlerEEUlRSE_jE_EE]
	add	w3, w5, 1
	ldp	x8, x9, [x2]
	cmp	w6, w5
	ldp	x10, x11, [x10]
	sub	w3, w3, w6
	ldr	w7, [x1]
	csel	x3, x3, xzr, ls
	add	x4, x4, 16
	add	x2, sp, 48
	add	x1, sp, 24
	stp	x10, x11, [sp, 24]
	str	w7, [sp, 40]
	str	x4, [sp, 48]
	stp	x8, x9, [sp, 56]
	str	x3, [sp, 72]
	strh	w6, [sp, 80]
	strh	w5, [sp, 82]
	bl	_ZN8opendnp312IAPDUHandler8OnHeaderERKNS_11RangeHeaderERKNS_11ICollectionINS_7IndexedINS_13FrozenCounterEEEEE
	adrp	x0, :got:__stack_chk_guard
	ldr	x0, [x0, #:got_lo12:__stack_chk_guard]
	ldr	x2, [sp, 88]
	ldr	x1, [x0]
	subs	x2, x2, x1
	mov	x1, 0
	bne	.L220
	ldp	x29, x30, [sp], 96
	.cfi_remember_state
	.cfi_restore 30
	.cfi_restore 29
	.cfi_def_cfa_offset 0
	ret
.L220:
	.cfi_restore_state
	bl	__stack_chk_fail
	.cfi_endproc
.LFE3057:
	.size	_ZN8opendnp311RangeParser13InvokeRangeOfINS_11Group21Var5EEEvRKNS_12HeaderRecordERKNS_5RangeERKN7openpal6RSliceERNS_12IAPDUHandlerE, .-_ZN8opendnp311RangeParser13InvokeRangeOfINS_11Group21Var5EEEvRKNS_12HeaderRecordERKNS_5RangeERKN7openpal6RSliceERNS_12IAPDUHandlerE
	.section	.text._ZN8opendnp311RangeParser13InvokeRangeOfINS_11Group21Var6EEEvRKNS_12HeaderRecordERKNS_5RangeERKN7openpal6RSliceERNS_12IAPDUHandlerE,"axG",@progbits,_ZN8opendnp311RangeParser13InvokeRangeOfINS_11Group21Var6EEEvRKNS_12HeaderRecordERKNS_5RangeERKN7openpal6RSliceERNS_12IAPDUHandlerE,comdat
	.align	2
	.p2align 4,,11
	.weak	_ZN8opendnp311RangeParser13InvokeRangeOfINS_11Group21Var6EEEvRKNS_12HeaderRecordERKNS_5RangeERKN7openpal6RSliceERNS_12IAPDUHandlerE
	.type	_ZN8opendnp311RangeParser13InvokeRangeOfINS_11Group21Var6EEEvRKNS_12HeaderRecordERKNS_5RangeERKN7openpal6RSliceERNS_12IAPDUHandlerE, %function
_ZN8opendnp311RangeParser13InvokeRangeOfINS_11Group21Var6EEEvRKNS_12HeaderRecordERKNS_5RangeERKN7openpal6RSliceERNS_12IAPDUHandlerE:
.LFB3062:
	.cfi_startproc
	stp	x29, x30, [sp, -96]!
	.cfi_def_cfa_offset 96
	.cfi_offset 29, -96
	.cfi_offset 30, -88
	adrp	x5, :got:__stack_chk_guard
	mov	x10, x0
	mov	x29, sp
	ldr	x7, [x5, #:got_lo12:__stack_chk_guard]
	adrp	x4, :got:_ZTVN8opendnp318BufferedCollectionINS_7IndexedINS_13FrozenCounterEEEZNS_11RangeParser13InvokeRangeOfINS_11Group21Var6EEEvRKNS_12HeaderRecordERKNS_5RangeERKN7openpal6RSliceERNS_12IAPDUHandlerEEUlRSE_jE_EE
	ldrh	w5, [x1, 2]
	mov	x0, x3
	ldrh	w6, [x1]
	ldr	x3, [x7]
	str	x3, [sp, 88]
	mov	x3, 0
	ldr	x4, [x4, #:got_lo12:_ZTVN8opendnp318BufferedCollectionINS_7IndexedINS_13FrozenCounterEEEZNS_11RangeParser13InvokeRangeOfINS_11Group21Var6EEEvRKNS_12HeaderRecordERKNS_5RangeERKN7openpal6RSliceERNS_12IAPDUHandlerEEUlRSE_jE_EE]
	add	w3, w5, 1
	ldp	x8, x9, [x2]
	cmp	w6, w5
	ldp	x10, x11, [x10]
	sub	w3, w3, w6
	ldr	w7, [x1]
	csel	x3, x3, xzr, ls
	add	x4, x4, 16
	add	x2, sp, 48
	add	x1, sp, 24
	stp	x10, x11, [sp, 24]
	str	w7, [sp, 40]
	str	x4, [sp, 48]
	stp	x8, x9, [sp, 56]
	str	x3, [sp, 72]
	strh	w6, [sp, 80]
	strh	w5, [sp, 82]
	bl	_ZN8opendnp312IAPDUHandler8OnHeaderERKNS_11RangeHeaderERKNS_11ICollectionINS_7IndexedINS_13FrozenCounterEEEEE
	adrp	x0, :got:__stack_chk_guard
	ldr	x0, [x0, #:got_lo12:__stack_chk_guard]
	ldr	x2, [sp, 88]
	ldr	x1, [x0]
	subs	x2, x2, x1
	mov	x1, 0
	bne	.L226
	ldp	x29, x30, [sp], 96
	.cfi_remember_state
	.cfi_restore 30
	.cfi_restore 29
	.cfi_def_cfa_offset 0
	ret
.L226:
	.cfi_restore_state
	bl	__stack_chk_fail
	.cfi_endproc
.LFE3062:
	.size	_ZN8opendnp311RangeParser13InvokeRangeOfINS_11Group21Var6EEEvRKNS_12HeaderRecordERKNS_5RangeERKN7openpal6RSliceERNS_12IAPDUHandlerE, .-_ZN8opendnp311RangeParser13InvokeRangeOfINS_11Group21Var6EEEvRKNS_12HeaderRecordERKNS_5RangeERKN7openpal6RSliceERNS_12IAPDUHandlerE
	.section	.text._ZN8opendnp311RangeParser13InvokeRangeOfINS_11Group21Var9EEEvRKNS_12HeaderRecordERKNS_5RangeERKN7openpal6RSliceERNS_12IAPDUHandlerE,"axG",@progbits,_ZN8opendnp311RangeParser13InvokeRangeOfINS_11Group21Var9EEEvRKNS_12HeaderRecordERKNS_5RangeERKN7openpal6RSliceERNS_12IAPDUHandlerE,comdat
	.align	2
	.p2align 4,,11
	.weak	_ZN8opendnp311RangeParser13InvokeRangeOfINS_11Group21Var9EEEvRKNS_12HeaderRecordERKNS_5RangeERKN7openpal6RSliceERNS_12IAPDUHandlerE
	.type	_ZN8opendnp311RangeParser13InvokeRangeOfINS_11Group21Var9EEEvRKNS_12HeaderRecordERKNS_5RangeERKN7openpal6RSliceERNS_12IAPDUHandlerE, %function
_ZN8opendnp311RangeParser13InvokeRangeOfINS_11Group21Var9EEEvRKNS_12HeaderRecordERKNS_5RangeERKN7openpal6RSliceERNS_12IAPDUHandlerE:
.LFB3067:
	.cfi_startproc
	stp	x29, x30, [sp, -96]!
	.cfi_def_cfa_offset 96
	.cfi_offset 29, -96
	.cfi_offset 30, -88
	adrp	x5, :got:__stack_chk_guard
	mov	x10, x0
	mov	x29, sp
	ldr	x7, [x5, #:got_lo12:__stack_chk_guard]
	adrp	x4, :got:_ZTVN8opendnp318BufferedCollectionINS_7IndexedINS_13FrozenCounterEEEZNS_11RangeParser13InvokeRangeOfINS_11Group21Var9EEEvRKNS_12HeaderRecordERKNS_5RangeERKN7openpal6RSliceERNS_12IAPDUHandlerEEUlRSE_jE_EE
	ldrh	w5, [x1, 2]
	mov	x0, x3
	ldrh	w6, [x1]
	ldr	x3, [x7]
	str	x3, [sp, 88]
	mov	x3, 0
	ldr	x4, [x4, #:got_lo12:_ZTVN8opendnp318BufferedCollectionINS_7IndexedINS_13FrozenCounterEEEZNS_11RangeParser13InvokeRangeOfINS_11Group21Var9EEEvRKNS_12HeaderRecordERKNS_5RangeERKN7openpal6RSliceERNS_12IAPDUHandlerEEUlRSE_jE_EE]
	add	w3, w5, 1
	ldp	x8, x9, [x2]
	cmp	w6, w5
	ldp	x10, x11, [x10]
	sub	w3, w3, w6
	ldr	w7, [x1]
	csel	x3, x3, xzr, ls
	add	x4, x4, 16
	add	x2, sp, 48
	add	x1, sp, 24
	stp	x10, x11, [sp, 24]
	str	w7, [sp, 40]
	str	x4, [sp, 48]
	stp	x8, x9, [sp, 56]
	str	x3, [sp, 72]
	strh	w6, [sp, 80]
	strh	w5, [sp, 82]
	bl	_ZN8opendnp312IAPDUHandler8OnHeaderERKNS_11RangeHeaderERKNS_11ICollectionINS_7IndexedINS_13FrozenCounterEEEEE
	adrp	x0, :got:__stack_chk_guard
	ldr	x0, [x0, #:got_lo12:__stack_chk_guard]
	ldr	x2, [sp, 88]
	ldr	x1, [x0]
	subs	x2, x2, x1
	mov	x1, 0
	bne	.L232
	ldp	x29, x30, [sp], 96
	.cfi_remember_state
	.cfi_restore 30
	.cfi_restore 29
	.cfi_def_cfa_offset 0
	ret
.L232:
	.cfi_restore_state
	bl	__stack_chk_fail
	.cfi_endproc
.LFE3067:
	.size	_ZN8opendnp311RangeParser13InvokeRangeOfINS_11Group21Var9EEEvRKNS_12HeaderRecordERKNS_5RangeERKN7openpal6RSliceERNS_12IAPDUHandlerE, .-_ZN8opendnp311RangeParser13InvokeRangeOfINS_11Group21Var9EEEvRKNS_12HeaderRecordERKNS_5RangeERKN7openpal6RSliceERNS_12IAPDUHandlerE
	.section	.text._ZN8opendnp311RangeParser13InvokeRangeOfINS_12Group21Var10EEEvRKNS_12HeaderRecordERKNS_5RangeERKN7openpal6RSliceERNS_12IAPDUHandlerE,"axG",@progbits,_ZN8opendnp311RangeParser13InvokeRangeOfINS_12Group21Var10EEEvRKNS_12HeaderRecordERKNS_5RangeERKN7openpal6RSliceERNS_12IAPDUHandlerE,comdat
	.align	2
	.p2align 4,,11
	.weak	_ZN8opendnp311RangeParser13InvokeRangeOfINS_12Group21Var10EEEvRKNS_12HeaderRecordERKNS_5RangeERKN7openpal6RSliceERNS_12IAPDUHandlerE
	.type	_ZN8opendnp311RangeParser13InvokeRangeOfINS_12Group21Var10EEEvRKNS_12HeaderRecordERKNS_5RangeERKN7openpal6RSliceERNS_12IAPDUHandlerE, %function
_ZN8opendnp311RangeParser13InvokeRangeOfINS_12Group21Var10EEEvRKNS_12HeaderRecordERKNS_5RangeERKN7openpal6RSliceERNS_12IAPDUHandlerE:
.LFB3072:
	.cfi_startproc
	stp	x29, x30, [sp, -96]!
	.cfi_def_cfa_offset 96
	.cfi_offset 29, -96
	.cfi_offset 30, -88
	adrp	x5, :got:__stack_chk_guard
	mov	x10, x0
	mov	x29, sp
	ldr	x7, [x5, #:got_lo12:__stack_chk_guard]
	adrp	x4, :got:_ZTVN8opendnp318BufferedCollectionINS_7IndexedINS_13FrozenCounterEEEZNS_11RangeParser13InvokeRangeOfINS_12Group21Var10EEEvRKNS_12HeaderRecordERKNS_5RangeERKN7openpal6RSliceERNS_12IAPDUHandlerEEUlRSE_jE_EE
	ldrh	w5, [x1, 2]
	mov	x0, x3
	ldrh	w6, [x1]
	ldr	x3, [x7]
	str	x3, [sp, 88]
	mov	x3, 0
	ldr	x4, [x4, #:got_lo12:_ZTVN8opendnp318BufferedCollectionINS_7IndexedINS_13FrozenCounterEEEZNS_11RangeParser13InvokeRangeOfINS_12Group21Var10EEEvRKNS_12HeaderRecordERKNS_5RangeERKN7openpal6RSliceERNS_12IAPDUHandlerEEUlRSE_jE_EE]
	add	w3, w5, 1
	ldp	x8, x9, [x2]
	cmp	w6, w5
	ldp	x10, x11, [x10]
	sub	w3, w3, w6
	ldr	w7, [x1]
	csel	x3, x3, xzr, ls
	add	x4, x4, 16
	add	x2, sp, 48
	add	x1, sp, 24
	stp	x10, x11, [sp, 24]
	str	w7, [sp, 40]
	str	x4, [sp, 48]
	stp	x8, x9, [sp, 56]
	str	x3, [sp, 72]
	strh	w6, [sp, 80]
	strh	w5, [sp, 82]
	bl	_ZN8opendnp312IAPDUHandler8OnHeaderERKNS_11RangeHeaderERKNS_11ICollectionINS_7IndexedINS_13FrozenCounterEEEEE
	adrp	x0, :got:__stack_chk_guard
	ldr	x0, [x0, #:got_lo12:__stack_chk_guard]
	ldr	x2, [sp, 88]
	ldr	x1, [x0]
	subs	x2, x2, x1
	mov	x1, 0
	bne	.L238
	ldp	x29, x30, [sp], 96
	.cfi_remember_state
	.cfi_restore 30
	.cfi_restore 29
	.cfi_def_cfa_offset 0
	ret
.L238:
	.cfi_restore_state
	bl	__stack_chk_fail
	.cfi_endproc
.LFE3072:
	.size	_ZN8opendnp311RangeParser13InvokeRangeOfINS_12Group21Var10EEEvRKNS_12HeaderRecordERKNS_5RangeERKN7openpal6RSliceERNS_12IAPDUHandlerE, .-_ZN8opendnp311RangeParser13InvokeRangeOfINS_12Group21Var10EEEvRKNS_12HeaderRecordERKNS_5RangeERKN7openpal6RSliceERNS_12IAPDUHandlerE
	.section	.text._ZNK8opendnp318BufferedCollectionINS_7IndexedINS_13FrozenCounterEEEZNS_11RangeParser13InvokeRangeOfINS_11Group21Var1EEEvRKNS_12HeaderRecordERKNS_5RangeERKN7openpal6RSliceERNS_12IAPDUHandlerEEUlRSE_jE_E7ForeachERNS_8IVisitorIS3_EE,"axG",@progbits,_ZNK8opendnp318BufferedCollectionINS_7IndexedINS_13FrozenCounterEEEZNS_11RangeParser13InvokeRangeOfINS_11Group21Var1EEEvRKNS_12HeaderRecordERKNS_5RangeERKN7openpal6RSliceERNS_12IAPDUHandlerEEUlRSE_jE_E7ForeachERNS_8IVisitorIS3_EE,comdat
	.align	2
	.p2align 4,,11
	.weak	_ZNK8opendnp318BufferedCollectionINS_7IndexedINS_13FrozenCounterEEEZNS_11RangeParser13InvokeRangeOfINS_11Group21Var1EEEvRKNS_12HeaderRecordERKNS_5RangeERKN7openpal6RSliceERNS_12IAPDUHandlerEEUlRSE_jE_E7ForeachERNS_8IVisitorIS3_EE
	.type	_ZNK8opendnp318BufferedCollectionINS_7IndexedINS_13FrozenCounterEEEZNS_11RangeParser13InvokeRangeOfINS_11Group21Var1EEEvRKNS_12HeaderRecordERKNS_5RangeERKN7openpal6RSliceERNS_12IAPDUHandlerEEUlRSE_jE_E7ForeachERNS_8IVisitorIS3_EE, %function
_ZNK8opendnp318BufferedCollectionINS_7IndexedINS_13FrozenCounterEEEZNS_11RangeParser13InvokeRangeOfINS_11Group21Var1EEEvRKNS_12HeaderRecordERKNS_5RangeERKN7openpal6RSliceERNS_12IAPDUHandlerEEUlRSE_jE_E7ForeachERNS_8IVisitorIS3_EE:
.LFB3647:
	.cfi_startproc
	stp	x29, x30, [sp, -160]!
	.cfi_def_cfa_offset 160
	.cfi_offset 29, -160
	.cfi_offset 30, -152
	adrp	x2, :got:__stack_chk_guard
	mov	x29, sp
	ldr	x2, [x2, #:got_lo12:__stack_chk_guard]
	stp	x21, x22, [sp, 32]
	.cfi_offset 21, -128
	.cfi_offset 22, -120
	mov	x22, x0
	stp	x23, x24, [sp, 48]
	.cfi_offset 23, -112
	.cfi_offset 24, -104
	mov	x23, x1
	ldr	x1, [x2]
	str	x1, [sp, 152]
	mov	x1, 0
	ldp	x2, x3, [x0, 8]
	stp	x2, x3, [sp, 80]
	ldr	x0, [x0, 24]
	cbz	x0, .L239
	add	x24, sp, 80
	add	x21, sp, 120
	stp	x19, x20, [sp, 16]
	.cfi_offset 20, -136
	.cfi_offset 19, -144
	add	x20, sp, 96
	mov	w19, 0
	str	x25, [sp, 64]
	.cfi_offset 25, -96
	.p2align 3,,7
.L241:
	ldr	x1, [x23]
	mov	x0, x20
	ldr	x25, [x1]
	bl	_ZN8opendnp313FrozenCounterC1Ev
	mov	x1, x20
	mov	x0, x24
	bl	_ZN8opendnp311Group21Var110ReadTargetERN7openpal6RSliceERNS_13FrozenCounterE
	ldrh	w2, [x22, 32]
	ldr	x3, [x20, 16]
	add	w2, w19, w2
	ldp	x0, x1, [x20]
	stp	x0, x1, [x21]
	add	w19, w19, 1
	str	x3, [x21, 16]
	mov	x0, x23
	strh	w2, [sp, 144]
	mov	x1, x21
	blr	x25
	ldr	x0, [x22, 24]
	cmp	x0, w19, uxtw
	bhi	.L241
	ldp	x19, x20, [sp, 16]
	.cfi_restore 20
	.cfi_restore 19
	ldr	x25, [sp, 64]
	.cfi_restore 25
.L239:
	adrp	x0, :got:__stack_chk_guard
	ldr	x0, [x0, #:got_lo12:__stack_chk_guard]
	ldr	x2, [sp, 152]
	ldr	x1, [x0]
	subs	x2, x2, x1
	mov	x1, 0
	bne	.L248
	ldp	x21, x22, [sp, 32]
	ldp	x23, x24, [sp, 48]
	ldp	x29, x30, [sp], 160
	.cfi_remember_state
	.cfi_restore 30
	.cfi_restore 29
	.cfi_restore 23
	.cfi_restore 24
	.cfi_restore 21
	.cfi_restore 22
	.cfi_def_cfa_offset 0
	ret
.L248:
	.cfi_restore_state
	stp	x19, x20, [sp, 16]
	.cfi_offset 20, -136
	.cfi_offset 19, -144
	str	x25, [sp, 64]
	.cfi_offset 25, -96
	bl	__stack_chk_fail
	.cfi_endproc
.LFE3647:
	.size	_ZNK8opendnp318BufferedCollectionINS_7IndexedINS_13FrozenCounterEEEZNS_11RangeParser13InvokeRangeOfINS_11Group21Var1EEEvRKNS_12HeaderRecordERKNS_5RangeERKN7openpal6RSliceERNS_12IAPDUHandlerEEUlRSE_jE_E7ForeachERNS_8IVisitorIS3_EE, .-_ZNK8opendnp318BufferedCollectionINS_7IndexedINS_13FrozenCounterEEEZNS_11RangeParser13InvokeRangeOfINS_11Group21Var1EEEvRKNS_12HeaderRecordERKNS_5RangeERKN7openpal6RSliceERNS_12IAPDUHandlerEEUlRSE_jE_E7ForeachERNS_8IVisitorIS3_EE
	.section	.text._ZNK8opendnp318BufferedCollectionINS_7IndexedINS_13FrozenCounterEEEZNS_11RangeParser13InvokeRangeOfINS_11Group21Var2EEEvRKNS_12HeaderRecordERKNS_5RangeERKN7openpal6RSliceERNS_12IAPDUHandlerEEUlRSE_jE_E7ForeachERNS_8IVisitorIS3_EE,"axG",@progbits,_ZNK8opendnp318BufferedCollectionINS_7IndexedINS_13FrozenCounterEEEZNS_11RangeParser13InvokeRangeOfINS_11Group21Var2EEEvRKNS_12HeaderRecordERKNS_5RangeERKN7openpal6RSliceERNS_12IAPDUHandlerEEUlRSE_jE_E7ForeachERNS_8IVisitorIS3_EE,comdat
	.align	2
	.p2align 4,,11
	.weak	_ZNK8opendnp318BufferedCollectionINS_7IndexedINS_13FrozenCounterEEEZNS_11RangeParser13InvokeRangeOfINS_11Group21Var2EEEvRKNS_12HeaderRecordERKNS_5RangeERKN7openpal6RSliceERNS_12IAPDUHandlerEEUlRSE_jE_E7ForeachERNS_8IVisitorIS3_EE
	.type	_ZNK8opendnp318BufferedCollectionINS_7IndexedINS_13FrozenCounterEEEZNS_11RangeParser13InvokeRangeOfINS_11Group21Var2EEEvRKNS_12HeaderRecordERKNS_5RangeERKN7openpal6RSliceERNS_12IAPDUHandlerEEUlRSE_jE_E7ForeachERNS_8IVisitorIS3_EE, %function
_ZNK8opendnp318BufferedCollectionINS_7IndexedINS_13FrozenCounterEEEZNS_11RangeParser13InvokeRangeOfINS_11Group21Var2EEEvRKNS_12HeaderRecordERKNS_5RangeERKN7openpal6RSliceERNS_12IAPDUHandlerEEUlRSE_jE_E7ForeachERNS_8IVisitorIS3_EE:
.LFB3645:
	.cfi_startproc
	stp	x29, x30, [sp, -160]!
	.cfi_def_cfa_offset 160
	.cfi_offset 29, -160
	.cfi_offset 30, -152
	adrp	x2, :got:__stack_chk_guard
	mov	x29, sp
	ldr	x2, [x2, #:got_lo12:__stack_chk_guard]
	stp	x21, x22, [sp, 32]
	.cfi_offset 21, -128
	.cfi_offset 22, -120
	mov	x22, x0
	stp	x23, x24, [sp, 48]
	.cfi_offset 23, -112
	.cfi_offset 24, -104
	mov	x23, x1
	ldr	x1, [x2]
	str	x1, [sp, 152]
	mov	x1, 0
	ldp	x2, x3, [x0, 8]
	stp	x2, x3, [sp, 80]
	ldr	x0, [x0, 24]
	cbz	x0, .L249
	add	x24, sp, 80
	add	x21, sp, 120
	stp	x19, x20, [sp, 16]
	.cfi_offset 20, -136
	.cfi_offset 19, -144
	add	x20, sp, 96
	mov	w19, 0
	str	x25, [sp, 64]
	.cfi_offset 25, -96
	.p2align 3,,7
.L251:
	ldr	x1, [x23]
	mov	x0, x20
	ldr	x25, [x1]
	bl	_ZN8opendnp313FrozenCounterC1Ev
	mov	x1, x20
	mov	x0, x24
	bl	_ZN8opendnp311Group21Var210ReadTargetERN7openpal6RSliceERNS_13FrozenCounterE
	ldrh	w2, [x22, 32]
	ldr	x3, [x20, 16]
	add	w2, w19, w2
	ldp	x0, x1, [x20]
	stp	x0, x1, [x21]
	add	w19, w19, 1
	str	x3, [x21, 16]
	mov	x0, x23
	strh	w2, [sp, 144]
	mov	x1, x21
	blr	x25
	ldr	x0, [x22, 24]
	cmp	x0, w19, uxtw
	bhi	.L251
	ldp	x19, x20, [sp, 16]
	.cfi_restore 20
	.cfi_restore 19
	ldr	x25, [sp, 64]
	.cfi_restore 25
.L249:
	adrp	x0, :got:__stack_chk_guard
	ldr	x0, [x0, #:got_lo12:__stack_chk_guard]
	ldr	x2, [sp, 152]
	ldr	x1, [x0]
	subs	x2, x2, x1
	mov	x1, 0
	bne	.L258
	ldp	x21, x22, [sp, 32]
	ldp	x23, x24, [sp, 48]
	ldp	x29, x30, [sp], 160
	.cfi_remember_state
	.cfi_restore 30
	.cfi_restore 29
	.cfi_restore 23
	.cfi_restore 24
	.cfi_restore 21
	.cfi_restore 22
	.cfi_def_cfa_offset 0
	ret
.L258:
	.cfi_restore_state
	stp	x19, x20, [sp, 16]
	.cfi_offset 20, -136
	.cfi_offset 19, -144
	str	x25, [sp, 64]
	.cfi_offset 25, -96
	bl	__stack_chk_fail
	.cfi_endproc
.LFE3645:
	.size	_ZNK8opendnp318BufferedCollectionINS_7IndexedINS_13FrozenCounterEEEZNS_11RangeParser13InvokeRangeOfINS_11Group21Var2EEEvRKNS_12HeaderRecordERKNS_5RangeERKN7openpal6RSliceERNS_12IAPDUHandlerEEUlRSE_jE_E7ForeachERNS_8IVisitorIS3_EE, .-_ZNK8opendnp318BufferedCollectionINS_7IndexedINS_13FrozenCounterEEEZNS_11RangeParser13InvokeRangeOfINS_11Group21Var2EEEvRKNS_12HeaderRecordERKNS_5RangeERKN7openpal6RSliceERNS_12IAPDUHandlerEEUlRSE_jE_E7ForeachERNS_8IVisitorIS3_EE
	.section	.text._ZNK8opendnp318BufferedCollectionINS_7IndexedINS_13FrozenCounterEEEZNS_11RangeParser13InvokeRangeOfINS_11Group21Var5EEEvRKNS_12HeaderRecordERKNS_5RangeERKN7openpal6RSliceERNS_12IAPDUHandlerEEUlRSE_jE_E7ForeachERNS_8IVisitorIS3_EE,"axG",@progbits,_ZNK8opendnp318BufferedCollectionINS_7IndexedINS_13FrozenCounterEEEZNS_11RangeParser13InvokeRangeOfINS_11Group21Var5EEEvRKNS_12HeaderRecordERKNS_5RangeERKN7openpal6RSliceERNS_12IAPDUHandlerEEUlRSE_jE_E7ForeachERNS_8IVisitorIS3_EE,comdat
	.align	2
	.p2align 4,,11
	.weak	_ZNK8opendnp318BufferedCollectionINS_7IndexedINS_13FrozenCounterEEEZNS_11RangeParser13InvokeRangeOfINS_11Group21Var5EEEvRKNS_12HeaderRecordERKNS_5RangeERKN7openpal6RSliceERNS_12IAPDUHandlerEEUlRSE_jE_E7ForeachERNS_8IVisitorIS3_EE
	.type	_ZNK8opendnp318BufferedCollectionINS_7IndexedINS_13FrozenCounterEEEZNS_11RangeParser13InvokeRangeOfINS_11Group21Var5EEEvRKNS_12HeaderRecordERKNS_5RangeERKN7openpal6RSliceERNS_12IAPDUHandlerEEUlRSE_jE_E7ForeachERNS_8IVisitorIS3_EE, %function
_ZNK8opendnp318BufferedCollectionINS_7IndexedINS_13FrozenCounterEEEZNS_11RangeParser13InvokeRangeOfINS_11Group21Var5EEEvRKNS_12HeaderRecordERKNS_5RangeERKN7openpal6RSliceERNS_12IAPDUHandlerEEUlRSE_jE_E7ForeachERNS_8IVisitorIS3_EE:
.LFB3643:
	.cfi_startproc
	stp	x29, x30, [sp, -160]!
	.cfi_def_cfa_offset 160
	.cfi_offset 29, -160
	.cfi_offset 30, -152
	adrp	x2, :got:__stack_chk_guard
	mov	x29, sp
	ldr	x2, [x2, #:got_lo12:__stack_chk_guard]
	stp	x21, x22, [sp, 32]
	.cfi_offset 21, -128
	.cfi_offset 22, -120
	mov	x22, x0
	stp	x23, x24, [sp, 48]
	.cfi_offset 23, -112
	.cfi_offset 24, -104
	mov	x23, x1
	ldr	x1, [x2]
	str	x1, [sp, 152]
	mov	x1, 0
	ldp	x2, x3, [x0, 8]
	stp	x2, x3, [sp, 80]
	ldr	x0, [x0, 24]
	cbz	x0, .L259
	add	x24, sp, 80
	add	x21, sp, 120
	stp	x19, x20, [sp, 16]
	.cfi_offset 20, -136
	.cfi_offset 19, -144
	add	x20, sp, 96
	mov	w19, 0
	str	x25, [sp, 64]
	.cfi_offset 25, -96
	.p2align 3,,7
.L261:
	ldr	x1, [x23]
	mov	x0, x20
	ldr	x25, [x1]
	bl	_ZN8opendnp313FrozenCounterC1Ev
	mov	x1, x20
	mov	x0, x24
	bl	_ZN8opendnp311Group21Var510ReadTargetERN7openpal6RSliceERNS_13FrozenCounterE
	ldrh	w2, [x22, 32]
	ldr	x3, [x20, 16]
	add	w2, w19, w2
	ldp	x0, x1, [x20]
	stp	x0, x1, [x21]
	add	w19, w19, 1
	str	x3, [x21, 16]
	mov	x0, x23
	strh	w2, [sp, 144]
	mov	x1, x21
	blr	x25
	ldr	x0, [x22, 24]
	cmp	x0, w19, uxtw
	bhi	.L261
	ldp	x19, x20, [sp, 16]
	.cfi_restore 20
	.cfi_restore 19
	ldr	x25, [sp, 64]
	.cfi_restore 25
.L259:
	adrp	x0, :got:__stack_chk_guard
	ldr	x0, [x0, #:got_lo12:__stack_chk_guard]
	ldr	x2, [sp, 152]
	ldr	x1, [x0]
	subs	x2, x2, x1
	mov	x1, 0
	bne	.L268
	ldp	x21, x22, [sp, 32]
	ldp	x23, x24, [sp, 48]
	ldp	x29, x30, [sp], 160
	.cfi_remember_state
	.cfi_restore 30
	.cfi_restore 29
	.cfi_restore 23
	.cfi_restore 24
	.cfi_restore 21
	.cfi_restore 22
	.cfi_def_cfa_offset 0
	ret
.L268:
	.cfi_restore_state
	stp	x19, x20, [sp, 16]
	.cfi_offset 20, -136
	.cfi_offset 19, -144
	str	x25, [sp, 64]
	.cfi_offset 25, -96
	bl	__stack_chk_fail
	.cfi_endproc
.LFE3643:
	.size	_ZNK8opendnp318BufferedCollectionINS_7IndexedINS_13FrozenCounterEEEZNS_11RangeParser13InvokeRangeOfINS_11Group21Var5EEEvRKNS_12HeaderRecordERKNS_5RangeERKN7openpal6RSliceERNS_12IAPDUHandlerEEUlRSE_jE_E7ForeachERNS_8IVisitorIS3_EE, .-_ZNK8opendnp318BufferedCollectionINS_7IndexedINS_13FrozenCounterEEEZNS_11RangeParser13InvokeRangeOfINS_11Group21Var5EEEvRKNS_12HeaderRecordERKNS_5RangeERKN7openpal6RSliceERNS_12IAPDUHandlerEEUlRSE_jE_E7ForeachERNS_8IVisitorIS3_EE
	.section	.text._ZNK8opendnp318BufferedCollectionINS_7IndexedINS_13FrozenCounterEEEZNS_11RangeParser13InvokeRangeOfINS_11Group21Var6EEEvRKNS_12HeaderRecordERKNS_5RangeERKN7openpal6RSliceERNS_12IAPDUHandlerEEUlRSE_jE_E7ForeachERNS_8IVisitorIS3_EE,"axG",@progbits,_ZNK8opendnp318BufferedCollectionINS_7IndexedINS_13FrozenCounterEEEZNS_11RangeParser13InvokeRangeOfINS_11Group21Var6EEEvRKNS_12HeaderRecordERKNS_5RangeERKN7openpal6RSliceERNS_12IAPDUHandlerEEUlRSE_jE_E7ForeachERNS_8IVisitorIS3_EE,comdat
	.align	2
	.p2align 4,,11
	.weak	_ZNK8opendnp318BufferedCollectionINS_7IndexedINS_13FrozenCounterEEEZNS_11RangeParser13InvokeRangeOfINS_11Group21Var6EEEvRKNS_12HeaderRecordERKNS_5RangeERKN7openpal6RSliceERNS_12IAPDUHandlerEEUlRSE_jE_E7ForeachERNS_8IVisitorIS3_EE
	.type	_ZNK8opendnp318BufferedCollectionINS_7IndexedINS_13FrozenCounterEEEZNS_11RangeParser13InvokeRangeOfINS_11Group21Var6EEEvRKNS_12HeaderRecordERKNS_5RangeERKN7openpal6RSliceERNS_12IAPDUHandlerEEUlRSE_jE_E7ForeachERNS_8IVisitorIS3_EE, %function
_ZNK8opendnp318BufferedCollectionINS_7IndexedINS_13FrozenCounterEEEZNS_11RangeParser13InvokeRangeOfINS_11Group21Var6EEEvRKNS_12HeaderRecordERKNS_5RangeERKN7openpal6RSliceERNS_12IAPDUHandlerEEUlRSE_jE_E7ForeachERNS_8IVisitorIS3_EE:
.LFB3641:
	.cfi_startproc
	stp	x29, x30, [sp, -160]!
	.cfi_def_cfa_offset 160
	.cfi_offset 29, -160
	.cfi_offset 30, -152
	adrp	x2, :got:__stack_chk_guard
	mov	x29, sp
	ldr	x2, [x2, #:got_lo12:__stack_chk_guard]
	stp	x21, x22, [sp, 32]
	.cfi_offset 21, -128
	.cfi_offset 22, -120
	mov	x22, x0
	stp	x23, x24, [sp, 48]
	.cfi_offset 23, -112
	.cfi_offset 24, -104
	mov	x23, x1
	ldr	x1, [x2]
	str	x1, [sp, 152]
	mov	x1, 0
	ldp	x2, x3, [x0, 8]
	stp	x2, x3, [sp, 80]
	ldr	x0, [x0, 24]
	cbz	x0, .L269
	add	x24, sp, 80
	add	x21, sp, 120
	stp	x19, x20, [sp, 16]
	.cfi_offset 20, -136
	.cfi_offset 19, -144
	add	x20, sp, 96
	mov	w19, 0
	str	x25, [sp, 64]
	.cfi_offset 25, -96
	.p2align 3,,7
.L271:
	ldr	x1, [x23]
	mov	x0, x20
	ldr	x25, [x1]
	bl	_ZN8opendnp313FrozenCounterC1Ev
	mov	x1, x20
	mov	x0, x24
	bl	_ZN8opendnp311Group21Var610ReadTargetERN7openpal6RSliceERNS_13FrozenCounterE
	ldrh	w2, [x22, 32]
	ldr	x3, [x20, 16]
	add	w2, w19, w2
	ldp	x0, x1, [x20]
	stp	x0, x1, [x21]
	add	w19, w19, 1
	str	x3, [x21, 16]
	mov	x0, x23
	strh	w2, [sp, 144]
	mov	x1, x21
	blr	x25
	ldr	x0, [x22, 24]
	cmp	x0, w19, uxtw
	bhi	.L271
	ldp	x19, x20, [sp, 16]
	.cfi_restore 20
	.cfi_restore 19
	ldr	x25, [sp, 64]
	.cfi_restore 25
.L269:
	adrp	x0, :got:__stack_chk_guard
	ldr	x0, [x0, #:got_lo12:__stack_chk_guard]
	ldr	x2, [sp, 152]
	ldr	x1, [x0]
	subs	x2, x2, x1
	mov	x1, 0
	bne	.L278
	ldp	x21, x22, [sp, 32]
	ldp	x23, x24, [sp, 48]
	ldp	x29, x30, [sp], 160
	.cfi_remember_state
	.cfi_restore 30
	.cfi_restore 29
	.cfi_restore 23
	.cfi_restore 24
	.cfi_restore 21
	.cfi_restore 22
	.cfi_def_cfa_offset 0
	ret
.L278:
	.cfi_restore_state
	stp	x19, x20, [sp, 16]
	.cfi_offset 20, -136
	.cfi_offset 19, -144
	str	x25, [sp, 64]
	.cfi_offset 25, -96
	bl	__stack_chk_fail
	.cfi_endproc
.LFE3641:
	.size	_ZNK8opendnp318BufferedCollectionINS_7IndexedINS_13FrozenCounterEEEZNS_11RangeParser13InvokeRangeOfINS_11Group21Var6EEEvRKNS_12HeaderRecordERKNS_5RangeERKN7openpal6RSliceERNS_12IAPDUHandlerEEUlRSE_jE_E7ForeachERNS_8IVisitorIS3_EE, .-_ZNK8opendnp318BufferedCollectionINS_7IndexedINS_13FrozenCounterEEEZNS_11RangeParser13InvokeRangeOfINS_11Group21Var6EEEvRKNS_12HeaderRecordERKNS_5RangeERKN7openpal6RSliceERNS_12IAPDUHandlerEEUlRSE_jE_E7ForeachERNS_8IVisitorIS3_EE
	.section	.text._ZNK8opendnp318BufferedCollectionINS_7IndexedINS_13FrozenCounterEEEZNS_11RangeParser13InvokeRangeOfINS_11Group21Var9EEEvRKNS_12HeaderRecordERKNS_5RangeERKN7openpal6RSliceERNS_12IAPDUHandlerEEUlRSE_jE_E7ForeachERNS_8IVisitorIS3_EE,"axG",@progbits,_ZNK8opendnp318BufferedCollectionINS_7IndexedINS_13FrozenCounterEEEZNS_11RangeParser13InvokeRangeOfINS_11Group21Var9EEEvRKNS_12HeaderRecordERKNS_5RangeERKN7openpal6RSliceERNS_12IAPDUHandlerEEUlRSE_jE_E7ForeachERNS_8IVisitorIS3_EE,comdat
	.align	2
	.p2align 4,,11
	.weak	_ZNK8opendnp318BufferedCollectionINS_7IndexedINS_13FrozenCounterEEEZNS_11RangeParser13InvokeRangeOfINS_11Group21Var9EEEvRKNS_12HeaderRecordERKNS_5RangeERKN7openpal6RSliceERNS_12IAPDUHandlerEEUlRSE_jE_E7ForeachERNS_8IVisitorIS3_EE
	.type	_ZNK8opendnp318BufferedCollectionINS_7IndexedINS_13FrozenCounterEEEZNS_11RangeParser13InvokeRangeOfINS_11Group21Var9EEEvRKNS_12HeaderRecordERKNS_5RangeERKN7openpal6RSliceERNS_12IAPDUHandlerEEUlRSE_jE_E7ForeachERNS_8IVisitorIS3_EE, %function
_ZNK8opendnp318BufferedCollectionINS_7IndexedINS_13FrozenCounterEEEZNS_11RangeParser13InvokeRangeOfINS_11Group21Var9EEEvRKNS_12HeaderRecordERKNS_5RangeERKN7openpal6RSliceERNS_12IAPDUHandlerEEUlRSE_jE_E7ForeachERNS_8IVisitorIS3_EE:
.LFB3639:
	.cfi_startproc
	stp	x29, x30, [sp, -160]!
	.cfi_def_cfa_offset 160
	.cfi_offset 29, -160
	.cfi_offset 30, -152
	adrp	x2, :got:__stack_chk_guard
	mov	x29, sp
	ldr	x2, [x2, #:got_lo12:__stack_chk_guard]
	stp	x21, x22, [sp, 32]
	.cfi_offset 21, -128
	.cfi_offset 22, -120
	mov	x22, x0
	stp	x23, x24, [sp, 48]
	.cfi_offset 23, -112
	.cfi_offset 24, -104
	mov	x23, x1
	ldr	x1, [x2]
	str	x1, [sp, 152]
	mov	x1, 0
	ldp	x2, x3, [x0, 8]
	stp	x2, x3, [sp, 80]
	ldr	x0, [x0, 24]
	cbz	x0, .L279
	add	x24, sp, 80
	add	x21, sp, 120
	stp	x19, x20, [sp, 16]
	.cfi_offset 20, -136
	.cfi_offset 19, -144
	add	x20, sp, 96
	mov	w19, 0
	str	x25, [sp, 64]
	.cfi_offset 25, -96
	.p2align 3,,7
.L281:
	ldr	x1, [x23]
	mov	x0, x20
	ldr	x25, [x1]
	bl	_ZN8opendnp313FrozenCounterC1Ev
	mov	x1, x20
	mov	x0, x24
	bl	_ZN8opendnp311Group21Var910ReadTargetERN7openpal6RSliceERNS_13FrozenCounterE
	ldrh	w2, [x22, 32]
	ldr	x3, [x20, 16]
	add	w2, w19, w2
	ldp	x0, x1, [x20]
	stp	x0, x1, [x21]
	add	w19, w19, 1
	str	x3, [x21, 16]
	mov	x0, x23
	strh	w2, [sp, 144]
	mov	x1, x21
	blr	x25
	ldr	x0, [x22, 24]
	cmp	x0, w19, uxtw
	bhi	.L281
	ldp	x19, x20, [sp, 16]
	.cfi_restore 20
	.cfi_restore 19
	ldr	x25, [sp, 64]
	.cfi_restore 25
.L279:
	adrp	x0, :got:__stack_chk_guard
	ldr	x0, [x0, #:got_lo12:__stack_chk_guard]
	ldr	x2, [sp, 152]
	ldr	x1, [x0]
	subs	x2, x2, x1
	mov	x1, 0
	bne	.L288
	ldp	x21, x22, [sp, 32]
	ldp	x23, x24, [sp, 48]
	ldp	x29, x30, [sp], 160
	.cfi_remember_state
	.cfi_restore 30
	.cfi_restore 29
	.cfi_restore 23
	.cfi_restore 24
	.cfi_restore 21
	.cfi_restore 22
	.cfi_def_cfa_offset 0
	ret
.L288:
	.cfi_restore_state
	stp	x19, x20, [sp, 16]
	.cfi_offset 20, -136
	.cfi_offset 19, -144
	str	x25, [sp, 64]
	.cfi_offset 25, -96
	bl	__stack_chk_fail
	.cfi_endproc
.LFE3639:
	.size	_ZNK8opendnp318BufferedCollectionINS_7IndexedINS_13FrozenCounterEEEZNS_11RangeParser13InvokeRangeOfINS_11Group21Var9EEEvRKNS_12HeaderRecordERKNS_5RangeERKN7openpal6RSliceERNS_12IAPDUHandlerEEUlRSE_jE_E7ForeachERNS_8IVisitorIS3_EE, .-_ZNK8opendnp318BufferedCollectionINS_7IndexedINS_13FrozenCounterEEEZNS_11RangeParser13InvokeRangeOfINS_11Group21Var9EEEvRKNS_12HeaderRecordERKNS_5RangeERKN7openpal6RSliceERNS_12IAPDUHandlerEEUlRSE_jE_E7ForeachERNS_8IVisitorIS3_EE
	.section	.text._ZNK8opendnp318BufferedCollectionINS_7IndexedINS_13FrozenCounterEEEZNS_11RangeParser13InvokeRangeOfINS_12Group21Var10EEEvRKNS_12HeaderRecordERKNS_5RangeERKN7openpal6RSliceERNS_12IAPDUHandlerEEUlRSE_jE_E7ForeachERNS_8IVisitorIS3_EE,"axG",@progbits,_ZNK8opendnp318BufferedCollectionINS_7IndexedINS_13FrozenCounterEEEZNS_11RangeParser13InvokeRangeOfINS_12Group21Var10EEEvRKNS_12HeaderRecordERKNS_5RangeERKN7openpal6RSliceERNS_12IAPDUHandlerEEUlRSE_jE_E7ForeachERNS_8IVisitorIS3_EE,comdat
	.align	2
	.p2align 4,,11
	.weak	_ZNK8opendnp318BufferedCollectionINS_7IndexedINS_13FrozenCounterEEEZNS_11RangeParser13InvokeRangeOfINS_12Group21Var10EEEvRKNS_12HeaderRecordERKNS_5RangeERKN7openpal6RSliceERNS_12IAPDUHandlerEEUlRSE_jE_E7ForeachERNS_8IVisitorIS3_EE
	.type	_ZNK8opendnp318BufferedCollectionINS_7IndexedINS_13FrozenCounterEEEZNS_11RangeParser13InvokeRangeOfINS_12Group21Var10EEEvRKNS_12HeaderRecordERKNS_5RangeERKN7openpal6RSliceERNS_12IAPDUHandlerEEUlRSE_jE_E7ForeachERNS_8IVisitorIS3_EE, %function
_ZNK8opendnp318BufferedCollectionINS_7IndexedINS_13FrozenCounterEEEZNS_11RangeParser13InvokeRangeOfINS_12Group21Var10EEEvRKNS_12HeaderRecordERKNS_5RangeERKN7openpal6RSliceERNS_12IAPDUHandlerEEUlRSE_jE_E7ForeachERNS_8IVisitorIS3_EE:
.LFB3637:
	.cfi_startproc
	stp	x29, x30, [sp, -160]!
	.cfi_def_cfa_offset 160
	.cfi_offset 29, -160
	.cfi_offset 30, -152
	adrp	x2, :got:__stack_chk_guard
	mov	x29, sp
	ldr	x2, [x2, #:got_lo12:__stack_chk_guard]
	stp	x21, x22, [sp, 32]
	.cfi_offset 21, -128
	.cfi_offset 22, -120
	mov	x22, x0
	stp	x23, x24, [sp, 48]
	.cfi_offset 23, -112
	.cfi_offset 24, -104
	mov	x23, x1
	ldr	x1, [x2]
	str	x1, [sp, 152]
	mov	x1, 0
	ldp	x2, x3, [x0, 8]
	stp	x2, x3, [sp, 80]
	ldr	x0, [x0, 24]
	cbz	x0, .L289
	add	x24, sp, 80
	add	x21, sp, 120
	stp	x19, x20, [sp, 16]
	.cfi_offset 20, -136
	.cfi_offset 19, -144
	add	x20, sp, 96
	mov	w19, 0
	str	x25, [sp, 64]
	.cfi_offset 25, -96
	.p2align 3,,7
.L291:
	ldr	x1, [x23]
	mov	x0, x20
	ldr	x25, [x1]
	bl	_ZN8opendnp313FrozenCounterC1Ev
	mov	x1, x20
	mov	x0, x24
	bl	_ZN8opendnp312Group21Var1010ReadTargetERN7openpal6RSliceERNS_13FrozenCounterE
	ldrh	w2, [x22, 32]
	ldr	x3, [x20, 16]
	add	w2, w19, w2
	ldp	x0, x1, [x20]
	stp	x0, x1, [x21]
	add	w19, w19, 1
	str	x3, [x21, 16]
	mov	x0, x23
	strh	w2, [sp, 144]
	mov	x1, x21
	blr	x25
	ldr	x0, [x22, 24]
	cmp	x0, w19, uxtw
	bhi	.L291
	ldp	x19, x20, [sp, 16]
	.cfi_restore 20
	.cfi_restore 19
	ldr	x25, [sp, 64]
	.cfi_restore 25
.L289:
	adrp	x0, :got:__stack_chk_guard
	ldr	x0, [x0, #:got_lo12:__stack_chk_guard]
	ldr	x2, [sp, 152]
	ldr	x1, [x0]
	subs	x2, x2, x1
	mov	x1, 0
	bne	.L298
	ldp	x21, x22, [sp, 32]
	ldp	x23, x24, [sp, 48]
	ldp	x29, x30, [sp], 160
	.cfi_remember_state
	.cfi_restore 30
	.cfi_restore 29
	.cfi_restore 23
	.cfi_restore 24
	.cfi_restore 21
	.cfi_restore 22
	.cfi_def_cfa_offset 0
	ret
.L298:
	.cfi_restore_state
	stp	x19, x20, [sp, 16]
	.cfi_offset 20, -136
	.cfi_offset 19, -144
	str	x25, [sp, 64]
	.cfi_offset 25, -96
	bl	__stack_chk_fail
	.cfi_endproc
.LFE3637:
	.size	_ZNK8opendnp318BufferedCollectionINS_7IndexedINS_13FrozenCounterEEEZNS_11RangeParser13InvokeRangeOfINS_12Group21Var10EEEvRKNS_12HeaderRecordERKNS_5RangeERKN7openpal6RSliceERNS_12IAPDUHandlerEEUlRSE_jE_E7ForeachERNS_8IVisitorIS3_EE, .-_ZNK8opendnp318BufferedCollectionINS_7IndexedINS_13FrozenCounterEEEZNS_11RangeParser13InvokeRangeOfINS_12Group21Var10EEEvRKNS_12HeaderRecordERKNS_5RangeERKN7openpal6RSliceERNS_12IAPDUHandlerEEUlRSE_jE_E7ForeachERNS_8IVisitorIS3_EE
	.section	.text._ZN8opendnp311RangeParser13InvokeRangeOfINS_11Group30Var1EEEvRKNS_12HeaderRecordERKNS_5RangeERKN7openpal6RSliceERNS_12IAPDUHandlerE,"axG",@progbits,_ZN8opendnp311RangeParser13InvokeRangeOfINS_11Group30Var1EEEvRKNS_12HeaderRecordERKNS_5RangeERKN7openpal6RSliceERNS_12IAPDUHandlerE,comdat
	.align	2
	.p2align 4,,11
	.weak	_ZN8opendnp311RangeParser13InvokeRangeOfINS_11Group30Var1EEEvRKNS_12HeaderRecordERKNS_5RangeERKN7openpal6RSliceERNS_12IAPDUHandlerE
	.type	_ZN8opendnp311RangeParser13InvokeRangeOfINS_11Group30Var1EEEvRKNS_12HeaderRecordERKNS_5RangeERKN7openpal6RSliceERNS_12IAPDUHandlerE, %function
_ZN8opendnp311RangeParser13InvokeRangeOfINS_11Group30Var1EEEvRKNS_12HeaderRecordERKNS_5RangeERKN7openpal6RSliceERNS_12IAPDUHandlerE:
.LFB3077:
	.cfi_startproc
	stp	x29, x30, [sp, -96]!
	.cfi_def_cfa_offset 96
	.cfi_offset 29, -96
	.cfi_offset 30, -88
	adrp	x5, :got:__stack_chk_guard
	mov	x10, x0
	mov	x29, sp
	ldr	x7, [x5, #:got_lo12:__stack_chk_guard]
	adrp	x4, :got:_ZTVN8opendnp318BufferedCollectionINS_7IndexedINS_6AnalogEEEZNS_11RangeParser13InvokeRangeOfINS_11Group30Var1EEEvRKNS_12HeaderRecordERKNS_5RangeERKN7openpal6RSliceERNS_12IAPDUHandlerEEUlRSE_jE_EE
	ldrh	w5, [x1, 2]
	mov	x0, x3
	ldrh	w6, [x1]
	ldr	x3, [x7]
	str	x3, [sp, 88]
	mov	x3, 0
	ldr	x4, [x4, #:got_lo12:_ZTVN8opendnp318BufferedCollectionINS_7IndexedINS_6AnalogEEEZNS_11RangeParser13InvokeRangeOfINS_11Group30Var1EEEvRKNS_12HeaderRecordERKNS_5RangeERKN7openpal6RSliceERNS_12IAPDUHandlerEEUlRSE_jE_EE]
	add	w3, w5, 1
	ldp	x8, x9, [x2]
	cmp	w6, w5
	ldp	x10, x11, [x10]
	sub	w3, w3, w6
	ldr	w7, [x1]
	csel	x3, x3, xzr, ls
	add	x4, x4, 16
	add	x2, sp, 48
	add	x1, sp, 24
	stp	x10, x11, [sp, 24]
	str	w7, [sp, 40]
	str	x4, [sp, 48]
	stp	x8, x9, [sp, 56]
	str	x3, [sp, 72]
	strh	w6, [sp, 80]
	strh	w5, [sp, 82]
	bl	_ZN8opendnp312IAPDUHandler8OnHeaderERKNS_11RangeHeaderERKNS_11ICollectionINS_7IndexedINS_6AnalogEEEEE
	adrp	x0, :got:__stack_chk_guard
	ldr	x0, [x0, #:got_lo12:__stack_chk_guard]
	ldr	x2, [sp, 88]
	ldr	x1, [x0]
	subs	x2, x2, x1
	mov	x1, 0
	bne	.L304
	ldp	x29, x30, [sp], 96
	.cfi_remember_state
	.cfi_restore 30
	.cfi_restore 29
	.cfi_def_cfa_offset 0
	ret
.L304:
	.cfi_restore_state
	bl	__stack_chk_fail
	.cfi_endproc
.LFE3077:
	.size	_ZN8opendnp311RangeParser13InvokeRangeOfINS_11Group30Var1EEEvRKNS_12HeaderRecordERKNS_5RangeERKN7openpal6RSliceERNS_12IAPDUHandlerE, .-_ZN8opendnp311RangeParser13InvokeRangeOfINS_11Group30Var1EEEvRKNS_12HeaderRecordERKNS_5RangeERKN7openpal6RSliceERNS_12IAPDUHandlerE
	.section	.text._ZN8opendnp311RangeParser13InvokeRangeOfINS_11Group30Var2EEEvRKNS_12HeaderRecordERKNS_5RangeERKN7openpal6RSliceERNS_12IAPDUHandlerE,"axG",@progbits,_ZN8opendnp311RangeParser13InvokeRangeOfINS_11Group30Var2EEEvRKNS_12HeaderRecordERKNS_5RangeERKN7openpal6RSliceERNS_12IAPDUHandlerE,comdat
	.align	2
	.p2align 4,,11
	.weak	_ZN8opendnp311RangeParser13InvokeRangeOfINS_11Group30Var2EEEvRKNS_12HeaderRecordERKNS_5RangeERKN7openpal6RSliceERNS_12IAPDUHandlerE
	.type	_ZN8opendnp311RangeParser13InvokeRangeOfINS_11Group30Var2EEEvRKNS_12HeaderRecordERKNS_5RangeERKN7openpal6RSliceERNS_12IAPDUHandlerE, %function
_ZN8opendnp311RangeParser13InvokeRangeOfINS_11Group30Var2EEEvRKNS_12HeaderRecordERKNS_5RangeERKN7openpal6RSliceERNS_12IAPDUHandlerE:
.LFB3085:
	.cfi_startproc
	stp	x29, x30, [sp, -96]!
	.cfi_def_cfa_offset 96
	.cfi_offset 29, -96
	.cfi_offset 30, -88
	adrp	x5, :got:__stack_chk_guard
	mov	x10, x0
	mov	x29, sp
	ldr	x7, [x5, #:got_lo12:__stack_chk_guard]
	adrp	x4, :got:_ZTVN8opendnp318BufferedCollectionINS_7IndexedINS_6AnalogEEEZNS_11RangeParser13InvokeRangeOfINS_11Group30Var2EEEvRKNS_12HeaderRecordERKNS_5RangeERKN7openpal6RSliceERNS_12IAPDUHandlerEEUlRSE_jE_EE
	ldrh	w5, [x1, 2]
	mov	x0, x3
	ldrh	w6, [x1]
	ldr	x3, [x7]
	str	x3, [sp, 88]
	mov	x3, 0
	ldr	x4, [x4, #:got_lo12:_ZTVN8opendnp318BufferedCollectionINS_7IndexedINS_6AnalogEEEZNS_11RangeParser13InvokeRangeOfINS_11Group30Var2EEEvRKNS_12HeaderRecordERKNS_5RangeERKN7openpal6RSliceERNS_12IAPDUHandlerEEUlRSE_jE_EE]
	add	w3, w5, 1
	ldp	x8, x9, [x2]
	cmp	w6, w5
	ldp	x10, x11, [x10]
	sub	w3, w3, w6
	ldr	w7, [x1]
	csel	x3, x3, xzr, ls
	add	x4, x4, 16
	add	x2, sp, 48
	add	x1, sp, 24
	stp	x10, x11, [sp, 24]
	str	w7, [sp, 40]
	str	x4, [sp, 48]
	stp	x8, x9, [sp, 56]
	str	x3, [sp, 72]
	strh	w6, [sp, 80]
	strh	w5, [sp, 82]
	bl	_ZN8opendnp312IAPDUHandler8OnHeaderERKNS_11RangeHeaderERKNS_11ICollectionINS_7IndexedINS_6AnalogEEEEE
	adrp	x0, :got:__stack_chk_guard
	ldr	x0, [x0, #:got_lo12:__stack_chk_guard]
	ldr	x2, [sp, 88]
	ldr	x1, [x0]
	subs	x2, x2, x1
	mov	x1, 0
	bne	.L310
	ldp	x29, x30, [sp], 96
	.cfi_remember_state
	.cfi_restore 30
	.cfi_restore 29
	.cfi_def_cfa_offset 0
	ret
.L310:
	.cfi_restore_state
	bl	__stack_chk_fail
	.cfi_endproc
.LFE3085:
	.size	_ZN8opendnp311RangeParser13InvokeRangeOfINS_11Group30Var2EEEvRKNS_12HeaderRecordERKNS_5RangeERKN7openpal6RSliceERNS_12IAPDUHandlerE, .-_ZN8opendnp311RangeParser13InvokeRangeOfINS_11Group30Var2EEEvRKNS_12HeaderRecordERKNS_5RangeERKN7openpal6RSliceERNS_12IAPDUHandlerE
	.section	.text._ZN8opendnp311RangeParser13InvokeRangeOfINS_11Group30Var3EEEvRKNS_12HeaderRecordERKNS_5RangeERKN7openpal6RSliceERNS_12IAPDUHandlerE,"axG",@progbits,_ZN8opendnp311RangeParser13InvokeRangeOfINS_11Group30Var3EEEvRKNS_12HeaderRecordERKNS_5RangeERKN7openpal6RSliceERNS_12IAPDUHandlerE,comdat
	.align	2
	.p2align 4,,11
	.weak	_ZN8opendnp311RangeParser13InvokeRangeOfINS_11Group30Var3EEEvRKNS_12HeaderRecordERKNS_5RangeERKN7openpal6RSliceERNS_12IAPDUHandlerE
	.type	_ZN8opendnp311RangeParser13InvokeRangeOfINS_11Group30Var3EEEvRKNS_12HeaderRecordERKNS_5RangeERKN7openpal6RSliceERNS_12IAPDUHandlerE, %function
_ZN8opendnp311RangeParser13InvokeRangeOfINS_11Group30Var3EEEvRKNS_12HeaderRecordERKNS_5RangeERKN7openpal6RSliceERNS_12IAPDUHandlerE:
.LFB3090:
	.cfi_startproc
	stp	x29, x30, [sp, -96]!
	.cfi_def_cfa_offset 96
	.cfi_offset 29, -96
	.cfi_offset 30, -88
	adrp	x5, :got:__stack_chk_guard
	mov	x10, x0
	mov	x29, sp
	ldr	x7, [x5, #:got_lo12:__stack_chk_guard]
	adrp	x4, :got:_ZTVN8opendnp318BufferedCollectionINS_7IndexedINS_6AnalogEEEZNS_11RangeParser13InvokeRangeOfINS_11Group30Var3EEEvRKNS_12HeaderRecordERKNS_5RangeERKN7openpal6RSliceERNS_12IAPDUHandlerEEUlRSE_jE_EE
	ldrh	w5, [x1, 2]
	mov	x0, x3
	ldrh	w6, [x1]
	ldr	x3, [x7]
	str	x3, [sp, 88]
	mov	x3, 0
	ldr	x4, [x4, #:got_lo12:_ZTVN8opendnp318BufferedCollectionINS_7IndexedINS_6AnalogEEEZNS_11RangeParser13InvokeRangeOfINS_11Group30Var3EEEvRKNS_12HeaderRecordERKNS_5RangeERKN7openpal6RSliceERNS_12IAPDUHandlerEEUlRSE_jE_EE]
	add	w3, w5, 1
	ldp	x8, x9, [x2]
	cmp	w6, w5
	ldp	x10, x11, [x10]
	sub	w3, w3, w6
	ldr	w7, [x1]
	csel	x3, x3, xzr, ls
	add	x4, x4, 16
	add	x2, sp, 48
	add	x1, sp, 24
	stp	x10, x11, [sp, 24]
	str	w7, [sp, 40]
	str	x4, [sp, 48]
	stp	x8, x9, [sp, 56]
	str	x3, [sp, 72]
	strh	w6, [sp, 80]
	strh	w5, [sp, 82]
	bl	_ZN8opendnp312IAPDUHandler8OnHeaderERKNS_11RangeHeaderERKNS_11ICollectionINS_7IndexedINS_6AnalogEEEEE
	adrp	x0, :got:__stack_chk_guard
	ldr	x0, [x0, #:got_lo12:__stack_chk_guard]
	ldr	x2, [sp, 88]
	ldr	x1, [x0]
	subs	x2, x2, x1
	mov	x1, 0
	bne	.L316
	ldp	x29, x30, [sp], 96
	.cfi_remember_state
	.cfi_restore 30
	.cfi_restore 29
	.cfi_def_cfa_offset 0
	ret
.L316:
	.cfi_restore_state
	bl	__stack_chk_fail
	.cfi_endproc
.LFE3090:
	.size	_ZN8opendnp311RangeParser13InvokeRangeOfINS_11Group30Var3EEEvRKNS_12HeaderRecordERKNS_5RangeERKN7openpal6RSliceERNS_12IAPDUHandlerE, .-_ZN8opendnp311RangeParser13InvokeRangeOfINS_11Group30Var3EEEvRKNS_12HeaderRecordERKNS_5RangeERKN7openpal6RSliceERNS_12IAPDUHandlerE
	.section	.text._ZN8opendnp311RangeParser13InvokeRangeOfINS_11Group30Var4EEEvRKNS_12HeaderRecordERKNS_5RangeERKN7openpal6RSliceERNS_12IAPDUHandlerE,"axG",@progbits,_ZN8opendnp311RangeParser13InvokeRangeOfINS_11Group30Var4EEEvRKNS_12HeaderRecordERKNS_5RangeERKN7openpal6RSliceERNS_12IAPDUHandlerE,comdat
	.align	2
	.p2align 4,,11
	.weak	_ZN8opendnp311RangeParser13InvokeRangeOfINS_11Group30Var4EEEvRKNS_12HeaderRecordERKNS_5RangeERKN7openpal6RSliceERNS_12IAPDUHandlerE
	.type	_ZN8opendnp311RangeParser13InvokeRangeOfINS_11Group30Var4EEEvRKNS_12HeaderRecordERKNS_5RangeERKN7openpal6RSliceERNS_12IAPDUHandlerE, %function
_ZN8opendnp311RangeParser13InvokeRangeOfINS_11Group30Var4EEEvRKNS_12HeaderRecordERKNS_5RangeERKN7openpal6RSliceERNS_12IAPDUHandlerE:
.LFB3095:
	.cfi_startproc
	stp	x29, x30, [sp, -96]!
	.cfi_def_cfa_offset 96
	.cfi_offset 29, -96
	.cfi_offset 30, -88
	adrp	x5, :got:__stack_chk_guard
	mov	x10, x0
	mov	x29, sp
	ldr	x7, [x5, #:got_lo12:__stack_chk_guard]
	adrp	x4, :got:_ZTVN8opendnp318BufferedCollectionINS_7IndexedINS_6AnalogEEEZNS_11RangeParser13InvokeRangeOfINS_11Group30Var4EEEvRKNS_12HeaderRecordERKNS_5RangeERKN7openpal6RSliceERNS_12IAPDUHandlerEEUlRSE_jE_EE
	ldrh	w5, [x1, 2]
	mov	x0, x3
	ldrh	w6, [x1]
	ldr	x3, [x7]
	str	x3, [sp, 88]
	mov	x3, 0
	ldr	x4, [x4, #:got_lo12:_ZTVN8opendnp318BufferedCollectionINS_7IndexedINS_6AnalogEEEZNS_11RangeParser13InvokeRangeOfINS_11Group30Var4EEEvRKNS_12HeaderRecordERKNS_5RangeERKN7openpal6RSliceERNS_12IAPDUHandlerEEUlRSE_jE_EE]
	add	w3, w5, 1
	ldp	x8, x9, [x2]
	cmp	w6, w5
	ldp	x10, x11, [x10]
	sub	w3, w3, w6
	ldr	w7, [x1]
	csel	x3, x3, xzr, ls
	add	x4, x4, 16
	add	x2, sp, 48
	add	x1, sp, 24
	stp	x10, x11, [sp, 24]
	str	w7, [sp, 40]
	str	x4, [sp, 48]
	stp	x8, x9, [sp, 56]
	str	x3, [sp, 72]
	strh	w6, [sp, 80]
	strh	w5, [sp, 82]
	bl	_ZN8opendnp312IAPDUHandler8OnHeaderERKNS_11RangeHeaderERKNS_11ICollectionINS_7IndexedINS_6AnalogEEEEE
	adrp	x0, :got:__stack_chk_guard
	ldr	x0, [x0, #:got_lo12:__stack_chk_guard]
	ldr	x2, [sp, 88]
	ldr	x1, [x0]
	subs	x2, x2, x1
	mov	x1, 0
	bne	.L322
	ldp	x29, x30, [sp], 96
	.cfi_remember_state
	.cfi_restore 30
	.cfi_restore 29
	.cfi_def_cfa_offset 0
	ret
.L322:
	.cfi_restore_state
	bl	__stack_chk_fail
	.cfi_endproc
.LFE3095:
	.size	_ZN8opendnp311RangeParser13InvokeRangeOfINS_11Group30Var4EEEvRKNS_12HeaderRecordERKNS_5RangeERKN7openpal6RSliceERNS_12IAPDUHandlerE, .-_ZN8opendnp311RangeParser13InvokeRangeOfINS_11Group30Var4EEEvRKNS_12HeaderRecordERKNS_5RangeERKN7openpal6RSliceERNS_12IAPDUHandlerE
	.section	.text._ZN8opendnp311RangeParser13InvokeRangeOfINS_11Group30Var5EEEvRKNS_12HeaderRecordERKNS_5RangeERKN7openpal6RSliceERNS_12IAPDUHandlerE,"axG",@progbits,_ZN8opendnp311RangeParser13InvokeRangeOfINS_11Group30Var5EEEvRKNS_12HeaderRecordERKNS_5RangeERKN7openpal6RSliceERNS_12IAPDUHandlerE,comdat
	.align	2
	.p2align 4,,11
	.weak	_ZN8opendnp311RangeParser13InvokeRangeOfINS_11Group30Var5EEEvRKNS_12HeaderRecordERKNS_5RangeERKN7openpal6RSliceERNS_12IAPDUHandlerE
	.type	_ZN8opendnp311RangeParser13InvokeRangeOfINS_11Group30Var5EEEvRKNS_12HeaderRecordERKNS_5RangeERKN7openpal6RSliceERNS_12IAPDUHandlerE, %function
_ZN8opendnp311RangeParser13InvokeRangeOfINS_11Group30Var5EEEvRKNS_12HeaderRecordERKNS_5RangeERKN7openpal6RSliceERNS_12IAPDUHandlerE:
.LFB3100:
	.cfi_startproc
	stp	x29, x30, [sp, -96]!
	.cfi_def_cfa_offset 96
	.cfi_offset 29, -96
	.cfi_offset 30, -88
	adrp	x5, :got:__stack_chk_guard
	mov	x10, x0
	mov	x29, sp
	ldr	x7, [x5, #:got_lo12:__stack_chk_guard]
	adrp	x4, :got:_ZTVN8opendnp318BufferedCollectionINS_7IndexedINS_6AnalogEEEZNS_11RangeParser13InvokeRangeOfINS_11Group30Var5EEEvRKNS_12HeaderRecordERKNS_5RangeERKN7openpal6RSliceERNS_12IAPDUHandlerEEUlRSE_jE_EE
	ldrh	w5, [x1, 2]
	mov	x0, x3
	ldrh	w6, [x1]
	ldr	x3, [x7]
	str	x3, [sp, 88]
	mov	x3, 0
	ldr	x4, [x4, #:got_lo12:_ZTVN8opendnp318BufferedCollectionINS_7IndexedINS_6AnalogEEEZNS_11RangeParser13InvokeRangeOfINS_11Group30Var5EEEvRKNS_12HeaderRecordERKNS_5RangeERKN7openpal6RSliceERNS_12IAPDUHandlerEEUlRSE_jE_EE]
	add	w3, w5, 1
	ldp	x8, x9, [x2]
	cmp	w6, w5
	ldp	x10, x11, [x10]
	sub	w3, w3, w6
	ldr	w7, [x1]
	csel	x3, x3, xzr, ls
	add	x4, x4, 16
	add	x2, sp, 48
	add	x1, sp, 24
	stp	x10, x11, [sp, 24]
	str	w7, [sp, 40]
	str	x4, [sp, 48]
	stp	x8, x9, [sp, 56]
	str	x3, [sp, 72]
	strh	w6, [sp, 80]
	strh	w5, [sp, 82]
	bl	_ZN8opendnp312IAPDUHandler8OnHeaderERKNS_11RangeHeaderERKNS_11ICollectionINS_7IndexedINS_6AnalogEEEEE
	adrp	x0, :got:__stack_chk_guard
	ldr	x0, [x0, #:got_lo12:__stack_chk_guard]
	ldr	x2, [sp, 88]
	ldr	x1, [x0]
	subs	x2, x2, x1
	mov	x1, 0
	bne	.L328
	ldp	x29, x30, [sp], 96
	.cfi_remember_state
	.cfi_restore 30
	.cfi_restore 29
	.cfi_def_cfa_offset 0
	ret
.L328:
	.cfi_restore_state
	bl	__stack_chk_fail
	.cfi_endproc
.LFE3100:
	.size	_ZN8opendnp311RangeParser13InvokeRangeOfINS_11Group30Var5EEEvRKNS_12HeaderRecordERKNS_5RangeERKN7openpal6RSliceERNS_12IAPDUHandlerE, .-_ZN8opendnp311RangeParser13InvokeRangeOfINS_11Group30Var5EEEvRKNS_12HeaderRecordERKNS_5RangeERKN7openpal6RSliceERNS_12IAPDUHandlerE
	.section	.text._ZN8opendnp311RangeParser13InvokeRangeOfINS_11Group30Var6EEEvRKNS_12HeaderRecordERKNS_5RangeERKN7openpal6RSliceERNS_12IAPDUHandlerE,"axG",@progbits,_ZN8opendnp311RangeParser13InvokeRangeOfINS_11Group30Var6EEEvRKNS_12HeaderRecordERKNS_5RangeERKN7openpal6RSliceERNS_12IAPDUHandlerE,comdat
	.align	2
	.p2align 4,,11
	.weak	_ZN8opendnp311RangeParser13InvokeRangeOfINS_11Group30Var6EEEvRKNS_12HeaderRecordERKNS_5RangeERKN7openpal6RSliceERNS_12IAPDUHandlerE
	.type	_ZN8opendnp311RangeParser13InvokeRangeOfINS_11Group30Var6EEEvRKNS_12HeaderRecordERKNS_5RangeERKN7openpal6RSliceERNS_12IAPDUHandlerE, %function
_ZN8opendnp311RangeParser13InvokeRangeOfINS_11Group30Var6EEEvRKNS_12HeaderRecordERKNS_5RangeERKN7openpal6RSliceERNS_12IAPDUHandlerE:
.LFB3105:
	.cfi_startproc
	stp	x29, x30, [sp, -96]!
	.cfi_def_cfa_offset 96
	.cfi_offset 29, -96
	.cfi_offset 30, -88
	adrp	x5, :got:__stack_chk_guard
	mov	x10, x0
	mov	x29, sp
	ldr	x7, [x5, #:got_lo12:__stack_chk_guard]
	adrp	x4, :got:_ZTVN8opendnp318BufferedCollectionINS_7IndexedINS_6AnalogEEEZNS_11RangeParser13InvokeRangeOfINS_11Group30Var6EEEvRKNS_12HeaderRecordERKNS_5RangeERKN7openpal6RSliceERNS_12IAPDUHandlerEEUlRSE_jE_EE
	ldrh	w5, [x1, 2]
	mov	x0, x3
	ldrh	w6, [x1]
	ldr	x3, [x7]
	str	x3, [sp, 88]
	mov	x3, 0
	ldr	x4, [x4, #:got_lo12:_ZTVN8opendnp318BufferedCollectionINS_7IndexedINS_6AnalogEEEZNS_11RangeParser13InvokeRangeOfINS_11Group30Var6EEEvRKNS_12HeaderRecordERKNS_5RangeERKN7openpal6RSliceERNS_12IAPDUHandlerEEUlRSE_jE_EE]
	add	w3, w5, 1
	ldp	x8, x9, [x2]
	cmp	w6, w5
	ldp	x10, x11, [x10]
	sub	w3, w3, w6
	ldr	w7, [x1]
	csel	x3, x3, xzr, ls
	add	x4, x4, 16
	add	x2, sp, 48
	add	x1, sp, 24
	stp	x10, x11, [sp, 24]
	str	w7, [sp, 40]
	str	x4, [sp, 48]
	stp	x8, x9, [sp, 56]
	str	x3, [sp, 72]
	strh	w6, [sp, 80]
	strh	w5, [sp, 82]
	bl	_ZN8opendnp312IAPDUHandler8OnHeaderERKNS_11RangeHeaderERKNS_11ICollectionINS_7IndexedINS_6AnalogEEEEE
	adrp	x0, :got:__stack_chk_guard
	ldr	x0, [x0, #:got_lo12:__stack_chk_guard]
	ldr	x2, [sp, 88]
	ldr	x1, [x0]
	subs	x2, x2, x1
	mov	x1, 0
	bne	.L334
	ldp	x29, x30, [sp], 96
	.cfi_remember_state
	.cfi_restore 30
	.cfi_restore 29
	.cfi_def_cfa_offset 0
	ret
.L334:
	.cfi_restore_state
	bl	__stack_chk_fail
	.cfi_endproc
.LFE3105:
	.size	_ZN8opendnp311RangeParser13InvokeRangeOfINS_11Group30Var6EEEvRKNS_12HeaderRecordERKNS_5RangeERKN7openpal6RSliceERNS_12IAPDUHandlerE, .-_ZN8opendnp311RangeParser13InvokeRangeOfINS_11Group30Var6EEEvRKNS_12HeaderRecordERKNS_5RangeERKN7openpal6RSliceERNS_12IAPDUHandlerE
	.section	.text._ZNK8opendnp318BufferedCollectionINS_7IndexedINS_6AnalogEEEZNS_11RangeParser13InvokeRangeOfINS_11Group30Var1EEEvRKNS_12HeaderRecordERKNS_5RangeERKN7openpal6RSliceERNS_12IAPDUHandlerEEUlRSE_jE_E7ForeachERNS_8IVisitorIS3_EE,"axG",@progbits,_ZNK8opendnp318BufferedCollectionINS_7IndexedINS_6AnalogEEEZNS_11RangeParser13InvokeRangeOfINS_11Group30Var1EEEvRKNS_12HeaderRecordERKNS_5RangeERKN7openpal6RSliceERNS_12IAPDUHandlerEEUlRSE_jE_E7ForeachERNS_8IVisitorIS3_EE,comdat
	.align	2
	.p2align 4,,11
	.weak	_ZNK8opendnp318BufferedCollectionINS_7IndexedINS_6AnalogEEEZNS_11RangeParser13InvokeRangeOfINS_11Group30Var1EEEvRKNS_12HeaderRecordERKNS_5RangeERKN7openpal6RSliceERNS_12IAPDUHandlerEEUlRSE_jE_E7ForeachERNS_8IVisitorIS3_EE
	.type	_ZNK8opendnp318BufferedCollectionINS_7IndexedINS_6AnalogEEEZNS_11RangeParser13InvokeRangeOfINS_11Group30Var1EEEvRKNS_12HeaderRecordERKNS_5RangeERKN7openpal6RSliceERNS_12IAPDUHandlerEEUlRSE_jE_E7ForeachERNS_8IVisitorIS3_EE, %function
_ZNK8opendnp318BufferedCollectionINS_7IndexedINS_6AnalogEEEZNS_11RangeParser13InvokeRangeOfINS_11Group30Var1EEEvRKNS_12HeaderRecordERKNS_5RangeERKN7openpal6RSliceERNS_12IAPDUHandlerEEUlRSE_jE_E7ForeachERNS_8IVisitorIS3_EE:
.LFB3635:
	.cfi_startproc
	stp	x29, x30, [sp, -160]!
	.cfi_def_cfa_offset 160
	.cfi_offset 29, -160
	.cfi_offset 30, -152
	adrp	x2, :got:__stack_chk_guard
	mov	x29, sp
	ldr	x2, [x2, #:got_lo12:__stack_chk_guard]
	stp	x21, x22, [sp, 32]
	.cfi_offset 21, -128
	.cfi_offset 22, -120
	mov	x22, x0
	stp	x23, x24, [sp, 48]
	.cfi_offset 23, -112
	.cfi_offset 24, -104
	mov	x23, x1
	ldr	x1, [x2]
	str	x1, [sp, 152]
	mov	x1, 0
	ldp	x2, x3, [x0, 8]
	stp	x2, x3, [sp, 80]
	ldr	x0, [x0, 24]
	cbz	x0, .L335
	add	x24, sp, 80
	add	x21, sp, 120
	stp	x19, x20, [sp, 16]
	.cfi_offset 20, -136
	.cfi_offset 19, -144
	add	x20, sp, 96
	mov	w19, 0
	str	x25, [sp, 64]
	.cfi_offset 25, -96
	.p2align 3,,7
.L337:
	ldr	x1, [x23]
	mov	x0, x20
	ldr	x25, [x1]
	bl	_ZN8opendnp36AnalogC1Ev
	mov	x1, x20
	mov	x0, x24
	bl	_ZN8opendnp311Group30Var110ReadTargetERN7openpal6RSliceERNS_6AnalogE
	ldrh	w2, [x22, 32]
	ldr	x3, [x20, 16]
	add	w2, w19, w2
	ldp	x0, x1, [x20]
	stp	x0, x1, [x21]
	add	w19, w19, 1
	str	x3, [x21, 16]
	mov	x0, x23
	strh	w2, [sp, 144]
	mov	x1, x21
	blr	x25
	ldr	x0, [x22, 24]
	cmp	x0, w19, uxtw
	bhi	.L337
	ldp	x19, x20, [sp, 16]
	.cfi_restore 20
	.cfi_restore 19
	ldr	x25, [sp, 64]
	.cfi_restore 25
.L335:
	adrp	x0, :got:__stack_chk_guard
	ldr	x0, [x0, #:got_lo12:__stack_chk_guard]
	ldr	x2, [sp, 152]
	ldr	x1, [x0]
	subs	x2, x2, x1
	mov	x1, 0
	bne	.L344
	ldp	x21, x22, [sp, 32]
	ldp	x23, x24, [sp, 48]
	ldp	x29, x30, [sp], 160
	.cfi_remember_state
	.cfi_restore 30
	.cfi_restore 29
	.cfi_restore 23
	.cfi_restore 24
	.cfi_restore 21
	.cfi_restore 22
	.cfi_def_cfa_offset 0
	ret
.L344:
	.cfi_restore_state
	stp	x19, x20, [sp, 16]
	.cfi_offset 20, -136
	.cfi_offset 19, -144
	str	x25, [sp, 64]
	.cfi_offset 25, -96
	bl	__stack_chk_fail
	.cfi_endproc
.LFE3635:
	.size	_ZNK8opendnp318BufferedCollectionINS_7IndexedINS_6AnalogEEEZNS_11RangeParser13InvokeRangeOfINS_11Group30Var1EEEvRKNS_12HeaderRecordERKNS_5RangeERKN7openpal6RSliceERNS_12IAPDUHandlerEEUlRSE_jE_E7ForeachERNS_8IVisitorIS3_EE, .-_ZNK8opendnp318BufferedCollectionINS_7IndexedINS_6AnalogEEEZNS_11RangeParser13InvokeRangeOfINS_11Group30Var1EEEvRKNS_12HeaderRecordERKNS_5RangeERKN7openpal6RSliceERNS_12IAPDUHandlerEEUlRSE_jE_E7ForeachERNS_8IVisitorIS3_EE
	.section	.text._ZNK8opendnp318BufferedCollectionINS_7IndexedINS_6AnalogEEEZNS_11RangeParser13InvokeRangeOfINS_11Group30Var2EEEvRKNS_12HeaderRecordERKNS_5RangeERKN7openpal6RSliceERNS_12IAPDUHandlerEEUlRSE_jE_E7ForeachERNS_8IVisitorIS3_EE,"axG",@progbits,_ZNK8opendnp318BufferedCollectionINS_7IndexedINS_6AnalogEEEZNS_11RangeParser13InvokeRangeOfINS_11Group30Var2EEEvRKNS_12HeaderRecordERKNS_5RangeERKN7openpal6RSliceERNS_12IAPDUHandlerEEUlRSE_jE_E7ForeachERNS_8IVisitorIS3_EE,comdat
	.align	2
	.p2align 4,,11
	.weak	_ZNK8opendnp318BufferedCollectionINS_7IndexedINS_6AnalogEEEZNS_11RangeParser13InvokeRangeOfINS_11Group30Var2EEEvRKNS_12HeaderRecordERKNS_5RangeERKN7openpal6RSliceERNS_12IAPDUHandlerEEUlRSE_jE_E7ForeachERNS_8IVisitorIS3_EE
	.type	_ZNK8opendnp318BufferedCollectionINS_7IndexedINS_6AnalogEEEZNS_11RangeParser13InvokeRangeOfINS_11Group30Var2EEEvRKNS_12HeaderRecordERKNS_5RangeERKN7openpal6RSliceERNS_12IAPDUHandlerEEUlRSE_jE_E7ForeachERNS_8IVisitorIS3_EE, %function
_ZNK8opendnp318BufferedCollectionINS_7IndexedINS_6AnalogEEEZNS_11RangeParser13InvokeRangeOfINS_11Group30Var2EEEvRKNS_12HeaderRecordERKNS_5RangeERKN7openpal6RSliceERNS_12IAPDUHandlerEEUlRSE_jE_E7ForeachERNS_8IVisitorIS3_EE:
.LFB3633:
	.cfi_startproc
	stp	x29, x30, [sp, -160]!
	.cfi_def_cfa_offset 160
	.cfi_offset 29, -160
	.cfi_offset 30, -152
	adrp	x2, :got:__stack_chk_guard
	mov	x29, sp
	ldr	x2, [x2, #:got_lo12:__stack_chk_guard]
	stp	x21, x22, [sp, 32]
	.cfi_offset 21, -128
	.cfi_offset 22, -120
	mov	x22, x0
	stp	x23, x24, [sp, 48]
	.cfi_offset 23, -112
	.cfi_offset 24, -104
	mov	x23, x1
	ldr	x1, [x2]
	str	x1, [sp, 152]
	mov	x1, 0
	ldp	x2, x3, [x0, 8]
	stp	x2, x3, [sp, 80]
	ldr	x0, [x0, 24]
	cbz	x0, .L345
	add	x24, sp, 80
	add	x21, sp, 120
	stp	x19, x20, [sp, 16]
	.cfi_offset 20, -136
	.cfi_offset 19, -144
	add	x20, sp, 96
	mov	w19, 0
	str	x25, [sp, 64]
	.cfi_offset 25, -96
	.p2align 3,,7
.L347:
	ldr	x1, [x23]
	mov	x0, x20
	ldr	x25, [x1]
	bl	_ZN8opendnp36AnalogC1Ev
	mov	x1, x20
	mov	x0, x24
	bl	_ZN8opendnp311Group30Var210ReadTargetERN7openpal6RSliceERNS_6AnalogE
	ldrh	w2, [x22, 32]
	ldr	x3, [x20, 16]
	add	w2, w19, w2
	ldp	x0, x1, [x20]
	stp	x0, x1, [x21]
	add	w19, w19, 1
	str	x3, [x21, 16]
	mov	x0, x23
	strh	w2, [sp, 144]
	mov	x1, x21
	blr	x25
	ldr	x0, [x22, 24]
	cmp	x0, w19, uxtw
	bhi	.L347
	ldp	x19, x20, [sp, 16]
	.cfi_restore 20
	.cfi_restore 19
	ldr	x25, [sp, 64]
	.cfi_restore 25
.L345:
	adrp	x0, :got:__stack_chk_guard
	ldr	x0, [x0, #:got_lo12:__stack_chk_guard]
	ldr	x2, [sp, 152]
	ldr	x1, [x0]
	subs	x2, x2, x1
	mov	x1, 0
	bne	.L354
	ldp	x21, x22, [sp, 32]
	ldp	x23, x24, [sp, 48]
	ldp	x29, x30, [sp], 160
	.cfi_remember_state
	.cfi_restore 30
	.cfi_restore 29
	.cfi_restore 23
	.cfi_restore 24
	.cfi_restore 21
	.cfi_restore 22
	.cfi_def_cfa_offset 0
	ret
.L354:
	.cfi_restore_state
	stp	x19, x20, [sp, 16]
	.cfi_offset 20, -136
	.cfi_offset 19, -144
	str	x25, [sp, 64]
	.cfi_offset 25, -96
	bl	__stack_chk_fail
	.cfi_endproc
.LFE3633:
	.size	_ZNK8opendnp318BufferedCollectionINS_7IndexedINS_6AnalogEEEZNS_11RangeParser13InvokeRangeOfINS_11Group30Var2EEEvRKNS_12HeaderRecordERKNS_5RangeERKN7openpal6RSliceERNS_12IAPDUHandlerEEUlRSE_jE_E7ForeachERNS_8IVisitorIS3_EE, .-_ZNK8opendnp318BufferedCollectionINS_7IndexedINS_6AnalogEEEZNS_11RangeParser13InvokeRangeOfINS_11Group30Var2EEEvRKNS_12HeaderRecordERKNS_5RangeERKN7openpal6RSliceERNS_12IAPDUHandlerEEUlRSE_jE_E7ForeachERNS_8IVisitorIS3_EE
	.section	.text._ZNK8opendnp318BufferedCollectionINS_7IndexedINS_6AnalogEEEZNS_11RangeParser13InvokeRangeOfINS_11Group30Var3EEEvRKNS_12HeaderRecordERKNS_5RangeERKN7openpal6RSliceERNS_12IAPDUHandlerEEUlRSE_jE_E7ForeachERNS_8IVisitorIS3_EE,"axG",@progbits,_ZNK8opendnp318BufferedCollectionINS_7IndexedINS_6AnalogEEEZNS_11RangeParser13InvokeRangeOfINS_11Group30Var3EEEvRKNS_12HeaderRecordERKNS_5RangeERKN7openpal6RSliceERNS_12IAPDUHandlerEEUlRSE_jE_E7ForeachERNS_8IVisitorIS3_EE,comdat
	.align	2
	.p2align 4,,11
	.weak	_ZNK8opendnp318BufferedCollectionINS_7IndexedINS_6AnalogEEEZNS_11RangeParser13InvokeRangeOfINS_11Group30Var3EEEvRKNS_12HeaderRecordERKNS_5RangeERKN7openpal6RSliceERNS_12IAPDUHandlerEEUlRSE_jE_E7ForeachERNS_8IVisitorIS3_EE
	.type	_ZNK8opendnp318BufferedCollectionINS_7IndexedINS_6AnalogEEEZNS_11RangeParser13InvokeRangeOfINS_11Group30Var3EEEvRKNS_12HeaderRecordERKNS_5RangeERKN7openpal6RSliceERNS_12IAPDUHandlerEEUlRSE_jE_E7ForeachERNS_8IVisitorIS3_EE, %function
_ZNK8opendnp318BufferedCollectionINS_7IndexedINS_6AnalogEEEZNS_11RangeParser13InvokeRangeOfINS_11Group30Var3EEEvRKNS_12HeaderRecordERKNS_5RangeERKN7openpal6RSliceERNS_12IAPDUHandlerEEUlRSE_jE_E7ForeachERNS_8IVisitorIS3_EE:
.LFB3631:
	.cfi_startproc
	stp	x29, x30, [sp, -160]!
	.cfi_def_cfa_offset 160
	.cfi_offset 29, -160
	.cfi_offset 30, -152
	adrp	x2, :got:__stack_chk_guard
	mov	x29, sp
	ldr	x2, [x2, #:got_lo12:__stack_chk_guard]
	stp	x21, x22, [sp, 32]
	.cfi_offset 21, -128
	.cfi_offset 22, -120
	mov	x22, x0
	stp	x23, x24, [sp, 48]
	.cfi_offset 23, -112
	.cfi_offset 24, -104
	mov	x23, x1
	ldr	x1, [x2]
	str	x1, [sp, 152]
	mov	x1, 0
	ldp	x2, x3, [x0, 8]
	stp	x2, x3, [sp, 80]
	ldr	x0, [x0, 24]
	cbz	x0, .L355
	add	x24, sp, 80
	add	x21, sp, 120
	stp	x19, x20, [sp, 16]
	.cfi_offset 20, -136
	.cfi_offset 19, -144
	add	x20, sp, 96
	mov	w19, 0
	str	x25, [sp, 64]
	.cfi_offset 25, -96
	.p2align 3,,7
.L357:
	ldr	x1, [x23]
	mov	x0, x20
	ldr	x25, [x1]
	bl	_ZN8opendnp36AnalogC1Ev
	mov	x1, x20
	mov	x0, x24
	bl	_ZN8opendnp311Group30Var310ReadTargetERN7openpal6RSliceERNS_6AnalogE
	ldrh	w2, [x22, 32]
	ldr	x3, [x20, 16]
	add	w2, w19, w2
	ldp	x0, x1, [x20]
	stp	x0, x1, [x21]
	add	w19, w19, 1
	str	x3, [x21, 16]
	mov	x0, x23
	strh	w2, [sp, 144]
	mov	x1, x21
	blr	x25
	ldr	x0, [x22, 24]
	cmp	x0, w19, uxtw
	bhi	.L357
	ldp	x19, x20, [sp, 16]
	.cfi_restore 20
	.cfi_restore 19
	ldr	x25, [sp, 64]
	.cfi_restore 25
.L355:
	adrp	x0, :got:__stack_chk_guard
	ldr	x0, [x0, #:got_lo12:__stack_chk_guard]
	ldr	x2, [sp, 152]
	ldr	x1, [x0]
	subs	x2, x2, x1
	mov	x1, 0
	bne	.L364
	ldp	x21, x22, [sp, 32]
	ldp	x23, x24, [sp, 48]
	ldp	x29, x30, [sp], 160
	.cfi_remember_state
	.cfi_restore 30
	.cfi_restore 29
	.cfi_restore 23
	.cfi_restore 24
	.cfi_restore 21
	.cfi_restore 22
	.cfi_def_cfa_offset 0
	ret
.L364:
	.cfi_restore_state
	stp	x19, x20, [sp, 16]
	.cfi_offset 20, -136
	.cfi_offset 19, -144
	str	x25, [sp, 64]
	.cfi_offset 25, -96
	bl	__stack_chk_fail
	.cfi_endproc
.LFE3631:
	.size	_ZNK8opendnp318BufferedCollectionINS_7IndexedINS_6AnalogEEEZNS_11RangeParser13InvokeRangeOfINS_11Group30Var3EEEvRKNS_12HeaderRecordERKNS_5RangeERKN7openpal6RSliceERNS_12IAPDUHandlerEEUlRSE_jE_E7ForeachERNS_8IVisitorIS3_EE, .-_ZNK8opendnp318BufferedCollectionINS_7IndexedINS_6AnalogEEEZNS_11RangeParser13InvokeRangeOfINS_11Group30Var3EEEvRKNS_12HeaderRecordERKNS_5RangeERKN7openpal6RSliceERNS_12IAPDUHandlerEEUlRSE_jE_E7ForeachERNS_8IVisitorIS3_EE
	.section	.text._ZNK8opendnp318BufferedCollectionINS_7IndexedINS_6AnalogEEEZNS_11RangeParser13InvokeRangeOfINS_11Group30Var4EEEvRKNS_12HeaderRecordERKNS_5RangeERKN7openpal6RSliceERNS_12IAPDUHandlerEEUlRSE_jE_E7ForeachERNS_8IVisitorIS3_EE,"axG",@progbits,_ZNK8opendnp318BufferedCollectionINS_7IndexedINS_6AnalogEEEZNS_11RangeParser13InvokeRangeOfINS_11Group30Var4EEEvRKNS_12HeaderRecordERKNS_5RangeERKN7openpal6RSliceERNS_12IAPDUHandlerEEUlRSE_jE_E7ForeachERNS_8IVisitorIS3_EE,comdat
	.align	2
	.p2align 4,,11
	.weak	_ZNK8opendnp318BufferedCollectionINS_7IndexedINS_6AnalogEEEZNS_11RangeParser13InvokeRangeOfINS_11Group30Var4EEEvRKNS_12HeaderRecordERKNS_5RangeERKN7openpal6RSliceERNS_12IAPDUHandlerEEUlRSE_jE_E7ForeachERNS_8IVisitorIS3_EE
	.type	_ZNK8opendnp318BufferedCollectionINS_7IndexedINS_6AnalogEEEZNS_11RangeParser13InvokeRangeOfINS_11Group30Var4EEEvRKNS_12HeaderRecordERKNS_5RangeERKN7openpal6RSliceERNS_12IAPDUHandlerEEUlRSE_jE_E7ForeachERNS_8IVisitorIS3_EE, %function
_ZNK8opendnp318BufferedCollectionINS_7IndexedINS_6AnalogEEEZNS_11RangeParser13InvokeRangeOfINS_11Group30Var4EEEvRKNS_12HeaderRecordERKNS_5RangeERKN7openpal6RSliceERNS_12IAPDUHandlerEEUlRSE_jE_E7ForeachERNS_8IVisitorIS3_EE:
.LFB3629:
	.cfi_startproc
	stp	x29, x30, [sp, -160]!
	.cfi_def_cfa_offset 160
	.cfi_offset 29, -160
	.cfi_offset 30, -152
	adrp	x2, :got:__stack_chk_guard
	mov	x29, sp
	ldr	x2, [x2, #:got_lo12:__stack_chk_guard]
	stp	x21, x22, [sp, 32]
	.cfi_offset 21, -128
	.cfi_offset 22, -120
	mov	x22, x0
	stp	x23, x24, [sp, 48]
	.cfi_offset 23, -112
	.cfi_offset 24, -104
	mov	x23, x1
	ldr	x1, [x2]
	str	x1, [sp, 152]
	mov	x1, 0
	ldp	x2, x3, [x0, 8]
	stp	x2, x3, [sp, 80]
	ldr	x0, [x0, 24]
	cbz	x0, .L365
	add	x24, sp, 80
	add	x21, sp, 120
	stp	x19, x20, [sp, 16]
	.cfi_offset 20, -136
	.cfi_offset 19, -144
	add	x20, sp, 96
	mov	w19, 0
	str	x25, [sp, 64]
	.cfi_offset 25, -96
	.p2align 3,,7
.L367:
	ldr	x1, [x23]
	mov	x0, x20
	ldr	x25, [x1]
	bl	_ZN8opendnp36AnalogC1Ev
	mov	x1, x20
	mov	x0, x24
	bl	_ZN8opendnp311Group30Var410ReadTargetERN7openpal6RSliceERNS_6AnalogE
	ldrh	w2, [x22, 32]
	ldr	x3, [x20, 16]
	add	w2, w19, w2
	ldp	x0, x1, [x20]
	stp	x0, x1, [x21]
	add	w19, w19, 1
	str	x3, [x21, 16]
	mov	x0, x23
	strh	w2, [sp, 144]
	mov	x1, x21
	blr	x25
	ldr	x0, [x22, 24]
	cmp	x0, w19, uxtw
	bhi	.L367
	ldp	x19, x20, [sp, 16]
	.cfi_restore 20
	.cfi_restore 19
	ldr	x25, [sp, 64]
	.cfi_restore 25
.L365:
	adrp	x0, :got:__stack_chk_guard
	ldr	x0, [x0, #:got_lo12:__stack_chk_guard]
	ldr	x2, [sp, 152]
	ldr	x1, [x0]
	subs	x2, x2, x1
	mov	x1, 0
	bne	.L374
	ldp	x21, x22, [sp, 32]
	ldp	x23, x24, [sp, 48]
	ldp	x29, x30, [sp], 160
	.cfi_remember_state
	.cfi_restore 30
	.cfi_restore 29
	.cfi_restore 23
	.cfi_restore 24
	.cfi_restore 21
	.cfi_restore 22
	.cfi_def_cfa_offset 0
	ret
.L374:
	.cfi_restore_state
	stp	x19, x20, [sp, 16]
	.cfi_offset 20, -136
	.cfi_offset 19, -144
	str	x25, [sp, 64]
	.cfi_offset 25, -96
	bl	__stack_chk_fail
	.cfi_endproc
.LFE3629:
	.size	_ZNK8opendnp318BufferedCollectionINS_7IndexedINS_6AnalogEEEZNS_11RangeParser13InvokeRangeOfINS_11Group30Var4EEEvRKNS_12HeaderRecordERKNS_5RangeERKN7openpal6RSliceERNS_12IAPDUHandlerEEUlRSE_jE_E7ForeachERNS_8IVisitorIS3_EE, .-_ZNK8opendnp318BufferedCollectionINS_7IndexedINS_6AnalogEEEZNS_11RangeParser13InvokeRangeOfINS_11Group30Var4EEEvRKNS_12HeaderRecordERKNS_5RangeERKN7openpal6RSliceERNS_12IAPDUHandlerEEUlRSE_jE_E7ForeachERNS_8IVisitorIS3_EE
	.section	.text._ZNK8opendnp318BufferedCollectionINS_7IndexedINS_6AnalogEEEZNS_11RangeParser13InvokeRangeOfINS_11Group30Var5EEEvRKNS_12HeaderRecordERKNS_5RangeERKN7openpal6RSliceERNS_12IAPDUHandlerEEUlRSE_jE_E7ForeachERNS_8IVisitorIS3_EE,"axG",@progbits,_ZNK8opendnp318BufferedCollectionINS_7IndexedINS_6AnalogEEEZNS_11RangeParser13InvokeRangeOfINS_11Group30Var5EEEvRKNS_12HeaderRecordERKNS_5RangeERKN7openpal6RSliceERNS_12IAPDUHandlerEEUlRSE_jE_E7ForeachERNS_8IVisitorIS3_EE,comdat
	.align	2
	.p2align 4,,11
	.weak	_ZNK8opendnp318BufferedCollectionINS_7IndexedINS_6AnalogEEEZNS_11RangeParser13InvokeRangeOfINS_11Group30Var5EEEvRKNS_12HeaderRecordERKNS_5RangeERKN7openpal6RSliceERNS_12IAPDUHandlerEEUlRSE_jE_E7ForeachERNS_8IVisitorIS3_EE
	.type	_ZNK8opendnp318BufferedCollectionINS_7IndexedINS_6AnalogEEEZNS_11RangeParser13InvokeRangeOfINS_11Group30Var5EEEvRKNS_12HeaderRecordERKNS_5RangeERKN7openpal6RSliceERNS_12IAPDUHandlerEEUlRSE_jE_E7ForeachERNS_8IVisitorIS3_EE, %function
_ZNK8opendnp318BufferedCollectionINS_7IndexedINS_6AnalogEEEZNS_11RangeParser13InvokeRangeOfINS_11Group30Var5EEEvRKNS_12HeaderRecordERKNS_5RangeERKN7openpal6RSliceERNS_12IAPDUHandlerEEUlRSE_jE_E7ForeachERNS_8IVisitorIS3_EE:
.LFB3627:
	.cfi_startproc
	stp	x29, x30, [sp, -160]!
	.cfi_def_cfa_offset 160
	.cfi_offset 29, -160
	.cfi_offset 30, -152
	adrp	x2, :got:__stack_chk_guard
	mov	x29, sp
	ldr	x2, [x2, #:got_lo12:__stack_chk_guard]
	stp	x21, x22, [sp, 32]
	.cfi_offset 21, -128
	.cfi_offset 22, -120
	mov	x22, x0
	stp	x23, x24, [sp, 48]
	.cfi_offset 23, -112
	.cfi_offset 24, -104
	mov	x23, x1
	ldr	x1, [x2]
	str	x1, [sp, 152]
	mov	x1, 0
	ldp	x2, x3, [x0, 8]
	stp	x2, x3, [sp, 80]
	ldr	x0, [x0, 24]
	cbz	x0, .L375
	add	x24, sp, 80
	add	x21, sp, 120
	stp	x19, x20, [sp, 16]
	.cfi_offset 20, -136
	.cfi_offset 19, -144
	add	x20, sp, 96
	mov	w19, 0
	str	x25, [sp, 64]
	.cfi_offset 25, -96
	.p2align 3,,7
.L377:
	ldr	x1, [x23]
	mov	x0, x20
	ldr	x25, [x1]
	bl	_ZN8opendnp36AnalogC1Ev
	mov	x1, x20
	mov	x0, x24
	bl	_ZN8opendnp311Group30Var510ReadTargetERN7openpal6RSliceERNS_6AnalogE
	ldrh	w2, [x22, 32]
	ldr	x3, [x20, 16]
	add	w2, w19, w2
	ldp	x0, x1, [x20]
	stp	x0, x1, [x21]
	add	w19, w19, 1
	str	x3, [x21, 16]
	mov	x0, x23
	strh	w2, [sp, 144]
	mov	x1, x21
	blr	x25
	ldr	x0, [x22, 24]
	cmp	x0, w19, uxtw
	bhi	.L377
	ldp	x19, x20, [sp, 16]
	.cfi_restore 20
	.cfi_restore 19
	ldr	x25, [sp, 64]
	.cfi_restore 25
.L375:
	adrp	x0, :got:__stack_chk_guard
	ldr	x0, [x0, #:got_lo12:__stack_chk_guard]
	ldr	x2, [sp, 152]
	ldr	x1, [x0]
	subs	x2, x2, x1
	mov	x1, 0
	bne	.L384
	ldp	x21, x22, [sp, 32]
	ldp	x23, x24, [sp, 48]
	ldp	x29, x30, [sp], 160
	.cfi_remember_state
	.cfi_restore 30
	.cfi_restore 29
	.cfi_restore 23
	.cfi_restore 24
	.cfi_restore 21
	.cfi_restore 22
	.cfi_def_cfa_offset 0
	ret
.L384:
	.cfi_restore_state
	stp	x19, x20, [sp, 16]
	.cfi_offset 20, -136
	.cfi_offset 19, -144
	str	x25, [sp, 64]
	.cfi_offset 25, -96
	bl	__stack_chk_fail
	.cfi_endproc
.LFE3627:
	.size	_ZNK8opendnp318BufferedCollectionINS_7IndexedINS_6AnalogEEEZNS_11RangeParser13InvokeRangeOfINS_11Group30Var5EEEvRKNS_12HeaderRecordERKNS_5RangeERKN7openpal6RSliceERNS_12IAPDUHandlerEEUlRSE_jE_E7ForeachERNS_8IVisitorIS3_EE, .-_ZNK8opendnp318BufferedCollectionINS_7IndexedINS_6AnalogEEEZNS_11RangeParser13InvokeRangeOfINS_11Group30Var5EEEvRKNS_12HeaderRecordERKNS_5RangeERKN7openpal6RSliceERNS_12IAPDUHandlerEEUlRSE_jE_E7ForeachERNS_8IVisitorIS3_EE
	.section	.text._ZNK8opendnp318BufferedCollectionINS_7IndexedINS_6AnalogEEEZNS_11RangeParser13InvokeRangeOfINS_11Group30Var6EEEvRKNS_12HeaderRecordERKNS_5RangeERKN7openpal6RSliceERNS_12IAPDUHandlerEEUlRSE_jE_E7ForeachERNS_8IVisitorIS3_EE,"axG",@progbits,_ZNK8opendnp318BufferedCollectionINS_7IndexedINS_6AnalogEEEZNS_11RangeParser13InvokeRangeOfINS_11Group30Var6EEEvRKNS_12HeaderRecordERKNS_5RangeERKN7openpal6RSliceERNS_12IAPDUHandlerEEUlRSE_jE_E7ForeachERNS_8IVisitorIS3_EE,comdat
	.align	2
	.p2align 4,,11
	.weak	_ZNK8opendnp318BufferedCollectionINS_7IndexedINS_6AnalogEEEZNS_11RangeParser13InvokeRangeOfINS_11Group30Var6EEEvRKNS_12HeaderRecordERKNS_5RangeERKN7openpal6RSliceERNS_12IAPDUHandlerEEUlRSE_jE_E7ForeachERNS_8IVisitorIS3_EE
	.type	_ZNK8opendnp318BufferedCollectionINS_7IndexedINS_6AnalogEEEZNS_11RangeParser13InvokeRangeOfINS_11Group30Var6EEEvRKNS_12HeaderRecordERKNS_5RangeERKN7openpal6RSliceERNS_12IAPDUHandlerEEUlRSE_jE_E7ForeachERNS_8IVisitorIS3_EE, %function
_ZNK8opendnp318BufferedCollectionINS_7IndexedINS_6AnalogEEEZNS_11RangeParser13InvokeRangeOfINS_11Group30Var6EEEvRKNS_12HeaderRecordERKNS_5RangeERKN7openpal6RSliceERNS_12IAPDUHandlerEEUlRSE_jE_E7ForeachERNS_8IVisitorIS3_EE:
.LFB3625:
	.cfi_startproc
	stp	x29, x30, [sp, -160]!
	.cfi_def_cfa_offset 160
	.cfi_offset 29, -160
	.cfi_offset 30, -152
	adrp	x2, :got:__stack_chk_guard
	mov	x29, sp
	ldr	x2, [x2, #:got_lo12:__stack_chk_guard]
	stp	x21, x22, [sp, 32]
	.cfi_offset 21, -128
	.cfi_offset 22, -120
	mov	x22, x0
	stp	x23, x24, [sp, 48]
	.cfi_offset 23, -112
	.cfi_offset 24, -104
	mov	x23, x1
	ldr	x1, [x2]
	str	x1, [sp, 152]
	mov	x1, 0
	ldp	x2, x3, [x0, 8]
	stp	x2, x3, [sp, 80]
	ldr	x0, [x0, 24]
	cbz	x0, .L385
	add	x24, sp, 80
	add	x21, sp, 120
	stp	x19, x20, [sp, 16]
	.cfi_offset 20, -136
	.cfi_offset 19, -144
	add	x20, sp, 96
	mov	w19, 0
	str	x25, [sp, 64]
	.cfi_offset 25, -96
	.p2align 3,,7
.L387:
	ldr	x1, [x23]
	mov	x0, x20
	ldr	x25, [x1]
	bl	_ZN8opendnp36AnalogC1Ev
	mov	x1, x20
	mov	x0, x24
	bl	_ZN8opendnp311Group30Var610ReadTargetERN7openpal6RSliceERNS_6AnalogE
	ldrh	w2, [x22, 32]
	ldr	x3, [x20, 16]
	add	w2, w19, w2
	ldp	x0, x1, [x20]
	stp	x0, x1, [x21]
	add	w19, w19, 1
	str	x3, [x21, 16]
	mov	x0, x23
	strh	w2, [sp, 144]
	mov	x1, x21
	blr	x25
	ldr	x0, [x22, 24]
	cmp	x0, w19, uxtw
	bhi	.L387
	ldp	x19, x20, [sp, 16]
	.cfi_restore 20
	.cfi_restore 19
	ldr	x25, [sp, 64]
	.cfi_restore 25
.L385:
	adrp	x0, :got:__stack_chk_guard
	ldr	x0, [x0, #:got_lo12:__stack_chk_guard]
	ldr	x2, [sp, 152]
	ldr	x1, [x0]
	subs	x2, x2, x1
	mov	x1, 0
	bne	.L394
	ldp	x21, x22, [sp, 32]
	ldp	x23, x24, [sp, 48]
	ldp	x29, x30, [sp], 160
	.cfi_remember_state
	.cfi_restore 30
	.cfi_restore 29
	.cfi_restore 23
	.cfi_restore 24
	.cfi_restore 21
	.cfi_restore 22
	.cfi_def_cfa_offset 0
	ret
.L394:
	.cfi_restore_state
	stp	x19, x20, [sp, 16]
	.cfi_offset 20, -136
	.cfi_offset 19, -144
	str	x25, [sp, 64]
	.cfi_offset 25, -96
	bl	__stack_chk_fail
	.cfi_endproc
.LFE3625:
	.size	_ZNK8opendnp318BufferedCollectionINS_7IndexedINS_6AnalogEEEZNS_11RangeParser13InvokeRangeOfINS_11Group30Var6EEEvRKNS_12HeaderRecordERKNS_5RangeERKN7openpal6RSliceERNS_12IAPDUHandlerEEUlRSE_jE_E7ForeachERNS_8IVisitorIS3_EE, .-_ZNK8opendnp318BufferedCollectionINS_7IndexedINS_6AnalogEEEZNS_11RangeParser13InvokeRangeOfINS_11Group30Var6EEEvRKNS_12HeaderRecordERKNS_5RangeERKN7openpal6RSliceERNS_12IAPDUHandlerEEUlRSE_jE_E7ForeachERNS_8IVisitorIS3_EE
	.section	.text._ZN8opendnp311RangeParser13InvokeRangeOfINS_11Group40Var1EEEvRKNS_12HeaderRecordERKNS_5RangeERKN7openpal6RSliceERNS_12IAPDUHandlerE,"axG",@progbits,_ZN8opendnp311RangeParser13InvokeRangeOfINS_11Group40Var1EEEvRKNS_12HeaderRecordERKNS_5RangeERKN7openpal6RSliceERNS_12IAPDUHandlerE,comdat
	.align	2
	.p2align 4,,11
	.weak	_ZN8opendnp311RangeParser13InvokeRangeOfINS_11Group40Var1EEEvRKNS_12HeaderRecordERKNS_5RangeERKN7openpal6RSliceERNS_12IAPDUHandlerE
	.type	_ZN8opendnp311RangeParser13InvokeRangeOfINS_11Group40Var1EEEvRKNS_12HeaderRecordERKNS_5RangeERKN7openpal6RSliceERNS_12IAPDUHandlerE, %function
_ZN8opendnp311RangeParser13InvokeRangeOfINS_11Group40Var1EEEvRKNS_12HeaderRecordERKNS_5RangeERKN7openpal6RSliceERNS_12IAPDUHandlerE:
.LFB3110:
	.cfi_startproc
	stp	x29, x30, [sp, -96]!
	.cfi_def_cfa_offset 96
	.cfi_offset 29, -96
	.cfi_offset 30, -88
	adrp	x5, :got:__stack_chk_guard
	mov	x10, x0
	mov	x29, sp
	ldr	x7, [x5, #:got_lo12:__stack_chk_guard]
	adrp	x4, :got:_ZTVN8opendnp318BufferedCollectionINS_7IndexedINS_18AnalogOutputStatusEEEZNS_11RangeParser13InvokeRangeOfINS_11Group40Var1EEEvRKNS_12HeaderRecordERKNS_5RangeERKN7openpal6RSliceERNS_12IAPDUHandlerEEUlRSE_jE_EE
	ldrh	w5, [x1, 2]
	mov	x0, x3
	ldrh	w6, [x1]
	ldr	x3, [x7]
	str	x3, [sp, 88]
	mov	x3, 0
	ldr	x4, [x4, #:got_lo12:_ZTVN8opendnp318BufferedCollectionINS_7IndexedINS_18AnalogOutputStatusEEEZNS_11RangeParser13InvokeRangeOfINS_11Group40Var1EEEvRKNS_12HeaderRecordERKNS_5RangeERKN7openpal6RSliceERNS_12IAPDUHandlerEEUlRSE_jE_EE]
	add	w3, w5, 1
	ldp	x8, x9, [x2]
	cmp	w6, w5
	ldp	x10, x11, [x10]
	sub	w3, w3, w6
	ldr	w7, [x1]
	csel	x3, x3, xzr, ls
	add	x4, x4, 16
	add	x2, sp, 48
	add	x1, sp, 24
	stp	x10, x11, [sp, 24]
	str	w7, [sp, 40]
	str	x4, [sp, 48]
	stp	x8, x9, [sp, 56]
	str	x3, [sp, 72]
	strh	w6, [sp, 80]
	strh	w5, [sp, 82]
	bl	_ZN8opendnp312IAPDUHandler8OnHeaderERKNS_11RangeHeaderERKNS_11ICollectionINS_7IndexedINS_18AnalogOutputStatusEEEEE
	adrp	x0, :got:__stack_chk_guard
	ldr	x0, [x0, #:got_lo12:__stack_chk_guard]
	ldr	x2, [sp, 88]
	ldr	x1, [x0]
	subs	x2, x2, x1
	mov	x1, 0
	bne	.L400
	ldp	x29, x30, [sp], 96
	.cfi_remember_state
	.cfi_restore 30
	.cfi_restore 29
	.cfi_def_cfa_offset 0
	ret
.L400:
	.cfi_restore_state
	bl	__stack_chk_fail
	.cfi_endproc
.LFE3110:
	.size	_ZN8opendnp311RangeParser13InvokeRangeOfINS_11Group40Var1EEEvRKNS_12HeaderRecordERKNS_5RangeERKN7openpal6RSliceERNS_12IAPDUHandlerE, .-_ZN8opendnp311RangeParser13InvokeRangeOfINS_11Group40Var1EEEvRKNS_12HeaderRecordERKNS_5RangeERKN7openpal6RSliceERNS_12IAPDUHandlerE
	.section	.text._ZN8opendnp311RangeParser13InvokeRangeOfINS_11Group40Var2EEEvRKNS_12HeaderRecordERKNS_5RangeERKN7openpal6RSliceERNS_12IAPDUHandlerE,"axG",@progbits,_ZN8opendnp311RangeParser13InvokeRangeOfINS_11Group40Var2EEEvRKNS_12HeaderRecordERKNS_5RangeERKN7openpal6RSliceERNS_12IAPDUHandlerE,comdat
	.align	2
	.p2align 4,,11
	.weak	_ZN8opendnp311RangeParser13InvokeRangeOfINS_11Group40Var2EEEvRKNS_12HeaderRecordERKNS_5RangeERKN7openpal6RSliceERNS_12IAPDUHandlerE
	.type	_ZN8opendnp311RangeParser13InvokeRangeOfINS_11Group40Var2EEEvRKNS_12HeaderRecordERKNS_5RangeERKN7openpal6RSliceERNS_12IAPDUHandlerE, %function
_ZN8opendnp311RangeParser13InvokeRangeOfINS_11Group40Var2EEEvRKNS_12HeaderRecordERKNS_5RangeERKN7openpal6RSliceERNS_12IAPDUHandlerE:
.LFB3118:
	.cfi_startproc
	stp	x29, x30, [sp, -96]!
	.cfi_def_cfa_offset 96
	.cfi_offset 29, -96
	.cfi_offset 30, -88
	adrp	x5, :got:__stack_chk_guard
	mov	x10, x0
	mov	x29, sp
	ldr	x7, [x5, #:got_lo12:__stack_chk_guard]
	adrp	x4, :got:_ZTVN8opendnp318BufferedCollectionINS_7IndexedINS_18AnalogOutputStatusEEEZNS_11RangeParser13InvokeRangeOfINS_11Group40Var2EEEvRKNS_12HeaderRecordERKNS_5RangeERKN7openpal6RSliceERNS_12IAPDUHandlerEEUlRSE_jE_EE
	ldrh	w5, [x1, 2]
	mov	x0, x3
	ldrh	w6, [x1]
	ldr	x3, [x7]
	str	x3, [sp, 88]
	mov	x3, 0
	ldr	x4, [x4, #:got_lo12:_ZTVN8opendnp318BufferedCollectionINS_7IndexedINS_18AnalogOutputStatusEEEZNS_11RangeParser13InvokeRangeOfINS_11Group40Var2EEEvRKNS_12HeaderRecordERKNS_5RangeERKN7openpal6RSliceERNS_12IAPDUHandlerEEUlRSE_jE_EE]
	add	w3, w5, 1
	ldp	x8, x9, [x2]
	cmp	w6, w5
	ldp	x10, x11, [x10]
	sub	w3, w3, w6
	ldr	w7, [x1]
	csel	x3, x3, xzr, ls
	add	x4, x4, 16
	add	x2, sp, 48
	add	x1, sp, 24
	stp	x10, x11, [sp, 24]
	str	w7, [sp, 40]
	str	x4, [sp, 48]
	stp	x8, x9, [sp, 56]
	str	x3, [sp, 72]
	strh	w6, [sp, 80]
	strh	w5, [sp, 82]
	bl	_ZN8opendnp312IAPDUHandler8OnHeaderERKNS_11RangeHeaderERKNS_11ICollectionINS_7IndexedINS_18AnalogOutputStatusEEEEE
	adrp	x0, :got:__stack_chk_guard
	ldr	x0, [x0, #:got_lo12:__stack_chk_guard]
	ldr	x2, [sp, 88]
	ldr	x1, [x0]
	subs	x2, x2, x1
	mov	x1, 0
	bne	.L406
	ldp	x29, x30, [sp], 96
	.cfi_remember_state
	.cfi_restore 30
	.cfi_restore 29
	.cfi_def_cfa_offset 0
	ret
.L406:
	.cfi_restore_state
	bl	__stack_chk_fail
	.cfi_endproc
.LFE3118:
	.size	_ZN8opendnp311RangeParser13InvokeRangeOfINS_11Group40Var2EEEvRKNS_12HeaderRecordERKNS_5RangeERKN7openpal6RSliceERNS_12IAPDUHandlerE, .-_ZN8opendnp311RangeParser13InvokeRangeOfINS_11Group40Var2EEEvRKNS_12HeaderRecordERKNS_5RangeERKN7openpal6RSliceERNS_12IAPDUHandlerE
	.section	.text._ZN8opendnp311RangeParser13InvokeRangeOfINS_11Group40Var3EEEvRKNS_12HeaderRecordERKNS_5RangeERKN7openpal6RSliceERNS_12IAPDUHandlerE,"axG",@progbits,_ZN8opendnp311RangeParser13InvokeRangeOfINS_11Group40Var3EEEvRKNS_12HeaderRecordERKNS_5RangeERKN7openpal6RSliceERNS_12IAPDUHandlerE,comdat
	.align	2
	.p2align 4,,11
	.weak	_ZN8opendnp311RangeParser13InvokeRangeOfINS_11Group40Var3EEEvRKNS_12HeaderRecordERKNS_5RangeERKN7openpal6RSliceERNS_12IAPDUHandlerE
	.type	_ZN8opendnp311RangeParser13InvokeRangeOfINS_11Group40Var3EEEvRKNS_12HeaderRecordERKNS_5RangeERKN7openpal6RSliceERNS_12IAPDUHandlerE, %function
_ZN8opendnp311RangeParser13InvokeRangeOfINS_11Group40Var3EEEvRKNS_12HeaderRecordERKNS_5RangeERKN7openpal6RSliceERNS_12IAPDUHandlerE:
.LFB3123:
	.cfi_startproc
	stp	x29, x30, [sp, -96]!
	.cfi_def_cfa_offset 96
	.cfi_offset 29, -96
	.cfi_offset 30, -88
	adrp	x5, :got:__stack_chk_guard
	mov	x10, x0
	mov	x29, sp
	ldr	x7, [x5, #:got_lo12:__stack_chk_guard]
	adrp	x4, :got:_ZTVN8opendnp318BufferedCollectionINS_7IndexedINS_18AnalogOutputStatusEEEZNS_11RangeParser13InvokeRangeOfINS_11Group40Var3EEEvRKNS_12HeaderRecordERKNS_5RangeERKN7openpal6RSliceERNS_12IAPDUHandlerEEUlRSE_jE_EE
	ldrh	w5, [x1, 2]
	mov	x0, x3
	ldrh	w6, [x1]
	ldr	x3, [x7]
	str	x3, [sp, 88]
	mov	x3, 0
	ldr	x4, [x4, #:got_lo12:_ZTVN8opendnp318BufferedCollectionINS_7IndexedINS_18AnalogOutputStatusEEEZNS_11RangeParser13InvokeRangeOfINS_11Group40Var3EEEvRKNS_12HeaderRecordERKNS_5RangeERKN7openpal6RSliceERNS_12IAPDUHandlerEEUlRSE_jE_EE]
	add	w3, w5, 1
	ldp	x8, x9, [x2]
	cmp	w6, w5
	ldp	x10, x11, [x10]
	sub	w3, w3, w6
	ldr	w7, [x1]
	csel	x3, x3, xzr, ls
	add	x4, x4, 16
	add	x2, sp, 48
	add	x1, sp, 24
	stp	x10, x11, [sp, 24]
	str	w7, [sp, 40]
	str	x4, [sp, 48]
	stp	x8, x9, [sp, 56]
	str	x3, [sp, 72]
	strh	w6, [sp, 80]
	strh	w5, [sp, 82]
	bl	_ZN8opendnp312IAPDUHandler8OnHeaderERKNS_11RangeHeaderERKNS_11ICollectionINS_7IndexedINS_18AnalogOutputStatusEEEEE
	adrp	x0, :got:__stack_chk_guard
	ldr	x0, [x0, #:got_lo12:__stack_chk_guard]
	ldr	x2, [sp, 88]
	ldr	x1, [x0]
	subs	x2, x2, x1
	mov	x1, 0
	bne	.L412
	ldp	x29, x30, [sp], 96
	.cfi_remember_state
	.cfi_restore 30
	.cfi_restore 29
	.cfi_def_cfa_offset 0
	ret
.L412:
	.cfi_restore_state
	bl	__stack_chk_fail
	.cfi_endproc
.LFE3123:
	.size	_ZN8opendnp311RangeParser13InvokeRangeOfINS_11Group40Var3EEEvRKNS_12HeaderRecordERKNS_5RangeERKN7openpal6RSliceERNS_12IAPDUHandlerE, .-_ZN8opendnp311RangeParser13InvokeRangeOfINS_11Group40Var3EEEvRKNS_12HeaderRecordERKNS_5RangeERKN7openpal6RSliceERNS_12IAPDUHandlerE
	.section	.text._ZN8opendnp311RangeParser13InvokeRangeOfINS_11Group40Var4EEEvRKNS_12HeaderRecordERKNS_5RangeERKN7openpal6RSliceERNS_12IAPDUHandlerE,"axG",@progbits,_ZN8opendnp311RangeParser13InvokeRangeOfINS_11Group40Var4EEEvRKNS_12HeaderRecordERKNS_5RangeERKN7openpal6RSliceERNS_12IAPDUHandlerE,comdat
	.align	2
	.p2align 4,,11
	.weak	_ZN8opendnp311RangeParser13InvokeRangeOfINS_11Group40Var4EEEvRKNS_12HeaderRecordERKNS_5RangeERKN7openpal6RSliceERNS_12IAPDUHandlerE
	.type	_ZN8opendnp311RangeParser13InvokeRangeOfINS_11Group40Var4EEEvRKNS_12HeaderRecordERKNS_5RangeERKN7openpal6RSliceERNS_12IAPDUHandlerE, %function
_ZN8opendnp311RangeParser13InvokeRangeOfINS_11Group40Var4EEEvRKNS_12HeaderRecordERKNS_5RangeERKN7openpal6RSliceERNS_12IAPDUHandlerE:
.LFB3128:
	.cfi_startproc
	stp	x29, x30, [sp, -96]!
	.cfi_def_cfa_offset 96
	.cfi_offset 29, -96
	.cfi_offset 30, -88
	adrp	x5, :got:__stack_chk_guard
	mov	x10, x0
	mov	x29, sp
	ldr	x7, [x5, #:got_lo12:__stack_chk_guard]
	adrp	x4, :got:_ZTVN8opendnp318BufferedCollectionINS_7IndexedINS_18AnalogOutputStatusEEEZNS_11RangeParser13InvokeRangeOfINS_11Group40Var4EEEvRKNS_12HeaderRecordERKNS_5RangeERKN7openpal6RSliceERNS_12IAPDUHandlerEEUlRSE_jE_EE
	ldrh	w5, [x1, 2]
	mov	x0, x3
	ldrh	w6, [x1]
	ldr	x3, [x7]
	str	x3, [sp, 88]
	mov	x3, 0
	ldr	x4, [x4, #:got_lo12:_ZTVN8opendnp318BufferedCollectionINS_7IndexedINS_18AnalogOutputStatusEEEZNS_11RangeParser13InvokeRangeOfINS_11Group40Var4EEEvRKNS_12HeaderRecordERKNS_5RangeERKN7openpal6RSliceERNS_12IAPDUHandlerEEUlRSE_jE_EE]
	add	w3, w5, 1
	ldp	x8, x9, [x2]
	cmp	w6, w5
	ldp	x10, x11, [x10]
	sub	w3, w3, w6
	ldr	w7, [x1]
	csel	x3, x3, xzr, ls
	add	x4, x4, 16
	add	x2, sp, 48
	add	x1, sp, 24
	stp	x10, x11, [sp, 24]
	str	w7, [sp, 40]
	str	x4, [sp, 48]
	stp	x8, x9, [sp, 56]
	str	x3, [sp, 72]
	strh	w6, [sp, 80]
	strh	w5, [sp, 82]
	bl	_ZN8opendnp312IAPDUHandler8OnHeaderERKNS_11RangeHeaderERKNS_11ICollectionINS_7IndexedINS_18AnalogOutputStatusEEEEE
	adrp	x0, :got:__stack_chk_guard
	ldr	x0, [x0, #:got_lo12:__stack_chk_guard]
	ldr	x2, [sp, 88]
	ldr	x1, [x0]
	subs	x2, x2, x1
	mov	x1, 0
	bne	.L418
	ldp	x29, x30, [sp], 96
	.cfi_remember_state
	.cfi_restore 30
	.cfi_restore 29
	.cfi_def_cfa_offset 0
	ret
.L418:
	.cfi_restore_state
	bl	__stack_chk_fail
	.cfi_endproc
.LFE3128:
	.size	_ZN8opendnp311RangeParser13InvokeRangeOfINS_11Group40Var4EEEvRKNS_12HeaderRecordERKNS_5RangeERKN7openpal6RSliceERNS_12IAPDUHandlerE, .-_ZN8opendnp311RangeParser13InvokeRangeOfINS_11Group40Var4EEEvRKNS_12HeaderRecordERKNS_5RangeERKN7openpal6RSliceERNS_12IAPDUHandlerE
	.section	.text._ZNK8opendnp318BufferedCollectionINS_7IndexedINS_18AnalogOutputStatusEEEZNS_11RangeParser13InvokeRangeOfINS_11Group40Var1EEEvRKNS_12HeaderRecordERKNS_5RangeERKN7openpal6RSliceERNS_12IAPDUHandlerEEUlRSE_jE_E7ForeachERNS_8IVisitorIS3_EE,"axG",@progbits,_ZNK8opendnp318BufferedCollectionINS_7IndexedINS_18AnalogOutputStatusEEEZNS_11RangeParser13InvokeRangeOfINS_11Group40Var1EEEvRKNS_12HeaderRecordERKNS_5RangeERKN7openpal6RSliceERNS_12IAPDUHandlerEEUlRSE_jE_E7ForeachERNS_8IVisitorIS3_EE,comdat
	.align	2
	.p2align 4,,11
	.weak	_ZNK8opendnp318BufferedCollectionINS_7IndexedINS_18AnalogOutputStatusEEEZNS_11RangeParser13InvokeRangeOfINS_11Group40Var1EEEvRKNS_12HeaderRecordERKNS_5RangeERKN7openpal6RSliceERNS_12IAPDUHandlerEEUlRSE_jE_E7ForeachERNS_8IVisitorIS3_EE
	.type	_ZNK8opendnp318BufferedCollectionINS_7IndexedINS_18AnalogOutputStatusEEEZNS_11RangeParser13InvokeRangeOfINS_11Group40Var1EEEvRKNS_12HeaderRecordERKNS_5RangeERKN7openpal6RSliceERNS_12IAPDUHandlerEEUlRSE_jE_E7ForeachERNS_8IVisitorIS3_EE, %function
_ZNK8opendnp318BufferedCollectionINS_7IndexedINS_18AnalogOutputStatusEEEZNS_11RangeParser13InvokeRangeOfINS_11Group40Var1EEEvRKNS_12HeaderRecordERKNS_5RangeERKN7openpal6RSliceERNS_12IAPDUHandlerEEUlRSE_jE_E7ForeachERNS_8IVisitorIS3_EE:
.LFB3623:
	.cfi_startproc
	stp	x29, x30, [sp, -160]!
	.cfi_def_cfa_offset 160
	.cfi_offset 29, -160
	.cfi_offset 30, -152
	adrp	x2, :got:__stack_chk_guard
	mov	x29, sp
	ldr	x2, [x2, #:got_lo12:__stack_chk_guard]
	stp	x21, x22, [sp, 32]
	.cfi_offset 21, -128
	.cfi_offset 22, -120
	mov	x22, x0
	stp	x23, x24, [sp, 48]
	.cfi_offset 23, -112
	.cfi_offset 24, -104
	mov	x23, x1
	ldr	x1, [x2]
	str	x1, [sp, 152]
	mov	x1, 0
	ldp	x2, x3, [x0, 8]
	stp	x2, x3, [sp, 80]
	ldr	x0, [x0, 24]
	cbz	x0, .L419
	add	x24, sp, 80
	add	x21, sp, 120
	stp	x19, x20, [sp, 16]
	.cfi_offset 20, -136
	.cfi_offset 19, -144
	add	x20, sp, 96
	mov	w19, 0
	str	x25, [sp, 64]
	.cfi_offset 25, -96
	.p2align 3,,7
.L421:
	ldr	x1, [x23]
	mov	x0, x20
	ldr	x25, [x1]
	bl	_ZN8opendnp318AnalogOutputStatusC1Ev
	mov	x1, x20
	mov	x0, x24
	bl	_ZN8opendnp311Group40Var110ReadTargetERN7openpal6RSliceERNS_18AnalogOutputStatusE
	ldrh	w2, [x22, 32]
	ldr	x3, [x20, 16]
	add	w2, w19, w2
	ldp	x0, x1, [x20]
	stp	x0, x1, [x21]
	add	w19, w19, 1
	str	x3, [x21, 16]
	mov	x0, x23
	strh	w2, [sp, 144]
	mov	x1, x21
	blr	x25
	ldr	x0, [x22, 24]
	cmp	x0, w19, uxtw
	bhi	.L421
	ldp	x19, x20, [sp, 16]
	.cfi_restore 20
	.cfi_restore 19
	ldr	x25, [sp, 64]
	.cfi_restore 25
.L419:
	adrp	x0, :got:__stack_chk_guard
	ldr	x0, [x0, #:got_lo12:__stack_chk_guard]
	ldr	x2, [sp, 152]
	ldr	x1, [x0]
	subs	x2, x2, x1
	mov	x1, 0
	bne	.L428
	ldp	x21, x22, [sp, 32]
	ldp	x23, x24, [sp, 48]
	ldp	x29, x30, [sp], 160
	.cfi_remember_state
	.cfi_restore 30
	.cfi_restore 29
	.cfi_restore 23
	.cfi_restore 24
	.cfi_restore 21
	.cfi_restore 22
	.cfi_def_cfa_offset 0
	ret
.L428:
	.cfi_restore_state
	stp	x19, x20, [sp, 16]
	.cfi_offset 20, -136
	.cfi_offset 19, -144
	str	x25, [sp, 64]
	.cfi_offset 25, -96
	bl	__stack_chk_fail
	.cfi_endproc
.LFE3623:
	.size	_ZNK8opendnp318BufferedCollectionINS_7IndexedINS_18AnalogOutputStatusEEEZNS_11RangeParser13InvokeRangeOfINS_11Group40Var1EEEvRKNS_12HeaderRecordERKNS_5RangeERKN7openpal6RSliceERNS_12IAPDUHandlerEEUlRSE_jE_E7ForeachERNS_8IVisitorIS3_EE, .-_ZNK8opendnp318BufferedCollectionINS_7IndexedINS_18AnalogOutputStatusEEEZNS_11RangeParser13InvokeRangeOfINS_11Group40Var1EEEvRKNS_12HeaderRecordERKNS_5RangeERKN7openpal6RSliceERNS_12IAPDUHandlerEEUlRSE_jE_E7ForeachERNS_8IVisitorIS3_EE
	.section	.text._ZNK8opendnp318BufferedCollectionINS_7IndexedINS_18AnalogOutputStatusEEEZNS_11RangeParser13InvokeRangeOfINS_11Group40Var2EEEvRKNS_12HeaderRecordERKNS_5RangeERKN7openpal6RSliceERNS_12IAPDUHandlerEEUlRSE_jE_E7ForeachERNS_8IVisitorIS3_EE,"axG",@progbits,_ZNK8opendnp318BufferedCollectionINS_7IndexedINS_18AnalogOutputStatusEEEZNS_11RangeParser13InvokeRangeOfINS_11Group40Var2EEEvRKNS_12HeaderRecordERKNS_5RangeERKN7openpal6RSliceERNS_12IAPDUHandlerEEUlRSE_jE_E7ForeachERNS_8IVisitorIS3_EE,comdat
	.align	2
	.p2align 4,,11
	.weak	_ZNK8opendnp318BufferedCollectionINS_7IndexedINS_18AnalogOutputStatusEEEZNS_11RangeParser13InvokeRangeOfINS_11Group40Var2EEEvRKNS_12HeaderRecordERKNS_5RangeERKN7openpal6RSliceERNS_12IAPDUHandlerEEUlRSE_jE_E7ForeachERNS_8IVisitorIS3_EE
	.type	_ZNK8opendnp318BufferedCollectionINS_7IndexedINS_18AnalogOutputStatusEEEZNS_11RangeParser13InvokeRangeOfINS_11Group40Var2EEEvRKNS_12HeaderRecordERKNS_5RangeERKN7openpal6RSliceERNS_12IAPDUHandlerEEUlRSE_jE_E7ForeachERNS_8IVisitorIS3_EE, %function
_ZNK8opendnp318BufferedCollectionINS_7IndexedINS_18AnalogOutputStatusEEEZNS_11RangeParser13InvokeRangeOfINS_11Group40Var2EEEvRKNS_12HeaderRecordERKNS_5RangeERKN7openpal6RSliceERNS_12IAPDUHandlerEEUlRSE_jE_E7ForeachERNS_8IVisitorIS3_EE:
.LFB3621:
	.cfi_startproc
	stp	x29, x30, [sp, -160]!
	.cfi_def_cfa_offset 160
	.cfi_offset 29, -160
	.cfi_offset 30, -152
	adrp	x2, :got:__stack_chk_guard
	mov	x29, sp
	ldr	x2, [x2, #:got_lo12:__stack_chk_guard]
	stp	x21, x22, [sp, 32]
	.cfi_offset 21, -128
	.cfi_offset 22, -120
	mov	x22, x0
	stp	x23, x24, [sp, 48]
	.cfi_offset 23, -112
	.cfi_offset 24, -104
	mov	x23, x1
	ldr	x1, [x2]
	str	x1, [sp, 152]
	mov	x1, 0
	ldp	x2, x3, [x0, 8]
	stp	x2, x3, [sp, 80]
	ldr	x0, [x0, 24]
	cbz	x0, .L429
	add	x24, sp, 80
	add	x21, sp, 120
	stp	x19, x20, [sp, 16]
	.cfi_offset 20, -136
	.cfi_offset 19, -144
	add	x20, sp, 96
	mov	w19, 0
	str	x25, [sp, 64]
	.cfi_offset 25, -96
	.p2align 3,,7
.L431:
	ldr	x1, [x23]
	mov	x0, x20
	ldr	x25, [x1]
	bl	_ZN8opendnp318AnalogOutputStatusC1Ev
	mov	x1, x20
	mov	x0, x24
	bl	_ZN8opendnp311Group40Var210ReadTargetERN7openpal6RSliceERNS_18AnalogOutputStatusE
	ldrh	w2, [x22, 32]
	ldr	x3, [x20, 16]
	add	w2, w19, w2
	ldp	x0, x1, [x20]
	stp	x0, x1, [x21]
	add	w19, w19, 1
	str	x3, [x21, 16]
	mov	x0, x23
	strh	w2, [sp, 144]
	mov	x1, x21
	blr	x25
	ldr	x0, [x22, 24]
	cmp	x0, w19, uxtw
	bhi	.L431
	ldp	x19, x20, [sp, 16]
	.cfi_restore 20
	.cfi_restore 19
	ldr	x25, [sp, 64]
	.cfi_restore 25
.L429:
	adrp	x0, :got:__stack_chk_guard
	ldr	x0, [x0, #:got_lo12:__stack_chk_guard]
	ldr	x2, [sp, 152]
	ldr	x1, [x0]
	subs	x2, x2, x1
	mov	x1, 0
	bne	.L438
	ldp	x21, x22, [sp, 32]
	ldp	x23, x24, [sp, 48]
	ldp	x29, x30, [sp], 160
	.cfi_remember_state
	.cfi_restore 30
	.cfi_restore 29
	.cfi_restore 23
	.cfi_restore 24
	.cfi_restore 21
	.cfi_restore 22
	.cfi_def_cfa_offset 0
	ret
.L438:
	.cfi_restore_state
	stp	x19, x20, [sp, 16]
	.cfi_offset 20, -136
	.cfi_offset 19, -144
	str	x25, [sp, 64]
	.cfi_offset 25, -96
	bl	__stack_chk_fail
	.cfi_endproc
.LFE3621:
	.size	_ZNK8opendnp318BufferedCollectionINS_7IndexedINS_18AnalogOutputStatusEEEZNS_11RangeParser13InvokeRangeOfINS_11Group40Var2EEEvRKNS_12HeaderRecordERKNS_5RangeERKN7openpal6RSliceERNS_12IAPDUHandlerEEUlRSE_jE_E7ForeachERNS_8IVisitorIS3_EE, .-_ZNK8opendnp318BufferedCollectionINS_7IndexedINS_18AnalogOutputStatusEEEZNS_11RangeParser13InvokeRangeOfINS_11Group40Var2EEEvRKNS_12HeaderRecordERKNS_5RangeERKN7openpal6RSliceERNS_12IAPDUHandlerEEUlRSE_jE_E7ForeachERNS_8IVisitorIS3_EE
	.section	.text._ZNK8opendnp318BufferedCollectionINS_7IndexedINS_18AnalogOutputStatusEEEZNS_11RangeParser13InvokeRangeOfINS_11Group40Var3EEEvRKNS_12HeaderRecordERKNS_5RangeERKN7openpal6RSliceERNS_12IAPDUHandlerEEUlRSE_jE_E7ForeachERNS_8IVisitorIS3_EE,"axG",@progbits,_ZNK8opendnp318BufferedCollectionINS_7IndexedINS_18AnalogOutputStatusEEEZNS_11RangeParser13InvokeRangeOfINS_11Group40Var3EEEvRKNS_12HeaderRecordERKNS_5RangeERKN7openpal6RSliceERNS_12IAPDUHandlerEEUlRSE_jE_E7ForeachERNS_8IVisitorIS3_EE,comdat
	.align	2
	.p2align 4,,11
	.weak	_ZNK8opendnp318BufferedCollectionINS_7IndexedINS_18AnalogOutputStatusEEEZNS_11RangeParser13InvokeRangeOfINS_11Group40Var3EEEvRKNS_12HeaderRecordERKNS_5RangeERKN7openpal6RSliceERNS_12IAPDUHandlerEEUlRSE_jE_E7ForeachERNS_8IVisitorIS3_EE
	.type	_ZNK8opendnp318BufferedCollectionINS_7IndexedINS_18AnalogOutputStatusEEEZNS_11RangeParser13InvokeRangeOfINS_11Group40Var3EEEvRKNS_12HeaderRecordERKNS_5RangeERKN7openpal6RSliceERNS_12IAPDUHandlerEEUlRSE_jE_E7ForeachERNS_8IVisitorIS3_EE, %function
_ZNK8opendnp318BufferedCollectionINS_7IndexedINS_18AnalogOutputStatusEEEZNS_11RangeParser13InvokeRangeOfINS_11Group40Var3EEEvRKNS_12HeaderRecordERKNS_5RangeERKN7openpal6RSliceERNS_12IAPDUHandlerEEUlRSE_jE_E7ForeachERNS_8IVisitorIS3_EE:
.LFB3619:
	.cfi_startproc
	stp	x29, x30, [sp, -160]!
	.cfi_def_cfa_offset 160
	.cfi_offset 29, -160
	.cfi_offset 30, -152
	adrp	x2, :got:__stack_chk_guard
	mov	x29, sp
	ldr	x2, [x2, #:got_lo12:__stack_chk_guard]
	stp	x21, x22, [sp, 32]
	.cfi_offset 21, -128
	.cfi_offset 22, -120
	mov	x22, x0
	stp	x23, x24, [sp, 48]
	.cfi_offset 23, -112
	.cfi_offset 24, -104
	mov	x23, x1
	ldr	x1, [x2]
	str	x1, [sp, 152]
	mov	x1, 0
	ldp	x2, x3, [x0, 8]
	stp	x2, x3, [sp, 80]
	ldr	x0, [x0, 24]
	cbz	x0, .L439
	add	x24, sp, 80
	add	x21, sp, 120
	stp	x19, x20, [sp, 16]
	.cfi_offset 20, -136
	.cfi_offset 19, -144
	add	x20, sp, 96
	mov	w19, 0
	str	x25, [sp, 64]
	.cfi_offset 25, -96
	.p2align 3,,7
.L441:
	ldr	x1, [x23]
	mov	x0, x20
	ldr	x25, [x1]
	bl	_ZN8opendnp318AnalogOutputStatusC1Ev
	mov	x1, x20
	mov	x0, x24
	bl	_ZN8opendnp311Group40Var310ReadTargetERN7openpal6RSliceERNS_18AnalogOutputStatusE
	ldrh	w2, [x22, 32]
	ldr	x3, [x20, 16]
	add	w2, w19, w2
	ldp	x0, x1, [x20]
	stp	x0, x1, [x21]
	add	w19, w19, 1
	str	x3, [x21, 16]
	mov	x0, x23
	strh	w2, [sp, 144]
	mov	x1, x21
	blr	x25
	ldr	x0, [x22, 24]
	cmp	x0, w19, uxtw
	bhi	.L441
	ldp	x19, x20, [sp, 16]
	.cfi_restore 20
	.cfi_restore 19
	ldr	x25, [sp, 64]
	.cfi_restore 25
.L439:
	adrp	x0, :got:__stack_chk_guard
	ldr	x0, [x0, #:got_lo12:__stack_chk_guard]
	ldr	x2, [sp, 152]
	ldr	x1, [x0]
	subs	x2, x2, x1
	mov	x1, 0
	bne	.L448
	ldp	x21, x22, [sp, 32]
	ldp	x23, x24, [sp, 48]
	ldp	x29, x30, [sp], 160
	.cfi_remember_state
	.cfi_restore 30
	.cfi_restore 29
	.cfi_restore 23
	.cfi_restore 24
	.cfi_restore 21
	.cfi_restore 22
	.cfi_def_cfa_offset 0
	ret
.L448:
	.cfi_restore_state
	stp	x19, x20, [sp, 16]
	.cfi_offset 20, -136
	.cfi_offset 19, -144
	str	x25, [sp, 64]
	.cfi_offset 25, -96
	bl	__stack_chk_fail
	.cfi_endproc
.LFE3619:
	.size	_ZNK8opendnp318BufferedCollectionINS_7IndexedINS_18AnalogOutputStatusEEEZNS_11RangeParser13InvokeRangeOfINS_11Group40Var3EEEvRKNS_12HeaderRecordERKNS_5RangeERKN7openpal6RSliceERNS_12IAPDUHandlerEEUlRSE_jE_E7ForeachERNS_8IVisitorIS3_EE, .-_ZNK8opendnp318BufferedCollectionINS_7IndexedINS_18AnalogOutputStatusEEEZNS_11RangeParser13InvokeRangeOfINS_11Group40Var3EEEvRKNS_12HeaderRecordERKNS_5RangeERKN7openpal6RSliceERNS_12IAPDUHandlerEEUlRSE_jE_E7ForeachERNS_8IVisitorIS3_EE
	.section	.text._ZNK8opendnp318BufferedCollectionINS_7IndexedINS_18AnalogOutputStatusEEEZNS_11RangeParser13InvokeRangeOfINS_11Group40Var4EEEvRKNS_12HeaderRecordERKNS_5RangeERKN7openpal6RSliceERNS_12IAPDUHandlerEEUlRSE_jE_E7ForeachERNS_8IVisitorIS3_EE,"axG",@progbits,_ZNK8opendnp318BufferedCollectionINS_7IndexedINS_18AnalogOutputStatusEEEZNS_11RangeParser13InvokeRangeOfINS_11Group40Var4EEEvRKNS_12HeaderRecordERKNS_5RangeERKN7openpal6RSliceERNS_12IAPDUHandlerEEUlRSE_jE_E7ForeachERNS_8IVisitorIS3_EE,comdat
	.align	2
	.p2align 4,,11
	.weak	_ZNK8opendnp318BufferedCollectionINS_7IndexedINS_18AnalogOutputStatusEEEZNS_11RangeParser13InvokeRangeOfINS_11Group40Var4EEEvRKNS_12HeaderRecordERKNS_5RangeERKN7openpal6RSliceERNS_12IAPDUHandlerEEUlRSE_jE_E7ForeachERNS_8IVisitorIS3_EE
	.type	_ZNK8opendnp318BufferedCollectionINS_7IndexedINS_18AnalogOutputStatusEEEZNS_11RangeParser13InvokeRangeOfINS_11Group40Var4EEEvRKNS_12HeaderRecordERKNS_5RangeERKN7openpal6RSliceERNS_12IAPDUHandlerEEUlRSE_jE_E7ForeachERNS_8IVisitorIS3_EE, %function
_ZNK8opendnp318BufferedCollectionINS_7IndexedINS_18AnalogOutputStatusEEEZNS_11RangeParser13InvokeRangeOfINS_11Group40Var4EEEvRKNS_12HeaderRecordERKNS_5RangeERKN7openpal6RSliceERNS_12IAPDUHandlerEEUlRSE_jE_E7ForeachERNS_8IVisitorIS3_EE:
.LFB3617:
	.cfi_startproc
	stp	x29, x30, [sp, -160]!
	.cfi_def_cfa_offset 160
	.cfi_offset 29, -160
	.cfi_offset 30, -152
	adrp	x2, :got:__stack_chk_guard
	mov	x29, sp
	ldr	x2, [x2, #:got_lo12:__stack_chk_guard]
	stp	x21, x22, [sp, 32]
	.cfi_offset 21, -128
	.cfi_offset 22, -120
	mov	x22, x0
	stp	x23, x24, [sp, 48]
	.cfi_offset 23, -112
	.cfi_offset 24, -104
	mov	x23, x1
	ldr	x1, [x2]
	str	x1, [sp, 152]
	mov	x1, 0
	ldp	x2, x3, [x0, 8]
	stp	x2, x3, [sp, 80]
	ldr	x0, [x0, 24]
	cbz	x0, .L449
	add	x24, sp, 80
	add	x21, sp, 120
	stp	x19, x20, [sp, 16]
	.cfi_offset 20, -136
	.cfi_offset 19, -144
	add	x20, sp, 96
	mov	w19, 0
	str	x25, [sp, 64]
	.cfi_offset 25, -96
	.p2align 3,,7
.L451:
	ldr	x1, [x23]
	mov	x0, x20
	ldr	x25, [x1]
	bl	_ZN8opendnp318AnalogOutputStatusC1Ev
	mov	x1, x20
	mov	x0, x24
	bl	_ZN8opendnp311Group40Var410ReadTargetERN7openpal6RSliceERNS_18AnalogOutputStatusE
	ldrh	w2, [x22, 32]
	ldr	x3, [x20, 16]
	add	w2, w19, w2
	ldp	x0, x1, [x20]
	stp	x0, x1, [x21]
	add	w19, w19, 1
	str	x3, [x21, 16]
	mov	x0, x23
	strh	w2, [sp, 144]
	mov	x1, x21
	blr	x25
	ldr	x0, [x22, 24]
	cmp	x0, w19, uxtw
	bhi	.L451
	ldp	x19, x20, [sp, 16]
	.cfi_restore 20
	.cfi_restore 19
	ldr	x25, [sp, 64]
	.cfi_restore 25
.L449:
	adrp	x0, :got:__stack_chk_guard
	ldr	x0, [x0, #:got_lo12:__stack_chk_guard]
	ldr	x2, [sp, 152]
	ldr	x1, [x0]
	subs	x2, x2, x1
	mov	x1, 0
	bne	.L458
	ldp	x21, x22, [sp, 32]
	ldp	x23, x24, [sp, 48]
	ldp	x29, x30, [sp], 160
	.cfi_remember_state
	.cfi_restore 30
	.cfi_restore 29
	.cfi_restore 23
	.cfi_restore 24
	.cfi_restore 21
	.cfi_restore 22
	.cfi_def_cfa_offset 0
	ret
.L458:
	.cfi_restore_state
	stp	x19, x20, [sp, 16]
	.cfi_offset 20, -136
	.cfi_offset 19, -144
	str	x25, [sp, 64]
	.cfi_offset 25, -96
	bl	__stack_chk_fail
	.cfi_endproc
.LFE3617:
	.size	_ZNK8opendnp318BufferedCollectionINS_7IndexedINS_18AnalogOutputStatusEEEZNS_11RangeParser13InvokeRangeOfINS_11Group40Var4EEEvRKNS_12HeaderRecordERKNS_5RangeERKN7openpal6RSliceERNS_12IAPDUHandlerEEUlRSE_jE_E7ForeachERNS_8IVisitorIS3_EE, .-_ZNK8opendnp318BufferedCollectionINS_7IndexedINS_18AnalogOutputStatusEEEZNS_11RangeParser13InvokeRangeOfINS_11Group40Var4EEEvRKNS_12HeaderRecordERKNS_5RangeERKN7openpal6RSliceERNS_12IAPDUHandlerEEUlRSE_jE_E7ForeachERNS_8IVisitorIS3_EE
	.section	.text._ZN8opendnp311RangeParser13InvokeRangeOfINS_11Group50Var4EEEvRKNS_12HeaderRecordERKNS_5RangeERKN7openpal6RSliceERNS_12IAPDUHandlerE,"axG",@progbits,_ZN8opendnp311RangeParser13InvokeRangeOfINS_11Group50Var4EEEvRKNS_12HeaderRecordERKNS_5RangeERKN7openpal6RSliceERNS_12IAPDUHandlerE,comdat
	.align	2
	.p2align 4,,11
	.weak	_ZN8opendnp311RangeParser13InvokeRangeOfINS_11Group50Var4EEEvRKNS_12HeaderRecordERKNS_5RangeERKN7openpal6RSliceERNS_12IAPDUHandlerE
	.type	_ZN8opendnp311RangeParser13InvokeRangeOfINS_11Group50Var4EEEvRKNS_12HeaderRecordERKNS_5RangeERKN7openpal6RSliceERNS_12IAPDUHandlerE, %function
_ZN8opendnp311RangeParser13InvokeRangeOfINS_11Group50Var4EEEvRKNS_12HeaderRecordERKNS_5RangeERKN7openpal6RSliceERNS_12IAPDUHandlerE:
.LFB3133:
	.cfi_startproc
	stp	x29, x30, [sp, -96]!
	.cfi_def_cfa_offset 96
	.cfi_offset 29, -96
	.cfi_offset 30, -88
	adrp	x5, :got:__stack_chk_guard
	mov	x10, x0
	mov	x29, sp
	ldr	x7, [x5, #:got_lo12:__stack_chk_guard]
	adrp	x4, :got:_ZTVN8opendnp318BufferedCollectionINS_7IndexedINS_15TimeAndIntervalEEEZNS_11RangeParser13InvokeRangeOfINS_11Group50Var4EEEvRKNS_12HeaderRecordERKNS_5RangeERKN7openpal6RSliceERNS_12IAPDUHandlerEEUlRSE_jE_EE
	ldrh	w5, [x1, 2]
	mov	x0, x3
	ldrh	w6, [x1]
	ldr	x3, [x7]
	str	x3, [sp, 88]
	mov	x3, 0
	ldr	x4, [x4, #:got_lo12:_ZTVN8opendnp318BufferedCollectionINS_7IndexedINS_15TimeAndIntervalEEEZNS_11RangeParser13InvokeRangeOfINS_11Group50Var4EEEvRKNS_12HeaderRecordERKNS_5RangeERKN7openpal6RSliceERNS_12IAPDUHandlerEEUlRSE_jE_EE]
	add	w3, w5, 1
	ldp	x8, x9, [x2]
	cmp	w6, w5
	ldp	x10, x11, [x10]
	sub	w3, w3, w6
	ldr	w7, [x1]
	csel	x3, x3, xzr, ls
	add	x4, x4, 16
	add	x2, sp, 48
	add	x1, sp, 24
	stp	x10, x11, [sp, 24]
	str	w7, [sp, 40]
	str	x4, [sp, 48]
	stp	x8, x9, [sp, 56]
	str	x3, [sp, 72]
	strh	w6, [sp, 80]
	strh	w5, [sp, 82]
	bl	_ZN8opendnp312IAPDUHandler8OnHeaderERKNS_11RangeHeaderERKNS_11ICollectionINS_7IndexedINS_15TimeAndIntervalEEEEE
	adrp	x0, :got:__stack_chk_guard
	ldr	x0, [x0, #:got_lo12:__stack_chk_guard]
	ldr	x2, [sp, 88]
	ldr	x1, [x0]
	subs	x2, x2, x1
	mov	x1, 0
	bne	.L464
	ldp	x29, x30, [sp], 96
	.cfi_remember_state
	.cfi_restore 30
	.cfi_restore 29
	.cfi_def_cfa_offset 0
	ret
.L464:
	.cfi_restore_state
	bl	__stack_chk_fail
	.cfi_endproc
.LFE3133:
	.size	_ZN8opendnp311RangeParser13InvokeRangeOfINS_11Group50Var4EEEvRKNS_12HeaderRecordERKNS_5RangeERKN7openpal6RSliceERNS_12IAPDUHandlerE, .-_ZN8opendnp311RangeParser13InvokeRangeOfINS_11Group50Var4EEEvRKNS_12HeaderRecordERKNS_5RangeERKN7openpal6RSliceERNS_12IAPDUHandlerE
	.section	.text._ZNK8opendnp318BufferedCollectionINS_7IndexedINS_15TimeAndIntervalEEEZNS_11RangeParser13InvokeRangeOfINS_11Group50Var4EEEvRKNS_12HeaderRecordERKNS_5RangeERKN7openpal6RSliceERNS_12IAPDUHandlerEEUlRSE_jE_E7ForeachERNS_8IVisitorIS3_EE,"axG",@progbits,_ZNK8opendnp318BufferedCollectionINS_7IndexedINS_15TimeAndIntervalEEEZNS_11RangeParser13InvokeRangeOfINS_11Group50Var4EEEvRKNS_12HeaderRecordERKNS_5RangeERKN7openpal6RSliceERNS_12IAPDUHandlerEEUlRSE_jE_E7ForeachERNS_8IVisitorIS3_EE,comdat
	.align	2
	.p2align 4,,11
	.weak	_ZNK8opendnp318BufferedCollectionINS_7IndexedINS_15TimeAndIntervalEEEZNS_11RangeParser13InvokeRangeOfINS_11Group50Var4EEEvRKNS_12HeaderRecordERKNS_5RangeERKN7openpal6RSliceERNS_12IAPDUHandlerEEUlRSE_jE_E7ForeachERNS_8IVisitorIS3_EE
	.type	_ZNK8opendnp318BufferedCollectionINS_7IndexedINS_15TimeAndIntervalEEEZNS_11RangeParser13InvokeRangeOfINS_11Group50Var4EEEvRKNS_12HeaderRecordERKNS_5RangeERKN7openpal6RSliceERNS_12IAPDUHandlerEEUlRSE_jE_E7ForeachERNS_8IVisitorIS3_EE, %function
_ZNK8opendnp318BufferedCollectionINS_7IndexedINS_15TimeAndIntervalEEEZNS_11RangeParser13InvokeRangeOfINS_11Group50Var4EEEvRKNS_12HeaderRecordERKNS_5RangeERKN7openpal6RSliceERNS_12IAPDUHandlerEEUlRSE_jE_E7ForeachERNS_8IVisitorIS3_EE:
.LFB3615:
	.cfi_startproc
	stp	x29, x30, [sp, -144]!
	.cfi_def_cfa_offset 144
	.cfi_offset 29, -144
	.cfi_offset 30, -136
	adrp	x2, :got:__stack_chk_guard
	mov	x29, sp
	ldr	x2, [x2, #:got_lo12:__stack_chk_guard]
	stp	x19, x20, [sp, 16]
	.cfi_offset 19, -128
	.cfi_offset 20, -120
	mov	x20, x0
	stp	x21, x22, [sp, 32]
	.cfi_offset 21, -112
	.cfi_offset 22, -104
	mov	x21, x1
	ldr	x1, [x2]
	str	x1, [sp, 136]
	mov	x1, 0
	ldp	x2, x3, [x0, 8]
	stp	x2, x3, [sp, 80]
	ldr	x0, [x0, 24]
	cbz	x0, .L465
	add	x22, sp, 96
	stp	x23, x24, [sp, 48]
	.cfi_offset 24, -88
	.cfi_offset 23, -96
	add	x24, sp, 112
	str	x25, [sp, 64]
	.cfi_offset 25, -80
	add	x25, sp, 80
	mov	w19, 0
	.p2align 3,,7
.L467:
	ldr	x1, [x21]
	mov	x0, x22
	ldr	x23, [x1]
	bl	_ZN8opendnp315TimeAndIntervalC1Ev
	mov	x1, x22
	mov	x0, x25
	bl	_ZN8opendnp311Group50Var410ReadTargetERN7openpal6RSliceERNS_15TimeAndIntervalE
	ldrh	w2, [x20, 32]
	ldp	x0, x1, [sp, 96]
	add	w2, w19, w2
	stp	x0, x1, [sp, 112]
	add	w19, w19, 1
	mov	x0, x21
	strh	w2, [sp, 128]
	mov	x1, x24
	blr	x23
	ldr	x0, [x20, 24]
	cmp	x0, w19, uxtw
	bhi	.L467
	ldp	x23, x24, [sp, 48]
	.cfi_restore 24
	.cfi_restore 23
	ldr	x25, [sp, 64]
	.cfi_restore 25
.L465:
	adrp	x0, :got:__stack_chk_guard
	ldr	x0, [x0, #:got_lo12:__stack_chk_guard]
	ldr	x2, [sp, 136]
	ldr	x1, [x0]
	subs	x2, x2, x1
	mov	x1, 0
	bne	.L474
	ldp	x19, x20, [sp, 16]
	ldp	x21, x22, [sp, 32]
	ldp	x29, x30, [sp], 144
	.cfi_remember_state
	.cfi_restore 30
	.cfi_restore 29
	.cfi_restore 21
	.cfi_restore 22
	.cfi_restore 19
	.cfi_restore 20
	.cfi_def_cfa_offset 0
	ret
.L474:
	.cfi_restore_state
	stp	x23, x24, [sp, 48]
	.cfi_offset 24, -88
	.cfi_offset 23, -96
	str	x25, [sp, 64]
	.cfi_offset 25, -80
	bl	__stack_chk_fail
	.cfi_endproc
.LFE3615:
	.size	_ZNK8opendnp318BufferedCollectionINS_7IndexedINS_15TimeAndIntervalEEEZNS_11RangeParser13InvokeRangeOfINS_11Group50Var4EEEvRKNS_12HeaderRecordERKNS_5RangeERKN7openpal6RSliceERNS_12IAPDUHandlerEEUlRSE_jE_E7ForeachERNS_8IVisitorIS3_EE, .-_ZNK8opendnp318BufferedCollectionINS_7IndexedINS_15TimeAndIntervalEEEZNS_11RangeParser13InvokeRangeOfINS_11Group50Var4EEEvRKNS_12HeaderRecordERKNS_5RangeERKN7openpal6RSliceERNS_12IAPDUHandlerEEUlRSE_jE_E7ForeachERNS_8IVisitorIS3_EE
	.section	.text._ZN8opendnp311RangeParser23InvokeRangeBitfieldTypeINS_8IINValueEEEvRKNS_12HeaderRecordERKNS_5RangeERKN7openpal6RSliceERNS_12IAPDUHandlerE,"axG",@progbits,_ZN8opendnp311RangeParser23InvokeRangeBitfieldTypeINS_8IINValueEEEvRKNS_12HeaderRecordERKNS_5RangeERKN7openpal6RSliceERNS_12IAPDUHandlerE,comdat
	.align	2
	.p2align 4,,11
	.weak	_ZN8opendnp311RangeParser23InvokeRangeBitfieldTypeINS_8IINValueEEEvRKNS_12HeaderRecordERKNS_5RangeERKN7openpal6RSliceERNS_12IAPDUHandlerE
	.type	_ZN8opendnp311RangeParser23InvokeRangeBitfieldTypeINS_8IINValueEEEvRKNS_12HeaderRecordERKNS_5RangeERKN7openpal6RSliceERNS_12IAPDUHandlerE, %function
_ZN8opendnp311RangeParser23InvokeRangeBitfieldTypeINS_8IINValueEEEvRKNS_12HeaderRecordERKNS_5RangeERKN7openpal6RSliceERNS_12IAPDUHandlerE:
.LFB3141:
	.cfi_startproc
	stp	x29, x30, [sp, -96]!
	.cfi_def_cfa_offset 96
	.cfi_offset 29, -96
	.cfi_offset 30, -88
	adrp	x5, :got:__stack_chk_guard
	mov	x10, x0
	mov	x29, sp
	ldr	x7, [x5, #:got_lo12:__stack_chk_guard]
	adrp	x4, :got:_ZTVN8opendnp318BufferedCollectionINS_7IndexedINS_8IINValueEEEZNS_11RangeParser23InvokeRangeBitfieldTypeIS2_EEvRKNS_12HeaderRecordERKNS_5RangeERKN7openpal6RSliceERNS_12IAPDUHandlerEEUlRSD_jE_EE
	ldrh	w5, [x1, 2]
	mov	x0, x3
	ldrh	w6, [x1]
	ldr	x3, [x7]
	str	x3, [sp, 88]
	mov	x3, 0
	ldr	x4, [x4, #:got_lo12:_ZTVN8opendnp318BufferedCollectionINS_7IndexedINS_8IINValueEEEZNS_11RangeParser23InvokeRangeBitfieldTypeIS2_EEvRKNS_12HeaderRecordERKNS_5RangeERKN7openpal6RSliceERNS_12IAPDUHandlerEEUlRSD_jE_EE]
	add	w3, w5, 1
	ldp	x8, x9, [x2]
	cmp	w6, w5
	ldp	x10, x11, [x10]
	sub	w3, w3, w6
	ldr	w7, [x1]
	csel	x3, x3, xzr, ls
	add	x4, x4, 16
	add	x2, sp, 48
	add	x1, sp, 24
	stp	x10, x11, [sp, 24]
	str	w7, [sp, 40]
	str	x4, [sp, 48]
	stp	x8, x9, [sp, 56]
	str	x3, [sp, 72]
	strh	w6, [sp, 80]
	strh	w5, [sp, 82]
	bl	_ZN8opendnp312IAPDUHandler8OnHeaderERKNS_11RangeHeaderERKNS_11ICollectionINS_7IndexedINS_8IINValueEEEEE
	adrp	x0, :got:__stack_chk_guard
	ldr	x0, [x0, #:got_lo12:__stack_chk_guard]
	ldr	x2, [sp, 88]
	ldr	x1, [x0]
	subs	x2, x2, x1
	mov	x1, 0
	bne	.L480
	ldp	x29, x30, [sp], 96
	.cfi_remember_state
	.cfi_restore 30
	.cfi_restore 29
	.cfi_def_cfa_offset 0
	ret
.L480:
	.cfi_restore_state
	bl	__stack_chk_fail
	.cfi_endproc
.LFE3141:
	.size	_ZN8opendnp311RangeParser23InvokeRangeBitfieldTypeINS_8IINValueEEEvRKNS_12HeaderRecordERKNS_5RangeERKN7openpal6RSliceERNS_12IAPDUHandlerE, .-_ZN8opendnp311RangeParser23InvokeRangeBitfieldTypeINS_8IINValueEEEvRKNS_12HeaderRecordERKNS_5RangeERKN7openpal6RSliceERNS_12IAPDUHandlerE
	.section	.text._ZN8opendnp311RangeParser17InvokeRangeOfTypeINS_12Group121Var1EEEvRKNS_12HeaderRecordERKNS_5RangeERKN7openpal6RSliceERNS_12IAPDUHandlerE,"axG",@progbits,_ZN8opendnp311RangeParser17InvokeRangeOfTypeINS_12Group121Var1EEEvRKNS_12HeaderRecordERKNS_5RangeERKN7openpal6RSliceERNS_12IAPDUHandlerE,comdat
	.align	2
	.p2align 4,,11
	.weak	_ZN8opendnp311RangeParser17InvokeRangeOfTypeINS_12Group121Var1EEEvRKNS_12HeaderRecordERKNS_5RangeERKN7openpal6RSliceERNS_12IAPDUHandlerE
	.type	_ZN8opendnp311RangeParser17InvokeRangeOfTypeINS_12Group121Var1EEEvRKNS_12HeaderRecordERKNS_5RangeERKN7openpal6RSliceERNS_12IAPDUHandlerE, %function
_ZN8opendnp311RangeParser17InvokeRangeOfTypeINS_12Group121Var1EEEvRKNS_12HeaderRecordERKNS_5RangeERKN7openpal6RSliceERNS_12IAPDUHandlerE:
.LFB3149:
	.cfi_startproc
	stp	x29, x30, [sp, -96]!
	.cfi_def_cfa_offset 96
	.cfi_offset 29, -96
	.cfi_offset 30, -88
	adrp	x5, :got:__stack_chk_guard
	mov	x10, x0
	mov	x29, sp
	ldr	x7, [x5, #:got_lo12:__stack_chk_guard]
	adrp	x4, :got:_ZTVN8opendnp318BufferedCollectionINS_7IndexedINS_12Group121Var1EEEZNS_11RangeParser17InvokeRangeOfTypeIS2_EEvRKNS_12HeaderRecordERKNS_5RangeERKN7openpal6RSliceERNS_12IAPDUHandlerEEUlRSD_jE_EE
	ldrh	w5, [x1, 2]
	mov	x0, x3
	ldrh	w6, [x1]
	ldr	x3, [x7]
	str	x3, [sp, 88]
	mov	x3, 0
	ldr	x4, [x4, #:got_lo12:_ZTVN8opendnp318BufferedCollectionINS_7IndexedINS_12Group121Var1EEEZNS_11RangeParser17InvokeRangeOfTypeIS2_EEvRKNS_12HeaderRecordERKNS_5RangeERKN7openpal6RSliceERNS_12IAPDUHandlerEEUlRSD_jE_EE]
	add	w3, w5, 1
	ldp	x8, x9, [x2]
	cmp	w6, w5
	ldp	x10, x11, [x10]
	sub	w3, w3, w6
	ldr	w7, [x1]
	csel	x3, x3, xzr, ls
	add	x4, x4, 16
	add	x2, sp, 48
	add	x1, sp, 24
	stp	x10, x11, [sp, 24]
	str	w7, [sp, 40]
	str	x4, [sp, 48]
	stp	x8, x9, [sp, 56]
	str	x3, [sp, 72]
	strh	w6, [sp, 80]
	strh	w5, [sp, 82]
	bl	_ZN8opendnp312IAPDUHandler8OnHeaderERKNS_11RangeHeaderERKNS_11ICollectionINS_7IndexedINS_12Group121Var1EEEEE
	adrp	x0, :got:__stack_chk_guard
	ldr	x0, [x0, #:got_lo12:__stack_chk_guard]
	ldr	x2, [sp, 88]
	ldr	x1, [x0]
	subs	x2, x2, x1
	mov	x1, 0
	bne	.L486
	ldp	x29, x30, [sp], 96
	.cfi_remember_state
	.cfi_restore 30
	.cfi_restore 29
	.cfi_def_cfa_offset 0
	ret
.L486:
	.cfi_restore_state
	bl	__stack_chk_fail
	.cfi_endproc
.LFE3149:
	.size	_ZN8opendnp311RangeParser17InvokeRangeOfTypeINS_12Group121Var1EEEvRKNS_12HeaderRecordERKNS_5RangeERKN7openpal6RSliceERNS_12IAPDUHandlerE, .-_ZN8opendnp311RangeParser17InvokeRangeOfTypeINS_12Group121Var1EEEvRKNS_12HeaderRecordERKNS_5RangeERKN7openpal6RSliceERNS_12IAPDUHandlerE
	.section	.text._ZNK8opendnp318BufferedCollectionINS_7IndexedINS_12Group121Var1EEEZNS_11RangeParser17InvokeRangeOfTypeIS2_EEvRKNS_12HeaderRecordERKNS_5RangeERKN7openpal6RSliceERNS_12IAPDUHandlerEEUlRSD_jE_E7ForeachERNS_8IVisitorIS3_EE,"axG",@progbits,_ZNK8opendnp318BufferedCollectionINS_7IndexedINS_12Group121Var1EEEZNS_11RangeParser17InvokeRangeOfTypeIS2_EEvRKNS_12HeaderRecordERKNS_5RangeERKN7openpal6RSliceERNS_12IAPDUHandlerEEUlRSD_jE_E7ForeachERNS_8IVisitorIS3_EE,comdat
	.align	2
	.p2align 4,,11
	.weak	_ZNK8opendnp318BufferedCollectionINS_7IndexedINS_12Group121Var1EEEZNS_11RangeParser17InvokeRangeOfTypeIS2_EEvRKNS_12HeaderRecordERKNS_5RangeERKN7openpal6RSliceERNS_12IAPDUHandlerEEUlRSD_jE_E7ForeachERNS_8IVisitorIS3_EE
	.type	_ZNK8opendnp318BufferedCollectionINS_7IndexedINS_12Group121Var1EEEZNS_11RangeParser17InvokeRangeOfTypeIS2_EEvRKNS_12HeaderRecordERKNS_5RangeERKN7openpal6RSliceERNS_12IAPDUHandlerEEUlRSD_jE_E7ForeachERNS_8IVisitorIS3_EE, %function
_ZNK8opendnp318BufferedCollectionINS_7IndexedINS_12Group121Var1EEEZNS_11RangeParser17InvokeRangeOfTypeIS2_EEvRKNS_12HeaderRecordERKNS_5RangeERKN7openpal6RSliceERNS_12IAPDUHandlerEEUlRSD_jE_E7ForeachERNS_8IVisitorIS3_EE:
.LFB3611:
	.cfi_startproc
	stp	x29, x30, [sp, -112]!
	.cfi_def_cfa_offset 112
	.cfi_offset 29, -112
	.cfi_offset 30, -104
	adrp	x2, :got:__stack_chk_guard
	mov	x29, sp
	ldr	x2, [x2, #:got_lo12:__stack_chk_guard]
	stp	x21, x22, [sp, 32]
	.cfi_offset 21, -80
	.cfi_offset 22, -72
	mov	x21, x0
	mov	x22, x1
	ldr	x1, [x2]
	str	x1, [sp, 104]
	mov	x1, 0
	ldp	x2, x3, [x0, 8]
	stp	x2, x3, [sp, 88]
	ldr	x0, [x0, 24]
	cbz	x0, .L487
	stp	x19, x20, [sp, 16]
	.cfi_offset 20, -88
	.cfi_offset 19, -96
	add	x20, sp, 72
	mov	w19, 0
	stp	x23, x24, [sp, 48]
	.cfi_offset 24, -56
	.cfi_offset 23, -64
	add	x24, sp, 88
	.p2align 3,,7
.L489:
	mov	x0, x20
	ldr	x1, [x22]
	ldr	x23, [x1]
	bl	_ZN8opendnp312Group121Var1C1Ev
	mov	x1, x20
	mov	x0, x24
	bl	_ZN8opendnp312Group121Var14ReadERN7openpal6RSliceERS0_
	ldrh	w2, [x21, 32]
	mov	x0, x22
	mov	x1, x20
	add	w2, w19, w2
	strh	w2, [sp, 80]
	add	w19, w19, 1
	blr	x23
	ldr	x0, [x21, 24]
	cmp	x0, w19, uxtw
	bhi	.L489
	ldp	x19, x20, [sp, 16]
	.cfi_restore 20
	.cfi_restore 19
	ldp	x23, x24, [sp, 48]
	.cfi_restore 24
	.cfi_restore 23
.L487:
	adrp	x0, :got:__stack_chk_guard
	ldr	x0, [x0, #:got_lo12:__stack_chk_guard]
	ldr	x2, [sp, 104]
	ldr	x1, [x0]
	subs	x2, x2, x1
	mov	x1, 0
	bne	.L496
	ldp	x21, x22, [sp, 32]
	ldp	x29, x30, [sp], 112
	.cfi_remember_state
	.cfi_restore 30
	.cfi_restore 29
	.cfi_restore 21
	.cfi_restore 22
	.cfi_def_cfa_offset 0
	ret
.L496:
	.cfi_restore_state
	stp	x19, x20, [sp, 16]
	.cfi_offset 20, -88
	.cfi_offset 19, -96
	stp	x23, x24, [sp, 48]
	.cfi_offset 24, -56
	.cfi_offset 23, -64
	bl	__stack_chk_fail
	.cfi_endproc
.LFE3611:
	.size	_ZNK8opendnp318BufferedCollectionINS_7IndexedINS_12Group121Var1EEEZNS_11RangeParser17InvokeRangeOfTypeIS2_EEvRKNS_12HeaderRecordERKNS_5RangeERKN7openpal6RSliceERNS_12IAPDUHandlerEEUlRSD_jE_E7ForeachERNS_8IVisitorIS3_EE, .-_ZNK8opendnp318BufferedCollectionINS_7IndexedINS_12Group121Var1EEEZNS_11RangeParser17InvokeRangeOfTypeIS2_EEvRKNS_12HeaderRecordERKNS_5RangeERKN7openpal6RSliceERNS_12IAPDUHandlerEEUlRSD_jE_E7ForeachERNS_8IVisitorIS3_EE
	.text
	.align	2
	.p2align 4,,11
	.type	_ZNK8opendnp318BufferedCollectionINS_7IndexedINS_11OctetStringEEEZNS_11RangeParser21ParseRangeOfOctetDataERN7openpal6RSliceERKNS_12HeaderRecordERKNS_5RangeEPNS5_6LoggerEPNS_12IAPDUHandlerEEUlS7_jE_E7ForeachERNS_8IVisitorIS3_EE, %function
_ZNK8opendnp318BufferedCollectionINS_7IndexedINS_11OctetStringEEEZNS_11RangeParser21ParseRangeOfOctetDataERN7openpal6RSliceERKNS_12HeaderRecordERKNS_5RangeEPNS5_6LoggerEPNS_12IAPDUHandlerEEUlS7_jE_E7ForeachERNS_8IVisitorIS3_EE:
.LFB3669:
	.cfi_startproc
	sub	sp, sp, #704
	.cfi_def_cfa_offset 704
	adrp	x2, :got:__stack_chk_guard
	stp	x29, x30, [sp]
	.cfi_offset 29, -704
	.cfi_offset 30, -696
	mov	x29, sp
	ldr	x2, [x2, #:got_lo12:__stack_chk_guard]
	stp	x23, x24, [sp, 48]
	.cfi_offset 23, -656
	.cfi_offset 24, -648
	mov	x23, x1
	stp	x25, x26, [sp, 64]
	.cfi_offset 25, -640
	.cfi_offset 26, -632
	mov	x25, x0
	ldr	x1, [x2]
	str	x1, [sp, 696]
	mov	x1, 0
	ldp	x2, x3, [x0, 8]
	stp	x2, x3, [sp, 112]
	ldr	x0, [x0, 24]
	cbz	x0, .L497
	adrp	x0, :got:_ZTVN7openpal12StaticBufferILj255EEE
	add	x24, sp, 112
	stp	x19, x20, [sp, 16]
	.cfi_offset 20, -680
	.cfi_offset 19, -688
	add	x20, sp, 424
	add	x19, sp, 152
	ldr	x0, [x0, #:got_lo12:_ZTVN7openpal12StaticBufferILj255EEE]
	stp	x21, x22, [sp, 32]
	.cfi_offset 22, -664
	.cfi_offset 21, -672
	add	x22, x25, 32
	add	x0, x0, 16
	stp	x27, x28, [sp, 80]
	.cfi_offset 28, -616
	.cfi_offset 27, -624
	add	x28, sp, 128
	add	x27, sp, 144
	mov	w21, 0
	str	x0, [sp, 96]
	add	x0, sp, 416
	str	x0, [sp, 104]
	.p2align 3,,7
.L499:
	ldrb	w1, [x22, 13]
	mov	x0, x24
	ldr	x2, [x23]
	ldr	x26, [x2]
	bl	_ZNK7openpal6RSlice4TakeEj
	mov	x4, x0
	mov	x5, x1
	mov	x0, x27
	mov	x1, x28
	stp	x4, x5, [sp, 128]
	bl	_ZN8opendnp39OctetDataC2ERKN7openpal6RSliceE
	ldrb	w1, [x22, 13]
	mov	x0, x24
	bl	_ZN7openpal6RSlice7AdvanceEj
	ldp	q1, q2, [x19]
	ldp	q0, q5, [x19, 32]
	ldp	q3, q4, [x19, 64]
	stp	q1, q2, [x20]
	ldrh	w2, [x22]
	stp	q0, q5, [x20, 32]
	add	w2, w21, w2
	ldp	q1, q2, [x19, 96]
	stp	q3, q4, [x20, 64]
	add	w21, w21, 1
	ldp	q0, q5, [x19, 128]
	stp	q1, q2, [x20, 96]
	ldp	q3, q4, [x19, 160]
	stp	q0, q5, [x20, 128]
	ldp	q1, q2, [x19, 192]
	stp	q3, q4, [x20, 160]
	ldr	q0, [x19, 224]
	ldp	x0, x1, [sp, 96]
	str	x0, [sp, 416]
	stp	q1, q2, [x20, 192]
	mov	x0, x23
	str	q0, [x20, 224]
	strh	w2, [sp, 688]
	ldrb	w2, [sp, 408]
	ldr	q0, [x19, 239]
	strb	w2, [sp, 680]
	str	q0, [x20, 239]
	blr	x26
	ldr	x1, [x25, 24]
	cmp	x1, w21, uxtw
	bhi	.L499
	ldp	x19, x20, [sp, 16]
	.cfi_restore 20
	.cfi_restore 19
	ldp	x21, x22, [sp, 32]
	.cfi_restore 22
	.cfi_restore 21
	ldp	x27, x28, [sp, 80]
	.cfi_restore 28
	.cfi_restore 27
.L497:
	adrp	x0, :got:__stack_chk_guard
	ldr	x0, [x0, #:got_lo12:__stack_chk_guard]
	ldr	x2, [sp, 696]
	ldr	x1, [x0]
	subs	x2, x2, x1
	mov	x1, 0
	bne	.L506
	ldp	x29, x30, [sp]
	ldp	x23, x24, [sp, 48]
	ldp	x25, x26, [sp, 64]
	add	sp, sp, 704
	.cfi_remember_state
	.cfi_restore 29
	.cfi_restore 30
	.cfi_restore 25
	.cfi_restore 26
	.cfi_restore 23
	.cfi_restore 24
	.cfi_def_cfa_offset 0
	ret
.L506:
	.cfi_restore_state
	stp	x19, x20, [sp, 16]
	.cfi_offset 20, -680
	.cfi_offset 19, -688
	stp	x21, x22, [sp, 32]
	.cfi_offset 22, -664
	.cfi_offset 21, -672
	stp	x27, x28, [sp, 80]
	.cfi_offset 28, -616
	.cfi_offset 27, -624
	bl	__stack_chk_fail
	.cfi_endproc
.LFE3669:
	.size	_ZNK8opendnp318BufferedCollectionINS_7IndexedINS_11OctetStringEEEZNS_11RangeParser21ParseRangeOfOctetDataERN7openpal6RSliceERKNS_12HeaderRecordERKNS_5RangeEPNS5_6LoggerEPNS_12IAPDUHandlerEEUlS7_jE_E7ForeachERNS_8IVisitorIS3_EE, .-_ZNK8opendnp318BufferedCollectionINS_7IndexedINS_11OctetStringEEEZNS_11RangeParser21ParseRangeOfOctetDataERN7openpal6RSliceERKNS_12HeaderRecordERKNS_5RangeEPNS5_6LoggerEPNS_12IAPDUHandlerEEUlS7_jE_E7ForeachERNS_8IVisitorIS3_EE
	.section	.text._ZN7openpal12StaticBufferILj255EED0Ev,"axG",@progbits,_ZN7openpal12StaticBufferILj255EED5Ev,comdat
	.align	2
	.p2align 4,,11
	.weak	_ZN7openpal12StaticBufferILj255EED0Ev
	.type	_ZN7openpal12StaticBufferILj255EED0Ev, %function
_ZN7openpal12StaticBufferILj255EED0Ev:
.LFB2767:
	.cfi_startproc
	mov	x1, 264
	b	_ZdlPvm
	.cfi_endproc
.LFE2767:
	.size	_ZN7openpal12StaticBufferILj255EED0Ev, .-_ZN7openpal12StaticBufferILj255EED0Ev
	.text
	.align	2
	.p2align 4,,11
	.global	_ZN8opendnp311RangeParserC2ERKNS_5RangeEjPFvRKNS_12HeaderRecordES3_RKN7openpal6RSliceERNS_12IAPDUHandlerEE
	.type	_ZN8opendnp311RangeParserC2ERKNS_5RangeEjPFvRKNS_12HeaderRecordES3_RKN7openpal6RSliceERNS_12IAPDUHandlerEE, %function
_ZN8opendnp311RangeParserC2ERKNS_5RangeEjPFvRKNS_12HeaderRecordES3_RKN7openpal6RSliceERNS_12IAPDUHandlerEE:
.LFB2460:
	.cfi_startproc
	ldr	w1, [x1]
	stp	w1, w2, [x0]
	str	x3, [x0, 8]
	ret
	.cfi_endproc
.LFE2460:
	.size	_ZN8opendnp311RangeParserC2ERKNS_5RangeEjPFvRKNS_12HeaderRecordES3_RKN7openpal6RSliceERNS_12IAPDUHandlerEE, .-_ZN8opendnp311RangeParserC2ERKNS_5RangeEjPFvRKNS_12HeaderRecordES3_RKN7openpal6RSliceERNS_12IAPDUHandlerEE
	.global	_ZN8opendnp311RangeParserC1ERKNS_5RangeEjPFvRKNS_12HeaderRecordES3_RKN7openpal6RSliceERNS_12IAPDUHandlerEE
	.set	_ZN8opendnp311RangeParserC1ERKNS_5RangeEjPFvRKNS_12HeaderRecordES3_RKN7openpal6RSliceERNS_12IAPDUHandlerEE,_ZN8opendnp311RangeParserC2ERKNS_5RangeEjPFvRKNS_12HeaderRecordES3_RKN7openpal6RSliceERNS_12IAPDUHandlerEE
	.section	.rodata.str1.8,"aMS",@progbits,1
	.align	3
.LC0:
	.string	"Not enough data for specified objects"
	.align	3
.LC1:
	.string	"/home/jaehyun/OpenPLC_v3/utils/dnp3_src/cpp/libs/src/opendnp3/app/parsing/RangeParser.cpp(83)"
	.text
	.align	2
	.p2align 4,,11
	.global	_ZNK8opendnp311RangeParser7ProcessERKNS_12HeaderRecordERN7openpal6RSliceEPNS_12IAPDUHandlerEPNS4_6LoggerE
	.type	_ZNK8opendnp311RangeParser7ProcessERKNS_12HeaderRecordERN7openpal6RSliceEPNS_12IAPDUHandlerEPNS4_6LoggerE, %function
_ZNK8opendnp311RangeParser7ProcessERKNS_12HeaderRecordERN7openpal6RSliceEPNS_12IAPDUHandlerEPNS4_6LoggerE:
.LFB2463:
	.cfi_startproc
	stp	x29, x30, [sp, -64]!
	.cfi_def_cfa_offset 64
	.cfi_offset 29, -64
	.cfi_offset 30, -56
	adrp	x5, :got:__stack_chk_guard
	mov	x29, sp
	ldr	x5, [x5, #:got_lo12:__stack_chk_guard]
	stp	x19, x20, [sp, 16]
	ldr	w6, [x0, 4]
	ldr	w7, [x2]
	.cfi_offset 19, -48
	.cfi_offset 20, -40
	mov	x19, x0
	ldr	x0, [x5]
	str	x0, [sp, 56]
	mov	x0, 0
	cmp	w6, w7
	bhi	.L525
	mov	x20, x2
	cbz	x3, .L513
	ldr	x4, [x19, 8]
	mov	x0, x1
	mov	x1, x19
	blr	x4
	ldr	w6, [x19, 4]
.L513:
	mov	x0, x20
	mov	w1, w6
	bl	_ZN7openpal6RSlice7AdvanceEj
	mov	w0, 0
.L512:
	adrp	x1, :got:__stack_chk_guard
	ldr	x1, [x1, #:got_lo12:__stack_chk_guard]
	ldr	x3, [sp, 56]
	ldr	x2, [x1]
	subs	x3, x3, x2
	mov	x2, 0
	bne	.L526
	ldp	x19, x20, [sp, 16]
	ldp	x29, x30, [sp], 64
	.cfi_remember_state
	.cfi_restore 30
	.cfi_restore 29
	.cfi_restore 19
	.cfi_restore 20
	.cfi_def_cfa_offset 0
	ret
	.p2align 2,,3
.L525:
	.cfi_restore_state
	str	x21, [sp, 32]
	.cfi_offset 21, -32
	mov	x21, x4
	cbz	x4, .L511
	add	x20, sp, 48
	mov	w19, 4
	mov	x1, x20
	mov	x0, x4
	str	w19, [sp, 48]
	bl	_ZNK7openpal6Logger9IsEnabledERKNS_10LogFiltersE
	tst	w0, 255
	beq	.L511
	mov	x0, x21
	mov	x1, x20
	adrp	x3, .LC0
	adrp	x2, .LC1
	add	x3, x3, :lo12:.LC0
	add	x2, x2, :lo12:.LC1
	str	w19, [sp, 48]
	bl	_ZN7openpal6Logger3LogERKNS_10LogFiltersEPKcS5_
	mov	w0, w19
	ldr	x21, [sp, 32]
	.cfi_restore 21
	b	.L512
	.p2align 2,,3
.L511:
	.cfi_offset 21, -32
	mov	w0, 4
	ldr	x21, [sp, 32]
	.cfi_restore 21
	b	.L512
.L526:
	str	x21, [sp, 32]
	.cfi_offset 21, -32
	bl	__stack_chk_fail
	.cfi_endproc
.LFE2463:
	.size	_ZNK8opendnp311RangeParser7ProcessERKNS_12HeaderRecordERN7openpal6RSliceEPNS_12IAPDUHandlerEPNS4_6LoggerE, .-_ZNK8opendnp311RangeParser7ProcessERKNS_12HeaderRecordERN7openpal6RSliceEPNS_12IAPDUHandlerEPNS4_6LoggerE
	.section	.rodata.str1.8
	.align	3
.LC2:
	.string	"Not enough data for specified octet objects"
	.align	3
.LC3:
	.string	"/home/jaehyun/OpenPLC_v3/utils/dnp3_src/cpp/libs/src/opendnp3/app/parsing/RangeParser.cpp(171)"
	.align	3
.LC4:
	.string	"Octet string variation 0 may only be used in requests"
	.align	3
.LC5:
	.string	"/home/jaehyun/OpenPLC_v3/utils/dnp3_src/cpp/libs/src/opendnp3/app/parsing/RangeParser.cpp(196)"
	.text
	.align	2
	.p2align 4,,11
	.global	_ZN8opendnp311RangeParser21ParseRangeOfOctetDataERN7openpal6RSliceERKNS_12HeaderRecordERKNS_5RangeEPNS1_6LoggerEPNS_12IAPDUHandlerE
	.type	_ZN8opendnp311RangeParser21ParseRangeOfOctetDataERN7openpal6RSliceERKNS_12HeaderRecordERKNS_5RangeEPNS1_6LoggerEPNS_12IAPDUHandlerE, %function
_ZN8opendnp311RangeParser21ParseRangeOfOctetDataERN7openpal6RSliceERKNS_12HeaderRecordERKNS_5RangeEPNS1_6LoggerEPNS_12IAPDUHandlerE:
.LFB2465:
	.cfi_startproc
	stp	x29, x30, [sp, -160]!
	.cfi_def_cfa_offset 160
	.cfi_offset 29, -160
	.cfi_offset 30, -152
	adrp	x5, :got:__stack_chk_guard
	mov	x29, sp
	ldr	x5, [x5, #:got_lo12:__stack_chk_guard]
	str	x21, [sp, 32]
	.cfi_offset 21, -128
	mov	x21, x3
	ldrb	w6, [x1, 9]
	ldr	x7, [x5]
	str	x7, [sp, 152]
	mov	x7, 0
	cbz	w6, .L528
	ldrh	w5, [x2, 2]
	stp	x19, x20, [sp, 16]
	.cfi_offset 20, -136
	.cfi_offset 19, -144
	mov	x19, x0
	ldrh	w0, [x2]
	cmp	w0, w5
	bhi	.L536
	add	w5, w5, 1
	ldr	w3, [x19]
	sub	w5, w5, w0
	mul	w20, w6, w5
	cmp	w20, w3
	bls	.L529
	cbz	x21, .L530
	add	x20, sp, 96
	mov	w19, 4
	mov	x1, x20
	mov	x0, x21
	str	w19, [sp, 96]
	bl	_ZNK7openpal6Logger9IsEnabledERKNS_10LogFiltersE
	tst	w0, 255
	bne	.L551
.L530:
	mov	w0, 4
	ldp	x19, x20, [sp, 16]
	.cfi_remember_state
	.cfi_restore 20
	.cfi_restore 19
	b	.L531
	.p2align 2,,3
.L536:
	.cfi_restore_state
	mov	x5, 0
	mov	w20, 0
.L529:
	cbz	x4, .L532
	add	x0, sp, 4
	ldr	w10, [x2]
	ldp	x12, x13, [x1]
	str	w10, [sp, 48]
	stp	x12, x13, [x0, 48]
	adrp	x3, .LANCHOR0
	mov	x0, x4
	ldp	x8, x9, [x19]
	add	x3, x3, :lo12:.LANCHOR0
	ldp	x6, x7, [sp, 48]
	add	x3, x3, 16
	ldr	w4, [sp, 64]
	add	x1, sp, 72
	add	x2, sp, 96
	stp	x12, x13, [sp, 72]
	str	w10, [sp, 88]
	str	x3, [sp, 96]
	stp	x8, x9, [sp, 104]
	str	x5, [sp, 120]
	stp	x6, x7, [sp, 128]
	str	w4, [sp, 144]
	bl	_ZN8opendnp312IAPDUHandler8OnHeaderERKNS_11RangeHeaderERKNS_11ICollectionINS_7IndexedINS_11OctetStringEEEEE
.L532:
	mov	x0, x19
	mov	w1, w20
	bl	_ZN7openpal6RSlice7AdvanceEj
	ldp	x19, x20, [sp, 16]
	.cfi_restore 20
	.cfi_restore 19
	mov	w0, 0
.L531:
	adrp	x1, :got:__stack_chk_guard
	ldr	x1, [x1, #:got_lo12:__stack_chk_guard]
	ldr	x3, [sp, 152]
	ldr	x2, [x1]
	subs	x3, x3, x2
	mov	x2, 0
	bne	.L552
	ldr	x21, [sp, 32]
	ldp	x29, x30, [sp], 160
	.cfi_remember_state
	.cfi_restore 30
	.cfi_restore 29
	.cfi_restore 21
	.cfi_def_cfa_offset 0
	ret
	.p2align 2,,3
.L528:
	.cfi_restore_state
	cbz	x3, .L534
	stp	x19, x20, [sp, 16]
	.cfi_offset 20, -136
	.cfi_offset 19, -144
	add	x20, sp, 96
	mov	w19, 4
	mov	x1, x20
	mov	x0, x3
	str	w19, [sp, 96]
	bl	_ZNK7openpal6Logger9IsEnabledERKNS_10LogFiltersE
	tst	w0, 255
	bne	.L553
	ldp	x19, x20, [sp, 16]
	.cfi_restore 20
	.cfi_restore 19
.L534:
	mov	w0, 9
	b	.L531
	.p2align 2,,3
.L551:
	.cfi_offset 19, -144
	.cfi_offset 20, -136
	mov	x1, x20
	mov	x0, x21
	adrp	x3, .LC2
	adrp	x2, .LC3
	add	x3, x3, :lo12:.LC2
	add	x2, x2, :lo12:.LC3
	str	w19, [sp, 96]
	bl	_ZN7openpal6Logger3LogERKNS_10LogFiltersEPKcS5_
	mov	w0, w19
	ldp	x19, x20, [sp, 16]
	.cfi_remember_state
	.cfi_restore 20
	.cfi_restore 19
	b	.L531
	.p2align 2,,3
.L553:
	.cfi_restore_state
	mov	x1, x20
	mov	x0, x21
	adrp	x3, .LC4
	adrp	x2, .LC5
	add	x3, x3, :lo12:.LC4
	add	x2, x2, :lo12:.LC5
	str	w19, [sp, 96]
	bl	_ZN7openpal6Logger3LogERKNS_10LogFiltersEPKcS5_
	mov	w0, 9
	ldp	x19, x20, [sp, 16]
	.cfi_restore 20
	.cfi_restore 19
	b	.L531
.L552:
	stp	x19, x20, [sp, 16]
	.cfi_offset 20, -136
	.cfi_offset 19, -144
	bl	__stack_chk_fail
	.cfi_endproc
.LFE2465:
	.size	_ZN8opendnp311RangeParser21ParseRangeOfOctetDataERN7openpal6RSliceERKNS_12HeaderRecordERKNS_5RangeEPNS1_6LoggerEPNS_12IAPDUHandlerE, .-_ZN8opendnp311RangeParser21ParseRangeOfOctetDataERN7openpal6RSliceERKNS_12HeaderRecordERKNS_5RangeEPNS1_6LoggerEPNS_12IAPDUHandlerE
	.section	.rodata.str1.8
	.align	3
.LC6:
	.string	"Unsupported qualifier/object - %s - %i / %i"
	.align	3
.LC7:
	.string	"/home/jaehyun/OpenPLC_v3/utils/dnp3_src/cpp/libs/src/opendnp3/app/parsing/RangeParser.cpp(154)"
	.text
	.align	2
	.p2align 4,,11
	.global	_ZN8opendnp311RangeParser19ParseRangeOfObjectsERN7openpal6RSliceERKNS_12HeaderRecordERKNS_5RangeEPNS1_6LoggerEPNS_12IAPDUHandlerE
	.type	_ZN8opendnp311RangeParser19ParseRangeOfObjectsERN7openpal6RSliceERKNS_12HeaderRecordERKNS_5RangeEPNS1_6LoggerEPNS_12IAPDUHandlerE, %function
_ZN8opendnp311RangeParser19ParseRangeOfObjectsERN7openpal6RSliceERKNS_12HeaderRecordERKNS_5RangeEPNS1_6LoggerEPNS_12IAPDUHandlerE:
.LFB2464:
	.cfi_startproc
	stp	x29, x30, [sp, -208]!
	.cfi_def_cfa_offset 208
	.cfi_offset 29, -208
	.cfi_offset 30, -200
	adrp	x6, :got:__stack_chk_guard
	mov	x29, sp
	ldr	x6, [x6, #:got_lo12:__stack_chk_guard]
	stp	x19, x20, [sp, 16]
	ldrh	w5, [x1]
	stp	x21, x22, [sp, 32]
	.cfi_offset 19, -192
	.cfi_offset 20, -184
	.cfi_offset 21, -176
	.cfi_offset 22, -168
	mov	x20, x1
	mov	x22, x0
	stp	x23, x24, [sp, 48]
	.cfi_offset 23, -160
	.cfi_offset 24, -152
	mov	x19, x2
	mov	x21, x3
	ldr	x7, [x6]
	str	x7, [sp, 200]
	mov	x7, 0
	mov	x23, x4
	mov	w6, 5386
	cmp	w5, w6
	beq	.L555
	bhi	.L556
	mov	w0, 5122
	cmp	w5, w0
	beq	.L557
	bls	.L668
	mov	w0, 5378
	cmp	w5, w0
	beq	.L568
	bls	.L669
	mov	w0, 5382
	cmp	w5, w0
	beq	.L573
	mov	w0, 5385
	cmp	w5, w0
	bne	.L670
	ldrh	w5, [x2, 2]
	adrp	x3, :got:_ZN8opendnp311RangeParser13InvokeRangeOfINS_11Group21Var9EEEvRKNS_12HeaderRecordERKNS_5RangeERKN7openpal6RSliceERNS_12IAPDUHandlerE
	ldrh	w4, [x2]
	add	x0, sp, 64
	add	w2, w5, 1
	mov	x1, x19
	sub	w2, w2, w4
	cmp	w4, w5
	ldr	x3, [x3, #:got_lo12:_ZN8opendnp311RangeParser13InvokeRangeOfINS_11Group21Var9EEEvRKNS_12HeaderRecordERKNS_5RangeERKN7openpal6RSliceERNS_12IAPDUHandlerE]
	mov	x19, x0
	lsl	w2, w2, 2
	.p2align 3,,7
.L664:
	csel	w2, w2, wzr, ls
.L663:
	bl	_ZN8opendnp311RangeParserC1ERKNS_5RangeEjPFvRKNS_12HeaderRecordES3_RKN7openpal6RSliceERNS_12IAPDUHandlerEE
	mov	x4, x21
	mov	x3, x23
	mov	x2, x22
	mov	x1, x20
	mov	x0, x19
	bl	_ZNK8opendnp311RangeParser7ProcessERKNS_12HeaderRecordERN7openpal6RSliceEPNS_12IAPDUHandlerEPNS4_6LoggerE
	and	w0, w0, 255
.L594:
	adrp	x1, :got:__stack_chk_guard
	ldr	x1, [x1, #:got_lo12:__stack_chk_guard]
	ldr	x3, [sp, 200]
	ldr	x2, [x1]
	subs	x3, x3, x2
	mov	x2, 0
	bne	.L665
	ldp	x19, x20, [sp, 16]
	ldp	x21, x22, [sp, 32]
	ldp	x23, x24, [sp, 48]
	ldp	x29, x30, [sp], 208
	.cfi_remember_state
	.cfi_restore 30
	.cfi_restore 29
	.cfi_restore 23
	.cfi_restore 24
	.cfi_restore 21
	.cfi_restore 22
	.cfi_restore 19
	.cfi_restore 20
	.cfi_def_cfa_offset 0
	ret
.L670:
	.cfi_restore_state
	mov	w0, 5381
	cmp	w5, w0
	bne	.L564
	adrp	x3, :got:_ZN8opendnp311RangeParser13InvokeRangeOfINS_11Group21Var5EEEvRKNS_12HeaderRecordERKNS_5RangeERKN7openpal6RSliceERNS_12IAPDUHandlerE
	ldrh	w1, [x2]
	ldrh	w0, [x2, 2]
	mov	w2, 11
	ldr	x3, [x3, #:got_lo12:_ZN8opendnp311RangeParser13InvokeRangeOfINS_11Group21Var5EEEvRKNS_12HeaderRecordERKNS_5RangeERKN7openpal6RSliceERNS_12IAPDUHandlerE]
.L666:
	sub	w4, w0, w1
	cmp	w1, w0
	add	x0, sp, 64
	mov	x1, x19
	mov	x19, x0
	madd	w2, w4, w2, w2
	b	.L664
	.p2align 2,,3
.L669:
	mov	w0, 5126
	cmp	w5, w0
	beq	.L570
	mov	w0, 5377
	cmp	w5, w0
	bne	.L671
	ldrh	w5, [x2, 2]
	adrp	x3, :got:_ZN8opendnp311RangeParser13InvokeRangeOfINS_11Group21Var1EEEvRKNS_12HeaderRecordERKNS_5RangeERKN7openpal6RSliceERNS_12IAPDUHandlerE
	ldrh	w4, [x2]
	add	x0, sp, 64
	add	w2, w5, 1
	mov	x1, x19
	sub	w2, w2, w4
	cmp	w4, w5
	ldr	x3, [x3, #:got_lo12:_ZN8opendnp311RangeParser13InvokeRangeOfINS_11Group21Var1EEEvRKNS_12HeaderRecordERKNS_5RangeERKN7openpal6RSliceERNS_12IAPDUHandlerE]
	mov	x19, x0
	add	w2, w2, w2, lsl 2
	b	.L664
	.p2align 2,,3
.L668:
	cmp	w5, 770
	beq	.L559
	bls	.L672
	cmp	w5, 2562
	beq	.L565
	mov	w0, 5121
	cmp	w5, w0
	bne	.L673
	ldrh	w5, [x2, 2]
	adrp	x3, :got:_ZN8opendnp311RangeParser13InvokeRangeOfINS_11Group20Var1EEEvRKNS_12HeaderRecordERKNS_5RangeERKN7openpal6RSliceERNS_12IAPDUHandlerE
	ldrh	w4, [x2]
	add	x0, sp, 64
	add	w2, w5, 1
	mov	x1, x19
	sub	w2, w2, w4
	cmp	w4, w5
	ldr	x3, [x3, #:got_lo12:_ZN8opendnp311RangeParser13InvokeRangeOfINS_11Group20Var1EEEvRKNS_12HeaderRecordERKNS_5RangeERKN7openpal6RSliceERNS_12IAPDUHandlerE]
	mov	x19, x0
	add	w2, w2, w2, lsl 2
	b	.L664
	.p2align 2,,3
.L556:
	mov	w6, 10242
	cmp	w5, w6
	beq	.L576
	bls	.L674
	mov	w6, 20481
	cmp	w5, w6
	beq	.L586
	bls	.L675
	mov	w6, 28160
	cmp	w5, w6
	beq	.L591
	mov	w0, 30977
	cmp	w5, w0
	bne	.L564
	ldrh	w2, [x2, 2]
	adrp	x3, :got:_ZN8opendnp311RangeParser17InvokeRangeOfTypeINS_12Group121Var1EEEvRKNS_12HeaderRecordERKNS_5RangeERKN7openpal6RSliceERNS_12IAPDUHandlerE
	ldrh	w5, [x19]
	add	x0, sp, 64
	add	w4, w2, 1
	mov	x1, x19
	sub	w4, w4, w5
	cmp	w5, w2
	ldr	x3, [x3, #:got_lo12:_ZN8opendnp311RangeParser17InvokeRangeOfTypeINS_12Group121Var1EEEvRKNS_12HeaderRecordERKNS_5RangeERKN7openpal6RSliceERNS_12IAPDUHandlerE]
	lsl	w2, w4, 3
	sub	w2, w2, w4
	mov	x19, x0
	b	.L664
	.p2align 2,,3
.L671:
	mov	w0, 5125
	cmp	w5, w0
	bne	.L564
	ldrh	w5, [x2, 2]
	adrp	x3, :got:_ZN8opendnp311RangeParser13InvokeRangeOfINS_11Group20Var5EEEvRKNS_12HeaderRecordERKNS_5RangeERKN7openpal6RSliceERNS_12IAPDUHandlerE
	ldrh	w4, [x2]
	add	x0, sp, 64
	add	w2, w5, 1
	mov	x1, x19
	sub	w2, w2, w4
	cmp	w4, w5
	ldr	x3, [x3, #:got_lo12:_ZN8opendnp311RangeParser13InvokeRangeOfINS_11Group20Var5EEEvRKNS_12HeaderRecordERKNS_5RangeERKN7openpal6RSliceERNS_12IAPDUHandlerE]
	mov	x19, x0
	lsl	w2, w2, 2
	b	.L664
	.p2align 2,,3
.L675:
	mov	w0, 10244
	cmp	w5, w0
	beq	.L588
	mov	w0, 12804
	cmp	w5, w0
	bne	.L676
	adrp	x3, :got:_ZN8opendnp311RangeParser13InvokeRangeOfINS_11Group50Var4EEEvRKNS_12HeaderRecordERKNS_5RangeERKN7openpal6RSliceERNS_12IAPDUHandlerE
	ldrh	w1, [x2]
	ldrh	w0, [x2, 2]
	mov	w2, 11
	ldr	x3, [x3, #:got_lo12:_ZN8opendnp311RangeParser13InvokeRangeOfINS_11Group50Var4EEEvRKNS_12HeaderRecordERKNS_5RangeERKN7openpal6RSliceERNS_12IAPDUHandlerE]
	b	.L666
	.p2align 2,,3
.L674:
	mov	w0, 7684
	cmp	w5, w0
	beq	.L578
	bls	.L677
	mov	w0, 7686
	cmp	w5, w0
	beq	.L583
	mov	w0, 10241
	cmp	w5, w0
	bne	.L678
	ldrh	w5, [x2, 2]
	adrp	x3, :got:_ZN8opendnp311RangeParser13InvokeRangeOfINS_11Group40Var1EEEvRKNS_12HeaderRecordERKNS_5RangeERKN7openpal6RSliceERNS_12IAPDUHandlerE
	ldrh	w4, [x2]
	add	x0, sp, 64
	add	w2, w5, 1
	mov	x1, x19
	sub	w2, w2, w4
	cmp	w4, w5
	ldr	x3, [x3, #:got_lo12:_ZN8opendnp311RangeParser13InvokeRangeOfINS_11Group40Var1EEEvRKNS_12HeaderRecordERKNS_5RangeERKN7openpal6RSliceERNS_12IAPDUHandlerE]
	mov	x19, x0
	add	w2, w2, w2, lsl 2
	b	.L664
	.p2align 2,,3
.L676:
	mov	w0, 10243
	cmp	w5, w0
	bne	.L564
	ldrh	w5, [x2, 2]
	adrp	x3, :got:_ZN8opendnp311RangeParser13InvokeRangeOfINS_11Group40Var3EEEvRKNS_12HeaderRecordERKNS_5RangeERKN7openpal6RSliceERNS_12IAPDUHandlerE
	ldrh	w4, [x2]
	add	x0, sp, 64
	add	w2, w5, 1
	mov	x1, x19
	sub	w2, w2, w4
	cmp	w4, w5
	ldr	x3, [x3, #:got_lo12:_ZN8opendnp311RangeParser13InvokeRangeOfINS_11Group40Var3EEEvRKNS_12HeaderRecordERKNS_5RangeERKN7openpal6RSliceERNS_12IAPDUHandlerE]
	mov	x19, x0
	add	w2, w2, w2, lsl 2
	b	.L664
	.p2align 2,,3
.L678:
	mov	w0, 7685
	cmp	w5, w0
	bne	.L564
	ldrh	w5, [x2, 2]
	adrp	x3, :got:_ZN8opendnp311RangeParser13InvokeRangeOfINS_11Group30Var5EEEvRKNS_12HeaderRecordERKNS_5RangeERKN7openpal6RSliceERNS_12IAPDUHandlerE
	ldrh	w4, [x2]
	add	x0, sp, 64
	add	w2, w5, 1
	mov	x1, x19
	sub	w2, w2, w4
	cmp	w4, w5
	ldr	x3, [x3, #:got_lo12:_ZN8opendnp311RangeParser13InvokeRangeOfINS_11Group30Var5EEEvRKNS_12HeaderRecordERKNS_5RangeERKN7openpal6RSliceERNS_12IAPDUHandlerE]
	mov	x19, x0
	add	w2, w2, w2, lsl 2
	b	.L664
	.p2align 2,,3
.L677:
	mov	w0, 7682
	cmp	w5, w0
	beq	.L580
	mov	w0, 7683
	cmp	w5, w0
	bne	.L679
	ldrh	w5, [x2, 2]
	adrp	x3, :got:_ZN8opendnp311RangeParser13InvokeRangeOfINS_11Group30Var3EEEvRKNS_12HeaderRecordERKNS_5RangeERKN7openpal6RSliceERNS_12IAPDUHandlerE
	ldrh	w4, [x2]
	add	x0, sp, 64
	add	w2, w5, 1
	mov	x1, x19
	sub	w2, w2, w4
	cmp	w4, w5
	ldr	x3, [x3, #:got_lo12:_ZN8opendnp311RangeParser13InvokeRangeOfINS_11Group30Var3EEEvRKNS_12HeaderRecordERKNS_5RangeERKN7openpal6RSliceERNS_12IAPDUHandlerE]
	mov	x19, x0
	lsl	w2, w2, 2
	b	.L664
	.p2align 2,,3
.L673:
	cmp	w5, 2561
	bne	.L564
	ldrh	w1, [x2]
	add	x24, sp, 64
	ldrh	w0, [x2, 2]
	cmp	w1, w0
	sub	w0, w0, w1
	csinc	w0, wzr, w0, hi
	bl	_ZN8opendnp314NumBytesInBitsEj
	mov	w2, w0
	adrp	x3, :got:_ZN8opendnp311RangeParser23InvokeRangeBitfieldTypeINS_18BinaryOutputStatusEEEvRKNS_12HeaderRecordERKNS_5RangeERKN7openpal6RSliceERNS_12IAPDUHandlerE
	mov	x1, x19
	mov	x0, x24
	ldr	x3, [x3, #:got_lo12:_ZN8opendnp311RangeParser23InvokeRangeBitfieldTypeINS_18BinaryOutputStatusEEEvRKNS_12HeaderRecordERKNS_5RangeERKN7openpal6RSliceERNS_12IAPDUHandlerE]
.L662:
	bl	_ZN8opendnp311RangeParserC1ERKNS_5RangeEjPFvRKNS_12HeaderRecordES3_RKN7openpal6RSliceERNS_12IAPDUHandlerEE
	mov	x4, x21
	mov	x3, x23
	mov	x2, x22
	mov	x1, x20
	mov	x0, x24
	bl	_ZNK8opendnp311RangeParser7ProcessERKNS_12HeaderRecordERN7openpal6RSliceEPNS_12IAPDUHandlerEPNS4_6LoggerE
	and	w0, w0, 255
	b	.L594
.L672:
	cmp	w5, 258
	beq	.L561
	cmp	w5, 769
	bne	.L680
	ldrh	w1, [x2]
	add	x24, sp, 64
	ldrh	w0, [x2, 2]
	cmp	w1, w0
	sub	w0, w0, w1
	csinc	w0, wzr, w0, hi
	bl	_ZN8opendnp320NumBytesInDoubleBitsEj
	mov	w2, w0
	adrp	x3, :got:_ZN8opendnp311RangeParser29InvokeRangeDoubleBitfieldTypeINS_15DoubleBitBinaryEEEvRKNS_12HeaderRecordERKNS_5RangeERKN7openpal6RSliceERNS_12IAPDUHandlerE
	mov	x1, x19
	mov	x0, x24
	ldr	x3, [x3, #:got_lo12:_ZN8opendnp311RangeParser29InvokeRangeDoubleBitfieldTypeINS_15DoubleBitBinaryEEEvRKNS_12HeaderRecordERKNS_5RangeERKN7openpal6RSliceERNS_12IAPDUHandlerE]
	b	.L662
	.p2align 2,,3
.L679:
	mov	w0, 7681
	cmp	w5, w0
	bne	.L564
	ldrh	w5, [x2, 2]
	adrp	x3, :got:_ZN8opendnp311RangeParser13InvokeRangeOfINS_11Group30Var1EEEvRKNS_12HeaderRecordERKNS_5RangeERKN7openpal6RSliceERNS_12IAPDUHandlerE
	ldrh	w4, [x2]
	add	x0, sp, 64
	add	w2, w5, 1
	mov	x1, x19
	sub	w2, w2, w4
	cmp	w4, w5
	ldr	x3, [x3, #:got_lo12:_ZN8opendnp311RangeParser13InvokeRangeOfINS_11Group30Var1EEEvRKNS_12HeaderRecordERKNS_5RangeERKN7openpal6RSliceERNS_12IAPDUHandlerE]
	mov	x19, x0
	add	w2, w2, w2, lsl 2
	b	.L664
	.p2align 2,,3
.L680:
	cmp	w5, 257
	bne	.L564
	ldrh	w1, [x2]
	add	x24, sp, 64
	ldrh	w0, [x2, 2]
	cmp	w1, w0
	sub	w0, w0, w1
	csinc	w0, wzr, w0, hi
	bl	_ZN8opendnp314NumBytesInBitsEj
	mov	w2, w0
	adrp	x3, :got:_ZN8opendnp311RangeParser23InvokeRangeBitfieldTypeINS_6BinaryEEEvRKNS_12HeaderRecordERKNS_5RangeERKN7openpal6RSliceERNS_12IAPDUHandlerE
	mov	x1, x19
	mov	x0, x24
	ldr	x3, [x3, #:got_lo12:_ZN8opendnp311RangeParser23InvokeRangeBitfieldTypeINS_6BinaryEEEvRKNS_12HeaderRecordERKNS_5RangeERKN7openpal6RSliceERNS_12IAPDUHandlerE]
	b	.L662
.L564:
	cbz	x21, .L624
	add	x22, sp, 64
	mov	w19, 4
	mov	x1, x22
	mov	x0, x21
	str	w19, [sp, 64]
	bl	_ZNK7openpal6Logger9IsEnabledERKNS_10LogFiltersE
	tst	w0, 255
	bne	.L681
.L624:
	mov	w0, 8
	b	.L594
.L681:
	mov	x0, x20
	bl	_ZNK8opendnp312HeaderRecord16GetQualifierCodeEv
	bl	_ZN8opendnp321QualifierCodeToStringENS_13QualifierCodeE
	mov	x5, x0
	ldrb	w7, [x20, 9]
	adrp	x4, .LC6
	ldrb	w6, [x20, 8]
	add	x4, x4, :lo12:.LC6
	add	x20, sp, 80
	mov	x3, 120
	mov	w2, 1
	mov	x1, x3
	mov	x0, x20
	bl	__snprintf_chk
	str	w19, [sp, 64]
	mov	x0, x21
	mov	x3, x20
	mov	x1, x22
	adrp	x2, .LC7
	add	x2, x2, :lo12:.LC7
	bl	_ZN7openpal6Logger3LogERKNS_10LogFiltersEPKcS5_
	mov	w0, 8
	b	.L594
	.p2align 2,,3
.L561:
	adrp	x3, :got:_ZN8opendnp311RangeParser13InvokeRangeOfINS_10Group1Var2EEEvRKNS_12HeaderRecordERKNS_5RangeERKN7openpal6RSliceERNS_12IAPDUHandlerE
	ldrh	w1, [x2]
	ldrh	w2, [x2, 2]
	add	x0, sp, 64
	ldr	x3, [x3, #:got_lo12:_ZN8opendnp311RangeParser13InvokeRangeOfINS_10Group1Var2EEEvRKNS_12HeaderRecordERKNS_5RangeERKN7openpal6RSliceERNS_12IAPDUHandlerE]
.L667:
	cmp	w1, w2
	sub	w2, w2, w1
	mov	x1, x19
	csinc	w2, wzr, w2, hi
	mov	x19, x0
	b	.L663
	.p2align 2,,3
.L578:
	ldrh	w5, [x2, 2]
	adrp	x3, :got:_ZN8opendnp311RangeParser13InvokeRangeOfINS_11Group30Var4EEEvRKNS_12HeaderRecordERKNS_5RangeERKN7openpal6RSliceERNS_12IAPDUHandlerE
	ldrh	w4, [x2]
	add	x0, sp, 64
	add	w2, w5, 1
	mov	x1, x19
	sub	w2, w2, w4
	cmp	w4, w5
	ldr	x3, [x3, #:got_lo12:_ZN8opendnp311RangeParser13InvokeRangeOfINS_11Group30Var4EEEvRKNS_12HeaderRecordERKNS_5RangeERKN7openpal6RSliceERNS_12IAPDUHandlerE]
	mov	x19, x0
	lsl	w2, w2, 1
	b	.L664
	.p2align 2,,3
.L588:
	ldrh	w5, [x2, 2]
	adrp	x3, :got:_ZN8opendnp311RangeParser13InvokeRangeOfINS_11Group40Var4EEEvRKNS_12HeaderRecordERKNS_5RangeERKN7openpal6RSliceERNS_12IAPDUHandlerE
	ldrh	w4, [x2]
	add	x0, sp, 64
	add	w2, w5, 1
	mov	x1, x19
	sub	w2, w2, w4
	cmp	w4, w5
	ldr	x3, [x3, #:got_lo12:_ZN8opendnp311RangeParser13InvokeRangeOfINS_11Group40Var4EEEvRKNS_12HeaderRecordERKNS_5RangeERKN7openpal6RSliceERNS_12IAPDUHandlerE]
	mov	x19, x0
	add	w2, w2, w2, lsl 3
	b	.L664
	.p2align 2,,3
.L591:
	adrp	x5, :got:__stack_chk_guard
	ldr	x5, [x5, #:got_lo12:__stack_chk_guard]
	ldr	x7, [sp, 200]
	ldr	x6, [x5]
	subs	x7, x7, x6
	mov	x6, 0
	bne	.L665
	ldp	x19, x20, [sp, 16]
	ldp	x21, x22, [sp, 32]
	ldp	x23, x24, [sp, 48]
	ldp	x29, x30, [sp], 208
	.cfi_remember_state
	.cfi_restore 30
	.cfi_restore 29
	.cfi_restore 23
	.cfi_restore 24
	.cfi_restore 21
	.cfi_restore 22
	.cfi_restore 19
	.cfi_restore 20
	.cfi_def_cfa_offset 0
	b	_ZN8opendnp311RangeParser21ParseRangeOfOctetDataERN7openpal6RSliceERKNS_12HeaderRecordERKNS_5RangeEPNS1_6LoggerEPNS_12IAPDUHandlerE
	.p2align 2,,3
.L586:
	.cfi_restore_state
	ldrh	w1, [x2]
	add	x24, sp, 64
	ldrh	w0, [x2, 2]
	cmp	w1, w0
	sub	w0, w0, w1
	csinc	w0, wzr, w0, hi
	bl	_ZN8opendnp314NumBytesInBitsEj
	mov	w2, w0
	adrp	x3, :got:_ZN8opendnp311RangeParser23InvokeRangeBitfieldTypeINS_8IINValueEEEvRKNS_12HeaderRecordERKNS_5RangeERKN7openpal6RSliceERNS_12IAPDUHandlerE
	mov	x1, x19
	mov	x0, x24
	ldr	x3, [x3, #:got_lo12:_ZN8opendnp311RangeParser23InvokeRangeBitfieldTypeINS_8IINValueEEEvRKNS_12HeaderRecordERKNS_5RangeERKN7openpal6RSliceERNS_12IAPDUHandlerE]
	b	.L662
	.p2align 2,,3
.L576:
	ldrh	w5, [x2, 2]
	adrp	x3, :got:_ZN8opendnp311RangeParser13InvokeRangeOfINS_11Group40Var2EEEvRKNS_12HeaderRecordERKNS_5RangeERKN7openpal6RSliceERNS_12IAPDUHandlerE
	ldrh	w4, [x2]
	add	x0, sp, 64
	add	w2, w5, 1
	mov	x1, x19
	sub	w2, w2, w4
	cmp	w4, w5
	ldr	x3, [x3, #:got_lo12:_ZN8opendnp311RangeParser13InvokeRangeOfINS_11Group40Var2EEEvRKNS_12HeaderRecordERKNS_5RangeERKN7openpal6RSliceERNS_12IAPDUHandlerE]
	mov	x19, x0
	add	w2, w2, w2, lsl 1
	b	.L664
	.p2align 2,,3
.L565:
	adrp	x3, :got:_ZN8opendnp311RangeParser13InvokeRangeOfINS_11Group10Var2EEEvRKNS_12HeaderRecordERKNS_5RangeERKN7openpal6RSliceERNS_12IAPDUHandlerE
	ldrh	w1, [x2]
	add	x0, sp, 64
	ldrh	w2, [x2, 2]
	ldr	x3, [x3, #:got_lo12:_ZN8opendnp311RangeParser13InvokeRangeOfINS_11Group10Var2EEEvRKNS_12HeaderRecordERKNS_5RangeERKN7openpal6RSliceERNS_12IAPDUHandlerE]
	b	.L667
	.p2align 2,,3
.L559:
	adrp	x3, :got:_ZN8opendnp311RangeParser13InvokeRangeOfINS_10Group3Var2EEEvRKNS_12HeaderRecordERKNS_5RangeERKN7openpal6RSliceERNS_12IAPDUHandlerE
	ldrh	w1, [x2]
	add	x0, sp, 64
	ldrh	w2, [x2, 2]
	ldr	x3, [x3, #:got_lo12:_ZN8opendnp311RangeParser13InvokeRangeOfINS_10Group3Var2EEEvRKNS_12HeaderRecordERKNS_5RangeERKN7openpal6RSliceERNS_12IAPDUHandlerE]
	b	.L667
	.p2align 2,,3
.L573:
	ldrh	w5, [x2, 2]
	adrp	x3, :got:_ZN8opendnp311RangeParser13InvokeRangeOfINS_11Group21Var6EEEvRKNS_12HeaderRecordERKNS_5RangeERKN7openpal6RSliceERNS_12IAPDUHandlerE
	ldrh	w4, [x2]
	add	x0, sp, 64
	add	w2, w5, 1
	mov	x1, x19
	sub	w2, w2, w4
	cmp	w4, w5
	ldr	x3, [x3, #:got_lo12:_ZN8opendnp311RangeParser13InvokeRangeOfINS_11Group21Var6EEEvRKNS_12HeaderRecordERKNS_5RangeERKN7openpal6RSliceERNS_12IAPDUHandlerE]
	mov	x19, x0
	add	w2, w2, w2, lsl 3
	b	.L664
	.p2align 2,,3
.L568:
	ldrh	w5, [x2, 2]
	adrp	x3, :got:_ZN8opendnp311RangeParser13InvokeRangeOfINS_11Group21Var2EEEvRKNS_12HeaderRecordERKNS_5RangeERKN7openpal6RSliceERNS_12IAPDUHandlerE
	ldrh	w4, [x2]
	add	x0, sp, 64
	add	w2, w5, 1
	mov	x1, x19
	sub	w2, w2, w4
	cmp	w4, w5
	ldr	x3, [x3, #:got_lo12:_ZN8opendnp311RangeParser13InvokeRangeOfINS_11Group21Var2EEEvRKNS_12HeaderRecordERKNS_5RangeERKN7openpal6RSliceERNS_12IAPDUHandlerE]
	mov	x19, x0
	add	w2, w2, w2, lsl 1
	b	.L664
	.p2align 2,,3
.L557:
	ldrh	w5, [x2, 2]
	adrp	x3, :got:_ZN8opendnp311RangeParser13InvokeRangeOfINS_11Group20Var2EEEvRKNS_12HeaderRecordERKNS_5RangeERKN7openpal6RSliceERNS_12IAPDUHandlerE
	ldrh	w4, [x2]
	add	x0, sp, 64
	add	w2, w5, 1
	mov	x1, x19
	sub	w2, w2, w4
	cmp	w4, w5
	ldr	x3, [x3, #:got_lo12:_ZN8opendnp311RangeParser13InvokeRangeOfINS_11Group20Var2EEEvRKNS_12HeaderRecordERKNS_5RangeERKN7openpal6RSliceERNS_12IAPDUHandlerE]
	mov	x19, x0
	add	w2, w2, w2, lsl 1
	b	.L664
	.p2align 2,,3
.L555:
	ldrh	w5, [x2, 2]
