	.arch armv8-a
	.file	"DefaultMasterApplication.cpp"
	.text
	.section	.text._ZN8opendnp313ILinkListener20OnKeepAliveInitiatedEv,"axG",@progbits,_ZN8opendnp313ILinkListener20OnKeepAliveInitiatedEv,comdat
	.align	2
	.p2align 4,,11
	.weak	_ZN8opendnp313ILinkListener20OnKeepAliveInitiatedEv
	.type	_ZN8opendnp313ILinkListener20OnKeepAliveInitiatedEv, %function
_ZN8opendnp313ILinkListener20OnKeepAliveInitiatedEv:
.LFB55:
	.cfi_startproc
	ret
	.cfi_endproc
.LFE55:
	.size	_ZN8opendnp313ILinkListener20OnKeepAliveInitiatedEv, .-_ZN8opendnp313ILinkListener20OnKeepAliveInitiatedEv
	.section	.text._ZN8opendnp313ILinkListener18OnKeepAliveFailureEv,"axG",@progbits,_ZN8opendnp313ILinkListener18OnKeepAliveFailureEv,comdat
	.align	2
	.p2align 4,,11
	.weak	_ZN8opendnp313ILinkListener18OnKeepAliveFailureEv
	.type	_ZN8opendnp313ILinkListener18OnKeepAliveFailureEv, %function
_ZN8opendnp313ILinkListener18OnKeepAliveFailureEv:
.LFB56:
	.cfi_startproc
	ret
	.cfi_endproc
.LFE56:
	.size	_ZN8opendnp313ILinkListener18OnKeepAliveFailureEv, .-_ZN8opendnp313ILinkListener18OnKeepAliveFailureEv
	.section	.text._ZN8opendnp313ILinkListener18OnKeepAliveSuccessEv,"axG",@progbits,_ZN8opendnp313ILinkListener18OnKeepAliveSuccessEv,comdat
	.align	2
	.p2align 4,,11
	.weak	_ZN8opendnp313ILinkListener18OnKeepAliveSuccessEv
	.type	_ZN8opendnp313ILinkListener18OnKeepAliveSuccessEv, %function
_ZN8opendnp313ILinkListener18OnKeepAliveSuccessEv:
.LFB57:
	.cfi_startproc
	ret
	.cfi_endproc
.LFE57:
	.size	_ZN8opendnp313ILinkListener18OnKeepAliveSuccessEv, .-_ZN8opendnp313ILinkListener18OnKeepAliveSuccessEv
	.section	.text._ZN8opendnp318IMasterApplication6OnOpenEv,"axG",@progbits,_ZN8opendnp318IMasterApplication6OnOpenEv,comdat
	.align	2
	.p2align 4,,11
	.weak	_ZN8opendnp318IMasterApplication6OnOpenEv
	.type	_ZN8opendnp318IMasterApplication6OnOpenEv, %function
_ZN8opendnp318IMasterApplication6OnOpenEv:
.LFB946:
	.cfi_startproc
	ret
	.cfi_endproc
.LFE946:
	.size	_ZN8opendnp318IMasterApplication6OnOpenEv, .-_ZN8opendnp318IMasterApplication6OnOpenEv
	.section	.text._ZN8opendnp318IMasterApplication7OnCloseEv,"axG",@progbits,_ZN8opendnp318IMasterApplication7OnCloseEv,comdat
	.align	2
	.p2align 4,,11
	.weak	_ZN8opendnp318IMasterApplication7OnCloseEv
	.type	_ZN8opendnp318IMasterApplication7OnCloseEv, %function
_ZN8opendnp318IMasterApplication7OnCloseEv:
.LFB947:
	.cfi_startproc
	ret
	.cfi_endproc
.LFE947:
	.size	_ZN8opendnp318IMasterApplication7OnCloseEv, .-_ZN8opendnp318IMasterApplication7OnCloseEv
	.section	.text._ZN8asiodnp324DefaultMasterApplication12OnReceiveIINERKN8opendnp38IINFieldE,"axG",@progbits,_ZN8asiodnp324DefaultMasterApplication12OnReceiveIINERKN8opendnp38IINFieldE,comdat
	.align	2
	.p2align 4,,11
	.weak	_ZN8asiodnp324DefaultMasterApplication12OnReceiveIINERKN8opendnp38IINFieldE
	.type	_ZN8asiodnp324DefaultMasterApplication12OnReceiveIINERKN8opendnp38IINFieldE, %function
_ZN8asiodnp324DefaultMasterApplication12OnReceiveIINERKN8opendnp38IINFieldE:
.LFB1813:
	.cfi_startproc
	ret
	.cfi_endproc
.LFE1813:
	.size	_ZN8asiodnp324DefaultMasterApplication12OnReceiveIINERKN8opendnp38IINFieldE, .-_ZN8asiodnp324DefaultMasterApplication12OnReceiveIINERKN8opendnp38IINFieldE
	.section	.text._ZN8asiodnp324DefaultMasterApplication11OnTaskStartEN8opendnp314MasterTaskTypeENS1_6TaskIdE,"axG",@progbits,_ZN8asiodnp324DefaultMasterApplication11OnTaskStartEN8opendnp314MasterTaskTypeENS1_6TaskIdE,comdat
	.align	2
	.p2align 4,,11
	.weak	_ZN8asiodnp324DefaultMasterApplication11OnTaskStartEN8opendnp314MasterTaskTypeENS1_6TaskIdE
	.type	_ZN8asiodnp324DefaultMasterApplication11OnTaskStartEN8opendnp314MasterTaskTypeENS1_6TaskIdE, %function
_ZN8asiodnp324DefaultMasterApplication11OnTaskStartEN8opendnp314MasterTaskTypeENS1_6TaskIdE:
.LFB1814:
	.cfi_startproc
	ret
	.cfi_endproc
.LFE1814:
	.size	_ZN8asiodnp324DefaultMasterApplication11OnTaskStartEN8opendnp314MasterTaskTypeENS1_6TaskIdE, .-_ZN8asiodnp324DefaultMasterApplication11OnTaskStartEN8opendnp314MasterTaskTypeENS1_6TaskIdE
	.section	.text._ZN8asiodnp324DefaultMasterApplication14OnTaskCompleteERKN8opendnp38TaskInfoE,"axG",@progbits,_ZN8asiodnp324DefaultMasterApplication14OnTaskCompleteERKN8opendnp38TaskInfoE,comdat
	.align	2
	.p2align 4,,11
	.weak	_ZN8asiodnp324DefaultMasterApplication14OnTaskCompleteERKN8opendnp38TaskInfoE
	.type	_ZN8asiodnp324DefaultMasterApplication14OnTaskCompleteERKN8opendnp38TaskInfoE, %function
_ZN8asiodnp324DefaultMasterApplication14OnTaskCompleteERKN8opendnp38TaskInfoE:
.LFB1815:
	.cfi_startproc
	ret
	.cfi_endproc
.LFE1815:
	.size	_ZN8asiodnp324DefaultMasterApplication14OnTaskCompleteERKN8opendnp38TaskInfoE, .-_ZN8asiodnp324DefaultMasterApplication14OnTaskCompleteERKN8opendnp38TaskInfoE
	.section	.text._ZN8asiodnp324DefaultMasterApplication24AssignClassDuringStartupEv,"axG",@progbits,_ZN8asiodnp324DefaultMasterApplication24AssignClassDuringStartupEv,comdat
	.align	2
	.p2align 4,,11
	.weak	_ZN8asiodnp324DefaultMasterApplication24AssignClassDuringStartupEv
	.type	_ZN8asiodnp324DefaultMasterApplication24AssignClassDuringStartupEv, %function
_ZN8asiodnp324DefaultMasterApplication24AssignClassDuringStartupEv:
.LFB1816:
	.cfi_startproc
	mov	w0, 0
	ret
	.cfi_endproc
.LFE1816:
	.size	_ZN8asiodnp324DefaultMasterApplication24AssignClassDuringStartupEv, .-_ZN8asiodnp324DefaultMasterApplication24AssignClassDuringStartupEv
	.section	.text._ZN8asiodnp324DefaultMasterApplication27ConfigureAssignClassRequestERKSt8functionIFvRKN8opendnp36HeaderEEE,"axG",@progbits,_ZN8asiodnp324DefaultMasterApplication27ConfigureAssignClassRequestERKSt8functionIFvRKN8opendnp36HeaderEEE,comdat
	.align	2
	.p2align 4,,11
	.weak	_ZN8asiodnp324DefaultMasterApplication27ConfigureAssignClassRequestERKSt8functionIFvRKN8opendnp36HeaderEEE
	.type	_ZN8asiodnp324DefaultMasterApplication27ConfigureAssignClassRequestERKSt8functionIFvRKN8opendnp36HeaderEEE, %function
_ZN8asiodnp324DefaultMasterApplication27ConfigureAssignClassRequestERKSt8functionIFvRKN8opendnp36HeaderEEE:
.LFB1817:
	.cfi_startproc
	ret
	.cfi_endproc
.LFE1817:
	.size	_ZN8asiodnp324DefaultMasterApplication27ConfigureAssignClassRequestERKSt8functionIFvRKN8opendnp36HeaderEEE, .-_ZN8asiodnp324DefaultMasterApplication27ConfigureAssignClassRequestERKSt8functionIFvRKN8opendnp36HeaderEEE
	.section	.text._ZN8asiodnp324DefaultMasterApplication13OnStateChangeEN8opendnp310LinkStatusE,"axG",@progbits,_ZN8asiodnp324DefaultMasterApplication13OnStateChangeEN8opendnp310LinkStatusE,comdat
	.align	2
	.p2align 4,,11
	.weak	_ZN8asiodnp324DefaultMasterApplication13OnStateChangeEN8opendnp310LinkStatusE
	.type	_ZN8asiodnp324DefaultMasterApplication13OnStateChangeEN8opendnp310LinkStatusE, %function
_ZN8asiodnp324DefaultMasterApplication13OnStateChangeEN8opendnp310LinkStatusE:
.LFB1818:
	.cfi_startproc
	ret
	.cfi_endproc
.LFE1818:
	.size	_ZN8asiodnp324DefaultMasterApplication13OnStateChangeEN8opendnp310LinkStatusE, .-_ZN8asiodnp324DefaultMasterApplication13OnStateChangeEN8opendnp310LinkStatusE
	.section	.text._ZN8asiodnp324DefaultMasterApplicationD2Ev,"axG",@progbits,_ZN8asiodnp324DefaultMasterApplicationD5Ev,comdat
	.align	2
	.p2align 4,,11
	.weak	_ZN8asiodnp324DefaultMasterApplicationD2Ev
	.type	_ZN8asiodnp324DefaultMasterApplicationD2Ev, %function
_ZN8asiodnp324DefaultMasterApplicationD2Ev:
.LFB2272:
	.cfi_startproc
	ret
	.cfi_endproc
.LFE2272:
	.size	_ZN8asiodnp324DefaultMasterApplicationD2Ev, .-_ZN8asiodnp324DefaultMasterApplicationD2Ev
	.weak	_ZN8asiodnp324DefaultMasterApplicationD1Ev
	.set	_ZN8asiodnp324DefaultMasterApplicationD1Ev,_ZN8asiodnp324DefaultMasterApplicationD2Ev
	.text
	.align	2
	.p2align 4,,11
	.global	_ZN8asiodnp324DefaultMasterApplication3NowEv
	.type	_ZN8asiodnp324DefaultMasterApplication3NowEv, %function
_ZN8asiodnp324DefaultMasterApplication3NowEv:
.LFB2116:
	.cfi_startproc
	stp	x29, x30, [sp, -16]!
	.cfi_def_cfa_offset 16
	.cfi_offset 29, -16
	.cfi_offset 30, -8
	mov	x29, sp
	bl	_ZNSt6chrono3_V212system_clock3nowEv
	mov	x1, 13531
	movk	x1, 0xd7b6, lsl 16
	movk	x1, 0xde82, lsl 32
	movk	x1, 0x431b, lsl 48
	ldp	x29, x30, [sp], 16
	.cfi_restore 30
	.cfi_restore 29
	.cfi_def_cfa_offset 0
	smulh	x1, x0, x1
	asr	x1, x1, 18
	sub	x0, x1, x0, asr 63
	ret
	.cfi_endproc
.LFE2116:
	.size	_ZN8asiodnp324DefaultMasterApplication3NowEv, .-_ZN8asiodnp324DefaultMasterApplication3NowEv
	.section	.text._ZN8asiodnp324DefaultMasterApplicationD0Ev,"axG",@progbits,_ZN8asiodnp324DefaultMasterApplicationD5Ev,comdat
	.align	2
	.p2align 4,,11
	.weak	_ZN8asiodnp324DefaultMasterApplicationD0Ev
	.type	_ZN8asiodnp324DefaultMasterApplicationD0Ev, %function
_ZN8asiodnp324DefaultMasterApplicationD0Ev:
.LFB2274:
	.cfi_startproc
	mov	x1, 16
	b	_ZdlPvm
	.cfi_endproc
.LFE2274:
	.size	_ZN8asiodnp324DefaultMasterApplicationD0Ev, .-_ZN8asiodnp324DefaultMasterApplicationD0Ev
	.text
	.align	2
	.p2align 4,,11
	.global	_ZThn8_N8asiodnp324DefaultMasterApplication3NowEv
	.type	_ZThn8_N8asiodnp324DefaultMasterApplication3NowEv, %function
_ZThn8_N8asiodnp324DefaultMasterApplication3NowEv:
.LFB2302:
	.cfi_startproc
	stp	x29, x30, [sp, -16]!
	.cfi_def_cfa_offset 16
	.cfi_offset 29, -16
	.cfi_offset 30, -8
	mov	x29, sp
	bl	_ZNSt6chrono3_V212system_clock3nowEv
	mov	x1, 13531
	movk	x1, 0xd7b6, lsl 16
	movk	x1, 0xde82, lsl 32
	movk	x1, 0x431b, lsl 48
	ldp	x29, x30, [sp], 16
	.cfi_restore 30
	.cfi_restore 29
	.cfi_def_cfa_offset 0
	smulh	x1, x0, x1
	asr	x1, x1, 18
	sub	x0, x1, x0, asr 63
	ret
	.cfi_endproc
.LFE2302:
	.size	_ZThn8_N8asiodnp324DefaultMasterApplication3NowEv, .-_ZThn8_N8asiodnp324DefaultMasterApplication3NowEv
	.weak	_ZTSN7openpal14IUTCTimeSourceE
	.section	.rodata._ZTSN7openpal14IUTCTimeSourceE,"aG",@progbits,_ZTSN7openpal14IUTCTimeSourceE,comdat
	.align	3
	.type	_ZTSN7openpal14IUTCTimeSourceE, %object
	.size	_ZTSN7openpal14IUTCTimeSourceE, 27
_ZTSN7openpal14IUTCTimeSourceE:
	.string	"N7openpal14IUTCTimeSourceE"
	.weak	_ZTIN7openpal14IUTCTimeSourceE
	.section	.data.rel.ro._ZTIN7openpal14IUTCTimeSourceE,"awG",@progbits,_ZTIN7openpal14IUTCTimeSourceE,comdat
	.align	3
	.type	_ZTIN7openpal14IUTCTimeSourceE, %object
	.size	_ZTIN7openpal14IUTCTimeSourceE, 16
_ZTIN7openpal14IUTCTimeSourceE:
	.xword	_ZTVN10__cxxabiv117__class_type_infoE+16
	.xword	_ZTSN7openpal14IUTCTimeSourceE
	.weak	_ZTSN8opendnp313ILinkListenerE
	.section	.rodata._ZTSN8opendnp313ILinkListenerE,"aG",@progbits,_ZTSN8opendnp313ILinkListenerE,comdat
	.align	3
	.type	_ZTSN8opendnp313ILinkListenerE, %object
	.size	_ZTSN8opendnp313ILinkListenerE, 27
_ZTSN8opendnp313ILinkListenerE:
	.string	"N8opendnp313ILinkListenerE"
	.weak	_ZTIN8opendnp313ILinkListenerE
	.section	.data.rel.ro._ZTIN8opendnp313ILinkListenerE,"awG",@progbits,_ZTIN8opendnp313ILinkListenerE,comdat
	.align	3
	.type	_ZTIN8opendnp313ILinkListenerE, %object
	.size	_ZTIN8opendnp313ILinkListenerE, 16
_ZTIN8opendnp313ILinkListenerE:
	.xword	_ZTVN10__cxxabiv117__class_type_infoE+16
	.xword	_ZTSN8opendnp313ILinkListenerE
	.weak	_ZTSN8opendnp318IMasterApplicationE
	.section	.rodata._ZTSN8opendnp318IMasterApplicationE,"aG",@progbits,_ZTSN8opendnp318IMasterApplicationE,comdat
	.align	3
	.type	_ZTSN8opendnp318IMasterApplicationE, %object
	.size	_ZTSN8opendnp318IMasterApplicationE, 32
_ZTSN8opendnp318IMasterApplicationE:
	.string	"N8opendnp318IMasterApplicationE"
	.weak	_ZTIN8opendnp318IMasterApplicationE
	.section	.data.rel.ro._ZTIN8opendnp318IMasterApplicationE,"awG",@progbits,_ZTIN8opendnp318IMasterApplicationE,comdat
	.align	3
	.type	_ZTIN8opendnp318IMasterApplicationE, %object
	.size	_ZTIN8opendnp318IMasterApplicationE, 56
_ZTIN8opendnp318IMasterApplicationE:
	.xword	_ZTVN10__cxxabiv121__vmi_class_type_infoE+16
	.xword	_ZTSN8opendnp318IMasterApplicationE
	.word	0
	.word	2
	.xword	_ZTIN8opendnp313ILinkListenerE
	.xword	2
	.xword	_ZTIN7openpal14IUTCTimeSourceE
	.xword	2050
	.weak	_ZTSN8asiodnp324DefaultMasterApplicationE
	.section	.rodata._ZTSN8asiodnp324DefaultMasterApplicationE,"aG",@progbits,_ZTSN8asiodnp324DefaultMasterApplicationE,comdat
	.align	3
	.type	_ZTSN8asiodnp324DefaultMasterApplicationE, %object
	.size	_ZTSN8asiodnp324DefaultMasterApplicationE, 38
_ZTSN8asiodnp324DefaultMasterApplicationE:
	.string	"N8asiodnp324DefaultMasterApplicationE"
	.weak	_ZTIN8asiodnp324DefaultMasterApplicationE
	.section	.data.rel.ro._ZTIN8asiodnp324DefaultMasterApplicationE,"awG",@progbits,_ZTIN8asiodnp324DefaultMasterApplicationE,comdat
	.align	3
	.type	_ZTIN8asiodnp324DefaultMasterApplicationE, %object
	.size	_ZTIN8asiodnp324DefaultMasterApplicationE, 24
_ZTIN8asiodnp324DefaultMasterApplicationE:
	.xword	_ZTVN10__cxxabiv120__si_class_type_infoE+16
	.xword	_ZTSN8asiodnp324DefaultMasterApplicationE
	.xword	_ZTIN8opendnp318IMasterApplicationE
	.weak	_ZTVN8asiodnp324DefaultMasterApplicationE
	.section	.data.rel.ro._ZTVN8asiodnp324DefaultMasterApplicationE,"awG",@progbits,_ZTVN8asiodnp324DefaultMasterApplicationE,comdat
	.align	3
	.type	_ZTVN8asiodnp324DefaultMasterApplicationE, %object
	.size	_ZTVN8asiodnp324DefaultMasterApplicationE, 152
_ZTVN8asiodnp324DefaultMasterApplicationE:
	.xword	0
	.xword	_ZTIN8asiodnp324DefaultMasterApplicationE
	.xword	_ZN8asiodnp324DefaultMasterApplication13OnStateChangeEN8opendnp310LinkStatusE
	.xword	_ZN8opendnp313ILinkListener20OnKeepAliveInitiatedEv
	.xword	_ZN8opendnp313ILinkListener18OnKeepAliveFailureEv
	.xword	_ZN8opendnp313ILinkListener18OnKeepAliveSuccessEv
	.xword	_ZN8asiodnp324DefaultMasterApplicationD1Ev
	.xword	_ZN8asiodnp324DefaultMasterApplicationD0Ev
	.xword	_ZN8asiodnp324DefaultMasterApplication12OnReceiveIINERKN8opendnp38IINFieldE
	.xword	_ZN8asiodnp324DefaultMasterApplication11OnTaskStartEN8opendnp314MasterTaskTypeENS1_6TaskIdE
	.xword	_ZN8asiodnp324DefaultMasterApplication14OnTaskCompleteERKN8opendnp38TaskInfoE
	.xword	_ZN8opendnp318IMasterApplication6OnOpenEv
	.xword	_ZN8opendnp318IMasterApplication7OnCloseEv
	.xword	_ZN8asiodnp324DefaultMasterApplication24AssignClassDuringStartupEv
	.xword	_ZN8asiodnp324DefaultMasterApplication27ConfigureAssignClassRequestERKSt8functionIFvRKN8opendnp36HeaderEEE
	.xword	_ZN8asiodnp324DefaultMasterApplication3NowEv
	.xword	-8
	.xword	_ZTIN8asiodnp324DefaultMasterApplicationE
	.xword	_ZThn8_N8asiodnp324DefaultMasterApplication3NowEv
	.ident	"GCC: (Ubuntu 11.4.0-1ubuntu1~22.04) 11.4.0"
	.section	.note.GNU-stack,"",@progbits
