	.arch armv8-a
	.file	"DefaultListenCallbacks.cpp"
	.text
	.section	.text._ZN8asiodnp322DefaultListenCallbacksD2Ev,"axG",@progbits,_ZN8asiodnp322DefaultListenCallbacksD5Ev,comdat
	.align	2
	.p2align 4,,11
	.weak	_ZN8asiodnp322DefaultListenCallbacksD2Ev
	.type	_ZN8asiodnp322DefaultListenCallbacksD2Ev, %function
_ZN8asiodnp322DefaultListenCallbacksD2Ev:
.LFB3353:
	.cfi_startproc
	ret
	.cfi_endproc
.LFE3353:
	.size	_ZN8asiodnp322DefaultListenCallbacksD2Ev, .-_ZN8asiodnp322DefaultListenCallbacksD2Ev
	.weak	_ZN8asiodnp322DefaultListenCallbacksD1Ev
	.set	_ZN8asiodnp322DefaultListenCallbacksD1Ev,_ZN8asiodnp322DefaultListenCallbacksD2Ev
	.text
	.align	2
	.p2align 4,,11
	.global	_ZN8asiodnp322DefaultListenCallbacks16AcceptConnectionEmRKNSt7__cxx1112basic_stringIcSt11char_traitsIcESaIcEEE
	.type	_ZN8asiodnp322DefaultListenCallbacks16AcceptConnectionEmRKNSt7__cxx1112basic_stringIcSt11char_traitsIcESaIcEEE, %function
_ZN8asiodnp322DefaultListenCallbacks16AcceptConnectionEmRKNSt7__cxx1112basic_stringIcSt11char_traitsIcESaIcEEE:
.LFB3362:
	.cfi_startproc
	mov	w0, 1
	ret
	.cfi_endproc
.LFE3362:
	.size	_ZN8asiodnp322DefaultListenCallbacks16AcceptConnectionEmRKNSt7__cxx1112basic_stringIcSt11char_traitsIcESaIcEEE, .-_ZN8asiodnp322DefaultListenCallbacks16AcceptConnectionEmRKNSt7__cxx1112basic_stringIcSt11char_traitsIcESaIcEEE
	.global	_ZN8asiodnp322DefaultListenCallbacks17AcceptCertificateEmRKNS_8X509InfoE
	.set	_ZN8asiodnp322DefaultListenCallbacks17AcceptCertificateEmRKNS_8X509InfoE,_ZN8asiodnp322DefaultListenCallbacks16AcceptConnectionEmRKNSt7__cxx1112basic_stringIcSt11char_traitsIcESaIcEEE
	.align	2
	.p2align 4,,11
	.global	_ZN8asiodnp322DefaultListenCallbacks17OnConnectionCloseEmRKSt10shared_ptrINS_14IMasterSessionEE
	.type	_ZN8asiodnp322DefaultListenCallbacks17OnConnectionCloseEmRKSt10shared_ptrINS_14IMasterSessionEE, %function
_ZN8asiodnp322DefaultListenCallbacks17OnConnectionCloseEmRKSt10shared_ptrINS_14IMasterSessionEE:
.LFB3372:
	.cfi_startproc
	ret
	.cfi_endproc
.LFE3372:
	.size	_ZN8asiodnp322DefaultListenCallbacks17OnConnectionCloseEmRKSt10shared_ptrINS_14IMasterSessionEE, .-_ZN8asiodnp322DefaultListenCallbacks17OnConnectionCloseEmRKSt10shared_ptrINS_14IMasterSessionEE
	.align	2
	.p2align 4,,11
	.global	_ZN8asiodnp322DefaultListenCallbacks18OnCertificateErrorEmRKNS_8X509InfoEi
	.type	_ZN8asiodnp322DefaultListenCallbacks18OnCertificateErrorEmRKNS_8X509InfoEi, %function
_ZN8asiodnp322DefaultListenCallbacks18OnCertificateErrorEmRKNS_8X509InfoEi:
.LFB3373:
	.cfi_startproc
	ret
	.cfi_endproc
.LFE3373:
	.size	_ZN8asiodnp322DefaultListenCallbacks18OnCertificateErrorEmRKNS_8X509InfoEi, .-_ZN8asiodnp322DefaultListenCallbacks18OnCertificateErrorEmRKNS_8X509InfoEi
	.section	.text._ZNSt23_Sp_counted_ptr_inplaceIN8asiodnp324DefaultMasterApplicationESaIS1_ELN9__gnu_cxx12_Lock_policyE2EED2Ev,"axG",@progbits,_ZNSt23_Sp_counted_ptr_inplaceIN8asiodnp324DefaultMasterApplicationESaIS1_ELN9__gnu_cxx12_Lock_policyE2EED5Ev,comdat
	.align	2
	.p2align 4,,11
	.weak	_ZNSt23_Sp_counted_ptr_inplaceIN8asiodnp324DefaultMasterApplicationESaIS1_ELN9__gnu_cxx12_Lock_policyE2EED2Ev
	.type	_ZNSt23_Sp_counted_ptr_inplaceIN8asiodnp324DefaultMasterApplicationESaIS1_ELN9__gnu_cxx12_Lock_policyE2EED2Ev, %function
_ZNSt23_Sp_counted_ptr_inplaceIN8asiodnp324DefaultMasterApplicationESaIS1_ELN9__gnu_cxx12_Lock_policyE2EED2Ev:
.LFB4259:
	.cfi_startproc
	ret
	.cfi_endproc
.LFE4259:
	.size	_ZNSt23_Sp_counted_ptr_inplaceIN8asiodnp324DefaultMasterApplicationESaIS1_ELN9__gnu_cxx12_Lock_policyE2EED2Ev, .-_ZNSt23_Sp_counted_ptr_inplaceIN8asiodnp324DefaultMasterApplicationESaIS1_ELN9__gnu_cxx12_Lock_policyE2EED2Ev
	.weak	_ZNSt23_Sp_counted_ptr_inplaceIN8asiodnp324DefaultMasterApplicationESaIS1_ELN9__gnu_cxx12_Lock_policyE2EED1Ev
	.set	_ZNSt23_Sp_counted_ptr_inplaceIN8asiodnp324DefaultMasterApplicationESaIS1_ELN9__gnu_cxx12_Lock_policyE2EED1Ev,_ZNSt23_Sp_counted_ptr_inplaceIN8asiodnp324DefaultMasterApplicationESaIS1_ELN9__gnu_cxx12_Lock_policyE2EED2Ev
	.section	.text._ZNSt23_Sp_counted_ptr_inplaceIN8asiodnp324DefaultMasterApplicationESaIS1_ELN9__gnu_cxx12_Lock_policyE2EE10_M_disposeEv,"axG",@progbits,_ZNSt23_Sp_counted_ptr_inplaceIN8asiodnp324DefaultMasterApplicationESaIS1_ELN9__gnu_cxx12_Lock_policyE2EE10_M_disposeEv,comdat
	.align	2
	.p2align 4,,11
	.weak	_ZNSt23_Sp_counted_ptr_inplaceIN8asiodnp324DefaultMasterApplicationESaIS1_ELN9__gnu_cxx12_Lock_policyE2EE10_M_disposeEv
	.type	_ZNSt23_Sp_counted_ptr_inplaceIN8asiodnp324DefaultMasterApplicationESaIS1_ELN9__gnu_cxx12_Lock_policyE2EE10_M_disposeEv, %function
_ZNSt23_Sp_counted_ptr_inplaceIN8asiodnp324DefaultMasterApplicationESaIS1_ELN9__gnu_cxx12_Lock_policyE2EE10_M_disposeEv:
.LFB4262:
	.cfi_startproc
	mov	x1, x0
	add	x0, x0, 16
	ldr	x1, [x1, 16]
	ldr	x1, [x1, 32]
	mov	x16, x1
	br	x16
	.cfi_endproc
.LFE4262:
	.size	_ZNSt23_Sp_counted_ptr_inplaceIN8asiodnp324DefaultMasterApplicationESaIS1_ELN9__gnu_cxx12_Lock_policyE2EE10_M_disposeEv, .-_ZNSt23_Sp_counted_ptr_inplaceIN8asiodnp324DefaultMasterApplicationESaIS1_ELN9__gnu_cxx12_Lock_policyE2EE10_M_disposeEv
	.section	.text._ZNSt23_Sp_counted_ptr_inplaceIN8asiodnp318PrintingSOEHandlerESaIS1_ELN9__gnu_cxx12_Lock_policyE2EED2Ev,"axG",@progbits,_ZNSt23_Sp_counted_ptr_inplaceIN8asiodnp318PrintingSOEHandlerESaIS1_ELN9__gnu_cxx12_Lock_policyE2EED5Ev,comdat
	.align	2
	.p2align 4,,11
	.weak	_ZNSt23_Sp_counted_ptr_inplaceIN8asiodnp318PrintingSOEHandlerESaIS1_ELN9__gnu_cxx12_Lock_policyE2EED2Ev
	.type	_ZNSt23_Sp_counted_ptr_inplaceIN8asiodnp318PrintingSOEHandlerESaIS1_ELN9__gnu_cxx12_Lock_policyE2EED2Ev, %function
_ZNSt23_Sp_counted_ptr_inplaceIN8asiodnp318PrintingSOEHandlerESaIS1_ELN9__gnu_cxx12_Lock_policyE2EED2Ev:
.LFB4266:
	.cfi_startproc
	ret
	.cfi_endproc
.LFE4266:
	.size	_ZNSt23_Sp_counted_ptr_inplaceIN8asiodnp318PrintingSOEHandlerESaIS1_ELN9__gnu_cxx12_Lock_policyE2EED2Ev, .-_ZNSt23_Sp_counted_ptr_inplaceIN8asiodnp318PrintingSOEHandlerESaIS1_ELN9__gnu_cxx12_Lock_policyE2EED2Ev
	.weak	_ZNSt23_Sp_counted_ptr_inplaceIN8asiodnp318PrintingSOEHandlerESaIS1_ELN9__gnu_cxx12_Lock_policyE2EED1Ev
	.set	_ZNSt23_Sp_counted_ptr_inplaceIN8asiodnp318PrintingSOEHandlerESaIS1_ELN9__gnu_cxx12_Lock_policyE2EED1Ev,_ZNSt23_Sp_counted_ptr_inplaceIN8asiodnp318PrintingSOEHandlerESaIS1_ELN9__gnu_cxx12_Lock_policyE2EED2Ev
	.section	.text._ZNSt23_Sp_counted_ptr_inplaceIN8asiodnp318PrintingSOEHandlerESaIS1_ELN9__gnu_cxx12_Lock_policyE2EE10_M_disposeEv,"axG",@progbits,_ZNSt23_Sp_counted_ptr_inplaceIN8asiodnp318PrintingSOEHandlerESaIS1_ELN9__gnu_cxx12_Lock_policyE2EE10_M_disposeEv,comdat
	.align	2
	.p2align 4,,11
	.weak	_ZNSt23_Sp_counted_ptr_inplaceIN8asiodnp318PrintingSOEHandlerESaIS1_ELN9__gnu_cxx12_Lock_policyE2EE10_M_disposeEv
	.type	_ZNSt23_Sp_counted_ptr_inplaceIN8asiodnp318PrintingSOEHandlerESaIS1_ELN9__gnu_cxx12_Lock_policyE2EE10_M_disposeEv, %function
_ZNSt23_Sp_counted_ptr_inplaceIN8asiodnp318PrintingSOEHandlerESaIS1_ELN9__gnu_cxx12_Lock_policyE2EE10_M_disposeEv:
.LFB4269:
	.cfi_startproc
	ret
	.cfi_endproc
.LFE4269:
	.size	_ZNSt23_Sp_counted_ptr_inplaceIN8asiodnp318PrintingSOEHandlerESaIS1_ELN9__gnu_cxx12_Lock_policyE2EE10_M_disposeEv, .-_ZNSt23_Sp_counted_ptr_inplaceIN8asiodnp318PrintingSOEHandlerESaIS1_ELN9__gnu_cxx12_Lock_policyE2EE10_M_disposeEv
	.text
	.align	2
	.p2align 4,,11
	.global	_ZN8asiodnp322DefaultListenCallbacks20GetFirstFrameTimeoutEv
	.type	_ZN8asiodnp322DefaultListenCallbacks20GetFirstFrameTimeoutEv, %function
_ZN8asiodnp322DefaultListenCallbacks20GetFirstFrameTimeoutEv:
.LFB3364:
	.cfi_startproc
	mov	x0, 30
	b	_ZN7openpal12TimeDuration7SecondsEl
	.cfi_endproc
.LFE3364:
	.size	_ZN8asiodnp322DefaultListenCallbacks20GetFirstFrameTimeoutEv, .-_ZN8asiodnp322DefaultListenCallbacks20GetFirstFrameTimeoutEv
	.section	.text._ZNSt23_Sp_counted_ptr_inplaceIN8asiodnp318PrintingSOEHandlerESaIS1_ELN9__gnu_cxx12_Lock_policyE2EE14_M_get_deleterERKSt9type_info,"axG",@progbits,_ZNSt23_Sp_counted_ptr_inplaceIN8asiodnp318PrintingSOEHandlerESaIS1_ELN9__gnu_cxx12_Lock_policyE2EE14_M_get_deleterERKSt9type_info,comdat
	.align	2
	.p2align 4,,11
	.weak	_ZNSt23_Sp_counted_ptr_inplaceIN8asiodnp318PrintingSOEHandlerESaIS1_ELN9__gnu_cxx12_Lock_policyE2EE14_M_get_deleterERKSt9type_info
	.type	_ZNSt23_Sp_counted_ptr_inplaceIN8asiodnp318PrintingSOEHandlerESaIS1_ELN9__gnu_cxx12_Lock_policyE2EE14_M_get_deleterERKSt9type_info, %function
_ZNSt23_Sp_counted_ptr_inplaceIN8asiodnp318PrintingSOEHandlerESaIS1_ELN9__gnu_cxx12_Lock_policyE2EE14_M_get_deleterERKSt9type_info:
.LFB4271:
	.cfi_startproc
	stp	x29, x30, [sp, -32]!
	.cfi_def_cfa_offset 32
	.cfi_offset 29, -32
	.cfi_offset 30, -24
	adrp	x2, :got:_ZZNSt19_Sp_make_shared_tag5_S_tiEvE5__tag
	mov	x29, sp
	ldr	x2, [x2, #:got_lo12:_ZZNSt19_Sp_make_shared_tag5_S_tiEvE5__tag]
	str	x19, [sp, 16]
	.cfi_offset 19, -16
	add	x19, x0, 16
	cmp	x1, x2
	beq	.L11
	adrp	x2, :got:_ZTSSt19_Sp_make_shared_tag
	ldr	x0, [x1, 8]
	ldr	x1, [x2, #:got_lo12:_ZTSSt19_Sp_make_shared_tag]
	cmp	x0, x1
	beq	.L11
	ldrb	w2, [x0]
	cmp	w2, 42
	beq	.L13
	bl	strcmp
	cmp	w0, 0
	csel	x19, x19, xzr, eq
.L11:
	mov	x0, x19
	ldr	x19, [sp, 16]
	ldp	x29, x30, [sp], 32
	.cfi_remember_state
	.cfi_restore 30
	.cfi_restore 29
	.cfi_restore 19
	.cfi_def_cfa_offset 0
	ret
	.p2align 2,,3
.L13:
	.cfi_restore_state
	mov	x19, 0
	mov	x0, x19
	ldr	x19, [sp, 16]
	ldp	x29, x30, [sp], 32
	.cfi_restore 30
	.cfi_restore 29
	.cfi_restore 19
	.cfi_def_cfa_offset 0
	ret
	.cfi_endproc
.LFE4271:
	.size	_ZNSt23_Sp_counted_ptr_inplaceIN8asiodnp318PrintingSOEHandlerESaIS1_ELN9__gnu_cxx12_Lock_policyE2EE14_M_get_deleterERKSt9type_info, .-_ZNSt23_Sp_counted_ptr_inplaceIN8asiodnp318PrintingSOEHandlerESaIS1_ELN9__gnu_cxx12_Lock_policyE2EE14_M_get_deleterERKSt9type_info
	.section	.text._ZN8asiodnp322DefaultListenCallbacksD0Ev,"axG",@progbits,_ZN8asiodnp322DefaultListenCallbacksD5Ev,comdat
	.align	2
	.p2align 4,,11
	.weak	_ZN8asiodnp322DefaultListenCallbacksD0Ev
	.type	_ZN8asiodnp322DefaultListenCallbacksD0Ev, %function
_ZN8asiodnp322DefaultListenCallbacksD0Ev:
.LFB3355:
	.cfi_startproc
	mov	x1, 8
	b	_ZdlPvm
	.cfi_endproc
.LFE3355:
	.size	_ZN8asiodnp322DefaultListenCallbacksD0Ev, .-_ZN8asiodnp322DefaultListenCallbacksD0Ev
	.section	.text._ZNSt23_Sp_counted_ptr_inplaceIN8asiodnp318PrintingSOEHandlerESaIS1_ELN9__gnu_cxx12_Lock_policyE2EED0Ev,"axG",@progbits,_ZNSt23_Sp_counted_ptr_inplaceIN8asiodnp318PrintingSOEHandlerESaIS1_ELN9__gnu_cxx12_Lock_policyE2EED5Ev,comdat
	.align	2
	.p2align 4,,11
	.weak	_ZNSt23_Sp_counted_ptr_inplaceIN8asiodnp318PrintingSOEHandlerESaIS1_ELN9__gnu_cxx12_Lock_policyE2EED0Ev
	.type	_ZNSt23_Sp_counted_ptr_inplaceIN8asiodnp318PrintingSOEHandlerESaIS1_ELN9__gnu_cxx12_Lock_policyE2EED0Ev, %function
_ZNSt23_Sp_counted_ptr_inplaceIN8asiodnp318PrintingSOEHandlerESaIS1_ELN9__gnu_cxx12_Lock_policyE2EED0Ev:
.LFB4268:
	.cfi_startproc
	mov	x1, 24
	b	_ZdlPvm
	.cfi_endproc
.LFE4268:
	.size	_ZNSt23_Sp_counted_ptr_inplaceIN8asiodnp318PrintingSOEHandlerESaIS1_ELN9__gnu_cxx12_Lock_policyE2EED0Ev, .-_ZNSt23_Sp_counted_ptr_inplaceIN8asiodnp318PrintingSOEHandlerESaIS1_ELN9__gnu_cxx12_Lock_policyE2EED0Ev
	.section	.text._ZNSt23_Sp_counted_ptr_inplaceIN8asiodnp324DefaultMasterApplicationESaIS1_ELN9__gnu_cxx12_Lock_policyE2EED0Ev,"axG",@progbits,_ZNSt23_Sp_counted_ptr_inplaceIN8asiodnp324DefaultMasterApplicationESaIS1_ELN9__gnu_cxx12_Lock_policyE2EED5Ev,comdat
	.align	2
	.p2align 4,,11
	.weak	_ZNSt23_Sp_counted_ptr_inplaceIN8asiodnp324DefaultMasterApplicationESaIS1_ELN9__gnu_cxx12_Lock_policyE2EED0Ev
	.type	_ZNSt23_Sp_counted_ptr_inplaceIN8asiodnp324DefaultMasterApplicationESaIS1_ELN9__gnu_cxx12_Lock_policyE2EED0Ev, %function
_ZNSt23_Sp_counted_ptr_inplaceIN8asiodnp324DefaultMasterApplicationESaIS1_ELN9__gnu_cxx12_Lock_policyE2EED0Ev:
.LFB4261:
	.cfi_startproc
	mov	x1, 32
	b	_ZdlPvm
	.cfi_endproc
.LFE4261:
	.size	_ZNSt23_Sp_counted_ptr_inplaceIN8asiodnp324DefaultMasterApplicationESaIS1_ELN9__gnu_cxx12_Lock_policyE2EED0Ev, .-_ZNSt23_Sp_counted_ptr_inplaceIN8asiodnp324DefaultMasterApplicationESaIS1_ELN9__gnu_cxx12_Lock_policyE2EED0Ev
	.section	.text._ZNSt23_Sp_counted_ptr_inplaceIN8asiodnp324DefaultMasterApplicationESaIS1_ELN9__gnu_cxx12_Lock_policyE2EE10_M_destroyEv,"axG",@progbits,_ZNSt23_Sp_counted_ptr_inplaceIN8asiodnp324DefaultMasterApplicationESaIS1_ELN9__gnu_cxx12_Lock_policyE2EE10_M_destroyEv,comdat
	.align	2
	.p2align 4,,11
	.weak	_ZNSt23_Sp_counted_ptr_inplaceIN8asiodnp324DefaultMasterApplicationESaIS1_ELN9__gnu_cxx12_Lock_policyE2EE10_M_destroyEv
	.type	_ZNSt23_Sp_counted_ptr_inplaceIN8asiodnp324DefaultMasterApplicationESaIS1_ELN9__gnu_cxx12_Lock_policyE2EE10_M_destroyEv, %function
_ZNSt23_Sp_counted_ptr_inplaceIN8asiodnp324DefaultMasterApplicationESaIS1_ELN9__gnu_cxx12_Lock_policyE2EE10_M_destroyEv:
.LFB4263:
	.cfi_startproc
	mov	x1, 32
	b	_ZdlPvm
	.cfi_endproc
.LFE4263:
	.size	_ZNSt23_Sp_counted_ptr_inplaceIN8asiodnp324DefaultMasterApplicationESaIS1_ELN9__gnu_cxx12_Lock_policyE2EE10_M_destroyEv, .-_ZNSt23_Sp_counted_ptr_inplaceIN8asiodnp324DefaultMasterApplicationESaIS1_ELN9__gnu_cxx12_Lock_policyE2EE10_M_destroyEv
	.section	.text._ZNSt23_Sp_counted_ptr_inplaceIN8asiodnp318PrintingSOEHandlerESaIS1_ELN9__gnu_cxx12_Lock_policyE2EE10_M_destroyEv,"axG",@progbits,_ZNSt23_Sp_counted_ptr_inplaceIN8asiodnp318PrintingSOEHandlerESaIS1_ELN9__gnu_cxx12_Lock_policyE2EE10_M_destroyEv,comdat
	.align	2
	.p2align 4,,11
	.weak	_ZNSt23_Sp_counted_ptr_inplaceIN8asiodnp318PrintingSOEHandlerESaIS1_ELN9__gnu_cxx12_Lock_policyE2EE10_M_destroyEv
	.type	_ZNSt23_Sp_counted_ptr_inplaceIN8asiodnp318PrintingSOEHandlerESaIS1_ELN9__gnu_cxx12_Lock_policyE2EE10_M_destroyEv, %function
_ZNSt23_Sp_counted_ptr_inplaceIN8asiodnp318PrintingSOEHandlerESaIS1_ELN9__gnu_cxx12_Lock_policyE2EE10_M_destroyEv:
.LFB4270:
	.cfi_startproc
	mov	x1, 24
	b	_ZdlPvm
	.cfi_endproc
.LFE4270:
	.size	_ZNSt23_Sp_counted_ptr_inplaceIN8asiodnp318PrintingSOEHandlerESaIS1_ELN9__gnu_cxx12_Lock_policyE2EE10_M_destroyEv, .-_ZNSt23_Sp_counted_ptr_inplaceIN8asiodnp318PrintingSOEHandlerESaIS1_ELN9__gnu_cxx12_Lock_policyE2EE10_M_destroyEv
	.section	.text._ZNSt23_Sp_counted_ptr_inplaceIN8asiodnp324DefaultMasterApplicationESaIS1_ELN9__gnu_cxx12_Lock_policyE2EE14_M_get_deleterERKSt9type_info,"axG",@progbits,_ZNSt23_Sp_counted_ptr_inplaceIN8asiodnp324DefaultMasterApplicationESaIS1_ELN9__gnu_cxx12_Lock_policyE2EE14_M_get_deleterERKSt9type_info,comdat
	.align	2
	.p2align 4,,11
	.weak	_ZNSt23_Sp_counted_ptr_inplaceIN8asiodnp324DefaultMasterApplicationESaIS1_ELN9__gnu_cxx12_Lock_policyE2EE14_M_get_deleterERKSt9type_info
	.type	_ZNSt23_Sp_counted_ptr_inplaceIN8asiodnp324DefaultMasterApplicationESaIS1_ELN9__gnu_cxx12_Lock_policyE2EE14_M_get_deleterERKSt9type_info, %function
_ZNSt23_Sp_counted_ptr_inplaceIN8asiodnp324DefaultMasterApplicationESaIS1_ELN9__gnu_cxx12_Lock_policyE2EE14_M_get_deleterERKSt9type_info:
.LFB4264:
	.cfi_startproc
	stp	x29, x30, [sp, -32]!
	.cfi_def_cfa_offset 32
	.cfi_offset 29, -32
	.cfi_offset 30, -24
	adrp	x2, :got:_ZZNSt19_Sp_make_shared_tag5_S_tiEvE5__tag
	mov	x29, sp
	ldr	x2, [x2, #:got_lo12:_ZZNSt19_Sp_make_shared_tag5_S_tiEvE5__tag]
	str	x19, [sp, 16]
	.cfi_offset 19, -16
	add	x19, x0, 16
	cmp	x1, x2
	beq	.L21
	adrp	x2, :got:_ZTSSt19_Sp_make_shared_tag
	ldr	x0, [x1, 8]
	ldr	x1, [x2, #:got_lo12:_ZTSSt19_Sp_make_shared_tag]
	cmp	x0, x1
	beq	.L21
	ldrb	w2, [x0]
	cmp	w2, 42
	beq	.L23
	bl	strcmp
	cmp	w0, 0
	csel	x19, x19, xzr, eq
.L21:
	mov	x0, x19
	ldr	x19, [sp, 16]
	ldp	x29, x30, [sp], 32
	.cfi_remember_state
	.cfi_restore 30
	.cfi_restore 29
	.cfi_restore 19
	.cfi_def_cfa_offset 0
	ret
	.p2align 2,,3
.L23:
	.cfi_restore_state
	mov	x19, 0
	mov	x0, x19
	ldr	x19, [sp, 16]
	ldp	x29, x30, [sp], 32
	.cfi_restore 30
	.cfi_restore 29
	.cfi_restore 19
	.cfi_def_cfa_offset 0
	ret
	.cfi_endproc
.LFE4264:
	.size	_ZNSt23_Sp_counted_ptr_inplaceIN8asiodnp324DefaultMasterApplicationESaIS1_ELN9__gnu_cxx12_Lock_policyE2EE14_M_get_deleterERKSt9type_info, .-_ZNSt23_Sp_counted_ptr_inplaceIN8asiodnp324DefaultMasterApplicationESaIS1_ELN9__gnu_cxx12_Lock_policyE2EE14_M_get_deleterERKSt9type_info
	.text
	.align	2
	.p2align 4,,11
	.global	_ZN8asiodnp322DefaultListenCallbacksC2Ev
	.type	_ZN8asiodnp322DefaultListenCallbacksC2Ev, %function
_ZN8asiodnp322DefaultListenCallbacksC2Ev:
.LFB3360:
	.cfi_startproc
	adrp	x1, :got:_ZTVN8asiodnp322DefaultListenCallbacksE
	ldr	x1, [x1, #:got_lo12:_ZTVN8asiodnp322DefaultListenCallbacksE]
	add	x1, x1, 16
	str	x1, [x0]
	ret
	.cfi_endproc
.LFE3360:
	.size	_ZN8asiodnp322DefaultListenCallbacksC2Ev, .-_ZN8asiodnp322DefaultListenCallbacksC2Ev
	.global	_ZN8asiodnp322DefaultListenCallbacksC1Ev
	.set	_ZN8asiodnp322DefaultListenCallbacksC1Ev,_ZN8asiodnp322DefaultListenCallbacksC2Ev
	.section	.rodata.str1.8,"aMS",@progbits,1
	.align	3
.LC0:
	.string	"session-"
	.text
	.align	2
	.p2align 4,,11
	.global	_ZN8asiodnp322DefaultListenCallbacks17SessionIdToStringB5cxx11Em
	.type	_ZN8asiodnp322DefaultListenCallbacks17SessionIdToStringB5cxx11Em, %function
_ZN8asiodnp322DefaultListenCallbacks17SessionIdToStringB5cxx11Em:
.LFB3374:
	.cfi_startproc
	.cfi_personality 0x9b,DW.ref.__gxx_personality_v0
	.cfi_lsda 0x1b,.LLSDA3374
	stp	x29, x30, [sp, -496]!
	.cfi_def_cfa_offset 496
	.cfi_offset 29, -496
	.cfi_offset 30, -488
	adrp	x0, :got:__stack_chk_guard
	mov	x29, sp
	ldr	x2, [x0, #:got_lo12:__stack_chk_guard]
	stp	x19, x20, [sp, 16]
	.cfi_offset 19, -480
	.cfi_offset 20, -472
	mov	x19, x8
	stp	x21, x22, [sp, 32]
	adrp	x20, :got:_ZTVSt9basic_iosIcSt11char_traitsIcEE
	stp	x23, x24, [sp, 48]
	.cfi_offset 21, -464
	.cfi_offset 22, -456
	.cfi_offset 23, -448
	.cfi_offset 24, -440
	add	x23, sp, 112
	stp	x25, x26, [sp, 64]
	.cfi_offset 25, -432
	.cfi_offset 26, -424
	mov	x26, x1
	add	x25, sp, 224
	stp	x27, x28, [sp, 80]
	.cfi_offset 27, -416
	.cfi_offset 28, -408
	mov	x0, x25
	ldr	x1, [x2]
	str	x1, [sp, 488]
	mov	x1, 0
	bl	_ZNSt8ios_baseC2Ev
	strh	wzr, [sp, 448]
	adrp	x0, :got:_ZTTNSt7__cxx1119basic_ostringstreamIcSt11char_traitsIcESaIcEEE
	add	x1, sp, 528
	movi	v0.4s, 0
	add	x3, sp, 528
	ldr	x0, [x0, #:got_lo12:_ZTTNSt7__cxx1119basic_ostringstreamIcSt11char_traitsIcESaIcEEE]
	ldr	x2, [x20, #:got_lo12:_ZTVSt9basic_iosIcSt11char_traitsIcEE]
	str	q0, [x1, -72]
	mov	x1, 0
	ldp	x24, x0, [x0, 8]
	add	x2, x2, 16
	str	q0, [x3, -56]
	ldr	x3, [x24, -24]
	str	x2, [sp, 224]
	mov	x2, x0
	str	x24, [sp, 112]
	str	xzr, [sp, 440]
	add	x0, x23, x3
	str	x2, [x23, x3]
	str	x2, [sp, 104]
.LEHB0:
	bl	_ZNSt9basic_iosIcSt11char_traitsIcEE4initEPSt15basic_streambufIcS1_E
.LEHE0:
	adrp	x21, :got:_ZTVSt15basic_streambufIcSt11char_traitsIcEE
	adrp	x0, :got:_ZTVNSt7__cxx1119basic_ostringstreamIcSt11char_traitsIcESaIcEEE
	movi	v0.4s, 0
	add	x27, sp, 176
	ldr	x0, [x0, #:got_lo12:_ZTVNSt7__cxx1119basic_ostringstreamIcSt11char_traitsIcESaIcEEE]
	adrp	x22, :got:_ZTVNSt7__cxx1115basic_stringbufIcSt11char_traitsIcESaIcEEE
	ldr	x2, [x21, #:got_lo12:_ZTVSt15basic_streambufIcSt11char_traitsIcEE]
	add	x3, x0, 24
	add	x1, x0, 64
	mov	x0, x27
	add	x2, x2, 16
	stp	x3, x2, [sp, 112]
	add	x28, sp, 208
	stp	q0, q0, [sp, 128]
	str	q0, [sp, 160]
	str	x1, [sp, 224]
	bl	_ZNSt6localeC1Ev
	ldr	x2, [x22, #:got_lo12:_ZTVNSt7__cxx1115basic_stringbufIcSt11char_traitsIcESaIcEEE]
	mov	w3, 16
	add	x1, sp, 120
	mov	x0, x25
	add	x2, x2, 16
	str	x2, [sp, 120]
	str	w3, [sp, 184]
	stp	x28, xzr, [sp, 192]
	strb	wzr, [sp, 208]
.LEHB1:
	bl	_ZNSt9basic_iosIcSt11char_traitsIcEE4initEPSt15basic_streambufIcS1_E
.LEHE1:
	adrp	x1, .LC0
	mov	x0, x23
	add	x1, x1, :lo12:.LC0
	mov	x2, 8
.LEHB2:
	bl	_ZSt16__ostream_insertIcSt11char_traitsIcEERSt13basic_ostreamIT_T0_ES6_PKS3_l
	mov	x1, x26
	mov	x0, x23
	bl	_ZNSo9_M_insertImEERSoT_
.LEHE2:
	ldr	x5, [sp, 160]
	add	x26, x19, 16
	stp	x26, xzr, [x19]
	strb	wzr, [x19, 16]
	cbz	x5, .L32
	ldp	x4, x3, [sp, 144]
	mov	x0, x19
	mov	x2, 0
	mov	x1, 0
	cmp	x4, 0
	ccmp	x5, x4, 2, ne
	csel	x4, x5, x4, hi
	sub	x4, x4, x3
.LEHB3:
	bl	_ZNSt7__cxx1112basic_stringIcSt11char_traitsIcESaIcEE10_M_replaceEmmPKcm
.L36:
	adrp	x0, :got:_ZTVNSt7__cxx1119basic_ostringstreamIcSt11char_traitsIcESaIcEEE
	ldr	x22, [x22, #:got_lo12:_ZTVNSt7__cxx1115basic_stringbufIcSt11char_traitsIcESaIcEEE]
	ldr	x1, [x0, #:got_lo12:_ZTVNSt7__cxx1119basic_ostringstreamIcSt11char_traitsIcESaIcEEE]
	add	x22, x22, 16
	ldr	x0, [sp, 192]
	add	x2, x1, 24
	add	x1, x1, 64
	stp	x2, x22, [sp, 112]
	str	x1, [sp, 224]
	cmp	x0, x28
	beq	.L35
	ldr	x1, [sp, 208]
	add	x1, x1, 1
	bl	_ZdlPvm
.L35:
	ldr	x21, [x21, #:got_lo12:_ZTVSt15basic_streambufIcSt11char_traitsIcEE]
	mov	x0, x27
	add	x21, x21, 16
	str	x21, [sp, 120]
	bl	_ZNSt6localeD1Ev
	ldr	x1, [x24, -24]
	str	x24, [sp, 112]
	ldr	x2, [sp, 104]
	mov	x0, x25
	ldr	x20, [x20, #:got_lo12:_ZTVSt9basic_iosIcSt11char_traitsIcEE]
	str	x2, [x23, x1]
	add	x20, x20, 16
	str	x20, [sp, 224]
	bl	_ZNSt8ios_baseD2Ev
	adrp	x0, :got:__stack_chk_guard
	ldr	x0, [x0, #:got_lo12:__stack_chk_guard]
	ldr	x2, [sp, 488]
	ldr	x1, [x0]
	subs	x2, x2, x1
	mov	x1, 0
	bne	.L50
	mov	x0, x19
	ldp	x19, x20, [sp, 16]
	ldp	x21, x22, [sp, 32]
	ldp	x23, x24, [sp, 48]
	ldp	x25, x26, [sp, 64]
	ldp	x27, x28, [sp, 80]
	ldp	x29, x30, [sp], 496
	.cfi_remember_state
	.cfi_restore 30
	.cfi_restore 29
	.cfi_restore 27
	.cfi_restore 28
	.cfi_restore 25
	.cfi_restore 26
	.cfi_restore 23
	.cfi_restore 24
	.cfi_restore 21
	.cfi_restore 22
	.cfi_restore 19
	.cfi_restore 20
	.cfi_def_cfa_offset 0
	ret
	.p2align 2,,3
.L32:
	.cfi_restore_state
	add	x1, sp, 192
	mov	x0, x19
	bl	_ZNSt7__cxx1112basic_stringIcSt11char_traitsIcESaIcEE9_M_assignERKS4_
.LEHE3:
	b	.L36
.L50:
	bl	__stack_chk_fail
.L41:
	mov	x20, x0
.L39:
	mov	x0, x23
	bl	_ZNSt7__cxx1119basic_ostringstreamIcSt11char_traitsIcESaIcEED1Ev
	mov	x0, x20
.LEHB4:
	bl	_Unwind_Resume
.L44:
	ldr	x2, [x19]
	mov	x20, x0
	cmp	x26, x2
	beq	.L39
	ldr	x1, [x19, 16]
	mov	x0, x2
	add	x1, x1, 1
	bl	_ZdlPvm
	b	.L39
.L43:
	ldr	x22, [x22, #:got_lo12:_ZTVNSt7__cxx1115basic_stringbufIcSt11char_traitsIcESaIcEEE]
	mov	x19, x0
	ldr	x0, [sp, 192]
	add	x22, x22, 16
	str	x22, [sp, 120]
	cmp	x0, x28
	beq	.L30
	ldr	x1, [sp, 208]
	add	x1, x1, 1
	bl	_ZdlPvm
.L30:
	ldr	x1, [x21, #:got_lo12:_ZTVSt15basic_streambufIcSt11char_traitsIcEE]
	mov	x0, x27
	add	x1, x1, 16
	str	x1, [sp, 120]
	bl	_ZNSt6localeD1Ev
	ldr	x0, [x24, -24]
	str	x24, [sp, 112]
	ldr	x1, [sp, 104]
	str	x1, [x23, x0]
.L31:
	ldr	x1, [x20, #:got_lo12:_ZTVSt9basic_iosIcSt11char_traitsIcEE]
	mov	x0, x25
	add	x1, x1, 16
	str	x1, [sp, 224]
	bl	_ZNSt8ios_baseD2Ev
	mov	x0, x19
	bl	_Unwind_Resume
.LEHE4:
.L42:
	mov	x19, x0
	b	.L31
	.cfi_endproc
.LFE3374:
	.global	__gxx_personality_v0
	.section	.gcc_except_table,"a",@progbits
.LLSDA3374:
	.byte	0xff
	.byte	0xff
	.byte	0x1
	.uleb128 .LLSDACSE3374-.LLSDACSB3374
.LLSDACSB3374:
	.uleb128 .LEHB0-.LFB3374
	.uleb128 .LEHE0-.LEHB0
	.uleb128 .L42-.LFB3374
	.uleb128 0
	.uleb128 .LEHB1-.LFB3374
	.uleb128 .LEHE1-.LEHB1
	.uleb128 .L43-.LFB3374
	.uleb128 0
	.uleb128 .LEHB2-.LFB3374
	.uleb128 .LEHE2-.LEHB2
	.uleb128 .L41-.LFB3374
	.uleb128 0
	.uleb128 .LEHB3-.LFB3374
	.uleb128 .LEHE3-.LEHB3
	.uleb128 .L44-.LFB3374
	.uleb128 0
	.uleb128 .LEHB4-.LFB3374
	.uleb128 .LEHE4-.LEHB4
	.uleb128 0
	.uleb128 0
.LLSDACSE3374:
	.text
	.size	_ZN8asiodnp322DefaultListenCallbacks17SessionIdToStringB5cxx11Em, .-_ZN8asiodnp322DefaultListenCallbacks17SessionIdToStringB5cxx11Em
	.global	__aarch64_ldadd4_acq_rel
	.section	.text._ZNSt16_Sp_counted_baseILN9__gnu_cxx12_Lock_policyE2EE10_M_releaseEv,"axG",@progbits,_ZNSt16_Sp_counted_baseILN9__gnu_cxx12_Lock_policyE2EE10_M_releaseEv,comdat
	.align	2
	.p2align 4,,11
	.weak	_ZNSt16_Sp_counted_baseILN9__gnu_cxx12_Lock_policyE2EE10_M_releaseEv
	.type	_ZNSt16_Sp_counted_baseILN9__gnu_cxx12_Lock_policyE2EE10_M_releaseEv, %function
_ZNSt16_Sp_counted_baseILN9__gnu_cxx12_Lock_policyE2EE10_M_releaseEv:
.LFB3837:
	.cfi_startproc
	stp	x29, x30, [sp, -32]!
	.cfi_def_cfa_offset 32
	.cfi_offset 29, -32
	.cfi_offset 30, -24
	mov	x29, sp
	stp	x19, x20, [sp, 16]
	.cfi_offset 19, -16
	.cfi_offset 20, -8
	adrp	x20, :got:__libc_single_threaded
	mov	x19, x0
	ldr	x0, [x20, #:got_lo12:__libc_single_threaded]
	ldrb	w0, [x0]
	cbz	w0, .L52
	ldr	w0, [x19, 8]
	sub	w1, w0, #1
	str	w1, [x19, 8]
.L53:
	cmp	w0, 1
	beq	.L60
.L51:
	ldp	x19, x20, [sp, 16]
	ldp	x29, x30, [sp], 32
	.cfi_remember_state
	.cfi_restore 30
	.cfi_restore 29
	.cfi_restore 19
	.cfi_restore 20
	.cfi_def_cfa_offset 0
	ret
	.p2align 2,,3
.L60:
	.cfi_restore_state
	ldr	x1, [x19]
	mov	x0, x19
	ldr	x1, [x1, 16]
	blr	x1
	ldr	x20, [x20, #:got_lo12:__libc_single_threaded]
	ldrb	w0, [x20]
	cbz	w0, .L56
	ldr	w0, [x19, 12]
	sub	w1, w0, #1
	str	w1, [x19, 12]
.L57:
	cmp	w0, 1
	bne	.L51
	ldr	x1, [x19]
	mov	x0, x19
	ldp	x19, x20, [sp, 16]
	ldp	x29, x30, [sp], 32
	.cfi_remember_state
	.cfi_restore 30
	.cfi_restore 29
	.cfi_restore 19
	.cfi_restore 20
	.cfi_def_cfa_offset 0
	ldr	x1, [x1, 24]
	mov	x16, x1
	br	x16
	.p2align 2,,3
.L52:
	.cfi_restore_state
	add	x1, x19, 8
	mov	w0, -1
	bl	__aarch64_ldadd4_acq_rel
	b	.L53
	.p2align 2,,3
.L56:
	add	x1, x19, 12
	mov	w0, -1
	bl	__aarch64_ldadd4_acq_rel
	b	.L57
	.cfi_endproc
.LFE3837:
	.size	_ZNSt16_Sp_counted_baseILN9__gnu_cxx12_Lock_policyE2EE10_M_releaseEv, .-_ZNSt16_Sp_counted_baseILN9__gnu_cxx12_Lock_policyE2EE10_M_releaseEv
	.text
	.align	2
	.p2align 4,,11
	.global	_ZN8asiodnp322DefaultListenCallbacks12OnFirstFrameEmRKN8opendnp316LinkHeaderFieldsERNS_16ISessionAcceptorE
	.type	_ZN8asiodnp322DefaultListenCallbacks12OnFirstFrameEmRKN8opendnp316LinkHeaderFieldsERNS_16ISessionAcceptorE, %function
_ZN8asiodnp322DefaultListenCallbacks12OnFirstFrameEmRKN8opendnp316LinkHeaderFieldsERNS_16ISessionAcceptorE:
.LFB3365:
	.cfi_startproc
	.cfi_personality 0x9b,DW.ref.__gxx_personality_v0
	.cfi_lsda 0x1b,.LLSDA3365
	stp	x29, x30, [sp, -256]!
	.cfi_def_cfa_offset 256
	.cfi_offset 29, -256
	.cfi_offset 30, -248
	adrp	x4, :got:__stack_chk_guard
	mov	x29, sp
	ldr	x4, [x4, #:got_lo12:__stack_chk_guard]
	stp	x19, x20, [sp, 16]
	.cfi_offset 19, -240
	.cfi_offset 20, -232
	mov	x19, x2
	stp	x21, x22, [sp, 32]
	.cfi_offset 21, -224
	.cfi_offset 22, -216
	mov	x21, x3
	mov	x20, 1
	stp	x23, x24, [sp, 48]
	.cfi_offset 23, -208
	.cfi_offset 24, -200
	mov	x23, x0
	stp	x25, x26, [sp, 64]
	stp	x27, x28, [sp, 80]
	.cfi_offset 25, -192
	.cfi_offset 26, -184
	.cfi_offset 27, -176
	.cfi_offset 28, -168
	mov	x27, x1
	ldr	x0, [x4]
	str	x0, [sp, 248]
	mov	x0, 0
	mov	x0, 5
.LEHB5:
	bl	_ZN7openpal12TimeDuration7SecondsEl
	mov	w1, 256
	str	x0, [sp, 144]
	strh	w1, [sp, 152]
	strb	wzr, [sp, 154]
	bl	_ZN8opendnp310ClassField15AllEventClassesEv
	strb	w0, [sp, 155]
	bl	_ZN8opendnp310ClassField10AllClassesEv
	mov	w1, 1
	strb	w0, [sp, 156]
	strb	w1, [sp, 157]
	bl	_ZN8opendnp310ClassField4NoneEv
	strb	w0, [sp, 158]
	mov	x0, 5
	bl	_ZN7openpal12TimeDuration7SecondsEl
	str	x0, [sp, 160]
	mov	x0, 10
	bl	_ZN7openpal12TimeDuration7SecondsEl
	str	x0, [sp, 168]
	movi	v0.2s, 0x8, lsl 8
	mov	x1, 1
	movk	x1, 0x400, lsl 16
	mov	x0, x20
	stp	x20, x1, [sp, 184]
	str	d0, [sp, 176]
	bl	_ZN7openpal12TimeDuration7SecondsEl
	str	x0, [sp, 200]
	mov	x0, x20
	bl	_ZN7openpal12TimeDuration7MinutesEl
	str	x0, [sp, 208]
	ldr	w1, [x19, 4]
	mov	x0, 24
	str	w1, [sp, 192]
	bl	_Znwm
.LEHE5:
	mov	x19, x0
	movi	v0.2s, 0x1
	adrp	x2, :got:_ZTVSt23_Sp_counted_ptr_inplaceIN8asiodnp318PrintingSOEHandlerESaIS1_ELN9__gnu_cxx12_Lock_policyE2EE
	adrp	x1, :got:_ZTVN8asiodnp318PrintingSOEHandlerE
	mov	x24, x0
	ldr	x2, [x2, #:got_lo12:_ZTVSt23_Sp_counted_ptr_inplaceIN8asiodnp318PrintingSOEHandlerESaIS1_ELN9__gnu_cxx12_Lock_policyE2EE]
	mov	x0, 32
	ldr	x1, [x1, #:got_lo12:_ZTVN8asiodnp318PrintingSOEHandlerE]
	str	d0, [x19, 8]
	add	x2, x2, 16
	str	x2, [x24], 16
	add	x1, x1, 16
	str	x1, [x19, 16]
.LEHB6:
	bl	_Znwm
.LEHE6:
	movi	v0.2s, 0x1
	adrp	x1, :got:_ZTVSt23_Sp_counted_ptr_inplaceIN8asiodnp324DefaultMasterApplicationESaIS1_ELN9__gnu_cxx12_Lock_policyE2EE
	ldr	x3, [x21]
	mov	x20, x0
	adrp	x2, :got:_ZTVN8asiodnp324DefaultMasterApplicationE
	mov	x22, x0
	ldr	x1, [x1, #:got_lo12:_ZTVSt23_Sp_counted_ptr_inplaceIN8asiodnp324DefaultMasterApplicationESaIS1_ELN9__gnu_cxx12_Lock_policyE2EE]
	add	x25, sp, 216
	ldr	x2, [x2, #:got_lo12:_ZTVN8asiodnp324DefaultMasterApplicationE]
	add	x1, x1, 16
	ldr	x28, [x3, 16]
	str	d0, [x20, 8]
	str	x1, [x22], 16
	add	x0, x2, 16
	add	x2, x2, 144
	str	x0, [x20, 16]
	str	x2, [x22, 8]
	mov	x1, x27
	mov	x8, x25
	add	x27, x20, 8
	mov	x0, x23
.LEHB7:
	bl	_ZN8asiodnp322DefaultListenCallbacks17SessionIdToStringB5cxx11Em
.LEHE7:
	adrp	x23, :got:__libc_single_threaded
	stp	x24, x19, [sp, 112]
	add	x26, x19, 8
	ldr	x24, [x23, #:got_lo12:__libc_single_threaded]
	ldrb	w0, [x24]
	cbz	w0, .L62
	ldr	w0, [x19, 8]
	stp	x22, x20, [sp, 128]
	add	w0, w0, 1
	str	w0, [x19, 8]
.L63:
	ldr	w0, [x20, 8]
	add	w0, w0, 1
	str	w0, [x20, 8]
.L65:
	mov	x1, x25
	mov	x0, x21
	add	x8, sp, 96
	add	x4, sp, 144
	add	x3, sp, 128
	add	x2, sp, 112
.LEHB8:
	blr	x28
.LEHE8:
	ldr	x21, [sp, 136]
	cbz	x21, .L67
	ldr	x0, [x23, #:got_lo12:__libc_single_threaded]
	ldrb	w0, [x0]
	cbz	w0, .L68
	ldr	w0, [x21, 8]
	sub	w1, w0, #1
	str	w1, [x21, 8]
.L69:
	cmp	w0, 1
	beq	.L124
.L67:
	ldr	x21, [sp, 120]
	cbz	x21, .L74
	ldr	x0, [x23, #:got_lo12:__libc_single_threaded]
	ldrb	w0, [x0]
	cbz	w0, .L75
	ldr	w0, [x21, 8]
	sub	w1, w0, #1
	str	w1, [x21, 8]
.L76:
	cmp	w0, 1
	beq	.L125
.L74:
	ldr	x0, [sp, 216]
	add	x1, sp, 232
	cmp	x0, x1
	beq	.L80
	ldr	x1, [sp, 232]
	add	x1, x1, 1
	bl	_ZdlPvm
.L80:
	ldr	x0, [x23, #:got_lo12:__libc_single_threaded]
	ldr	x21, [sp, 104]
	ldrb	w0, [x0]
	cbz	x21, .L86
	cbz	w0, .L82
	ldr	w0, [x21, 8]
	sub	w1, w0, #1
	str	w1, [x21, 8]
.L83:
	cmp	w0, 1
	beq	.L126
.L86:
	ldr	x0, [x23, #:got_lo12:__libc_single_threaded]
	ldrb	w0, [x0]
	cbz	w0, .L127
	ldr	w0, [x20, 8]
	sub	w1, w0, #1
	str	w1, [x20, 8]
.L87:
	cmp	w0, 1
	beq	.L128
.L91:
	ldr	x0, [x23, #:got_lo12:__libc_single_threaded]
	ldrb	w0, [x0]
	cbz	w0, .L129
	ldr	w0, [x19, 8]
	sub	w1, w0, #1
	str	w1, [x19, 8]
.L92:
	cmp	w0, 1
	beq	.L130
.L61:
	adrp	x0, :got:__stack_chk_guard
	ldr	x0, [x0, #:got_lo12:__stack_chk_guard]
	ldr	x2, [sp, 248]
	ldr	x1, [x0]
	subs	x2, x2, x1
	mov	x1, 0
	bne	.L131
	ldp	x19, x20, [sp, 16]
	ldp	x21, x22, [sp, 32]
	ldp	x23, x24, [sp, 48]
	ldp	x25, x26, [sp, 64]
	ldp	x27, x28, [sp, 80]
	ldp	x29, x30, [sp], 256
	.cfi_remember_state
	.cfi_restore 30
	.cfi_restore 29
	.cfi_restore 27
	.cfi_restore 28
	.cfi_restore 25
	.cfi_restore 26
	.cfi_restore 23
	.cfi_restore 24
	.cfi_restore 21
	.cfi_restore 22
	.cfi_restore 19
	.cfi_restore 20
	.cfi_def_cfa_offset 0
	ret
	.p2align 2,,3
.L62:
	.cfi_restore_state
	mov	x1, x26
	mov	w0, 1
	bl	__aarch64_ldadd4_acq_rel
	stp	x22, x20, [sp, 128]
	ldrb	w0, [x24]
	cbnz	w0, .L63
	mov	x1, x27
	mov	w0, 1
	bl	__aarch64_ldadd4_acq_rel
	b	.L65
	.p2align 2,,3
.L130:
	ldr	x1, [x19]
	mov	x0, x19
	ldr	x1, [x1, 16]
	blr	x1
	ldr	x23, [x23, #:got_lo12:__libc_single_threaded]
	ldrb	w0, [x23]
	cbz	w0, .L95
	ldr	w0, [x19, 12]
	sub	w1, w0, #1
	str	w1, [x19, 12]
.L96:
	cmp	w0, 1
	bne	.L61
	ldr	x1, [x19]
	mov	x0, x19
	ldr	x1, [x1, 24]
	blr	x1
	b	.L61
	.p2align 2,,3
.L128:
	ldr	x1, [x20]
	mov	x0, x20
	ldr	x1, [x1, 16]
	blr	x1
	ldr	x0, [x23, #:got_lo12:__libc_single_threaded]
	ldrb	w0, [x0]
	cbz	w0, .L89
	ldr	w0, [x20, 12]
	sub	w1, w0, #1
	str	w1, [x20, 12]
.L90:
	cmp	w0, 1
	bne	.L91
	ldr	x1, [x20]
	mov	x0, x20
	ldr	x1, [x1, 24]
	blr	x1
	b	.L91
	.p2align 2,,3
.L126:
	ldr	x1, [x21]
	mov	x0, x21
	ldr	x1, [x1, 16]
	blr	x1
	ldr	x0, [x23, #:got_lo12:__libc_single_threaded]
	ldrb	w0, [x0]
	cbz	w0, .L84
	ldr	w0, [x21, 12]
	sub	w1, w0, #1
	str	w1, [x21, 12]
.L85:
	cmp	w0, 1
	bne	.L86
	ldr	x1, [x21]
	mov	x0, x21
	ldr	x1, [x1, 24]
	blr	x1
	b	.L86
	.p2align 2,,3
.L125:
	ldr	x1, [x21]
	mov	x0, x21
	ldr	x1, [x1, 16]
	blr	x1
	ldr	x0, [x23, #:got_lo12:__libc_single_threaded]
	ldrb	w0, [x0]
	cbz	w0, .L78
	ldr	w0, [x21, 12]
	sub	w1, w0, #1
	str	w1, [x21, 12]
.L79:
	cmp	w0, 1
	bne	.L74
	ldr	x1, [x21]
	mov	x0, x21
	ldr	x1, [x1, 24]
	blr	x1
	b	.L74
	.p2align 2,,3
.L124:
	ldr	x1, [x21]
	mov	x0, x21
	ldr	x1, [x1, 16]
	blr	x1
	ldr	x0, [x23, #:got_lo12:__libc_single_threaded]
	ldrb	w0, [x0]
	cbz	w0, .L71
	ldr	w0, [x21, 12]
	sub	w1, w0, #1
	str	w1, [x21, 12]
.L72:
	cmp	w0, 1
	bne	.L67
	ldr	x1, [x21]
	mov	x0, x21
	ldr	x1, [x1, 24]
	blr	x1
	b	.L67
	.p2align 2,,3
.L75:
	add	x1, x21, 8
	mov	w0, -1
	bl	__aarch64_ldadd4_acq_rel
	b	.L76
	.p2align 2,,3
.L129:
	mov	x1, x26
	mov	w0, -1
	bl	__aarch64_ldadd4_acq_rel
	b	.L92
	.p2align 2,,3
.L127:
	mov	x1, x27
	mov	w0, -1
	bl	__aarch64_ldadd4_acq_rel
	b	.L87
	.p2align 2,,3
.L82:
	add	x1, x21, 8
	mov	w0, -1
	bl	__aarch64_ldadd4_acq_rel
	b	.L83
	.p2align 2,,3
.L68:
	add	x1, x21, 8
	mov	w0, -1
	bl	__aarch64_ldadd4_acq_rel
	b	.L69
	.p2align 2,,3
.L95:
	add	x1, x19, 12
	mov	w0, -1
	bl	__aarch64_ldadd4_acq_rel
	b	.L96
	.p2align 2,,3
.L71:
	add	x1, x21, 12
	mov	w0, -1
	bl	__aarch64_ldadd4_acq_rel
	b	.L72
	.p2align 2,,3
.L78:
	add	x1, x21, 12
	mov	w0, -1
	bl	__aarch64_ldadd4_acq_rel
	b	.L79
	.p2align 2,,3
.L84:
	add	x1, x21, 12
	mov	w0, -1
	bl	__aarch64_ldadd4_acq_rel
	b	.L85
	.p2align 2,,3
.L89:
	add	x1, x20, 12
	mov	w0, -1
	bl	__aarch64_ldadd4_acq_rel
	b	.L90
.L131:
	bl	__stack_chk_fail
.L111:
	ldr	x1, [sp, 136]
	mov	x21, x0
	cbz	x1, .L99
	mov	x0, x1
	bl	_ZNSt16_Sp_counted_baseILN9__gnu_cxx12_Lock_policyE2EE10_M_releaseEv
.L99:
	ldr	x0, [sp, 120]
	cbz	x0, .L100
	bl	_ZNSt16_Sp_counted_baseILN9__gnu_cxx12_Lock_policyE2EE10_M_releaseEv
.L100:
	ldr	x0, [sp, 216]
	add	x1, sp, 232
	cmp	x0, x1
	beq	.L101
	ldr	x1, [sp, 232]
	add	x1, x1, 1
	bl	_ZdlPvm
.L101:
	mov	x1, x21
.L102:
	mov	x0, x20
	mov	x20, x1
	bl	_ZNSt16_Sp_counted_baseILN9__gnu_cxx12_Lock_policyE2EE10_M_releaseEv
.L103:
	mov	x0, x19
	bl	_ZNSt16_Sp_counted_baseILN9__gnu_cxx12_Lock_policyE2EE10_M_releaseEv
	mov	x0, x20
.LEHB9:
	bl	_Unwind_Resume
.LEHE9:
.L110:
	mov	x1, x0
	b	.L102
.L109:
	mov	x20, x0
	b	.L103
	.cfi_endproc
.LFE3365:
	.section	.gcc_except_table
.LLSDA3365:
	.byte	0xff
	.byte	0xff
	.byte	0x1
	.uleb128 .LLSDACSE3365-.LLSDACSB3365
.LLSDACSB3365:
	.uleb128 .LEHB5-.LFB3365
	.uleb128 .LEHE5-.LEHB5
	.uleb128 0
	.uleb128 0
	.uleb128 .LEHB6-.LFB3365
	.uleb128 .LEHE6-.LEHB6
	.uleb128 .L109-.LFB3365
	.uleb128 0
	.uleb128 .LEHB7-.LFB3365
	.uleb128 .LEHE7-.LEHB7
	.uleb128 .L110-.LFB3365
	.uleb128 0
	.uleb128 .LEHB8-.LFB3365
	.uleb128 .LEHE8-.LEHB8
	.uleb128 .L111-.LFB3365
	.uleb128 0
	.uleb128 .LEHB9-.LFB3365
	.uleb128 .LEHE9-.LEHB9
	.uleb128 0
	.uleb128 0
.LLSDACSE3365:
	.text
	.size	_ZN8asiodnp322DefaultListenCallbacks12OnFirstFrameEmRKN8opendnp316LinkHeaderFieldsERNS_16ISessionAcceptorE, .-_ZN8asiodnp322DefaultListenCallbacks12OnFirstFrameEmRKN8opendnp316LinkHeaderFieldsERNS_16ISessionAcceptorE
	.section	.text.startup,"ax",@progbits
	.align	2
	.p2align 4,,11
	.type	_GLOBAL__sub_I_DefaultListenCallbacks.cpp, %function
_GLOBAL__sub_I_DefaultListenCallbacks.cpp:
.LFB4288:
	.cfi_startproc
	stp	x29, x30, [sp, -32]!
	.cfi_def_cfa_offset 32
	.cfi_offset 29, -32
	.cfi_offset 30, -24
	mov	x0, 5000
	mov	x29, sp
	str	x19, [sp, 16]
	.cfi_offset 19, -16
	bl	_ZN7openpal12TimeDuration12MillisecondsEl
	adrp	x19, .LANCHOR0
	add	x19, x19, :lo12:.LANCHOR0
	mov	x0, x19
	bl	_ZNSt8ios_base4InitC1Ev
	mov	x1, x19
	adrp	x0, :got:_ZNSt8ios_base4InitD1Ev
	ldr	x19, [sp, 16]
	adrp	x2, __dso_handle
	ldp	x29, x30, [sp], 32
	.cfi_restore 30
	.cfi_restore 29
	.cfi_restore 19
	.cfi_def_cfa_offset 0
	add	x2, x2, :lo12:__dso_handle
	ldr	x0, [x0, #:got_lo12:_ZNSt8ios_base4InitD1Ev]
	b	__cxa_atexit
	.cfi_endproc
.LFE4288:
	.size	_GLOBAL__sub_I_DefaultListenCallbacks.cpp, .-_GLOBAL__sub_I_DefaultListenCallbacks.cpp
	.section	.init_array,"aw"
	.align	3
	.xword	_GLOBAL__sub_I_DefaultListenCallbacks.cpp
	.weak	_ZTSSt11_Mutex_baseILN9__gnu_cxx12_Lock_policyE2EE
	.section	.rodata._ZTSSt11_Mutex_baseILN9__gnu_cxx12_Lock_policyE2EE,"aG",@progbits,_ZTSSt11_Mutex_baseILN9__gnu_cxx12_Lock_policyE2EE,comdat
	.align	3
	.type	_ZTSSt11_Mutex_baseILN9__gnu_cxx12_Lock_policyE2EE, %object
	.size	_ZTSSt11_Mutex_baseILN9__gnu_cxx12_Lock_policyE2EE, 47
_ZTSSt11_Mutex_baseILN9__gnu_cxx12_Lock_policyE2EE:
	.string	"St11_Mutex_baseILN9__gnu_cxx12_Lock_policyE2EE"
	.weak	_ZTISt11_Mutex_baseILN9__gnu_cxx12_Lock_policyE2EE
	.section	.data.rel.ro._ZTISt11_Mutex_baseILN9__gnu_cxx12_Lock_policyE2EE,"awG",@progbits,_ZTISt11_Mutex_baseILN9__gnu_cxx12_Lock_policyE2EE,comdat
	.align	3
	.type	_ZTISt11_Mutex_baseILN9__gnu_cxx12_Lock_policyE2EE, %object
	.size	_ZTISt11_Mutex_baseILN9__gnu_cxx12_Lock_policyE2EE, 16
_ZTISt11_Mutex_baseILN9__gnu_cxx12_Lock_policyE2EE:
	.xword	_ZTVN10__cxxabiv117__class_type_infoE+16
	.xword	_ZTSSt11_Mutex_baseILN9__gnu_cxx12_Lock_policyE2EE
	.weak	_ZTSSt19_Sp_make_shared_tag
	.section	.rodata._ZTSSt19_Sp_make_shared_tag,"aG",@progbits,_ZTSSt19_Sp_make_shared_tag,comdat
	.align	3
	.type	_ZTSSt19_Sp_make_shared_tag, %object
	.size	_ZTSSt19_Sp_make_shared_tag, 24
_ZTSSt19_Sp_make_shared_tag:
	.string	"St19_Sp_make_shared_tag"
	.weak	_ZTSSt16_Sp_counted_baseILN9__gnu_cxx12_Lock_policyE2EE
	.section	.rodata._ZTSSt16_Sp_counted_baseILN9__gnu_cxx12_Lock_policyE2EE,"aG",@progbits,_ZTSSt16_Sp_counted_baseILN9__gnu_cxx12_Lock_policyE2EE,comdat
	.align	3
	.type	_ZTSSt16_Sp_counted_baseILN9__gnu_cxx12_Lock_policyE2EE, %object
	.size	_ZTSSt16_Sp_counted_baseILN9__gnu_cxx12_Lock_policyE2EE, 52
_ZTSSt16_Sp_counted_baseILN9__gnu_cxx12_Lock_policyE2EE:
	.string	"St16_Sp_counted_baseILN9__gnu_cxx12_Lock_policyE2EE"
	.weak	_ZTISt16_Sp_counted_baseILN9__gnu_cxx12_Lock_policyE2EE
	.section	.data.rel.ro._ZTISt16_Sp_counted_baseILN9__gnu_cxx12_Lock_policyE2EE,"awG",@progbits,_ZTISt16_Sp_counted_baseILN9__gnu_cxx12_Lock_policyE2EE,comdat
	.align	3
	.type	_ZTISt16_Sp_counted_baseILN9__gnu_cxx12_Lock_policyE2EE, %object
	.size	_ZTISt16_Sp_counted_baseILN9__gnu_cxx12_Lock_policyE2EE, 24
_ZTISt16_Sp_counted_baseILN9__gnu_cxx12_Lock_policyE2EE:
	.xword	_ZTVN10__cxxabiv120__si_class_type_infoE+16
	.xword	_ZTSSt16_Sp_counted_baseILN9__gnu_cxx12_Lock_policyE2EE
	.xword	_ZTISt11_Mutex_baseILN9__gnu_cxx12_Lock_policyE2EE
	.weak	_ZTSN8asiodnp316IListenCallbacksE
	.section	.rodata._ZTSN8asiodnp316IListenCallbacksE,"aG",@progbits,_ZTSN8asiodnp316IListenCallbacksE,comdat
	.align	3
	.type	_ZTSN8asiodnp316IListenCallbacksE, %object
	.size	_ZTSN8asiodnp316IListenCallbacksE, 30
_ZTSN8asiodnp316IListenCallbacksE:
	.string	"N8asiodnp316IListenCallbacksE"
	.weak	_ZTIN8asiodnp316IListenCallbacksE
	.section	.data.rel.ro._ZTIN8asiodnp316IListenCallbacksE,"awG",@progbits,_ZTIN8asiodnp316IListenCallbacksE,comdat
	.align	3
	.type	_ZTIN8asiodnp316IListenCallbacksE, %object
	.size	_ZTIN8asiodnp316IListenCallbacksE, 16
_ZTIN8asiodnp316IListenCallbacksE:
	.xword	_ZTVN10__cxxabiv117__class_type_infoE+16
	.xword	_ZTSN8asiodnp316IListenCallbacksE
	.weak	_ZTSN8asiodnp322DefaultListenCallbacksE
	.section	.rodata._ZTSN8asiodnp322DefaultListenCallbacksE,"aG",@progbits,_ZTSN8asiodnp322DefaultListenCallbacksE,comdat
	.align	3
	.type	_ZTSN8asiodnp322DefaultListenCallbacksE, %object
	.size	_ZTSN8asiodnp322DefaultListenCallbacksE, 36
_ZTSN8asiodnp322DefaultListenCallbacksE:
	.string	"N8asiodnp322DefaultListenCallbacksE"
	.weak	_ZTIN8asiodnp322DefaultListenCallbacksE
	.section	.data.rel.ro._ZTIN8asiodnp322DefaultListenCallbacksE,"awG",@progbits,_ZTIN8asiodnp322DefaultListenCallbacksE,comdat
	.align	3
	.type	_ZTIN8asiodnp322DefaultListenCallbacksE, %object
	.size	_ZTIN8asiodnp322DefaultListenCallbacksE, 24
_ZTIN8asiodnp322DefaultListenCallbacksE:
	.xword	_ZTVN10__cxxabiv120__si_class_type_infoE+16
	.xword	_ZTSN8asiodnp322DefaultListenCallbacksE
	.xword	_ZTIN8asiodnp316IListenCallbacksE
	.weak	_ZTSSt23_Sp_counted_ptr_inplaceIN8asiodnp318PrintingSOEHandlerESaIS1_ELN9__gnu_cxx12_Lock_policyE2EE
	.section	.rodata._ZTSSt23_Sp_counted_ptr_inplaceIN8asiodnp318PrintingSOEHandlerESaIS1_ELN9__gnu_cxx12_Lock_policyE2EE,"aG",@progbits,_ZTSSt23_Sp_counted_ptr_inplaceIN8asiodnp318PrintingSOEHandlerESaIS1_ELN9__gnu_cxx12_Lock_policyE2EE,comdat
	.align	3
	.type	_ZTSSt23_Sp_counted_ptr_inplaceIN8asiodnp318PrintingSOEHandlerESaIS1_ELN9__gnu_cxx12_Lock_policyE2EE, %object
	.size	_ZTSSt23_Sp_counted_ptr_inplaceIN8asiodnp318PrintingSOEHandlerESaIS1_ELN9__gnu_cxx12_Lock_policyE2EE, 97
_ZTSSt23_Sp_counted_ptr_inplaceIN8asiodnp318PrintingSOEHandlerESaIS1_ELN9__gnu_cxx12_Lock_policyE2EE:
	.string	"St23_Sp_counted_ptr_inplaceIN8asiodnp318PrintingSOEHandlerESaIS1_ELN9__gnu_cxx12_Lock_policyE2EE"
	.weak	_ZTISt23_Sp_counted_ptr_inplaceIN8asiodnp318PrintingSOEHandlerESaIS1_ELN9__gnu_cxx12_Lock_policyE2EE
	.section	.data.rel.ro._ZTISt23_Sp_counted_ptr_inplaceIN8asiodnp318PrintingSOEHandlerESaIS1_ELN9__gnu_cxx12_Lock_policyE2EE,"awG",@progbits,_ZTISt23_Sp_counted_ptr_inplaceIN8asiodnp318PrintingSOEHandlerESaIS1_ELN9__gnu_cxx12_Lock_policyE2EE,comdat
	.align	3
	.type	_ZTISt23_Sp_counted_ptr_inplaceIN8asiodnp318PrintingSOEHandlerESaIS1_ELN9__gnu_cxx12_Lock_policyE2EE, %object
	.size	_ZTISt23_Sp_counted_ptr_inplaceIN8asiodnp318PrintingSOEHandlerESaIS1_ELN9__gnu_cxx12_Lock_policyE2EE, 24
_ZTISt23_Sp_counted_ptr_inplaceIN8asiodnp318PrintingSOEHandlerESaIS1_ELN9__gnu_cxx12_Lock_policyE2EE:
	.xword	_ZTVN10__cxxabiv120__si_class_type_infoE+16
	.xword	_ZTSSt23_Sp_counted_ptr_inplaceIN8asiodnp318PrintingSOEHandlerESaIS1_ELN9__gnu_cxx12_Lock_policyE2EE
	.xword	_ZTISt16_Sp_counted_baseILN9__gnu_cxx12_Lock_policyE2EE
	.weak	_ZTSSt23_Sp_counted_ptr_inplaceIN8asiodnp324DefaultMasterApplicationESaIS1_ELN9__gnu_cxx12_Lock_policyE2EE
	.section	.rodata._ZTSSt23_Sp_counted_ptr_inplaceIN8asiodnp324DefaultMasterApplicationESaIS1_ELN9__gnu_cxx12_Lock_policyE2EE,"aG",@progbits,_ZTSSt23_Sp_counted_ptr_inplaceIN8asiodnp324DefaultMasterApplicationESaIS1_ELN9__gnu_cxx12_Lock_policyE2EE,comdat
	.align	3
	.type	_ZTSSt23_Sp_counted_ptr_inplaceIN8asiodnp324DefaultMasterApplicationESaIS1_ELN9__gnu_cxx12_Lock_policyE2EE, %object
	.size	_ZTSSt23_Sp_counted_ptr_inplaceIN8asiodnp324DefaultMasterApplicationESaIS1_ELN9__gnu_cxx12_Lock_policyE2EE, 103
_ZTSSt23_Sp_counted_ptr_inplaceIN8asiodnp324DefaultMasterApplicationESaIS1_ELN9__gnu_cxx12_Lock_policyE2EE:
	.string	"St23_Sp_counted_ptr_inplaceIN8asiodnp324DefaultMasterApplicationESaIS1_ELN9__gnu_cxx12_Lock_policyE2EE"
	.weak	_ZTISt23_Sp_counted_ptr_inplaceIN8asiodnp324DefaultMasterApplicationESaIS1_ELN9__gnu_cxx12_Lock_policyE2EE
	.section	.data.rel.ro._ZTISt23_Sp_counted_ptr_inplaceIN8asiodnp324DefaultMasterApplicationESaIS1_ELN9__gnu_cxx12_Lock_policyE2EE,"awG",@progbits,_ZTISt23_Sp_counted_ptr_inplaceIN8asiodnp324DefaultMasterApplicationESaIS1_ELN9__gnu_cxx12_Lock_policyE2EE,comdat
	.align	3
	.type	_ZTISt23_Sp_counted_ptr_inplaceIN8asiodnp324DefaultMasterApplicationESaIS1_ELN9__gnu_cxx12_Lock_policyE2EE, %object
	.size	_ZTISt23_Sp_counted_ptr_inplaceIN8asiodnp324DefaultMasterApplicationESaIS1_ELN9__gnu_cxx12_Lock_policyE2EE, 24
_ZTISt23_Sp_counted_ptr_inplaceIN8asiodnp324DefaultMasterApplicationESaIS1_ELN9__gnu_cxx12_Lock_policyE2EE:
	.xword	_ZTVN10__cxxabiv120__si_class_type_infoE+16
	.xword	_ZTSSt23_Sp_counted_ptr_inplaceIN8asiodnp324DefaultMasterApplicationESaIS1_ELN9__gnu_cxx12_Lock_policyE2EE
	.xword	_ZTISt16_Sp_counted_baseILN9__gnu_cxx12_Lock_policyE2EE
	.weak	_ZTVN8asiodnp322DefaultListenCallbacksE
	.section	.data.rel.ro._ZTVN8asiodnp322DefaultListenCallbacksE,"awG",@progbits,_ZTVN8asiodnp322DefaultListenCallbacksE,comdat
	.align	3
	.type	_ZTVN8asiodnp322DefaultListenCallbacksE, %object
	.size	_ZTVN8asiodnp322DefaultListenCallbacksE, 80
_ZTVN8asiodnp322DefaultListenCallbacksE:
	.xword	0
	.xword	_ZTIN8asiodnp322DefaultListenCallbacksE
	.xword	_ZN8asiodnp322DefaultListenCallbacksD1Ev
	.xword	_ZN8asiodnp322DefaultListenCallbacksD0Ev
	.xword	_ZN8asiodnp322DefaultListenCallbacks16AcceptConnectionEmRKNSt7__cxx1112basic_stringIcSt11char_traitsIcESaIcEEE
	.xword	_ZN8asiodnp322DefaultListenCallbacks17AcceptCertificateEmRKNS_8X509InfoE
	.xword	_ZN8asiodnp322DefaultListenCallbacks20GetFirstFrameTimeoutEv
	.xword	_ZN8asiodnp322DefaultListenCallbacks12OnFirstFrameEmRKN8opendnp316LinkHeaderFieldsERNS_16ISessionAcceptorE
	.xword	_ZN8asiodnp322DefaultListenCallbacks17OnConnectionCloseEmRKSt10shared_ptrINS_14IMasterSessionEE
	.xword	_ZN8asiodnp322DefaultListenCallbacks18OnCertificateErrorEmRKNS_8X509InfoEi
	.weak	_ZTVSt23_Sp_counted_ptr_inplaceIN8asiodnp318PrintingSOEHandlerESaIS1_ELN9__gnu_cxx12_Lock_policyE2EE
	.section	.data.rel.ro._ZTVSt23_Sp_counted_ptr_inplaceIN8asiodnp318PrintingSOEHandlerESaIS1_ELN9__gnu_cxx12_Lock_policyE2EE,"awG",@progbits,_ZTVSt23_Sp_counted_ptr_inplaceIN8asiodnp318PrintingSOEHandlerESaIS1_ELN9__gnu_cxx12_Lock_policyE2EE,comdat
	.align	3
	.type	_ZTVSt23_Sp_counted_ptr_inplaceIN8asiodnp318PrintingSOEHandlerESaIS1_ELN9__gnu_cxx12_Lock_policyE2EE, %object
	.size	_ZTVSt23_Sp_counted_ptr_inplaceIN8asiodnp318PrintingSOEHandlerESaIS1_ELN9__gnu_cxx12_Lock_policyE2EE, 56
_ZTVSt23_Sp_counted_ptr_inplaceIN8asiodnp318PrintingSOEHandlerESaIS1_ELN9__gnu_cxx12_Lock_policyE2EE:
	.xword	0
	.xword	_ZTISt23_Sp_counted_ptr_inplaceIN8asiodnp318PrintingSOEHandlerESaIS1_ELN9__gnu_cxx12_Lock_policyE2EE
	.xword	_ZNSt23_Sp_counted_ptr_inplaceIN8asiodnp318PrintingSOEHandlerESaIS1_ELN9__gnu_cxx12_Lock_policyE2EED1Ev
	.xword	_ZNSt23_Sp_counted_ptr_inplaceIN8asiodnp318PrintingSOEHandlerESaIS1_ELN9__gnu_cxx12_Lock_policyE2EED0Ev
	.xword	_ZNSt23_Sp_counted_ptr_inplaceIN8asiodnp318PrintingSOEHandlerESaIS1_ELN9__gnu_cxx12_Lock_policyE2EE10_M_disposeEv
	.xword	_ZNSt23_Sp_counted_ptr_inplaceIN8asiodnp318PrintingSOEHandlerESaIS1_ELN9__gnu_cxx12_Lock_policyE2EE10_M_destroyEv
	.xword	_ZNSt23_Sp_counted_ptr_inplaceIN8asiodnp318PrintingSOEHandlerESaIS1_ELN9__gnu_cxx12_Lock_policyE2EE14_M_get_deleterERKSt9type_info
	.weak	_ZTVSt23_Sp_counted_ptr_inplaceIN8asiodnp324DefaultMasterApplicationESaIS1_ELN9__gnu_cxx12_Lock_policyE2EE
	.section	.data.rel.ro._ZTVSt23_Sp_counted_ptr_inplaceIN8asiodnp324DefaultMasterApplicationESaIS1_ELN9__gnu_cxx12_Lock_policyE2EE,"awG",@progbits,_ZTVSt23_Sp_counted_ptr_inplaceIN8asiodnp324DefaultMasterApplicationESaIS1_ELN9__gnu_cxx12_Lock_policyE2EE,comdat
	.align	3
	.type	_ZTVSt23_Sp_counted_ptr_inplaceIN8asiodnp324DefaultMasterApplicationESaIS1_ELN9__gnu_cxx12_Lock_policyE2EE, %object
	.size	_ZTVSt23_Sp_counted_ptr_inplaceIN8asiodnp324DefaultMasterApplicationESaIS1_ELN9__gnu_cxx12_Lock_policyE2EE, 56
_ZTVSt23_Sp_counted_ptr_inplaceIN8asiodnp324DefaultMasterApplicationESaIS1_ELN9__gnu_cxx12_Lock_policyE2EE:
	.xword	0
	.xword	_ZTISt23_Sp_counted_ptr_inplaceIN8asiodnp324DefaultMasterApplicationESaIS1_ELN9__gnu_cxx12_Lock_policyE2EE
	.xword	_ZNSt23_Sp_counted_ptr_inplaceIN8asiodnp324DefaultMasterApplicationESaIS1_ELN9__gnu_cxx12_Lock_policyE2EED1Ev
	.xword	_ZNSt23_Sp_counted_ptr_inplaceIN8asiodnp324DefaultMasterApplicationESaIS1_ELN9__gnu_cxx12_Lock_policyE2EED0Ev
	.xword	_ZNSt23_Sp_counted_ptr_inplaceIN8asiodnp324DefaultMasterApplicationESaIS1_ELN9__gnu_cxx12_Lock_policyE2EE10_M_disposeEv
	.xword	_ZNSt23_Sp_counted_ptr_inplaceIN8asiodnp324DefaultMasterApplicationESaIS1_ELN9__gnu_cxx12_Lock_policyE2EE10_M_destroyEv
	.xword	_ZNSt23_Sp_counted_ptr_inplaceIN8asiodnp324DefaultMasterApplicationESaIS1_ELN9__gnu_cxx12_Lock_policyE2EE14_M_get_deleterERKSt9type_info
	.weak	_ZZNSt19_Sp_make_shared_tag5_S_tiEvE5__tag
	.section	.rodata._ZZNSt19_Sp_make_shared_tag5_S_tiEvE5__tag,"aG",@progbits,_ZZNSt19_Sp_make_shared_tag5_S_tiEvE5__tag,comdat
	.align	3
	.type	_ZZNSt19_Sp_make_shared_tag5_S_tiEvE5__tag, %gnu_unique_object
	.size	_ZZNSt19_Sp_make_shared_tag5_S_tiEvE5__tag, 16
_ZZNSt19_Sp_make_shared_tag5_S_tiEvE5__tag:
	.zero	16
	.bss
	.align	3
	.set	.LANCHOR0,. + 0
	.type	_ZStL8__ioinit, %object
	.size	_ZStL8__ioinit, 1
_ZStL8__ioinit:
	.zero	1
	.hidden	DW.ref.__gxx_personality_v0
	.weak	DW.ref.__gxx_personality_v0
	.section	.data.rel.local.DW.ref.__gxx_personality_v0,"awG",@progbits,DW.ref.__gxx_personality_v0,comdat
	.align	3
	.type	DW.ref.__gxx_personality_v0, %object
	.size	DW.ref.__gxx_personality_v0, 8
DW.ref.__gxx_personality_v0:
	.xword	__gxx_personality_v0
	.hidden	__dso_handle
	.ident	"GCC: (Ubuntu 11.4.0-1ubuntu1~22.04) 11.4.0"
	.section	.note.GNU-stack,"",@progbits
