	.arch armv8-a
	.file	"DNP3ManagerImpl.cpp"
	.text
	.section	.rodata._ZNK4asio6detail15system_category4nameEv.str1.8,"aMS",@progbits,1
	.align	3
.LC0:
	.string	"asio.system"
	.section	.text._ZNK4asio6detail15system_category4nameEv,"axG",@progbits,_ZNK4asio6detail15system_category4nameEv,comdat
	.align	2
	.p2align 4,,11
	.weak	_ZNK4asio6detail15system_category4nameEv
	.type	_ZNK4asio6detail15system_category4nameEv, %function
_ZNK4asio6detail15system_category4nameEv:
.LFB2624:
	.cfi_startproc
	adrp	x0, .LC0
	add	x0, x0, :lo12:.LC0
	ret
	.cfi_endproc
.LFE2624:
	.size	_ZNK4asio6detail15system_category4nameEv, .-_ZNK4asio6detail15system_category4nameEv
	.section	.rodata._ZNK4asio5error6detail14netdb_category4nameEv.str1.8,"aMS",@progbits,1
	.align	3
.LC1:
	.string	"asio.netdb"
	.section	.text._ZNK4asio5error6detail14netdb_category4nameEv,"axG",@progbits,_ZNK4asio5error6detail14netdb_category4nameEv,comdat
	.align	2
	.p2align 4,,11
	.weak	_ZNK4asio5error6detail14netdb_category4nameEv
	.type	_ZNK4asio5error6detail14netdb_category4nameEv, %function
_ZNK4asio5error6detail14netdb_category4nameEv:
.LFB2645:
	.cfi_startproc
	adrp	x0, .LC1
	add	x0, x0, :lo12:.LC1
	ret
	.cfi_endproc
.LFE2645:
	.size	_ZNK4asio5error6detail14netdb_category4nameEv, .-_ZNK4asio5error6detail14netdb_category4nameEv
	.section	.rodata._ZNK4asio5error6detail17addrinfo_category4nameEv.str1.8,"aMS",@progbits,1
	.align	3
.LC2:
	.string	"asio.addrinfo"
	.section	.text._ZNK4asio5error6detail17addrinfo_category4nameEv,"axG",@progbits,_ZNK4asio5error6detail17addrinfo_category4nameEv,comdat
	.align	2
	.p2align 4,,11
	.weak	_ZNK4asio5error6detail17addrinfo_category4nameEv
	.type	_ZNK4asio5error6detail17addrinfo_category4nameEv, %function
_ZNK4asio5error6detail17addrinfo_category4nameEv:
.LFB2651:
	.cfi_startproc
	adrp	x0, .LC2
	add	x0, x0, :lo12:.LC2
	ret
	.cfi_endproc
.LFE2651:
	.size	_ZNK4asio5error6detail17addrinfo_category4nameEv, .-_ZNK4asio5error6detail17addrinfo_category4nameEv
	.section	.rodata._ZNK4asio5error6detail13misc_category4nameEv.str1.8,"aMS",@progbits,1
	.align	3
.LC3:
	.string	"asio.misc"
	.section	.text._ZNK4asio5error6detail13misc_category4nameEv,"axG",@progbits,_ZNK4asio5error6detail13misc_category4nameEv,comdat
	.align	2
	.p2align 4,,11
	.weak	_ZNK4asio5error6detail13misc_category4nameEv
	.type	_ZNK4asio5error6detail13misc_category4nameEv, %function
_ZNK4asio5error6detail13misc_category4nameEv:
.LFB2657:
	.cfi_startproc
	adrp	x0, .LC3
	add	x0, x0, :lo12:.LC3
	ret
	.cfi_endproc
.LFE2657:
	.size	_ZNK4asio5error6detail13misc_category4nameEv, .-_ZNK4asio5error6detail13misc_category4nameEv
	.section	.text._ZN4asio10io_service7service12fork_serviceENS0_10fork_eventE,"axG",@progbits,_ZN4asio10io_service7service12fork_serviceENS0_10fork_eventE,comdat
	.align	2
	.p2align 4,,11
	.weak	_ZN4asio10io_service7service12fork_serviceENS0_10fork_eventE
	.type	_ZN4asio10io_service7service12fork_serviceENS0_10fork_eventE, %function
_ZN4asio10io_service7service12fork_serviceENS0_10fork_eventE:
.LFB3584:
	.cfi_startproc
	ret
	.cfi_endproc
.LFE3584:
	.size	_ZN4asio10io_service7service12fork_serviceENS0_10fork_eventE, .-_ZN4asio10io_service7service12fork_serviceENS0_10fork_eventE
	.section	.text._ZN4asio6detail10service_idINS0_13epoll_reactorEED2Ev,"axG",@progbits,_ZN4asio6detail10service_idINS0_13epoll_reactorEED5Ev,comdat
	.align	2
	.p2align 4,,11
	.weak	_ZN4asio6detail10service_idINS0_13epoll_reactorEED2Ev
	.type	_ZN4asio6detail10service_idINS0_13epoll_reactorEED2Ev, %function
_ZN4asio6detail10service_idINS0_13epoll_reactorEED2Ev:
.LFB12083:
	.cfi_startproc
	ret
	.cfi_endproc
.LFE12083:
	.size	_ZN4asio6detail10service_idINS0_13epoll_reactorEED2Ev, .-_ZN4asio6detail10service_idINS0_13epoll_reactorEED2Ev
	.weak	_ZN4asio6detail10service_idINS0_13epoll_reactorEED1Ev
	.set	_ZN4asio6detail10service_idINS0_13epoll_reactorEED1Ev,_ZN4asio6detail10service_idINS0_13epoll_reactorEED2Ev
	.section	.text._ZN4asio6detail10service_idINS0_15task_io_serviceEED2Ev,"axG",@progbits,_ZN4asio6detail10service_idINS0_15task_io_serviceEED5Ev,comdat
	.align	2
	.p2align 4,,11
	.weak	_ZN4asio6detail10service_idINS0_15task_io_serviceEED2Ev
	.type	_ZN4asio6detail10service_idINS0_15task_io_serviceEED2Ev, %function
_ZN4asio6detail10service_idINS0_15task_io_serviceEED2Ev:
.LFB12086:
	.cfi_startproc
	ret
	.cfi_endproc
.LFE12086:
	.size	_ZN4asio6detail10service_idINS0_15task_io_serviceEED2Ev, .-_ZN4asio6detail10service_idINS0_15task_io_serviceEED2Ev
	.weak	_ZN4asio6detail10service_idINS0_15task_io_serviceEED1Ev
	.set	_ZN4asio6detail10service_idINS0_15task_io_serviceEED1Ev,_ZN4asio6detail10service_idINS0_15task_io_serviceEED2Ev
	.section	.text._ZN4asio6detail10service_idINS0_14strand_serviceEED2Ev,"axG",@progbits,_ZN4asio6detail10service_idINS0_14strand_serviceEED5Ev,comdat
	.align	2
	.p2align 4,,11
	.weak	_ZN4asio6detail10service_idINS0_14strand_serviceEED2Ev
	.type	_ZN4asio6detail10service_idINS0_14strand_serviceEED2Ev, %function
_ZN4asio6detail10service_idINS0_14strand_serviceEED2Ev:
.LFB12092:
	.cfi_startproc
	ret
	.cfi_endproc
.LFE12092:
	.size	_ZN4asio6detail10service_idINS0_14strand_serviceEED2Ev, .-_ZN4asio6detail10service_idINS0_14strand_serviceEED2Ev
	.weak	_ZN4asio6detail10service_idINS0_14strand_serviceEED1Ev
	.set	_ZN4asio6detail10service_idINS0_14strand_serviceEED1Ev,_ZN4asio6detail10service_idINS0_14strand_serviceEED2Ev
	.section	.text._ZNSt23_Sp_counted_ptr_inplaceIN7asiopal2IOESaIS1_ELN9__gnu_cxx12_Lock_policyE2EED2Ev,"axG",@progbits,_ZNSt23_Sp_counted_ptr_inplaceIN7asiopal2IOESaIS1_ELN9__gnu_cxx12_Lock_policyE2EED5Ev,comdat
	.align	2
	.p2align 4,,11
	.weak	_ZNSt23_Sp_counted_ptr_inplaceIN7asiopal2IOESaIS1_ELN9__gnu_cxx12_Lock_policyE2EED2Ev
	.type	_ZNSt23_Sp_counted_ptr_inplaceIN7asiopal2IOESaIS1_ELN9__gnu_cxx12_Lock_policyE2EED2Ev, %function
_ZNSt23_Sp_counted_ptr_inplaceIN7asiopal2IOESaIS1_ELN9__gnu_cxx12_Lock_policyE2EED2Ev:
.LFB12095:
	.cfi_startproc
	ret
	.cfi_endproc
.LFE12095:
	.size	_ZNSt23_Sp_counted_ptr_inplaceIN7asiopal2IOESaIS1_ELN9__gnu_cxx12_Lock_policyE2EED2Ev, .-_ZNSt23_Sp_counted_ptr_inplaceIN7asiopal2IOESaIS1_ELN9__gnu_cxx12_Lock_policyE2EED2Ev
	.weak	_ZNSt23_Sp_counted_ptr_inplaceIN7asiopal2IOESaIS1_ELN9__gnu_cxx12_Lock_policyE2EED1Ev
	.set	_ZNSt23_Sp_counted_ptr_inplaceIN7asiopal2IOESaIS1_ELN9__gnu_cxx12_Lock_policyE2EED1Ev,_ZNSt23_Sp_counted_ptr_inplaceIN7asiopal2IOESaIS1_ELN9__gnu_cxx12_Lock_policyE2EED2Ev
	.section	.text._ZNSt23_Sp_counted_ptr_inplaceIN8asiodnp315SerialIOHandlerESaIS1_ELN9__gnu_cxx12_Lock_policyE2EED2Ev,"axG",@progbits,_ZNSt23_Sp_counted_ptr_inplaceIN8asiodnp315SerialIOHandlerESaIS1_ELN9__gnu_cxx12_Lock_policyE2EED5Ev,comdat
	.align	2
	.p2align 4,,11
	.weak	_ZNSt23_Sp_counted_ptr_inplaceIN8asiodnp315SerialIOHandlerESaIS1_ELN9__gnu_cxx12_Lock_policyE2EED2Ev
	.type	_ZNSt23_Sp_counted_ptr_inplaceIN8asiodnp315SerialIOHandlerESaIS1_ELN9__gnu_cxx12_Lock_policyE2EED2Ev, %function
_ZNSt23_Sp_counted_ptr_inplaceIN8asiodnp315SerialIOHandlerESaIS1_ELN9__gnu_cxx12_Lock_policyE2EED2Ev:
.LFB12102:
	.cfi_startproc
	ret
	.cfi_endproc
.LFE12102:
	.size	_ZNSt23_Sp_counted_ptr_inplaceIN8asiodnp315SerialIOHandlerESaIS1_ELN9__gnu_cxx12_Lock_policyE2EED2Ev, .-_ZNSt23_Sp_counted_ptr_inplaceIN8asiodnp315SerialIOHandlerESaIS1_ELN9__gnu_cxx12_Lock_policyE2EED2Ev
	.weak	_ZNSt23_Sp_counted_ptr_inplaceIN8asiodnp315SerialIOHandlerESaIS1_ELN9__gnu_cxx12_Lock_policyE2EED1Ev
	.set	_ZNSt23_Sp_counted_ptr_inplaceIN8asiodnp315SerialIOHandlerESaIS1_ELN9__gnu_cxx12_Lock_policyE2EED1Ev,_ZNSt23_Sp_counted_ptr_inplaceIN8asiodnp315SerialIOHandlerESaIS1_ELN9__gnu_cxx12_Lock_policyE2EED2Ev
	.section	.text._ZNSt23_Sp_counted_ptr_inplaceIN8asiodnp318TCPServerIOHandlerESaIS1_ELN9__gnu_cxx12_Lock_policyE2EED2Ev,"axG",@progbits,_ZNSt23_Sp_counted_ptr_inplaceIN8asiodnp318TCPServerIOHandlerESaIS1_ELN9__gnu_cxx12_Lock_policyE2EED5Ev,comdat
	.align	2
	.p2align 4,,11
	.weak	_ZNSt23_Sp_counted_ptr_inplaceIN8asiodnp318TCPServerIOHandlerESaIS1_ELN9__gnu_cxx12_Lock_policyE2EED2Ev
	.type	_ZNSt23_Sp_counted_ptr_inplaceIN8asiodnp318TCPServerIOHandlerESaIS1_ELN9__gnu_cxx12_Lock_policyE2EED2Ev, %function
_ZNSt23_Sp_counted_ptr_inplaceIN8asiodnp318TCPServerIOHandlerESaIS1_ELN9__gnu_cxx12_Lock_policyE2EED2Ev:
.LFB12116:
	.cfi_startproc
	ret
	.cfi_endproc
.LFE12116:
	.size	_ZNSt23_Sp_counted_ptr_inplaceIN8asiodnp318TCPServerIOHandlerESaIS1_ELN9__gnu_cxx12_Lock_policyE2EED2Ev, .-_ZNSt23_Sp_counted_ptr_inplaceIN8asiodnp318TCPServerIOHandlerESaIS1_ELN9__gnu_cxx12_Lock_policyE2EED2Ev
	.weak	_ZNSt23_Sp_counted_ptr_inplaceIN8asiodnp318TCPServerIOHandlerESaIS1_ELN9__gnu_cxx12_Lock_policyE2EED1Ev
	.set	_ZNSt23_Sp_counted_ptr_inplaceIN8asiodnp318TCPServerIOHandlerESaIS1_ELN9__gnu_cxx12_Lock_policyE2EED1Ev,_ZNSt23_Sp_counted_ptr_inplaceIN8asiodnp318TCPServerIOHandlerESaIS1_ELN9__gnu_cxx12_Lock_policyE2EED2Ev
	.section	.text._ZNSt23_Sp_counted_ptr_inplaceIN8asiodnp318TCPClientIOHandlerESaIS1_ELN9__gnu_cxx12_Lock_policyE2EED2Ev,"axG",@progbits,_ZNSt23_Sp_counted_ptr_inplaceIN8asiodnp318TCPClientIOHandlerESaIS1_ELN9__gnu_cxx12_Lock_policyE2EED5Ev,comdat
	.align	2
	.p2align 4,,11
	.weak	_ZNSt23_Sp_counted_ptr_inplaceIN8asiodnp318TCPClientIOHandlerESaIS1_ELN9__gnu_cxx12_Lock_policyE2EED2Ev
	.type	_ZNSt23_Sp_counted_ptr_inplaceIN8asiodnp318TCPClientIOHandlerESaIS1_ELN9__gnu_cxx12_Lock_policyE2EED2Ev, %function
_ZNSt23_Sp_counted_ptr_inplaceIN8asiodnp318TCPClientIOHandlerESaIS1_ELN9__gnu_cxx12_Lock_policyE2EED2Ev:
.LFB12123:
	.cfi_startproc
	ret
	.cfi_endproc
.LFE12123:
	.size	_ZNSt23_Sp_counted_ptr_inplaceIN8asiodnp318TCPClientIOHandlerESaIS1_ELN9__gnu_cxx12_Lock_policyE2EED2Ev, .-_ZNSt23_Sp_counted_ptr_inplaceIN8asiodnp318TCPClientIOHandlerESaIS1_ELN9__gnu_cxx12_Lock_policyE2EED2Ev
	.weak	_ZNSt23_Sp_counted_ptr_inplaceIN8asiodnp318TCPClientIOHandlerESaIS1_ELN9__gnu_cxx12_Lock_policyE2EED1Ev
	.set	_ZNSt23_Sp_counted_ptr_inplaceIN8asiodnp318TCPClientIOHandlerESaIS1_ELN9__gnu_cxx12_Lock_policyE2EED1Ev,_ZNSt23_Sp_counted_ptr_inplaceIN8asiodnp318TCPClientIOHandlerESaIS1_ELN9__gnu_cxx12_Lock_policyE2EED2Ev
	.section	.text._ZNSt23_Sp_counted_ptr_inplaceIN8asiodnp315MasterTCPServerESaIS1_ELN9__gnu_cxx12_Lock_policyE2EED2Ev,"axG",@progbits,_ZNSt23_Sp_counted_ptr_inplaceIN8asiodnp315MasterTCPServerESaIS1_ELN9__gnu_cxx12_Lock_policyE2EED5Ev,comdat
	.align	2
	.p2align 4,,11
	.weak	_ZNSt23_Sp_counted_ptr_inplaceIN8asiodnp315MasterTCPServerESaIS1_ELN9__gnu_cxx12_Lock_policyE2EED2Ev
	.type	_ZNSt23_Sp_counted_ptr_inplaceIN8asiodnp315MasterTCPServerESaIS1_ELN9__gnu_cxx12_Lock_policyE2EED2Ev, %function
_ZNSt23_Sp_counted_ptr_inplaceIN8asiodnp315MasterTCPServerESaIS1_ELN9__gnu_cxx12_Lock_policyE2EED2Ev:
.LFB12137:
	.cfi_startproc
	ret
	.cfi_endproc
.LFE12137:
	.size	_ZNSt23_Sp_counted_ptr_inplaceIN8asiodnp315MasterTCPServerESaIS1_ELN9__gnu_cxx12_Lock_policyE2EED2Ev, .-_ZNSt23_Sp_counted_ptr_inplaceIN8asiodnp315MasterTCPServerESaIS1_ELN9__gnu_cxx12_Lock_policyE2EED2Ev
	.weak	_ZNSt23_Sp_counted_ptr_inplaceIN8asiodnp315MasterTCPServerESaIS1_ELN9__gnu_cxx12_Lock_policyE2EED1Ev
	.set	_ZNSt23_Sp_counted_ptr_inplaceIN8asiodnp315MasterTCPServerESaIS1_ELN9__gnu_cxx12_Lock_policyE2EED1Ev,_ZNSt23_Sp_counted_ptr_inplaceIN8asiodnp315MasterTCPServerESaIS1_ELN9__gnu_cxx12_Lock_policyE2EED2Ev
	.section	.text._ZNSt23_Sp_counted_ptr_inplaceIN8asiodnp311DNP3ChannelESaIS1_ELN9__gnu_cxx12_Lock_policyE2EED2Ev,"axG",@progbits,_ZNSt23_Sp_counted_ptr_inplaceIN8asiodnp311DNP3ChannelESaIS1_ELN9__gnu_cxx12_Lock_policyE2EED5Ev,comdat
	.align	2
	.p2align 4,,11
	.weak	_ZNSt23_Sp_counted_ptr_inplaceIN8asiodnp311DNP3ChannelESaIS1_ELN9__gnu_cxx12_Lock_policyE2EED2Ev
	.type	_ZNSt23_Sp_counted_ptr_inplaceIN8asiodnp311DNP3ChannelESaIS1_ELN9__gnu_cxx12_Lock_policyE2EED2Ev, %function
_ZNSt23_Sp_counted_ptr_inplaceIN8asiodnp311DNP3ChannelESaIS1_ELN9__gnu_cxx12_Lock_policyE2EED2Ev:
.LFB12144:
	.cfi_startproc
	ret
	.cfi_endproc
.LFE12144:
	.size	_ZNSt23_Sp_counted_ptr_inplaceIN8asiodnp311DNP3ChannelESaIS1_ELN9__gnu_cxx12_Lock_policyE2EED2Ev, .-_ZNSt23_Sp_counted_ptr_inplaceIN8asiodnp311DNP3ChannelESaIS1_ELN9__gnu_cxx12_Lock_policyE2EED2Ev
	.weak	_ZNSt23_Sp_counted_ptr_inplaceIN8asiodnp311DNP3ChannelESaIS1_ELN9__gnu_cxx12_Lock_policyE2EED1Ev
	.set	_ZNSt23_Sp_counted_ptr_inplaceIN8asiodnp311DNP3ChannelESaIS1_ELN9__gnu_cxx12_Lock_policyE2EED1Ev,_ZNSt23_Sp_counted_ptr_inplaceIN8asiodnp311DNP3ChannelESaIS1_ELN9__gnu_cxx12_Lock_policyE2EED2Ev
	.section	.text._ZNSt23_Sp_counted_ptr_inplaceIN7asiopal15ResourceManagerESaIS1_ELN9__gnu_cxx12_Lock_policyE2EED2Ev,"axG",@progbits,_ZNSt23_Sp_counted_ptr_inplaceIN7asiopal15ResourceManagerESaIS1_ELN9__gnu_cxx12_Lock_policyE2EED5Ev,comdat
	.align	2
	.p2align 4,,11
	.weak	_ZNSt23_Sp_counted_ptr_inplaceIN7asiopal15ResourceManagerESaIS1_ELN9__gnu_cxx12_Lock_policyE2EED2Ev
	.type	_ZNSt23_Sp_counted_ptr_inplaceIN7asiopal15ResourceManagerESaIS1_ELN9__gnu_cxx12_Lock_policyE2EED2Ev, %function
_ZNSt23_Sp_counted_ptr_inplaceIN7asiopal15ResourceManagerESaIS1_ELN9__gnu_cxx12_Lock_policyE2EED2Ev:
.LFB12158:
	.cfi_startproc
	ret
	.cfi_endproc
.LFE12158:
	.size	_ZNSt23_Sp_counted_ptr_inplaceIN7asiopal15ResourceManagerESaIS1_ELN9__gnu_cxx12_Lock_policyE2EED2Ev, .-_ZNSt23_Sp_counted_ptr_inplaceIN7asiopal15ResourceManagerESaIS1_ELN9__gnu_cxx12_Lock_policyE2EED2Ev
	.weak	_ZNSt23_Sp_counted_ptr_inplaceIN7asiopal15ResourceManagerESaIS1_ELN9__gnu_cxx12_Lock_policyE2EED1Ev
	.set	_ZNSt23_Sp_counted_ptr_inplaceIN7asiopal15ResourceManagerESaIS1_ELN9__gnu_cxx12_Lock_policyE2EED1Ev,_ZNSt23_Sp_counted_ptr_inplaceIN7asiopal15ResourceManagerESaIS1_ELN9__gnu_cxx12_Lock_policyE2EED2Ev
	.section	.text._ZNSt23_Sp_counted_ptr_inplaceIN7asiopal8ExecutorESaIS1_ELN9__gnu_cxx12_Lock_policyE2EED2Ev,"axG",@progbits,_ZNSt23_Sp_counted_ptr_inplaceIN7asiopal8ExecutorESaIS1_ELN9__gnu_cxx12_Lock_policyE2EED5Ev,comdat
	.align	2
	.p2align 4,,11
	.weak	_ZNSt23_Sp_counted_ptr_inplaceIN7asiopal8ExecutorESaIS1_ELN9__gnu_cxx12_Lock_policyE2EED2Ev
	.type	_ZNSt23_Sp_counted_ptr_inplaceIN7asiopal8ExecutorESaIS1_ELN9__gnu_cxx12_Lock_policyE2EED2Ev, %function
_ZNSt23_Sp_counted_ptr_inplaceIN7asiopal8ExecutorESaIS1_ELN9__gnu_cxx12_Lock_policyE2EED2Ev:
.LFB12165:
	.cfi_startproc
	ret
	.cfi_endproc
.LFE12165:
	.size	_ZNSt23_Sp_counted_ptr_inplaceIN7asiopal8ExecutorESaIS1_ELN9__gnu_cxx12_Lock_policyE2EED2Ev, .-_ZNSt23_Sp_counted_ptr_inplaceIN7asiopal8ExecutorESaIS1_ELN9__gnu_cxx12_Lock_policyE2EED2Ev
	.weak	_ZNSt23_Sp_counted_ptr_inplaceIN7asiopal8ExecutorESaIS1_ELN9__gnu_cxx12_Lock_policyE2EED1Ev
	.set	_ZNSt23_Sp_counted_ptr_inplaceIN7asiopal8ExecutorESaIS1_ELN9__gnu_cxx12_Lock_policyE2EED1Ev,_ZNSt23_Sp_counted_ptr_inplaceIN7asiopal8ExecutorESaIS1_ELN9__gnu_cxx12_Lock_policyE2EED2Ev
	.section	.text._ZNSt23_Sp_counted_ptr_inplaceIN7openpal6Logger8SettingsESaIS2_ELN9__gnu_cxx12_Lock_policyE2EED2Ev,"axG",@progbits,_ZNSt23_Sp_counted_ptr_inplaceIN7openpal6Logger8SettingsESaIS2_ELN9__gnu_cxx12_Lock_policyE2EED5Ev,comdat
	.align	2
	.p2align 4,,11
	.weak	_ZNSt23_Sp_counted_ptr_inplaceIN7openpal6Logger8SettingsESaIS2_ELN9__gnu_cxx12_Lock_policyE2EED2Ev
	.type	_ZNSt23_Sp_counted_ptr_inplaceIN7openpal6Logger8SettingsESaIS2_ELN9__gnu_cxx12_Lock_policyE2EED2Ev, %function
_ZNSt23_Sp_counted_ptr_inplaceIN7openpal6Logger8SettingsESaIS2_ELN9__gnu_cxx12_Lock_policyE2EED2Ev:
.LFB12186:
	.cfi_startproc
	ret
	.cfi_endproc
.LFE12186:
	.size	_ZNSt23_Sp_counted_ptr_inplaceIN7openpal6Logger8SettingsESaIS2_ELN9__gnu_cxx12_Lock_policyE2EED2Ev, .-_ZNSt23_Sp_counted_ptr_inplaceIN7openpal6Logger8SettingsESaIS2_ELN9__gnu_cxx12_Lock_policyE2EED2Ev
	.weak	_ZNSt23_Sp_counted_ptr_inplaceIN7openpal6Logger8SettingsESaIS2_ELN9__gnu_cxx12_Lock_policyE2EED1Ev
	.set	_ZNSt23_Sp_counted_ptr_inplaceIN7openpal6Logger8SettingsESaIS2_ELN9__gnu_cxx12_Lock_policyE2EED1Ev,_ZNSt23_Sp_counted_ptr_inplaceIN7openpal6Logger8SettingsESaIS2_ELN9__gnu_cxx12_Lock_policyE2EED2Ev
	.section	.text._ZNSt23_Sp_counted_ptr_inplaceIN7openpal6Logger8SettingsESaIS2_ELN9__gnu_cxx12_Lock_policyE2EED0Ev,"axG",@progbits,_ZNSt23_Sp_counted_ptr_inplaceIN7openpal6Logger8SettingsESaIS2_ELN9__gnu_cxx12_Lock_policyE2EED5Ev,comdat
	.align	2
	.p2align 4,,11
	.weak	_ZNSt23_Sp_counted_ptr_inplaceIN7openpal6Logger8SettingsESaIS2_ELN9__gnu_cxx12_Lock_policyE2EED0Ev
	.type	_ZNSt23_Sp_counted_ptr_inplaceIN7openpal6Logger8SettingsESaIS2_ELN9__gnu_cxx12_Lock_policyE2EED0Ev, %function
_ZNSt23_Sp_counted_ptr_inplaceIN7openpal6Logger8SettingsESaIS2_ELN9__gnu_cxx12_Lock_policyE2EED0Ev:
.LFB12188:
	.cfi_startproc
	mov	x1, 56
	b	_ZdlPvm
	.cfi_endproc
.LFE12188:
	.size	_ZNSt23_Sp_counted_ptr_inplaceIN7openpal6Logger8SettingsESaIS2_ELN9__gnu_cxx12_Lock_policyE2EED0Ev, .-_ZNSt23_Sp_counted_ptr_inplaceIN7openpal6Logger8SettingsESaIS2_ELN9__gnu_cxx12_Lock_policyE2EED0Ev
	.section	.text._ZNSt23_Sp_counted_ptr_inplaceIN7asiopal8ExecutorESaIS1_ELN9__gnu_cxx12_Lock_policyE2EED0Ev,"axG",@progbits,_ZNSt23_Sp_counted_ptr_inplaceIN7asiopal8ExecutorESaIS1_ELN9__gnu_cxx12_Lock_policyE2EED5Ev,comdat
	.align	2
	.p2align 4,,11
	.weak	_ZNSt23_Sp_counted_ptr_inplaceIN7asiopal8ExecutorESaIS1_ELN9__gnu_cxx12_Lock_policyE2EED0Ev
	.type	_ZNSt23_Sp_counted_ptr_inplaceIN7asiopal8ExecutorESaIS1_ELN9__gnu_cxx12_Lock_policyE2EED0Ev, %function
_ZNSt23_Sp_counted_ptr_inplaceIN7asiopal8ExecutorESaIS1_ELN9__gnu_cxx12_Lock_policyE2EED0Ev:
.LFB12167:
	.cfi_startproc
	mov	x1, 72
	b	_ZdlPvm
	.cfi_endproc
.LFE12167:
	.size	_ZNSt23_Sp_counted_ptr_inplaceIN7asiopal8ExecutorESaIS1_ELN9__gnu_cxx12_Lock_policyE2EED0Ev, .-_ZNSt23_Sp_counted_ptr_inplaceIN7asiopal8ExecutorESaIS1_ELN9__gnu_cxx12_Lock_policyE2EED0Ev
	.section	.text._ZNSt23_Sp_counted_ptr_inplaceIN7asiopal15ResourceManagerESaIS1_ELN9__gnu_cxx12_Lock_policyE2EED0Ev,"axG",@progbits,_ZNSt23_Sp_counted_ptr_inplaceIN7asiopal15ResourceManagerESaIS1_ELN9__gnu_cxx12_Lock_policyE2EED5Ev,comdat
	.align	2
	.p2align 4,,11
	.weak	_ZNSt23_Sp_counted_ptr_inplaceIN7asiopal15ResourceManagerESaIS1_ELN9__gnu_cxx12_Lock_policyE2EED0Ev
	.type	_ZNSt23_Sp_counted_ptr_inplaceIN7asiopal15ResourceManagerESaIS1_ELN9__gnu_cxx12_Lock_policyE2EED0Ev, %function
_ZNSt23_Sp_counted_ptr_inplaceIN7asiopal15ResourceManagerESaIS1_ELN9__gnu_cxx12_Lock_policyE2EED0Ev:
.LFB12160:
	.cfi_startproc
	mov	x1, 128
	b	_ZdlPvm
	.cfi_endproc
.LFE12160:
	.size	_ZNSt23_Sp_counted_ptr_inplaceIN7asiopal15ResourceManagerESaIS1_ELN9__gnu_cxx12_Lock_policyE2EED0Ev, .-_ZNSt23_Sp_counted_ptr_inplaceIN7asiopal15ResourceManagerESaIS1_ELN9__gnu_cxx12_Lock_policyE2EED0Ev
	.section	.text._ZNSt23_Sp_counted_ptr_inplaceIN8asiodnp311DNP3ChannelESaIS1_ELN9__gnu_cxx12_Lock_policyE2EED0Ev,"axG",@progbits,_ZNSt23_Sp_counted_ptr_inplaceIN8asiodnp311DNP3ChannelESaIS1_ELN9__gnu_cxx12_Lock_policyE2EED5Ev,comdat
	.align	2
	.p2align 4,,11
	.weak	_ZNSt23_Sp_counted_ptr_inplaceIN8asiodnp311DNP3ChannelESaIS1_ELN9__gnu_cxx12_Lock_policyE2EED0Ev
	.type	_ZNSt23_Sp_counted_ptr_inplaceIN8asiodnp311DNP3ChannelESaIS1_ELN9__gnu_cxx12_Lock_policyE2EED0Ev, %function
_ZNSt23_Sp_counted_ptr_inplaceIN8asiodnp311DNP3ChannelESaIS1_ELN9__gnu_cxx12_Lock_policyE2EED0Ev:
.LFB12146:
	.cfi_startproc
	mov	x1, 136
	b	_ZdlPvm
	.cfi_endproc
.LFE12146:
	.size	_ZNSt23_Sp_counted_ptr_inplaceIN8asiodnp311DNP3ChannelESaIS1_ELN9__gnu_cxx12_Lock_policyE2EED0Ev, .-_ZNSt23_Sp_counted_ptr_inplaceIN8asiodnp311DNP3ChannelESaIS1_ELN9__gnu_cxx12_Lock_policyE2EED0Ev
	.section	.text._ZNSt23_Sp_counted_ptr_inplaceIN8asiodnp315MasterTCPServerESaIS1_ELN9__gnu_cxx12_Lock_policyE2EED0Ev,"axG",@progbits,_ZNSt23_Sp_counted_ptr_inplaceIN8asiodnp315MasterTCPServerESaIS1_ELN9__gnu_cxx12_Lock_policyE2EED5Ev,comdat
	.align	2
	.p2align 4,,11
	.weak	_ZNSt23_Sp_counted_ptr_inplaceIN8asiodnp315MasterTCPServerESaIS1_ELN9__gnu_cxx12_Lock_policyE2EED0Ev
	.type	_ZNSt23_Sp_counted_ptr_inplaceIN8asiodnp315MasterTCPServerESaIS1_ELN9__gnu_cxx12_Lock_policyE2EED0Ev, %function
_ZNSt23_Sp_counted_ptr_inplaceIN8asiodnp315MasterTCPServerESaIS1_ELN9__gnu_cxx12_Lock_policyE2EED0Ev:
.LFB12139:
	.cfi_startproc
	mov	x1, 256
	b	_ZdlPvm
	.cfi_endproc
.LFE12139:
	.size	_ZNSt23_Sp_counted_ptr_inplaceIN8asiodnp315MasterTCPServerESaIS1_ELN9__gnu_cxx12_Lock_policyE2EED0Ev, .-_ZNSt23_Sp_counted_ptr_inplaceIN8asiodnp315MasterTCPServerESaIS1_ELN9__gnu_cxx12_Lock_policyE2EED0Ev
	.section	.text._ZNSt23_Sp_counted_ptr_inplaceIN8asiodnp318TCPClientIOHandlerESaIS1_ELN9__gnu_cxx12_Lock_policyE2EED0Ev,"axG",@progbits,_ZNSt23_Sp_counted_ptr_inplaceIN8asiodnp318TCPClientIOHandlerESaIS1_ELN9__gnu_cxx12_Lock_policyE2EED5Ev,comdat
	.align	2
	.p2align 4,,11
	.weak	_ZNSt23_Sp_counted_ptr_inplaceIN8asiodnp318TCPClientIOHandlerESaIS1_ELN9__gnu_cxx12_Lock_policyE2EED0Ev
	.type	_ZNSt23_Sp_counted_ptr_inplaceIN8asiodnp318TCPClientIOHandlerESaIS1_ELN9__gnu_cxx12_Lock_policyE2EED0Ev, %function
_ZNSt23_Sp_counted_ptr_inplaceIN8asiodnp318TCPClientIOHandlerESaIS1_ELN9__gnu_cxx12_Lock_policyE2EED0Ev:
.LFB12125:
	.cfi_startproc
	mov	x1, 960
	b	_ZdlPvm
	.cfi_endproc
.LFE12125:
	.size	_ZNSt23_Sp_counted_ptr_inplaceIN8asiodnp318TCPClientIOHandlerESaIS1_ELN9__gnu_cxx12_Lock_policyE2EED0Ev, .-_ZNSt23_Sp_counted_ptr_inplaceIN8asiodnp318TCPClientIOHandlerESaIS1_ELN9__gnu_cxx12_Lock_policyE2EED0Ev
	.section	.text._ZNSt23_Sp_counted_ptr_inplaceIN8asiodnp318TCPServerIOHandlerESaIS1_ELN9__gnu_cxx12_Lock_policyE2EED0Ev,"axG",@progbits,_ZNSt23_Sp_counted_ptr_inplaceIN8asiodnp318TCPServerIOHandlerESaIS1_ELN9__gnu_cxx12_Lock_policyE2EED5Ev,comdat
	.align	2
	.p2align 4,,11
	.weak	_ZNSt23_Sp_counted_ptr_inplaceIN8asiodnp318TCPServerIOHandlerESaIS1_ELN9__gnu_cxx12_Lock_policyE2EED0Ev
	.type	_ZNSt23_Sp_counted_ptr_inplaceIN8asiodnp318TCPServerIOHandlerESaIS1_ELN9__gnu_cxx12_Lock_policyE2EED0Ev, %function
_ZNSt23_Sp_counted_ptr_inplaceIN8asiodnp318TCPServerIOHandlerESaIS1_ELN9__gnu_cxx12_Lock_policyE2EED0Ev:
.LFB12118:
	.cfi_startproc
	mov	x1, 888
	b	_ZdlPvm
	.cfi_endproc
.LFE12118:
	.size	_ZNSt23_Sp_counted_ptr_inplaceIN8asiodnp318TCPServerIOHandlerESaIS1_ELN9__gnu_cxx12_Lock_policyE2EED0Ev, .-_ZNSt23_Sp_counted_ptr_inplaceIN8asiodnp318TCPServerIOHandlerESaIS1_ELN9__gnu_cxx12_Lock_policyE2EED0Ev
	.section	.text._ZNSt23_Sp_counted_ptr_inplaceIN8asiodnp315SerialIOHandlerESaIS1_ELN9__gnu_cxx12_Lock_policyE2EED0Ev,"axG",@progbits,_ZNSt23_Sp_counted_ptr_inplaceIN8asiodnp315SerialIOHandlerESaIS1_ELN9__gnu_cxx12_Lock_policyE2EED5Ev,comdat
	.align	2
	.p2align 4,,11
	.weak	_ZNSt23_Sp_counted_ptr_inplaceIN8asiodnp315SerialIOHandlerESaIS1_ELN9__gnu_cxx12_Lock_policyE2EED0Ev
	.type	_ZNSt23_Sp_counted_ptr_inplaceIN8asiodnp315SerialIOHandlerESaIS1_ELN9__gnu_cxx12_Lock_policyE2EED0Ev, %function
_ZNSt23_Sp_counted_ptr_inplaceIN8asiodnp315SerialIOHandlerESaIS1_ELN9__gnu_cxx12_Lock_policyE2EED0Ev:
.LFB12104:
	.cfi_startproc
	mov	x1, 928
	b	_ZdlPvm
	.cfi_endproc
.LFE12104:
	.size	_ZNSt23_Sp_counted_ptr_inplaceIN8asiodnp315SerialIOHandlerESaIS1_ELN9__gnu_cxx12_Lock_policyE2EED0Ev, .-_ZNSt23_Sp_counted_ptr_inplaceIN8asiodnp315SerialIOHandlerESaIS1_ELN9__gnu_cxx12_Lock_policyE2EED0Ev
	.section	.text._ZNSt23_Sp_counted_ptr_inplaceIN7asiopal2IOESaIS1_ELN9__gnu_cxx12_Lock_policyE2EED0Ev,"axG",@progbits,_ZNSt23_Sp_counted_ptr_inplaceIN7asiopal2IOESaIS1_ELN9__gnu_cxx12_Lock_policyE2EED5Ev,comdat
	.align	2
	.p2align 4,,11
	.weak	_ZNSt23_Sp_counted_ptr_inplaceIN7asiopal2IOESaIS1_ELN9__gnu_cxx12_Lock_policyE2EED0Ev
	.type	_ZNSt23_Sp_counted_ptr_inplaceIN7asiopal2IOESaIS1_ELN9__gnu_cxx12_Lock_policyE2EED0Ev, %function
_ZNSt23_Sp_counted_ptr_inplaceIN7asiopal2IOESaIS1_ELN9__gnu_cxx12_Lock_policyE2EED0Ev:
.LFB12097:
	.cfi_startproc
	mov	x1, 40
	b	_ZdlPvm
	.cfi_endproc
.LFE12097:
	.size	_ZNSt23_Sp_counted_ptr_inplaceIN7asiopal2IOESaIS1_ELN9__gnu_cxx12_Lock_policyE2EED0Ev, .-_ZNSt23_Sp_counted_ptr_inplaceIN7asiopal2IOESaIS1_ELN9__gnu_cxx12_Lock_policyE2EED0Ev
	.section	.text._ZNSt23_Sp_counted_ptr_inplaceIN7asiopal2IOESaIS1_ELN9__gnu_cxx12_Lock_policyE2EE10_M_destroyEv,"axG",@progbits,_ZNSt23_Sp_counted_ptr_inplaceIN7asiopal2IOESaIS1_ELN9__gnu_cxx12_Lock_policyE2EE10_M_destroyEv,comdat
	.align	2
	.p2align 4,,11
	.weak	_ZNSt23_Sp_counted_ptr_inplaceIN7asiopal2IOESaIS1_ELN9__gnu_cxx12_Lock_policyE2EE10_M_destroyEv
	.type	_ZNSt23_Sp_counted_ptr_inplaceIN7asiopal2IOESaIS1_ELN9__gnu_cxx12_Lock_policyE2EE10_M_destroyEv, %function
_ZNSt23_Sp_counted_ptr_inplaceIN7asiopal2IOESaIS1_ELN9__gnu_cxx12_Lock_policyE2EE10_M_destroyEv:
.LFB12099:
	.cfi_startproc
	mov	x1, 40
	b	_ZdlPvm
	.cfi_endproc
.LFE12099:
	.size	_ZNSt23_Sp_counted_ptr_inplaceIN7asiopal2IOESaIS1_ELN9__gnu_cxx12_Lock_policyE2EE10_M_destroyEv, .-_ZNSt23_Sp_counted_ptr_inplaceIN7asiopal2IOESaIS1_ELN9__gnu_cxx12_Lock_policyE2EE10_M_destroyEv
	.section	.text._ZNSt23_Sp_counted_ptr_inplaceIN8asiodnp315SerialIOHandlerESaIS1_ELN9__gnu_cxx12_Lock_policyE2EE10_M_destroyEv,"axG",@progbits,_ZNSt23_Sp_counted_ptr_inplaceIN8asiodnp315SerialIOHandlerESaIS1_ELN9__gnu_cxx12_Lock_policyE2EE10_M_destroyEv,comdat
	.align	2
	.p2align 4,,11
	.weak	_ZNSt23_Sp_counted_ptr_inplaceIN8asiodnp315SerialIOHandlerESaIS1_ELN9__gnu_cxx12_Lock_policyE2EE10_M_destroyEv
	.type	_ZNSt23_Sp_counted_ptr_inplaceIN8asiodnp315SerialIOHandlerESaIS1_ELN9__gnu_cxx12_Lock_policyE2EE10_M_destroyEv, %function
_ZNSt23_Sp_counted_ptr_inplaceIN8asiodnp315SerialIOHandlerESaIS1_ELN9__gnu_cxx12_Lock_policyE2EE10_M_destroyEv:
.LFB12106:
	.cfi_startproc
	mov	x1, 928
	b	_ZdlPvm
	.cfi_endproc
.LFE12106:
	.size	_ZNSt23_Sp_counted_ptr_inplaceIN8asiodnp315SerialIOHandlerESaIS1_ELN9__gnu_cxx12_Lock_policyE2EE10_M_destroyEv, .-_ZNSt23_Sp_counted_ptr_inplaceIN8asiodnp315SerialIOHandlerESaIS1_ELN9__gnu_cxx12_Lock_policyE2EE10_M_destroyEv
	.section	.text._ZNSt23_Sp_counted_ptr_inplaceIN8asiodnp318TCPServerIOHandlerESaIS1_ELN9__gnu_cxx12_Lock_policyE2EE10_M_destroyEv,"axG",@progbits,_ZNSt23_Sp_counted_ptr_inplaceIN8asiodnp318TCPServerIOHandlerESaIS1_ELN9__gnu_cxx12_Lock_policyE2EE10_M_destroyEv,comdat
	.align	2
	.p2align 4,,11
	.weak	_ZNSt23_Sp_counted_ptr_inplaceIN8asiodnp318TCPServerIOHandlerESaIS1_ELN9__gnu_cxx12_Lock_policyE2EE10_M_destroyEv
	.type	_ZNSt23_Sp_counted_ptr_inplaceIN8asiodnp318TCPServerIOHandlerESaIS1_ELN9__gnu_cxx12_Lock_policyE2EE10_M_destroyEv, %function
_ZNSt23_Sp_counted_ptr_inplaceIN8asiodnp318TCPServerIOHandlerESaIS1_ELN9__gnu_cxx12_Lock_policyE2EE10_M_destroyEv:
.LFB12120:
	.cfi_startproc
	mov	x1, 888
	b	_ZdlPvm
	.cfi_endproc
.LFE12120:
	.size	_ZNSt23_Sp_counted_ptr_inplaceIN8asiodnp318TCPServerIOHandlerESaIS1_ELN9__gnu_cxx12_Lock_policyE2EE10_M_destroyEv, .-_ZNSt23_Sp_counted_ptr_inplaceIN8asiodnp318TCPServerIOHandlerESaIS1_ELN9__gnu_cxx12_Lock_policyE2EE10_M_destroyEv
	.section	.text._ZNSt23_Sp_counted_ptr_inplaceIN8asiodnp318TCPClientIOHandlerESaIS1_ELN9__gnu_cxx12_Lock_policyE2EE10_M_destroyEv,"axG",@progbits,_ZNSt23_Sp_counted_ptr_inplaceIN8asiodnp318TCPClientIOHandlerESaIS1_ELN9__gnu_cxx12_Lock_policyE2EE10_M_destroyEv,comdat
	.align	2
	.p2align 4,,11
	.weak	_ZNSt23_Sp_counted_ptr_inplaceIN8asiodnp318TCPClientIOHandlerESaIS1_ELN9__gnu_cxx12_Lock_policyE2EE10_M_destroyEv
	.type	_ZNSt23_Sp_counted_ptr_inplaceIN8asiodnp318TCPClientIOHandlerESaIS1_ELN9__gnu_cxx12_Lock_policyE2EE10_M_destroyEv, %function
_ZNSt23_Sp_counted_ptr_inplaceIN8asiodnp318TCPClientIOHandlerESaIS1_ELN9__gnu_cxx12_Lock_policyE2EE10_M_destroyEv:
.LFB12127:
	.cfi_startproc
	mov	x1, 960
	b	_ZdlPvm
	.cfi_endproc
.LFE12127:
	.size	_ZNSt23_Sp_counted_ptr_inplaceIN8asiodnp318TCPClientIOHandlerESaIS1_ELN9__gnu_cxx12_Lock_policyE2EE10_M_destroyEv, .-_ZNSt23_Sp_counted_ptr_inplaceIN8asiodnp318TCPClientIOHandlerESaIS1_ELN9__gnu_cxx12_Lock_policyE2EE10_M_destroyEv
	.section	.text._ZNSt23_Sp_counted_ptr_inplaceIN8asiodnp315MasterTCPServerESaIS1_ELN9__gnu_cxx12_Lock_policyE2EE10_M_destroyEv,"axG",@progbits,_ZNSt23_Sp_counted_ptr_inplaceIN8asiodnp315MasterTCPServerESaIS1_ELN9__gnu_cxx12_Lock_policyE2EE10_M_destroyEv,comdat
	.align	2
	.p2align 4,,11
	.weak	_ZNSt23_Sp_counted_ptr_inplaceIN8asiodnp315MasterTCPServerESaIS1_ELN9__gnu_cxx12_Lock_policyE2EE10_M_destroyEv
	.type	_ZNSt23_Sp_counted_ptr_inplaceIN8asiodnp315MasterTCPServerESaIS1_ELN9__gnu_cxx12_Lock_policyE2EE10_M_destroyEv, %function
_ZNSt23_Sp_counted_ptr_inplaceIN8asiodnp315MasterTCPServerESaIS1_ELN9__gnu_cxx12_Lock_policyE2EE10_M_destroyEv:
.LFB12141:
	.cfi_startproc
	mov	x1, 256
	b	_ZdlPvm
	.cfi_endproc
.LFE12141:
	.size	_ZNSt23_Sp_counted_ptr_inplaceIN8asiodnp315MasterTCPServerESaIS1_ELN9__gnu_cxx12_Lock_policyE2EE10_M_destroyEv, .-_ZNSt23_Sp_counted_ptr_inplaceIN8asiodnp315MasterTCPServerESaIS1_ELN9__gnu_cxx12_Lock_policyE2EE10_M_destroyEv
	.section	.text._ZNSt23_Sp_counted_ptr_inplaceIN8asiodnp311DNP3ChannelESaIS1_ELN9__gnu_cxx12_Lock_policyE2EE10_M_destroyEv,"axG",@progbits,_ZNSt23_Sp_counted_ptr_inplaceIN8asiodnp311DNP3ChannelESaIS1_ELN9__gnu_cxx12_Lock_policyE2EE10_M_destroyEv,comdat
	.align	2
	.p2align 4,,11
	.weak	_ZNSt23_Sp_counted_ptr_inplaceIN8asiodnp311DNP3ChannelESaIS1_ELN9__gnu_cxx12_Lock_policyE2EE10_M_destroyEv
	.type	_ZNSt23_Sp_counted_ptr_inplaceIN8asiodnp311DNP3ChannelESaIS1_ELN9__gnu_cxx12_Lock_policyE2EE10_M_destroyEv, %function
_ZNSt23_Sp_counted_ptr_inplaceIN8asiodnp311DNP3ChannelESaIS1_ELN9__gnu_cxx12_Lock_policyE2EE10_M_destroyEv:
.LFB12148:
	.cfi_startproc
	mov	x1, 136
	b	_ZdlPvm
	.cfi_endproc
.LFE12148:
	.size	_ZNSt23_Sp_counted_ptr_inplaceIN8asiodnp311DNP3ChannelESaIS1_ELN9__gnu_cxx12_Lock_policyE2EE10_M_destroyEv, .-_ZNSt23_Sp_counted_ptr_inplaceIN8asiodnp311DNP3ChannelESaIS1_ELN9__gnu_cxx12_Lock_policyE2EE10_M_destroyEv
	.section	.text._ZNSt23_Sp_counted_ptr_inplaceIN7asiopal15ResourceManagerESaIS1_ELN9__gnu_cxx12_Lock_policyE2EE10_M_destroyEv,"axG",@progbits,_ZNSt23_Sp_counted_ptr_inplaceIN7asiopal15ResourceManagerESaIS1_ELN9__gnu_cxx12_Lock_policyE2EE10_M_destroyEv,comdat
	.align	2
	.p2align 4,,11
	.weak	_ZNSt23_Sp_counted_ptr_inplaceIN7asiopal15ResourceManagerESaIS1_ELN9__gnu_cxx12_Lock_policyE2EE10_M_destroyEv
	.type	_ZNSt23_Sp_counted_ptr_inplaceIN7asiopal15ResourceManagerESaIS1_ELN9__gnu_cxx12_Lock_policyE2EE10_M_destroyEv, %function
_ZNSt23_Sp_counted_ptr_inplaceIN7asiopal15ResourceManagerESaIS1_ELN9__gnu_cxx12_Lock_policyE2EE10_M_destroyEv:
.LFB12162:
	.cfi_startproc
	mov	x1, 128
	b	_ZdlPvm
	.cfi_endproc
.LFE12162:
	.size	_ZNSt23_Sp_counted_ptr_inplaceIN7asiopal15ResourceManagerESaIS1_ELN9__gnu_cxx12_Lock_policyE2EE10_M_destroyEv, .-_ZNSt23_Sp_counted_ptr_inplaceIN7asiopal15ResourceManagerESaIS1_ELN9__gnu_cxx12_Lock_policyE2EE10_M_destroyEv
	.section	.text._ZNSt23_Sp_counted_ptr_inplaceIN7asiopal8ExecutorESaIS1_ELN9__gnu_cxx12_Lock_policyE2EE10_M_destroyEv,"axG",@progbits,_ZNSt23_Sp_counted_ptr_inplaceIN7asiopal8ExecutorESaIS1_ELN9__gnu_cxx12_Lock_policyE2EE10_M_destroyEv,comdat
	.align	2
	.p2align 4,,11
	.weak	_ZNSt23_Sp_counted_ptr_inplaceIN7asiopal8ExecutorESaIS1_ELN9__gnu_cxx12_Lock_policyE2EE10_M_destroyEv
	.type	_ZNSt23_Sp_counted_ptr_inplaceIN7asiopal8ExecutorESaIS1_ELN9__gnu_cxx12_Lock_policyE2EE10_M_destroyEv, %function
_ZNSt23_Sp_counted_ptr_inplaceIN7asiopal8ExecutorESaIS1_ELN9__gnu_cxx12_Lock_policyE2EE10_M_destroyEv:
.LFB12169:
	.cfi_startproc
	mov	x1, 72
	b	_ZdlPvm
	.cfi_endproc
.LFE12169:
	.size	_ZNSt23_Sp_counted_ptr_inplaceIN7asiopal8ExecutorESaIS1_ELN9__gnu_cxx12_Lock_policyE2EE10_M_destroyEv, .-_ZNSt23_Sp_counted_ptr_inplaceIN7asiopal8ExecutorESaIS1_ELN9__gnu_cxx12_Lock_policyE2EE10_M_destroyEv
	.section	.text._ZNSt23_Sp_counted_ptr_inplaceIN7openpal6Logger8SettingsESaIS2_ELN9__gnu_cxx12_Lock_policyE2EE10_M_destroyEv,"axG",@progbits,_ZNSt23_Sp_counted_ptr_inplaceIN7openpal6Logger8SettingsESaIS2_ELN9__gnu_cxx12_Lock_policyE2EE10_M_destroyEv,comdat
	.align	2
	.p2align 4,,11
	.weak	_ZNSt23_Sp_counted_ptr_inplaceIN7openpal6Logger8SettingsESaIS2_ELN9__gnu_cxx12_Lock_policyE2EE10_M_destroyEv
	.type	_ZNSt23_Sp_counted_ptr_inplaceIN7openpal6Logger8SettingsESaIS2_ELN9__gnu_cxx12_Lock_policyE2EE10_M_destroyEv, %function
_ZNSt23_Sp_counted_ptr_inplaceIN7openpal6Logger8SettingsESaIS2_ELN9__gnu_cxx12_Lock_policyE2EE10_M_destroyEv:
.LFB12190:
	.cfi_startproc
	mov	x1, 56
	b	_ZdlPvm
	.cfi_endproc
.LFE12190:
	.size	_ZNSt23_Sp_counted_ptr_inplaceIN7openpal6Logger8SettingsESaIS2_ELN9__gnu_cxx12_Lock_policyE2EE10_M_destroyEv, .-_ZNSt23_Sp_counted_ptr_inplaceIN7openpal6Logger8SettingsESaIS2_ELN9__gnu_cxx12_Lock_policyE2EE10_M_destroyEv
	.section	.text._ZNSt23_Sp_counted_ptr_inplaceIN7openpal6Logger8SettingsESaIS2_ELN9__gnu_cxx12_Lock_policyE2EE10_M_disposeEv,"axG",@progbits,_ZNSt23_Sp_counted_ptr_inplaceIN7openpal6Logger8SettingsESaIS2_ELN9__gnu_cxx12_Lock_policyE2EE10_M_disposeEv,comdat
	.align	2
	.p2align 4,,11
	.weak	_ZNSt23_Sp_counted_ptr_inplaceIN7openpal6Logger8SettingsESaIS2_ELN9__gnu_cxx12_Lock_policyE2EE10_M_disposeEv
	.type	_ZNSt23_Sp_counted_ptr_inplaceIN7openpal6Logger8SettingsESaIS2_ELN9__gnu_cxx12_Lock_policyE2EE10_M_disposeEv, %function
_ZNSt23_Sp_counted_ptr_inplaceIN7openpal6Logger8SettingsESaIS2_ELN9__gnu_cxx12_Lock_policyE2EE10_M_disposeEv:
.LFB12189:
	.cfi_startproc
	add	x1, x0, 32
	add	x2, x0, 16
	ldr	x0, [x0, 16]
	cmp	x0, x1
	beq	.L37
	ldr	x1, [x2, 16]
	add	x1, x1, 1
	b	_ZdlPvm
	.p2align 2,,3
.L37:
	ret
	.cfi_endproc
.LFE12189:
	.size	_ZNSt23_Sp_counted_ptr_inplaceIN7openpal6Logger8SettingsESaIS2_ELN9__gnu_cxx12_Lock_policyE2EE10_M_disposeEv, .-_ZNSt23_Sp_counted_ptr_inplaceIN7openpal6Logger8SettingsESaIS2_ELN9__gnu_cxx12_Lock_policyE2EE10_M_disposeEv
	.section	.text._ZN4asio6detail15task_io_service16shutdown_serviceEv,"axG",@progbits,_ZN4asio6detail15task_io_service16shutdown_serviceEv,comdat
	.align	2
	.p2align 4,,11
	.weak	_ZN4asio6detail15task_io_service16shutdown_serviceEv
	.type	_ZN4asio6detail15task_io_service16shutdown_serviceEv, %function
_ZN4asio6detail15task_io_service16shutdown_serviceEv:
.LFB3512:
	.cfi_startproc
	stp	x29, x30, [sp, -96]!
	.cfi_def_cfa_offset 96
	.cfi_offset 29, -96
	.cfi_offset 30, -88
	adrp	x1, :got:__stack_chk_guard
	mov	x29, sp
	ldr	x1, [x1, #:got_lo12:__stack_chk_guard]
	stp	x19, x20, [sp, 16]
	.cfi_offset 19, -80
	.cfi_offset 20, -72
	add	x19, x0, 48
	stp	x21, x22, [sp, 32]
	.cfi_offset 21, -64
	.cfi_offset 22, -56
	mov	x22, x0
	add	x20, x22, 200
	stp	x23, x24, [sp, 48]
	.cfi_offset 23, -48
	.cfi_offset 24, -40
	mov	x0, x19
	add	x23, sp, 72
	ldr	x2, [x1]
	str	x2, [sp, 88]
	mov	x2, 0
	add	x21, x22, 160
	bl	pthread_mutex_lock
	mov	w0, 1
	strb	w0, [x22, 217]
	mov	x0, x19
	bl	pthread_mutex_unlock
	ldr	x19, [x20]
.L44:
	cbz	x19, .L48
	.p2align 3,,7
.L45:
	ldr	x1, [x19]
	str	x1, [x20]
	cbz	x1, .L49
	str	xzr, [x19]
	cmp	x19, x21
	bne	.L42
.L43:
	mov	x19, x1
	cbnz	x19, .L45
.L48:
	adrp	x0, :got:__stack_chk_guard
	str	xzr, [x22, 152]
	ldr	x0, [x0, #:got_lo12:__stack_chk_guard]
	ldr	x2, [sp, 88]
	ldr	x1, [x0]
	subs	x2, x2, x1
	mov	x1, 0
	bne	.L50
	ldp	x19, x20, [sp, 16]
	ldp	x21, x22, [sp, 32]
	ldp	x23, x24, [sp, 48]
	ldp	x29, x30, [sp], 96
	.cfi_remember_state
	.cfi_restore 30
	.cfi_restore 29
	.cfi_restore 23
	.cfi_restore 24
	.cfi_restore 21
	.cfi_restore 22
	.cfi_restore 19
	.cfi_restore 20
	.cfi_def_cfa_offset 0
	ret
	.p2align 2,,3
.L49:
	.cfi_restore_state
	str	xzr, [x20, 8]
	str	xzr, [x19]
	cmp	x19, x21
	beq	.L43
.L42:
	ldr	x24, [x19, 8]
	str	wzr, [sp, 72]
	bl	_ZNSt3_V215system_categoryEv
	str	x0, [sp, 80]
	mov	x1, x19
	mov	x2, x23
	mov	x3, 0
	mov	x0, 0
	blr	x24
	ldr	x19, [x20]
	b	.L44
.L50:
	bl	__stack_chk_fail
	.cfi_endproc
.LFE3512:
	.size	_ZN4asio6detail15task_io_service16shutdown_serviceEv, .-_ZN4asio6detail15task_io_service16shutdown_serviceEv
	.section	.text._ZN4asio6detail15system_categoryD2Ev,"axG",@progbits,_ZN4asio6detail15system_categoryD5Ev,comdat
	.align	2
	.p2align 4,,11
	.weak	_ZN4asio6detail15system_categoryD2Ev
	.type	_ZN4asio6detail15system_categoryD2Ev, %function
_ZN4asio6detail15system_categoryD2Ev:
.LFB12059:
	.cfi_startproc
	adrp	x1, :got:_ZTVN4asio6detail15system_categoryE
	ldr	x1, [x1, #:got_lo12:_ZTVN4asio6detail15system_categoryE]
	add	x1, x1, 16
	str	x1, [x0]
	b	_ZNSt3_V214error_categoryD2Ev
	.cfi_endproc
.LFE12059:
	.size	_ZN4asio6detail15system_categoryD2Ev, .-_ZN4asio6detail15system_categoryD2Ev
	.weak	_ZN4asio6detail15system_categoryD1Ev
	.set	_ZN4asio6detail15system_categoryD1Ev,_ZN4asio6detail15system_categoryD2Ev
	.section	.text._ZN4asio6detail15system_categoryD0Ev,"axG",@progbits,_ZN4asio6detail15system_categoryD5Ev,comdat
	.align	2
	.p2align 4,,11
	.weak	_ZN4asio6detail15system_categoryD0Ev
	.type	_ZN4asio6detail15system_categoryD0Ev, %function
_ZN4asio6detail15system_categoryD0Ev:
.LFB12061:
	.cfi_startproc
	stp	x29, x30, [sp, -32]!
	.cfi_def_cfa_offset 32
	.cfi_offset 29, -32
	.cfi_offset 30, -24
	adrp	x1, :got:_ZTVN4asio6detail15system_categoryE
	mov	x29, sp
	ldr	x1, [x1, #:got_lo12:_ZTVN4asio6detail15system_categoryE]
	str	x19, [sp, 16]
	.cfi_offset 19, -16
	mov	x19, x0
	add	x1, x1, 16
	str	x1, [x0]
	bl	_ZNSt3_V214error_categoryD2Ev
	mov	x0, x19
	mov	x1, 8
	ldr	x19, [sp, 16]
	ldp	x29, x30, [sp], 32
	.cfi_restore 30
	.cfi_restore 29
	.cfi_restore 19
	.cfi_def_cfa_offset 0
	b	_ZdlPvm
	.cfi_endproc
.LFE12061:
	.size	_ZN4asio6detail15system_categoryD0Ev, .-_ZN4asio6detail15system_categoryD0Ev
	.section	.text._ZN4asio5error6detail14netdb_categoryD2Ev,"axG",@progbits,_ZN4asio5error6detail14netdb_categoryD5Ev,comdat
	.align	2
	.p2align 4,,11
	.weak	_ZN4asio5error6detail14netdb_categoryD2Ev
	.type	_ZN4asio5error6detail14netdb_categoryD2Ev, %function
_ZN4asio5error6detail14netdb_categoryD2Ev:
.LFB12055:
	.cfi_startproc
	adrp	x1, :got:_ZTVN4asio5error6detail14netdb_categoryE
	ldr	x1, [x1, #:got_lo12:_ZTVN4asio5error6detail14netdb_categoryE]
	add	x1, x1, 16
	str	x1, [x0]
	b	_ZNSt3_V214error_categoryD2Ev
	.cfi_endproc
.LFE12055:
	.size	_ZN4asio5error6detail14netdb_categoryD2Ev, .-_ZN4asio5error6detail14netdb_categoryD2Ev
	.weak	_ZN4asio5error6detail14netdb_categoryD1Ev
	.set	_ZN4asio5error6detail14netdb_categoryD1Ev,_ZN4asio5error6detail14netdb_categoryD2Ev
	.section	.text._ZN4asio5error6detail14netdb_categoryD0Ev,"axG",@progbits,_ZN4asio5error6detail14netdb_categoryD5Ev,comdat
	.align	2
	.p2align 4,,11
	.weak	_ZN4asio5error6detail14netdb_categoryD0Ev
	.type	_ZN4asio5error6detail14netdb_categoryD0Ev, %function
_ZN4asio5error6detail14netdb_categoryD0Ev:
.LFB12057:
	.cfi_startproc
	stp	x29, x30, [sp, -32]!
	.cfi_def_cfa_offset 32
	.cfi_offset 29, -32
	.cfi_offset 30, -24
	adrp	x1, :got:_ZTVN4asio5error6detail14netdb_categoryE
	mov	x29, sp
	ldr	x1, [x1, #:got_lo12:_ZTVN4asio5error6detail14netdb_categoryE]
	str	x19, [sp, 16]
	.cfi_offset 19, -16
	mov	x19, x0
	add	x1, x1, 16
	str	x1, [x0]
	bl	_ZNSt3_V214error_categoryD2Ev
	mov	x0, x19
	mov	x1, 8
	ldr	x19, [sp, 16]
	ldp	x29, x30, [sp], 32
	.cfi_restore 30
	.cfi_restore 29
	.cfi_restore 19
	.cfi_def_cfa_offset 0
	b	_ZdlPvm
	.cfi_endproc
.LFE12057:
	.size	_ZN4asio5error6detail14netdb_categoryD0Ev, .-_ZN4asio5error6detail14netdb_categoryD0Ev
	.section	.text._ZN4asio5error6detail17addrinfo_categoryD2Ev,"axG",@progbits,_ZN4asio5error6detail17addrinfo_categoryD5Ev,comdat
	.align	2
	.p2align 4,,11
	.weak	_ZN4asio5error6detail17addrinfo_categoryD2Ev
	.type	_ZN4asio5error6detail17addrinfo_categoryD2Ev, %function
_ZN4asio5error6detail17addrinfo_categoryD2Ev:
.LFB12051:
	.cfi_startproc
	adrp	x1, :got:_ZTVN4asio5error6detail17addrinfo_categoryE
	ldr	x1, [x1, #:got_lo12:_ZTVN4asio5error6detail17addrinfo_categoryE]
	add	x1, x1, 16
	str	x1, [x0]
	b	_ZNSt3_V214error_categoryD2Ev
	.cfi_endproc
.LFE12051:
	.size	_ZN4asio5error6detail17addrinfo_categoryD2Ev, .-_ZN4asio5error6detail17addrinfo_categoryD2Ev
	.weak	_ZN4asio5error6detail17addrinfo_categoryD1Ev
	.set	_ZN4asio5error6detail17addrinfo_categoryD1Ev,_ZN4asio5error6detail17addrinfo_categoryD2Ev
	.section	.text._ZN4asio5error6detail17addrinfo_categoryD0Ev,"axG",@progbits,_ZN4asio5error6detail17addrinfo_categoryD5Ev,comdat
	.align	2
	.p2align 4,,11
	.weak	_ZN4asio5error6detail17addrinfo_categoryD0Ev
	.type	_ZN4asio5error6detail17addrinfo_categoryD0Ev, %function
_ZN4asio5error6detail17addrinfo_categoryD0Ev:
.LFB12053:
	.cfi_startproc
	stp	x29, x30, [sp, -32]!
	.cfi_def_cfa_offset 32
	.cfi_offset 29, -32
	.cfi_offset 30, -24
	adrp	x1, :got:_ZTVN4asio5error6detail17addrinfo_categoryE
	mov	x29, sp
	ldr	x1, [x1, #:got_lo12:_ZTVN4asio5error6detail17addrinfo_categoryE]
	str	x19, [sp, 16]
	.cfi_offset 19, -16
	mov	x19, x0
	add	x1, x1, 16
	str	x1, [x0]
	bl	_ZNSt3_V214error_categoryD2Ev
	mov	x0, x19
	mov	x1, 8
	ldr	x19, [sp, 16]
	ldp	x29, x30, [sp], 32
	.cfi_restore 30
	.cfi_restore 29
	.cfi_restore 19
	.cfi_def_cfa_offset 0
	b	_ZdlPvm
	.cfi_endproc
.LFE12053:
	.size	_ZN4asio5error6detail17addrinfo_categoryD0Ev, .-_ZN4asio5error6detail17addrinfo_categoryD0Ev
	.section	.text._ZN4asio5error6detail13misc_categoryD2Ev,"axG",@progbits,_ZN4asio5error6detail13misc_categoryD5Ev,comdat
	.align	2
	.p2align 4,,11
	.weak	_ZN4asio5error6detail13misc_categoryD2Ev
	.type	_ZN4asio5error6detail13misc_categoryD2Ev, %function
_ZN4asio5error6detail13misc_categoryD2Ev:
.LFB12047:
	.cfi_startproc
	adrp	x1, :got:_ZTVN4asio5error6detail13misc_categoryE
	ldr	x1, [x1, #:got_lo12:_ZTVN4asio5error6detail13misc_categoryE]
	add	x1, x1, 16
	str	x1, [x0]
	b	_ZNSt3_V214error_categoryD2Ev
	.cfi_endproc
.LFE12047:
	.size	_ZN4asio5error6detail13misc_categoryD2Ev, .-_ZN4asio5error6detail13misc_categoryD2Ev
	.weak	_ZN4asio5error6detail13misc_categoryD1Ev
	.set	_ZN4asio5error6detail13misc_categoryD1Ev,_ZN4asio5error6detail13misc_categoryD2Ev
	.section	.text._ZN4asio5error6detail13misc_categoryD0Ev,"axG",@progbits,_ZN4asio5error6detail13misc_categoryD5Ev,comdat
	.align	2
	.p2align 4,,11
	.weak	_ZN4asio5error6detail13misc_categoryD0Ev
	.type	_ZN4asio5error6detail13misc_categoryD0Ev, %function
_ZN4asio5error6detail13misc_categoryD0Ev:
.LFB12049:
	.cfi_startproc
	stp	x29, x30, [sp, -32]!
	.cfi_def_cfa_offset 32
	.cfi_offset 29, -32
	.cfi_offset 30, -24
	adrp	x1, :got:_ZTVN4asio5error6detail13misc_categoryE
	mov	x29, sp
	ldr	x1, [x1, #:got_lo12:_ZTVN4asio5error6detail13misc_categoryE]
	str	x19, [sp, 16]
	.cfi_offset 19, -16
	mov	x19, x0
	add	x1, x1, 16
	str	x1, [x0]
	bl	_ZNSt3_V214error_categoryD2Ev
	mov	x0, x19
	mov	x1, 8
	ldr	x19, [sp, 16]
	ldp	x29, x30, [sp], 32
	.cfi_restore 30
	.cfi_restore 29
	.cfi_restore 19
	.cfi_def_cfa_offset 0
	b	_ZdlPvm
	.cfi_endproc
.LFE12049:
	.size	_ZN4asio5error6detail13misc_categoryD0Ev, .-_ZN4asio5error6detail13misc_categoryD0Ev
	.section	.text._ZN4asio6detail7tss_ptrINS0_10call_stackINS0_15task_io_serviceENS0_27task_io_service_thread_infoEE7contextEED2Ev,"axG",@progbits,_ZN4asio6detail7tss_ptrINS0_10call_stackINS0_15task_io_serviceENS0_27task_io_service_thread_infoEE7contextEED5Ev,comdat
	.align	2
	.p2align 4,,11
	.weak	_ZN4asio6detail7tss_ptrINS0_10call_stackINS0_15task_io_serviceENS0_27task_io_service_thread_infoEE7contextEED2Ev
	.type	_ZN4asio6detail7tss_ptrINS0_10call_stackINS0_15task_io_serviceENS0_27task_io_service_thread_infoEE7contextEED2Ev, %function
_ZN4asio6detail7tss_ptrINS0_10call_stackINS0_15task_io_serviceENS0_27task_io_service_thread_infoEE7contextEED2Ev:
.LFB12080:
	.cfi_startproc
	ldr	w0, [x0]
	b	pthread_key_delete
	.cfi_endproc
.LFE12080:
	.size	_ZN4asio6detail7tss_ptrINS0_10call_stackINS0_15task_io_serviceENS0_27task_io_service_thread_infoEE7contextEED2Ev, .-_ZN4asio6detail7tss_ptrINS0_10call_stackINS0_15task_io_serviceENS0_27task_io_service_thread_infoEE7contextEED2Ev
	.weak	_ZN4asio6detail7tss_ptrINS0_10call_stackINS0_15task_io_serviceENS0_27task_io_service_thread_infoEE7contextEED1Ev
	.set	_ZN4asio6detail7tss_ptrINS0_10call_stackINS0_15task_io_serviceENS0_27task_io_service_thread_infoEE7contextEED1Ev,_ZN4asio6detail7tss_ptrINS0_10call_stackINS0_15task_io_serviceENS0_27task_io_service_thread_infoEE7contextEED2Ev
	.section	.text._ZN4asio6detail7tss_ptrINS0_10call_stackINS0_14strand_service11strand_implEhE7contextEED2Ev,"axG",@progbits,_ZN4asio6detail7tss_ptrINS0_10call_stackINS0_14strand_service11strand_implEhE7contextEED5Ev,comdat
	.align	2
	.p2align 4,,11
	.weak	_ZN4asio6detail7tss_ptrINS0_10call_stackINS0_14strand_service11strand_implEhE7contextEED2Ev
	.type	_ZN4asio6detail7tss_ptrINS0_10call_stackINS0_14strand_service11strand_implEhE7contextEED2Ev, %function
_ZN4asio6detail7tss_ptrINS0_10call_stackINS0_14strand_service11strand_implEhE7contextEED2Ev:
.LFB12089:
	.cfi_startproc
	ldr	w0, [x0]
	b	pthread_key_delete
	.cfi_endproc
.LFE12089:
	.size	_ZN4asio6detail7tss_ptrINS0_10call_stackINS0_14strand_service11strand_implEhE7contextEED2Ev, .-_ZN4asio6detail7tss_ptrINS0_10call_stackINS0_14strand_service11strand_implEhE7contextEED2Ev
	.weak	_ZN4asio6detail7tss_ptrINS0_10call_stackINS0_14strand_service11strand_implEhE7contextEED1Ev
	.set	_ZN4asio6detail7tss_ptrINS0_10call_stackINS0_14strand_service11strand_implEhE7contextEED1Ev,_ZN4asio6detail7tss_ptrINS0_10call_stackINS0_14strand_service11strand_implEhE7contextEED2Ev
	.section	.text._ZNSt23_Sp_counted_ptr_inplaceIN8asiodnp315MasterTCPServerESaIS1_ELN9__gnu_cxx12_Lock_policyE2EE14_M_get_deleterERKSt9type_info,"axG",@progbits,_ZNSt23_Sp_counted_ptr_inplaceIN8asiodnp315MasterTCPServerESaIS1_ELN9__gnu_cxx12_Lock_policyE2EE14_M_get_deleterERKSt9type_info,comdat
	.align	2
	.p2align 4,,11
	.weak	_ZNSt23_Sp_counted_ptr_inplaceIN8asiodnp315MasterTCPServerESaIS1_ELN9__gnu_cxx12_Lock_policyE2EE14_M_get_deleterERKSt9type_info
	.type	_ZNSt23_Sp_counted_ptr_inplaceIN8asiodnp315MasterTCPServerESaIS1_ELN9__gnu_cxx12_Lock_policyE2EE14_M_get_deleterERKSt9type_info, %function
_ZNSt23_Sp_counted_ptr_inplaceIN8asiodnp315MasterTCPServerESaIS1_ELN9__gnu_cxx12_Lock_policyE2EE14_M_get_deleterERKSt9type_info:
.LFB12142:
	.cfi_startproc
	stp	x29, x30, [sp, -32]!
	.cfi_def_cfa_offset 32
	.cfi_offset 29, -32
	.cfi_offset 30, -24
	adrp	x2, :got:_ZZNSt19_Sp_make_shared_tag5_S_tiEvE5__tag
	mov	x29, sp
	ldr	x2, [x2, #:got_lo12:_ZZNSt19_Sp_make_shared_tag5_S_tiEvE5__tag]
	str	x19, [sp, 16]
	.cfi_offset 19, -16
	add	x19, x0, 16
	cmp	x1, x2
	beq	.L65
	adrp	x2, :got:_ZTSSt19_Sp_make_shared_tag
	ldr	x0, [x1, 8]
	ldr	x1, [x2, #:got_lo12:_ZTSSt19_Sp_make_shared_tag]
	cmp	x0, x1
	beq	.L65
	ldrb	w2, [x0]
	cmp	w2, 42
	beq	.L67
	bl	strcmp
	cmp	w0, 0
	csel	x19, x19, xzr, eq
.L65:
	mov	x0, x19
	ldr	x19, [sp, 16]
	ldp	x29, x30, [sp], 32
	.cfi_remember_state
	.cfi_restore 30
	.cfi_restore 29
	.cfi_restore 19
	.cfi_def_cfa_offset 0
	ret
	.p2align 2,,3
.L67:
	.cfi_restore_state
	mov	x19, 0
	mov	x0, x19
	ldr	x19, [sp, 16]
	ldp	x29, x30, [sp], 32
	.cfi_restore 30
	.cfi_restore 29
	.cfi_restore 19
	.cfi_def_cfa_offset 0
	ret
	.cfi_endproc
.LFE12142:
	.size	_ZNSt23_Sp_counted_ptr_inplaceIN8asiodnp315MasterTCPServerESaIS1_ELN9__gnu_cxx12_Lock_policyE2EE14_M_get_deleterERKSt9type_info, .-_ZNSt23_Sp_counted_ptr_inplaceIN8asiodnp315MasterTCPServerESaIS1_ELN9__gnu_cxx12_Lock_policyE2EE14_M_get_deleterERKSt9type_info
	.section	.text._ZNSt23_Sp_counted_ptr_inplaceIN7asiopal2IOESaIS1_ELN9__gnu_cxx12_Lock_policyE2EE10_M_disposeEv,"axG",@progbits,_ZNSt23_Sp_counted_ptr_inplaceIN7asiopal2IOESaIS1_ELN9__gnu_cxx12_Lock_policyE2EE10_M_disposeEv,comdat
	.align	2
	.p2align 4,,11
	.weak	_ZNSt23_Sp_counted_ptr_inplaceIN7asiopal2IOESaIS1_ELN9__gnu_cxx12_Lock_policyE2EE10_M_disposeEv
	.type	_ZNSt23_Sp_counted_ptr_inplaceIN7asiopal2IOESaIS1_ELN9__gnu_cxx12_Lock_policyE2EE10_M_disposeEv, %function
_ZNSt23_Sp_counted_ptr_inplaceIN7asiopal2IOESaIS1_ELN9__gnu_cxx12_Lock_policyE2EE10_M_disposeEv:
.LFB12098:
	.cfi_startproc
	.cfi_personality 0x9b,DW.ref.__gxx_personality_v0
	.cfi_lsda 0x1b,.LLSDA12098
	ldr	x2, [x0, 16]
	adrp	x1, :got:_ZN7asiopal2IOD2Ev
	ldr	x1, [x1, #:got_lo12:_ZN7asiopal2IOD2Ev]
	ldr	x2, [x2]
	cmp	x2, x1
	bne	.L71
	stp	x29, x30, [sp, -32]!
	.cfi_def_cfa_offset 32
	.cfi_offset 29, -32
	.cfi_offset 30, -24
	adrp	x1, :got:_ZTVN7asiopal2IOE
	mov	x29, sp
	ldr	x1, [x1, #:got_lo12:_ZTVN7asiopal2IOE]
	stp	x19, x20, [sp, 16]
	.cfi_offset 19, -16
	.cfi_offset 20, -8
	ldr	x20, [x0, 24]
	add	x1, x1, 16
	str	x1, [x0, 16]
	cbz	x20, .L70
	ldr	x19, [x20, 64]
	cbz	x19, .L73
	.p2align 3,,7
.L74:
	ldr	x1, [x19]
	mov	x0, x19
	ldr	x1, [x1, 16]
	blr	x1
	ldr	x19, [x19, 32]
	cbnz	x19, .L74
	ldr	x19, [x20, 64]
	cbz	x19, .L73
	.p2align 3,,7
.L75:
	ldr	x1, [x19]
	mov	x0, x19
	ldr	x19, [x19, 32]
	ldr	x1, [x1, 8]
	blr	x1
	str	x19, [x20, 64]
	cbnz	x19, .L75
.L73:
	add	x0, x20, 8
	bl	pthread_mutex_destroy
	mov	x0, x20
	mov	x1, 72
	ldp	x19, x20, [sp, 16]
	ldp	x29, x30, [sp], 32
	.cfi_remember_state
	.cfi_restore 30
	.cfi_restore 29
	.cfi_restore 19
	.cfi_restore 20
	.cfi_def_cfa_offset 0
	b	_ZdlPvm
	.p2align 2,,3
.L70:
	.cfi_restore_state
	ldp	x19, x20, [sp, 16]
	ldp	x29, x30, [sp], 32
	.cfi_restore 30
	.cfi_restore 29
	.cfi_restore 19
	.cfi_restore 20
	.cfi_def_cfa_offset 0
	ret
	.p2align 2,,3
.L71:
	add	x3, x0, 16
	mov	x16, x2
	mov	x0, x3
	br	x16
	.cfi_endproc
.LFE12098:
	.global	__gxx_personality_v0
	.section	.gcc_except_table._ZNSt23_Sp_counted_ptr_inplaceIN7asiopal2IOESaIS1_ELN9__gnu_cxx12_Lock_policyE2EE10_M_disposeEv,"aG",@progbits,_ZNSt23_Sp_counted_ptr_inplaceIN7asiopal2IOESaIS1_ELN9__gnu_cxx12_Lock_policyE2EE10_M_disposeEv,comdat
.LLSDA12098:
	.byte	0xff
	.byte	0xff
	.byte	0x1
	.uleb128 .LLSDACSE12098-.LLSDACSB12098
.LLSDACSB12098:
.LLSDACSE12098:
	.section	.text._ZNSt23_Sp_counted_ptr_inplaceIN7asiopal2IOESaIS1_ELN9__gnu_cxx12_Lock_policyE2EE10_M_disposeEv,"axG",@progbits,_ZNSt23_Sp_counted_ptr_inplaceIN7asiopal2IOESaIS1_ELN9__gnu_cxx12_Lock_policyE2EE10_M_disposeEv,comdat
	.size	_ZNSt23_Sp_counted_ptr_inplaceIN7asiopal2IOESaIS1_ELN9__gnu_cxx12_Lock_policyE2EE10_M_disposeEv, .-_ZNSt23_Sp_counted_ptr_inplaceIN7asiopal2IOESaIS1_ELN9__gnu_cxx12_Lock_policyE2EE10_M_disposeEv
	.section	.text._ZN4asio6detail15task_io_serviceD2Ev,"axG",@progbits,_ZN4asio6detail15task_io_serviceD5Ev,comdat
	.align	2
	.p2align 4,,11
	.weak	_ZN4asio6detail15task_io_serviceD2Ev
	.type	_ZN4asio6detail15task_io_serviceD2Ev, %function
_ZN4asio6detail15task_io_serviceD2Ev:
.LFB12035:
	.cfi_startproc
	.cfi_personality 0x9b,DW.ref.__gxx_personality_v0
	.cfi_lsda 0x1b,.LLSDA12035
	stp	x29, x30, [sp, -96]!
	.cfi_def_cfa_offset 96
	.cfi_offset 29, -96
	.cfi_offset 30, -88
	adrp	x1, :got:__stack_chk_guard
	mov	x29, sp
	ldr	x1, [x1, #:got_lo12:__stack_chk_guard]
	stp	x21, x22, [sp, 32]
	.cfi_offset 21, -64
	.cfi_offset 22, -56
	mov	x22, x0
	adrp	x0, :got:_ZTVN4asio6detail15task_io_serviceE
	ldr	x2, [x1]
	str	x2, [sp, 88]
	mov	x2, 0
	ldr	x0, [x0, #:got_lo12:_ZTVN4asio6detail15task_io_serviceE]
	ldr	x1, [x22, 200]
	add	x0, x0, 16
	str	x0, [x22]
	str	x1, [sp, 56]
	cbz	x1, .L89
	stp	x19, x20, [sp, 16]
	.cfi_offset 20, -72
	.cfi_offset 19, -80
	bl	_ZNSt3_V215system_categoryEv
	add	x19, x22, 200
	mov	x20, x0
	add	x21, sp, 72
	ldr	x1, [sp, 56]
	b	.L92
	.p2align 2,,3
.L90:
	ldr	x4, [x1, 8]
	str	xzr, [x1]
	str	wzr, [sp, 72]
	mov	x2, x21
	str	x20, [sp, 80]
	mov	x3, 0
	mov	x0, 0
	blr	x4
	ldr	x1, [x19]
	cbz	x1, .L108
.L92:
	ldr	x3, [x1]
	str	x3, [x19]
	cbnz	x3, .L90
	ldr	x4, [x1, 8]
	str	xzr, [x19, 8]
	str	xzr, [x1]
	mov	x2, x21
	str	wzr, [sp, 72]
	mov	x0, 0
	str	x20, [sp, 80]
	blr	x4
	ldr	x1, [x19]
	cbnz	x1, .L92
.L108:
	ldp	x19, x20, [sp, 16]
	.cfi_restore 20
	.cfi_restore 19
.L89:
	add	x0, x22, 96
	bl	pthread_cond_destroy
	adrp	x0, :got:__stack_chk_guard
	ldr	x0, [x0, #:got_lo12:__stack_chk_guard]
	ldr	x2, [sp, 88]
	ldr	x1, [x0]
	subs	x2, x2, x1
	mov	x1, 0
	bne	.L109
	add	x0, x22, 48
	ldp	x21, x22, [sp, 32]
	ldp	x29, x30, [sp], 96
	.cfi_remember_state
	.cfi_restore 30
	.cfi_restore 29
	.cfi_restore 21
	.cfi_restore 22
	.cfi_def_cfa_offset 0
	b	pthread_mutex_destroy
.L109:
	.cfi_restore_state
	stp	x19, x20, [sp, 16]
	.cfi_offset 20, -72
	.cfi_offset 19, -80
	bl	__stack_chk_fail
	.cfi_endproc
.LFE12035:
	.section	.gcc_except_table._ZN4asio6detail15task_io_serviceD2Ev,"aG",@progbits,_ZN4asio6detail15task_io_serviceD5Ev,comdat
.LLSDA12035:
	.byte	0xff
	.byte	0xff
	.byte	0x1
	.uleb128 .LLSDACSE12035-.LLSDACSB12035
.LLSDACSB12035:
.LLSDACSE12035:
	.section	.text._ZN4asio6detail15task_io_serviceD2Ev,"axG",@progbits,_ZN4asio6detail15task_io_serviceD5Ev,comdat
	.size	_ZN4asio6detail15task_io_serviceD2Ev, .-_ZN4asio6detail15task_io_serviceD2Ev
	.weak	_ZN4asio6detail15task_io_serviceD1Ev
	.set	_ZN4asio6detail15task_io_serviceD1Ev,_ZN4asio6detail15task_io_serviceD2Ev
	.section	.text._ZN7asiopal2IOD2Ev,"axG",@progbits,_ZN7asiopal2IOD5Ev,comdat
	.align	2
	.p2align 4,,11
	.weak	_ZN7asiopal2IOD2Ev
	.type	_ZN7asiopal2IOD2Ev, %function
_ZN7asiopal2IOD2Ev:
.LFB6547:
	.cfi_startproc
	.cfi_personality 0x9b,DW.ref.__gxx_personality_v0
	.cfi_lsda 0x1b,.LLSDA6547
	stp	x29, x30, [sp, -32]!
	.cfi_def_cfa_offset 32
	.cfi_offset 29, -32
	.cfi_offset 30, -24
	adrp	x1, :got:_ZTVN7asiopal2IOE
	mov	x29, sp
	ldr	x1, [x1, #:got_lo12:_ZTVN7asiopal2IOE]
	stp	x19, x20, [sp, 16]
	.cfi_offset 19, -16
	.cfi_offset 20, -8
	ldr	x20, [x0, 8]
	add	x1, x1, 16
	str	x1, [x0]
	cbz	x20, .L110
	ldr	x19, [x20, 64]
	cbz	x19, .L112
	.p2align 3,,7
.L113:
	ldr	x1, [x19]
	mov	x0, x19
	ldr	x1, [x1, 16]
	blr	x1
	ldr	x19, [x19, 32]
	cbnz	x19, .L113
	ldr	x19, [x20, 64]
	cbz	x19, .L112
	.p2align 3,,7
.L114:
	ldr	x1, [x19]
	mov	x0, x19
	ldr	x19, [x19, 32]
	ldr	x1, [x1, 8]
	blr	x1
	str	x19, [x20, 64]
	cbnz	x19, .L114
.L112:
	add	x0, x20, 8
	bl	pthread_mutex_destroy
	mov	x0, x20
	mov	x1, 72
	ldp	x19, x20, [sp, 16]
	ldp	x29, x30, [sp], 32
	.cfi_remember_state
	.cfi_restore 30
	.cfi_restore 29
	.cfi_restore 19
	.cfi_restore 20
	.cfi_def_cfa_offset 0
	b	_ZdlPvm
	.p2align 2,,3
.L110:
	.cfi_restore_state
	ldp	x19, x20, [sp, 16]
	ldp	x29, x30, [sp], 32
	.cfi_restore 30
	.cfi_restore 29
	.cfi_restore 19
	.cfi_restore 20
	.cfi_def_cfa_offset 0
	ret
	.cfi_endproc
.LFE6547:
	.section	.gcc_except_table._ZN7asiopal2IOD2Ev,"aG",@progbits,_ZN7asiopal2IOD5Ev,comdat
.LLSDA6547:
	.byte	0xff
	.byte	0xff
	.byte	0x1
	.uleb128 .LLSDACSE6547-.LLSDACSB6547
.LLSDACSB6547:
.LLSDACSE6547:
	.section	.text._ZN7asiopal2IOD2Ev,"axG",@progbits,_ZN7asiopal2IOD5Ev,comdat
	.size	_ZN7asiopal2IOD2Ev, .-_ZN7asiopal2IOD2Ev
	.weak	_ZN7asiopal2IOD1Ev
	.set	_ZN7asiopal2IOD1Ev,_ZN7asiopal2IOD2Ev
	.section	.text._ZN4asio6detail15task_io_serviceD0Ev,"axG",@progbits,_ZN4asio6detail15task_io_serviceD5Ev,comdat
	.align	2
	.p2align 4,,11
	.weak	_ZN4asio6detail15task_io_serviceD0Ev
	.type	_ZN4asio6detail15task_io_serviceD0Ev, %function
_ZN4asio6detail15task_io_serviceD0Ev:
.LFB12037:
	.cfi_startproc
	.cfi_personality 0x9b,DW.ref.__gxx_personality_v0
	.cfi_lsda 0x1b,.LLSDA12037
	stp	x29, x30, [sp, -96]!
	.cfi_def_cfa_offset 96
	.cfi_offset 29, -96
	.cfi_offset 30, -88
	adrp	x1, :got:__stack_chk_guard
	mov	x29, sp
	ldr	x1, [x1, #:got_lo12:__stack_chk_guard]
	stp	x21, x22, [sp, 32]
	.cfi_offset 21, -64
	.cfi_offset 22, -56
	mov	x22, x0
	adrp	x0, :got:_ZTVN4asio6detail15task_io_serviceE
	ldr	x2, [x1]
	str	x2, [sp, 88]
	mov	x2, 0
	ldr	x0, [x0, #:got_lo12:_ZTVN4asio6detail15task_io_serviceE]
	ldr	x1, [x22, 200]
	add	x0, x0, 16
	str	x0, [x22]
	str	x1, [sp, 56]
	cbz	x1, .L125
	stp	x19, x20, [sp, 16]
	.cfi_offset 20, -72
	.cfi_offset 19, -80
	bl	_ZNSt3_V215system_categoryEv
	add	x19, x22, 200
	mov	x20, x0
	add	x21, sp, 72
	ldr	x1, [sp, 56]
	b	.L128
	.p2align 2,,3
.L126:
	ldr	x4, [x1, 8]
	str	xzr, [x1]
	str	wzr, [sp, 72]
	mov	x2, x21
	str	x20, [sp, 80]
	mov	x3, 0
	mov	x0, 0
	blr	x4
	ldr	x1, [x19]
	cbz	x1, .L144
.L128:
	ldr	x3, [x1]
	str	x3, [x19]
	cbnz	x3, .L126
	ldr	x4, [x1, 8]
	str	xzr, [x19, 8]
	str	xzr, [x1]
	mov	x2, x21
	str	wzr, [sp, 72]
	mov	x0, 0
	str	x20, [sp, 80]
	blr	x4
	ldr	x1, [x19]
	cbnz	x1, .L128
.L144:
	ldp	x19, x20, [sp, 16]
	.cfi_restore 20
	.cfi_restore 19
.L125:
	add	x0, x22, 96
	bl	pthread_cond_destroy
	add	x0, x22, 48
	bl	pthread_mutex_destroy
	adrp	x0, :got:__stack_chk_guard
	ldr	x0, [x0, #:got_lo12:__stack_chk_guard]
	ldr	x2, [sp, 88]
	ldr	x1, [x0]
	subs	x2, x2, x1
	mov	x1, 0
	bne	.L145
	mov	x0, x22
	mov	x1, 224
	ldp	x21, x22, [sp, 32]
	ldp	x29, x30, [sp], 96
	.cfi_remember_state
	.cfi_restore 30
	.cfi_restore 29
	.cfi_restore 21
	.cfi_restore 22
	.cfi_def_cfa_offset 0
	b	_ZdlPvm
.L145:
	.cfi_restore_state
	stp	x19, x20, [sp, 16]
	.cfi_offset 20, -72
	.cfi_offset 19, -80
	bl	__stack_chk_fail
	.cfi_endproc
.LFE12037:
	.section	.gcc_except_table._ZN4asio6detail15task_io_serviceD0Ev,"aG",@progbits,_ZN4asio6detail15task_io_serviceD5Ev,comdat
.LLSDA12037:
	.byte	0xff
	.byte	0xff
	.byte	0x1
	.uleb128 .LLSDACSE12037-.LLSDACSB12037
.LLSDACSB12037:
.LLSDACSE12037:
	.section	.text._ZN4asio6detail15task_io_serviceD0Ev,"axG",@progbits,_ZN4asio6detail15task_io_serviceD5Ev,comdat
	.size	_ZN4asio6detail15task_io_serviceD0Ev, .-_ZN4asio6detail15task_io_serviceD0Ev
	.section	.text._ZN7asiopal2IOD0Ev,"axG",@progbits,_ZN7asiopal2IOD5Ev,comdat
	.align	2
	.p2align 4,,11
	.weak	_ZN7asiopal2IOD0Ev
	.type	_ZN7asiopal2IOD0Ev, %function
_ZN7asiopal2IOD0Ev:
.LFB6549:
	.cfi_startproc
	.cfi_personality 0x9b,DW.ref.__gxx_personality_v0
	.cfi_lsda 0x1b,.LLSDA6549
	stp	x29, x30, [sp, -48]!
	.cfi_def_cfa_offset 48
	.cfi_offset 29, -48
	.cfi_offset 30, -40
	adrp	x1, :got:_ZTVN7asiopal2IOE
	mov	x29, sp
	ldr	x1, [x1, #:got_lo12:_ZTVN7asiopal2IOE]
	stp	x19, x20, [sp, 16]
	.cfi_offset 19, -32
	.cfi_offset 20, -24
	ldr	x20, [x0, 8]
	str	x21, [sp, 32]
	.cfi_offset 21, -16
	add	x1, x1, 16
	str	x1, [x0]
	mov	x21, x0
	cbz	x20, .L147
	ldr	x19, [x20, 64]
	cbz	x19, .L148
	.p2align 3,,7
.L149:
	ldr	x1, [x19]
	mov	x0, x19
	ldr	x1, [x1, 16]
	blr	x1
	ldr	x19, [x19, 32]
	cbnz	x19, .L149
	ldr	x19, [x20, 64]
	cbz	x19, .L148
	.p2align 3,,7
.L150:
	ldr	x1, [x19]
	mov	x0, x19
	ldr	x19, [x19, 32]
	ldr	x1, [x1, 8]
	blr	x1
	str	x19, [x20, 64]
	cbnz	x19, .L150
.L148:
	add	x0, x20, 8
	bl	pthread_mutex_destroy
	mov	x0, x20
	mov	x1, 72
	bl	_ZdlPvm
.L147:
	mov	x0, x21
	mov	x1, 24
	ldp	x19, x20, [sp, 16]
	ldr	x21, [sp, 32]
	ldp	x29, x30, [sp], 48
	.cfi_restore 30
	.cfi_restore 29
	.cfi_restore 21
	.cfi_restore 19
	.cfi_restore 20
	.cfi_def_cfa_offset 0
	b	_ZdlPvm
	.cfi_endproc
.LFE6549:
	.section	.gcc_except_table._ZN7asiopal2IOD0Ev,"aG",@progbits,_ZN7asiopal2IOD5Ev,comdat
.LLSDA6549:
	.byte	0xff
	.byte	0xff
	.byte	0x1
	.uleb128 .LLSDACSE6549-.LLSDACSB6549
.LLSDACSB6549:
.LLSDACSE6549:
	.section	.text._ZN7asiopal2IOD0Ev,"axG",@progbits,_ZN7asiopal2IOD5Ev,comdat
	.size	_ZN7asiopal2IOD0Ev, .-_ZN7asiopal2IOD0Ev
	.section	.text._ZNSt23_Sp_counted_ptr_inplaceIN7asiopal2IOESaIS1_ELN9__gnu_cxx12_Lock_policyE2EE14_M_get_deleterERKSt9type_info,"axG",@progbits,_ZNSt23_Sp_counted_ptr_inplaceIN7asiopal2IOESaIS1_ELN9__gnu_cxx12_Lock_policyE2EE14_M_get_deleterERKSt9type_info,comdat
	.align	2
	.p2align 4,,11
	.weak	_ZNSt23_Sp_counted_ptr_inplaceIN7asiopal2IOESaIS1_ELN9__gnu_cxx12_Lock_policyE2EE14_M_get_deleterERKSt9type_info
	.type	_ZNSt23_Sp_counted_ptr_inplaceIN7asiopal2IOESaIS1_ELN9__gnu_cxx12_Lock_policyE2EE14_M_get_deleterERKSt9type_info, %function
_ZNSt23_Sp_counted_ptr_inplaceIN7asiopal2IOESaIS1_ELN9__gnu_cxx12_Lock_policyE2EE14_M_get_deleterERKSt9type_info:
.LFB12100:
	.cfi_startproc
	stp	x29, x30, [sp, -32]!
	.cfi_def_cfa_offset 32
	.cfi_offset 29, -32
	.cfi_offset 30, -24
	adrp	x2, :got:_ZZNSt19_Sp_make_shared_tag5_S_tiEvE5__tag
	mov	x29, sp
	ldr	x2, [x2, #:got_lo12:_ZZNSt19_Sp_make_shared_tag5_S_tiEvE5__tag]
	str	x19, [sp, 16]
	.cfi_offset 19, -16
	add	x19, x0, 16
	cmp	x1, x2
	beq	.L163
	adrp	x2, :got:_ZTSSt19_Sp_make_shared_tag
	ldr	x0, [x1, 8]
	ldr	x1, [x2, #:got_lo12:_ZTSSt19_Sp_make_shared_tag]
	cmp	x0, x1
	beq	.L163
	ldrb	w2, [x0]
	cmp	w2, 42
	beq	.L165
	bl	strcmp
	cmp	w0, 0
	csel	x19, x19, xzr, eq
.L163:
	mov	x0, x19
	ldr	x19, [sp, 16]
	ldp	x29, x30, [sp], 32
	.cfi_remember_state
	.cfi_restore 30
	.cfi_restore 29
	.cfi_restore 19
	.cfi_def_cfa_offset 0
	ret
	.p2align 2,,3
.L165:
	.cfi_restore_state
	mov	x19, 0
	mov	x0, x19
	ldr	x19, [sp, 16]
	ldp	x29, x30, [sp], 32
	.cfi_restore 30
	.cfi_restore 29
	.cfi_restore 19
	.cfi_def_cfa_offset 0
	ret
	.cfi_endproc
.LFE12100:
	.size	_ZNSt23_Sp_counted_ptr_inplaceIN7asiopal2IOESaIS1_ELN9__gnu_cxx12_Lock_policyE2EE14_M_get_deleterERKSt9type_info, .-_ZNSt23_Sp_counted_ptr_inplaceIN7asiopal2IOESaIS1_ELN9__gnu_cxx12_Lock_policyE2EE14_M_get_deleterERKSt9type_info
	.section	.text._ZNSt23_Sp_counted_ptr_inplaceIN8asiodnp311DNP3ChannelESaIS1_ELN9__gnu_cxx12_Lock_policyE2EE14_M_get_deleterERKSt9type_info,"axG",@progbits,_ZNSt23_Sp_counted_ptr_inplaceIN8asiodnp311DNP3ChannelESaIS1_ELN9__gnu_cxx12_Lock_policyE2EE14_M_get_deleterERKSt9type_info,comdat
	.align	2
	.p2align 4,,11
	.weak	_ZNSt23_Sp_counted_ptr_inplaceIN8asiodnp311DNP3ChannelESaIS1_ELN9__gnu_cxx12_Lock_policyE2EE14_M_get_deleterERKSt9type_info
	.type	_ZNSt23_Sp_counted_ptr_inplaceIN8asiodnp311DNP3ChannelESaIS1_ELN9__gnu_cxx12_Lock_policyE2EE14_M_get_deleterERKSt9type_info, %function
_ZNSt23_Sp_counted_ptr_inplaceIN8asiodnp311DNP3ChannelESaIS1_ELN9__gnu_cxx12_Lock_policyE2EE14_M_get_deleterERKSt9type_info:
.LFB12149:
	.cfi_startproc
	stp	x29, x30, [sp, -32]!
	.cfi_def_cfa_offset 32
	.cfi_offset 29, -32
	.cfi_offset 30, -24
	adrp	x2, :got:_ZZNSt19_Sp_make_shared_tag5_S_tiEvE5__tag
	mov	x29, sp
	ldr	x2, [x2, #:got_lo12:_ZZNSt19_Sp_make_shared_tag5_S_tiEvE5__tag]
	str	x19, [sp, 16]
	.cfi_offset 19, -16
	add	x19, x0, 16
	cmp	x1, x2
	beq	.L168
	adrp	x2, :got:_ZTSSt19_Sp_make_shared_tag
	ldr	x0, [x1, 8]
	ldr	x1, [x2, #:got_lo12:_ZTSSt19_Sp_make_shared_tag]
	cmp	x0, x1
	beq	.L168
	ldrb	w2, [x0]
	cmp	w2, 42
	beq	.L170
	bl	strcmp
	cmp	w0, 0
	csel	x19, x19, xzr, eq
.L168:
	mov	x0, x19
	ldr	x19, [sp, 16]
	ldp	x29, x30, [sp], 32
	.cfi_remember_state
	.cfi_restore 30
	.cfi_restore 29
	.cfi_restore 19
	.cfi_def_cfa_offset 0
	ret
	.p2align 2,,3
.L170:
	.cfi_restore_state
	mov	x19, 0
	mov	x0, x19
	ldr	x19, [sp, 16]
	ldp	x29, x30, [sp], 32
	.cfi_restore 30
	.cfi_restore 29
	.cfi_restore 19
	.cfi_def_cfa_offset 0
	ret
	.cfi_endproc
.LFE12149:
	.size	_ZNSt23_Sp_counted_ptr_inplaceIN8asiodnp311DNP3ChannelESaIS1_ELN9__gnu_cxx12_Lock_policyE2EE14_M_get_deleterERKSt9type_info, .-_ZNSt23_Sp_counted_ptr_inplaceIN8asiodnp311DNP3ChannelESaIS1_ELN9__gnu_cxx12_Lock_policyE2EE14_M_get_deleterERKSt9type_info
	.section	.text._ZNSt23_Sp_counted_ptr_inplaceIN8asiodnp315SerialIOHandlerESaIS1_ELN9__gnu_cxx12_Lock_policyE2EE14_M_get_deleterERKSt9type_info,"axG",@progbits,_ZNSt23_Sp_counted_ptr_inplaceIN8asiodnp315SerialIOHandlerESaIS1_ELN9__gnu_cxx12_Lock_policyE2EE14_M_get_deleterERKSt9type_info,comdat
	.align	2
	.p2align 4,,11
	.weak	_ZNSt23_Sp_counted_ptr_inplaceIN8asiodnp315SerialIOHandlerESaIS1_ELN9__gnu_cxx12_Lock_policyE2EE14_M_get_deleterERKSt9type_info
	.type	_ZNSt23_Sp_counted_ptr_inplaceIN8asiodnp315SerialIOHandlerESaIS1_ELN9__gnu_cxx12_Lock_policyE2EE14_M_get_deleterERKSt9type_info, %function
_ZNSt23_Sp_counted_ptr_inplaceIN8asiodnp315SerialIOHandlerESaIS1_ELN9__gnu_cxx12_Lock_policyE2EE14_M_get_deleterERKSt9type_info:
.LFB12107:
	.cfi_startproc
	stp	x29, x30, [sp, -32]!
	.cfi_def_cfa_offset 32
	.cfi_offset 29, -32
	.cfi_offset 30, -24
	adrp	x2, :got:_ZZNSt19_Sp_make_shared_tag5_S_tiEvE5__tag
	mov	x29, sp
	ldr	x2, [x2, #:got_lo12:_ZZNSt19_Sp_make_shared_tag5_S_tiEvE5__tag]
	str	x19, [sp, 16]
	.cfi_offset 19, -16
	add	x19, x0, 16
	cmp	x1, x2
	beq	.L173
	adrp	x2, :got:_ZTSSt19_Sp_make_shared_tag
	ldr	x0, [x1, 8]
	ldr	x1, [x2, #:got_lo12:_ZTSSt19_Sp_make_shared_tag]
	cmp	x0, x1
	beq	.L173
	ldrb	w2, [x0]
	cmp	w2, 42
	beq	.L175
	bl	strcmp
	cmp	w0, 0
	csel	x19, x19, xzr, eq
.L173:
	mov	x0, x19
	ldr	x19, [sp, 16]
	ldp	x29, x30, [sp], 32
	.cfi_remember_state
	.cfi_restore 30
	.cfi_restore 29
	.cfi_restore 19
	.cfi_def_cfa_offset 0
	ret
	.p2align 2,,3
.L175:
	.cfi_restore_state
	mov	x19, 0
	mov	x0, x19
	ldr	x19, [sp, 16]
	ldp	x29, x30, [sp], 32
	.cfi_restore 30
	.cfi_restore 29
	.cfi_restore 19
	.cfi_def_cfa_offset 0
	ret
	.cfi_endproc
.LFE12107:
	.size	_ZNSt23_Sp_counted_ptr_inplaceIN8asiodnp315SerialIOHandlerESaIS1_ELN9__gnu_cxx12_Lock_policyE2EE14_M_get_deleterERKSt9type_info, .-_ZNSt23_Sp_counted_ptr_inplaceIN8asiodnp315SerialIOHandlerESaIS1_ELN9__gnu_cxx12_Lock_policyE2EE14_M_get_deleterERKSt9type_info
	.section	.text._ZNSt23_Sp_counted_ptr_inplaceIN8asiodnp318TCPClientIOHandlerESaIS1_ELN9__gnu_cxx12_Lock_policyE2EE14_M_get_deleterERKSt9type_info,"axG",@progbits,_ZNSt23_Sp_counted_ptr_inplaceIN8asiodnp318TCPClientIOHandlerESaIS1_ELN9__gnu_cxx12_Lock_policyE2EE14_M_get_deleterERKSt9type_info,comdat
	.align	2
	.p2align 4,,11
	.weak	_ZNSt23_Sp_counted_ptr_inplaceIN8asiodnp318TCPClientIOHandlerESaIS1_ELN9__gnu_cxx12_Lock_policyE2EE14_M_get_deleterERKSt9type_info
	.type	_ZNSt23_Sp_counted_ptr_inplaceIN8asiodnp318TCPClientIOHandlerESaIS1_ELN9__gnu_cxx12_Lock_policyE2EE14_M_get_deleterERKSt9type_info, %function
_ZNSt23_Sp_counted_ptr_inplaceIN8asiodnp318TCPClientIOHandlerESaIS1_ELN9__gnu_cxx12_Lock_policyE2EE14_M_get_deleterERKSt9type_info:
.LFB12128:
	.cfi_startproc
	stp	x29, x30, [sp, -32]!
	.cfi_def_cfa_offset 32
	.cfi_offset 29, -32
	.cfi_offset 30, -24
	adrp	x2, :got:_ZZNSt19_Sp_make_shared_tag5_S_tiEvE5__tag
	mov	x29, sp
	ldr	x2, [x2, #:got_lo12:_ZZNSt19_Sp_make_shared_tag5_S_tiEvE5__tag]
	str	x19, [sp, 16]
	.cfi_offset 19, -16
	add	x19, x0, 16
	cmp	x1, x2
	beq	.L178
	adrp	x2, :got:_ZTSSt19_Sp_make_shared_tag
	ldr	x0, [x1, 8]
	ldr	x1, [x2, #:got_lo12:_ZTSSt19_Sp_make_shared_tag]
	cmp	x0, x1
	beq	.L178
	ldrb	w2, [x0]
	cmp	w2, 42
	beq	.L180
	bl	strcmp
	cmp	w0, 0
	csel	x19, x19, xzr, eq
.L178:
	mov	x0, x19
	ldr	x19, [sp, 16]
	ldp	x29, x30, [sp], 32
	.cfi_remember_state
	.cfi_restore 30
	.cfi_restore 29
	.cfi_restore 19
	.cfi_def_cfa_offset 0
	ret
	.p2align 2,,3
.L180:
	.cfi_restore_state
	mov	x19, 0
	mov	x0, x19
	ldr	x19, [sp, 16]
	ldp	x29, x30, [sp], 32
	.cfi_restore 30
	.cfi_restore 29
	.cfi_restore 19
	.cfi_def_cfa_offset 0
	ret
	.cfi_endproc
.LFE12128:
	.size	_ZNSt23_Sp_counted_ptr_inplaceIN8asiodnp318TCPClientIOHandlerESaIS1_ELN9__gnu_cxx12_Lock_policyE2EE14_M_get_deleterERKSt9type_info, .-_ZNSt23_Sp_counted_ptr_inplaceIN8asiodnp318TCPClientIOHandlerESaIS1_ELN9__gnu_cxx12_Lock_policyE2EE14_M_get_deleterERKSt9type_info
	.section	.text._ZNSt23_Sp_counted_ptr_inplaceIN8asiodnp318TCPServerIOHandlerESaIS1_ELN9__gnu_cxx12_Lock_policyE2EE14_M_get_deleterERKSt9type_info,"axG",@progbits,_ZNSt23_Sp_counted_ptr_inplaceIN8asiodnp318TCPServerIOHandlerESaIS1_ELN9__gnu_cxx12_Lock_policyE2EE14_M_get_deleterERKSt9type_info,comdat
	.align	2
	.p2align 4,,11
	.weak	_ZNSt23_Sp_counted_ptr_inplaceIN8asiodnp318TCPServerIOHandlerESaIS1_ELN9__gnu_cxx12_Lock_policyE2EE14_M_get_deleterERKSt9type_info
	.type	_ZNSt23_Sp_counted_ptr_inplaceIN8asiodnp318TCPServerIOHandlerESaIS1_ELN9__gnu_cxx12_Lock_policyE2EE14_M_get_deleterERKSt9type_info, %function
_ZNSt23_Sp_counted_ptr_inplaceIN8asiodnp318TCPServerIOHandlerESaIS1_ELN9__gnu_cxx12_Lock_policyE2EE14_M_get_deleterERKSt9type_info:
.LFB12121:
	.cfi_startproc
	stp	x29, x30, [sp, -32]!
	.cfi_def_cfa_offset 32
	.cfi_offset 29, -32
	.cfi_offset 30, -24
	adrp	x2, :got:_ZZNSt19_Sp_make_shared_tag5_S_tiEvE5__tag
	mov	x29, sp
	ldr	x2, [x2, #:got_lo12:_ZZNSt19_Sp_make_shared_tag5_S_tiEvE5__tag]
	str	x19, [sp, 16]
	.cfi_offset 19, -16
	add	x19, x0, 16
	cmp	x1, x2
	beq	.L183
	adrp	x2, :got:_ZTSSt19_Sp_make_shared_tag
	ldr	x0, [x1, 8]
	ldr	x1, [x2, #:got_lo12:_ZTSSt19_Sp_make_shared_tag]
	cmp	x0, x1
	beq	.L183
	ldrb	w2, [x0]
	cmp	w2, 42
	beq	.L185
	bl	strcmp
	cmp	w0, 0
	csel	x19, x19, xzr, eq
.L183:
	mov	x0, x19
	ldr	x19, [sp, 16]
	ldp	x29, x30, [sp], 32
	.cfi_remember_state
	.cfi_restore 30
	.cfi_restore 29
	.cfi_restore 19
	.cfi_def_cfa_offset 0
	ret
	.p2align 2,,3
.L185:
	.cfi_restore_state
	mov	x19, 0
	mov	x0, x19
	ldr	x19, [sp, 16]
	ldp	x29, x30, [sp], 32
	.cfi_restore 30
	.cfi_restore 29
	.cfi_restore 19
	.cfi_def_cfa_offset 0
	ret
	.cfi_endproc
.LFE12121:
	.size	_ZNSt23_Sp_counted_ptr_inplaceIN8asiodnp318TCPServerIOHandlerESaIS1_ELN9__gnu_cxx12_Lock_policyE2EE14_M_get_deleterERKSt9type_info, .-_ZNSt23_Sp_counted_ptr_inplaceIN8asiodnp318TCPServerIOHandlerESaIS1_ELN9__gnu_cxx12_Lock_policyE2EE14_M_get_deleterERKSt9type_info
	.section	.text._ZNSt23_Sp_counted_ptr_inplaceIN7openpal6Logger8SettingsESaIS2_ELN9__gnu_cxx12_Lock_policyE2EE14_M_get_deleterERKSt9type_info,"axG",@progbits,_ZNSt23_Sp_counted_ptr_inplaceIN7openpal6Logger8SettingsESaIS2_ELN9__gnu_cxx12_Lock_policyE2EE14_M_get_deleterERKSt9type_info,comdat
	.align	2
	.p2align 4,,11
	.weak	_ZNSt23_Sp_counted_ptr_inplaceIN7openpal6Logger8SettingsESaIS2_ELN9__gnu_cxx12_Lock_policyE2EE14_M_get_deleterERKSt9type_info
	.type	_ZNSt23_Sp_counted_ptr_inplaceIN7openpal6Logger8SettingsESaIS2_ELN9__gnu_cxx12_Lock_policyE2EE14_M_get_deleterERKSt9type_info, %function
_ZNSt23_Sp_counted_ptr_inplaceIN7openpal6Logger8SettingsESaIS2_ELN9__gnu_cxx12_Lock_policyE2EE14_M_get_deleterERKSt9type_info:
.LFB12191:
	.cfi_startproc
	stp	x29, x30, [sp, -32]!
	.cfi_def_cfa_offset 32
	.cfi_offset 29, -32
	.cfi_offset 30, -24
	adrp	x2, :got:_ZZNSt19_Sp_make_shared_tag5_S_tiEvE5__tag
	mov	x29, sp
	ldr	x2, [x2, #:got_lo12:_ZZNSt19_Sp_make_shared_tag5_S_tiEvE5__tag]
	str	x19, [sp, 16]
	.cfi_offset 19, -16
	add	x19, x0, 16
	cmp	x1, x2
	beq	.L188
	adrp	x2, :got:_ZTSSt19_Sp_make_shared_tag
	ldr	x0, [x1, 8]
	ldr	x1, [x2, #:got_lo12:_ZTSSt19_Sp_make_shared_tag]
	cmp	x0, x1
	beq	.L188
	ldrb	w2, [x0]
	cmp	w2, 42
	beq	.L190
	bl	strcmp
	cmp	w0, 0
	csel	x19, x19, xzr, eq
.L188:
	mov	x0, x19
	ldr	x19, [sp, 16]
	ldp	x29, x30, [sp], 32
	.cfi_remember_state
	.cfi_restore 30
	.cfi_restore 29
	.cfi_restore 19
	.cfi_def_cfa_offset 0
	ret
	.p2align 2,,3
.L190:
	.cfi_restore_state
	mov	x19, 0
	mov	x0, x19
	ldr	x19, [sp, 16]
	ldp	x29, x30, [sp], 32
	.cfi_restore 30
	.cfi_restore 29
	.cfi_restore 19
	.cfi_def_cfa_offset 0
	ret
	.cfi_endproc
.LFE12191:
	.size	_ZNSt23_Sp_counted_ptr_inplaceIN7openpal6Logger8SettingsESaIS2_ELN9__gnu_cxx12_Lock_policyE2EE14_M_get_deleterERKSt9type_info, .-_ZNSt23_Sp_counted_ptr_inplaceIN7openpal6Logger8SettingsESaIS2_ELN9__gnu_cxx12_Lock_policyE2EE14_M_get_deleterERKSt9type_info
	.section	.text._ZNSt23_Sp_counted_ptr_inplaceIN7asiopal15ResourceManagerESaIS1_ELN9__gnu_cxx12_Lock_policyE2EE14_M_get_deleterERKSt9type_info,"axG",@progbits,_ZNSt23_Sp_counted_ptr_inplaceIN7asiopal15ResourceManagerESaIS1_ELN9__gnu_cxx12_Lock_policyE2EE14_M_get_deleterERKSt9type_info,comdat
	.align	2
	.p2align 4,,11
	.weak	_ZNSt23_Sp_counted_ptr_inplaceIN7asiopal15ResourceManagerESaIS1_ELN9__gnu_cxx12_Lock_policyE2EE14_M_get_deleterERKSt9type_info
	.type	_ZNSt23_Sp_counted_ptr_inplaceIN7asiopal15ResourceManagerESaIS1_ELN9__gnu_cxx12_Lock_policyE2EE14_M_get_deleterERKSt9type_info, %function
_ZNSt23_Sp_counted_ptr_inplaceIN7asiopal15ResourceManagerESaIS1_ELN9__gnu_cxx12_Lock_policyE2EE14_M_get_deleterERKSt9type_info:
.LFB12163:
	.cfi_startproc
	stp	x29, x30, [sp, -32]!
	.cfi_def_cfa_offset 32
	.cfi_offset 29, -32
	.cfi_offset 30, -24
	adrp	x2, :got:_ZZNSt19_Sp_make_shared_tag5_S_tiEvE5__tag
	mov	x29, sp
	ldr	x2, [x2, #:got_lo12:_ZZNSt19_Sp_make_shared_tag5_S_tiEvE5__tag]
	str	x19, [sp, 16]
	.cfi_offset 19, -16
	add	x19, x0, 16
	cmp	x1, x2
	beq	.L193
	adrp	x2, :got:_ZTSSt19_Sp_make_shared_tag
	ldr	x0, [x1, 8]
	ldr	x1, [x2, #:got_lo12:_ZTSSt19_Sp_make_shared_tag]
	cmp	x0, x1
	beq	.L193
	ldrb	w2, [x0]
	cmp	w2, 42
	beq	.L195
	bl	strcmp
	cmp	w0, 0
	csel	x19, x19, xzr, eq
.L193:
	mov	x0, x19
	ldr	x19, [sp, 16]
	ldp	x29, x30, [sp], 32
	.cfi_remember_state
	.cfi_restore 30
	.cfi_restore 29
	.cfi_restore 19
	.cfi_def_cfa_offset 0
	ret
	.p2align 2,,3
.L195:
	.cfi_restore_state
	mov	x19, 0
	mov	x0, x19
	ldr	x19, [sp, 16]
	ldp	x29, x30, [sp], 32
	.cfi_restore 30
	.cfi_restore 29
	.cfi_restore 19
	.cfi_def_cfa_offset 0
	ret
	.cfi_endproc
.LFE12163:
	.size	_ZNSt23_Sp_counted_ptr_inplaceIN7asiopal15ResourceManagerESaIS1_ELN9__gnu_cxx12_Lock_policyE2EE14_M_get_deleterERKSt9type_info, .-_ZNSt23_Sp_counted_ptr_inplaceIN7asiopal15ResourceManagerESaIS1_ELN9__gnu_cxx12_Lock_policyE2EE14_M_get_deleterERKSt9type_info
	.section	.text._ZNSt23_Sp_counted_ptr_inplaceIN7asiopal8ExecutorESaIS1_ELN9__gnu_cxx12_Lock_policyE2EE14_M_get_deleterERKSt9type_info,"axG",@progbits,_ZNSt23_Sp_counted_ptr_inplaceIN7asiopal8ExecutorESaIS1_ELN9__gnu_cxx12_Lock_policyE2EE14_M_get_deleterERKSt9type_info,comdat
	.align	2
	.p2align 4,,11
	.weak	_ZNSt23_Sp_counted_ptr_inplaceIN7asiopal8ExecutorESaIS1_ELN9__gnu_cxx12_Lock_policyE2EE14_M_get_deleterERKSt9type_info
	.type	_ZNSt23_Sp_counted_ptr_inplaceIN7asiopal8ExecutorESaIS1_ELN9__gnu_cxx12_Lock_policyE2EE14_M_get_deleterERKSt9type_info, %function
_ZNSt23_Sp_counted_ptr_inplaceIN7asiopal8ExecutorESaIS1_ELN9__gnu_cxx12_Lock_policyE2EE14_M_get_deleterERKSt9type_info:
.LFB12170:
	.cfi_startproc
	stp	x29, x30, [sp, -32]!
	.cfi_def_cfa_offset 32
	.cfi_offset 29, -32
	.cfi_offset 30, -24
	adrp	x2, :got:_ZZNSt19_Sp_make_shared_tag5_S_tiEvE5__tag
	mov	x29, sp
	ldr	x2, [x2, #:got_lo12:_ZZNSt19_Sp_make_shared_tag5_S_tiEvE5__tag]
	str	x19, [sp, 16]
	.cfi_offset 19, -16
	add	x19, x0, 16
	cmp	x1, x2
	beq	.L198
	adrp	x2, :got:_ZTSSt19_Sp_make_shared_tag
	ldr	x0, [x1, 8]
	ldr	x1, [x2, #:got_lo12:_ZTSSt19_Sp_make_shared_tag]
	cmp	x0, x1
	beq	.L198
	ldrb	w2, [x0]
	cmp	w2, 42
	beq	.L200
	bl	strcmp
	cmp	w0, 0
	csel	x19, x19, xzr, eq
.L198:
	mov	x0, x19
	ldr	x19, [sp, 16]
	ldp	x29, x30, [sp], 32
	.cfi_remember_state
	.cfi_restore 30
	.cfi_restore 29
	.cfi_restore 19
	.cfi_def_cfa_offset 0
	ret
	.p2align 2,,3
.L200:
	.cfi_restore_state
	mov	x19, 0
	mov	x0, x19
	ldr	x19, [sp, 16]
	ldp	x29, x30, [sp], 32
	.cfi_restore 30
	.cfi_restore 29
	.cfi_restore 19
	.cfi_def_cfa_offset 0
	ret
	.cfi_endproc
.LFE12170:
	.size	_ZNSt23_Sp_counted_ptr_inplaceIN7asiopal8ExecutorESaIS1_ELN9__gnu_cxx12_Lock_policyE2EE14_M_get_deleterERKSt9type_info, .-_ZNSt23_Sp_counted_ptr_inplaceIN7asiopal8ExecutorESaIS1_ELN9__gnu_cxx12_Lock_policyE2EE14_M_get_deleterERKSt9type_info
	.section	.text._ZNSt8_Rb_treeIPN8opendnp317IScheduleCallbackES2_St9_IdentityIS2_ESt4lessIS2_ESaIS2_EE8_M_eraseEPSt13_Rb_tree_nodeIS2_E.isra.0,"axG",@progbits,_ZN8asiodnp39IOHandlerD5Ev,comdat
	.align	2
	.p2align 4,,11
	.type	_ZNSt8_Rb_treeIPN8opendnp317IScheduleCallbackES2_St9_IdentityIS2_ESt4lessIS2_ESaIS2_EE8_M_eraseEPSt13_Rb_tree_nodeIS2_E.isra.0, %function
_ZNSt8_Rb_treeIPN8opendnp317IScheduleCallbackES2_St9_IdentityIS2_ESt4lessIS2_ESaIS2_EE8_M_eraseEPSt13_Rb_tree_nodeIS2_E.isra.0:
.LFB12375:
	.cfi_startproc
	cbz	x0, .L264
	stp	x29, x30, [sp, -96]!
	.cfi_def_cfa_offset 96
	.cfi_offset 29, -96
	.cfi_offset 30, -88
	mov	x29, sp
	stp	x23, x24, [sp, 48]
	.cfi_offset 23, -48
	.cfi_offset 24, -40
	mov	x23, x0
	stp	x19, x20, [sp, 16]
	.cfi_offset 19, -80
	.cfi_offset 20, -72
.L221:
	ldr	x24, [x23, 24]
	cbz	x24, .L205
	stp	x25, x26, [sp, 64]
	.cfi_offset 26, -24
	.cfi_offset 25, -32
.L220:
	ldr	x25, [x24, 24]
	cbz	x25, .L206
.L219:
	ldr	x26, [x25, 24]
	cbz	x26, .L207
.L218:
	ldr	x19, [x26, 24]
	cbz	x19, .L208
.L217:
	ldr	x20, [x19, 24]
	cbz	x20, .L209
	stp	x21, x22, [sp, 32]
	.cfi_offset 22, -56
	.cfi_offset 21, -64
	str	x27, [sp, 80]
	.cfi_offset 27, -16
.L216:
	ldr	x27, [x20, 24]
	cbz	x27, .L210
.L215:
	ldr	x21, [x27, 24]
	cbz	x21, .L211
.L214:
	ldr	x22, [x21, 24]
	cbz	x22, .L212
.L213:
	ldr	x0, [x22, 24]
	bl	_ZNSt8_Rb_treeIPN8opendnp317IScheduleCallbackES2_St9_IdentityIS2_ESt4lessIS2_ESaIS2_EE8_M_eraseEPSt13_Rb_tree_nodeIS2_E.isra.0
	mov	x0, x22
	mov	x1, 40
	ldr	x22, [x22, 16]
	bl	_ZdlPvm
	cbnz	x22, .L213
.L212:
	ldr	x22, [x21, 16]
	mov	x0, x21
	mov	x1, 40
	bl	_ZdlPvm
	cbz	x22, .L211
	mov	x21, x22
	b	.L214
.L265:
	ldp	x21, x22, [sp, 32]
	.cfi_restore 22
	.cfi_restore 21
	ldr	x27, [sp, 80]
	.cfi_restore 27
.L209:
	mov	x0, x19
	ldr	x20, [x19, 16]
	mov	x1, 40
	bl	_ZdlPvm
	cbz	x20, .L208
	mov	x19, x20
	b	.L217
	.p2align 2,,3
.L210:
	.cfi_offset 21, -64
	.cfi_offset 22, -56
	.cfi_offset 27, -16
	ldr	x21, [x20, 16]
	mov	x0, x20
	mov	x1, 40
	bl	_ZdlPvm
	cbz	x21, .L265
	mov	x20, x21
	b	.L216
.L208:
	.cfi_restore 21
	.cfi_restore 22
	.cfi_restore 27
	ldr	x19, [x26, 16]
	mov	x0, x26
	mov	x1, 40
	bl	_ZdlPvm
	cbz	x19, .L207
	mov	x26, x19
	b	.L218
	.p2align 2,,3
.L211:
	.cfi_offset 21, -64
	.cfi_offset 22, -56
	.cfi_offset 27, -16
	ldr	x21, [x27, 16]
	mov	x0, x27
	mov	x1, 40
	bl	_ZdlPvm
	cbz	x21, .L210
	mov	x27, x21
	b	.L215
.L207:
	.cfi_restore 21
	.cfi_restore 22
	.cfi_restore 27
	ldr	x19, [x25, 16]
	mov	x0, x25
	mov	x1, 40
	bl	_ZdlPvm
	cbz	x19, .L206
	mov	x25, x19
	b	.L219
.L206:
	ldr	x19, [x24, 16]
	mov	x0, x24
	mov	x1, 40
	bl	_ZdlPvm
	cbz	x19, .L266
	mov	x24, x19
	b	.L220
.L266:
	ldp	x25, x26, [sp, 64]
	.cfi_restore 26
	.cfi_restore 25
.L205:
	mov	x0, x23
	ldr	x19, [x23, 16]
	mov	x1, 40
	bl	_ZdlPvm
	cbz	x19, .L267
	mov	x23, x19
	b	.L221
.L267:
	ldp	x19, x20, [sp, 16]
	ldp	x23, x24, [sp, 48]
	ldp	x29, x30, [sp], 96
	.cfi_restore 30
	.cfi_restore 29
	.cfi_restore 23
	.cfi_restore 24
	.cfi_restore 19
	.cfi_restore 20
	.cfi_def_cfa_offset 0
	ret
.L264:
	ret
	.cfi_endproc
.LFE12375:
	.size	_ZNSt8_Rb_treeIPN8opendnp317IScheduleCallbackES2_St9_IdentityIS2_ESt4lessIS2_ESaIS2_EE8_M_eraseEPSt13_Rb_tree_nodeIS2_E.isra.0, .-_ZNSt8_Rb_treeIPN8opendnp317IScheduleCallbackES2_St9_IdentityIS2_ESt4lessIS2_ESaIS2_EE8_M_eraseEPSt13_Rb_tree_nodeIS2_E.isra.0
	.section	.rodata._ZNK4asio6detail15system_category7messageB5cxx11Ei.str1.8,"aMS",@progbits,1
	.align	3
.LC4:
	.string	"Operation aborted."
	.align	3
.LC5:
	.string	"basic_string::_M_construct null not valid"
	.section	.text._ZNK4asio6detail15system_category7messageB5cxx11Ei,"axG",@progbits,_ZNK4asio6detail15system_category7messageB5cxx11Ei,comdat
	.align	2
	.p2align 4,,11
	.weak	_ZNK4asio6detail15system_category7messageB5cxx11Ei
	.type	_ZNK4asio6detail15system_category7messageB5cxx11Ei, %function
_ZNK4asio6detail15system_category7messageB5cxx11Ei:
.LFB2625:
	.cfi_startproc
	stp	x29, x30, [sp, -320]!
	.cfi_def_cfa_offset 320
	.cfi_offset 29, -320
	.cfi_offset 30, -312
	adrp	x0, :got:__stack_chk_guard
	mov	x29, sp
	ldr	x2, [x0, #:got_lo12:__stack_chk_guard]
	stp	x19, x20, [sp, 16]
	mov	w0, w1
	stp	x21, x22, [sp, 32]
	.cfi_offset 19, -304
	.cfi_offset 20, -296
	.cfi_offset 21, -288
	.cfi_offset 22, -280
	mov	x19, x8
	add	x21, x8, 16
	ldr	x1, [x2]
	str	x1, [sp, 312]
	mov	x1, 0
	cmp	w0, 125
	beq	.L283
	movi	v0.4s, 0
	add	x3, sp, 72
	add	x1, sp, 56
	mov	x2, 256
	stp	xzr, xzr, [sp, 56]
	stp	q0, q0, [x3]
	stp	q0, q0, [x3, 32]
	stp	q0, q0, [x3, 64]
	stp	q0, q0, [x3, 96]
	stp	q0, q0, [x3, 128]
	stp	q0, q0, [x3, 160]
	stp	q0, q0, [x3, 192]
	str	q0, [x3, 224]
	bl	strerror_r
	mov	x22, x0
	str	x21, [x19]
	cbz	x0, .L271
	bl	strlen
	str	x0, [sp, 48]
	mov	x20, x0
	cmp	x0, 15
	bhi	.L284
	cmp	x0, 1
	bne	.L275
	ldrb	w0, [x22]
	strb	w0, [x19, 16]
.L276:
	str	x20, [x19, 8]
	strb	wzr, [x21, x20]
.L268:
	adrp	x0, :got:__stack_chk_guard
	ldr	x0, [x0, #:got_lo12:__stack_chk_guard]
	ldr	x2, [sp, 312]
	ldr	x1, [x0]
	subs	x2, x2, x1
	mov	x1, 0
	bne	.L285
	mov	x0, x19
	ldp	x19, x20, [sp, 16]
	ldp	x21, x22, [sp, 32]
	ldp	x29, x30, [sp], 320
	.cfi_remember_state
	.cfi_restore 30
	.cfi_restore 29
	.cfi_restore 21
	.cfi_restore 22
	.cfi_restore 19
	.cfi_restore 20
	.cfi_def_cfa_offset 0
	ret
	.p2align 2,,3
.L284:
	.cfi_restore_state
	add	x1, sp, 48
	mov	x0, x19
	mov	x2, 0
	bl	_ZNSt7__cxx1112basic_stringIcSt11char_traitsIcESaIcEE9_M_createERmm
	mov	x21, x0
	str	x0, [x19]
	ldr	x1, [sp, 48]
	str	x1, [x19, 16]
.L274:
	mov	x2, x20
	mov	x0, x21
	mov	x1, x22
	bl	memcpy
	ldr	x21, [x19]
	ldr	x20, [sp, 48]
	b	.L276
	.p2align 2,,3
.L283:
	mov	x3, 18
	str	x21, [x8]
	add	x1, sp, 48
	mov	x2, 0
	mov	x0, x8
	str	x3, [sp, 48]
	bl	_ZNSt7__cxx1112basic_stringIcSt11char_traitsIcESaIcEE9_M_createERmm
	str	x0, [x19]
	adrp	x1, .LC4
	add	x1, x1, :lo12:.LC4
	ldr	x2, [sp, 48]
	str	x2, [x19, 16]
	ldp	x2, x3, [x1]
	stp	x2, x3, [x0]
	ldrh	w1, [x1, 16]
	strh	w1, [x0, 16]
	ldr	x1, [x19]
	ldr	x0, [sp, 48]
	str	x0, [x19, 8]
	strb	wzr, [x1, x0]
	b	.L268
	.p2align 2,,3
.L275:
	cbz	x0, .L276
	b	.L274
.L271:
	adrp	x0, .LC5
	add	x0, x0, :lo12:.LC5
	bl	_ZSt19__throw_logic_errorPKc
.L285:
	bl	__stack_chk_fail
	.cfi_endproc
.LFE2625:
	.size	_ZNK4asio6detail15system_category7messageB5cxx11Ei, .-_ZNK4asio6detail15system_category7messageB5cxx11Ei
	.section	.rodata._ZNK4asio5error6detail17addrinfo_category7messageB5cxx11Ei.str1.8,"aMS",@progbits,1
	.align	3
.LC6:
	.string	"Service not found"
	.align	3
.LC7:
	.string	"Socket type not supported"
	.align	3
.LC8:
	.string	"asio.addrinfo error"
	.section	.text._ZNK4asio5error6detail17addrinfo_category7messageB5cxx11Ei,"axG",@progbits,_ZNK4asio5error6detail17addrinfo_category7messageB5cxx11Ei,comdat
	.align	2
	.p2align 4,,11
	.weak	_ZNK4asio5error6detail17addrinfo_category7messageB5cxx11Ei
	.type	_ZNK4asio5error6detail17addrinfo_category7messageB5cxx11Ei, %function
_ZNK4asio5error6detail17addrinfo_category7messageB5cxx11Ei:
.LFB2652:
	.cfi_startproc
	stp	x29, x30, [sp, -48]!
	.cfi_def_cfa_offset 48
	.cfi_offset 29, -48
	.cfi_offset 30, -40
	adrp	x0, :got:__stack_chk_guard
	add	x2, x8, 16
	mov	x29, sp
	ldr	x0, [x0, #:got_lo12:__stack_chk_guard]
	str	x19, [sp, 16]
	.cfi_offset 19, -32
	mov	x19, x8
	ldr	x3, [x0]
	str	x3, [sp, 40]
	mov	x3, 0
	str	x2, [x8]
	cmn	w1, #8
	beq	.L292
	cmn	w1, #7
	beq	.L293
	mov	x3, 19
	add	x1, sp, 32
	mov	x2, 0
	mov	x0, x8
	str	x3, [sp, 32]
	bl	_ZNSt7__cxx1112basic_stringIcSt11char_traitsIcESaIcEE9_M_createERmm
	adrp	x1, .LC8
	add	x1, x1, :lo12:.LC8
	ldr	x2, [sp, 32]
	str	x0, [x19]
	str	x2, [x19, 16]
	ldp	x2, x3, [x1]
	stp	x2, x3, [x0]
	ldr	w1, [x1, 15]
	str	w1, [x0, 15]
	ldr	x1, [x19]
	ldr	x0, [sp, 32]
	str	x0, [x19, 8]
	strb	wzr, [x1, x0]
.L286:
	adrp	x0, :got:__stack_chk_guard
	ldr	x0, [x0, #:got_lo12:__stack_chk_guard]
	ldr	x2, [sp, 40]
	ldr	x1, [x0]
	subs	x2, x2, x1
	mov	x1, 0
	bne	.L294
	mov	x0, x19
	ldr	x19, [sp, 16]
	ldp	x29, x30, [sp], 48
	.cfi_remember_state
	.cfi_restore 30
	.cfi_restore 29
	.cfi_restore 19
	.cfi_def_cfa_offset 0
	ret
	.p2align 2,,3
.L293:
	.cfi_restore_state
	mov	x3, 25
	add	x1, sp, 32
	mov	x2, 0
	mov	x0, x8
	str	x3, [sp, 32]
	bl	_ZNSt7__cxx1112basic_stringIcSt11char_traitsIcESaIcEE9_M_createERmm
	adrp	x1, .LC7
	add	x1, x1, :lo12:.LC7
	ldr	x2, [sp, 32]
	str	x0, [x19]
	ldr	q1, [x1]
	str	x2, [x19, 16]
	ldr	q0, [x1, 9]
	str	q1, [x0]
	str	q0, [x0, 9]
	ldr	x1, [x19]
	ldr	x0, [sp, 32]
	str	x0, [x19, 8]
	strb	wzr, [x1, x0]
	b	.L286
	.p2align 2,,3
.L292:
	mov	x3, 17
	add	x1, sp, 32
	mov	x2, 0
	mov	x0, x8
	str	x3, [sp, 32]
	bl	_ZNSt7__cxx1112basic_stringIcSt11char_traitsIcESaIcEE9_M_createERmm
	adrp	x1, .LC6
	add	x1, x1, :lo12:.LC6
	ldr	x2, [sp, 32]
	str	x0, [x19]
	str	x2, [x19, 16]
	ldp	x2, x3, [x1]
	stp	x2, x3, [x0]
	ldrb	w1, [x1, 16]
	strb	w1, [x0, 16]
	ldr	x1, [x19]
	ldr	x0, [sp, 32]
	str	x0, [x19, 8]
	strb	wzr, [x1, x0]
	b	.L286
.L294:
	bl	__stack_chk_fail
	.cfi_endproc
.LFE2652:
	.size	_ZNK4asio5error6detail17addrinfo_category7messageB5cxx11Ei, .-_ZNK4asio5error6detail17addrinfo_category7messageB5cxx11Ei
	.section	.rodata._ZNK4asio5error6detail14netdb_category7messageB5cxx11Ei.str1.8,"aMS",@progbits,1
	.align	3
.LC9:
	.string	"Host not found (authoritative)"
	.align	3
.LC10:
	.string	"Host not found (non-authoritative), try again later"
	.align	3
.LC11:
	.string	"The query is valid, but it does not have associated data"
	.align	3
.LC12:
	.string	"A non-recoverable error occurred during database lookup"
	.align	3
.LC13:
	.string	"asio.netdb error"
	.section	.text._ZNK4asio5error6detail14netdb_category7messageB5cxx11Ei,"axG",@progbits,_ZNK4asio5error6detail14netdb_category7messageB5cxx11Ei,comdat
	.align	2
	.p2align 4,,11
	.weak	_ZNK4asio5error6detail14netdb_category7messageB5cxx11Ei
	.type	_ZNK4asio5error6detail14netdb_category7messageB5cxx11Ei, %function
_ZNK4asio5error6detail14netdb_category7messageB5cxx11Ei:
.LFB2646:
	.cfi_startproc
	stp	x29, x30, [sp, -48]!
	.cfi_def_cfa_offset 48
	.cfi_offset 29, -48
	.cfi_offset 30, -40
	adrp	x0, :got:__stack_chk_guard
	add	x2, x8, 16
	mov	x29, sp
	ldr	x0, [x0, #:got_lo12:__stack_chk_guard]
	str	x19, [sp, 16]
	.cfi_offset 19, -32
	mov	x19, x8
	ldr	x3, [x0]
	str	x3, [sp, 40]
	mov	x3, 0
	str	x2, [x8]
	cmp	w1, 1
	beq	.L304
	cmp	w1, 2
	beq	.L305
	cmp	w1, 4
	beq	.L306
	cmp	w1, 3
	beq	.L307
	mov	x3, 16
	add	x1, sp, 32
	mov	x2, 0
	mov	x0, x8
	str	x3, [sp, 32]
	bl	_ZNSt7__cxx1112basic_stringIcSt11char_traitsIcESaIcEE9_M_createERmm
	adrp	x1, .LC13
	add	x1, x1, :lo12:.LC13
	ldr	x2, [sp, 32]
	str	x0, [x19]
	str	x2, [x19, 16]
	ldp	x2, x3, [x1]
	stp	x2, x3, [x0]
	ldr	x1, [x19]
	ldr	x0, [sp, 32]
	str	x0, [x19, 8]
	strb	wzr, [x1, x0]
.L295:
	adrp	x0, :got:__stack_chk_guard
	ldr	x0, [x0, #:got_lo12:__stack_chk_guard]
	ldr	x2, [sp, 40]
	ldr	x1, [x0]
	subs	x2, x2, x1
	mov	x1, 0
	bne	.L308
	mov	x0, x19
	ldr	x19, [sp, 16]
	ldp	x29, x30, [sp], 48
	.cfi_remember_state
	.cfi_restore 30
	.cfi_restore 29
	.cfi_restore 19
	.cfi_def_cfa_offset 0
	ret
	.p2align 2,,3
.L304:
	.cfi_restore_state
	mov	x3, 30
	add	x1, sp, 32
	mov	x2, 0
	mov	x0, x8
	str	x3, [sp, 32]
	bl	_ZNSt7__cxx1112basic_stringIcSt11char_traitsIcESaIcEE9_M_createERmm
	adrp	x1, .LC9
	add	x1, x1, :lo12:.LC9
	ldr	x2, [sp, 32]
	str	x0, [x19]
	ldr	q1, [x1]
	str	x2, [x19, 16]
	ldr	q0, [x1, 14]
	str	q1, [x0]
	str	q0, [x0, 14]
	ldr	x1, [x19]
	ldr	x0, [sp, 32]
	str	x0, [x19, 8]
	strb	wzr, [x1, x0]
	b	.L295
	.p2align 2,,3
.L307:
	mov	x3, 55
	add	x1, sp, 32
	mov	x2, 0
	mov	x0, x8
	str	x3, [sp, 32]
	bl	_ZNSt7__cxx1112basic_stringIcSt11char_traitsIcESaIcEE9_M_createERmm
	adrp	x1, .LC12
	add	x1, x1, :lo12:.LC12
	ldr	x2, [sp, 32]
	str	x0, [x19]
	ldr	q2, [x1, 32]
	str	x2, [x19, 16]
	ldp	q0, q1, [x1]
	str	q2, [x0, 32]
	ldr	x1, [x1, 47]
	str	x1, [x0, 47]
.L303:
	stp	q0, q1, [x0]
	ldr	x1, [x19]
	ldr	x0, [sp, 32]
	str	x0, [x19, 8]
	strb	wzr, [x1, x0]
	b	.L295
	.p2align 2,,3
.L305:
	mov	x3, 51
	add	x1, sp, 32
	mov	x2, 0
	mov	x0, x8
	str	x3, [sp, 32]
	bl	_ZNSt7__cxx1112basic_stringIcSt11char_traitsIcESaIcEE9_M_createERmm
	adrp	x1, .LC10
	add	x1, x1, :lo12:.LC10
	ldr	x2, [sp, 32]
	str	x0, [x19]
	ldr	q2, [x1, 32]
	str	x2, [x19, 16]
	ldp	q0, q1, [x1]
	ldr	w1, [x1, 47]
	str	q2, [x0, 32]
	str	w1, [x0, 47]
	b	.L303
	.p2align 2,,3
.L306:
	mov	x3, 56
	add	x1, sp, 32
	mov	x2, 0
	mov	x0, x8
	str	x3, [sp, 32]
	bl	_ZNSt7__cxx1112basic_stringIcSt11char_traitsIcESaIcEE9_M_createERmm
	adrp	x1, .LC11
	add	x1, x1, :lo12:.LC11
	ldr	x2, [sp, 32]
	str	x0, [x19]
	ldp	q1, q2, [x1]
	str	x2, [x19, 16]
	ldr	q0, [x1, 32]
	ldr	x1, [x1, 48]
	str	x1, [x0, 48]
	stp	q1, q2, [x0]
	str	q0, [x0, 32]
	ldr	x1, [x19]
	ldr	x0, [sp, 32]
	str	x0, [x19, 8]
	strb	wzr, [x1, x0]
	b	.L295
.L308:
	bl	__stack_chk_fail
	.cfi_endproc
.LFE2646:
	.size	_ZNK4asio5error6detail14netdb_category7messageB5cxx11Ei, .-_ZNK4asio5error6detail14netdb_category7messageB5cxx11Ei
	.section	.rodata._ZNK4asio5error6detail13misc_category7messageB5cxx11Ei.str1.8,"aMS",@progbits,1
	.align	3
.LC14:
	.string	"Already open"
	.align	3
.LC15:
	.string	"End of file"
	.align	3
.LC16:
	.string	"Element not found"
	.align	3
.LC17:
	.string	"The descriptor does not fit into the select call's fd_set"
	.align	3
.LC18:
	.string	"asio.misc error"
	.section	.text._ZNK4asio5error6detail13misc_category7messageB5cxx11Ei,"axG",@progbits,_ZNK4asio5error6detail13misc_category7messageB5cxx11Ei,comdat
	.align	2
	.p2align 4,,11
	.weak	_ZNK4asio5error6detail13misc_category7messageB5cxx11Ei
	.type	_ZNK4asio5error6detail13misc_category7messageB5cxx11Ei, %function
_ZNK4asio5error6detail13misc_category7messageB5cxx11Ei:
.LFB2658:
	.cfi_startproc
	stp	x29, x30, [sp, -48]!
	.cfi_def_cfa_offset 48
	.cfi_offset 29, -48
	.cfi_offset 30, -40
	adrp	x0, :got:__stack_chk_guard
	add	x2, x8, 16
	mov	x29, sp
	ldr	x0, [x0, #:got_lo12:__stack_chk_guard]
	str	x19, [sp, 16]
	.cfi_offset 19, -32
	mov	x19, x8
	ldr	x3, [x0]
	str	x3, [sp, 40]
	mov	x3, 0
	cmp	w1, 1
	beq	.L317
	cmp	w1, 2
	beq	.L318
	cmp	w1, 3
	beq	.L319
	cmp	w1, 4
	beq	.L320
	adrp	x0, .LC18
	add	x0, x0, :lo12:.LC18
	str	x2, [x8]
	mov	x1, 15
	ldr	x3, [x0]
	str	x3, [x8, 16]
	ldr	x0, [x0, 7]
	str	x0, [x2, 7]
	str	x1, [x8, 8]
	strb	wzr, [x8, 31]
.L309:
	adrp	x0, :got:__stack_chk_guard
	ldr	x0, [x0, #:got_lo12:__stack_chk_guard]
	ldr	x2, [sp, 40]
	ldr	x1, [x0]
	subs	x2, x2, x1
	mov	x1, 0
	bne	.L321
	mov	x0, x19
	ldr	x19, [sp, 16]
	ldp	x29, x30, [sp], 48
	.cfi_remember_state
	.cfi_restore 30
	.cfi_restore 29
	.cfi_restore 19
	.cfi_def_cfa_offset 0
	ret
	.p2align 2,,3
.L317:
	.cfi_restore_state
	adrp	x0, .LC14
	add	x0, x0, :lo12:.LC14
	str	x2, [x8]
	mov	x1, 12
	ldr	x3, [x0]
	str	x3, [x8, 16]
	ldr	w0, [x0, 8]
	str	w0, [x2, 8]
	str	x1, [x8, 8]
	strb	wzr, [x8, 28]
	b	.L309
	.p2align 2,,3
.L320:
	mov	x3, 57
	str	x2, [x8]
	add	x1, sp, 32
	mov	x2, 0
	mov	x0, x8
	str	x3, [sp, 32]
	bl	_ZNSt7__cxx1112basic_stringIcSt11char_traitsIcESaIcEE9_M_createERmm
	str	x0, [x19]
	adrp	x1, .LC17
	add	x1, x1, :lo12:.LC17
	ldr	x2, [sp, 32]
	str	x2, [x19, 16]
	ldr	q3, [x1, 32]
	ldp	q1, q2, [x1]
	ldr	q0, [x1, 41]
	str	q3, [x0, 32]
	stp	q1, q2, [x0]
	str	q0, [x0, 41]
	ldr	x1, [x19]
	ldr	x0, [sp, 32]
	str	x0, [x19, 8]
	strb	wzr, [x1, x0]
	b	.L309
	.p2align 2,,3
.L318:
	adrp	x0, .LC15
	add	x0, x0, :lo12:.LC15
	str	x2, [x8]
	mov	x1, 11
	ldr	x3, [x0]
	str	x3, [x8, 16]
	ldr	w0, [x0, 7]
	str	w0, [x2, 7]
	str	x1, [x8, 8]
	strb	wzr, [x8, 27]
	b	.L309
	.p2align 2,,3
.L319:
	mov	x3, 17
	str	x2, [x8]
	add	x1, sp, 32
	mov	x2, 0
	mov	x0, x8
	str	x3, [sp, 32]
	bl	_ZNSt7__cxx1112basic_stringIcSt11char_traitsIcESaIcEE9_M_createERmm
	str	x0, [x19]
	adrp	x1, .LC16
	add	x1, x1, :lo12:.LC16
	ldr	x2, [sp, 32]
	str	x2, [x19, 16]
	ldp	x2, x3, [x1]
	stp	x2, x3, [x0]
	ldrb	w1, [x1, 16]
	strb	w1, [x0, 16]
	ldr	x1, [x19]
	ldr	x0, [sp, 32]
	str	x0, [x19, 8]
	strb	wzr, [x1, x0]
	b	.L309
.L321:
	bl	__stack_chk_fail
	.cfi_endproc
.LFE2658:
	.size	_ZNK4asio5error6detail13misc_category7messageB5cxx11Ei, .-_ZNK4asio5error6detail13misc_category7messageB5cxx11Ei
	.global	__aarch64_ldadd4_acq_rel
	.section	.text._ZNSt23_Sp_counted_ptr_inplaceIN7asiopal8ExecutorESaIS1_ELN9__gnu_cxx12_Lock_policyE2EE10_M_disposeEv,"axG",@progbits,_ZNSt23_Sp_counted_ptr_inplaceIN7asiopal8ExecutorESaIS1_ELN9__gnu_cxx12_Lock_policyE2EE10_M_disposeEv,comdat
	.align	2
	.p2align 4,,11
	.weak	_ZNSt23_Sp_counted_ptr_inplaceIN7asiopal8ExecutorESaIS1_ELN9__gnu_cxx12_Lock_policyE2EE10_M_disposeEv
	.type	_ZNSt23_Sp_counted_ptr_inplaceIN7asiopal8ExecutorESaIS1_ELN9__gnu_cxx12_Lock_policyE2EE10_M_disposeEv, %function
_ZNSt23_Sp_counted_ptr_inplaceIN7asiopal8ExecutorESaIS1_ELN9__gnu_cxx12_Lock_policyE2EE10_M_disposeEv:
.LFB12168:
	.cfi_startproc
	stp	x29, x30, [sp, -48]!
	.cfi_def_cfa_offset 48
	.cfi_offset 29, -48
	.cfi_offset 30, -40
	adrp	x1, :got:_ZTVN7asiopal8ExecutorE
	mov	x29, sp
	ldr	x1, [x1, #:got_lo12:_ZTVN7asiopal8ExecutorE]
	stp	x19, x20, [sp, 16]
	.cfi_offset 19, -32
	.cfi_offset 20, -24
	mov	x19, x0
	ldr	x20, [x0, 48]
	add	x1, x1, 16
	str	x1, [x0, 16]
	cbz	x20, .L324
	str	x21, [sp, 32]
	.cfi_offset 21, -16
	adrp	x21, :got:__libc_single_threaded
	ldr	x0, [x21, #:got_lo12:__libc_single_threaded]
	ldrb	w0, [x0]
	cbz	w0, .L325
	ldr	w0, [x20, 8]
	sub	w1, w0, #1
	str	w1, [x20, 8]
.L326:
	cmp	w0, 1
	beq	.L338
.L337:
	ldr	x21, [sp, 32]
	.cfi_restore 21
.L324:
	ldr	x19, [x19, 32]
	cbz	x19, .L322
	adrp	x0, :got:__libc_single_threaded
	ldr	x0, [x0, #:got_lo12:__libc_single_threaded]
	ldrb	w0, [x0]
	cbz	w0, .L332
	ldr	w0, [x19, 12]
	sub	w1, w0, #1
	str	w1, [x19, 12]
.L333:
	cmp	w0, 1
	beq	.L339
.L322:
	ldp	x19, x20, [sp, 16]
	ldp	x29, x30, [sp], 48
	.cfi_restore 30
	.cfi_restore 29
	.cfi_restore 19
	.cfi_restore 20
	.cfi_def_cfa_offset 0
	ret
	.p2align 2,,3
.L338:
	.cfi_def_cfa_offset 48
	.cfi_offset 19, -32
	.cfi_offset 20, -24
	.cfi_offset 21, -16
	.cfi_offset 29, -48
	.cfi_offset 30, -40
	ldr	x1, [x20]
	mov	x0, x20
	ldr	x1, [x1, 16]
	blr	x1
	ldr	x21, [x21, #:got_lo12:__libc_single_threaded]
	ldrb	w0, [x21]
	cbz	w0, .L328
	ldr	w0, [x20, 12]
	sub	w1, w0, #1
	str	w1, [x20, 12]
.L329:
	cmp	w0, 1
	bne	.L337
	ldr	x1, [x20]
	mov	x0, x20
	ldr	x1, [x1, 24]
	blr	x1
	ldr	x21, [sp, 32]
	.cfi_restore 21
	b	.L324
	.p2align 2,,3
.L339:
	ldr	x1, [x19]
	mov	x0, x19
	ldp	x19, x20, [sp, 16]
	ldp	x29, x30, [sp], 48
	.cfi_remember_state
	.cfi_restore 30
	.cfi_restore 29
	.cfi_restore 19
	.cfi_restore 20
	.cfi_def_cfa_offset 0
	ldr	x1, [x1, 24]
	mov	x16, x1
	br	x16
	.p2align 2,,3
.L332:
	.cfi_restore_state
	add	x1, x19, 12
	mov	w0, -1
	bl	__aarch64_ldadd4_acq_rel
	b	.L333
	.p2align 2,,3
.L325:
	.cfi_offset 21, -16
	add	x1, x20, 8
	mov	w0, -1
	bl	__aarch64_ldadd4_acq_rel
	b	.L326
	.p2align 2,,3
.L328:
	add	x1, x20, 12
	mov	w0, -1
	bl	__aarch64_ldadd4_acq_rel
	b	.L329
	.cfi_endproc
.LFE12168:
	.size	_ZNSt23_Sp_counted_ptr_inplaceIN7asiopal8ExecutorESaIS1_ELN9__gnu_cxx12_Lock_policyE2EE10_M_disposeEv, .-_ZNSt23_Sp_counted_ptr_inplaceIN7asiopal8ExecutorESaIS1_ELN9__gnu_cxx12_Lock_policyE2EE10_M_disposeEv
	.section	.text._ZN7openpal6LoggerD2Ev,"axG",@progbits,_ZN7openpal6LoggerD5Ev,comdat
	.align	2
	.p2align 4,,11
	.weak	_ZN7openpal6LoggerD2Ev
	.type	_ZN7openpal6LoggerD2Ev, %function
_ZN7openpal6LoggerD2Ev:
.LFB2070:
	.cfi_startproc
	stp	x29, x30, [sp, -48]!
	.cfi_def_cfa_offset 48
	.cfi_offset 29, -48
	.cfi_offset 30, -40
	mov	x29, sp
	stp	x19, x20, [sp, 16]
	.cfi_offset 19, -32
	.cfi_offset 20, -24
	mov	x19, x0
	ldr	x20, [x0, 24]
	str	x21, [sp, 32]
	.cfi_offset 21, -16
	cbz	x20, .L342
	adrp	x21, :got:__libc_single_threaded
	ldr	x0, [x21, #:got_lo12:__libc_single_threaded]
	ldrb	w0, [x0]
	cbz	w0, .L343
	ldr	w0, [x20, 8]
	sub	w1, w0, #1
	str	w1, [x20, 8]
.L344:
	cmp	w0, 1
	beq	.L356
.L342:
	ldr	x19, [x19, 8]
	cbz	x19, .L340
	adrp	x21, :got:__libc_single_threaded
	ldr	x0, [x21, #:got_lo12:__libc_single_threaded]
	ldrb	w0, [x0]
	cbz	w0, .L350
	ldr	w0, [x19, 8]
	sub	w1, w0, #1
	str	w1, [x19, 8]
.L351:
	cmp	w0, 1
	beq	.L357
.L340:
	ldp	x19, x20, [sp, 16]
	ldr	x21, [sp, 32]
	ldp	x29, x30, [sp], 48
	.cfi_remember_state
	.cfi_restore 30
	.cfi_restore 29
	.cfi_restore 21
	.cfi_restore 19
	.cfi_restore 20
	.cfi_def_cfa_offset 0
	ret
	.p2align 2,,3
.L356:
	.cfi_restore_state
	ldr	x1, [x20]
	mov	x0, x20
	ldr	x1, [x1, 16]
	blr	x1
	ldr	x21, [x21, #:got_lo12:__libc_single_threaded]
	ldrb	w0, [x21]
	cbz	w0, .L346
	ldr	w0, [x20, 12]
	sub	w1, w0, #1
	str	w1, [x20, 12]
.L347:
	cmp	w0, 1
	bne	.L342
	ldr	x1, [x20]
	mov	x0, x20
	ldr	x1, [x1, 24]
	blr	x1
	b	.L342
	.p2align 2,,3
.L357:
	ldr	x1, [x19]
	mov	x0, x19
	ldr	x1, [x1, 16]
	blr	x1
	ldr	x21, [x21, #:got_lo12:__libc_single_threaded]
	ldrb	w0, [x21]
	cbz	w0, .L353
	ldr	w0, [x19, 12]
	sub	w1, w0, #1
	str	w1, [x19, 12]
.L354:
	cmp	w0, 1
	bne	.L340
	ldr	x1, [x19]
	mov	x0, x19
	ldp	x19, x20, [sp, 16]
	ldr	x21, [sp, 32]
	ldp	x29, x30, [sp], 48
	.cfi_remember_state
	.cfi_restore 30
	.cfi_restore 29
	.cfi_restore 21
	.cfi_restore 19
	.cfi_restore 20
	.cfi_def_cfa_offset 0
	ldr	x1, [x1, 24]
	mov	x16, x1
	br	x16
	.p2align 2,,3
.L350:
	.cfi_restore_state
	add	x1, x19, 8
	mov	w0, -1
	bl	__aarch64_ldadd4_acq_rel
	b	.L351
	.p2align 2,,3
.L343:
	add	x1, x20, 8
	mov	w0, -1
	bl	__aarch64_ldadd4_acq_rel
	b	.L344
	.p2align 2,,3
.L346:
	add	x1, x20, 12
	mov	w0, -1
	bl	__aarch64_ldadd4_acq_rel
	b	.L347
	.p2align 2,,3
.L353:
	add	x1, x19, 12
	mov	w0, -1
	bl	__aarch64_ldadd4_acq_rel
	b	.L354
	.cfi_endproc
.LFE2070:
	.size	_ZN7openpal6LoggerD2Ev, .-_ZN7openpal6LoggerD2Ev
	.weak	_ZN7openpal6LoggerD1Ev
	.set	_ZN7openpal6LoggerD1Ev,_ZN7openpal6LoggerD2Ev
	.section	.rodata._ZNSt12system_errorC2ESt10error_codePKc.str1.8,"aMS",@progbits,1
	.align	3
.LC19:
	.string	": "
	.section	.text._ZNSt12system_errorC2ESt10error_codePKc,"axG",@progbits,_ZNSt12system_errorC5ESt10error_codePKc,comdat
	.align	2
	.p2align 4,,11
	.weak	_ZNSt12system_errorC2ESt10error_codePKc
	.type	_ZNSt12system_errorC2ESt10error_codePKc, %function
_ZNSt12system_errorC2ESt10error_codePKc:
.LFB2575:
	.cfi_startproc
	.cfi_personality 0x9b,DW.ref.__gxx_personality_v0
	.cfi_lsda 0x1b,.LLSDA2575
	stp	x29, x30, [sp, -176]!
	.cfi_def_cfa_offset 176
	.cfi_offset 29, -176
	.cfi_offset 30, -168
	adrp	x4, :got:__stack_chk_guard
	mov	x29, sp
	stp	x19, x20, [sp, 16]
	.cfi_offset 19, -160
	.cfi_offset 20, -152
	mov	x20, x2
	mov	x19, x0
	ldr	x2, [x4, #:got_lo12:__stack_chk_guard]
	stp	x21, x22, [sp, 32]
	mov	x0, x20
	ldr	x4, [x20]
	.cfi_offset 21, -144
	.cfi_offset 22, -136
	mov	x21, x1
	mov	x22, x3
	ldr	x4, [x4, 32]
	str	x23, [sp, 48]
	.cfi_offset 23, -128
	add	x23, sp, 136
	mov	x8, x23
	ldr	x3, [x2]
	str	x3, [sp, 168]
	mov	x3, 0
.LEHB0:
	blr	x4
.LEHE0:
	adrp	x3, .LC19
	mov	x0, x23
	add	x3, x3, :lo12:.LC19
	mov	x4, 2
	mov	x2, 0
	mov	x1, 0
.LEHB1:
	bl	_ZNSt7__cxx1112basic_stringIcSt11char_traitsIcESaIcEE10_M_replaceEmmPKcm
.LEHE1:
	add	x23, sp, 120
	str	x23, [sp, 104]
	mov	x4, x0
	ldr	x1, [x0], 16
	cmp	x1, x0
	beq	.L378
	ldr	x2, [x4, 16]
	str	x1, [sp, 104]
	str	x2, [sp, 120]
.L360:
	ldr	x1, [x4, 8]
	str	x1, [sp, 112]
	stp	x0, xzr, [x4]
	mov	x0, x22
	strb	wzr, [x4, 16]
	bl	strlen
	mov	x4, x0
	mov	x3, x22
	add	x0, sp, 104
	mov	x2, 0
	mov	x1, 0
.LEHB2:
	bl	_ZNSt7__cxx1112basic_stringIcSt11char_traitsIcESaIcEE10_M_replaceEmmPKcm
.LEHE2:
	add	x22, sp, 88
	str	x22, [sp, 72]
	mov	x3, x0
	ldr	x1, [x0], 16
	cmp	x1, x0
	beq	.L379
	ldr	x2, [x3, 16]
	str	x1, [sp, 72]
	str	x2, [sp, 88]
.L362:
	ldr	x1, [x3, 8]
	str	x1, [sp, 80]
	stp	x0, xzr, [x3]
	add	x1, sp, 72
	mov	x0, x19
	strb	wzr, [x3, 16]
.LEHB3:
	bl	_ZNSt13runtime_errorC2ERKNSt7__cxx1112basic_stringIcSt11char_traitsIcESaIcEEE
.LEHE3:
	ldr	x0, [sp, 72]
	cmp	x0, x22
	beq	.L363
	ldr	x1, [sp, 88]
	add	x1, x1, 1
	bl	_ZdlPvm
.L363:
	ldr	x0, [sp, 104]
	cmp	x0, x23
	beq	.L364
	ldr	x1, [sp, 120]
	add	x1, x1, 1
	bl	_ZdlPvm
.L364:
	ldr	x0, [sp, 136]
	add	x1, sp, 152
	cmp	x0, x1
	beq	.L365
	ldr	x1, [sp, 152]
	add	x1, x1, 1
	bl	_ZdlPvm
.L365:
	adrp	x0, :got:_ZTVSt12system_error
	adrp	x1, :got:__stack_chk_guard
	stp	x21, x20, [x19, 16]
	ldr	x0, [x0, #:got_lo12:_ZTVSt12system_error]
	ldr	x1, [x1, #:got_lo12:__stack_chk_guard]
	add	x0, x0, 16
	str	x0, [x19]
	ldr	x0, [sp, 168]
	ldr	x2, [x1]
	subs	x0, x0, x2
	mov	x2, 0
	bne	.L380
	ldp	x19, x20, [sp, 16]
	ldp	x21, x22, [sp, 32]
	ldr	x23, [sp, 48]
	ldp	x29, x30, [sp], 176
	.cfi_remember_state
	.cfi_restore 30
	.cfi_restore 29
	.cfi_restore 23
	.cfi_restore 21
	.cfi_restore 22
	.cfi_restore 19
	.cfi_restore 20
	.cfi_def_cfa_offset 0
	ret
	.p2align 2,,3
.L378:
	.cfi_restore_state
	ldp	x2, x3, [x4, 16]
	stp	x2, x3, [sp, 120]
	b	.L360
	.p2align 2,,3
.L379:
	ldp	x4, x5, [x3, 16]
	stp	x4, x5, [sp, 88]
	b	.L362
.L380:
	bl	__stack_chk_fail
.L375:
	ldr	x2, [sp, 72]
	mov	x19, x0
	cmp	x2, x22
	beq	.L368
	ldr	x1, [sp, 88]
	mov	x0, x2
	add	x1, x1, 1
	bl	_ZdlPvm
.L368:
	ldr	x0, [sp, 104]
	cmp	x0, x23
	beq	.L370
	ldr	x1, [sp, 120]
	add	x1, x1, 1
	bl	_ZdlPvm
.L370:
	ldr	x0, [sp, 136]
	add	x1, sp, 152
	cmp	x0, x1
	beq	.L371
	ldr	x1, [sp, 152]
	add	x1, x1, 1
	bl	_ZdlPvm
.L371:
	mov	x0, x19
.LEHB4:
	bl	_Unwind_Resume
.LEHE4:
.L373:
	mov	x19, x0
	b	.L370
.L374:
	mov	x19, x0
	b	.L368
	.cfi_endproc
.LFE2575:
	.section	.gcc_except_table._ZNSt12system_errorC2ESt10error_codePKc,"aG",@progbits,_ZNSt12system_errorC5ESt10error_codePKc,comdat
.LLSDA2575:
	.byte	0xff
	.byte	0xff
	.byte	0x1
	.uleb128 .LLSDACSE2575-.LLSDACSB2575
.LLSDACSB2575:
	.uleb128 .LEHB0-.LFB2575
	.uleb128 .LEHE0-.LEHB0
	.uleb128 0
	.uleb128 0
	.uleb128 .LEHB1-.LFB2575
	.uleb128 .LEHE1-.LEHB1
	.uleb128 .L373-.LFB2575
	.uleb128 0
	.uleb128 .LEHB2-.LFB2575
	.uleb128 .LEHE2-.LEHB2
	.uleb128 .L374-.LFB2575
	.uleb128 0
	.uleb128 .LEHB3-.LFB2575
	.uleb128 .LEHE3-.LEHB3
	.uleb128 .L375-.LFB2575
	.uleb128 0
	.uleb128 .LEHB4-.LFB2575
	.uleb128 .LEHE4-.LEHB4
	.uleb128 0
	.uleb128 0
.LLSDACSE2575:
	.section	.text._ZNSt12system_errorC2ESt10error_codePKc,"axG",@progbits,_ZNSt12system_errorC5ESt10error_codePKc,comdat
	.size	_ZNSt12system_errorC2ESt10error_codePKc, .-_ZNSt12system_errorC2ESt10error_codePKc
	.weak	_ZNSt12system_errorC1ESt10error_codePKc
	.set	_ZNSt12system_errorC1ESt10error_codePKc,_ZNSt12system_errorC2ESt10error_codePKc
	.section	.text._ZN4asio15system_categoryEv,"axG",@progbits,_ZN4asio15system_categoryEv,comdat
	.align	2
	.p2align 4,,11
	.weak	_ZN4asio15system_categoryEv
	.type	_ZN4asio15system_categoryEv, %function
_ZN4asio15system_categoryEv:
.LFB2628:
	.cfi_startproc
	stp	x29, x30, [sp, -32]!
	.cfi_def_cfa_offset 32
	.cfi_offset 29, -32
	.cfi_offset 30, -24
	mov	x29, sp
	stp	x19, x20, [sp, 16]
	.cfi_offset 19, -16
	.cfi_offset 20, -8
	adrp	x19, :got:_ZGVZN4asio15system_categoryEvE8instance
	ldr	x19, [x19, #:got_lo12:_ZGVZN4asio15system_categoryEvE8instance]
	ldar	x0, [x19]
	adrp	x20, :got:_ZZN4asio15system_categoryEvE8instance
	tbz	x0, 0, .L389
.L383:
	ldr	x0, [x20, #:got_lo12:_ZZN4asio15system_categoryEvE8instance]
	ldp	x19, x20, [sp, 16]
	ldp	x29, x30, [sp], 32
	.cfi_remember_state
	.cfi_restore 30
	.cfi_restore 29
	.cfi_restore 19
	.cfi_restore 20
	.cfi_def_cfa_offset 0
	ret
	.p2align 2,,3
.L389:
	.cfi_restore_state
	mov	x0, x19
	adrp	x20, :got:_ZZN4asio15system_categoryEvE8instance
	bl	__cxa_guard_acquire
	cbz	w0, .L383
	adrp	x0, :got:_ZN4asio6detail15system_categoryD1Ev
	adrp	x2, __dso_handle
	ldr	x1, [x20, #:got_lo12:_ZZN4asio15system_categoryEvE8instance]
	add	x2, x2, :lo12:__dso_handle
	ldr	x0, [x0, #:got_lo12:_ZN4asio6detail15system_categoryD1Ev]
	bl	__cxa_atexit
	mov	x0, x19
	bl	__cxa_guard_release
	ldr	x0, [x20, #:got_lo12:_ZZN4asio15system_categoryEvE8instance]
	ldp	x19, x20, [sp, 16]
	ldp	x29, x30, [sp], 32
	.cfi_restore 30
	.cfi_restore 29
	.cfi_restore 19
	.cfi_restore 20
	.cfi_def_cfa_offset 0
	ret
	.cfi_endproc
.LFE2628:
	.size	_ZN4asio15system_categoryEv, .-_ZN4asio15system_categoryEv
	.section	.text._ZNSt23_Sp_counted_ptr_inplaceIN8asiodnp315MasterTCPServerESaIS1_ELN9__gnu_cxx12_Lock_policyE2EE10_M_disposeEv,"axG",@progbits,_ZNSt23_Sp_counted_ptr_inplaceIN8asiodnp315MasterTCPServerESaIS1_ELN9__gnu_cxx12_Lock_policyE2EE10_M_disposeEv,comdat
	.align	2
	.p2align 4,,11
	.weak	_ZNSt23_Sp_counted_ptr_inplaceIN8asiodnp315MasterTCPServerESaIS1_ELN9__gnu_cxx12_Lock_policyE2EE10_M_disposeEv
	.type	_ZNSt23_Sp_counted_ptr_inplaceIN8asiodnp315MasterTCPServerESaIS1_ELN9__gnu_cxx12_Lock_policyE2EE10_M_disposeEv, %function
_ZNSt23_Sp_counted_ptr_inplaceIN8asiodnp315MasterTCPServerESaIS1_ELN9__gnu_cxx12_Lock_policyE2EE10_M_disposeEv:
.LFB12140:
	.cfi_startproc
	.cfi_personality 0x9b,DW.ref.__gxx_personality_v0
	.cfi_lsda 0x1b,.LLSDA12140
	stp	x29, x30, [sp, -144]!
	.cfi_def_cfa_offset 144
	.cfi_offset 29, -144
	.cfi_offset 30, -136
	adrp	x1, :got:__stack_chk_guard
	mov	x29, sp
	stp	x19, x20, [sp, 16]
	.cfi_offset 19, -128
	.cfi_offset 20, -120
	mov	x19, x0
	adrp	x0, :got:_ZTVN8asiodnp315MasterTCPServerE
	ldr	x1, [x1, #:got_lo12:__stack_chk_guard]
	stp	x21, x22, [sp, 32]
	ldr	x0, [x0, #:got_lo12:_ZTVN8asiodnp315MasterTCPServerE]
	ldr	x2, [x1]
	str	x2, [sp, 136]
	mov	x2, 0
	.cfi_offset 21, -112
	.cfi_offset 22, -104
	ldr	x21, [x19, 248]
	add	x0, x0, 16
	str	x0, [x19, 16]
	cbz	x21, .L392
	adrp	x20, :got:__libc_single_threaded
	ldr	x0, [x20, #:got_lo12:__libc_single_threaded]
	ldrb	w0, [x0]
	cbz	w0, .L393
	ldr	w0, [x21, 8]
	sub	w1, w0, #1
	str	w1, [x21, 8]
.L394:
	cmp	w0, 1
	beq	.L663
.L392:
	ldr	x21, [x19, 232]
	cbz	x21, .L399
	adrp	x20, :got:__libc_single_threaded
	ldr	x0, [x20, #:got_lo12:__libc_single_threaded]
	ldrb	w0, [x0]
	cbz	w0, .L400
	ldr	w0, [x21, 8]
	sub	w1, w0, #1
	str	w1, [x21, 8]
.L401:
	cmp	w0, 1
	beq	.L664
.L399:
	adrp	x0, :got:_ZTVN7asiopal9TCPServerE
	ldr	w20, [x19, 152]
	ldr	x0, [x0, #:got_lo12:_ZTVN7asiopal9TCPServerE]
	add	x0, x0, 16
	str	x0, [x19, 16]
	cmn	w20, #1
	bne	.L665
.L405:
	ldr	w20, [x19, 120]
	cmn	w20, #1
	bne	.L666
.L452:
	ldr	x21, [x19, 80]
	cbz	x21, .L500
	adrp	x20, :got:__libc_single_threaded
	ldr	x0, [x20, #:got_lo12:__libc_single_threaded]
	ldrb	w0, [x0]
	cbz	w0, .L501
	ldr	w0, [x21, 8]
	sub	w1, w0, #1
	str	w1, [x21, 8]
.L502:
	cmp	w0, 1
	beq	.L667
.L500:
	ldr	x21, [x19, 64]
	cbz	x21, .L507
	adrp	x20, :got:__libc_single_threaded
	ldr	x0, [x20, #:got_lo12:__libc_single_threaded]
	ldrb	w0, [x0]
	cbz	w0, .L508
	ldr	w0, [x21, 8]
	sub	w1, w0, #1
	str	w1, [x21, 8]
.L509:
	cmp	w0, 1
	beq	.L668
.L507:
	ldr	x21, [x19, 48]
	cbz	x21, .L514
	adrp	x20, :got:__libc_single_threaded
	ldr	x0, [x20, #:got_lo12:__libc_single_threaded]
	ldrb	w0, [x0]
	cbz	w0, .L515
	ldr	w0, [x21, 8]
	sub	w1, w0, #1
	str	w1, [x21, 8]
.L516:
	cmp	w0, 1
	beq	.L669
.L514:
	ldr	x19, [x19, 32]
	cbz	x19, .L390
	adrp	x0, :got:__libc_single_threaded
	ldr	x0, [x0, #:got_lo12:__libc_single_threaded]
	ldrb	w0, [x0]
	cbz	w0, .L522
	ldr	w0, [x19, 12]
	sub	w1, w0, #1
	str	w1, [x19, 12]
.L523:
	cmp	w0, 1
	beq	.L670
.L390:
	adrp	x0, :got:__stack_chk_guard
	ldr	x0, [x0, #:got_lo12:__stack_chk_guard]
	ldr	x2, [sp, 136]
	ldr	x1, [x0]
	subs	x2, x2, x1
	mov	x1, 0
	bne	.L654
	ldp	x19, x20, [sp, 16]
	ldp	x21, x22, [sp, 32]
	ldp	x29, x30, [sp], 144
	.cfi_remember_state
	.cfi_restore 30
	.cfi_restore 29
	.cfi_restore 21
	.cfi_restore 22
	.cfi_restore 19
	.cfi_restore 20
	.cfi_def_cfa_offset 0
	ret
	.p2align 2,,3
.L666:
	.cfi_restore_state
	ldr	x22, [x19, 128]
	stp	x23, x24, [sp, 48]
	.cfi_offset 24, -88
	.cfi_offset 23, -96
	stp	x25, x26, [sp, 64]
	.cfi_offset 26, -72
	.cfi_offset 25, -80
	cbz	x22, .L482
	ldr	x1, [x19, 144]
	add	x22, x22, 40
	ldrb	w21, [x19, 124]
	mov	x0, x22
	ldr	x1, [x1, 40]
	str	x1, [sp, 96]
	bl	pthread_mutex_lock
	ldr	x3, [x19, 128]
	ldrb	w0, [x3, 152]
	cbnz	w0, .L454
	stp	x27, x28, [sp, 80]
	.cfi_offset 28, -56
	.cfi_offset 27, -64
	tbnz	x21, 6, .L671
.L455:
	adrp	x4, :got:_ZGVZN4asio15system_categoryEvE8instance
	adrp	x26, __dso_handle
	mov	x28, 0
	add	x0, x26, :lo12:__dso_handle
	ldr	x25, [x4, #:got_lo12:_ZGVZN4asio15system_categoryEvE8instance]
	mov	x24, 0
	mov	w21, 0
	str	x0, [sp, 104]
.L456:
	add	x0, x3, w21, sxtw 4
	sxtw	x26, w21
	ldr	x20, [x0, 104]
	cbz	x20, .L532
	adrp	x23, :got:_ZN4asio6detail15system_categoryD1Ev
	adrp	x27, :got:_ZZN4asio15system_categoryEvE8instance
	ldr	x23, [x23, #:got_lo12:_ZN4asio6detail15system_categoryD1Ev]
	ldar	x0, [x25]
	tbz	x0, 0, .L672
	.p2align 3,,7
.L458:
	ldr	x3, [x19, 128]
	mov	w1, 125
	ldr	x0, [x27, #:got_lo12:_ZZN4asio15system_categoryEvE8instance]
	str	x0, [x20, 32]
	add	x2, x3, x26, lsl 4
	str	w1, [x20, 24]
	ldr	x0, [x2, 104]
	cbz	x0, .L460
.L675:
	ldr	x1, [x0]
	str	x1, [x2, 104]
	cbz	x1, .L673
	str	xzr, [x0]
	str	xzr, [x20]
	cbz	x28, .L674
.L526:
	str	x20, [x28]
	cbz	x1, .L462
.L463:
	mov	x28, x20
	mov	x20, x1
	ldar	x0, [x25]
	tbnz	x0, 0, .L458
.L672:
	mov	x0, x25
	bl	__cxa_guard_acquire
	cbz	w0, .L458
	ldr	x1, [x27, #:got_lo12:_ZZN4asio15system_categoryEvE8instance]
	mov	x0, x23
	ldr	x2, [sp, 104]
	bl	__cxa_atexit
	mov	x0, x25
	bl	__cxa_guard_release
	ldr	x3, [x19, 128]
	mov	w1, 125
	ldr	x0, [x27, #:got_lo12:_ZZN4asio15system_categoryEvE8instance]
	str	x0, [x20, 32]
	add	x2, x3, x26, lsl 4
	str	w1, [x20, 24]
	ldr	x0, [x2, 104]
	cbnz	x0, .L675
	.p2align 3,,7
.L460:
	str	xzr, [x20]
	cbz	x28, .L533
	str	x20, [x28]
.L462:
	add	w21, w21, 1
	cmp	w21, 3
	beq	.L464
.L691:
	mov	x28, x20
	b	.L456
	.p2align 2,,3
.L665:
	.cfi_restore 23
	.cfi_restore 24
	.cfi_restore 25
	.cfi_restore 26
	.cfi_restore 27
	.cfi_restore 28
	ldr	x22, [x19, 160]
	stp	x23, x24, [sp, 48]
	.cfi_offset 24, -88
	.cfi_offset 23, -96
	stp	x25, x26, [sp, 64]
	.cfi_offset 26, -72
	.cfi_offset 25, -80
	cbz	x22, .L435
	ldr	x1, [x19, 176]
	add	x22, x22, 40
	ldrb	w21, [x19, 156]
	mov	x0, x22
	ldr	x1, [x1, 40]
	str	x1, [sp, 96]
	bl	pthread_mutex_lock
	ldr	x3, [x19, 160]
	ldrb	w0, [x3, 152]
	cbnz	w0, .L407
	stp	x27, x28, [sp, 80]
	.cfi_offset 28, -56
	.cfi_offset 27, -64
	tbnz	x21, 6, .L676
.L408:
	adrp	x4, :got:_ZGVZN4asio15system_categoryEvE8instance
	adrp	x26, __dso_handle
	mov	x28, 0
	add	x0, x26, :lo12:__dso_handle
	ldr	x25, [x4, #:got_lo12:_ZGVZN4asio15system_categoryEvE8instance]
	mov	x24, 0
	mov	w21, 0
	str	x0, [sp, 104]
.L409:
	add	x0, x3, w21, sxtw 4
	sxtw	x26, w21
	ldr	x20, [x0, 104]
	cbz	x20, .L530
	adrp	x23, :got:_ZN4asio6detail15system_categoryD1Ev
	adrp	x27, :got:_ZZN4asio15system_categoryEvE8instance
	ldr	x23, [x23, #:got_lo12:_ZN4asio6detail15system_categoryD1Ev]
	ldar	x0, [x25]
	tbz	x0, 0, .L677
	.p2align 3,,7
.L411:
	ldr	x3, [x19, 160]
	mov	w1, 125
	ldr	x0, [x27, #:got_lo12:_ZZN4asio15system_categoryEvE8instance]
	str	x0, [x20, 32]
	add	x2, x3, x26, lsl 4
	str	w1, [x20, 24]
	ldr	x0, [x2, 104]
	cbz	x0, .L413
.L680:
	ldr	x1, [x0]
	str	x1, [x2, 104]
	cbz	x1, .L678
	str	xzr, [x0]
	str	xzr, [x20]
	cbz	x28, .L679
.L527:
	str	x20, [x28]
	cbz	x1, .L415
.L416:
	mov	x28, x20
	mov	x20, x1
	ldar	x0, [x25]
	tbnz	x0, 0, .L411
.L677:
	mov	x0, x25
	bl	__cxa_guard_acquire
	cbz	w0, .L411
	ldr	x1, [x27, #:got_lo12:_ZZN4asio15system_categoryEvE8instance]
	mov	x0, x23
	ldr	x2, [sp, 104]
	bl	__cxa_atexit
	mov	x0, x25
	bl	__cxa_guard_release
	ldr	x3, [x19, 160]
	mov	w1, 125
	ldr	x0, [x27, #:got_lo12:_ZZN4asio15system_categoryEvE8instance]
	str	x0, [x20, 32]
	add	x2, x3, x26, lsl 4
	str	w1, [x20, 24]
	ldr	x0, [x2, 104]
	cbnz	x0, .L680
	.p2align 3,,7
.L413:
	str	xzr, [x20]
	cbz	x28, .L534
	str	x20, [x28]
.L415:
	add	w21, w21, 1
	cmp	w21, 3
	beq	.L417
.L689:
	mov	x28, x20
	b	.L409
	.p2align 2,,3
.L454:
	.cfi_restore 27
	.cfi_restore 28
	mov	x0, x22
	bl	pthread_mutex_unlock
	ldr	w20, [x19, 120]
.L476:
	cmn	w20, #1
	beq	.L651
.L482:
	ldrb	w23, [x19, 124]
	bl	__errno_location
	adrp	x21, :got:_ZGVZN4asio15system_categoryEvE8instance
	mov	x22, x0
	tbnz	x23, 3, .L681
.L484:
	str	wzr, [x22]
	mov	w0, w20
	bl	close
	ldr	w25, [x22]
	ldr	x24, [x21, #:got_lo12:_ZGVZN4asio15system_categoryEvE8instance]
	mov	w23, w0
	ldar	x0, [x24]
	tbz	x0, 0, .L682
.L489:
	cbnz	w23, .L683
.L651:
	ldp	x23, x24, [sp, 48]
	.cfi_remember_state
	.cfi_restore 24
	.cfi_restore 23
	ldp	x25, x26, [sp, 64]
	.cfi_restore 26
	.cfi_restore 25
	b	.L452
	.p2align 2,,3
.L407:
	.cfi_restore_state
	mov	x0, x22
	bl	pthread_mutex_unlock
	ldr	w20, [x19, 152]
.L429:
	cmn	w20, #1
	beq	.L645
.L435:
	ldrb	w22, [x19, 156]
	bl	__errno_location
	adrp	x21, :got:_ZGVZN4asio15system_categoryEvE8instance
	mov	x24, x0
	tbnz	x22, 3, .L684
.L437:
	str	wzr, [x24]
	mov	w0, w20
	bl	close
	ldr	w25, [x24]
	ldr	x23, [x21, #:got_lo12:_ZGVZN4asio15system_categoryEvE8instance]
	mov	w22, w0
	ldar	x0, [x23]
	tbz	x0, 0, .L685
.L442:
	cbnz	w22, .L686
.L645:
	ldp	x23, x24, [sp, 48]
	.cfi_restore 24
	.cfi_restore 23
	ldp	x25, x26, [sp, 64]
	.cfi_restore 26
	.cfi_restore 25
	b	.L405
	.p2align 2,,3
.L663:
	ldr	x1, [x21]
	mov	x0, x21
	ldr	x1, [x1, 16]
	blr	x1
	ldr	x20, [x20, #:got_lo12:__libc_single_threaded]
	ldrb	w0, [x20]
	cbz	w0, .L396
	ldr	w0, [x21, 12]
	sub	w1, w0, #1
	str	w1, [x21, 12]
.L397:
	cmp	w0, 1
	bne	.L392
	ldr	x1, [x21]
	mov	x0, x21
	ldr	x1, [x1, 24]
	blr	x1
	b	.L392
	.p2align 2,,3
.L664:
	ldr	x1, [x21]
	mov	x0, x21
	ldr	x1, [x1, 16]
	blr	x1
	ldr	x20, [x20, #:got_lo12:__libc_single_threaded]
	ldrb	w0, [x20]
	cbz	w0, .L403
	ldr	w0, [x21, 12]
	sub	w1, w0, #1
	str	w1, [x21, 12]
.L404:
	cmp	w0, 1
	bne	.L399
	ldr	x1, [x21]
	mov	x0, x21
	ldr	x1, [x1, 24]
	blr	x1
	b	.L399
	.p2align 2,,3
.L667:
	ldr	x1, [x21]
	mov	x0, x21
	ldr	x1, [x1, 16]
	blr	x1
	ldr	x20, [x20, #:got_lo12:__libc_single_threaded]
	ldrb	w0, [x20]
	cbz	w0, .L504
	ldr	w0, [x21, 12]
	sub	w1, w0, #1
	str	w1, [x21, 12]
.L505:
	cmp	w0, 1
	bne	.L500
	ldr	x1, [x21]
	mov	x0, x21
	ldr	x1, [x1, 24]
	blr	x1
	b	.L500
	.p2align 2,,3
.L668:
	ldr	x1, [x21]
	mov	x0, x21
	ldr	x1, [x1, 16]
	blr	x1
	ldr	x20, [x20, #:got_lo12:__libc_single_threaded]
	ldrb	w0, [x20]
	cbz	w0, .L511
	ldr	w0, [x21, 12]
	sub	w1, w0, #1
	str	w1, [x21, 12]
.L512:
	cmp	w0, 1
	bne	.L507
	ldr	x1, [x21]
	mov	x0, x21
	ldr	x1, [x1, 24]
	blr	x1
	b	.L507
	.p2align 2,,3
.L670:
	adrp	x0, :got:__stack_chk_guard
	ldr	x0, [x0, #:got_lo12:__stack_chk_guard]
	ldr	x2, [sp, 136]
	ldr	x1, [x0]
	subs	x2, x2, x1
	mov	x1, 0
	bne	.L654
	ldr	x1, [x19]
	mov	x0, x19
	ldp	x19, x20, [sp, 16]
	ldr	x1, [x1, 24]
	ldp	x21, x22, [sp, 32]
	mov	x16, x1
	ldp	x29, x30, [sp], 144
	.cfi_remember_state
	.cfi_restore 30
	.cfi_restore 29
	.cfi_restore 21
	.cfi_restore 22
	.cfi_restore 19
	.cfi_restore 20
	.cfi_def_cfa_offset 0
	br	x16
	.p2align 2,,3
.L669:
	.cfi_restore_state
	ldr	x1, [x21]
	mov	x0, x21
	ldr	x1, [x1, 16]
	blr	x1
	ldr	x20, [x20, #:got_lo12:__libc_single_threaded]
	ldrb	w0, [x20]
	cbz	w0, .L518
	ldr	w0, [x21, 12]
	sub	w1, w0, #1
	str	w1, [x21, 12]
.L519:
	cmp	w0, 1
	bne	.L514
	ldr	x1, [x21]
	mov	x0, x21
	ldr	x1, [x1, 24]
	blr	x1
	b	.L514
	.p2align 2,,3
.L400:
	add	x1, x21, 8
	mov	w0, -1
	bl	__aarch64_ldadd4_acq_rel
	b	.L401
	.p2align 2,,3
.L522:
	add	x1, x19, 12
	mov	w0, -1
	bl	__aarch64_ldadd4_acq_rel
	b	.L523
	.p2align 2,,3
.L508:
	add	x1, x21, 8
	mov	w0, -1
	bl	__aarch64_ldadd4_acq_rel
	b	.L509
	.p2align 2,,3
.L515:
	add	x1, x21, 8
	mov	w0, -1
	bl	__aarch64_ldadd4_acq_rel
	b	.L516
	.p2align 2,,3
.L393:
	add	x1, x21, 8
	mov	w0, -1
	bl	__aarch64_ldadd4_acq_rel
	b	.L394
	.p2align 2,,3
.L501:
	add	x1, x21, 8
	mov	w0, -1
	bl	__aarch64_ldadd4_acq_rel
	b	.L502
	.p2align 2,,3
.L682:
	.cfi_offset 23, -96
	.cfi_offset 24, -88
	.cfi_offset 25, -80
	.cfi_offset 26, -72
	mov	x0, x24
	bl	__cxa_guard_acquire
	cbz	w0, .L489
	adrp	x1, :got:_ZZN4asio15system_categoryEvE8instance
	adrp	x0, :got:_ZN4asio6detail15system_categoryD1Ev
	adrp	x2, __dso_handle
	add	x2, x2, :lo12:__dso_handle
	ldr	x1, [x1, #:got_lo12:_ZZN4asio15system_categoryEvE8instance]
	ldr	x0, [x0, #:got_lo12:_ZN4asio6detail15system_categoryD1Ev]
	bl	__cxa_atexit
	mov	x0, x24
	bl	__cxa_guard_release
	cbz	w23, .L651
	.p2align 3,,7
.L683:
	ldr	x23, [x21, #:got_lo12:_ZGVZN4asio15system_categoryEvE8instance]
	ldar	x0, [x23]
	tbz	x0, 0, .L687
.L493:
	cmp	w25, 11
	beq	.L495
.L662:
	ldr	x21, [x21, #:got_lo12:_ZGVZN4asio15system_categoryEvE8instance]
	ldar	x0, [x21]
	tbnz	x0, 0, .L651
	mov	x0, x21
	bl	__cxa_guard_acquire
	cbz	w0, .L651
	adrp	x1, :got:_ZZN4asio15system_categoryEvE8instance
	adrp	x0, :got:_ZN4asio6detail15system_categoryD1Ev
	adrp	x2, __dso_handle
	add	x2, x2, :lo12:__dso_handle
	ldr	x1, [x1, #:got_lo12:_ZZN4asio15system_categoryEvE8instance]
	ldr	x0, [x0, #:got_lo12:_ZN4asio6detail15system_categoryD1Ev]
	bl	__cxa_atexit
	mov	x0, x21
	bl	__cxa_guard_release
	ldp	x23, x24, [sp, 48]
	.cfi_remember_state
	.cfi_restore 24
	.cfi_restore 23
	ldp	x25, x26, [sp, 64]
	.cfi_restore 26
	.cfi_restore 25
	b	.L452
	.p2align 2,,3
.L685:
	.cfi_restore_state
	mov	x0, x23
	bl	__cxa_guard_acquire
	cbz	w0, .L442
	adrp	x0, :got:_ZN4asio6detail15system_categoryD1Ev
	stp	x27, x28, [sp, 80]
	.cfi_offset 28, -56
	.cfi_offset 27, -64
	adrp	x27, :got:_ZZN4asio15system_categoryEvE8instance
	ldr	x0, [x0, #:got_lo12:_ZN4asio6detail15system_categoryD1Ev]
	adrp	x2, __dso_handle
	ldr	x1, [x27, #:got_lo12:_ZZN4asio15system_categoryEvE8instance]
	add	x2, x2, :lo12:__dso_handle
	bl	__cxa_atexit
	mov	x0, x23
	bl	__cxa_guard_release
	ldp	x27, x28, [sp, 80]
	.cfi_restore 28
	.cfi_restore 27
	cbz	w22, .L645
	.p2align 3,,7
.L686:
	ldr	x22, [x21, #:got_lo12:_ZGVZN4asio15system_categoryEvE8instance]
	ldar	x0, [x22]
	tbz	x0, 0, .L688
.L446:
	cmp	w25, 11
	beq	.L448
.L660:
	ldr	x21, [x21, #:got_lo12:_ZGVZN4asio15system_categoryEvE8instance]
	ldar	x0, [x21]
	tbnz	x0, 0, .L645
	mov	x0, x21
	bl	__cxa_guard_acquire
	cbz	w0, .L645
	adrp	x0, :got:_ZN4asio6detail15system_categoryD1Ev
	stp	x27, x28, [sp, 80]
	.cfi_offset 28, -56
	.cfi_offset 27, -64
	adrp	x27, :got:_ZZN4asio15system_categoryEvE8instance
	ldr	x0, [x0, #:got_lo12:_ZN4asio6detail15system_categoryD1Ev]
	adrp	x2, __dso_handle
	ldr	x1, [x27, #:got_lo12:_ZZN4asio15system_categoryEvE8instance]
	add	x2, x2, :lo12:__dso_handle
	bl	__cxa_atexit
	mov	x0, x21
	bl	__cxa_guard_release
	ldp	x23, x24, [sp, 48]
	.cfi_restore 24
	.cfi_restore 23
	ldp	x25, x26, [sp, 64]
	.cfi_restore 26
	.cfi_restore 25
	ldp	x27, x28, [sp, 80]
	.cfi_restore 28
	.cfi_restore 27
	b	.L405
	.p2align 2,,3
.L678:
	.cfi_offset 23, -96
	.cfi_offset 24, -88
	.cfi_offset 25, -80
	.cfi_offset 26, -72
	.cfi_offset 27, -64
	.cfi_offset 28, -56
	str	xzr, [x2, 112]
	str	xzr, [x0]
	str	xzr, [x20]
	cbnz	x28, .L527
	.p2align 3,,7
.L534:
	add	w21, w21, 1
	mov	x24, x20
	cmp	w21, 3
	bne	.L689
.L417:
	ldr	x23, [sp, 96]
	mov	w1, 1
	mov	w0, -1
	str	w0, [x3, 96]
	strb	w1, [x3, 152]
	mov	x0, x22
	add	x22, x23, 128
	bl	pthread_mutex_unlock
	mov	x0, x22
	ldr	x21, [x19, 160]
	bl	pthread_mutex_lock
	ldr	x0, [x23, 176]
	cmp	x21, x0
	beq	.L690
.L419:
	ldr	x0, [x21, 32]
	cbz	x0, .L420
	ldr	x1, [x21, 24]
	str	x1, [x0, 24]
.L420:
	ldr	x0, [x21, 24]
	cbz	x0, .L421
	ldr	x1, [x21, 32]
	str	x1, [x0, 32]
.L421:
	ldr	x23, [sp, 96]
	mov	x0, x22
	ldr	x2, [x23, 184]
	stp	x2, xzr, [x21, 24]
	str	x21, [x23, 184]
	bl	pthread_mutex_unlock
	str	xzr, [x19, 160]
	cbz	x24, .L422
	ldr	x21, [x23, 40]
	ldrb	w0, [x21, 40]
	cbz	w0, .L423
	adrp	x0, :got:_ZN4asio6detail10call_stackINS0_15task_io_serviceENS0_27task_io_service_thread_infoEE4top_E
	ldr	x0, [x0, #:got_lo12:_ZN4asio6detail10call_stackINS0_15task_io_serviceENS0_27task_io_service_thread_infoEE4top_E]
	ldr	w0, [x0]
	bl	pthread_getspecific
	cbnz	x0, .L426
	b	.L423
	.p2align 2,,3
.L424:
	ldr	x0, [x0, 16]
	cbz	x0, .L423
.L426:
	ldr	x1, [x0]
	cmp	x21, x1
	bne	.L424
	ldr	x0, [x0, 8]
	cbz	x0, .L423
	ldr	x2, [x0, 16]
	add	x1, x0, 8
	cbz	x2, .L427
	str	x24, [x2]
	str	x20, [x1, 8]
	.p2align 3,,7
.L422:
	ldr	w20, [x19, 152]
	ldp	x27, x28, [sp, 80]
	.cfi_remember_state
	.cfi_restore 28
	.cfi_restore 27
	b	.L429
	.p2align 2,,3
.L673:
	.cfi_restore_state
	str	xzr, [x2, 112]
	str	xzr, [x0]
	str	xzr, [x20]
	cbnz	x28, .L526
	.p2align 3,,7
.L533:
	add	w21, w21, 1
	mov	x24, x20
	cmp	w21, 3
	bne	.L691
.L464:
	ldr	x23, [sp, 96]
	mov	w1, 1
	mov	w0, -1
	str	w0, [x3, 96]
	strb	w1, [x3, 152]
	mov	x0, x22
	add	x22, x23, 128
	bl	pthread_mutex_unlock
	mov	x0, x22
	ldr	x21, [x19, 128]
	bl	pthread_mutex_lock
	ldr	x0, [x23, 176]
	cmp	x21, x0
	beq	.L692
.L466:
	ldr	x0, [x21, 32]
	cbz	x0, .L467
	ldr	x1, [x21, 24]
	str	x1, [x0, 24]
.L467:
	ldr	x0, [x21, 24]
	cbz	x0, .L468
	ldr	x1, [x21, 32]
	str	x1, [x0, 32]
.L468:
	ldr	x23, [sp, 96]
	mov	x0, x22
	ldr	x2, [x23, 184]
	stp	x2, xzr, [x21, 24]
	str	x21, [x23, 184]
	bl	pthread_mutex_unlock
	str	xzr, [x19, 128]
	cbz	x24, .L469
	ldr	x21, [x23, 40]
	ldrb	w0, [x21, 40]
	cbz	w0, .L470
	adrp	x0, :got:_ZN4asio6detail10call_stackINS0_15task_io_serviceENS0_27task_io_service_thread_infoEE4top_E
	ldr	x0, [x0, #:got_lo12:_ZN4asio6detail10call_stackINS0_15task_io_serviceENS0_27task_io_service_thread_infoEE4top_E]
	ldr	w0, [x0]
	bl	pthread_getspecific
	cbnz	x0, .L473
	b	.L470
	.p2align 2,,3
.L471:
	ldr	x0, [x0, 16]
	cbz	x0, .L470
.L473:
	ldr	x1, [x0]
	cmp	x21, x1
	bne	.L471
	ldr	x0, [x0, 8]
	cbz	x0, .L470
	ldr	x2, [x0, 16]
	add	x1, x0, 8
	cbz	x2, .L474
	str	x24, [x2]
	str	x20, [x1, 8]
	.p2align 3,,7
.L469:
	ldr	w20, [x19, 120]
	ldp	x27, x28, [sp, 80]
	.cfi_remember_state
	.cfi_restore 28
	.cfi_restore 27
	b	.L476
	.p2align 2,,3
.L674:
	.cfi_restore_state
	mov	x24, x20
	b	.L463
	.p2align 2,,3
.L679:
	mov	x24, x20
	b	.L416
	.p2align 2,,3
.L681:
	.cfi_restore 27
	.cfi_restore 28
	orr	w23, w23, 8
	strb	w23, [x19, 124]
	str	wzr, [x22]
	add	x3, sp, 120
	mov	w0, w20
	mov	w4, 8
	mov	w2, 13
	mov	w1, 1
	str	xzr, [sp, 120]
	bl	setsockopt
	ldr	x23, [x21, #:got_lo12:_ZGVZN4asio15system_categoryEvE8instance]
	ldar	x0, [x23]
	tbnz	x0, 0, .L484
	mov	x0, x23
	bl	__cxa_guard_acquire
	cbz	w0, .L484
	adrp	x1, :got:_ZZN4asio15system_categoryEvE8instance
	adrp	x0, :got:_ZN4asio6detail15system_categoryD1Ev
	adrp	x2, __dso_handle
	add	x2, x2, :lo12:__dso_handle
	ldr	x1, [x1, #:got_lo12:_ZZN4asio15system_categoryEvE8instance]
	ldr	x0, [x0, #:got_lo12:_ZN4asio6detail15system_categoryD1Ev]
	bl	__cxa_atexit
	mov	x0, x23
	bl	__cxa_guard_release
	b	.L484
	.p2align 2,,3
.L684:
	orr	w22, w22, 8
	strb	w22, [x19, 156]
	str	wzr, [x24]
	add	x3, sp, 120
	mov	w0, w20
	mov	w4, 8
	mov	w2, 13
	mov	w1, 1
	str	xzr, [sp, 120]
	bl	setsockopt
	ldr	x22, [x21, #:got_lo12:_ZGVZN4asio15system_categoryEvE8instance]
	ldar	x0, [x22]
	tbnz	x0, 0, .L437
	mov	x0, x22
	bl	__cxa_guard_acquire
	cbz	w0, .L437
	adrp	x0, :got:_ZN4asio6detail15system_categoryD1Ev
	stp	x27, x28, [sp, 80]
	.cfi_offset 28, -56
	.cfi_offset 27, -64
	adrp	x27, :got:_ZZN4asio15system_categoryEvE8instance
	ldr	x0, [x0, #:got_lo12:_ZN4asio6detail15system_categoryD1Ev]
	adrp	x2, __dso_handle
	ldr	x1, [x27, #:got_lo12:_ZZN4asio15system_categoryEvE8instance]
	add	x2, x2, :lo12:__dso_handle
	bl	__cxa_atexit
	mov	x0, x22
	bl	__cxa_guard_release
	ldp	x27, x28, [sp, 80]
	.cfi_restore 28
	.cfi_restore 27
	b	.L437
	.p2align 2,,3
.L470:
	.cfi_offset 27, -64
	.cfi_offset 28, -56
	add	x23, x21, 48
	mov	x0, x23
	bl	pthread_mutex_lock
	ldr	x1, [x21, 208]
	add	x0, x21, 200
	cbz	x1, .L477
	str	x24, [x1]
.L478:
	str	x20, [x0, 8]
	add	x22, x21, 96
	ldr	x0, [x21, 144]
	orr	x0, x0, 1
	str	x0, [x21, 144]
	cmp	x0, 1
	beq	.L479
	mov	x0, x23
	bl	pthread_mutex_unlock
	mov	x0, x22
	bl	pthread_cond_signal
	b	.L469
.L479:
	ldrb	w1, [x21, 184]
	cbnz	w1, .L481
	ldr	x4, [x21, 152]
	cbz	x4, .L481
	mov	w1, 9
	strb	w0, [x21, 184]
	ldr	w2, [x4, 96]
	add	x0, x4, 96
	movk	w1, 0x8000, lsl 16
	str	w1, [sp, 120]
	str	x0, [sp, 128]
	add	x3, sp, 120
	mov	w1, 3
	ldr	w0, [x4, 104]
	bl	epoll_ctl
.L481:
	mov	x0, x23
	bl	pthread_mutex_unlock
	b	.L469
	.p2align 2,,3
.L423:
	add	x23, x21, 48
	mov	x0, x23
	bl	pthread_mutex_lock
	ldr	x1, [x21, 208]
	add	x0, x21, 200
	cbz	x1, .L430
	str	x24, [x1]
.L431:
	str	x20, [x0, 8]
	add	x22, x21, 96
	ldr	x0, [x21, 144]
	orr	x0, x0, 1
	str	x0, [x21, 144]
	cmp	x0, 1
	beq	.L432
	mov	x0, x23
	bl	pthread_mutex_unlock
	mov	x0, x22
	bl	pthread_cond_signal
	b	.L422
.L432:
	ldrb	w1, [x21, 184]
	cbnz	w1, .L434
	ldr	x4, [x21, 152]
	cbz	x4, .L434
	mov	w1, 9
	strb	w0, [x21, 184]
	ldr	w2, [x4, 96]
	add	x0, x4, 96
	movk	w1, 0x8000, lsl 16
	str	w1, [sp, 120]
	str	x0, [sp, 128]
	add	x3, sp, 120
	mov	w1, 3
	ldr	w0, [x4, 104]
	bl	epoll_ctl
.L434:
	mov	x0, x23
	bl	pthread_mutex_unlock
	b	.L422
	.p2align 2,,3
.L504:
	.cfi_restore 23
	.cfi_restore 24
	.cfi_restore 25
	.cfi_restore 26
	.cfi_restore 27
	.cfi_restore 28
	add	x1, x21, 12
	mov	w0, -1
	bl	__aarch64_ldadd4_acq_rel
	b	.L505
	.p2align 2,,3
.L518:
	add	x1, x21, 12
	mov	w0, -1
	bl	__aarch64_ldadd4_acq_rel
	b	.L519
	.p2align 2,,3
.L396:
	add	x1, x21, 12
	mov	w0, -1
	bl	__aarch64_ldadd4_acq_rel
	b	.L397
	.p2align 2,,3
.L403:
	add	x1, x21, 12
	mov	w0, -1
	bl	__aarch64_ldadd4_acq_rel
	b	.L404
	.p2align 2,,3
.L511:
	add	x1, x21, 12
	mov	w0, -1
	bl	__aarch64_ldadd4_acq_rel
	b	.L512
	.p2align 2,,3
.L530:
	.cfi_offset 23, -96
	.cfi_offset 24, -88
	.cfi_offset 25, -80
	.cfi_offset 26, -72
	.cfi_offset 27, -64
	.cfi_offset 28, -56
	mov	x20, x28
	b	.L415
	.p2align 2,,3
.L676:
	ldr	x0, [sp, 96]
	str	wzr, [sp, 120]
	str	xzr, [sp, 128]
	add	x3, sp, 120
	mov	w2, w20
	mov	w1, 2
	ldr	w0, [x0, 104]
	bl	epoll_ctl
	ldr	x3, [x19, 160]
	b	.L408
	.p2align 2,,3
.L671:
	ldr	x0, [sp, 96]
	str	wzr, [sp, 120]
	str	xzr, [sp, 128]
	add	x3, sp, 120
	mov	w2, w20
	mov	w1, 2
	ldr	w0, [x0, 104]
	bl	epoll_ctl
	ldr	x3, [x19, 128]
	b	.L455
	.p2align 2,,3
.L532:
	mov	x20, x28
	b	.L462
	.p2align 2,,3
.L690:
	ldr	x1, [sp, 96]
	ldr	x0, [x21, 24]
	str	x0, [x1, 176]
	b	.L419
	.p2align 2,,3
.L692:
	ldr	x1, [sp, 96]
	ldr	x0, [x21, 24]
	str	x0, [x1, 176]
	b	.L466
.L687:
	.cfi_restore 27
	.cfi_restore 28
	mov	x0, x23
	bl	__cxa_guard_acquire
	cbz	w0, .L493
	adrp	x1, :got:_ZZN4asio15system_categoryEvE8instance
	adrp	x0, :got:_ZN4asio6detail15system_categoryD1Ev
	adrp	x2, __dso_handle
	add	x2, x2, :lo12:__dso_handle
	ldr	x1, [x1, #:got_lo12:_ZZN4asio15system_categoryEvE8instance]
	ldr	x0, [x0, #:got_lo12:_ZN4asio6detail15system_categoryD1Ev]
	bl	__cxa_atexit
	mov	x0, x23
	bl	__cxa_guard_release
	b	.L493
.L688:
	mov	x0, x22
	bl	__cxa_guard_acquire
	cbz	w0, .L446
	adrp	x0, :got:_ZN4asio6detail15system_categoryD1Ev
	stp	x27, x28, [sp, 80]
	.cfi_offset 28, -56
	.cfi_offset 27, -64
	adrp	x27, :got:_ZZN4asio15system_categoryEvE8instance
	ldr	x0, [x0, #:got_lo12:_ZN4asio6detail15system_categoryD1Ev]
	adrp	x2, __dso_handle
	ldr	x1, [x27, #:got_lo12:_ZZN4asio15system_categoryEvE8instance]
	add	x2, x2, :lo12:__dso_handle
	bl	__cxa_atexit
	mov	x0, x22
	bl	__cxa_guard_release
	ldp	x27, x28, [sp, 80]
	.cfi_restore 28
	.cfi_restore 27
	b	.L446
.L495:
	add	x2, sp, 120
	mov	w0, w20
	mov	x1, 21537
	str	wzr, [sp, 120]
	bl	ioctl
	ldrb	w1, [x19, 124]
	mov	w0, w20
	and	w1, w1, -4
	strb	w1, [x19, 124]
	str	wzr, [x22]
	bl	close
	b	.L662
.L448:
	add	x2, sp, 120
	mov	w0, w20
	mov	x1, 21537
	str	wzr, [sp, 120]
	bl	ioctl
	ldrb	w1, [x19, 156]
	mov	w0, w20
	and	w1, w1, -4
	strb	w1, [x19, 156]
	str	wzr, [x24]
	bl	close
	b	.L660
.L430:
	.cfi_offset 27, -64
	.cfi_offset 28, -56
	str	x24, [x21, 200]
	b	.L431
.L477:
	str	x24, [x21, 200]
	b	.L478
.L427:
	str	x24, [x0, 8]
	str	x20, [x1, 8]
	b	.L422
.L474:
	str	x24, [x0, 8]
	str	x20, [x1, 8]
	b	.L469
.L654:
	.cfi_restore 23
	.cfi_restore 24
	.cfi_restore 25
	.cfi_restore 26
	.cfi_restore 27
	.cfi_restore 28
	stp	x23, x24, [sp, 48]
	.cfi_offset 24, -88
	.cfi_offset 23, -96
	stp	x25, x26, [sp, 64]
	.cfi_offset 26, -72
	.cfi_offset 25, -80
	stp	x27, x28, [sp, 80]
	.cfi_offset 28, -56
	.cfi_offset 27, -64
	bl	__stack_chk_fail
	.cfi_endproc
.LFE12140:
	.section	.gcc_except_table._ZNSt23_Sp_counted_ptr_inplaceIN8asiodnp315MasterTCPServerESaIS1_ELN9__gnu_cxx12_Lock_policyE2EE10_M_disposeEv,"aG",@progbits,_ZNSt23_Sp_counted_ptr_inplaceIN8asiodnp315MasterTCPServerESaIS1_ELN9__gnu_cxx12_Lock_policyE2EE10_M_disposeEv,comdat
.LLSDA12140:
	.byte	0xff
	.byte	0xff
	.byte	0x1
	.uleb128 .LLSDACSE12140-.LLSDACSB12140
.LLSDACSB12140:
.LLSDACSE12140:
	.section	.text._ZNSt23_Sp_counted_ptr_inplaceIN8asiodnp315MasterTCPServerESaIS1_ELN9__gnu_cxx12_Lock_policyE2EE10_M_disposeEv,"axG",@progbits,_ZNSt23_Sp_counted_ptr_inplaceIN8asiodnp315MasterTCPServerESaIS1_ELN9__gnu_cxx12_Lock_policyE2EE10_M_disposeEv,comdat
	.size	_ZNSt23_Sp_counted_ptr_inplaceIN8asiodnp315MasterTCPServerESaIS1_ELN9__gnu_cxx12_Lock_policyE2EE10_M_disposeEv, .-_ZNSt23_Sp_counted_ptr_inplaceIN8asiodnp315MasterTCPServerESaIS1_ELN9__gnu_cxx12_Lock_policyE2EE10_M_disposeEv
	.section	.text.unlikely._ZN4asio6detail14do_throw_errorERKSt10error_codePKc,"axG",@progbits,_ZN4asio6detail14do_throw_errorERKSt10error_codePKc,comdat
	.align	2
	.weak	_ZN4asio6detail14do_throw_errorERKSt10error_codePKc
	.type	_ZN4asio6detail14do_throw_errorERKSt10error_codePKc, %function
_ZN4asio6detail14do_throw_errorERKSt10error_codePKc:
.LFB2639:
	.cfi_startproc
	.cfi_personality 0x9b,DW.ref.__gxx_personality_v0
	.cfi_lsda 0x1b,.LLSDA2639
	mov	x2, x0
	stp	x29, x30, [sp, -80]!
	.cfi_def_cfa_offset 80
	.cfi_offset 29, -80
	.cfi_offset 30, -72
	adrp	x4, :got:__stack_chk_guard
	mov	x3, x1
	mov	x29, sp
	ldr	x4, [x4, #:got_lo12:__stack_chk_guard]
	stp	x19, x20, [sp, 16]
	.cfi_offset 19, -64
	.cfi_offset 20, -56
	add	x20, sp, 40
	ldp	x1, x2, [x2]
	ldr	x5, [x4]
	str	x5, [sp, 72]
	mov	x5, 0
	mov	x0, x20
.LEHB5:
	bl	_ZNSt12system_errorC1ESt10error_codePKc
.LEHE5:
	mov	x0, 32
	bl	__cxa_allocate_exception
	mov	x1, x20
	mov	x19, x0
	bl	_ZNSt13runtime_errorC2ERKS_
	adrp	x3, :got:_ZTVSt12system_error
	adrp	x2, :got:_ZNSt12system_errorD1Ev
	adrp	x1, :got:_ZTISt12system_error
	mov	x0, x19
	ldr	x3, [x3, #:got_lo12:_ZTVSt12system_error]
	ldp	x4, x5, [sp, 56]
	add	x3, x3, 16
	ldr	x2, [x2, #:got_lo12:_ZNSt12system_errorD1Ev]
	str	x3, [x19]
	ldr	x1, [x1, #:got_lo12:_ZTISt12system_error]
	stp	x4, x5, [x19, 16]
.LEHB6:
	bl	__cxa_throw
.LEHE6:
.L696:
	mov	x19, x0
	mov	x0, x20
	bl	_ZNSt12system_errorD1Ev
	mov	x0, x19
.LEHB7:
	bl	_Unwind_Resume
.LEHE7:
	.cfi_endproc
.LFE2639:
	.section	.gcc_except_table._ZN4asio6detail14do_throw_errorERKSt10error_codePKc,"aG",@progbits,_ZN4asio6detail14do_throw_errorERKSt10error_codePKc,comdat
.LLSDA2639:
	.byte	0xff
	.byte	0xff
	.byte	0x1
	.uleb128 .LLSDACSE2639-.LLSDACSB2639
.LLSDACSB2639:
	.uleb128 .LEHB5-.LFB2639
	.uleb128 .LEHE5-.LEHB5
	.uleb128 0
	.uleb128 0
	.uleb128 .LEHB6-.LFB2639
	.uleb128 .LEHE6-.LEHB6
	.uleb128 .L696-.LFB2639
	.uleb128 0
	.uleb128 .LEHB7-.LFB2639
	.uleb128 .LEHE7-.LEHB7
	.uleb128 0
	.uleb128 0
.LLSDACSE2639:
	.section	.text.unlikely._ZN4asio6detail14do_throw_errorERKSt10error_codePKc,"axG",@progbits,_ZN4asio6detail14do_throw_errorERKSt10error_codePKc,comdat
	.size	_ZN4asio6detail14do_throw_errorERKSt10error_codePKc, .-_ZN4asio6detail14do_throw_errorERKSt10error_codePKc
	.section	.rodata._ZN4asio6detail20posix_tss_ptr_createERj.str1.8,"aMS",@progbits,1
	.align	3
.LC20:
	.string	"tss"
	.section	.text._ZN4asio6detail20posix_tss_ptr_createERj,"axG",@progbits,_ZN4asio6detail20posix_tss_ptr_createERj,comdat
	.align	2
	.p2align 4,,11
	.weak	_ZN4asio6detail20posix_tss_ptr_createERj
	.type	_ZN4asio6detail20posix_tss_ptr_createERj, %function
_ZN4asio6detail20posix_tss_ptr_createERj:
.LFB2663:
	.cfi_startproc
	stp	x29, x30, [sp, -80]!
	.cfi_def_cfa_offset 80
	.cfi_offset 29, -80
	.cfi_offset 30, -72
	adrp	x2, :got:__stack_chk_guard
	mov	x1, 0
	mov	x29, sp
	ldr	x2, [x2, #:got_lo12:__stack_chk_guard]
	stp	x19, x20, [sp, 16]
	.cfi_offset 19, -64
	.cfi_offset 20, -56
	adrp	x20, :got:_ZGVZN4asio15system_categoryEvE8instance
	str	x21, [sp, 32]
	.cfi_offset 21, -48
	ldr	x3, [x2]
	str	x3, [sp, 72]
	mov	x3, 0
	bl	pthread_key_create
	mov	w19, w0
	ldr	x20, [x20, #:got_lo12:_ZGVZN4asio15system_categoryEvE8instance]
	ldar	x0, [x20]
	adrp	x21, :got:_ZZN4asio15system_categoryEvE8instance
	tbz	x0, 0, .L708
.L700:
	ldr	x21, [x21, #:got_lo12:_ZZN4asio15system_categoryEvE8instance]
	str	w19, [sp, 56]
	str	x21, [sp, 64]
	cbnz	w19, .L709
	adrp	x0, :got:__stack_chk_guard
	ldr	x0, [x0, #:got_lo12:__stack_chk_guard]
	ldr	x2, [sp, 72]
	ldr	x1, [x0]
	subs	x2, x2, x1
	mov	x1, 0
	bne	.L710
	ldp	x19, x20, [sp, 16]
	ldr	x21, [sp, 32]
	ldp	x29, x30, [sp], 80
	.cfi_remember_state
	.cfi_restore 30
	.cfi_restore 29
	.cfi_restore 21
	.cfi_restore 19
	.cfi_restore 20
	.cfi_def_cfa_offset 0
	ret
	.p2align 2,,3
.L708:
	.cfi_restore_state
	mov	x0, x20
	adrp	x21, :got:_ZZN4asio15system_categoryEvE8instance
	bl	__cxa_guard_acquire
	cbz	w0, .L700
	adrp	x0, :got:_ZN4asio6detail15system_categoryD1Ev
	adrp	x2, __dso_handle
	ldr	x1, [x21, #:got_lo12:_ZZN4asio15system_categoryEvE8instance]
	add	x2, x2, :lo12:__dso_handle
	ldr	x0, [x0, #:got_lo12:_ZN4asio6detail15system_categoryD1Ev]
	bl	__cxa_atexit
	mov	x0, x20
	bl	__cxa_guard_release
	b	.L700
.L710:
	bl	__stack_chk_fail
.L709:
	adrp	x1, .LC20
	add	x0, sp, 56
	add	x1, x1, :lo12:.LC20
	bl	_ZN4asio6detail14do_throw_errorERKSt10error_codePKc
	.cfi_endproc
.LFE2663:
	.size	_ZN4asio6detail20posix_tss_ptr_createERj, .-_ZN4asio6detail20posix_tss_ptr_createERj
	.section	.text._ZN8asiodnp39IOHandlerD2Ev,"axG",@progbits,_ZN8asiodnp39IOHandlerD5Ev,comdat
	.align	2
	.p2align 4,,11
	.weak	_ZN8asiodnp39IOHandlerD2Ev
	.type	_ZN8asiodnp39IOHandlerD2Ev, %function
_ZN8asiodnp39IOHandlerD2Ev:
.LFB8112:
	.cfi_startproc
	stp	x29, x30, [sp, -112]!
	.cfi_def_cfa_offset 112
	.cfi_offset 29, -112
	.cfi_offset 30, -104
	adrp	x1, :got:_ZTVN8asiodnp39IOHandlerE
	adrp	x2, :got:_ZTVN8opendnp317MultidropTaskLockE
	mov	x29, sp
	ldr	x1, [x1, #:got_lo12:_ZTVN8asiodnp39IOHandlerE]
	stp	x23, x24, [sp, 48]
	.cfi_offset 23, -64
	.cfi_offset 24, -56
	mov	x23, x0
	ldr	x2, [x2, #:got_lo12:_ZTVN8opendnp317MultidropTaskLockE]
	stp	x21, x22, [sp, 32]
	.cfi_offset 21, -80
	.cfi_offset 22, -72
	add	x21, x0, 712
	ldr	x0, [x0, 712]
	stp	x19, x20, [sp, 16]
	add	x3, x1, 16
	stp	x25, x26, [sp, 64]
	add	x1, x1, 104
	add	x2, x2, 16
	stp	x3, x1, [x23]
	str	x2, [x23, 648]
	.cfi_offset 19, -96
	.cfi_offset 20, -88
	.cfi_offset 25, -48
	.cfi_offset 26, -40
	cbz	x0, .L712
	ldr	x20, [x21, 72]
	ldr	x19, [x21, 40]
	add	x20, x20, 8
	cmp	x19, x20
	bcs	.L713
	.p2align 3,,7
.L714:
	ldr	x0, [x19], 8
	mov	x1, 512
	bl	_ZdlPvm
	cmp	x20, x19
	bhi	.L714
	ldr	x0, [x23, 712]
.L713:
	ldr	x1, [x21, 8]
	lsl	x1, x1, 3
	bl	_ZdlPvm
.L712:
	ldr	x19, [x23, 680]
	cbz	x19, .L718
.L715:
	ldr	x0, [x19, 24]
	bl	_ZNSt8_Rb_treeIPN8opendnp317IScheduleCallbackES2_St9_IdentityIS2_ESt4lessIS2_ESaIS2_EE8_M_eraseEPSt13_Rb_tree_nodeIS2_E.isra.0
	mov	x0, x19
	mov	x1, 40
	ldr	x19, [x19, 16]
	bl	_ZdlPvm
	cbnz	x19, .L715
.L718:
	ldr	x20, [x23, 640]
	cbz	x20, .L719
	adrp	x19, :got:__libc_single_threaded
	ldr	x0, [x19, #:got_lo12:__libc_single_threaded]
	ldrb	w0, [x0]
	cbz	w0, .L720
	ldr	w0, [x20, 8]
	sub	w1, w0, #1
	str	w1, [x20, 8]
.L721:
	cmp	w0, 1
	beq	.L839
.L719:
	ldr	x20, [x23, 240]
	cbz	x20, .L725
	adrp	x19, :got:__libc_single_threaded
	ldr	x0, [x19, #:got_lo12:__libc_single_threaded]
	ldrb	w0, [x0]
	cbz	w0, .L726
	ldr	w0, [x20, 8]
	sub	w1, w0, #1
	str	w1, [x20, 8]
.L727:
	cmp	w0, 1
	beq	.L840
.L725:
	ldr	x20, [x23, 224]
	cbz	x20, .L732
	adrp	x19, :got:__libc_single_threaded
	ldr	x0, [x19, #:got_lo12:__libc_single_threaded]
	ldrb	w0, [x0]
	cbz	w0, .L733
	ldr	w0, [x20, 8]
	sub	w1, w0, #1
	str	w1, [x20, 8]
.L734:
	cmp	w0, 1
	beq	.L841
.L732:
	ldp	x0, x2, [x23, 168]
	adrp	x20, :got:__libc_single_threaded
	ldr	x25, [x23, 208]
	stp	x0, x2, [sp, 96]
	ldr	x20, [x20, #:got_lo12:__libc_single_threaded]
	add	x22, x2, 8
	ldr	x21, [x23, 152]
	ldp	x26, x24, [x23, 184]
	cmp	x25, x22
	bls	.L749
	stp	x27, x28, [sp, 80]
	.cfi_offset 28, -24
	.cfi_offset 27, -32
	.p2align 3,,7
.L738:
	ldr	x19, [x22]
	add	x28, x19, 512
	b	.L748
	.p2align 2,,3
.L742:
	add	x19, x19, 32
	cmp	x19, x28
	beq	.L842
.L748:
	ldr	x27, [x19, 24]
	cbz	x27, .L742
	ldrb	w0, [x20]
	cbz	w0, .L743
	ldr	w0, [x27, 8]
	sub	w1, w0, #1
	str	w1, [x27, 8]
.L744:
	cmp	w0, 1
	bne	.L742
	ldr	x1, [x27]
	mov	x0, x27
	ldr	x1, [x1, 16]
	blr	x1
	ldrb	w0, [x20]
	cbz	w0, .L746
	ldr	w0, [x27, 12]
	sub	w1, w0, #1
	str	w1, [x27, 12]
.L747:
	cmp	w0, 1
	bne	.L742
	ldr	x1, [x27]
	mov	x0, x27
	add	x19, x19, 32
	ldr	x1, [x1, 24]
	blr	x1
	cmp	x19, x28
	bne	.L748
	.p2align 3,,7
.L842:
	add	x22, x22, 8
	cmp	x25, x22
	bhi	.L738
	ldp	x27, x28, [sp, 80]
	.cfi_restore 28
	.cfi_restore 27
.L749:
	ldr	x0, [sp, 104]
	cmp	x0, x25
	beq	.L843
	ldr	x0, [sp, 96]
	adrp	x20, :got:__libc_single_threaded
	ldr	x20, [x20, #:got_lo12:__libc_single_threaded]
	cmp	x21, x0
	bne	.L753
	b	.L763
	.p2align 2,,3
.L757:
	ldr	x0, [sp, 96]
	add	x21, x21, 32
	cmp	x0, x21
	beq	.L763
.L753:
	ldr	x19, [x21, 24]
	cbz	x19, .L757
	ldrb	w0, [x20]
	cbz	w0, .L758
	ldr	w0, [x19, 8]
	sub	w1, w0, #1
	str	w1, [x19, 8]
.L759:
	cmp	w0, 1
	bne	.L757
	ldr	x1, [x19]
	mov	x0, x19
	ldr	x1, [x1, 16]
	blr	x1
	ldrb	w0, [x20]
	cbz	w0, .L761
	ldr	w0, [x19, 12]
	sub	w1, w0, #1
	str	w1, [x19, 12]
.L762:
	cmp	w0, 1
	bne	.L757
	ldr	x1, [x19]
	mov	x0, x19
	add	x21, x21, 32
	ldr	x1, [x1, 24]
	blr	x1
	ldr	x0, [sp, 96]
	cmp	x0, x21
	bne	.L753
.L763:
	adrp	x20, :got:__libc_single_threaded
	ldr	x20, [x20, #:got_lo12:__libc_single_threaded]
	cmp	x26, x24
	bne	.L754
	b	.L755
	.p2align 2,,3
.L765:
	add	x24, x24, 32
	cmp	x26, x24
	beq	.L755
.L754:
	ldr	x19, [x24, 24]
	cbz	x19, .L765
	ldrb	w0, [x20]
	cbz	w0, .L766
	ldr	w0, [x19, 8]
	sub	w1, w0, #1
	str	w1, [x19, 8]
.L767:
	cmp	w0, 1
	bne	.L765
	ldr	x1, [x19]
	mov	x0, x19
	ldr	x1, [x1, 16]
	blr	x1
	ldrb	w0, [x20]
	cbz	w0, .L769
	ldr	w0, [x19, 12]
	sub	w1, w0, #1
	str	w1, [x19, 12]
.L770:
	cmp	w0, 1
	bne	.L765
	ldr	x1, [x19]
	mov	x0, x19
	add	x24, x24, 32
	ldr	x1, [x1, 24]
	blr	x1
	cmp	x26, x24
	bne	.L754
	.p2align 3,,7
.L755:
	ldr	x0, [x23, 136]
	add	x21, x23, 136
	cbz	x0, .L752
	ldr	x20, [x21, 72]
	ldr	x19, [x21, 40]
	add	x20, x20, 8
	cmp	x19, x20
	bcs	.L778
	.p2align 3,,7
.L779:
	ldr	x0, [x19], 8
	mov	x1, 512
	bl	_ZdlPvm
	cmp	x20, x19
	bhi	.L779
	ldr	x0, [x23, 136]
.L778:
	ldr	x1, [x21, 8]
	lsl	x1, x1, 3
	bl	_ZdlPvm
.L752:
	ldr	x19, [x23, 112]
	add	x24, x23, 112
	ldr	x21, [x24, 8]
	cmp	x19, x21
	beq	.L780
	adrp	x22, :got:__libc_single_threaded
	ldr	x22, [x22, #:got_lo12:__libc_single_threaded]
	b	.L788
	.p2align 2,,3
.L782:
	add	x19, x19, 24
	cmp	x21, x19
	beq	.L844
.L788:
	ldr	x20, [x19, 16]
	cbz	x20, .L782
	ldrb	w0, [x22]
	cbz	w0, .L783
	ldr	w0, [x20, 8]
	sub	w1, w0, #1
	str	w1, [x20, 8]
.L784:
	cmp	w0, 1
	bne	.L782
	ldr	x1, [x20]
	mov	x0, x20
	ldr	x1, [x1, 16]
	blr	x1
	ldrb	w0, [x22]
	cbz	w0, .L786
	ldr	w0, [x20, 12]
	sub	w1, w0, #1
	str	w1, [x20, 12]
.L787:
	cmp	w0, 1
	bne	.L782
	ldr	x1, [x20]
	mov	x0, x20
	add	x19, x19, 24
	ldr	x1, [x1, 24]
	blr	x1
	cmp	x21, x19
	bne	.L788
	.p2align 3,,7
.L844:
	ldr	x21, [x23, 112]
.L780:
	cbz	x21, .L789
	ldr	x1, [x24, 16]
	mov	x0, x21
	sub	x1, x1, x21
	bl	_ZdlPvm
.L789:
	ldr	x20, [x23, 72]
	cbz	x20, .L791
	adrp	x19, :got:__libc_single_threaded
	ldr	x0, [x19, #:got_lo12:__libc_single_threaded]
	ldrb	w0, [x0]
	cbz	w0, .L792
	ldr	w0, [x20, 8]
	sub	w1, w0, #1
	str	w1, [x20, 8]
.L793:
	cmp	w0, 1
	beq	.L845
.L791:
	ldr	x20, [x23, 56]
	cbz	x20, .L798
	adrp	x19, :got:__libc_single_threaded
	ldr	x0, [x19, #:got_lo12:__libc_single_threaded]
	ldrb	w0, [x0]
	cbz	w0, .L799
	ldr	w0, [x20, 8]
	sub	w1, w0, #1
	str	w1, [x20, 8]
.L800:
	cmp	w0, 1
	beq	.L846
.L798:
	ldr	x20, [x23, 40]
	cbz	x20, .L805
	adrp	x19, :got:__libc_single_threaded
	ldr	x0, [x19, #:got_lo12:__libc_single_threaded]
	ldrb	w0, [x0]
	cbz	w0, .L806
	ldr	w0, [x20, 8]
	sub	w1, w0, #1
	str	w1, [x20, 8]
.L807:
	cmp	w0, 1
	beq	.L847
.L805:
	ldr	x19, [x23, 24]
	cbz	x19, .L711
	adrp	x0, :got:__libc_single_threaded
	ldr	x0, [x0, #:got_lo12:__libc_single_threaded]
	ldrb	w0, [x0]
	cbz	w0, .L813
	ldr	w0, [x19, 12]
	sub	w1, w0, #1
	str	w1, [x19, 12]
.L814:
	cmp	w0, 1
	beq	.L848
.L711:
	ldp	x19, x20, [sp, 16]
	ldp	x21, x22, [sp, 32]
	ldp	x23, x24, [sp, 48]
	ldp	x25, x26, [sp, 64]
	ldp	x29, x30, [sp], 112
	.cfi_restore 30
	.cfi_restore 29
	.cfi_restore 25
	.cfi_restore 26
	.cfi_restore 23
	.cfi_restore 24
	.cfi_restore 21
	.cfi_restore 22
	.cfi_restore 19
	.cfi_restore 20
	.cfi_def_cfa_offset 0
	ret
	.p2align 2,,3
.L743:
	.cfi_def_cfa_offset 112
	.cfi_offset 19, -96
	.cfi_offset 20, -88
	.cfi_offset 21, -80
	.cfi_offset 22, -72
	.cfi_offset 23, -64
	.cfi_offset 24, -56
	.cfi_offset 25, -48
	.cfi_offset 26, -40
	.cfi_offset 27, -32
	.cfi_offset 28, -24
	.cfi_offset 29, -112
	.cfi_offset 30, -104
	add	x1, x27, 8
	mov	w0, -1
	bl	__aarch64_ldadd4_acq_rel
	b	.L744
	.p2align 2,,3
.L746:
	add	x1, x27, 12
	mov	w0, -1
	bl	__aarch64_ldadd4_acq_rel
	b	.L747
	.p2align 2,,3
.L758:
	.cfi_restore 27
	.cfi_restore 28
	add	x1, x19, 8
	mov	w0, -1
	bl	__aarch64_ldadd4_acq_rel
	b	.L759
	.p2align 2,,3
.L783:
	add	x1, x20, 8
	mov	w0, -1
	bl	__aarch64_ldadd4_acq_rel
	b	.L784
	.p2align 2,,3
.L766:
	add	x1, x19, 8
	mov	w0, -1
	bl	__aarch64_ldadd4_acq_rel
	b	.L767
.L786:
	add	x1, x20, 12
	mov	w0, -1
	bl	__aarch64_ldadd4_acq_rel
	b	.L787
.L761:
	add	x1, x19, 12
	mov	w0, -1
	bl	__aarch64_ldadd4_acq_rel
	b	.L762
.L769:
	add	x1, x19, 12
	mov	w0, -1
	bl	__aarch64_ldadd4_acq_rel
	b	.L770
.L843:
	adrp	x20, :got:__libc_single_threaded
	ldr	x20, [x20, #:got_lo12:__libc_single_threaded]
	cmp	x21, x26
	bne	.L750
	b	.L755
	.p2align 2,,3
.L772:
	add	x21, x21, 32
	cmp	x26, x21
	beq	.L755
.L750:
	ldr	x19, [x21, 24]
	cbz	x19, .L772
	ldrb	w0, [x20]
	cbz	w0, .L773
	ldr	w0, [x19, 8]
	sub	w1, w0, #1
	str	w1, [x19, 8]
.L774:
	cmp	w0, 1
	bne	.L772
	ldr	x1, [x19]
	mov	x0, x19
	ldr	x1, [x1, 16]
	blr	x1
	ldrb	w0, [x20]
	cbz	w0, .L776
	ldr	w0, [x19, 12]
	sub	w1, w0, #1
	str	w1, [x19, 12]
.L777:
	cmp	w0, 1
	bne	.L772
	ldr	x1, [x19]
	mov	x0, x19
	ldr	x1, [x1, 24]
	blr	x1
	b	.L772
.L773:
	add	x1, x19, 8
	mov	w0, -1
	bl	__aarch64_ldadd4_acq_rel
	b	.L774
.L839:
	ldr	x1, [x20]
	mov	x0, x20
	ldr	x1, [x1, 16]
	blr	x1
	ldr	x19, [x19, #:got_lo12:__libc_single_threaded]
	ldrb	w0, [x19]
	cbz	w0, .L722
	ldr	w0, [x20, 12]
	sub	w1, w0, #1
	str	w1, [x20, 12]
.L723:
	cmp	w0, 1
	bne	.L719
	ldr	x1, [x20]
	mov	x0, x20
	ldr	x1, [x1, 24]
	blr	x1
	b	.L719
.L840:
	ldr	x1, [x20]
	mov	x0, x20
	ldr	x1, [x1, 16]
	blr	x1
	ldr	x19, [x19, #:got_lo12:__libc_single_threaded]
	ldrb	w0, [x19]
	cbz	w0, .L729
	ldr	w0, [x20, 12]
	sub	w1, w0, #1
	str	w1, [x20, 12]
.L730:
	cmp	w0, 1
	bne	.L725
	ldr	x1, [x20]
	mov	x0, x20
	ldr	x1, [x1, 24]
	blr	x1
	b	.L725
.L841:
	ldr	x1, [x20]
	mov	x0, x20
	ldr	x1, [x1, 16]
	blr	x1
	ldr	x19, [x19, #:got_lo12:__libc_single_threaded]
	ldrb	w0, [x19]
	cbz	w0, .L736
	ldr	w0, [x20, 12]
	sub	w1, w0, #1
	str	w1, [x20, 12]
.L737:
	cmp	w0, 1
	bne	.L732
	ldr	x1, [x20]
	mov	x0, x20
	ldr	x1, [x1, 24]
	blr	x1
	b	.L732
.L845:
	ldr	x1, [x20]
	mov	x0, x20
	ldr	x1, [x1, 16]
	blr	x1
	ldr	x19, [x19, #:got_lo12:__libc_single_threaded]
	ldrb	w0, [x19]
	cbz	w0, .L795
	ldr	w0, [x20, 12]
	sub	w1, w0, #1
	str	w1, [x20, 12]
.L796:
	cmp	w0, 1
	bne	.L791
	ldr	x1, [x20]
	mov	x0, x20
	ldr	x1, [x1, 24]
	blr	x1
	b	.L791
.L846:
	ldr	x1, [x20]
	mov	x0, x20
	ldr	x1, [x1, 16]
	blr	x1
	ldr	x19, [x19, #:got_lo12:__libc_single_threaded]
	ldrb	w0, [x19]
	cbz	w0, .L802
	ldr	w0, [x20, 12]
	sub	w1, w0, #1
	str	w1, [x20, 12]
.L803:
	cmp	w0, 1
	bne	.L798
	ldr	x1, [x20]
	mov	x0, x20
	ldr	x1, [x1, 24]
	blr	x1
	b	.L798
.L848:
	ldr	x1, [x19]
	mov	x0, x19
	ldp	x19, x20, [sp, 16]
	ldr	x1, [x1, 24]
	ldp	x21, x22, [sp, 32]
	mov	x16, x1
	ldp	x23, x24, [sp, 48]
	ldp	x25, x26, [sp, 64]
	ldp	x29, x30, [sp], 112
	.cfi_remember_state
	.cfi_restore 30
	.cfi_restore 29
	.cfi_restore 25
	.cfi_restore 26
	.cfi_restore 23
	.cfi_restore 24
	.cfi_restore 21
	.cfi_restore 22
	.cfi_restore 19
	.cfi_restore 20
	.cfi_def_cfa_offset 0
	br	x16
.L847:
	.cfi_restore_state
	ldr	x1, [x20]
	mov	x0, x20
	ldr	x1, [x1, 16]
	blr	x1
	ldr	x19, [x19, #:got_lo12:__libc_single_threaded]
	ldrb	w0, [x19]
	cbz	w0, .L809
	ldr	w0, [x20, 12]
	sub	w1, w0, #1
	str	w1, [x20, 12]
.L810:
	cmp	w0, 1
	bne	.L805
	ldr	x1, [x20]
	mov	x0, x20
	ldr	x1, [x1, 24]
	blr	x1
	b	.L805
.L799:
	add	x1, x20, 8
	mov	w0, -1
	bl	__aarch64_ldadd4_acq_rel
	b	.L800
.L720:
	add	x1, x20, 8
	mov	w0, -1
	bl	__aarch64_ldadd4_acq_rel
	b	.L721
.L726:
	add	x1, x20, 8
	mov	w0, -1
	bl	__aarch64_ldadd4_acq_rel
	b	.L727
.L733:
	add	x1, x20, 8
	mov	w0, -1
	bl	__aarch64_ldadd4_acq_rel
	b	.L734
.L813:
	add	x1, x19, 12
	mov	w0, -1
	bl	__aarch64_ldadd4_acq_rel
	b	.L814
.L806:
	add	x1, x20, 8
	mov	w0, -1
	bl	__aarch64_ldadd4_acq_rel
	b	.L807
.L792:
	add	x1, x20, 8
	mov	w0, -1
	bl	__aarch64_ldadd4_acq_rel
	b	.L793
.L776:
	add	x1, x19, 12
	mov	w0, -1
	bl	__aarch64_ldadd4_acq_rel
	b	.L777
.L722:
	add	x1, x20, 12
	mov	w0, -1
	bl	__aarch64_ldadd4_acq_rel
	b	.L723
.L795:
	add	x1, x20, 12
	mov	w0, -1
	bl	__aarch64_ldadd4_acq_rel
	b	.L796
.L802:
	add	x1, x20, 12
	mov	w0, -1
	bl	__aarch64_ldadd4_acq_rel
	b	.L803
.L809:
	add	x1, x20, 12
	mov	w0, -1
	bl	__aarch64_ldadd4_acq_rel
	b	.L810
.L729:
	add	x1, x20, 12
	mov	w0, -1
	bl	__aarch64_ldadd4_acq_rel
	b	.L730
.L736:
	add	x1, x20, 12
	mov	w0, -1
	bl	__aarch64_ldadd4_acq_rel
	b	.L737
	.cfi_endproc
.LFE8112:
	.size	_ZN8asiodnp39IOHandlerD2Ev, .-_ZN8asiodnp39IOHandlerD2Ev
	.set	.LTHUNK2,_ZN8asiodnp39IOHandlerD2Ev
	.align	2
	.p2align 4,,11
	.weak	_ZThn8_N8asiodnp39IOHandlerD1Ev
	.type	_ZThn8_N8asiodnp39IOHandlerD1Ev, %function
_ZThn8_N8asiodnp39IOHandlerD1Ev:
.LFB12386:
	.cfi_startproc
	sub	x0, x0, #8
	b	.LTHUNK2
	.cfi_endproc
.LFE12386:
	.size	_ZThn8_N8asiodnp39IOHandlerD1Ev, .-_ZThn8_N8asiodnp39IOHandlerD1Ev
	.weak	_ZN8asiodnp39IOHandlerD1Ev
	.set	_ZN8asiodnp39IOHandlerD1Ev,_ZN8asiodnp39IOHandlerD2Ev
	.section	.text._ZNSt23_Sp_counted_ptr_inplaceIN8asiodnp315SerialIOHandlerESaIS1_ELN9__gnu_cxx12_Lock_policyE2EE10_M_disposeEv,"axG",@progbits,_ZNSt23_Sp_counted_ptr_inplaceIN8asiodnp315SerialIOHandlerESaIS1_ELN9__gnu_cxx12_Lock_policyE2EE10_M_disposeEv,comdat
	.align	2
	.p2align 4,,11
	.weak	_ZNSt23_Sp_counted_ptr_inplaceIN8asiodnp315SerialIOHandlerESaIS1_ELN9__gnu_cxx12_Lock_policyE2EE10_M_disposeEv
	.type	_ZNSt23_Sp_counted_ptr_inplaceIN8asiodnp315SerialIOHandlerESaIS1_ELN9__gnu_cxx12_Lock_policyE2EE10_M_disposeEv, %function
_ZNSt23_Sp_counted_ptr_inplaceIN8asiodnp315SerialIOHandlerESaIS1_ELN9__gnu_cxx12_Lock_policyE2EE10_M_disposeEv:
.LFB12105:
	.cfi_startproc
	stp	x29, x30, [sp, -48]!
	.cfi_def_cfa_offset 48
	.cfi_offset 29, -48
	.cfi_offset 30, -40
	adrp	x1, :got:_ZTVN8asiodnp315SerialIOHandlerE
	mov	x29, sp
	ldr	x1, [x1, #:got_lo12:_ZTVN8asiodnp315SerialIOHandlerE]
	stp	x19, x20, [sp, 16]
	.cfi_offset 19, -32
	.cfi_offset 20, -24
	mov	x19, x0
	add	x20, x0, 16
	add	x2, x1, 16
	add	x1, x1, 104
	add	x0, x0, 912
	str	x2, [x19, 16]
	str	x1, [x20, 8]
	bl	_ZN7openpal8TimerRefD1Ev
	ldr	x0, [x19, 856]
	add	x1, x19, 872
	cmp	x0, x1
	beq	.L850
	ldr	x1, [x19, 872]
	add	x1, x1, 1
	bl	_ZdlPvm
.L850:
	ldr	x19, [x19, 824]
	cbz	x19, .L852
	str	x21, [sp, 32]
	.cfi_offset 21, -16
	adrp	x21, :got:__libc_single_threaded
	ldr	x0, [x21, #:got_lo12:__libc_single_threaded]
	ldrb	w0, [x0]
	cbz	w0, .L853
	ldr	w0, [x19, 8]
	sub	w1, w0, #1
	str	w1, [x19, 8]
.L854:
	cmp	w0, 1
	beq	.L861
.L860:
	ldr	x21, [sp, 32]
	.cfi_restore 21
.L852:
	mov	x0, x20
	ldp	x19, x20, [sp, 16]
	ldp	x29, x30, [sp], 48
	.cfi_restore 30
	.cfi_restore 29
	.cfi_restore 19
	.cfi_restore 20
	.cfi_def_cfa_offset 0
	b	_ZN8asiodnp39IOHandlerD2Ev
	.p2align 2,,3
.L861:
	.cfi_def_cfa_offset 48
	.cfi_offset 19, -32
	.cfi_offset 20, -24
	.cfi_offset 21, -16
	.cfi_offset 29, -48
	.cfi_offset 30, -40
	ldr	x1, [x19]
	mov	x0, x19
	ldr	x1, [x1, 16]
	blr	x1
	ldr	x21, [x21, #:got_lo12:__libc_single_threaded]
	ldrb	w0, [x21]
	cbz	w0, .L856
	ldr	w0, [x19, 12]
	sub	w1, w0, #1
	str	w1, [x19, 12]
.L857:
	cmp	w0, 1
	bne	.L860
	ldr	x1, [x19]
	mov	x0, x19
	ldr	x1, [x1, 24]
	blr	x1
	ldr	x21, [sp, 32]
	.cfi_remember_state
	.cfi_restore 21
	b	.L852
	.p2align 2,,3
.L853:
	.cfi_restore_state
	add	x1, x19, 8
	mov	w0, -1
	bl	__aarch64_ldadd4_acq_rel
	b	.L854
	.p2align 2,,3
.L856:
	add	x1, x19, 12
	mov	w0, -1
	bl	__aarch64_ldadd4_acq_rel
	b	.L857
	.cfi_endproc
.LFE12105:
	.size	_ZNSt23_Sp_counted_ptr_inplaceIN8asiodnp315SerialIOHandlerESaIS1_ELN9__gnu_cxx12_Lock_policyE2EE10_M_disposeEv, .-_ZNSt23_Sp_counted_ptr_inplaceIN8asiodnp315SerialIOHandlerESaIS1_ELN9__gnu_cxx12_Lock_policyE2EE10_M_disposeEv
	.section	.text._ZNSt23_Sp_counted_ptr_inplaceIN8asiodnp318TCPServerIOHandlerESaIS1_ELN9__gnu_cxx12_Lock_policyE2EE10_M_disposeEv,"axG",@progbits,_ZNSt23_Sp_counted_ptr_inplaceIN8asiodnp318TCPServerIOHandlerESaIS1_ELN9__gnu_cxx12_Lock_policyE2EE10_M_disposeEv,comdat
	.align	2
	.p2align 4,,11
	.weak	_ZNSt23_Sp_counted_ptr_inplaceIN8asiodnp318TCPServerIOHandlerESaIS1_ELN9__gnu_cxx12_Lock_policyE2EE10_M_disposeEv
	.type	_ZNSt23_Sp_counted_ptr_inplaceIN8asiodnp318TCPServerIOHandlerESaIS1_ELN9__gnu_cxx12_Lock_policyE2EE10_M_disposeEv, %function
_ZNSt23_Sp_counted_ptr_inplaceIN8asiodnp318TCPServerIOHandlerESaIS1_ELN9__gnu_cxx12_Lock_policyE2EE10_M_disposeEv:
.LFB12119:
	.cfi_startproc
	stp	x29, x30, [sp, -48]!
	.cfi_def_cfa_offset 48
	.cfi_offset 29, -48
	.cfi_offset 30, -40
	adrp	x1, :got:_ZTVN8asiodnp318TCPServerIOHandlerE
	mov	x29, sp
	stp	x19, x20, [sp, 16]
	.cfi_offset 19, -32
	.cfi_offset 20, -24
	mov	x19, x0
	ldr	x0, [x1, #:got_lo12:_ZTVN8asiodnp318TCPServerIOHandlerE]
	stp	x21, x22, [sp, 32]
	.cfi_offset 21, -16
	.cfi_offset 22, -8
	add	x22, x19, 16
	ldr	x20, [x19, 880]
	add	x1, x0, 16
	str	x1, [x19, 16]
	add	x0, x0, 104
	str	x0, [x22, 8]
	cbz	x20, .L864
	adrp	x21, :got:__libc_single_threaded
	ldr	x0, [x21, #:got_lo12:__libc_single_threaded]
	ldrb	w0, [x0]
	cbz	w0, .L865
	ldr	w0, [x20, 8]
	sub	w1, w0, #1
	str	w1, [x20, 8]
.L866:
	cmp	w0, 1
	beq	.L879
.L864:
	ldr	x0, [x19, 832]
	add	x1, x19, 848
	cmp	x0, x1
	beq	.L870
	ldr	x1, [x19, 848]
	add	x1, x1, 1
	bl	_ZdlPvm
.L870:
	ldr	x19, [x19, 824]
	cbz	x19, .L872
	adrp	x21, :got:__libc_single_threaded
	ldr	x0, [x21, #:got_lo12:__libc_single_threaded]
	ldrb	w0, [x0]
	cbz	w0, .L873
	ldr	w0, [x19, 8]
	sub	w1, w0, #1
	str	w1, [x19, 8]
.L874:
	cmp	w0, 1
	beq	.L880
.L872:
	mov	x0, x22
	ldp	x19, x20, [sp, 16]
	ldp	x21, x22, [sp, 32]
	ldp	x29, x30, [sp], 48
	.cfi_remember_state
	.cfi_restore 30
	.cfi_restore 29
	.cfi_restore 21
	.cfi_restore 22
	.cfi_restore 19
	.cfi_restore 20
	.cfi_def_cfa_offset 0
	b	_ZN8asiodnp39IOHandlerD2Ev
	.p2align 2,,3
.L879:
	.cfi_restore_state
	ldr	x1, [x20]
	mov	x0, x20
	ldr	x1, [x1, 16]
	blr	x1
	ldr	x21, [x21, #:got_lo12:__libc_single_threaded]
	ldrb	w0, [x21]
	cbz	w0, .L868
	ldr	w0, [x20, 12]
	sub	w1, w0, #1
	str	w1, [x20, 12]
.L869:
	cmp	w0, 1
	bne	.L864
	ldr	x1, [x20]
	mov	x0, x20
	ldr	x1, [x1, 24]
	blr	x1
	b	.L864
	.p2align 2,,3
.L880:
	ldr	x1, [x19]
	mov	x0, x19
	ldr	x1, [x1, 16]
	blr	x1
	ldr	x21, [x21, #:got_lo12:__libc_single_threaded]
	ldrb	w0, [x21]
	cbz	w0, .L876
	ldr	w0, [x19, 12]
	sub	w1, w0, #1
	str	w1, [x19, 12]
.L877:
	cmp	w0, 1
	bne	.L872
	ldr	x1, [x19]
	mov	x0, x19
	ldr	x1, [x1, 24]
	blr	x1
	b	.L872
	.p2align 2,,3
.L873:
	add	x1, x19, 8
	mov	w0, -1
	bl	__aarch64_ldadd4_acq_rel
	b	.L874
	.p2align 2,,3
.L865:
	add	x1, x20, 8
	mov	w0, -1
	bl	__aarch64_ldadd4_acq_rel
	b	.L866
	.p2align 2,,3
.L868:
	add	x1, x20, 12
	mov	w0, -1
	bl	__aarch64_ldadd4_acq_rel
	b	.L869
	.p2align 2,,3
.L876:
	add	x1, x19, 12
	mov	w0, -1
	bl	__aarch64_ldadd4_acq_rel
	b	.L877
	.cfi_endproc
.LFE12119:
	.size	_ZNSt23_Sp_counted_ptr_inplaceIN8asiodnp318TCPServerIOHandlerESaIS1_ELN9__gnu_cxx12_Lock_policyE2EE10_M_disposeEv, .-_ZNSt23_Sp_counted_ptr_inplaceIN8asiodnp318TCPServerIOHandlerESaIS1_ELN9__gnu_cxx12_Lock_policyE2EE10_M_disposeEv
	.section	.text._ZNSt23_Sp_counted_ptr_inplaceIN8asiodnp318TCPClientIOHandlerESaIS1_ELN9__gnu_cxx12_Lock_policyE2EE10_M_disposeEv,"axG",@progbits,_ZNSt23_Sp_counted_ptr_inplaceIN8asiodnp318TCPClientIOHandlerESaIS1_ELN9__gnu_cxx12_Lock_policyE2EE10_M_disposeEv,comdat
	.align	2
	.p2align 4,,11
	.weak	_ZNSt23_Sp_counted_ptr_inplaceIN8asiodnp318TCPClientIOHandlerESaIS1_ELN9__gnu_cxx12_Lock_policyE2EE10_M_disposeEv
	.type	_ZNSt23_Sp_counted_ptr_inplaceIN8asiodnp318TCPClientIOHandlerESaIS1_ELN9__gnu_cxx12_Lock_policyE2EE10_M_disposeEv, %function
_ZNSt23_Sp_counted_ptr_inplaceIN8asiodnp318TCPClientIOHandlerESaIS1_ELN9__gnu_cxx12_Lock_policyE2EE10_M_disposeEv:
.LFB12126:
	.cfi_startproc
	stp	x29, x30, [sp, -48]!
	.cfi_def_cfa_offset 48
	.cfi_offset 29, -48
	.cfi_offset 30, -40
	adrp	x1, :got:_ZTVN8asiodnp318TCPClientIOHandlerE
	mov	x29, sp
	ldr	x1, [x1, #:got_lo12:_ZTVN8asiodnp318TCPClientIOHandlerE]
	stp	x19, x20, [sp, 16]
	.cfi_offset 19, -32
	.cfi_offset 20, -24
	mov	x19, x0
	stp	x21, x22, [sp, 32]
	.cfi_offset 21, -16
	.cfi_offset 22, -8
	add	x21, x0, 16
	add	x2, x1, 16
	add	x1, x1, 104
	str	x2, [x19, 16]
	str	x1, [x21, 8]
	add	x0, x0, 944
	bl	_ZN7openpal8TimerRefD1Ev
	ldr	x20, [x19, 936]
	cbz	x20, .L883
	adrp	x22, :got:__libc_single_threaded
	ldr	x0, [x22, #:got_lo12:__libc_single_threaded]
	ldrb	w0, [x0]
	cbz	w0, .L884
	ldr	w0, [x20, 8]
	sub	w1, w0, #1
	str	w1, [x20, 8]
.L885:
	cmp	w0, 1
	beq	.L899
.L883:
	ldr	x0, [x19, 896]
	add	x1, x19, 912
	cmp	x0, x1
	beq	.L889
	ldr	x1, [x19, 912]
	add	x1, x1, 1
	bl	_ZdlPvm
.L889:
	ldr	x0, [x19, 856]
	add	x1, x19, 872
	cmp	x0, x1
	beq	.L890
	ldr	x1, [x19, 872]
	add	x1, x1, 1
	bl	_ZdlPvm
.L890:
	ldr	x19, [x19, 824]
	cbz	x19, .L892
	adrp	x22, :got:__libc_single_threaded
	ldr	x0, [x22, #:got_lo12:__libc_single_threaded]
	ldrb	w0, [x0]
	cbz	w0, .L893
	ldr	w0, [x19, 8]
	sub	w1, w0, #1
	str	w1, [x19, 8]
.L894:
	cmp	w0, 1
	beq	.L900
.L892:
	mov	x0, x21
	ldp	x19, x20, [sp, 16]
	ldp	x21, x22, [sp, 32]
	ldp	x29, x30, [sp], 48
	.cfi_remember_state
	.cfi_restore 30
	.cfi_restore 29
	.cfi_restore 21
	.cfi_restore 22
	.cfi_restore 19
	.cfi_restore 20
	.cfi_def_cfa_offset 0
	b	_ZN8asiodnp39IOHandlerD2Ev
	.p2align 2,,3
.L899:
	.cfi_restore_state
	ldr	x1, [x20]
	mov	x0, x20
	ldr	x1, [x1, 16]
	blr	x1
	ldr	x22, [x22, #:got_lo12:__libc_single_threaded]
	ldrb	w0, [x22]
	cbz	w0, .L887
	ldr	w0, [x20, 12]
	sub	w1, w0, #1
	str	w1, [x20, 12]
.L888:
	cmp	w0, 1
	bne	.L883
	ldr	x1, [x20]
	mov	x0, x20
	ldr	x1, [x1, 24]
	blr	x1
	b	.L883
	.p2align 2,,3
.L900:
	ldr	x1, [x19]
	mov	x0, x19
	ldr	x1, [x1, 16]
	blr	x1
	ldr	x22, [x22, #:got_lo12:__libc_single_threaded]
	ldrb	w0, [x22]
	cbz	w0, .L896
	ldr	w0, [x19, 12]
	sub	w1, w0, #1
	str	w1, [x19, 12]
.L897:
	cmp	w0, 1
	bne	.L892
	ldr	x1, [x19]
	mov	x0, x19
	ldr	x1, [x1, 24]
	blr	x1
	b	.L892
	.p2align 2,,3
.L893:
	add	x1, x19, 8
	mov	w0, -1
	bl	__aarch64_ldadd4_acq_rel
	b	.L894
	.p2align 2,,3
.L884:
	add	x1, x20, 8
	mov	w0, -1
	bl	__aarch64_ldadd4_acq_rel
	b	.L885
	.p2align 2,,3
.L887:
	add	x1, x20, 12
	mov	w0, -1
	bl	__aarch64_ldadd4_acq_rel
	b	.L888
	.p2align 2,,3
.L896:
	add	x1, x19, 12
	mov	w0, -1
	bl	__aarch64_ldadd4_acq_rel
	b	.L897
	.cfi_endproc
.LFE12126:
	.size	_ZNSt23_Sp_counted_ptr_inplaceIN8asiodnp318TCPClientIOHandlerESaIS1_ELN9__gnu_cxx12_Lock_policyE2EE10_M_disposeEv, .-_ZNSt23_Sp_counted_ptr_inplaceIN8asiodnp318TCPClientIOHandlerESaIS1_ELN9__gnu_cxx12_Lock_policyE2EE10_M_disposeEv
	.section	.text._ZN8asiodnp39IOHandlerD0Ev,"axG",@progbits,_ZN8asiodnp39IOHandlerD5Ev,comdat
	.align	2
	.p2align 4,,11
	.weak	_ZN8asiodnp39IOHandlerD0Ev
	.type	_ZN8asiodnp39IOHandlerD0Ev, %function
_ZN8asiodnp39IOHandlerD0Ev:
.LFB8114:
	.cfi_startproc
	stp	x29, x30, [sp, -32]!
	.cfi_def_cfa_offset 32
	.cfi_offset 29, -32
	.cfi_offset 30, -24
	mov	x29, sp
	str	x19, [sp, 16]
	.cfi_offset 19, -16
	mov	x19, x0
	bl	_ZN8asiodnp39IOHandlerD1Ev
	mov	x0, x19
	mov	x1, 800
	ldr	x19, [sp, 16]
	ldp	x29, x30, [sp], 32
	.cfi_restore 30
	.cfi_restore 29
	.cfi_restore 19
	.cfi_def_cfa_offset 0
	b	_ZdlPvm
	.cfi_endproc
.LFE8114:
	.size	_ZN8asiodnp39IOHandlerD0Ev, .-_ZN8asiodnp39IOHandlerD0Ev
	.align	2
	.p2align 4,,11
	.weak	_ZThn8_N8asiodnp39IOHandlerD0Ev
	.type	_ZThn8_N8asiodnp39IOHandlerD0Ev, %function
_ZThn8_N8asiodnp39IOHandlerD0Ev:
.LFB12368:
	.cfi_startproc
	stp	x29, x30, [sp, -32]!
	.cfi_def_cfa_offset 32
	.cfi_offset 29, -32
	.cfi_offset 30, -24
	mov	x29, sp
	str	x19, [sp, 16]
	.cfi_offset 19, -16
	sub	x19, x0, #8
	mov	x0, x19
	bl	_ZN8asiodnp39IOHandlerD1Ev
	mov	x0, x19
	mov	x1, 800
	ldr	x19, [sp, 16]
	ldp	x29, x30, [sp], 32
	.cfi_restore 30
	.cfi_restore 29
	.cfi_restore 19
	.cfi_def_cfa_offset 0
	b	_ZdlPvm
	.cfi_endproc
.LFE12368:
	.size	_ZThn8_N8asiodnp39IOHandlerD0Ev, .-_ZThn8_N8asiodnp39IOHandlerD0Ev
	.text
	.align	2
	.p2align 4,,11
	.global	_ZN8asiodnp315DNP3ManagerImpl8ShutdownEv
	.type	_ZN8asiodnp315DNP3ManagerImpl8ShutdownEv, %function
_ZN8asiodnp315DNP3ManagerImpl8ShutdownEv:
.LFB8236:
	.cfi_startproc
	stp	x29, x30, [sp, -32]!
	.cfi_def_cfa_offset 32
	.cfi_offset 29, -32
	.cfi_offset 30, -24
	mov	x29, sp
	stp	x19, x20, [sp, 16]
	.cfi_offset 19, -16
	.cfi_offset 20, -8
	mov	x19, x0
	ldr	x0, [x0, 256]
	cbz	x0, .L905
	bl	_ZN7asiopal15ResourceManager8ShutdownEv
	ldr	x20, [x19, 264]
	stp	xzr, xzr, [x19, 256]
	cbz	x20, .L905
	adrp	x19, :got:__libc_single_threaded
	ldr	x0, [x19, #:got_lo12:__libc_single_threaded]
	ldrb	w0, [x0]
	cbz	w0, .L909
	ldr	w0, [x20, 8]
	sub	w1, w0, #1
	str	w1, [x20, 8]
.L910:
	cmp	w0, 1
	bne	.L905
	ldr	x1, [x20]
	mov	x0, x20
	ldr	x1, [x1, 16]
	blr	x1
	ldr	x19, [x19, #:got_lo12:__libc_single_threaded]
	ldrb	w0, [x19]
	cbz	w0, .L911
	ldr	w0, [x20, 12]
	sub	w1, w0, #1
	str	w1, [x20, 12]
.L912:
	cmp	w0, 1
	beq	.L917
.L905:
	ldp	x19, x20, [sp, 16]
	ldp	x29, x30, [sp], 32
	.cfi_remember_state
	.cfi_restore 30
	.cfi_restore 29
	.cfi_restore 19
	.cfi_restore 20
	.cfi_def_cfa_offset 0
	ret
	.p2align 2,,3
.L909:
	.cfi_restore_state
	add	x1, x20, 8
	mov	w0, -1
	bl	__aarch64_ldadd4_acq_rel
	b	.L910
	.p2align 2,,3
.L917:
	ldr	x1, [x20]
	mov	x0, x20
	ldp	x19, x20, [sp, 16]
	ldp	x29, x30, [sp], 32
	.cfi_remember_state
	.cfi_restore 30
	.cfi_restore 29
	.cfi_restore 19
	.cfi_restore 20
	.cfi_def_cfa_offset 0
	ldr	x1, [x1, 24]
	mov	x16, x1
	br	x16
	.p2align 2,,3
.L911:
	.cfi_restore_state
	add	x1, x20, 12
	mov	w0, -1
	bl	__aarch64_ldadd4_acq_rel
	b	.L912
	.cfi_endproc
.LFE8236:
	.size	_ZN8asiodnp315DNP3ManagerImpl8ShutdownEv, .-_ZN8asiodnp315DNP3ManagerImpl8ShutdownEv
	.align	2
	.p2align 4,,11
	.global	_ZN8asiodnp315DNP3ManagerImplD2Ev
	.type	_ZN8asiodnp315DNP3ManagerImplD2Ev, %function
_ZN8asiodnp315DNP3ManagerImplD2Ev:
.LFB8234:
	.cfi_startproc
	.cfi_personality 0x9b,DW.ref.__gxx_personality_v0
	.cfi_lsda 0x1b,.LLSDA8234
	stp	x29, x30, [sp, -48]!
	.cfi_def_cfa_offset 48
	.cfi_offset 29, -48
	.cfi_offset 30, -40
	mov	x29, sp
	stp	x19, x20, [sp, 16]
	.cfi_offset 19, -32
	.cfi_offset 20, -24
	mov	x19, x0
	str	x21, [sp, 32]
	.cfi_offset 21, -16
	bl	_ZN8asiodnp315DNP3ManagerImpl8ShutdownEv
	ldr	x21, [x19, 264]
	cbz	x21, .L920
	adrp	x20, :got:__libc_single_threaded
	ldr	x0, [x20, #:got_lo12:__libc_single_threaded]
	ldrb	w0, [x0]
	cbz	w0, .L921
	ldr	w0, [x21, 8]
	sub	w1, w0, #1
	str	w1, [x21, 8]
.L922:
	cmp	w0, 1
	beq	.L948
.L920:
	add	x0, x19, 48
	bl	_ZN7asiopal10ThreadPoolD1Ev
	ldr	x21, [x19, 40]
	cbz	x21, .L927
	adrp	x20, :got:__libc_single_threaded
	ldr	x0, [x20, #:got_lo12:__libc_single_threaded]
	ldrb	w0, [x0]
	cbz	w0, .L928
	ldr	w0, [x21, 8]
	sub	w1, w0, #1
	str	w1, [x21, 8]
.L929:
	cmp	w0, 1
	beq	.L949
.L927:
	ldr	x21, [x19, 24]
	cbz	x21, .L934
	adrp	x20, :got:__libc_single_threaded
	ldr	x0, [x20, #:got_lo12:__libc_single_threaded]
	ldrb	w0, [x0]
	cbz	w0, .L935
	ldr	w0, [x21, 8]
	sub	w1, w0, #1
	str	w1, [x21, 8]
.L936:
	cmp	w0, 1
	beq	.L950
.L934:
	ldr	x19, [x19, 8]
	cbz	x19, .L918
	adrp	x20, :got:__libc_single_threaded
	ldr	x0, [x20, #:got_lo12:__libc_single_threaded]
	ldrb	w0, [x0]
	cbz	w0, .L942
	ldr	w0, [x19, 8]
	sub	w1, w0, #1
	str	w1, [x19, 8]
.L943:
	cmp	w0, 1
	beq	.L951
.L918:
	ldp	x19, x20, [sp, 16]
	ldr	x21, [sp, 32]
	ldp	x29, x30, [sp], 48
	.cfi_remember_state
	.cfi_restore 30
	.cfi_restore 29
	.cfi_restore 21
	.cfi_restore 19
	.cfi_restore 20
	.cfi_def_cfa_offset 0
	ret
	.p2align 2,,3
.L948:
	.cfi_restore_state
	ldr	x1, [x21]
	mov	x0, x21
	ldr	x1, [x1, 16]
	blr	x1
	ldr	x20, [x20, #:got_lo12:__libc_single_threaded]
	ldrb	w0, [x20]
	cbz	w0, .L924
	ldr	w0, [x21, 12]
	sub	w1, w0, #1
	str	w1, [x21, 12]
.L925:
	cmp	w0, 1
	bne	.L920
	ldr	x1, [x21]
	mov	x0, x21
	ldr	x1, [x1, 24]
	blr	x1
	b	.L920
	.p2align 2,,3
.L949:
	ldr	x1, [x21]
	mov	x0, x21
	ldr	x1, [x1, 16]
	blr	x1
	ldr	x20, [x20, #:got_lo12:__libc_single_threaded]
	ldrb	w0, [x20]
	cbz	w0, .L931
	ldr	w0, [x21, 12]
	sub	w1, w0, #1
	str	w1, [x21, 12]
.L932:
	cmp	w0, 1
	bne	.L927
	ldr	x1, [x21]
	mov	x0, x21
	ldr	x1, [x1, 24]
	blr	x1
	b	.L927
	.p2align 2,,3
.L950:
	ldr	x1, [x21]
	mov	x0, x21
	ldr	x1, [x1, 16]
	blr	x1
	ldr	x20, [x20, #:got_lo12:__libc_single_threaded]
	ldrb	w0, [x20]
	cbz	w0, .L938
	ldr	w0, [x21, 12]
	sub	w1, w0, #1
	str	w1, [x21, 12]
.L939:
	cmp	w0, 1
	bne	.L934
	ldr	x1, [x21]
	mov	x0, x21
	ldr	x1, [x1, 24]
	blr	x1
	b	.L934
	.p2align 2,,3
.L951:
	ldr	x1, [x19]
	mov	x0, x19
	ldr	x1, [x1, 16]
	blr	x1
	ldr	x20, [x20, #:got_lo12:__libc_single_threaded]
	ldrb	w0, [x20]
	cbz	w0, .L945
	ldr	w0, [x19, 12]
	sub	w1, w0, #1
	str	w1, [x19, 12]
.L946:
	cmp	w0, 1
	bne	.L918
	ldr	x1, [x19]
	mov	x0, x19
	ldp	x19, x20, [sp, 16]
	ldr	x21, [sp, 32]
	ldp	x29, x30, [sp], 48
	.cfi_remember_state
	.cfi_restore 30
	.cfi_restore 29
	.cfi_restore 21
	.cfi_restore 19
	.cfi_restore 20
	.cfi_def_cfa_offset 0
	ldr	x1, [x1, 24]
	mov	x16, x1
	br	x16
	.p2align 2,,3
.L928:
	.cfi_restore_state
	add	x1, x21, 8
	mov	w0, -1
	bl	__aarch64_ldadd4_acq_rel
	b	.L929
	.p2align 2,,3
.L942:
	add	x1, x19, 8
	mov	w0, -1
	bl	__aarch64_ldadd4_acq_rel
	b	.L943
	.p2align 2,,3
.L921:
	add	x1, x21, 8
	mov	w0, -1
	bl	__aarch64_ldadd4_acq_rel
	b	.L922
	.p2align 2,,3
.L935:
	add	x1, x21, 8
	mov	w0, -1
	bl	__aarch64_ldadd4_acq_rel
	b	.L936
	.p2align 2,,3
.L924:
	add	x1, x21, 12
	mov	w0, -1
	bl	__aarch64_ldadd4_acq_rel
	b	.L925
	.p2align 2,,3
.L945:
	add	x1, x19, 12
	mov	w0, -1
	bl	__aarch64_ldadd4_acq_rel
	b	.L946
	.p2align 2,,3
.L931:
	add	x1, x21, 12
	mov	w0, -1
	bl	__aarch64_ldadd4_acq_rel
	b	.L932
	.p2align 2,,3
.L938:
	add	x1, x21, 12
	mov	w0, -1
	bl	__aarch64_ldadd4_acq_rel
	b	.L939
	.cfi_endproc
.LFE8234:
	.section	.gcc_except_table,"a",@progbits
.LLSDA8234:
	.byte	0xff
	.byte	0xff
	.byte	0x1
	.uleb128 .LLSDACSE8234-.LLSDACSB8234
.LLSDACSB8234:
.LLSDACSE8234:
	.text
	.size	_ZN8asiodnp315DNP3ManagerImplD2Ev, .-_ZN8asiodnp315DNP3ManagerImplD2Ev
	.global	_ZN8asiodnp315DNP3ManagerImplD1Ev
	.set	_ZN8asiodnp315DNP3ManagerImplD1Ev,_ZN8asiodnp315DNP3ManagerImplD2Ev
	.align	2
	.p2align 4,,11
	.global	_ZN8asiodnp315DNP3ManagerImpl12AddTLSClientERKNSt7__cxx1112basic_stringIcSt11char_traitsIcESaIcEEEjRKN7asiopal12ChannelRetryES8_S8_tRKNS9_9TLSConfigESt10shared_ptrINS_16IChannelListenerEERSt10error_code
	.type	_ZN8asiodnp315DNP3ManagerImpl12AddTLSClientERKNSt7__cxx1112basic_stringIcSt11char_traitsIcESaIcEEEjRKN7asiopal12ChannelRetryES8_S8_tRKNS9_9TLSConfigESt10shared_ptrINS_16IChannelListenerEERSt10error_code, %function
_ZN8asiodnp315DNP3ManagerImpl12AddTLSClientERKNSt7__cxx1112basic_stringIcSt11char_traitsIcESaIcEEEjRKN7asiopal12ChannelRetryES8_S8_tRKNS9_9TLSConfigESt10shared_ptrINS_16IChannelListenerEERSt10error_code:
.LFB8264:
	.cfi_startproc
	ldr	x2, [sp, 8]
	adrp	x1, :got:_ZN8asiodnp313ErrorCategory8instanceE
	mov	w3, 1
	mov	x0, x8
	ldr	x1, [x1, #:got_lo12:_ZN8asiodnp313ErrorCategory8instanceE]
	str	w3, [x2]
	str	x1, [x2, 8]
	stp	xzr, xzr, [x8]
	ret
	.cfi_endproc
.LFE8264:
	.size	_ZN8asiodnp315DNP3ManagerImpl12AddTLSClientERKNSt7__cxx1112basic_stringIcSt11char_traitsIcESaIcEEEjRKN7asiopal12ChannelRetryES8_S8_tRKNS9_9TLSConfigESt10shared_ptrINS_16IChannelListenerEERSt10error_code, .-_ZN8asiodnp315DNP3ManagerImpl12AddTLSClientERKNSt7__cxx1112basic_stringIcSt11char_traitsIcESaIcEEEjRKN7asiopal12ChannelRetryES8_S8_tRKNS9_9TLSConfigESt10shared_ptrINS_16IChannelListenerEERSt10error_code
	.align	2
	.p2align 4,,11
	.global	_ZN8asiodnp315DNP3ManagerImpl12AddTLSServerERKNSt7__cxx1112basic_stringIcSt11char_traitsIcESaIcEEEjRKN7asiopal12ChannelRetryES8_tRKNS9_9TLSConfigESt10shared_ptrINS_16IChannelListenerEERSt10error_code
	.type	_ZN8asiodnp315DNP3ManagerImpl12AddTLSServerERKNSt7__cxx1112basic_stringIcSt11char_traitsIcESaIcEEEjRKN7asiopal12ChannelRetryES8_tRKNS9_9TLSConfigESt10shared_ptrINS_16IChannelListenerEERSt10error_code, %function
_ZN8asiodnp315DNP3ManagerImpl12AddTLSServerERKNSt7__cxx1112basic_stringIcSt11char_traitsIcESaIcEEEjRKN7asiopal12ChannelRetryES8_tRKNS9_9TLSConfigESt10shared_ptrINS_16IChannelListenerEERSt10error_code:
.LFB8265:
	.cfi_startproc
	ldr	x2, [sp]
	adrp	x1, :got:_ZN8asiodnp313ErrorCategory8instanceE
	mov	w3, 1
	mov	x0, x8
	ldr	x1, [x1, #:got_lo12:_ZN8asiodnp313ErrorCategory8instanceE]
	str	w3, [x2]
	str	x1, [x2, 8]
	stp	xzr, xzr, [x8]
	ret
	.cfi_endproc
.LFE8265:
	.size	_ZN8asiodnp315DNP3ManagerImpl12AddTLSServerERKNSt7__cxx1112basic_stringIcSt11char_traitsIcESaIcEEEjRKN7asiopal12ChannelRetryES8_tRKNS9_9TLSConfigESt10shared_ptrINS_16IChannelListenerEERSt10error_code, .-_ZN8asiodnp315DNP3ManagerImpl12AddTLSServerERKNSt7__cxx1112basic_stringIcSt11char_traitsIcESaIcEEEjRKN7asiopal12ChannelRetryES8_tRKNS9_9TLSConfigESt10shared_ptrINS_16IChannelListenerEERSt10error_code
	.align	2
	.p2align 4,,11
	.global	_ZN8asiodnp315DNP3ManagerImpl14CreateListenerENSt7__cxx1112basic_stringIcSt11char_traitsIcESaIcEEEN7openpal10LogFiltersEN7asiopal10IPEndpointERKNS9_9TLSConfigERKSt10shared_ptrINS_16IListenCallbacksEERSt10error_code
	.type	_ZN8asiodnp315DNP3ManagerImpl14CreateListenerENSt7__cxx1112basic_stringIcSt11char_traitsIcESaIcEEEN7openpal10LogFiltersEN7asiopal10IPEndpointERKNS9_9TLSConfigERKSt10shared_ptrINS_16IListenCallbacksEERSt10error_code, %function
_ZN8asiodnp315DNP3ManagerImpl14CreateListenerENSt7__cxx1112basic_stringIcSt11char_traitsIcESaIcEEEN7openpal10LogFiltersEN7asiopal10IPEndpointERKNS9_9TLSConfigERKSt10shared_ptrINS_16IListenCallbacksEERSt10error_code:
.LFB8275:
	.cfi_startproc
	adrp	x1, :got:_ZN8asiodnp313ErrorCategory8instanceE
	mov	w2, 1
	str	w2, [x6]
	mov	x0, x8
	ldr	x1, [x1, #:got_lo12:_ZN8asiodnp313ErrorCategory8instanceE]
	str	x1, [x6, 8]
	stp	xzr, xzr, [x8]
	ret
	.cfi_endproc
.LFE8275:
	.size	_ZN8asiodnp315DNP3ManagerImpl14CreateListenerENSt7__cxx1112basic_stringIcSt11char_traitsIcESaIcEEEN7openpal10LogFiltersEN7asiopal10IPEndpointERKNS9_9TLSConfigERKSt10shared_ptrINS_16IListenCallbacksEERSt10error_code, .-_ZN8asiodnp315DNP3ManagerImpl14CreateListenerENSt7__cxx1112basic_stringIcSt11char_traitsIcESaIcEEEN7openpal10LogFiltersEN7asiopal10IPEndpointERKNS9_9TLSConfigERKSt10shared_ptrINS_16IListenCallbacksEERSt10error_code
	.section	.text._ZNSt16_Sp_counted_baseILN9__gnu_cxx12_Lock_policyE2EE10_M_releaseEv,"axG",@progbits,_ZNSt16_Sp_counted_baseILN9__gnu_cxx12_Lock_policyE2EE10_M_releaseEv,comdat
	.align	2
	.p2align 4,,11
	.weak	_ZNSt16_Sp_counted_baseILN9__gnu_cxx12_Lock_policyE2EE10_M_releaseEv
	.type	_ZNSt16_Sp_counted_baseILN9__gnu_cxx12_Lock_policyE2EE10_M_releaseEv, %function
_ZNSt16_Sp_counted_baseILN9__gnu_cxx12_Lock_policyE2EE10_M_releaseEv:
.LFB9578:
	.cfi_startproc
	stp	x29, x30, [sp, -32]!
	.cfi_def_cfa_offset 32
	.cfi_offset 29, -32
	.cfi_offset 30, -24
	mov	x29, sp
	stp	x19, x20, [sp, 16]
	.cfi_offset 19, -16
	.cfi_offset 20, -8
	adrp	x20, :got:__libc_single_threaded
	mov	x19, x0
	ldr	x0, [x20, #:got_lo12:__libc_single_threaded]
	ldrb	w0, [x0]
	cbz	w0, .L956
	ldr	w0, [x19, 8]
	sub	w1, w0, #1
	str	w1, [x19, 8]
.L957:
	cmp	w0, 1
	beq	.L964
.L955:
	ldp	x19, x20, [sp, 16]
	ldp	x29, x30, [sp], 32
	.cfi_remember_state
	.cfi_restore 30
	.cfi_restore 29
	.cfi_restore 19
	.cfi_restore 20
	.cfi_def_cfa_offset 0
	ret
	.p2align 2,,3
.L964:
	.cfi_restore_state
	ldr	x1, [x19]
	mov	x0, x19
	ldr	x1, [x1, 16]
	blr	x1
	ldr	x20, [x20, #:got_lo12:__libc_single_threaded]
	ldrb	w0, [x20]
	cbz	w0, .L960
	ldr	w0, [x19, 12]
	sub	w1, w0, #1
	str	w1, [x19, 12]
.L961:
	cmp	w0, 1
	bne	.L955
	ldr	x1, [x19]
	mov	x0, x19
	ldp	x19, x20, [sp, 16]
	ldp	x29, x30, [sp], 32
	.cfi_remember_state
	.cfi_restore 30
	.cfi_restore 29
	.cfi_restore 19
	.cfi_restore 20
	.cfi_def_cfa_offset 0
	ldr	x1, [x1, 24]
	mov	x16, x1
	br	x16
	.p2align 2,,3
.L956:
	.cfi_restore_state
	add	x1, x19, 8
	mov	w0, -1
	bl	__aarch64_ldadd4_acq_rel
	b	.L957
	.p2align 2,,3
.L960:
	add	x1, x19, 12
	mov	w0, -1
	bl	__aarch64_ldadd4_acq_rel
	b	.L961
	.cfi_endproc
.LFE9578:
	.size	_ZNSt16_Sp_counted_baseILN9__gnu_cxx12_Lock_policyE2EE10_M_releaseEv, .-_ZNSt16_Sp_counted_baseILN9__gnu_cxx12_Lock_policyE2EE10_M_releaseEv
	.section	.rodata.str1.8,"aMS",@progbits,1
	.align	3
.LC21:
	.string	"manager"
	.align	3
.LC22:
	.string	"mutex"
	.align	3
.LC23:
	.string	"event"
	.text
	.align	2
	.p2align 4,,11
	.global	_ZN8asiodnp315DNP3ManagerImplC2EjSt10shared_ptrIN7openpal11ILogHandlerEESt8functionIFvvEES7_
	.type	_ZN8asiodnp315DNP3ManagerImplC2EjSt10shared_ptrIN7openpal11ILogHandlerEESt8functionIFvvEES7_, %function
_ZN8asiodnp315DNP3ManagerImplC2EjSt10shared_ptrIN7openpal11ILogHandlerEESt8functionIFvvEES7_:
.LFB8231:
	.cfi_startproc
	.cfi_personality 0x9b,DW.ref.__gxx_personality_v0
	.cfi_lsda 0x1b,.LLSDA8231
	stp	x29, x30, [sp, -240]!
	.cfi_def_cfa_offset 240
	.cfi_offset 29, -240
	.cfi_offset 30, -232
	adrp	x6, :got:__stack_chk_guard
	adrp	x5, .LC21
	add	x5, x5, :lo12:.LC21
	mov	x29, sp
	ldr	x6, [x6, #:got_lo12:__stack_chk_guard]
	stp	x19, x20, [sp, 16]
	.cfi_offset 19, -224
	.cfi_offset 20, -216
	add	x19, sp, 208
	stp	x21, x22, [sp, 32]
	mov	x20, x0
	ldr	w7, [x5]
	stp	x23, x24, [sp, 48]
	.cfi_offset 21, -208
	.cfi_offset 22, -200
	.cfi_offset 23, -192
	.cfi_offset 24, -184
	mov	x24, x4
	ldr	w5, [x5, 3]
	stp	x25, x26, [sp, 64]
	mov	x4, 7
	.cfi_offset 25, -176
	.cfi_offset 26, -168
	mov	x25, x3
	stp	x27, x28, [sp, 80]
	.cfi_offset 27, -160
	.cfi_offset 28, -152
	add	x27, sp, 192
	mov	w3, -1
	ldr	x8, [x6]
	str	x8, [sp, 232]
	mov	x8, 0
	stp	x19, x4, [sp, 192]
	str	w7, [sp, 208]
	strb	wzr, [sp, 215]
	str	w5, [x19, 3]
	str	w1, [sp, 100]
	mov	x1, x2
	mov	x2, x27
.LEHB8:
	bl	_ZN7openpal6LoggerC1ERKSt10shared_ptrINS_11ILogHandlerEERKNSt7__cxx1112basic_stringIcSt11char_traitsIcESaIcEEENS_10LogFiltersE
.LEHE8:
	ldr	x0, [sp, 192]
	cmp	x0, x19
	beq	.L966
	ldr	x1, [sp, 208]
	add	x1, x1, 1
	bl	_ZdlPvm
.L966:
	str	xzr, [x20, 32]
	add	x0, x20, 32
	str	x0, [sp, 104]
	mov	x0, 40
.LEHB9:
	bl	_Znwm
.LEHE9:
	movi	v0.2s, 0x1
	adrp	x2, :got:_ZTVSt23_Sp_counted_ptr_inplaceIN7asiopal2IOESaIS1_ELN9__gnu_cxx12_Lock_policyE2EE
	mov	x21, x0
	mov	x26, x0
	ldr	x2, [x2, #:got_lo12:_ZTVSt23_Sp_counted_ptr_inplaceIN7asiopal2IOESaIS1_ELN9__gnu_cxx12_Lock_policyE2EE]
	adrp	x1, :got:_ZTVN7asiopal2IOE
	str	d0, [x21, 8]
	add	x28, x0, 24
	ldr	x1, [x1, #:got_lo12:_ZTVN7asiopal2IOE]
	add	x2, x2, 16
	str	x2, [x26], 16
	mov	x0, 72
	stp	xzr, xzr, [x21, 16]
	add	x1, x1, 16
	str	xzr, [x26, 16]
	str	x1, [x21, 16]
.LEHB10:
	bl	_Znwm
.LEHE10:
	mov	x22, x0
	mov	x1, 0
	add	x0, x0, 8
	str	x0, [sp, 112]
	bl	pthread_mutex_init
	mov	w19, w0
	adrp	x0, :got:_ZGVZN4asio15system_categoryEvE8instance
	ldr	x3, [x0, #:got_lo12:_ZGVZN4asio15system_categoryEvE8instance]
	ldar	x0, [x3]
	adrp	x23, :got:_ZZN4asio15system_categoryEvE8instance
	tbz	x0, 0, .L1050
.L968:
	ldr	x0, [x23, #:got_lo12:_ZZN4asio15system_categoryEvE8instance]
	str	w19, [sp, 144]
	str	x0, [sp, 152]
	cbnz	w19, .L1051
	mov	x0, 224
	str	x28, [x22, 56]
.LEHB11:
	bl	_Znwm
.LEHE11:
	adrp	x2, :got:_ZTVN4asio6detail15task_io_serviceE
	mov	x19, x0
	mov	x1, 0
	add	x0, x0, 48
	ldr	x2, [x2, #:got_lo12:_ZTVN4asio6detail15task_io_serviceE]
	stp	xzr, x28, [x19, 16]
	add	x2, x2, 16
	stp	x2, xzr, [x19]
	str	xzr, [x19, 32]
	strb	wzr, [x19, 40]
	str	x0, [sp, 120]
	bl	pthread_mutex_init
	mov	w3, w0
	adrp	x0, :got:_ZGVZN4asio15system_categoryEvE8instance
	ldr	x4, [x0, #:got_lo12:_ZGVZN4asio15system_categoryEvE8instance]
	ldar	x0, [x4]
	tbz	x0, 0, .L1052
.L972:
	ldr	x0, [x23, #:got_lo12:_ZZN4asio15system_categoryEvE8instance]
	str	x0, [sp, 104]
	str	w3, [sp, 144]
	str	x0, [sp, 152]
	cbnz	w3, .L1053
	str	xzr, [x19, 144]
	add	x0, x19, 96
	mov	x1, 0
	bl	pthread_cond_init
	mov	w4, w0
	adrp	x0, :got:_ZGVZN4asio15system_categoryEvE8instance
	ldr	x3, [x0, #:got_lo12:_ZGVZN4asio15system_categoryEvE8instance]
	ldar	x0, [x3]
	tbz	x0, 0, .L1054
.L976:
	ldr	x23, [x23, #:got_lo12:_ZZN4asio15system_categoryEvE8instance]
	str	w4, [sp, 144]
	str	x23, [sp, 152]
	cbnz	w4, .L1055
	movi	v0.4s, 0
	adrp	x0, :got:_ZTIN4asio6detail14typeid_wrapperINS0_15task_io_serviceEEE
	ldr	x3, [x25, 16]
	str	x22, [x21, 24]
	ldr	x0, [x0, #:got_lo12:_ZTIN4asio6detail14typeid_wrapperINS0_15task_io_serviceEEE]
	mov	w2, 1
	stp	x0, xzr, [x19, 8]
	add	x23, x20, 48
	str	x19, [x28, 8]
	str	xzr, [x19, 32]
	stp	x26, x21, [x20, 32]
	str	x19, [x22, 64]
	stp	xzr, xzr, [sp, 160]
	str	xzr, [x19, 168]
	str	wzr, [x19, 176]
	stp	xzr, xzr, [sp, 176]
	strb	w2, [x19, 184]
	str	xzr, [x19, 192]
	strh	wzr, [x19, 216]
	str	q0, [x19, 152]
	str	q0, [x19, 200]
	cbz	x3, .L980
	add	x19, sp, 160
	mov	x1, x25
	mov	x0, x19
	mov	w2, 2
.LEHB12:
	blr	x3
.LEHE12:
	ldr	q0, [x25, 16]
	str	q0, [sp, 176]
.L980:
	ldr	x3, [x24, 16]
	stp	xzr, xzr, [sp, 192]
	stp	xzr, xzr, [sp, 208]
	cbz	x3, .L988
	mov	x1, x24
	mov	x0, x27
	mov	w2, 2
.LEHB13:
	blr	x3
.LEHE13:
	ldr	q0, [x24, 16]
	str	q0, [sp, 208]
.L988:
	ldr	w3, [sp, 100]
	add	x19, sp, 160
	add	x2, x20, 32
	mov	x4, x19
	mov	x5, x27
	mov	x1, x20
	mov	x0, x23
.LEHB14:
	bl	_ZN7asiopal10ThreadPoolC1ERKN7openpal6LoggerERKSt10shared_ptrINS_2IOEEjSt8functionIFvvEESC_
.LEHE14:
	ldr	x3, [sp, 208]
	cbz	x3, .L996
	mov	x1, x27
	mov	x0, x27
	mov	w2, 3
	blr	x3
.L996:
	ldr	x3, [sp, 176]
	cbz	x3, .L997
	mov	x1, x19
	mov	x0, x19
	mov	w2, 3
	blr	x3
.L997:
	str	xzr, [x20, 256]
	mov	x0, 128
.LEHB15:
	bl	_Znwm
.LEHE15:
	movi	v0.2s, 0x1
	adrp	x2, :got:_ZTVSt23_Sp_counted_ptr_inplaceIN7asiopal15ResourceManagerESaIS1_ELN9__gnu_cxx12_Lock_policyE2EE
	mov	x1, x0
	adrp	x3, :got:_ZTVN7asiopal15ResourceManagerE
	ldr	x2, [x2, #:got_lo12:_ZTVSt23_Sp_counted_ptr_inplaceIN7asiopal15ResourceManagerESaIS1_ELN9__gnu_cxx12_Lock_policyE2EE]
	adrp	x4, :got:__stack_chk_guard
	str	d0, [x0, 8]
	movi	v0.4s, 0
	add	x2, x2, 16
	ldr	x3, [x3, #:got_lo12:_ZTVN7asiopal15ResourceManagerE]
	str	x2, [x1], 16
	add	x2, x0, 88
	add	x3, x3, 16
	stp	q0, q0, [x1]
	stp	q0, q0, [x1, 32]
	stp	q0, q0, [x1, 64]
	str	x3, [x0, 16]
	ldr	x3, [x4, #:got_lo12:__stack_chk_guard]
	stp	xzr, xzr, [x0, 24]
	stp	xzr, xzr, [x0, 40]
	stp	xzr, xzr, [x0, 56]
	str	wzr, [x0, 88]
	str	xzr, [x0, 96]
	stp	x2, x2, [x2, 16]
	str	xzr, [x2, 32]
	stp	x1, x0, [x20, 256]
	ldr	x0, [sp, 232]
	ldr	x1, [x3]
	subs	x0, x0, x1
	mov	x1, 0
	bne	.L1056
	ldp	x19, x20, [sp, 16]
	ldp	x21, x22, [sp, 32]
	ldp	x23, x24, [sp, 48]
	ldp	x25, x26, [sp, 64]
	ldp	x27, x28, [sp, 80]
	ldp	x29, x30, [sp], 240
	.cfi_remember_state
	.cfi_restore 30
	.cfi_restore 29
	.cfi_restore 27
	.cfi_restore 28
	.cfi_restore 25
	.cfi_restore 26
	.cfi_restore 23
	.cfi_restore 24
	.cfi_restore 21
	.cfi_restore 22
	.cfi_restore 19
	.cfi_restore 20
	.cfi_def_cfa_offset 0
	ret
	.p2align 2,,3
.L1050:
	.cfi_restore_state
	mov	x0, x3
	adrp	x23, :got:_ZZN4asio15system_categoryEvE8instance
	str	x3, [sp, 104]
	bl	__cxa_guard_acquire
	cbz	w0, .L968
	adrp	x0, :got:_ZN4asio6detail15system_categoryD1Ev
	adrp	x2, __dso_handle
	ldr	x1, [x23, #:got_lo12:_ZZN4asio15system_categoryEvE8instance]
	add	x2, x2, :lo12:__dso_handle
	ldr	x0, [x0, #:got_lo12:_ZN4asio6detail15system_categoryD1Ev]
	bl	__cxa_atexit
	ldr	x3, [sp, 104]
	mov	x0, x3
	bl	__cxa_guard_release
	b	.L968
	.p2align 2,,3
.L1054:
	mov	x0, x3
	str	x3, [sp, 128]
	str	w4, [sp, 136]
	bl	__cxa_guard_acquire
	ldr	w4, [sp, 136]
	ldr	x3, [sp, 128]
	cbz	w0, .L976
	adrp	x0, :got:_ZN4asio6detail15system_categoryD1Ev
	adrp	x2, __dso_handle
	ldr	x1, [sp, 104]
	add	x2, x2, :lo12:__dso_handle
	ldr	x0, [x0, #:got_lo12:_ZN4asio6detail15system_categoryD1Ev]
	str	w4, [sp, 128]
	str	x3, [sp, 136]
	bl	__cxa_atexit
	ldr	x3, [sp, 136]
	mov	x0, x3
	bl	__cxa_guard_release
	ldr	w4, [sp, 128]
	b	.L976
	.p2align 2,,3
.L1052:
	mov	x0, x4
	str	x4, [sp, 104]
	str	w3, [sp, 128]
	bl	__cxa_guard_acquire
	ldr	w3, [sp, 128]
	ldr	x4, [sp, 104]
	cbz	w0, .L972
	adrp	x0, :got:_ZN4asio6detail15system_categoryD1Ev
	adrp	x2, __dso_handle
	ldr	x1, [x23, #:got_lo12:_ZZN4asio15system_categoryEvE8instance]
	add	x2, x2, :lo12:__dso_handle
	ldr	x0, [x0, #:got_lo12:_ZN4asio6detail15system_categoryD1Ev]
	str	w3, [sp, 104]
	str	x4, [sp, 128]
	bl	__cxa_atexit
	ldr	x4, [sp, 128]
	mov	x0, x4
	bl	__cxa_guard_release
	ldr	w3, [sp, 104]
	b	.L972
.L1056:
	bl	__stack_chk_fail
.L1055:
	adrp	x1, .LC23
	add	x0, sp, 144
	add	x1, x1, :lo12:.LC23
.LEHB16:
	bl	_ZN4asio6detail14do_throw_errorERKSt10error_codePKc
.LEHE16:
.L1053:
	adrp	x1, .LC22
	add	x0, sp, 144
	add	x1, x1, :lo12:.LC22
.LEHB17:
	bl	_ZN4asio6detail14do_throw_errorERKSt10error_codePKc
.LEHE17:
.L1012:
	mov	x19, x0
.L983:
	ldr	x0, [sp, 112]
	bl	pthread_mutex_destroy
.L984:
	mov	x0, x22
	mov	x1, 72
	bl	_ZdlPvm
.L985:
	mov	x0, x21
	mov	x1, 40
	bl	_ZdlPvm
.L986:
	mov	x0, x20
	bl	_ZN7openpal6LoggerD1Ev
	mov	x0, x19
.LEHB18:
	bl	_Unwind_Resume
.LEHE18:
.L1014:
	mov	x23, x0
	ldr	x0, [sp, 120]
	bl	pthread_mutex_destroy
	mov	x1, x23
.L982:
	mov	x0, x19
	mov	x19, x1
	mov	x1, 224
	bl	_ZdlPvm
	b	.L983
.L1013:
	mov	x1, x0
	b	.L982
.L1051:
	adrp	x1, .LC22
	add	x0, sp, 144
	add	x1, x1, :lo12:.LC22
.LEHB19:
	bl	_ZN4asio6detail14do_throw_errorERKSt10error_codePKc
.LEHE19:
.L1010:
	mov	x19, x0
	b	.L985
.L1011:
	mov	x19, x0
	b	.L984
.L1007:
	mov	x19, x0
	b	.L986
.L1016:
	ldr	x3, [sp, 208]
	mov	x19, x0
	cbz	x3, .L995
	mov	x1, x27
	mov	x0, x27
	mov	w2, 3
	blr	x3
	b	.L995
.L1015:
	ldr	x3, [sp, 176]
	mov	x21, x0
	cbz	x3, .L990
	mov	x1, x19
	mov	x0, x19
	mov	w2, 3
	blr	x3
.L990:
	mov	x19, x21
	b	.L991
.L1009:
	mov	x19, x0
	mov	x0, x23
	bl	_ZN7asiopal10ThreadPoolD1Ev
.L991:
	ldr	x0, [x20, 40]
	cbz	x0, .L986
	bl	_ZNSt16_Sp_counted_baseILN9__gnu_cxx12_Lock_policyE2EE10_M_releaseEv
	b	.L986
.L1008:
	ldr	x3, [sp, 208]
	mov	x19, x0
	cbz	x3, .L995
	mov	x1, x27
	mov	x0, x27
	mov	w2, 3
	blr	x3
.L995:
	ldr	x3, [sp, 176]
	cbz	x3, .L991
	add	x1, sp, 160
	mov	w2, 3
	mov	x0, x1
	blr	x3
	b	.L991
.L1006:
	ldr	x2, [sp, 192]
	mov	x20, x0
	cmp	x2, x19
	beq	.L999
	ldr	x1, [sp, 208]
	mov	x0, x2
	add	x1, x1, 1
	bl	_ZdlPvm
.L999:
	mov	x0, x20
.LEHB20:
	bl	_Unwind_Resume
.LEHE20:
	.cfi_endproc
.LFE8231:
	.section	.gcc_except_table
.LLSDA8231:
	.byte	0xff
	.byte	0xff
	.byte	0x1
	.uleb128 .LLSDACSE8231-.LLSDACSB8231
.LLSDACSB8231:
	.uleb128 .LEHB8-.LFB8231
	.uleb128 .LEHE8-.LEHB8
	.uleb128 .L1006-.LFB8231
	.uleb128 0
	.uleb128 .LEHB9-.LFB8231
	.uleb128 .LEHE9-.LEHB9
	.uleb128 .L1007-.LFB8231
	.uleb128 0
	.uleb128 .LEHB10-.LFB8231
	.uleb128 .LEHE10-.LEHB10
	.uleb128 .L1010-.LFB8231
	.uleb128 0
	.uleb128 .LEHB11-.LFB8231
	.uleb128 .LEHE11-.LEHB11
	.uleb128 .L1012-.LFB8231
	.uleb128 0
	.uleb128 .LEHB12-.LFB8231
	.uleb128 .LEHE12-.LEHB12
	.uleb128 .L1015-.LFB8231
	.uleb128 0
	.uleb128 .LEHB13-.LFB8231
	.uleb128 .LEHE13-.LEHB13
	.uleb128 .L1016-.LFB8231
	.uleb128 0
	.uleb128 .LEHB14-.LFB8231
	.uleb128 .LEHE14-.LEHB14
	.uleb128 .L1008-.LFB8231
	.uleb128 0
	.uleb128 .LEHB15-.LFB8231
	.uleb128 .LEHE15-.LEHB15
	.uleb128 .L1009-.LFB8231
	.uleb128 0
	.uleb128 .LEHB16-.LFB8231
	.uleb128 .LEHE16-.LEHB16
	.uleb128 .L1014-.LFB8231
	.uleb128 0
	.uleb128 .LEHB17-.LFB8231
	.uleb128 .LEHE17-.LEHB17
	.uleb128 .L1013-.LFB8231
	.uleb128 0
	.uleb128 .LEHB18-.LFB8231
	.uleb128 .LEHE18-.LEHB18
	.uleb128 0
	.uleb128 0
	.uleb128 .LEHB19-.LFB8231
	.uleb128 .LEHE19-.LEHB19
	.uleb128 .L1011-.LFB8231
	.uleb128 0
	.uleb128 .LEHB20-.LFB8231
	.uleb128 .LEHE20-.LEHB20
	.uleb128 0
	.uleb128 0
.LLSDACSE8231:
	.text
	.size	_ZN8asiodnp315DNP3ManagerImplC2EjSt10shared_ptrIN7openpal11ILogHandlerEESt8functionIFvvEES7_, .-_ZN8asiodnp315DNP3ManagerImplC2EjSt10shared_ptrIN7openpal11ILogHandlerEESt8functionIFvvEES7_
	.global	_ZN8asiodnp315DNP3ManagerImplC1EjSt10shared_ptrIN7openpal11ILogHandlerEESt8functionIFvvEES7_
	.set	_ZN8asiodnp315DNP3ManagerImplC1EjSt10shared_ptrIN7openpal11ILogHandlerEESt8functionIFvvEES7_,_ZN8asiodnp315DNP3ManagerImplC2EjSt10shared_ptrIN7openpal11ILogHandlerEESt8functionIFvvEES7_
	.section	.text._ZNSt8_Rb_treeISt10shared_ptrIN7asiopal9IResourceEES3_St9_IdentityIS3_ESt4lessIS3_ESaIS3_EE16_M_insert_uniqueIS3_EESt4pairISt17_Rb_tree_iteratorIS3_EbEOT_,"axG",@progbits,_ZNSt8_Rb_treeISt10shared_ptrIN7asiopal9IResourceEES3_St9_IdentityIS3_ESt4lessIS3_ESaIS3_EE16_M_insert_uniqueIS3_EESt4pairISt17_Rb_tree_iteratorIS3_EbEOT_,comdat
	.align	2
	.p2align 4,,11
	.weak	_ZNSt8_Rb_treeISt10shared_ptrIN7asiopal9IResourceEES3_St9_IdentityIS3_ESt4lessIS3_ESaIS3_EE16_M_insert_uniqueIS3_EESt4pairISt17_Rb_tree_iteratorIS3_EbEOT_
	.type	_ZNSt8_Rb_treeISt10shared_ptrIN7asiopal9IResourceEES3_St9_IdentityIS3_ESt4lessIS3_ESaIS3_EE16_M_insert_uniqueIS3_EESt4pairISt17_Rb_tree_iteratorIS3_EbEOT_, %function
_ZNSt8_Rb_treeISt10shared_ptrIN7asiopal9IResourceEES3_St9_IdentityIS3_ESt4lessIS3_ESaIS3_EE16_M_insert_uniqueIS3_EESt4pairISt17_Rb_tree_iteratorIS3_EbEOT_:
.LFB10507:
	.cfi_startproc
	stp	x29, x30, [sp, -64]!
	.cfi_def_cfa_offset 64
	.cfi_offset 29, -64
	.cfi_offset 30, -56
	mov	x29, sp
	stp	x19, x20, [sp, 16]
	.cfi_offset 19, -48
	.cfi_offset 20, -40
	ldr	x19, [x0, 16]
	stp	x21, x22, [sp, 32]
	.cfi_offset 21, -32
	.cfi_offset 22, -24
	mov	x21, x0
	stp	x23, x24, [sp, 48]
	.cfi_offset 23, -16
	.cfi_offset 24, -8
	mov	x22, x1
	add	x23, x0, 8
	cbz	x19, .L1058
	mov	w7, 1
	ldr	x20, [x1]
	b	.L1060
	.p2align 2,,3
.L1069:
	mov	x19, x4
.L1060:
	ldp	x5, x4, [x19, 16]
	ldr	x2, [x19, 32]
	cmp	x20, x2
	csel	w6, wzr, w7, cs
	csel	x4, x4, x5, cs
	cbnz	x4, .L1069
	cbnz	w6, .L1075
	cmp	x2, x20
	bcs	.L1066
.L1065:
	mov	w24, 1
	cmp	x23, x19
	bne	.L1076
.L1063:
	mov	x0, 48
	bl	_Znwm
	ldr	q0, [x22]
	mov	x20, x0
	stp	xzr, xzr, [x22]
	mov	x3, x23
	mov	x2, x19
	mov	w0, w24
	mov	x1, x20
	str	q0, [x20, 32]
	bl	_ZSt29_Rb_tree_insert_and_rebalancebPSt18_Rb_tree_node_baseS0_RS_
	mov	x3, 1
	ldr	x2, [x21, 40]
	mov	x1, 0
	mov	x0, x20
	bfi	x1, x3, 0, 8
	add	x2, x2, x3
	str	x2, [x21, 40]
	ldp	x19, x20, [sp, 16]
	ldp	x21, x22, [sp, 32]
	ldp	x23, x24, [sp, 48]
	ldp	x29, x30, [sp], 64
	.cfi_remember_state
	.cfi_restore 30
	.cfi_restore 29
	.cfi_restore 23
	.cfi_restore 24
	.cfi_restore 21
	.cfi_restore 22
	.cfi_restore 19
	.cfi_restore 20
	.cfi_def_cfa_offset 0
	ret
	.p2align 2,,3
.L1075:
	.cfi_restore_state
	ldr	x0, [x21, 24]
	cmp	x19, x0
	beq	.L1065
.L1067:
	mov	x0, x19
	bl	_ZSt18_Rb_tree_decrementPSt18_Rb_tree_node_base
	ldr	x1, [x0, 32]
	cmp	x20, x1
	bhi	.L1065
	mov	x19, x0
.L1066:
	mov	x0, x19
	mov	x1, 0
	ldp	x19, x20, [sp, 16]
	ldp	x21, x22, [sp, 32]
	ldp	x23, x24, [sp, 48]
	ldp	x29, x30, [sp], 64
	.cfi_remember_state
	.cfi_restore 30
	.cfi_restore 29
	.cfi_restore 23
	.cfi_restore 24
	.cfi_restore 21
	.cfi_restore 22
	.cfi_restore 19
	.cfi_restore 20
	.cfi_def_cfa_offset 0
	ret
	.p2align 2,,3
.L1076:
	.cfi_restore_state
	ldr	x0, [x19, 32]
	cmp	x20, x0
	cset	w24, cc
	b	.L1063
	.p2align 2,,3
.L1058:
	ldr	x0, [x0, 24]
	mov	x19, x23
	cmp	x23, x0
	beq	.L1071
	ldr	x20, [x1]
	b	.L1067
.L1071:
	mov	w24, 1
	b	.L1063
	.cfi_endproc
.LFE10507:
	.size	_ZNSt8_Rb_treeISt10shared_ptrIN7asiopal9IResourceEES3_St9_IdentityIS3_ESt4lessIS3_ESaIS3_EE16_M_insert_uniqueIS3_EESt4pairISt17_Rb_tree_iteratorIS3_EbEOT_, .-_ZNSt8_Rb_treeISt10shared_ptrIN7asiopal9IResourceEES3_St9_IdentityIS3_ESt4lessIS3_ESaIS3_EE16_M_insert_uniqueIS3_EESt4pairISt17_Rb_tree_iteratorIS3_EbEOT_
	.text
	.align	2
	.p2align 4,,11
	.global	_ZN8asiodnp315DNP3ManagerImpl12AddTCPClientERKNSt7__cxx1112basic_stringIcSt11char_traitsIcESaIcEEEjRKN7asiopal12ChannelRetryES8_S8_tSt10shared_ptrINS_16IChannelListenerEE
	.type	_ZN8asiodnp315DNP3ManagerImpl12AddTCPClientERKNSt7__cxx1112basic_stringIcSt11char_traitsIcESaIcEEEjRKN7asiopal12ChannelRetryES8_S8_tSt10shared_ptrINS_16IChannelListenerEE, %function
_ZN8asiodnp315DNP3ManagerImpl12AddTCPClientERKNSt7__cxx1112basic_stringIcSt11char_traitsIcESaIcEEEjRKN7asiopal12ChannelRetryES8_S8_tSt10shared_ptrINS_16IChannelListenerEE:
.LFB8237:
	.cfi_startproc
	.cfi_personality 0x9b,DW.ref.__gxx_personality_v0
	.cfi_lsda 0x1b,.LLSDA8237
	stp	x29, x30, [sp, -272]!
	.cfi_def_cfa_offset 272
	.cfi_offset 29, -272
	.cfi_offset 30, -264
	adrp	x9, :got:__stack_chk_guard
	mov	x29, sp
	ldr	x9, [x9, #:got_lo12:__stack_chk_guard]
	stp	x19, x20, [sp, 16]
	.cfi_offset 19, -256
	.cfi_offset 20, -248
	mov	x20, x0
	stp	x21, x22, [sp, 32]
	mov	x19, x8
	.cfi_offset 21, -240
	.cfi_offset 22, -232
	mov	x22, x4
	stp	x23, x24, [sp, 48]
	.cfi_offset 23, -224
	.cfi_offset 24, -216
	mov	x23, x7
	stp	x25, x26, [sp, 64]
	.cfi_offset 25, -208
	.cfi_offset 26, -200
	mov	x26, x1
	str	w2, [sp, 104]
	stp	x3, x5, [sp, 112]
	ldr	x24, [x0, 256]
	and	w0, w6, 65535
	str	w0, [sp, 132]
	add	x25, x24, 8
	ldr	x1, [x9]
	str	x1, [sp, 264]
	mov	x1, 0
	mov	x0, x25
	bl	pthread_mutex_lock
	cbnz	w0, .L1279
	ldrb	w0, [x24, 56]
	cbz	w0, .L1079
	stp	xzr, xzr, [x19]
.L1080:
	mov	x0, x25
	bl	pthread_mutex_unlock
	adrp	x0, :got:__stack_chk_guard
	ldr	x0, [x0, #:got_lo12:__stack_chk_guard]
	ldr	x2, [sp, 264]
	ldr	x1, [x0]
	subs	x2, x2, x1
	mov	x1, 0
	bne	.L1280
	mov	x0, x19
	ldp	x19, x20, [sp, 16]
	ldp	x21, x22, [sp, 32]
	ldp	x23, x24, [sp, 48]
	ldp	x25, x26, [sp, 64]
	ldp	x29, x30, [sp], 272
	.cfi_remember_state
	.cfi_restore 30
	.cfi_restore 29
	.cfi_restore 25
	.cfi_restore 26
	.cfi_restore 23
	.cfi_restore 24
	.cfi_restore 21
	.cfi_restore 22
	.cfi_restore 19
	.cfi_restore 20
	.cfi_def_cfa_offset 0
	ret
	.p2align 2,,3
.L1079:
	.cfi_restore_state
	mov	x0, 56
	stp	x27, x28, [sp, 80]
	.cfi_offset 28, -184
	.cfi_offset 27, -192
.LEHB21:
	bl	_Znwm
.LEHE21:
	movi	v0.2s, 0x1
	adrp	x1, :got:_ZTVSt23_Sp_counted_ptr_inplaceIN7openpal6Logger8SettingsESaIS2_ELN9__gnu_cxx12_Lock_policyE2EE
	mov	x28, x0
	mov	x21, x0
	ldr	x1, [x1, #:got_lo12:_ZTVSt23_Sp_counted_ptr_inplaceIN7openpal6Logger8SettingsESaIS2_ELN9__gnu_cxx12_Lock_policyE2EE]
	ldp	x2, x26, [x26]
	str	d0, [x0, 8]
	add	x1, x1, 16
	str	x1, [x28], 16
	str	x2, [sp, 136]
	add	x0, x28, 16
	str	x0, [x21, 16]
	cmn	x2, x26
	ccmp	x2, 0, 0, ne
	beq	.L1281
	str	x26, [sp, 192]
	cmp	x26, 15
	bhi	.L1282
	cmp	x26, 1
	bne	.L1084
	ldrb	w1, [x2]
	add	x27, sp, 192
	strb	w1, [x21, 32]
.L1085:
	str	x26, [x28, 8]
	strb	wzr, [x0, x26]
	ldr	w0, [sp, 104]
	ldr	q0, [x20]
	str	w0, [x28, 32]
	umov	x1, v0.d[1]
	str	q0, [sp, 192]
	cbz	x1, .L1283
	adrp	x26, :got:__libc_single_threaded
	ldr	x2, [x26, #:got_lo12:__libc_single_threaded]
	ldrb	w0, [x2]
	cbz	w0, .L1090
	ldr	w0, [x1, 8]
	add	w0, w0, 1
	str	w0, [x1, 8]
	stp	x28, x21, [sp, 208]
.L1091:
	ldr	w1, [x21, 8]
	add	w0, w1, 1
.L1093:
	str	w1, [x21, 8]
.L1095:
	cmp	w0, 1
	beq	.L1284
.L1097:
	add	x0, x20, 32
	str	x0, [sp, 104]
	mov	x0, 72
	str	xzr, [sp, 160]
.LEHB22:
	bl	_Znwm
.LEHE22:
	adrp	x2, :got:_ZTVSt23_Sp_counted_ptr_inplaceIN7asiopal8ExecutorESaIS1_ELN9__gnu_cxx12_Lock_policyE2EE
	movi	v0.2s, 0x1
	mov	x28, x0
	mov	x21, x0
	ldr	x2, [x2, #:got_lo12:_ZTVSt23_Sp_counted_ptr_inplaceIN7asiopal8ExecutorESaIS1_ELN9__gnu_cxx12_Lock_policyE2EE]
	add	x1, x20, 32
	str	d0, [x0, 8]
	add	x2, x2, 16
	str	x2, [x28], 16
	mov	x0, x28
.LEHB23:
	bl	_ZN7asiopal8ExecutorC1ERKSt10shared_ptrINS_2IOEE
.LEHE23:
	ldr	x2, [x21, 32]
	stp	x28, x21, [sp, 160]
	cbz	x2, .L1285
	add	x0, x2, 8
	ldr	w0, [x0]
	cbz	w0, .L1286
.L1105:
	ldp	x28, x21, [x22]
	add	x0, sp, 240
	str	x0, [sp, 104]
	str	x0, [sp, 224]
	add	x0, sp, 224
	str	x0, [sp, 136]
	cmn	x28, x21
	ccmp	x28, 0, 0, ne
	beq	.L1287
	str	x21, [sp, 176]
	cmp	x21, 15
	bhi	.L1288
	cmp	x21, 1
	bne	.L1116
	ldr	x0, [sp, 104]
	ldrb	w1, [x28]
	strb	w1, [sp, 240]
.L1117:
	ldrh	w1, [sp, 132]
	str	x21, [sp, 232]
	strb	wzr, [x0, x21]
	mov	x0, 960
	strh	w1, [sp, 256]
.LEHB24:
	bl	_Znwm
.LEHE24:
	adrp	x1, :got:_ZTVSt23_Sp_counted_ptr_inplaceIN8asiodnp318TCPClientIOHandlerESaIS1_ELN9__gnu_cxx12_Lock_policyE2EE
	movi	v0.2s, 0x1
	mov	x21, x0
	mov	x28, x0
	ldp	x4, x6, [sp, 112]
	add	x22, sp, 160
	ldr	x0, [x1, #:got_lo12:_ZTVSt23_Sp_counted_ptr_inplaceIN8asiodnp318TCPClientIOHandlerESaIS1_ELN9__gnu_cxx12_Lock_policyE2EE]
	str	d0, [x21, 8]
	ldr	x5, [sp, 136]
	add	x0, x0, 16
	str	x0, [x28], 16
	add	x1, x21, 8
	mov	x2, x23
	mov	x3, x22
	mov	x0, x28
	str	x1, [sp, 112]
	mov	x1, x27
.LEHB25:
	bl	_ZN8asiodnp318TCPClientIOHandlerC1ERKN7openpal6LoggerERKSt10shared_ptrINS_16IChannelListenerEERKS5_IN7asiopal8ExecutorEERKNSA_12ChannelRetryERKNSA_10IPEndpointERKNSt7__cxx1112basic_stringIcSt11char_traitsIcESaIcEEE
.LEHE25:
	ldr	x0, [x21, 40]
	cbz	x0, .L1119
	add	x1, x0, 8
	ldr	w1, [x1]
	cbz	w1, .L1119
.L1122:
	ldr	x1, [sp, 104]
	ldr	x0, [sp, 224]
	cmp	x0, x1
	beq	.L1128
	ldr	x1, [sp, 240]
	add	x1, x1, 1
	bl	_ZdlPvm
.L1128:
	ldr	x0, [x26, #:got_lo12:__libc_single_threaded]
	stp	x28, x21, [sp, 176]
	ldrb	w0, [x0]
	cbz	w0, .L1289
	ldr	w0, [x21, 8]
	add	w0, w0, 1
	str	w0, [x21, 8]
.L1129:
	ldr	q0, [x20, 256]
	umov	x1, v0.d[1]
	str	q0, [sp, 144]
	cbz	x1, .L1130
	ldr	x0, [x26, #:got_lo12:__libc_single_threaded]
	ldrb	w0, [x0]
	cbz	w0, .L1131
	ldr	w0, [x1, 8]
	add	w0, w0, 1
	str	w0, [x1, 8]
.L1130:
	mov	x0, 136
.LEHB26:
	bl	_Znwm
.LEHE26:
	adrp	x1, :got:_ZTVSt23_Sp_counted_ptr_inplaceIN8asiodnp311DNP3ChannelESaIS1_ELN9__gnu_cxx12_Lock_policyE2EE
	movi	v0.2s, 0x1
	mov	x20, x0
	mov	x23, x0
	ldr	x0, [x1, #:got_lo12:_ZTVSt23_Sp_counted_ptr_inplaceIN8asiodnp311DNP3ChannelESaIS1_ELN9__gnu_cxx12_Lock_policyE2EE]
	mov	x2, x22
	str	d0, [x20, 8]
	add	x28, x20, 8
	add	x0, x0, 16
	str	x0, [x23], 16
	add	x4, sp, 144
	add	x3, sp, 176
	mov	x1, x27
	mov	x0, x23
.LEHB27:
	bl	_ZN8asiodnp311DNP3ChannelC1ERKN7openpal6LoggerERKSt10shared_ptrIN7asiopal8ExecutorEERKS5_INS_9IOHandlerEERKS5_INS6_16IResourceManagerEE
.LEHE27:
	ldr	x0, [x20, 32]
	cbz	x0, .L1133
	add	x1, x0, 8
	ldr	w1, [x1]
	cbnz	w1, .L1290
.L1133:
	ldr	x22, [x26, #:got_lo12:__libc_single_threaded]
	str	x23, [x20, 24]
	ldrb	w1, [x22]
	cbz	w1, .L1291
	ldr	w3, [x20, 12]
	mov	x2, x0
	add	w0, w3, 1
	str	w0, [x20, 12]
	cbz	x2, .L1138
.L1137:
	ldr	w0, [x2, 12]
	sub	w1, w0, #1
	str	w1, [x2, 12]
.L1141:
	cmp	w0, 1
	bne	.L1275
	ldr	x1, [x2]
	mov	x0, x2
	ldr	x1, [x1, 24]
	blr	x1
.L1275:
	ldr	x0, [x26, #:got_lo12:__libc_single_threaded]
	ldrb	w1, [x0]
.L1138:
	str	x20, [x20, 32]
.L1136:
	ldr	x22, [sp, 152]
	cbz	x22, .L1143
	cbz	w1, .L1144
	ldr	w0, [x22, 8]
	sub	w1, w0, #1
	str	w1, [x22, 8]
.L1145:
	cmp	w0, 1
	beq	.L1146
.L1276:
	ldr	x0, [x26, #:got_lo12:__libc_single_threaded]
	ldrb	w1, [x0]
.L1143:
	ldr	x22, [sp, 184]
	cbz	x22, .L1150
	cbz	w1, .L1151
	ldr	w0, [x22, 8]
	sub	w1, w0, #1
	str	w1, [x22, 8]
.L1152:
	cmp	w0, 1
	beq	.L1153
.L1278:
	ldr	x0, [x26, #:got_lo12:__libc_single_threaded]
	ldrb	w1, [x0]
.L1150:
	cbz	w1, .L1292
	ldr	w0, [x21, 8]
	sub	w1, w0, #1
	str	w1, [x21, 8]
.L1157:
	cmp	w0, 1
	beq	.L1293
.L1159:
	ldr	x0, [x26, #:got_lo12:__libc_single_threaded]
	ldr	x21, [sp, 168]
	ldrb	w0, [x0]
	cbz	x21, .L1164
	cbz	w0, .L1165
	ldr	w0, [x21, 8]
	sub	w1, w0, #1
	str	w1, [x21, 8]
.L1166:
	cmp	w0, 1
	beq	.L1294
.L1164:
	ldr	x0, [x26, #:got_lo12:__libc_single_threaded]
	ldr	x21, [sp, 216]
	ldrb	w0, [x0]
	cbz	x21, .L1171
	cbz	w0, .L1172
	ldr	w0, [x21, 8]
	sub	w1, w0, #1
	str	w1, [x21, 8]
.L1173:
	cmp	w0, 1
	beq	.L1295
.L1171:
	ldr	x0, [x26, #:got_lo12:__libc_single_threaded]
	ldr	x21, [sp, 200]
	ldrb	w0, [x0]
	cbz	x21, .L1182
	cbz	w0, .L1178
	ldr	w0, [x21, 8]
	sub	w1, w0, #1
	str	w1, [x21, 8]
.L1179:
	cmp	w0, 1
	beq	.L1296
.L1182:
	ldr	x0, [x26, #:got_lo12:__libc_single_threaded]
	stp	x23, x20, [sp, 192]
	ldrb	w0, [x0]
	cbz	w0, .L1297
	ldr	w0, [x20, 8]
	add	w0, w0, 1
	str	w0, [x20, 8]
.L1188:
	mov	x1, x27
	add	x0, x24, 64
.LEHB28:
	bl	_ZNSt8_Rb_treeISt10shared_ptrIN7asiopal9IResourceEES3_St9_IdentityIS3_ESt4lessIS3_ESaIS3_EE16_M_insert_uniqueIS3_EESt4pairISt17_Rb_tree_iteratorIS3_EbEOT_
.LEHE28:
	ldr	x21, [sp, 200]
	cbz	x21, .L1190
	ldr	x0, [x26, #:got_lo12:__libc_single_threaded]
	ldrb	w0, [x0]
	cbz	w0, .L1191
	ldr	w0, [x21, 8]
	sub	w1, w0, #1
	str	w1, [x21, 8]
.L1192:
	cmp	w0, 1
	bne	.L1190
	ldr	x1, [x21]
	mov	x0, x21
	ldr	x1, [x1, 16]
	blr	x1
	ldr	x26, [x26, #:got_lo12:__libc_single_threaded]
	ldrb	w0, [x26]
	cbz	w0, .L1194
	ldr	w0, [x21, 12]
	sub	w1, w0, #1
	str	w1, [x21, 12]
.L1195:
	cmp	w0, 1
	bne	.L1190
	ldr	x1, [x21]
	mov	x0, x21
	ldr	x1, [x1, 24]
	blr	x1
	.p2align 3,,7
.L1190:
	ldp	x27, x28, [sp, 80]
	.cfi_remember_state
	.cfi_restore 28
	.cfi_restore 27
	stp	x23, x20, [x19]
	b	.L1080
	.p2align 2,,3
.L1282:
	.cfi_restore_state
	add	x27, sp, 192
	mov	x0, x28
	mov	x1, x27
	mov	x2, 0
.LEHB29:
	bl	_ZNSt7__cxx1112basic_stringIcSt11char_traitsIcESaIcEE9_M_createERmm
.LEHE29:
	str	x0, [x21, 16]
	ldr	x1, [sp, 192]
	str	x1, [x28, 16]
.L1083:
	ldr	x1, [sp, 136]
	mov	x2, x26
	bl	memcpy
	ldr	x0, [x21, 16]
	ldr	x26, [sp, 192]
	b	.L1085
	.p2align 2,,3
.L1119:
	ldr	x2, [x26, #:got_lo12:__libc_single_threaded]
	str	x28, [x21, 32]
	ldrb	w1, [x2]
	cbz	w1, .L1298
	ldr	w1, [x21, 12]
	mov	x23, x0
	add	w0, w1, 1
	str	w0, [x21, 12]
	cbz	x23, .L1124
.L1123:
	ldr	w0, [x23, 12]
	sub	w1, w0, #1
	str	w1, [x23, 12]
	b	.L1127
	.p2align 2,,3
.L1298:
	add	x1, x21, 12
	mov	w0, 1
	str	x2, [sp, 112]
	bl	__aarch64_ldadd4_acq_rel
	ldr	x23, [x21, 40]
	cbnz	x23, .L1299
.L1124:
	str	x21, [x21, 40]
	b	.L1122
	.p2align 2,,3
.L1084:
	add	x27, sp, 192
	cbz	x26, .L1085
	b	.L1083
	.p2align 2,,3
.L1116:
	ldr	x0, [sp, 104]
	cbz	x21, .L1117
	b	.L1115
	.p2align 2,,3
.L1283:
	adrp	x26, :got:__libc_single_threaded
	ldr	x0, [x26, #:got_lo12:__libc_single_threaded]
	ldrb	w0, [x0]
.L1092:
	stp	x28, x21, [sp, 208]
	cbnz	w0, .L1091
	add	x1, x21, 8
	mov	w0, 1
	bl	__aarch64_ldadd4_acq_rel
	ldr	x0, [x26, #:got_lo12:__libc_single_threaded]
	ldrb	w0, [x0]
	cbnz	w0, .L1300
	add	x1, x21, 8
	mov	w0, -1
	bl	__aarch64_ldadd4_acq_rel
	b	.L1095
	.p2align 2,,3
.L1288:
	add	x1, sp, 176
	mov	x2, 0
.LEHB30:
	bl	_ZNSt7__cxx1112basic_stringIcSt11char_traitsIcESaIcEE9_M_createERmm
.LEHE30:
	ldr	x1, [sp, 176]
	str	x0, [sp, 224]
	str	x1, [sp, 240]
.L1115:
	mov	x2, x21
	mov	x1, x28
	bl	memcpy
	ldr	x21, [sp, 176]
	ldr	x0, [sp, 224]
	b	.L1117
	.p2align 2,,3
.L1285:
	str	x28, [x21, 24]
.L1209:
	ldr	x0, [x26, #:got_lo12:__libc_single_threaded]
	ldrb	w0, [x0]
	cbz	w0, .L1107
	ldr	w0, [x21, 12]
	add	w0, w0, 1
	str	w0, [x21, 12]
	cbz	x2, .L1109
.L1108:
	ldr	w0, [x2, 12]
	sub	w1, w0, #1
	str	w1, [x2, 12]
.L1112:
	cmp	w0, 1
	beq	.L1301
.L1109:
	str	x21, [x21, 32]
	b	.L1105
	.p2align 2,,3
.L1090:
	add	x1, x1, 8
	mov	w0, 1
	str	x2, [sp, 104]
	bl	__aarch64_ldadd4_acq_rel
	ldr	x2, [sp, 104]
	ldrb	w0, [x2]
	b	.L1092
	.p2align 2,,3
.L1289:
	add	x1, x21, 8
	mov	w0, 1
	bl	__aarch64_ldadd4_acq_rel
	b	.L1129
	.p2align 2,,3
.L1131:
	add	x1, x1, 8
	mov	w0, 1
	bl	__aarch64_ldadd4_acq_rel
	b	.L1130
	.p2align 2,,3
.L1284:
	ldr	x1, [x21]
	mov	x0, x21
	ldr	x1, [x1, 16]
	blr	x1
	ldr	x0, [x26, #:got_lo12:__libc_single_threaded]
	ldrb	w0, [x0]
	cbz	w0, .L1098
	ldr	w0, [x21, 12]
	sub	w1, w0, #1
	str	w1, [x21, 12]
.L1099:
	cmp	w0, 1
	bne	.L1097
	ldr	x1, [x21]
	mov	x0, x21
	ldr	x1, [x1, 24]
	blr	x1
	b	.L1097
	.p2align 2,,3
.L1286:
	str	x28, [x21, 24]
	cbnz	x21, .L1209
.L1106:
	cbz	x2, .L1109
	ldr	x0, [x26, #:got_lo12:__libc_single_threaded]
	ldrb	w0, [x0]
	cbnz	w0, .L1108
	add	x1, x2, 12
	mov	w0, -1
	str	x2, [sp, 104]
	bl	__aarch64_ldadd4_acq_rel
	ldr	x2, [sp, 104]
	b	.L1112
	.p2align 2,,3
.L1290:
	ldr	x0, [x26, #:got_lo12:__libc_single_threaded]
	ldrb	w1, [x0]
	b	.L1136
	.p2align 2,,3
.L1299:
	ldr	x2, [sp, 112]
	ldrb	w0, [x2]
	cbnz	w0, .L1123
	add	x1, x23, 12
	mov	w0, -1
	bl	__aarch64_ldadd4_acq_rel
.L1127:
	cmp	w0, 1
	bne	.L1124
	ldr	x1, [x23]
	mov	x0, x23
	ldr	x1, [x1, 24]
	blr	x1
	str	x21, [x21, 40]
	b	.L1122
	.p2align 2,,3
.L1107:
	add	x1, x21, 12
	mov	w0, 1
	bl	__aarch64_ldadd4_acq_rel
	ldr	x2, [x21, 32]
	b	.L1106
	.p2align 2,,3
.L1191:
	add	x1, x21, 8
	mov	w0, -1
	bl	__aarch64_ldadd4_acq_rel
	b	.L1192
	.p2align 2,,3
.L1301:
	ldr	x1, [x2]
	mov	x0, x2
	ldr	x1, [x1, 24]
	blr	x1
	str	x21, [x21, 32]
	b	.L1105
	.p2align 2,,3
.L1098:
	add	x1, x21, 12
	mov	w0, -1
	bl	__aarch64_ldadd4_acq_rel
	b	.L1099
	.p2align 2,,3
.L1291:
	add	x1, x20, 12
	mov	w0, 1
	bl	__aarch64_ldadd4_acq_rel
	ldr	x2, [x20, 32]
	cbz	x2, .L1302
	ldrb	w0, [x22]
	cbnz	w0, .L1137
	add	x1, x2, 12
	mov	w0, -1
	str	x2, [sp, 104]
	bl	__aarch64_ldadd4_acq_rel
	ldr	x2, [sp, 104]
	b	.L1141
	.p2align 2,,3
.L1296:
	ldr	x1, [x21]
	mov	x0, x21
	ldr	x1, [x1, 16]
	blr	x1
	ldr	x0, [x26, #:got_lo12:__libc_single_threaded]
	ldrb	w0, [x0]
	cbz	w0, .L1180
	ldr	w0, [x21, 12]
	sub	w1, w0, #1
	str	w1, [x21, 12]
.L1181:
	cmp	w0, 1
	bne	.L1182
	ldr	x1, [x21]
	mov	x0, x21
	ldr	x1, [x1, 24]
	blr	x1
	b	.L1182
	.p2align 2,,3
.L1146:
	ldr	x1, [x22]
	mov	x0, x22
	ldr	x1, [x1, 16]
	blr	x1
	ldr	x0, [x26, #:got_lo12:__libc_single_threaded]
	ldrb	w0, [x0]
	cbz	w0, .L1147
	ldr	w0, [x22, 12]
	sub	w1, w0, #1
	str	w1, [x22, 12]
.L1148:
	cmp	w0, 1
	bne	.L1276
	ldr	x1, [x22]
	mov	x0, x22
	ldr	x1, [x1, 24]
	blr	x1
	b	.L1276
	.p2align 2,,3
.L1295:
	ldr	x1, [x21]
	mov	x0, x21
	ldr	x1, [x1, 16]
	blr	x1
	ldr	x0, [x26, #:got_lo12:__libc_single_threaded]
	ldrb	w0, [x0]
	cbz	w0, .L1175
	ldr	w0, [x21, 12]
	sub	w1, w0, #1
	str	w1, [x21, 12]
.L1176:
	cmp	w0, 1
	bne	.L1171
	ldr	x1, [x21]
	mov	x0, x21
	ldr	x1, [x1, 24]
	blr	x1
	b	.L1171
	.p2align 2,,3
.L1293:
	ldr	x1, [x21]
	mov	x0, x21
	ldr	x1, [x1, 16]
	blr	x1
	ldr	x0, [x26, #:got_lo12:__libc_single_threaded]
	ldrb	w0, [x0]
	cbz	w0, .L1160
	ldr	w0, [x21, 12]
	sub	w1, w0, #1
	str	w1, [x21, 12]
.L1161:
	cmp	w0, 1
	bne	.L1159
	ldr	x1, [x21]
	mov	x0, x21
	ldr	x1, [x1, 24]
	blr	x1
	b	.L1159
	.p2align 2,,3
.L1294:
	ldr	x1, [x21]
	mov	x0, x21
	ldr	x1, [x1, 16]
	blr	x1
	ldr	x0, [x26, #:got_lo12:__libc_single_threaded]
	ldrb	w0, [x0]
	cbz	w0, .L1168
	ldr	w0, [x21, 12]
	sub	w1, w0, #1
	str	w1, [x21, 12]
.L1169:
	cmp	w0, 1
	bne	.L1164
	ldr	x1, [x21]
	mov	x0, x21
	ldr	x1, [x1, 24]
	blr	x1
	b	.L1164
	.p2align 2,,3
.L1153:
	ldr	x1, [x22]
	mov	x0, x22
	ldr	x1, [x1, 16]
	blr	x1
	ldr	x0, [x26, #:got_lo12:__libc_single_threaded]
	ldrb	w0, [x0]
	cbz	w0, .L1154
	ldr	w0, [x22, 12]
	sub	w1, w0, #1
	str	w1, [x22, 12]
.L1155:
	cmp	w0, 1
	bne	.L1278
	ldr	x1, [x22]
	mov	x0, x22
	ldr	x1, [x1, 24]
	blr	x1
	b	.L1278
	.p2align 2,,3
.L1151:
	add	x1, x22, 8
	mov	w0, -1
	bl	__aarch64_ldadd4_acq_rel
	b	.L1152
	.p2align 2,,3
.L1178:
	add	x1, x21, 8
	mov	w0, -1
	bl	__aarch64_ldadd4_acq_rel
	b	.L1179
	.p2align 2,,3
.L1172:
	add	x1, x21, 8
	mov	w0, -1
	bl	__aarch64_ldadd4_acq_rel
	b	.L1173
	.p2align 2,,3
.L1165:
	add	x1, x21, 8
	mov	w0, -1
	bl	__aarch64_ldadd4_acq_rel
	b	.L1166
	.p2align 2,,3
.L1292:
	add	x1, x21, 8
	mov	w0, -1
	bl	__aarch64_ldadd4_acq_rel
	b	.L1157
	.p2align 2,,3
.L1144:
	add	x1, x22, 8
	mov	w0, -1
	bl	__aarch64_ldadd4_acq_rel
	b	.L1145
	.p2align 2,,3
.L1297:
	mov	x1, x28
	mov	w0, 1
	bl	__aarch64_ldadd4_acq_rel
	b	.L1188
	.p2align 2,,3
.L1302:
	ldrb	w1, [x22]
	b	.L1138
	.p2align 2,,3
.L1180:
	add	x1, x21, 12
	mov	w0, -1
	bl	__aarch64_ldadd4_acq_rel
	b	.L1181
	.p2align 2,,3
.L1154:
	add	x1, x22, 12
	mov	w0, -1
	bl	__aarch64_ldadd4_acq_rel
	b	.L1155
	.p2align 2,,3
.L1147:
	add	x1, x22, 12
	mov	w0, -1
	bl	__aarch64_ldadd4_acq_rel
	b	.L1148
	.p2align 2,,3
.L1160:
	add	x1, x21, 12
	mov	w0, -1
	bl	__aarch64_ldadd4_acq_rel
	b	.L1161
	.p2align 2,,3
.L1175:
	add	x1, x21, 12
	mov	w0, -1
	bl	__aarch64_ldadd4_acq_rel
	b	.L1176
	.p2align 2,,3
.L1168:
	add	x1, x21, 12
	mov	w0, -1
	bl	__aarch64_ldadd4_acq_rel
	b	.L1169
.L1194:
	add	x1, x21, 12
	mov	w0, -1
	bl	__aarch64_ldadd4_acq_rel
	b	.L1195
.L1279:
	.cfi_restore 27
	.cfi_restore 28
	stp	x27, x28, [sp, 80]
	.cfi_remember_state
	.cfi_offset 28, -184
	.cfi_offset 27, -192
.LEHB31:
	bl	_ZSt20__throw_system_errori
.LEHE31:
.L1280:
	.cfi_restore_state
	stp	x27, x28, [sp, 80]
	.cfi_offset 28, -184
	.cfi_offset 27, -192
	bl	__stack_chk_fail
.L1287:
	adrp	x0, .LC5
	add	x0, x0, :lo12:.LC5
.LEHB32:
	bl	_ZSt19__throw_logic_errorPKc
.LEHE32:
.L1281:
	adrp	x0, .LC5
	add	x0, x0, :lo12:.LC5
.LEHB33:
	bl	_ZSt19__throw_logic_errorPKc
.LEHE33:
.L1300:
	ldr	w0, [x21, 8]
	sub	w1, w0, #1
	b	.L1093
.L1219:
	mov	x19, x0
	mov	x1, 72
	mov	x0, x21
	bl	_ZdlPvm
.L1104:
	mov	x0, x27
	bl	_ZN7openpal6LoggerD1Ev
.L1089:
	mov	x0, x25
	bl	pthread_mutex_unlock
	mov	x0, x19
.LEHB34:
	bl	_Unwind_Resume
.LEHE34:
.L1214:
	mov	x19, x0
	b	.L1104
.L1212:
	mov	x19, x0
	b	.L1089
.L1221:
	mov	x19, x0
	mov	x1, 136
	mov	x0, x20
	bl	_ZdlPvm
.L1135:
	ldr	x0, [sp, 152]
	cbz	x0, .L1185
	bl	_ZNSt16_Sp_counted_baseILN9__gnu_cxx12_Lock_policyE2EE10_M_releaseEv
.L1185:
	ldr	x0, [sp, 184]
	cbz	x0, .L1186
	bl	_ZNSt16_Sp_counted_baseILN9__gnu_cxx12_Lock_policyE2EE10_M_releaseEv
.L1186:
	mov	x0, x21
	bl	_ZNSt16_Sp_counted_baseILN9__gnu_cxx12_Lock_policyE2EE10_M_releaseEv
.L1184:
	ldr	x0, [sp, 168]
	cbz	x0, .L1104
	bl	_ZNSt16_Sp_counted_baseILN9__gnu_cxx12_Lock_policyE2EE10_M_releaseEv
	b	.L1104
.L1215:
	mov	x19, x0
	b	.L1184
.L1213:
	ldr	x1, [sp, 200]
	mov	x19, x0
	cbz	x1, .L1197
	mov	x0, x1
	bl	_ZNSt16_Sp_counted_baseILN9__gnu_cxx12_Lock_policyE2EE10_M_releaseEv
.L1197:
	mov	x0, x20
	bl	_ZNSt16_Sp_counted_baseILN9__gnu_cxx12_Lock_policyE2EE10_M_releaseEv
	b	.L1089
.L1218:
	mov	x19, x0
	mov	x1, 56
	mov	x0, x21
	bl	_ZdlPvm
	b	.L1089
.L1217:
	mov	x19, x0
	b	.L1121
.L1216:
	mov	x19, x0
	b	.L1135
.L1220:
	mov	x19, x0
	mov	x1, 960
	mov	x0, x21
	bl	_ZdlPvm
.L1121:
	ldr	x1, [sp, 104]
	ldr	x0, [sp, 224]
	cmp	x0, x1
	beq	.L1184
	ldr	x1, [sp, 240]
	add	x1, x1, 1
	bl	_ZdlPvm
	b	.L1184
	.cfi_endproc
.LFE8237:
	.section	.gcc_except_table
.LLSDA8237:
	.byte	0xff
	.byte	0xff
	.byte	0x1
	.uleb128 .LLSDACSE8237-.LLSDACSB8237
.LLSDACSB8237:
	.uleb128 .LEHB21-.LFB8237
	.uleb128 .LEHE21-.LEHB21
	.uleb128 .L1212-.LFB8237
	.uleb128 0
	.uleb128 .LEHB22-.LFB8237
	.uleb128 .LEHE22-.LEHB22
	.uleb128 .L1214-.LFB8237
	.uleb128 0
	.uleb128 .LEHB23-.LFB8237
	.uleb128 .LEHE23-.LEHB23
	.uleb128 .L1219-.LFB8237
	.uleb128 0
	.uleb128 .LEHB24-.LFB8237
	.uleb128 .LEHE24-.LEHB24
	.uleb128 .L1217-.LFB8237
	.uleb128 0
	.uleb128 .LEHB25-.LFB8237
	.uleb128 .LEHE25-.LEHB25
	.uleb128 .L1220-.LFB8237
	.uleb128 0
	.uleb128 .LEHB26-.LFB8237
	.uleb128 .LEHE26-.LEHB26
	.uleb128 .L1216-.LFB8237
	.uleb128 0
	.uleb128 .LEHB27-.LFB8237
	.uleb128 .LEHE27-.LEHB27
	.uleb128 .L1221-.LFB8237
	.uleb128 0
	.uleb128 .LEHB28-.LFB8237
	.uleb128 .LEHE28-.LEHB28
	.uleb128 .L1213-.LFB8237
	.uleb128 0
	.uleb128 .LEHB29-.LFB8237
	.uleb128 .LEHE29-.LEHB29
	.uleb128 .L1218-.LFB8237
	.uleb128 0
	.uleb128 .LEHB30-.LFB8237
	.uleb128 .LEHE30-.LEHB30
	.uleb128 .L1215-.LFB8237
	.uleb128 0
	.uleb128 .LEHB31-.LFB8237
	.uleb128 .LEHE31-.LEHB31
	.uleb128 0
	.uleb128 0
	.uleb128 .LEHB32-.LFB8237
	.uleb128 .LEHE32-.LEHB32
	.uleb128 .L1215-.LFB8237
	.uleb128 0
	.uleb128 .LEHB33-.LFB8237
	.uleb128 .LEHE33-.LEHB33
	.uleb128 .L1218-.LFB8237
	.uleb128 0
	.uleb128 .LEHB34-.LFB8237
	.uleb128 .LEHE34-.LEHB34
	.uleb128 0
	.uleb128 0
.LLSDACSE8237:
	.text
	.size	_ZN8asiodnp315DNP3ManagerImpl12AddTCPClientERKNSt7__cxx1112basic_stringIcSt11char_traitsIcESaIcEEEjRKN7asiopal12ChannelRetryES8_S8_tSt10shared_ptrINS_16IChannelListenerEE, .-_ZN8asiodnp315DNP3ManagerImpl12AddTCPClientERKNSt7__cxx1112basic_stringIcSt11char_traitsIcESaIcEEEjRKN7asiopal12ChannelRetryES8_S8_tSt10shared_ptrINS_16IChannelListenerEE
	.align	2
	.p2align 4,,11
	.global	_ZN8asiodnp315DNP3ManagerImpl12AddTCPServerERKNSt7__cxx1112basic_stringIcSt11char_traitsIcESaIcEEEjRKN7asiopal12ChannelRetryES8_tSt10shared_ptrINS_16IChannelListenerEE
	.type	_ZN8asiodnp315DNP3ManagerImpl12AddTCPServerERKNSt7__cxx1112basic_stringIcSt11char_traitsIcESaIcEEEjRKN7asiopal12ChannelRetryES8_tSt10shared_ptrINS_16IChannelListenerEE, %function
_ZN8asiodnp315DNP3ManagerImpl12AddTCPServerERKNSt7__cxx1112basic_stringIcSt11char_traitsIcESaIcEEEjRKN7asiopal12ChannelRetryES8_tSt10shared_ptrINS_16IChannelListenerEE:
.LFB8260:
	.cfi_startproc
	.cfi_personality 0x9b,DW.ref.__gxx_personality_v0
	.cfi_lsda 0x1b,.LLSDA8260
	stp	x29, x30, [sp, -272]!
	.cfi_def_cfa_offset 272
	.cfi_offset 29, -272
	.cfi_offset 30, -264
	adrp	x3, :got:__stack_chk_guard
	mov	x29, sp
	ldr	x3, [x3, #:got_lo12:__stack_chk_guard]
	stp	x19, x20, [sp, 16]
	.cfi_offset 19, -256
	.cfi_offset 20, -248
	mov	x20, x0
	stp	x21, x22, [sp, 32]
	mov	x19, x8
	.cfi_offset 21, -240
	.cfi_offset 22, -232
	mov	x21, x4
	stp	x23, x24, [sp, 48]
	.cfi_offset 23, -224
	.cfi_offset 24, -216
	mov	x23, x6
	stp	x25, x26, [sp, 64]
	.cfi_offset 25, -208
	.cfi_offset 26, -200
	mov	x26, x1
	stp	x27, x28, [sp, 80]
	.cfi_offset 27, -192
	.cfi_offset 28, -184
	mov	w28, w2
	ldr	x24, [x0, 256]
	and	w0, w5, 65535
	str	w0, [sp, 104]
	add	x25, x24, 8
	ldr	x1, [x3]
	str	x1, [sp, 264]
	mov	x1, 0
	mov	x0, x25
	bl	pthread_mutex_lock
	cbnz	w0, .L1509
	ldrb	w0, [x24, 56]
	cbz	w0, .L1305
	stp	xzr, xzr, [x19]
.L1306:
	mov	x0, x25
	bl	pthread_mutex_unlock
	adrp	x0, :got:__stack_chk_guard
	ldr	x0, [x0, #:got_lo12:__stack_chk_guard]
	ldr	x2, [sp, 264]
	ldr	x1, [x0]
	subs	x2, x2, x1
	mov	x1, 0
	bne	.L1510
	mov	x0, x19
	ldp	x19, x20, [sp, 16]
	ldp	x21, x22, [sp, 32]
	ldp	x23, x24, [sp, 48]
	ldp	x25, x26, [sp, 64]
	ldp	x27, x28, [sp, 80]
	ldp	x29, x30, [sp], 272
	.cfi_remember_state
	.cfi_restore 30
	.cfi_restore 29
	.cfi_restore 27
	.cfi_restore 28
	.cfi_restore 25
	.cfi_restore 26
	.cfi_restore 23
	.cfi_restore 24
	.cfi_restore 21
	.cfi_restore 22
	.cfi_restore 19
	.cfi_restore 20
	.cfi_def_cfa_offset 0
	ret
	.p2align 2,,3
.L1305:
	.cfi_restore_state
	str	wzr, [sp, 144]
	bl	_ZNSt3_V215system_categoryEv
	mov	x1, x0
	mov	x0, 56
	str	x1, [sp, 152]
.LEHB35:
	bl	_Znwm
.LEHE35:
	movi	v0.2s, 0x1
	adrp	x1, :got:_ZTVSt23_Sp_counted_ptr_inplaceIN7openpal6Logger8SettingsESaIS2_ELN9__gnu_cxx12_Lock_policyE2EE
	mov	x22, x0
	mov	x27, x0
	ldr	x1, [x1, #:got_lo12:_ZTVSt23_Sp_counted_ptr_inplaceIN7openpal6Logger8SettingsESaIS2_ELN9__gnu_cxx12_Lock_policyE2EE]
	add	x0, x0, 8
	ldp	x2, x26, [x26]
	str	d0, [x22, 8]
	add	x1, x1, 16
	str	x1, [x27], 16
	stp	x0, x2, [sp, 112]
	add	x0, x27, 16
	str	x0, [x22, 16]
	cmn	x2, x26
	ccmp	x2, 0, 0, ne
	beq	.L1511
	str	x26, [sp, 192]
	cmp	x26, 15
	bhi	.L1512
	cmp	x26, 1
	bne	.L1310
	ldrb	w1, [x2]
	add	x2, sp, 192
	strb	w1, [x22, 32]
	str	x2, [sp, 112]
.L1311:
	str	x26, [x27, 8]
	strb	wzr, [x0, x26]
	str	w28, [x27, 32]
	ldr	q0, [x20]
	umov	x1, v0.d[1]
	str	q0, [sp, 192]
	cbz	x1, .L1513
	adrp	x26, :got:__libc_single_threaded
	ldr	x2, [x26, #:got_lo12:__libc_single_threaded]
	ldrb	w0, [x2]
	cbz	w0, .L1316
	ldr	w0, [x1, 8]
	add	w0, w0, 1
	str	w0, [x1, 8]
	stp	x27, x22, [sp, 208]
.L1317:
	ldr	w1, [x22, 8]
	add	w0, w1, 1
.L1319:
	str	w1, [x22, 8]
.L1321:
	cmp	w0, 1
	beq	.L1514
.L1323:
	add	x28, x20, 32
	mov	x0, 72
	str	xzr, [sp, 160]
.LEHB36:
	bl	_Znwm
.LEHE36:
	adrp	x2, :got:_ZTVSt23_Sp_counted_ptr_inplaceIN7asiopal8ExecutorESaIS1_ELN9__gnu_cxx12_Lock_policyE2EE
	movi	v0.2s, 0x1
	mov	x27, x0
	mov	x22, x0
	ldr	x2, [x2, #:got_lo12:_ZTVSt23_Sp_counted_ptr_inplaceIN7asiopal8ExecutorESaIS1_ELN9__gnu_cxx12_Lock_policyE2EE]
	mov	x1, x28
	str	d0, [x0, 8]
	add	x2, x2, 16
	str	x2, [x27], 16
	mov	x0, x27
.LEHB37:
	bl	_ZN7asiopal8ExecutorC1ERKSt10shared_ptrINS_2IOEE
.LEHE37:
	ldr	x2, [x22, 32]
	stp	x27, x22, [sp, 160]
	cbz	x2, .L1515
	add	x0, x2, 8
	ldr	w0, [x0]
	cbz	w0, .L1516
.L1331:
	ldp	x22, x21, [x21]
	add	x0, sp, 240
	str	x0, [sp, 224]
	mov	x28, x0
	add	x27, sp, 224
	cmn	x22, x21
	ccmp	x22, 0, 0, ne
	beq	.L1517
	str	x21, [sp, 176]
	cmp	x21, 15
	bhi	.L1518
	cmp	x21, 1
	bne	.L1342
	ldrb	w1, [x22]
	strb	w1, [sp, 240]
.L1343:
	ldrh	w1, [sp, 104]
	str	x21, [sp, 232]
	strb	wzr, [x0, x21]
	mov	x0, 888
	strh	w1, [sp, 256]
.LEHB38:
	bl	_Znwm
.LEHE38:
	adrp	x1, :got:_ZTVSt23_Sp_counted_ptr_inplaceIN8asiodnp318TCPServerIOHandlerESaIS1_ELN9__gnu_cxx12_Lock_policyE2EE
	movi	v0.2s, 0x1
	mov	x21, x0
	mov	x22, x0
	ldr	x0, [x1, #:got_lo12:_ZTVSt23_Sp_counted_ptr_inplaceIN8asiodnp318TCPServerIOHandlerESaIS1_ELN9__gnu_cxx12_Lock_policyE2EE]
	add	x3, sp, 160
	ldr	x1, [sp, 112]
	str	d0, [x21, 8]
	add	x0, x0, 16
	str	x0, [x22], 16
	mov	x2, x23
	mov	x4, x27
	add	x23, x21, 8
	add	x5, sp, 144
	mov	x0, x22
	str	x3, [sp, 104]
.LEHB39:
	bl	_ZN8asiodnp318TCPServerIOHandlerC1ERKN7openpal6LoggerERKSt10shared_ptrINS_16IChannelListenerEERKS5_IN7asiopal8ExecutorEERKNSA_10IPEndpointERSt10error_code
.LEHE39:
	ldr	x0, [x21, 40]
	cbz	x0, .L1345
	add	x1, x0, 8
	ldr	w1, [x1]
	cbz	w1, .L1345
.L1348:
	ldr	x0, [sp, 224]
	cmp	x0, x28
	beq	.L1354
	ldr	x1, [sp, 240]
	add	x1, x1, 1
	bl	_ZdlPvm
.L1354:
	ldr	x0, [x26, #:got_lo12:__libc_single_threaded]
	ldr	w1, [sp, 144]
	ldrb	w0, [x0]
	cbz	w1, .L1355
	mov	x22, 0
	mov	x20, 0
.L1356:
	cbz	w0, .L1519
	ldr	w0, [x21, 8]
	sub	w1, w0, #1
	str	w1, [x21, 8]
.L1386:
	cmp	w0, 1
	beq	.L1520
.L1388:
	ldr	x21, [sp, 168]
	cbz	x21, .L1393
	ldr	x0, [x26, #:got_lo12:__libc_single_threaded]
	ldrb	w0, [x0]
	cbz	w0, .L1394
	ldr	w0, [x21, 8]
	sub	w1, w0, #1
	str	w1, [x21, 8]
.L1395:
	cmp	w0, 1
	beq	.L1521
.L1393:
	ldr	x21, [sp, 216]
	cbz	x21, .L1400
	ldr	x0, [x26, #:got_lo12:__libc_single_threaded]
	ldrb	w0, [x0]
	cbz	w0, .L1401
	ldr	w0, [x21, 8]
	sub	w1, w0, #1
	str	w1, [x21, 8]
.L1402:
	cmp	w0, 1
	beq	.L1522
.L1400:
	ldr	x21, [sp, 200]
	cbz	x21, .L1407
	ldr	x0, [x26, #:got_lo12:__libc_single_threaded]
	ldrb	w0, [x0]
	cbz	w0, .L1408
	ldr	w0, [x21, 8]
	sub	w1, w0, #1
	str	w1, [x21, 8]
.L1409:
	cmp	w0, 1
	beq	.L1523
.L1407:
	cbz	x22, .L1414
	stp	x22, x20, [sp, 192]
	cbz	x20, .L1420
	ldr	x0, [x26, #:got_lo12:__libc_single_threaded]
	ldrb	w0, [x0]
	cbz	w0, .L1421
	ldr	w0, [x20, 8]
	add	w0, w0, 1
	str	w0, [x20, 8]
.L1420:
	ldr	x1, [sp, 112]
	add	x0, x24, 64
.LEHB40:
	bl	_ZNSt8_Rb_treeISt10shared_ptrIN7asiopal9IResourceEES3_St9_IdentityIS3_ESt4lessIS3_ESaIS3_EE16_M_insert_uniqueIS3_EESt4pairISt17_Rb_tree_iteratorIS3_EbEOT_
.LEHE40:
	ldr	x21, [sp, 200]
	cbz	x21, .L1414
	ldr	x0, [x26, #:got_lo12:__libc_single_threaded]
	ldrb	w0, [x0]
	cbz	w0, .L1424
	ldr	w0, [x21, 8]
	sub	w1, w0, #1
	str	w1, [x21, 8]
.L1425:
	cmp	w0, 1
	bne	.L1414
	ldr	x1, [x21]
	mov	x0, x21
	ldr	x1, [x1, 16]
	blr	x1
	ldr	x26, [x26, #:got_lo12:__libc_single_threaded]
	ldrb	w0, [x26]
	cbz	w0, .L1427
	ldr	w0, [x21, 12]
	sub	w1, w0, #1
	str	w1, [x21, 12]
.L1428:
	cmp	w0, 1
	bne	.L1414
	ldr	x1, [x21]
	mov	x0, x21
	ldr	x1, [x1, 24]
	blr	x1
	.p2align 3,,7
.L1414:
	stp	x22, x20, [x19]
	b	.L1306
	.p2align 2,,3
.L1512:
	add	x0, sp, 192
	mov	x2, 0
	mov	x1, x0
	str	x0, [sp, 112]
	mov	x0, x27
.LEHB41:
	bl	_ZNSt7__cxx1112basic_stringIcSt11char_traitsIcESaIcEE9_M_createERmm
.LEHE41:
	str	x0, [x22, 16]
	ldr	x1, [sp, 192]
	str	x1, [x27, 16]
.L1309:
	ldr	x1, [sp, 120]
	mov	x2, x26
	bl	memcpy
	ldr	x0, [x22, 16]
	ldr	x26, [sp, 192]
	b	.L1311
	.p2align 2,,3
.L1345:
	ldr	x2, [x26, #:got_lo12:__libc_single_threaded]
	str	x22, [x21, 32]
	ldrb	w1, [x2]
	cbz	w1, .L1524
	ldr	w1, [x21, 12]
	mov	x27, x0
	add	w0, w1, 1
	str	w0, [x21, 12]
	cbz	x27, .L1350
.L1349:
	ldr	w0, [x27, 12]
	sub	w1, w0, #1
	str	w1, [x27, 12]
	b	.L1353
	.p2align 2,,3
.L1524:
	add	x1, x21, 12
	mov	w0, 1
	str	x2, [sp, 120]
	bl	__aarch64_ldadd4_acq_rel
	ldr	x27, [x21, 40]
	cbnz	x27, .L1525
.L1350:
	str	x21, [x21, 40]
	b	.L1348
	.p2align 2,,3
.L1310:
	add	x1, sp, 192
	str	x1, [sp, 112]
	cbz	x26, .L1311
	b	.L1309
	.p2align 2,,3
.L1342:
	cbz	x21, .L1343
	b	.L1341
	.p2align 2,,3
.L1513:
	adrp	x26, :got:__libc_single_threaded
	ldr	x0, [x26, #:got_lo12:__libc_single_threaded]
	ldrb	w0, [x0]
.L1318:
	stp	x27, x22, [sp, 208]
	cbnz	w0, .L1317
	add	x1, x22, 8
	mov	w0, 1
	bl	__aarch64_ldadd4_acq_rel
	ldr	x0, [x26, #:got_lo12:__libc_single_threaded]
	ldrb	w0, [x0]
	cbnz	w0, .L1526
	add	x1, x22, 8
	mov	w0, -1
	bl	__aarch64_ldadd4_acq_rel
	b	.L1321
	.p2align 2,,3
.L1518:
	add	x1, sp, 176
	mov	x0, x27
	mov	x2, 0
.LEHB42:
	bl	_ZNSt7__cxx1112basic_stringIcSt11char_traitsIcESaIcEE9_M_createERmm
.LEHE42:
	ldr	x1, [sp, 176]
	str	x0, [sp, 224]
	str	x1, [sp, 240]
.L1341:
	mov	x2, x21
	mov	x1, x22
	bl	memcpy
	ldr	x21, [sp, 176]
	ldr	x0, [sp, 224]
	b	.L1343
	.p2align 2,,3
.L1355:
	stp	x22, x21, [sp, 176]
	cbz	w0, .L1357
	ldr	w0, [x21, 8]
	add	w0, w0, 1
	str	w0, [x21, 8]
.L1358:
	ldr	q0, [x20, 256]
	umov	x1, v0.d[1]
	str	q0, [sp, 128]
	cbz	x1, .L1359
	ldr	x0, [x26, #:got_lo12:__libc_single_threaded]
	ldrb	w0, [x0]
	cbz	w0, .L1360
	ldr	w0, [x1, 8]
	add	w0, w0, 1
	str	w0, [x1, 8]
.L1359:
	mov	x0, 136
.LEHB43:
	bl	_Znwm
.LEHE43:
	adrp	x1, :got:_ZTVSt23_Sp_counted_ptr_inplaceIN8asiodnp311DNP3ChannelESaIS1_ELN9__gnu_cxx12_Lock_policyE2EE
	movi	v0.2s, 0x1
	mov	x22, x0
	mov	x20, x0
	ldr	x0, [x1, #:got_lo12:_ZTVSt23_Sp_counted_ptr_inplaceIN8asiodnp311DNP3ChannelESaIS1_ELN9__gnu_cxx12_Lock_policyE2EE]
	add	x4, sp, 128
	ldp	x2, x1, [sp, 104]
	str	d0, [x20, 8]
	add	x0, x0, 16
	str	x0, [x22], 16
	add	x3, sp, 176
	mov	x0, x22
.LEHB44:
	bl	_ZN8asiodnp311DNP3ChannelC1ERKN7openpal6LoggerERKSt10shared_ptrIN7asiopal8ExecutorEERKS5_INS_9IOHandlerEERKS5_INS6_16IResourceManagerEE
.LEHE44:
	ldr	x1, [x20, 32]
	cbz	x1, .L1362
	add	x0, x1, 8
	ldr	w0, [x0]
	cbz	w0, .L1362
	ldr	x0, [x26, #:got_lo12:__libc_single_threaded]
	ldrb	w0, [x0]
.L1365:
	ldr	x27, [sp, 136]
	cbz	x27, .L1372
	cbz	w0, .L1373
	ldr	w0, [x27, 8]
	sub	w1, w0, #1
	str	w1, [x27, 8]
.L1374:
	cmp	w0, 1
	beq	.L1375
.L1507:
	ldr	x0, [x26, #:got_lo12:__libc_single_threaded]
	ldrb	w0, [x0]
.L1372:
	ldr	x27, [sp, 184]
	cbz	x27, .L1356
	cbz	w0, .L1380
	ldr	w0, [x27, 8]
	sub	w1, w0, #1
	str	w1, [x27, 8]
.L1381:
	cmp	w0, 1
	beq	.L1382
.L1508:
	ldr	x0, [x26, #:got_lo12:__libc_single_threaded]
	ldrb	w0, [x0]
	b	.L1356
	.p2align 2,,3
.L1515:
	str	x27, [x22, 24]
.L1439:
	ldr	x0, [x26, #:got_lo12:__libc_single_threaded]
	ldrb	w0, [x0]
	cbz	w0, .L1333
	ldr	w0, [x22, 12]
	add	w0, w0, 1
	str	w0, [x22, 12]
	cbz	x2, .L1335
.L1334:
	ldr	w0, [x2, 12]
	sub	w1, w0, #1
	str	w1, [x2, 12]
.L1338:
	cmp	w0, 1
	beq	.L1527
.L1335:
	str	x22, [x22, 32]
	b	.L1331
	.p2align 2,,3
.L1316:
	add	x1, x1, 8
	mov	w0, 1
	str	x2, [sp, 120]
	bl	__aarch64_ldadd4_acq_rel
	ldr	x2, [sp, 120]
	ldrb	w0, [x2]
	b	.L1318
	.p2align 2,,3
.L1514:
	ldr	x1, [x22]
	mov	x0, x22
	ldr	x1, [x1, 16]
	blr	x1
	ldr	x0, [x26, #:got_lo12:__libc_single_threaded]
	ldrb	w0, [x0]
	cbz	w0, .L1324
	ldr	w0, [x22, 12]
	sub	w1, w0, #1
	str	w1, [x22, 12]
.L1325:
	cmp	w0, 1
	bne	.L1323
	ldr	x1, [x22]
	mov	x0, x22
	ldr	x1, [x1, 24]
	blr	x1
	b	.L1323
	.p2align 2,,3
.L1523:
	ldr	x1, [x21]
	mov	x0, x21
	ldr	x1, [x1, 16]
	blr	x1
	ldr	x0, [x26, #:got_lo12:__libc_single_threaded]
	ldrb	w0, [x0]
	cbz	w0, .L1411
	ldr	w0, [x21, 12]
	sub	w1, w0, #1
	str	w1, [x21, 12]
.L1412:
	cmp	w0, 1
	bne	.L1407
	ldr	x1, [x21]
	mov	x0, x21
	ldr	x1, [x1, 24]
	blr	x1
	b	.L1407
	.p2align 2,,3
.L1516:
	str	x27, [x22, 24]
	cbnz	x22, .L1439
.L1332:
	cbz	x2, .L1335
	ldr	x0, [x26, #:got_lo12:__libc_single_threaded]
	ldrb	w0, [x0]
	cbnz	w0, .L1334
	add	x1, x2, 12
	mov	w0, -1
	str	x2, [sp, 120]
	bl	__aarch64_ldadd4_acq_rel
	ldr	x2, [sp, 120]
	b	.L1338
	.p2align 2,,3
.L1362:
	ldr	x2, [x26, #:got_lo12:__libc_single_threaded]
	str	x22, [x20, 24]
	ldrb	w0, [x2]
	cbz	w0, .L1528
	ldr	w2, [x20, 12]
	mov	x27, x1
	add	w1, w2, 1
	str	w1, [x20, 12]
	cbz	x27, .L1367
.L1366:
	ldr	w0, [x27, 12]
	sub	w1, w0, #1
	str	w1, [x27, 12]
.L1370:
	cmp	w0, 1
	bne	.L1506
	ldr	x1, [x27]
	mov	x0, x27
	ldr	x1, [x1, 24]
	blr	x1
.L1506:
	ldr	x0, [x26, #:got_lo12:__libc_single_threaded]
	ldrb	w0, [x0]
.L1367:
	str	x20, [x20, 32]
	b	.L1365
	.p2align 2,,3
.L1525:
	ldr	x2, [sp, 120]
	ldrb	w0, [x2]
	cbnz	w0, .L1349
	add	x1, x27, 12
	mov	w0, -1
	bl	__aarch64_ldadd4_acq_rel
.L1353:
	cmp	w0, 1
	bne	.L1350
	ldr	x1, [x27]
	mov	x0, x27
	ldr	x1, [x1, 24]
	blr	x1
	str	x21, [x21, 40]
	b	.L1348
	.p2align 2,,3
.L1333:
	add	x1, x22, 12
	mov	w0, 1
	bl	__aarch64_ldadd4_acq_rel
	ldr	x2, [x22, 32]
	b	.L1332
	.p2align 2,,3
.L1424:
	add	x1, x21, 8
	mov	w0, -1
	bl	__aarch64_ldadd4_acq_rel
	b	.L1425
	.p2align 2,,3
.L1527:
	ldr	x1, [x2]
	mov	x0, x2
	ldr	x1, [x1, 24]
	blr	x1
	str	x22, [x22, 32]
	b	.L1331
	.p2align 2,,3
.L1360:
	add	x1, x1, 8
	mov	w0, 1
	bl	__aarch64_ldadd4_acq_rel
	b	.L1359
	.p2align 2,,3
.L1324:
	add	x1, x22, 12
	mov	w0, -1
	bl	__aarch64_ldadd4_acq_rel
	b	.L1325
	.p2align 2,,3
.L1521:
	ldr	x1, [x21]
	mov	x0, x21
	ldr	x1, [x1, 16]
	blr	x1
	ldr	x0, [x26, #:got_lo12:__libc_single_threaded]
	ldrb	w0, [x0]
	cbz	w0, .L1397
	ldr	w0, [x21, 12]
	sub	w1, w0, #1
	str	w1, [x21, 12]
.L1398:
	cmp	w0, 1
	bne	.L1393
	ldr	x1, [x21]
	mov	x0, x21
	ldr	x1, [x1, 24]
	blr	x1
	b	.L1393
	.p2align 2,,3
.L1520:
	ldr	x1, [x21]
	mov	x0, x21
	ldr	x1, [x1, 16]
	blr	x1
	ldr	x0, [x26, #:got_lo12:__libc_single_threaded]
	ldrb	w0, [x0]
	cbz	w0, .L1389
	ldr	w0, [x21, 12]
	sub	w1, w0, #1
	str	w1, [x21, 12]
.L1390:
	cmp	w0, 1
	bne	.L1388
	ldr	x1, [x21]
	mov	x0, x21
	ldr	x1, [x1, 24]
	blr	x1
	b	.L1388
	.p2align 2,,3
.L1522:
	ldr	x1, [x21]
	mov	x0, x21
	ldr	x1, [x1, 16]
	blr	x1
	ldr	x0, [x26, #:got_lo12:__libc_single_threaded]
	ldrb	w0, [x0]
	cbz	w0, .L1404
	ldr	w0, [x21, 12]
	sub	w1, w0, #1
	str	w1, [x21, 12]
.L1405:
	cmp	w0, 1
	bne	.L1400
	ldr	x1, [x21]
	mov	x0, x21
	ldr	x1, [x1, 24]
	blr	x1
	b	.L1400
	.p2align 2,,3
.L1519:
	mov	x1, x23
	mov	w0, -1
	bl	__aarch64_ldadd4_acq_rel
	b	.L1386
	.p2align 2,,3
.L1401:
	add	x1, x21, 8
	mov	w0, -1
	bl	__aarch64_ldadd4_acq_rel
	b	.L1402
	.p2align 2,,3
.L1394:
	add	x1, x21, 8
	mov	w0, -1
	bl	__aarch64_ldadd4_acq_rel
	b	.L1395
	.p2align 2,,3
.L1408:
	add	x1, x21, 8
	mov	w0, -1
	bl	__aarch64_ldadd4_acq_rel
	b	.L1409
	.p2align 2,,3
.L1421:
	add	x1, x20, 8
	mov	w0, 1
	bl	__aarch64_ldadd4_acq_rel
	b	.L1420
	.p2align 2,,3
.L1382:
	ldr	x1, [x27]
	mov	x0, x27
	ldr	x1, [x1, 16]
	blr	x1
	ldr	x0, [x26, #:got_lo12:__libc_single_threaded]
	ldrb	w0, [x0]
	cbz	w0, .L1383
	ldr	w0, [x27, 12]
	sub	w1, w0, #1
	str	w1, [x27, 12]
.L1384:
	cmp	w0, 1
	bne	.L1508
	ldr	x1, [x27]
	mov	x0, x27
	ldr	x1, [x1, 24]
	blr	x1
	b	.L1508
	.p2align 2,,3
.L1375:
	ldr	x1, [x27]
	mov	x0, x27
	ldr	x1, [x1, 16]
	blr	x1
	ldr	x0, [x26, #:got_lo12:__libc_single_threaded]
	ldrb	w0, [x0]
	cbz	w0, .L1376
	ldr	w0, [x27, 12]
	sub	w1, w0, #1
	str	w1, [x27, 12]
.L1377:
	cmp	w0, 1
	bne	.L1507
	ldr	x1, [x27]
	mov	x0, x27
	ldr	x1, [x1, 24]
	blr	x1
	b	.L1507
	.p2align 2,,3
.L1380:
	add	x1, x27, 8
	mov	w0, -1
	bl	__aarch64_ldadd4_acq_rel
	b	.L1381
	.p2align 2,,3
.L1373:
	add	x1, x27, 8
	mov	w0, -1
	bl	__aarch64_ldadd4_acq_rel
	b	.L1374
	.p2align 2,,3
.L1357:
	mov	x1, x23
	mov	w0, 1
	bl	__aarch64_ldadd4_acq_rel
	b	.L1358
	.p2align 2,,3
.L1528:
	add	x1, x20, 12
	mov	w0, 1
	str	x2, [sp, 104]
	bl	__aarch64_ldadd4_acq_rel
	ldr	x27, [x20, 32]
	ldr	x2, [sp, 104]
	ldrb	w0, [x2]
	cbz	x27, .L1367
	cbnz	w0, .L1366
	add	x1, x27, 12
	mov	w0, -1
	bl	__aarch64_ldadd4_acq_rel
	b	.L1370
	.p2align 2,,3
.L1389:
	add	x1, x21, 12
	mov	w0, -1
	bl	__aarch64_ldadd4_acq_rel
	b	.L1390
	.p2align 2,,3
.L1397:
	add	x1, x21, 12
	mov	w0, -1
	bl	__aarch64_ldadd4_acq_rel
	b	.L1398
	.p2align 2,,3
.L1411:
	add	x1, x21, 12
	mov	w0, -1
	bl	__aarch64_ldadd4_acq_rel
	b	.L1412
	.p2align 2,,3
.L1404:
	add	x1, x21, 12
	mov	w0, -1
	bl	__aarch64_ldadd4_acq_rel
	b	.L1405
.L1427:
	add	x1, x21, 12
	mov	w0, -1
	bl	__aarch64_ldadd4_acq_rel
	b	.L1428
.L1376:
	add	x1, x27, 12
	mov	w0, -1
	bl	__aarch64_ldadd4_acq_rel
	b	.L1377
.L1383:
	add	x1, x27, 12
	mov	w0, -1
	bl	__aarch64_ldadd4_acq_rel
	b	.L1384
.L1509:
.LEHB45:
	bl	_ZSt20__throw_system_errori
.LEHE45:
.L1510:
	bl	__stack_chk_fail
.L1517:
	adrp	x0, .LC5
	add	x0, x0, :lo12:.LC5
.LEHB46:
	bl	_ZSt19__throw_logic_errorPKc
.LEHE46:
.L1526:
	ldr	w0, [x22, 8]
	sub	w1, w0, #1
	b	.L1319
.L1511:
	adrp	x0, .LC5
	add	x0, x0, :lo12:.LC5
.LEHB47:
	bl	_ZSt19__throw_logic_errorPKc
.LEHE47:
.L1445:
	mov	x19, x0
.L1416:
	ldr	x0, [sp, 168]
	cbz	x0, .L1330
	bl	_ZNSt16_Sp_counted_baseILN9__gnu_cxx12_Lock_policyE2EE10_M_releaseEv
.L1330:
	ldr	x0, [sp, 112]
	bl	_ZN7openpal6LoggerD1Ev
.L1315:
	mov	x0, x25
	bl	pthread_mutex_unlock
	mov	x0, x19
.LEHB48:
	bl	_Unwind_Resume
.LEHE48:
.L1442:
	mov	x19, x0
	b	.L1315
.L1446:
	mov	x19, x0
.L1364:
	ldr	x0, [sp, 136]
	cbz	x0, .L1417
	bl	_ZNSt16_Sp_counted_baseILN9__gnu_cxx12_Lock_policyE2EE10_M_releaseEv
.L1417:
	ldr	x0, [sp, 184]
	cbz	x0, .L1418
	bl	_ZNSt16_Sp_counted_baseILN9__gnu_cxx12_Lock_policyE2EE10_M_releaseEv
.L1418:
	mov	x0, x21
	bl	_ZNSt16_Sp_counted_baseILN9__gnu_cxx12_Lock_policyE2EE10_M_releaseEv
	b	.L1416
.L1447:
	mov	x19, x0
.L1347:
	ldr	x0, [sp, 224]
	cmp	x0, x28
	beq	.L1416
	ldr	x1, [sp, 240]
	add	x1, x1, 1
	bl	_ZdlPvm
	b	.L1416
.L1449:
	mov	x19, x0
	mov	x1, 72
	mov	x0, x22
	bl	_ZdlPvm
	b	.L1330
.L1444:
	mov	x19, x0
	b	.L1330
.L1448:
	mov	x19, x0
	mov	x1, 56
	mov	x0, x22
	bl	_ZdlPvm
	b	.L1315
.L1450:
	mov	x19, x0
	mov	x1, 888
	mov	x0, x21
	bl	_ZdlPvm
	b	.L1347
.L1451:
	mov	x19, x0
	mov	x1, 136
	mov	x0, x20
	bl	_ZdlPvm
	b	.L1364
.L1443:
	ldr	x1, [sp, 200]
	mov	x19, x0
	cbz	x1, .L1430
	mov	x0, x1
	bl	_ZNSt16_Sp_counted_baseILN9__gnu_cxx12_Lock_policyE2EE10_M_releaseEv
.L1430:
	cbz	x20, .L1315
	mov	x0, x20
	bl	_ZNSt16_Sp_counted_baseILN9__gnu_cxx12_Lock_policyE2EE10_M_releaseEv
	b	.L1315
	.cfi_endproc
.LFE8260:
	.section	.gcc_except_table
.LLSDA8260:
	.byte	0xff
	.byte	0xff
	.byte	0x1
	.uleb128 .LLSDACSE8260-.LLSDACSB8260
.LLSDACSB8260:
	.uleb128 .LEHB35-.LFB8260
	.uleb128 .LEHE35-.LEHB35
	.uleb128 .L1442-.LFB8260
	.uleb128 0
	.uleb128 .LEHB36-.LFB8260
	.uleb128 .LEHE36-.LEHB36
	.uleb128 .L1444-.LFB8260
	.uleb128 0
	.uleb128 .LEHB37-.LFB8260
	.uleb128 .LEHE37-.LEHB37
	.uleb128 .L1449-.LFB8260
	.uleb128 0
	.uleb128 .LEHB38-.LFB8260
	.uleb128 .LEHE38-.LEHB38
	.uleb128 .L1447-.LFB8260
	.uleb128 0
	.uleb128 .LEHB39-.LFB8260
	.uleb128 .LEHE39-.LEHB39
	.uleb128 .L1450-.LFB8260
	.uleb128 0
	.uleb128 .LEHB40-.LFB8260
	.uleb128 .LEHE40-.LEHB40
	.uleb128 .L1443-.LFB8260
	.uleb128 0
	.uleb128 .LEHB41-.LFB8260
	.uleb128 .LEHE41-.LEHB41
	.uleb128 .L1448-.LFB8260
	.uleb128 0
	.uleb128 .LEHB42-.LFB8260
	.uleb128 .LEHE42-.LEHB42
	.uleb128 .L1445-.LFB8260
	.uleb128 0
	.uleb128 .LEHB43-.LFB8260
	.uleb128 .LEHE43-.LEHB43
	.uleb128 .L1446-.LFB8260
	.uleb128 0
	.uleb128 .LEHB44-.LFB8260
	.uleb128 .LEHE44-.LEHB44
	.uleb128 .L1451-.LFB8260
	.uleb128 0
	.uleb128 .LEHB45-.LFB8260
	.uleb128 .LEHE45-.LEHB45
	.uleb128 0
	.uleb128 0
	.uleb128 .LEHB46-.LFB8260
	.uleb128 .LEHE46-.LEHB46
	.uleb128 .L1445-.LFB8260
	.uleb128 0
	.uleb128 .LEHB47-.LFB8260
	.uleb128 .LEHE47-.LEHB47
	.uleb128 .L1448-.LFB8260
	.uleb128 0
	.uleb128 .LEHB48-.LFB8260
	.uleb128 .LEHE48-.LEHB48
	.uleb128 0
	.uleb128 0
.LLSDACSE8260:
	.text
	.size	_ZN8asiodnp315DNP3ManagerImpl12AddTCPServerERKNSt7__cxx1112basic_stringIcSt11char_traitsIcESaIcEEEjRKN7asiopal12ChannelRetryES8_tSt10shared_ptrINS_16IChannelListenerEE, .-_ZN8asiodnp315DNP3ManagerImpl12AddTCPServerERKNSt7__cxx1112basic_stringIcSt11char_traitsIcESaIcEEEjRKN7asiopal12ChannelRetryES8_tSt10shared_ptrINS_16IChannelListenerEE
	.align	2
	.p2align 4,,11
	.global	_ZN8asiodnp315DNP3ManagerImpl9AddSerialERKNSt7__cxx1112basic_stringIcSt11char_traitsIcESaIcEEEjRKN7asiopal12ChannelRetryENS9_14SerialSettingsESt10shared_ptrINS_16IChannelListenerEE
	.type	_ZN8asiodnp315DNP3ManagerImpl9AddSerialERKNSt7__cxx1112basic_stringIcSt11char_traitsIcESaIcEEEjRKN7asiopal12ChannelRetryENS9_14SerialSettingsESt10shared_ptrINS_16IChannelListenerEE, %function
_ZN8asiodnp315DNP3ManagerImpl9AddSerialERKNSt7__cxx1112basic_stringIcSt11char_traitsIcESaIcEEEjRKN7asiopal12ChannelRetryENS9_14SerialSettingsESt10shared_ptrINS_16IChannelListenerEE:
.LFB8262:
	.cfi_startproc
	.cfi_personality 0x9b,DW.ref.__gxx_personality_v0
	.cfi_lsda 0x1b,.LLSDA8262
	stp	x29, x30, [sp, -224]!
	.cfi_def_cfa_offset 224
	.cfi_offset 29, -224
	.cfi_offset 30, -216
	adrp	x6, :got:__stack_chk_guard
	mov	x29, sp
	ldr	x6, [x6, #:got_lo12:__stack_chk_guard]
	stp	x19, x20, [sp, 16]
	.cfi_offset 19, -208
	.cfi_offset 20, -200
	mov	x20, x0
	stp	x21, x22, [sp, 32]
	mov	x19, x8
	.cfi_offset 21, -192
	.cfi_offset 22, -184
	mov	x22, x4
	stp	x23, x24, [sp, 48]
	.cfi_offset 23, -176
	.cfi_offset 24, -168
	mov	x23, x5
	stp	x25, x26, [sp, 64]
	.cfi_offset 25, -160
	.cfi_offset 26, -152
	mov	x26, x1
	str	w2, [sp, 104]
	str	x3, [sp, 112]
	ldr	x24, [x0, 256]
	ldr	x1, [x6]
	str	x1, [sp, 216]
	mov	x1, 0
	add	x25, x24, 8
	mov	x0, x25
	bl	pthread_mutex_lock
	cbnz	w0, .L1721
	ldrb	w0, [x24, 56]
	cbz	w0, .L1531
	stp	xzr, xzr, [x19]
.L1532:
	mov	x0, x25
	bl	pthread_mutex_unlock
	adrp	x0, :got:__stack_chk_guard
	ldr	x0, [x0, #:got_lo12:__stack_chk_guard]
	ldr	x2, [sp, 216]
	ldr	x1, [x0]
	subs	x2, x2, x1
	mov	x1, 0
	bne	.L1722
	mov	x0, x19
	ldp	x19, x20, [sp, 16]
	ldp	x21, x22, [sp, 32]
	ldp	x23, x24, [sp, 48]
	ldp	x25, x26, [sp, 64]
	ldp	x29, x30, [sp], 224
	.cfi_remember_state
	.cfi_restore 30
	.cfi_restore 29
	.cfi_restore 25
	.cfi_restore 26
	.cfi_restore 23
	.cfi_restore 24
	.cfi_restore 21
	.cfi_restore 22
	.cfi_restore 19
	.cfi_restore 20
	.cfi_def_cfa_offset 0
	ret
	.p2align 2,,3
.L1531:
	.cfi_restore_state
	mov	x0, 56
	stp	x27, x28, [sp, 80]
	.cfi_offset 28, -136
	.cfi_offset 27, -144
.LEHB49:
	bl	_Znwm
.LEHE49:
	movi	v0.2s, 0x1
	adrp	x1, :got:_ZTVSt23_Sp_counted_ptr_inplaceIN7openpal6Logger8SettingsESaIS2_ELN9__gnu_cxx12_Lock_policyE2EE
	mov	x28, x0
	mov	x21, x0
	ldr	x1, [x1, #:got_lo12:_ZTVSt23_Sp_counted_ptr_inplaceIN7openpal6Logger8SettingsESaIS2_ELN9__gnu_cxx12_Lock_policyE2EE]
	ldp	x2, x26, [x26]
	str	d0, [x0, 8]
	add	x1, x1, 16
	str	x1, [x28], 16
	str	x2, [sp, 120]
	add	x0, x28, 16
	str	x0, [x21, 16]
	cmn	x2, x26
	ccmp	x2, 0, 0, ne
	beq	.L1723
	str	x26, [sp, 176]
	cmp	x26, 15
	bhi	.L1724
	cmp	x26, 1
	bne	.L1536
	ldrb	w1, [x2]
	add	x27, sp, 176
	strb	w1, [x21, 32]
.L1537:
	str	x26, [x28, 8]
	strb	wzr, [x0, x26]
	ldr	w0, [sp, 104]
	ldr	q0, [x20]
	str	w0, [x28, 32]
	umov	x1, v0.d[1]
	str	q0, [sp, 176]
	cbz	x1, .L1725
	adrp	x26, :got:__libc_single_threaded
	ldr	x2, [x26, #:got_lo12:__libc_single_threaded]
	ldrb	w0, [x2]
	cbz	w0, .L1542
	ldr	w0, [x1, 8]
	add	w0, w0, 1
	str	w0, [x1, 8]
	stp	x28, x21, [sp, 192]
.L1543:
	ldr	w1, [x21, 8]
	add	w0, w1, 1
.L1545:
	str	w1, [x21, 8]
.L1547:
	cmp	w0, 1
	beq	.L1726
.L1549:
	add	x0, x20, 32
	str	x0, [sp, 104]
	mov	x0, 72
	str	xzr, [sp, 144]
.LEHB50:
	bl	_Znwm
.LEHE50:
	adrp	x2, :got:_ZTVSt23_Sp_counted_ptr_inplaceIN7asiopal8ExecutorESaIS1_ELN9__gnu_cxx12_Lock_policyE2EE
	movi	v0.2s, 0x1
	mov	x28, x0
	mov	x21, x0
	ldr	x2, [x2, #:got_lo12:_ZTVSt23_Sp_counted_ptr_inplaceIN7asiopal8ExecutorESaIS1_ELN9__gnu_cxx12_Lock_policyE2EE]
	add	x1, x20, 32
	str	d0, [x0, 8]
	add	x2, x2, 16
	str	x2, [x28], 16
	mov	x0, x28
.LEHB51:
	bl	_ZN7asiopal8ExecutorC1ERKSt10shared_ptrINS_2IOEE
.LEHE51:
	ldr	x2, [x21, 32]
	stp	x28, x21, [sp, 144]
	cbz	x2, .L1727
	add	x0, x2, 8
	ldr	w0, [x0]
	cbz	w0, .L1728
.L1557:
	mov	x0, 928
.LEHB52:
	bl	_Znwm
.LEHE52:
	adrp	x1, :got:_ZTVSt23_Sp_counted_ptr_inplaceIN8asiodnp315SerialIOHandlerESaIS1_ELN9__gnu_cxx12_Lock_policyE2EE
	movi	v0.2s, 0x1
	mov	x21, x0
	mov	x28, x0
	ldr	x0, [x1, #:got_lo12:_ZTVSt23_Sp_counted_ptr_inplaceIN8asiodnp315SerialIOHandlerESaIS1_ELN9__gnu_cxx12_Lock_policyE2EE]
	add	x3, sp, 144
	ldr	x4, [sp, 112]
	str	d0, [x21, 8]
	add	x0, x0, 16
	str	x0, [x28], 16
	mov	x5, x22
	mov	x2, x23
	add	x22, x21, 8
	mov	x1, x27
	mov	x0, x28
	str	x3, [sp, 104]
.LEHB53:
	bl	_ZN8asiodnp315SerialIOHandlerC1ERKN7openpal6LoggerERKSt10shared_ptrINS_16IChannelListenerEERKS5_IN7asiopal8ExecutorEERKNSA_12ChannelRetryERKNSA_14SerialSettingsE
.LEHE53:
	ldr	x0, [x21, 40]
	cbz	x0, .L1566
	add	x1, x0, 8
	ldr	w1, [x1]
	cbnz	w1, .L1729
.L1566:
	ldr	x2, [x26, #:got_lo12:__libc_single_threaded]
	str	x28, [x21, 32]
	ldrb	w1, [x2]
	cbz	w1, .L1730
	ldr	w2, [x21, 12]
	mov	x23, x0
	add	w0, w2, 1
	str	w0, [x21, 12]
	cbz	x23, .L1571
.L1570:
	ldr	w0, [x23, 12]
	sub	w1, w0, #1
	str	w1, [x23, 12]
	b	.L1574
	.p2align 2,,3
.L1724:
	add	x27, sp, 176
	mov	x0, x28
	mov	x1, x27
	mov	x2, 0
.LEHB54:
	bl	_ZNSt7__cxx1112basic_stringIcSt11char_traitsIcESaIcEE9_M_createERmm
.LEHE54:
	str	x0, [x21, 16]
	ldr	x1, [sp, 176]
	str	x1, [x28, 16]
.L1535:
	ldr	x1, [sp, 120]
	mov	x2, x26
	bl	memcpy
	ldr	x0, [x21, 16]
	ldr	x26, [sp, 176]
	b	.L1537
	.p2align 2,,3
.L1730:
	add	x1, x21, 12
	mov	w0, 1
	str	x2, [sp, 112]
	bl	__aarch64_ldadd4_acq_rel
	ldr	x23, [x21, 40]
	ldr	x2, [sp, 112]
	cbz	x23, .L1731
	ldrb	w0, [x2]
	cbnz	w0, .L1570
	add	x1, x23, 12
	mov	w0, -1
	bl	__aarch64_ldadd4_acq_rel
.L1574:
	cmp	w0, 1
	bne	.L1716
	ldr	x1, [x23]
	mov	x0, x23
	ldr	x1, [x1, 24]
	blr	x1
.L1716:
	ldr	x0, [x26, #:got_lo12:__libc_single_threaded]
	ldrb	w1, [x0]
.L1571:
	str	x21, [x21, 40]
.L1576:
	stp	x28, x21, [sp, 160]
	cbz	w1, .L1732
	ldr	w0, [x21, 8]
	add	w0, w0, 1
	str	w0, [x21, 8]
.L1577:
	ldr	q0, [x20, 256]
	umov	x1, v0.d[1]
	str	q0, [sp, 128]
	cbz	x1, .L1578
	ldr	x0, [x26, #:got_lo12:__libc_single_threaded]
	ldrb	w0, [x0]
	cbz	w0, .L1579
	ldr	w0, [x1, 8]
	add	w0, w0, 1
	str	w0, [x1, 8]
.L1578:
	mov	x0, 136
.LEHB55:
	bl	_Znwm
.LEHE55:
	adrp	x1, :got:_ZTVSt23_Sp_counted_ptr_inplaceIN8asiodnp311DNP3ChannelESaIS1_ELN9__gnu_cxx12_Lock_policyE2EE
	movi	v0.2s, 0x1
	mov	x20, x0
	mov	x23, x0
	ldr	x0, [x1, #:got_lo12:_ZTVSt23_Sp_counted_ptr_inplaceIN8asiodnp311DNP3ChannelESaIS1_ELN9__gnu_cxx12_Lock_policyE2EE]
	add	x28, x20, 8
	ldr	x2, [sp, 104]
	str	d0, [x20, 8]
	add	x0, x0, 16
	str	x0, [x23], 16
	add	x4, sp, 128
	add	x3, sp, 160
	mov	x1, x27
	mov	x0, x23
.LEHB56:
	bl	_ZN8asiodnp311DNP3ChannelC1ERKN7openpal6LoggerERKSt10shared_ptrIN7asiopal8ExecutorEERKS5_INS_9IOHandlerEERKS5_INS6_16IResourceManagerEE
.LEHE56:
	ldr	x0, [x20, 32]
	cbz	x0, .L1581
	add	x1, x0, 8
	ldr	w1, [x1]
	cbnz	w1, .L1733
.L1581:
	ldr	x3, [x26, #:got_lo12:__libc_single_threaded]
	str	x23, [x20, 24]
	ldrb	w1, [x3]
	cbz	w1, .L1734
	ldr	w3, [x20, 12]
	mov	x2, x0
	add	w0, w3, 1
	str	w0, [x20, 12]
	cbz	x2, .L1586
.L1585:
	ldr	w0, [x2, 12]
	sub	w1, w0, #1
	str	w1, [x2, 12]
.L1589:
	cmp	w0, 1
	bne	.L1717
	ldr	x1, [x2]
	mov	x0, x2
	ldr	x1, [x1, 24]
	blr	x1
.L1717:
	ldr	x0, [x26, #:got_lo12:__libc_single_threaded]
	ldrb	w1, [x0]
.L1586:
	str	x20, [x20, 32]
.L1584:
	ldr	x2, [sp, 136]
	cbz	x2, .L1591
	cbz	w1, .L1592
	ldr	w0, [x2, 8]
	sub	w1, w0, #1
	str	w1, [x2, 8]
.L1593:
	cmp	w0, 1
	beq	.L1594
.L1718:
	ldr	x0, [x26, #:got_lo12:__libc_single_threaded]
	ldrb	w1, [x0]
.L1591:
	ldr	x2, [sp, 168]
	cbz	x2, .L1598
	cbz	w1, .L1599
	ldr	w0, [x2, 8]
	sub	w1, w0, #1
	str	w1, [x2, 8]
.L1600:
	cmp	w0, 1
	beq	.L1601
.L1720:
	ldr	x0, [x26, #:got_lo12:__libc_single_threaded]
	ldrb	w1, [x0]
.L1598:
	cbz	w1, .L1735
	ldr	w0, [x21, 8]
	sub	w1, w0, #1
	str	w1, [x21, 8]
.L1605:
	cmp	w0, 1
	beq	.L1736
.L1607:
	ldr	x0, [x26, #:got_lo12:__libc_single_threaded]
	ldr	x21, [sp, 152]
	ldrb	w0, [x0]
	cbz	x21, .L1612
	cbz	w0, .L1613
	ldr	w0, [x21, 8]
	sub	w1, w0, #1
	str	w1, [x21, 8]
.L1614:
	cmp	w0, 1
	beq	.L1737
.L1612:
	ldr	x0, [x26, #:got_lo12:__libc_single_threaded]
	ldr	x21, [sp, 200]
	ldrb	w0, [x0]
	cbz	x21, .L1619
	cbz	w0, .L1620
	ldr	w0, [x21, 8]
	sub	w1, w0, #1
	str	w1, [x21, 8]
.L1621:
	cmp	w0, 1
	beq	.L1738
.L1619:
	ldr	x0, [x26, #:got_lo12:__libc_single_threaded]
	ldr	x21, [sp, 184]
	ldrb	w0, [x0]
	cbz	x21, .L1630
	cbz	w0, .L1626
	ldr	w0, [x21, 8]
	sub	w1, w0, #1
	str	w1, [x21, 8]
.L1627:
	cmp	w0, 1
	beq	.L1739
.L1630:
	ldr	x0, [x26, #:got_lo12:__libc_single_threaded]
	stp	x23, x20, [sp, 176]
	ldrb	w0, [x0]
	cbz	w0, .L1740
	ldr	w0, [x20, 8]
	add	w0, w0, 1
	str	w0, [x20, 8]
.L1634:
	mov	x1, x27
	add	x0, x24, 64
.LEHB57:
	bl	_ZNSt8_Rb_treeISt10shared_ptrIN7asiopal9IResourceEES3_St9_IdentityIS3_ESt4lessIS3_ESaIS3_EE16_M_insert_uniqueIS3_EESt4pairISt17_Rb_tree_iteratorIS3_EbEOT_
.LEHE57:
	ldr	x21, [sp, 184]
	cbz	x21, .L1636
	ldr	x0, [x26, #:got_lo12:__libc_single_threaded]
	ldrb	w0, [x0]
	cbz	w0, .L1637
	ldr	w0, [x21, 8]
	sub	w1, w0, #1
	str	w1, [x21, 8]
.L1638:
	cmp	w0, 1
	bne	.L1636
	ldr	x1, [x21]
	mov	x0, x21
	ldr	x1, [x1, 16]
	blr	x1
	ldr	x26, [x26, #:got_lo12:__libc_single_threaded]
	ldrb	w0, [x26]
	cbz	w0, .L1640
	ldr	w0, [x21, 12]
	sub	w1, w0, #1
	str	w1, [x21, 12]
.L1641:
	cmp	w0, 1
	bne	.L1636
	ldr	x1, [x21]
	mov	x0, x21
	ldr	x1, [x1, 24]
	blr	x1
	.p2align 3,,7
.L1636:
	ldp	x27, x28, [sp, 80]
	.cfi_remember_state
	.cfi_restore 28
	.cfi_restore 27
	stp	x23, x20, [x19]
	b	.L1532
	.p2align 2,,3
.L1536:
	.cfi_restore_state
	add	x27, sp, 176
	cbz	x26, .L1537
	b	.L1535
	.p2align 2,,3
.L1725:
	adrp	x26, :got:__libc_single_threaded
	ldr	x0, [x26, #:got_lo12:__libc_single_threaded]
	ldrb	w0, [x0]
.L1544:
	stp	x28, x21, [sp, 192]
	cbnz	w0, .L1543
	add	x1, x21, 8
	mov	w0, 1
	bl	__aarch64_ldadd4_acq_rel
	ldr	x0, [x26, #:got_lo12:__libc_single_threaded]
	ldrb	w0, [x0]
	cbnz	w0, .L1741
	add	x1, x21, 8
	mov	w0, -1
	bl	__aarch64_ldadd4_acq_rel
	b	.L1547
	.p2align 2,,3
.L1727:
	str	x28, [x21, 24]
.L1655:
	ldr	x0, [x26, #:got_lo12:__libc_single_threaded]
	ldrb	w0, [x0]
	cbz	w0, .L1559
	ldr	w0, [x21, 12]
	add	w0, w0, 1
	str	w0, [x21, 12]
	cbz	x2, .L1561
.L1560:
	ldr	w0, [x2, 12]
	sub	w1, w0, #1
	str	w1, [x2, 12]
.L1564:
	cmp	w0, 1
	beq	.L1742
.L1561:
	str	x21, [x21, 32]
	b	.L1557
	.p2align 2,,3
.L1542:
	add	x1, x1, 8
	mov	w0, 1
	str	x2, [sp, 104]
	bl	__aarch64_ldadd4_acq_rel
	ldr	x2, [sp, 104]
	ldrb	w0, [x2]
	b	.L1544
	.p2align 2,,3
.L1732:
	mov	x1, x22
	mov	w0, 1
	bl	__aarch64_ldadd4_acq_rel
	b	.L1577
	.p2align 2,,3
.L1579:
	add	x1, x1, 8
	mov	w0, 1
	bl	__aarch64_ldadd4_acq_rel
	b	.L1578
	.p2align 2,,3
.L1726:
	ldr	x1, [x21]
	mov	x0, x21
	ldr	x1, [x1, 16]
	blr	x1
	ldr	x0, [x26, #:got_lo12:__libc_single_threaded]
	ldrb	w0, [x0]
	cbz	w0, .L1550
	ldr	w0, [x21, 12]
	sub	w1, w0, #1
	str	w1, [x21, 12]
.L1551:
	cmp	w0, 1
	bne	.L1549
	ldr	x1, [x21]
	mov	x0, x21
	ldr	x1, [x1, 24]
	blr	x1
	b	.L1549
	.p2align 2,,3
.L1728:
	str	x28, [x21, 24]
	cbnz	x21, .L1655
.L1558:
	cbz	x2, .L1561
	ldr	x0, [x26, #:got_lo12:__libc_single_threaded]
	ldrb	w0, [x0]
	cbnz	w0, .L1560
	add	x1, x2, 12
	mov	w0, -1
	str	x2, [sp, 104]
	bl	__aarch64_ldadd4_acq_rel
	ldr	x2, [sp, 104]
	b	.L1564
	.p2align 2,,3
.L1729:
	ldr	x0, [x26, #:got_lo12:__libc_single_threaded]
	ldrb	w1, [x0]
	b	.L1576
	.p2align 2,,3
.L1733:
	ldr	x0, [x26, #:got_lo12:__libc_single_threaded]
	ldrb	w1, [x0]
	b	.L1584
	.p2align 2,,3
.L1559:
	add	x1, x21, 12
	mov	w0, 1
	bl	__aarch64_ldadd4_acq_rel
	ldr	x2, [x21, 32]
	b	.L1558
	.p2align 2,,3
.L1731:
	ldrb	w1, [x2]
	b	.L1571
	.p2align 2,,3
.L1637:
	add	x1, x21, 8
	mov	w0, -1
	bl	__aarch64_ldadd4_acq_rel
	b	.L1638
	.p2align 2,,3
.L1742:
	ldr	x1, [x2]
	mov	x0, x2
	ldr	x1, [x1, 24]
	blr	x1
	str	x21, [x21, 32]
	b	.L1557
	.p2align 2,,3
.L1550:
	add	x1, x21, 12
	mov	w0, -1
	bl	__aarch64_ldadd4_acq_rel
	b	.L1551
	.p2align 2,,3
.L1734:
	add	x1, x20, 12
	mov	w0, 1
	str	x3, [sp, 104]
	bl	__aarch64_ldadd4_acq_rel
	ldr	x2, [x20, 32]
	ldr	x3, [sp, 104]
	cbz	x2, .L1743
	ldrb	w0, [x3]
	cbnz	w0, .L1585
	add	x1, x2, 12
	mov	w0, -1
	str	x2, [sp, 104]
	bl	__aarch64_ldadd4_acq_rel
	ldr	x2, [sp, 104]
	b	.L1589
	.p2align 2,,3
.L1738:
	ldr	x1, [x21]
	mov	x0, x21
	ldr	x1, [x1, 16]
	blr	x1
	ldr	x0, [x26, #:got_lo12:__libc_single_threaded]
	ldrb	w0, [x0]
	cbz	w0, .L1623
	ldr	w0, [x21, 12]
	sub	w1, w0, #1
	str	w1, [x21, 12]
.L1624:
	cmp	w0, 1
	bne	.L1619
	ldr	x1, [x21]
	mov	x0, x21
	ldr	x1, [x1, 24]
	blr	x1
	b	.L1619
	.p2align 2,,3
.L1736:
	ldr	x1, [x21]
	mov	x0, x21
	ldr	x1, [x1, 16]
	blr	x1
	ldr	x0, [x26, #:got_lo12:__libc_single_threaded]
	ldrb	w0, [x0]
	cbz	w0, .L1608
	ldr	w0, [x21, 12]
	sub	w1, w0, #1
	str	w1, [x21, 12]
.L1609:
	cmp	w0, 1
	bne	.L1607
	ldr	x1, [x21]
	mov	x0, x21
	ldr	x1, [x1, 24]
	blr	x1
	b	.L1607
	.p2align 2,,3
.L1737:
	ldr	x1, [x21]
	mov	x0, x21
	ldr	x1, [x1, 16]
	blr	x1
	ldr	x0, [x26, #:got_lo12:__libc_single_threaded]
	ldrb	w0, [x0]
	cbz	w0, .L1616
	ldr	w0, [x21, 12]
	sub	w1, w0, #1
	str	w1, [x21, 12]
.L1617:
	cmp	w0, 1
	bne	.L1612
	ldr	x1, [x21]
	mov	x0, x21
	ldr	x1, [x1, 24]
	blr	x1
	b	.L1612
	.p2align 2,,3
.L1601:
	ldr	x1, [x2]
	str	x2, [sp, 104]
	mov	x0, x2
	ldr	x1, [x1, 16]
	blr	x1
	ldr	x0, [x26, #:got_lo12:__libc_single_threaded]
	ldr	x2, [sp, 104]
	ldrb	w0, [x0]
	cbz	w0, .L1602
	ldr	w0, [x2, 12]
	sub	w1, w0, #1
	str	w1, [x2, 12]
.L1603:
	cmp	w0, 1
	bne	.L1720
	ldr	x1, [x2]
	mov	x0, x2
	ldr	x1, [x1, 24]
	blr	x1
	b	.L1720
	.p2align 2,,3
.L1594:
	ldr	x1, [x2]
	str	x2, [sp, 104]
	mov	x0, x2
	ldr	x1, [x1, 16]
	blr	x1
	ldr	x0, [x26, #:got_lo12:__libc_single_threaded]
	ldr	x2, [sp, 104]
	ldrb	w0, [x0]
	cbz	w0, .L1595
	ldr	w0, [x2, 12]
	sub	w1, w0, #1
	str	w1, [x2, 12]
.L1596:
	cmp	w0, 1
	bne	.L1718
	ldr	x1, [x2]
	mov	x0, x2
	ldr	x1, [x1, 24]
	blr	x1
	b	.L1718
	.p2align 2,,3
.L1739:
	ldr	x1, [x21]
	mov	x0, x21
	ldr	x1, [x1, 16]
	blr	x1
	ldr	x0, [x26, #:got_lo12:__libc_single_threaded]
	ldrb	w0, [x0]
	cbz	w0, .L1628
	ldr	w0, [x21, 12]
	sub	w1, w0, #1
	str	w1, [x21, 12]
.L1629:
	cmp	w0, 1
	bne	.L1630
	ldr	x1, [x21]
	mov	x0, x21
	ldr	x1, [x1, 24]
	blr	x1
	b	.L1630
	.p2align 2,,3
.L1620:
	add	x1, x21, 8
	mov	w0, -1
	bl	__aarch64_ldadd4_acq_rel
	b	.L1621
	.p2align 2,,3
.L1735:
	mov	x1, x22
	mov	w0, -1
	bl	__aarch64_ldadd4_acq_rel
	b	.L1605
	.p2align 2,,3
.L1599:
	add	x1, x2, 8
	mov	w0, -1
	str	x2, [sp, 104]
	bl	__aarch64_ldadd4_acq_rel
	ldr	x2, [sp, 104]
	b	.L1600
	.p2align 2,,3
.L1613:
	add	x1, x21, 8
	mov	w0, -1
	bl	__aarch64_ldadd4_acq_rel
	b	.L1614
	.p2align 2,,3
.L1592:
	add	x1, x2, 8
	mov	w0, -1
	str	x2, [sp, 104]
	bl	__aarch64_ldadd4_acq_rel
	ldr	x2, [sp, 104]
	b	.L1593
	.p2align 2,,3
.L1626:
	add	x1, x21, 8
	mov	w0, -1
	bl	__aarch64_ldadd4_acq_rel
	b	.L1627
	.p2align 2,,3
.L1740:
	mov	x1, x28
	mov	w0, 1
	bl	__aarch64_ldadd4_acq_rel
	b	.L1634
	.p2align 2,,3
.L1743:
	ldrb	w1, [x3]
	b	.L1586
	.p2align 2,,3
.L1628:
	add	x1, x21, 12
	mov	w0, -1
	bl	__aarch64_ldadd4_acq_rel
	b	.L1629
	.p2align 2,,3
.L1616:
	add	x1, x21, 12
	mov	w0, -1
	bl	__aarch64_ldadd4_acq_rel
	b	.L1617
	.p2align 2,,3
.L1608:
	add	x1, x21, 12
	mov	w0, -1
	bl	__aarch64_ldadd4_acq_rel
	b	.L1609
	.p2align 2,,3
.L1623:
	add	x1, x21, 12
	mov	w0, -1
	bl	__aarch64_ldadd4_acq_rel
	b	.L1624
	.p2align 2,,3
.L1602:
	add	x1, x2, 12
	mov	w0, -1
	str	x2, [sp, 104]
	bl	__aarch64_ldadd4_acq_rel
	ldr	x2, [sp, 104]
	b	.L1603
	.p2align 2,,3
.L1595:
	add	x1, x2, 12
	mov	w0, -1
	str	x2, [sp, 104]
	bl	__aarch64_ldadd4_acq_rel
	ldr	x2, [sp, 104]
	b	.L1596
.L1640:
	add	x1, x21, 12
	mov	w0, -1
	bl	__aarch64_ldadd4_acq_rel
	b	.L1641
.L1722:
	.cfi_restore 27
	.cfi_restore 28
	stp	x27, x28, [sp, 80]
	.cfi_remember_state
	.cfi_offset 28, -136
	.cfi_offset 27, -144
	bl	__stack_chk_fail
.L1721:
	.cfi_restore_state
	stp	x27, x28, [sp, 80]
	.cfi_offset 28, -136
	.cfi_offset 27, -144
.LEHB58:
	bl	_ZSt20__throw_system_errori
.LEHE58:
.L1723:
	adrp	x0, .LC5
	add	x0, x0, :lo12:.LC5
.LEHB59:
	bl	_ZSt19__throw_logic_errorPKc
.LEHE59:
.L1741:
	ldr	w0, [x21, 8]
	sub	w1, w0, #1
	b	.L1545
.L1658:
	ldr	x1, [sp, 184]
	mov	x19, x0
	cbz	x1, .L1643
	mov	x0, x1
	bl	_ZNSt16_Sp_counted_baseILN9__gnu_cxx12_Lock_policyE2EE10_M_releaseEv
.L1643:
	mov	x0, x20
	bl	_ZNSt16_Sp_counted_baseILN9__gnu_cxx12_Lock_policyE2EE10_M_releaseEv
	b	.L1541
.L1663:
	mov	x19, x0
	mov	x1, 72
	mov	x0, x21
	bl	_ZdlPvm
.L1556:
	mov	x0, x27
	bl	_ZN7openpal6LoggerD1Ev
.L1541:
	mov	x0, x25
	bl	pthread_mutex_unlock
	mov	x0, x19
.LEHB60:
	bl	_Unwind_Resume
.LEHE60:
.L1661:
	mov	x19, x0
	b	.L1583
.L1664:
	mov	x19, x0
	mov	x1, 928
	mov	x0, x21
	bl	_ZdlPvm
.L1568:
	ldr	x0, [sp, 152]
	cbz	x0, .L1556
	bl	_ZNSt16_Sp_counted_baseILN9__gnu_cxx12_Lock_policyE2EE10_M_releaseEv
	b	.L1556
.L1660:
	mov	x19, x0
	b	.L1568
.L1659:
	mov	x19, x0
	b	.L1556
.L1657:
	mov	x19, x0
	b	.L1541
.L1665:
	mov	x19, x0
	mov	x1, 136
	mov	x0, x20
	bl	_ZdlPvm
.L1583:
	ldr	x0, [sp, 136]
	cbz	x0, .L1631
	bl	_ZNSt16_Sp_counted_baseILN9__gnu_cxx12_Lock_policyE2EE10_M_releaseEv
.L1631:
	ldr	x0, [sp, 168]
	cbz	x0, .L1632
	bl	_ZNSt16_Sp_counted_baseILN9__gnu_cxx12_Lock_policyE2EE10_M_releaseEv
.L1632:
	mov	x0, x21
	bl	_ZNSt16_Sp_counted_baseILN9__gnu_cxx12_Lock_policyE2EE10_M_releaseEv
	b	.L1568
.L1662:
	mov	x19, x0
	mov	x1, 56
	mov	x0, x21
	bl	_ZdlPvm
	b	.L1541
	.cfi_endproc
.LFE8262:
	.section	.gcc_except_table
.LLSDA8262:
	.byte	0xff
	.byte	0xff
	.byte	0x1
	.uleb128 .LLSDACSE8262-.LLSDACSB8262
.LLSDACSB8262:
	.uleb128 .LEHB49-.LFB8262
	.uleb128 .LEHE49-.LEHB49
	.uleb128 .L1657-.LFB8262
	.uleb128 0
	.uleb128 .LEHB50-.LFB8262
	.uleb128 .LEHE50-.LEHB50
	.uleb128 .L1659-.LFB8262
	.uleb128 0
	.uleb128 .LEHB51-.LFB8262
	.uleb128 .LEHE51-.LEHB51
	.uleb128 .L1663-.LFB8262
	.uleb128 0
	.uleb128 .LEHB52-.LFB8262
	.uleb128 .LEHE52-.LEHB52
	.uleb128 .L1660-.LFB8262
	.uleb128 0
	.uleb128 .LEHB53-.LFB8262
	.uleb128 .LEHE53-.LEHB53
	.uleb128 .L1664-.LFB8262
	.uleb128 0
	.uleb128 .LEHB54-.LFB8262
	.uleb128 .LEHE54-.LEHB54
	.uleb128 .L1662-.LFB8262
	.uleb128 0
	.uleb128 .LEHB55-.LFB8262
	.uleb128 .LEHE55-.LEHB55
	.uleb128 .L1661-.LFB8262
	.uleb128 0
	.uleb128 .LEHB56-.LFB8262
	.uleb128 .LEHE56-.LEHB56
	.uleb128 .L1665-.LFB8262
	.uleb128 0
	.uleb128 .LEHB57-.LFB8262
	.uleb128 .LEHE57-.LEHB57
	.uleb128 .L1658-.LFB8262
	.uleb128 0
	.uleb128 .LEHB58-.LFB8262
	.uleb128 .LEHE58-.LEHB58
	.uleb128 0
	.uleb128 0
	.uleb128 .LEHB59-.LFB8262
	.uleb128 .LEHE59-.LEHB59
	.uleb128 .L1662-.LFB8262
	.uleb128 0
	.uleb128 .LEHB60-.LFB8262
	.uleb128 .LEHE60-.LEHB60
	.uleb128 0
	.uleb128 0
.LLSDACSE8262:
	.text
	.size	_ZN8asiodnp315DNP3ManagerImpl9AddSerialERKNSt7__cxx1112basic_stringIcSt11char_traitsIcESaIcEEEjRKN7asiopal12ChannelRetryENS9_14SerialSettingsESt10shared_ptrINS_16IChannelListenerEE, .-_ZN8asiodnp315DNP3ManagerImpl9AddSerialERKNSt7__cxx1112basic_stringIcSt11char_traitsIcESaIcEEEjRKN7asiopal12ChannelRetryENS9_14SerialSettingsESt10shared_ptrINS_16IChannelListenerEE
	.align	2
	.p2align 4,,11
	.global	_ZN8asiodnp315DNP3ManagerImpl14CreateListenerENSt7__cxx1112basic_stringIcSt11char_traitsIcESaIcEEEN7openpal10LogFiltersEN7asiopal10IPEndpointERKSt10shared_ptrINS_16IListenCallbacksEERSt10error_code
	.type	_ZN8asiodnp315DNP3ManagerImpl14CreateListenerENSt7__cxx1112basic_stringIcSt11char_traitsIcESaIcEEEN7openpal10LogFiltersEN7asiopal10IPEndpointERKSt10shared_ptrINS_16IListenCallbacksEERSt10error_code, %function
_ZN8asiodnp315DNP3ManagerImpl14CreateListenerENSt7__cxx1112basic_stringIcSt11char_traitsIcESaIcEEEN7openpal10LogFiltersEN7asiopal10IPEndpointERKSt10shared_ptrINS_16IListenCallbacksEERSt10error_code:
.LFB8266:
	.cfi_startproc
	.cfi_personality 0x9b,DW.ref.__gxx_personality_v0
	.cfi_lsda 0x1b,.LLSDA8266
	stp	x29, x30, [sp, -192]!
	.cfi_def_cfa_offset 192
	.cfi_offset 29, -192
	.cfi_offset 30, -184
	adrp	x6, :got:__stack_chk_guard
	mov	x29, sp
	ldr	x6, [x6, #:got_lo12:__stack_chk_guard]
	stp	x19, x20, [sp, 16]
	.cfi_offset 19, -176
	.cfi_offset 20, -168
	mov	x20, x0
	stp	x21, x22, [sp, 32]
	mov	x19, x8
	.cfi_offset 21, -160
	.cfi_offset 22, -152
	mov	x21, x5
	stp	x23, x24, [sp, 48]
	.cfi_offset 23, -144
	.cfi_offset 24, -136
	mov	x23, x3
	mov	x24, x4
	stp	x25, x26, [sp, 64]
	stp	x27, x28, [sp, 80]
	.cfi_offset 25, -128
	.cfi_offset 26, -120
	.cfi_offset 27, -112
	.cfi_offset 28, -104
	mov	x27, x1
	str	w2, [sp, 104]
	ldr	x25, [x0, 256]
	ldr	x1, [x6]
	str	x1, [sp, 184]
	mov	x1, 0
	add	x26, x25, 8
	mov	x0, x26
	bl	pthread_mutex_lock
	cbnz	w0, .L1869
	ldrb	w0, [x25, 56]
	cbz	w0, .L1746
	stp	xzr, xzr, [x19]
	mov	x0, x26
	bl	pthread_mutex_unlock
	ldr	x0, [x19]
	cbz	x0, .L1870
.L1744:
	adrp	x0, :got:__stack_chk_guard
	ldr	x0, [x0, #:got_lo12:__stack_chk_guard]
	ldr	x2, [sp, 184]
	ldr	x1, [x0]
	subs	x2, x2, x1
	mov	x1, 0
	bne	.L1871
	mov	x0, x19
	ldp	x19, x20, [sp, 16]
	ldp	x21, x22, [sp, 32]
	ldp	x23, x24, [sp, 48]
	ldp	x25, x26, [sp, 64]
	ldp	x27, x28, [sp, 80]
	ldp	x29, x30, [sp], 192
	.cfi_remember_state
	.cfi_restore 30
	.cfi_restore 29
	.cfi_restore 27
	.cfi_restore 28
	.cfi_restore 25
	.cfi_restore 26
	.cfi_restore 23
	.cfi_restore 24
	.cfi_restore 21
	.cfi_restore 22
	.cfi_restore 19
	.cfi_restore 20
	.cfi_def_cfa_offset 0
	ret
	.p2align 2,,3
.L1746:
	.cfi_restore_state
	mov	x0, 56
.LEHB61:
	bl	_Znwm
.LEHE61:
	movi	v0.2s, 0x1
	adrp	x1, :got:_ZTVSt23_Sp_counted_ptr_inplaceIN7openpal6Logger8SettingsESaIS2_ELN9__gnu_cxx12_Lock_policyE2EE
	mov	x22, x0
	mov	x28, x0
	ldr	x1, [x1, #:got_lo12:_ZTVSt23_Sp_counted_ptr_inplaceIN7openpal6Logger8SettingsESaIS2_ELN9__gnu_cxx12_Lock_policyE2EE]
	add	x0, x0, 8
	ldp	x2, x27, [x27]
	str	d0, [x22, 8]
	add	x1, x1, 16
	str	x1, [x28], 16
	stp	x0, x2, [sp, 112]
	add	x0, x28, 16
	str	x0, [x22, 16]
	cmn	x2, x27
	ccmp	x2, 0, 0, ne
	beq	.L1872
	str	x27, [sp, 144]
	cmp	x27, 15
	bhi	.L1873
	cmp	x27, 1
	bne	.L1751
	ldrb	w1, [x2]
	add	x2, sp, 144
	strb	w1, [x22, 32]
	str	x2, [sp, 112]
.L1752:
	str	x27, [x28, 8]
	strb	wzr, [x0, x27]
	ldr	w0, [sp, 104]
	ldr	q0, [x20]
	str	w0, [x28, 32]
	umov	x1, v0.d[1]
	str	q0, [sp, 144]
	cbz	x1, .L1874
	adrp	x27, :got:__libc_single_threaded
	ldr	x2, [x27, #:got_lo12:__libc_single_threaded]
	ldrb	w0, [x2]
	cbz	w0, .L1757
	ldr	w0, [x1, 8]
	add	w0, w0, 1
	str	w0, [x1, 8]
	stp	x28, x22, [sp, 160]
.L1758:
	ldr	w1, [x22, 8]
	add	w0, w1, 1
.L1760:
	str	w1, [x22, 8]
.L1762:
	cmp	w0, 1
	beq	.L1875
.L1764:
	add	x0, x20, 32
	str	x0, [sp, 104]
	mov	x0, 72
	str	xzr, [sp, 128]
.LEHB62:
	bl	_Znwm
.LEHE62:
	adrp	x2, :got:_ZTVSt23_Sp_counted_ptr_inplaceIN7asiopal8ExecutorESaIS1_ELN9__gnu_cxx12_Lock_policyE2EE
	movi	v0.2s, 0x1
	mov	x28, x0
	mov	x22, x0
	ldr	x2, [x2, #:got_lo12:_ZTVSt23_Sp_counted_ptr_inplaceIN7asiopal8ExecutorESaIS1_ELN9__gnu_cxx12_Lock_policyE2EE]
	add	x1, x20, 32
	str	d0, [x0, 8]
	add	x2, x2, 16
	str	x2, [x28], 16
	mov	x0, x28
.LEHB63:
	bl	_ZN7asiopal8ExecutorC1ERKSt10shared_ptrINS_2IOEE
.LEHE63:
	ldr	x2, [x22, 32]
	stp	x28, x22, [sp, 128]
	cbz	x2, .L1876
	add	x0, x2, 8
	ldr	w0, [x0]
	cbz	w0, .L1877
.L1772:
	add	x28, x20, 256
	mov	x0, 256
.LEHB64:
	bl	_Znwm
.LEHE64:
	adrp	x1, :got:_ZTVSt23_Sp_counted_ptr_inplaceIN8asiodnp315MasterTCPServerESaIS1_ELN9__gnu_cxx12_Lock_policyE2EE
	movi	v0.2s, 0x1
	mov	x20, x0
	mov	x22, x0
	ldr	x0, [x1, #:got_lo12:_ZTVSt23_Sp_counted_ptr_inplaceIN8asiodnp315MasterTCPServerESaIS1_ELN9__gnu_cxx12_Lock_policyE2EE]
	mov	x3, x23
	ldr	x1, [sp, 112]
	str	d0, [x20, 8]
	add	x0, x0, 16
	str	x0, [x22], 16
	mov	x5, x28
	mov	x4, x24
	add	x23, x20, 8
	mov	x6, x21
	add	x2, sp, 128
	mov	x0, x22
.LEHB65:
	bl	_ZN8asiodnp315MasterTCPServerC1ERKN7openpal6LoggerERKSt10shared_ptrIN7asiopal8ExecutorEERKNS6_10IPEndpointERKS5_INS_16IListenCallbacksEERKS5_INS6_15ResourceManagerEERSt10error_code
.LEHE65:
	ldr	x0, [x20, 32]
	cbz	x0, .L1785
	add	x1, x0, 8
	ldr	w1, [x1]
	cbz	w1, .L1785
.L1786:
	ldr	w0, [x21]
	cbz	w0, .L1792
.L1795:
	ldr	x0, [x27, #:got_lo12:__libc_single_threaded]
	ldr	x24, [sp, 136]
	ldrb	w0, [x0]
	cbz	x24, .L1796
	cbz	w0, .L1798
	ldr	w0, [x24, 8]
	sub	w1, w0, #1
	str	w1, [x24, 8]
.L1799:
	cmp	w0, 1
	beq	.L1878
.L1796:
	ldr	x0, [x27, #:got_lo12:__libc_single_threaded]
	ldr	x24, [sp, 168]
	ldrb	w0, [x0]
	cbz	x24, .L1803
	cbz	w0, .L1804
	ldr	w0, [x24, 8]
	sub	w1, w0, #1
	str	w1, [x24, 8]
.L1805:
	cmp	w0, 1
	beq	.L1879
.L1803:
	ldr	x0, [x27, #:got_lo12:__libc_single_threaded]
	ldr	x24, [sp, 152]
	ldrb	w0, [x0]
	cbz	x24, .L1810
	cbz	w0, .L1811
	ldr	w0, [x24, 8]
	sub	w1, w0, #1
	str	w1, [x24, 8]
.L1812:
	cmp	w0, 1
	beq	.L1880
.L1810:
	ldr	x0, [x27, #:got_lo12:__libc_single_threaded]
	stp	x22, x20, [sp, 144]
	ldrb	w0, [x0]
	cbz	w0, .L1881
	ldr	w0, [x20, 8]
	add	w0, w0, 1
	str	w0, [x20, 8]
.L1819:
	ldr	x1, [sp, 112]
	add	x0, x25, 64
.LEHB66:
	bl	_ZNSt8_Rb_treeISt10shared_ptrIN7asiopal9IResourceEES3_St9_IdentityIS3_ESt4lessIS3_ESaIS3_EE16_M_insert_uniqueIS3_EESt4pairISt17_Rb_tree_iteratorIS3_EbEOT_
.LEHE66:
	ldr	x23, [sp, 152]
	cbz	x23, .L1821
	ldr	x0, [x27, #:got_lo12:__libc_single_threaded]
	ldrb	w0, [x0]
	cbz	w0, .L1822
	ldr	w0, [x23, 8]
	sub	w1, w0, #1
	str	w1, [x23, 8]
.L1823:
	cmp	w0, 1
	bne	.L1821
	ldr	x1, [x23]
	mov	x0, x23
	ldr	x1, [x1, 16]
	blr	x1
	ldr	x27, [x27, #:got_lo12:__libc_single_threaded]
	ldrb	w0, [x27]
	cbz	w0, .L1825
	ldr	w0, [x23, 12]
	sub	w1, w0, #1
	str	w1, [x23, 12]
.L1826:
	cmp	w0, 1
	bne	.L1821
	ldr	x1, [x23]
	mov	x0, x23
	ldr	x1, [x1, 24]
	blr	x1
	.p2align 3,,7
.L1821:
	stp	x22, x20, [x19]
	mov	x0, x26
	bl	pthread_mutex_unlock
	ldr	x0, [x19]
	cbnz	x0, .L1744
.L1870:
	adrp	x0, :got:_ZN8asiodnp313ErrorCategory8instanceE
	str	wzr, [x21]
	ldr	x0, [x0, #:got_lo12:_ZN8asiodnp313ErrorCategory8instanceE]
	str	x0, [x21, 8]
	b	.L1744
	.p2align 2,,3
.L1873:
	add	x0, sp, 144
	mov	x2, 0
	mov	x1, x0
	str	x0, [sp, 112]
	mov	x0, x28
.LEHB67:
	bl	_ZNSt7__cxx1112basic_stringIcSt11char_traitsIcESaIcEE9_M_createERmm
.LEHE67:
	str	x0, [x22, 16]
	ldr	x1, [sp, 144]
	str	x1, [x28, 16]
.L1750:
	ldr	x1, [sp, 120]
	mov	x2, x27
	bl	memcpy
	ldr	x0, [x22, 16]
	ldr	x27, [sp, 144]
	b	.L1752
	.p2align 2,,3
.L1785:
	ldr	x28, [x27, #:got_lo12:__libc_single_threaded]
	str	x22, [x20, 24]
	ldrb	w1, [x28]
	cbz	w1, .L1882
	ldr	w1, [x20, 12]
	mov	x24, x0
	add	w0, w1, 1
	str	w0, [x20, 12]
	cbz	x24, .L1788
.L1787:
	ldr	w0, [x24, 12]
	sub	w1, w0, #1
	str	w1, [x24, 12]
	b	.L1791
	.p2align 2,,3
.L1882:
	add	x1, x20, 12
	mov	w0, 1
	bl	__aarch64_ldadd4_acq_rel
	ldr	x24, [x20, 32]
	cbnz	x24, .L1883
.L1788:
	str	x20, [x20, 32]
	b	.L1786
	.p2align 2,,3
.L1751:
	add	x1, sp, 144
	str	x1, [sp, 112]
	cbz	x27, .L1752
	b	.L1750
	.p2align 2,,3
.L1874:
	adrp	x27, :got:__libc_single_threaded
	ldr	x0, [x27, #:got_lo12:__libc_single_threaded]
	ldrb	w0, [x0]
.L1759:
	stp	x28, x22, [sp, 160]
	cbnz	w0, .L1758
	add	x1, x22, 8
	mov	w0, 1
	bl	__aarch64_ldadd4_acq_rel
	ldr	x0, [x27, #:got_lo12:__libc_single_threaded]
	ldrb	w0, [x0]
	cbnz	w0, .L1884
	add	x1, x22, 8
	mov	w0, -1
	bl	__aarch64_ldadd4_acq_rel
	b	.L1762
	.p2align 2,,3
.L1792:
	mov	x0, x22
.LEHB68:
	bl	_ZN7asiopal9TCPServer11StartAcceptEv
.LEHE68:
	b	.L1795
	.p2align 2,,3
.L1876:
	str	x28, [x22, 24]
.L1832:
	ldr	x0, [x27, #:got_lo12:__libc_single_threaded]
	ldrb	w0, [x0]
	cbz	w0, .L1774
	ldr	w0, [x22, 12]
	add	w0, w0, 1
	str	w0, [x22, 12]
	cbz	x2, .L1776
.L1775:
	ldr	w0, [x2, 12]
	sub	w1, w0, #1
	str	w1, [x2, 12]
.L1779:
	cmp	w0, 1
	beq	.L1885
.L1776:
	str	x22, [x22, 32]
	b	.L1772
	.p2align 2,,3
.L1757:
	add	x1, x1, 8
	mov	w0, 1
	str	x2, [sp, 104]
	bl	__aarch64_ldadd4_acq_rel
	ldr	x2, [sp, 104]
	ldrb	w0, [x2]
	b	.L1759
	.p2align 2,,3
.L1875:
	ldr	x1, [x22]
	mov	x0, x22
	ldr	x1, [x1, 16]
	blr	x1
	ldr	x0, [x27, #:got_lo12:__libc_single_threaded]
	ldrb	w0, [x0]
	cbz	w0, .L1765
	ldr	w0, [x22, 12]
	sub	w1, w0, #1
	str	w1, [x22, 12]
.L1766:
	cmp	w0, 1
	bne	.L1764
	ldr	x1, [x22]
	mov	x0, x22
	ldr	x1, [x1, 24]
	blr	x1
	b	.L1764
	.p2align 2,,3
.L1877:
	str	x28, [x22, 24]
	cbnz	x22, .L1832
.L1773:
	cbz	x2, .L1776
	ldr	x0, [x27, #:got_lo12:__libc_single_threaded]
	ldrb	w0, [x0]
	cbnz	w0, .L1775
	add	x1, x2, 12
	mov	w0, -1
	str	x2, [sp, 104]
	bl	__aarch64_ldadd4_acq_rel
	ldr	x2, [sp, 104]
	b	.L1779
	.p2align 2,,3
.L1883:
	ldrb	w0, [x28]
	cbnz	w0, .L1787
	add	x1, x24, 12
	mov	w0, -1
	bl	__aarch64_ldadd4_acq_rel
.L1791:
	cmp	w0, 1
	bne	.L1788
	ldr	x1, [x24]
	mov	x0, x24
	ldr	x1, [x1, 24]
	blr	x1
	str	x20, [x20, 32]
	b	.L1786
	.p2align 2,,3
.L1774:
	add	x1, x22, 12
	mov	w0, 1
	bl	__aarch64_ldadd4_acq_rel
	ldr	x2, [x22, 32]
	b	.L1773
	.p2align 2,,3
.L1822:
	add	x1, x23, 8
	mov	w0, -1
	bl	__aarch64_ldadd4_acq_rel
	b	.L1823
	.p2align 2,,3
.L1885:
	ldr	x1, [x2]
	mov	x0, x2
	ldr	x1, [x1, 24]
	blr	x1
	str	x22, [x22, 32]
	b	.L1772
	.p2align 2,,3
.L1765:
	add	x1, x22, 12
	mov	w0, -1
	bl	__aarch64_ldadd4_acq_rel
	b	.L1766
	.p2align 2,,3
.L1879:
	ldr	x1, [x24]
	mov	x0, x24
	ldr	x1, [x1, 16]
	blr	x1
	ldr	x0, [x27, #:got_lo12:__libc_single_threaded]
	ldrb	w0, [x0]
	cbz	w0, .L1807
	ldr	w0, [x24, 12]
	sub	w1, w0, #1
	str	w1, [x24, 12]
.L1808:
	cmp	w0, 1
	bne	.L1803
	ldr	x1, [x24]
	mov	x0, x24
	ldr	x1, [x1, 24]
	blr	x1
	b	.L1803
	.p2align 2,,3
.L1878:
	ldr	x1, [x24]
	mov	x0, x24
	ldr	x1, [x1, 16]
	blr	x1
	ldr	x0, [x27, #:got_lo12:__libc_single_threaded]
	ldrb	w0, [x0]
	cbz	w0, .L1800
	ldr	w0, [x24, 12]
	sub	w1, w0, #1
	str	w1, [x24, 12]
.L1801:
	cmp	w0, 1
	bne	.L1796
	ldr	x1, [x24]
	mov	x0, x24
	ldr	x1, [x1, 24]
	blr	x1
	b	.L1796
	.p2align 2,,3
.L1880:
	ldr	x1, [x24]
	mov	x0, x24
	ldr	x1, [x1, 16]
	blr	x1
	ldr	x0, [x27, #:got_lo12:__libc_single_threaded]
	ldrb	w0, [x0]
	cbz	w0, .L1814
	ldr	w0, [x24, 12]
	sub	w1, w0, #1
	str	w1, [x24, 12]
.L1815:
	cmp	w0, 1
	bne	.L1810
	ldr	x1, [x24]
	mov	x0, x24
	ldr	x1, [x1, 24]
	blr	x1
	b	.L1810
	.p2align 2,,3
.L1811:
	add	x1, x24, 8
	mov	w0, -1
	bl	__aarch64_ldadd4_acq_rel
	b	.L1812
	.p2align 2,,3
.L1804:
	add	x1, x24, 8
	mov	w0, -1
	bl	__aarch64_ldadd4_acq_rel
	b	.L1805
	.p2align 2,,3
.L1798:
	add	x1, x24, 8
	mov	w0, -1
	bl	__aarch64_ldadd4_acq_rel
	b	.L1799
	.p2align 2,,3
.L1881:
	mov	x1, x23
	mov	w0, 1
	bl	__aarch64_ldadd4_acq_rel
	b	.L1819
	.p2align 2,,3
.L1800:
	add	x1, x24, 12
	mov	w0, -1
	bl	__aarch64_ldadd4_acq_rel
	b	.L1801
	.p2align 2,,3
.L1814:
	add	x1, x24, 12
	mov	w0, -1
	bl	__aarch64_ldadd4_acq_rel
	b	.L1815
	.p2align 2,,3
.L1807:
	add	x1, x24, 12
	mov	w0, -1
	bl	__aarch64_ldadd4_acq_rel
	b	.L1808
.L1825:
	add	x1, x23, 12
	mov	w0, -1
	bl	__aarch64_ldadd4_acq_rel
	b	.L1826
.L1871:
	bl	__stack_chk_fail
.L1869:
.LEHB69:
	bl	_ZSt20__throw_system_errori
.LEHE69:
.L1872:
	adrp	x0, .LC5
	add	x0, x0, :lo12:.LC5
.LEHB70:
	bl	_ZSt19__throw_logic_errorPKc
.LEHE70:
.L1884:
	ldr	w0, [x22, 8]
	sub	w1, w0, #1
	b	.L1760
.L1841:
	mov	x19, x0
	mov	x1, 256
	mov	x0, x20
	bl	_ZdlPvm
.L1784:
	ldr	x0, [sp, 136]
	cbnz	x0, .L1886
.L1771:
	ldr	x0, [sp, 112]
	bl	_ZN7openpal6LoggerD1Ev
.L1756:
	mov	x0, x26
	bl	pthread_mutex_unlock
	mov	x0, x19
.LEHB71:
	bl	_Unwind_Resume
.LEHE71:
.L1840:
	mov	x19, x0
	mov	x0, x20
	bl	_ZNSt16_Sp_counted_baseILN9__gnu_cxx12_Lock_policyE2EE10_M_releaseEv
	b	.L1784
.L1886:
	bl	_ZNSt16_Sp_counted_baseILN9__gnu_cxx12_Lock_policyE2EE10_M_releaseEv
	b	.L1771
.L1837:
	mov	x19, x0
	b	.L1784
.L1838:
	mov	x19, x0
	mov	x1, 56
	mov	x0, x22
	bl	_ZdlPvm
	b	.L1756
.L1835:
	ldr	x1, [sp, 152]
	mov	x19, x0
	cbz	x1, .L1830
	mov	x0, x1
	bl	_ZNSt16_Sp_counted_baseILN9__gnu_cxx12_Lock_policyE2EE10_M_releaseEv
.L1830:
	mov	x0, x20
	bl	_ZNSt16_Sp_counted_baseILN9__gnu_cxx12_Lock_policyE2EE10_M_releaseEv
	b	.L1756
.L1839:
	mov	x19, x0
	mov	x1, 72
	mov	x0, x22
	bl	_ZdlPvm
	b	.L1771
.L1836:
	mov	x19, x0
	b	.L1771
.L1834:
	mov	x19, x0
	b	.L1756
	.cfi_endproc
.LFE8266:
	.section	.gcc_except_table
.LLSDA8266:
	.byte	0xff
	.byte	0xff
	.byte	0x1
	.uleb128 .LLSDACSE8266-.LLSDACSB8266
.LLSDACSB8266:
	.uleb128 .LEHB61-.LFB8266
	.uleb128 .LEHE61-.LEHB61
	.uleb128 .L1834-.LFB8266
	.uleb128 0
	.uleb128 .LEHB62-.LFB8266
	.uleb128 .LEHE62-.LEHB62
	.uleb128 .L1836-.LFB8266
	.uleb128 0
	.uleb128 .LEHB63-.LFB8266
	.uleb128 .LEHE63-.LEHB63
	.uleb128 .L1839-.LFB8266
	.uleb128 0
	.uleb128 .LEHB64-.LFB8266
	.uleb128 .LEHE64-.LEHB64
	.uleb128 .L1837-.LFB8266
	.uleb128 0
	.uleb128 .LEHB65-.LFB8266
	.uleb128 .LEHE65-.LEHB65
	.uleb128 .L1841-.LFB8266
	.uleb128 0
	.uleb128 .LEHB66-.LFB8266
	.uleb128 .LEHE66-.LEHB66
	.uleb128 .L1835-.LFB8266
	.uleb128 0
	.uleb128 .LEHB67-.LFB8266
	.uleb128 .LEHE67-.LEHB67
	.uleb128 .L1838-.LFB8266
	.uleb128 0
	.uleb128 .LEHB68-.LFB8266
	.uleb128 .LEHE68-.LEHB68
	.uleb128 .L1840-.LFB8266
	.uleb128 0
	.uleb128 .LEHB69-.LFB8266
	.uleb128 .LEHE69-.LEHB69
	.uleb128 0
	.uleb128 0
	.uleb128 .LEHB70-.LFB8266
	.uleb128 .LEHE70-.LEHB70
	.uleb128 .L1838-.LFB8266
	.uleb128 0
	.uleb128 .LEHB71-.LFB8266
	.uleb128 .LEHE71-.LEHB71
	.uleb128 0
	.uleb128 0
.LLSDACSE8266:
	.text
	.size	_ZN8asiodnp315DNP3ManagerImpl14CreateListenerENSt7__cxx1112basic_stringIcSt11char_traitsIcESaIcEEEN7openpal10LogFiltersEN7asiopal10IPEndpointERKSt10shared_ptrINS_16IListenCallbacksEERSt10error_code, .-_ZN8asiodnp315DNP3ManagerImpl14CreateListenerENSt7__cxx1112basic_stringIcSt11char_traitsIcESaIcEEEN7openpal10LogFiltersEN7asiopal10IPEndpointERKSt10shared_ptrINS_16IListenCallbacksEERSt10error_code
	.section	.text._ZNSt8_Rb_treeISt10shared_ptrIN7asiopal9IResourceEES3_St9_IdentityIS3_ESt4lessIS3_ESaIS3_EE8_M_eraseEPSt13_Rb_tree_nodeIS3_E,"axG",@progbits,_ZNSt8_Rb_treeISt10shared_ptrIN7asiopal9IResourceEES3_St9_IdentityIS3_ESt4lessIS3_ESaIS3_EE8_M_eraseEPSt13_Rb_tree_nodeIS3_E,comdat
	.align	2
	.p2align 4,,11
	.weak	_ZNSt8_Rb_treeISt10shared_ptrIN7asiopal9IResourceEES3_St9_IdentityIS3_ESt4lessIS3_ESaIS3_EE8_M_eraseEPSt13_Rb_tree_nodeIS3_E
	.type	_ZNSt8_Rb_treeISt10shared_ptrIN7asiopal9IResourceEES3_St9_IdentityIS3_ESt4lessIS3_ESaIS3_EE8_M_eraseEPSt13_Rb_tree_nodeIS3_E, %function
