	.arch armv8-a
	.file	"DNP3Channel.cpp"
	.text
	.section	.rodata._ZNK4asio6detail15system_category4nameEv.str1.8,"aMS",@progbits,1
	.align	3
.LC0:
	.string	"asio.system"
	.section	.text._ZNK4asio6detail15system_category4nameEv,"axG",@progbits,_ZNK4asio6detail15system_category4nameEv,comdat
	.align	2
	.p2align 4,,11
	.weak	_ZNK4asio6detail15system_category4nameEv
	.type	_ZNK4asio6detail15system_category4nameEv, %function
_ZNK4asio6detail15system_category4nameEv:
.LFB3567:
	.cfi_startproc
	adrp	x0, .LC0
	add	x0, x0, :lo12:.LC0
	ret
	.cfi_endproc
.LFE3567:
	.size	_ZNK4asio6detail15system_category4nameEv, .-_ZNK4asio6detail15system_category4nameEv
	.section	.rodata._ZNK4asio5error6detail14netdb_category4nameEv.str1.8,"aMS",@progbits,1
	.align	3
.LC1:
	.string	"asio.netdb"
	.section	.text._ZNK4asio5error6detail14netdb_category4nameEv,"axG",@progbits,_ZNK4asio5error6detail14netdb_category4nameEv,comdat
	.align	2
	.p2align 4,,11
	.weak	_ZNK4asio5error6detail14netdb_category4nameEv
	.type	_ZNK4asio5error6detail14netdb_category4nameEv, %function
_ZNK4asio5error6detail14netdb_category4nameEv:
.LFB3588:
	.cfi_startproc
	adrp	x0, .LC1
	add	x0, x0, :lo12:.LC1
	ret
	.cfi_endproc
.LFE3588:
	.size	_ZNK4asio5error6detail14netdb_category4nameEv, .-_ZNK4asio5error6detail14netdb_category4nameEv
	.section	.rodata._ZNK4asio5error6detail17addrinfo_category4nameEv.str1.8,"aMS",@progbits,1
	.align	3
.LC2:
	.string	"asio.addrinfo"
	.section	.text._ZNK4asio5error6detail17addrinfo_category4nameEv,"axG",@progbits,_ZNK4asio5error6detail17addrinfo_category4nameEv,comdat
	.align	2
	.p2align 4,,11
	.weak	_ZNK4asio5error6detail17addrinfo_category4nameEv
	.type	_ZNK4asio5error6detail17addrinfo_category4nameEv, %function
_ZNK4asio5error6detail17addrinfo_category4nameEv:
.LFB3594:
	.cfi_startproc
	adrp	x0, .LC2
	add	x0, x0, :lo12:.LC2
	ret
	.cfi_endproc
.LFE3594:
	.size	_ZNK4asio5error6detail17addrinfo_category4nameEv, .-_ZNK4asio5error6detail17addrinfo_category4nameEv
	.section	.rodata._ZNK4asio5error6detail13misc_category4nameEv.str1.8,"aMS",@progbits,1
	.align	3
.LC3:
	.string	"asio.misc"
	.section	.text._ZNK4asio5error6detail13misc_category4nameEv,"axG",@progbits,_ZNK4asio5error6detail13misc_category4nameEv,comdat
	.align	2
	.p2align 4,,11
	.weak	_ZNK4asio5error6detail13misc_category4nameEv
	.type	_ZNK4asio5error6detail13misc_category4nameEv, %function
_ZNK4asio5error6detail13misc_category4nameEv:
.LFB3600:
	.cfi_startproc
	adrp	x0, .LC3
	add	x0, x0, :lo12:.LC3
	ret
	.cfi_endproc
.LFE3600:
	.size	_ZNK4asio5error6detail13misc_category4nameEv, .-_ZNK4asio5error6detail13misc_category4nameEv
	.section	.text._ZNSt13__future_base13_State_baseV217_M_complete_asyncEv,"axG",@progbits,_ZNSt13__future_base13_State_baseV217_M_complete_asyncEv,comdat
	.align	2
	.p2align 4,,11
	.weak	_ZNSt13__future_base13_State_baseV217_M_complete_asyncEv
	.type	_ZNSt13__future_base13_State_baseV217_M_complete_asyncEv, %function
_ZNSt13__future_base13_State_baseV217_M_complete_asyncEv:
.LFB7729:
	.cfi_startproc
	ret
	.cfi_endproc
.LFE7729:
	.size	_ZNSt13__future_base13_State_baseV217_M_complete_asyncEv, .-_ZNSt13__future_base13_State_baseV217_M_complete_asyncEv
	.section	.text._ZNKSt13__future_base13_State_baseV221_M_is_deferred_futureEv,"axG",@progbits,_ZNKSt13__future_base13_State_baseV221_M_is_deferred_futureEv,comdat
	.align	2
	.p2align 4,,11
	.weak	_ZNKSt13__future_base13_State_baseV221_M_is_deferred_futureEv
	.type	_ZNKSt13__future_base13_State_baseV221_M_is_deferred_futureEv, %function
_ZNKSt13__future_base13_State_baseV221_M_is_deferred_futureEv:
.LFB7730:
	.cfi_startproc
	mov	w0, 0
	ret
	.cfi_endproc
.LFE7730:
	.size	_ZNKSt13__future_base13_State_baseV221_M_is_deferred_futureEv, .-_ZNKSt13__future_base13_State_baseV221_M_is_deferred_futureEv
	.section	.text._ZZNSt9once_flag18_Prepare_executionC4IZSt9call_onceIMNSt13__future_base13_State_baseV2EFvPSt8functionIFSt10unique_ptrINS3_12_Result_baseENS7_8_DeleterEEvEEPbEJPS4_SC_SD_EEvRS_OT_DpOT0_EUlvE_EERSI_ENUlvE_4_FUNEv,"axG",@progbits,_ZZNSt9once_flag18_Prepare_executionC4IZSt9call_onceIMNSt13__future_base13_State_baseV2EFvPSt8functionIFSt10unique_ptrINS3_12_Result_baseENS7_8_DeleterEEvEEPbEJPS4_SC_SD_EEvRS_OT_DpOT0_EUlvE_EERSI_ENUlvE_4_FUNEv,comdat
	.align	2
	.p2align 4,,11
	.weak	_ZZNSt9once_flag18_Prepare_executionC4IZSt9call_onceIMNSt13__future_base13_State_baseV2EFvPSt8functionIFSt10unique_ptrINS3_12_Result_baseENS7_8_DeleterEEvEEPbEJPS4_SC_SD_EEvRS_OT_DpOT0_EUlvE_EERSI_ENUlvE_4_FUNEv
	.type	_ZZNSt9once_flag18_Prepare_executionC4IZSt9call_onceIMNSt13__future_base13_State_baseV2EFvPSt8functionIFSt10unique_ptrINS3_12_Result_baseENS7_8_DeleterEEvEEPbEJPS4_SC_SD_EEvRS_OT_DpOT0_EUlvE_EERSI_ENUlvE_4_FUNEv, %function
_ZZNSt9once_flag18_Prepare_executionC4IZSt9call_onceIMNSt13__future_base13_State_baseV2EFvPSt8functionIFSt10unique_ptrINS3_12_Result_baseENS7_8_DeleterEEvEEPbEJPS4_SC_SD_EEvRS_OT_DpOT0_EUlvE_EERSI_ENUlvE_4_FUNEv:
.LFB10257:
	.cfi_startproc
	mrs	x1, tpidr_el0
	stp	x29, x30, [sp, -16]!
	.cfi_def_cfa_offset 16
	.cfi_offset 29, -16
	.cfi_offset 30, -8
	mov	x29, sp
	adrp	x0, :tlsdesc:_ZSt15__once_callable
	ldr	x2, [x0, #:tlsdesc_lo12:_ZSt15__once_callable]
	add	x0, x0, :tlsdesc_lo12:_ZSt15__once_callable
	.tlsdesccall	_ZSt15__once_callable
	blr	x2
	ldr	x1, [x1, x0]
	ldp	x3, x0, [x1]
	ldp	x6, x1, [x1, 16]
	ldr	x2, [x3, 8]
	ldr	x5, [x0]
	asr	x4, x2, 1
	add	x0, x5, x4
	ldr	x3, [x3]
	tbz	x2, 0, .L9
	ldr	x2, [x5, x4]
	ldr	x3, [x2, x3]
.L9:
	mov	x16, x3
	ldp	x29, x30, [sp], 16
	.cfi_restore 30
	.cfi_restore 29
	.cfi_def_cfa_offset 0
	ldr	x2, [x1]
	ldr	x1, [x6]
	br	x16
	.cfi_endproc
.LFE10257:
	.size	_ZZNSt9once_flag18_Prepare_executionC4IZSt9call_onceIMNSt13__future_base13_State_baseV2EFvPSt8functionIFSt10unique_ptrINS3_12_Result_baseENS7_8_DeleterEEvEEPbEJPS4_SC_SD_EEvRS_OT_DpOT0_EUlvE_EERSI_ENUlvE_4_FUNEv, .-_ZZNSt9once_flag18_Prepare_executionC4IZSt9call_onceIMNSt13__future_base13_State_baseV2EFvPSt8functionIFSt10unique_ptrINS3_12_Result_baseENS7_8_DeleterEEvEEPbEJPS4_SC_SD_EEvRS_OT_DpOT0_EUlvE_EERSI_ENUlvE_4_FUNEv
	.section	.text._ZNSt15__exception_ptr12__dest_thunkISt12future_errorEEvPv,"axG",@progbits,_ZNSt15__exception_ptr12__dest_thunkISt12future_errorEEvPv,comdat
	.align	2
	.p2align 4,,11
	.weak	_ZNSt15__exception_ptr12__dest_thunkISt12future_errorEEvPv
	.type	_ZNSt15__exception_ptr12__dest_thunkISt12future_errorEEvPv, %function
_ZNSt15__exception_ptr12__dest_thunkISt12future_errorEEvPv:
.LFB10277:
	.cfi_startproc
	ldr	x1, [x0]
	ldr	x1, [x1]
	mov	x16, x1
	br	x16
	.cfi_endproc
.LFE10277:
	.size	_ZNSt15__exception_ptr12__dest_thunkISt12future_errorEEvPv, .-_ZNSt15__exception_ptr12__dest_thunkISt12future_errorEEvPv
	.text
	.align	2
	.p2align 4,,11
	.type	_ZNSt17_Function_handlerIFN8opendnp314LinkStatisticsEvEZN8asiodnp311DNP3Channel13GetStatisticsEvEUlvE_E9_M_invokeERKSt9_Any_data, %function
_ZNSt17_Function_handlerIFN8opendnp314LinkStatisticsEvEZN8asiodnp311DNP3Channel13GetStatisticsEvEUlvE_E9_M_invokeERKSt9_Any_data:
.LFB10529:
	.cfi_startproc
	ldr	x0, [x0]
	ldr	x0, [x0, 72]
	add	x1, x0, 248
	ldr	q1, [x0, 248]
	ldr	q0, [x1, 12]
	str	q1, [x8, 24]
	ldp	x2, x3, [x0, 80]
	stp	x2, x3, [x8]
	ldr	x0, [x0, 96]
	str	x0, [x8, 16]
	str	q0, [x8, 36]
	ret
	.cfi_endproc
.LFE10529:
	.size	_ZNSt17_Function_handlerIFN8opendnp314LinkStatisticsEvEZN8asiodnp311DNP3Channel13GetStatisticsEvEUlvE_E9_M_invokeERKSt9_Any_data, .-_ZNSt17_Function_handlerIFN8opendnp314LinkStatisticsEvEZN8asiodnp311DNP3Channel13GetStatisticsEvEUlvE_E9_M_invokeERKSt9_Any_data
	.align	2
	.p2align 4,,11
	.type	_ZNSt17_Function_handlerIFN7openpal10LogFiltersEvEZNK8asiodnp311DNP3Channel13GetLogFiltersEvEUlvE_E9_M_invokeERKSt9_Any_data, %function
_ZNSt17_Function_handlerIFN7openpal10LogFiltersEvEZNK8asiodnp311DNP3Channel13GetLogFiltersEvEUlvE_E9_M_invokeERKSt9_Any_data:
.LFB10552:
	.cfi_startproc
	ldr	x0, [x0]
	ldr	x0, [x0, 40]
	ldr	w0, [x0, 32]
	ret
	.cfi_endproc
.LFE10552:
	.size	_ZNSt17_Function_handlerIFN7openpal10LogFiltersEvEZNK8asiodnp311DNP3Channel13GetLogFiltersEvEUlvE_E9_M_invokeERKSt9_Any_data, .-_ZNSt17_Function_handlerIFN7openpal10LogFiltersEvEZNK8asiodnp311DNP3Channel13GetLogFiltersEvEUlvE_E9_M_invokeERKSt9_Any_data
	.section	.text._ZNSt17_Function_handlerIFSt10unique_ptrINSt13__future_base12_Result_baseENS2_8_DeleterEEvENS1_13_State_baseV27_SetterIN8opendnp314LinkStatisticsEOS9_EEE9_M_invokeERKSt9_Any_data,"axG",@progbits,_ZNSt17_Function_handlerIFSt10unique_ptrINSt13__future_base12_Result_baseENS2_8_DeleterEEvENS1_13_State_baseV27_SetterIN8opendnp314LinkStatisticsEOS9_EEE9_M_invokeERKSt9_Any_data,comdat
	.align	2
	.p2align 4,,11
	.weak	_ZNSt17_Function_handlerIFSt10unique_ptrINSt13__future_base12_Result_baseENS2_8_DeleterEEvENS1_13_State_baseV27_SetterIN8opendnp314LinkStatisticsEOS9_EEE9_M_invokeERKSt9_Any_data
	.type	_ZNSt17_Function_handlerIFSt10unique_ptrINSt13__future_base12_Result_baseENS2_8_DeleterEEvENS1_13_State_baseV27_SetterIN8opendnp314LinkStatisticsEOS9_EEE9_M_invokeERKSt9_Any_data, %function
_ZNSt17_Function_handlerIFSt10unique_ptrINSt13__future_base12_Result_baseENS2_8_DeleterEEvENS1_13_State_baseV27_SetterIN8opendnp314LinkStatisticsEOS9_EEE9_M_invokeERKSt9_Any_data:
.LFB11433:
	.cfi_startproc
	mov	x1, x0
	mov	w5, 1
	mov	x0, x8
	ldp	x4, x2, [x1]
	ldr	x3, [x4, 16]
	ldp	q0, q1, [x2]
	add	x1, x3, 16
	stp	q0, q1, [x1]
	ldr	q0, [x2, 32]
	str	q0, [x1, 32]
	ldr	w2, [x2, 48]
	str	w2, [x1, 48]
	strb	w5, [x3, 68]
	str	xzr, [x4, 16]
	str	x3, [x8]
	ret
	.cfi_endproc
.LFE11433:
	.size	_ZNSt17_Function_handlerIFSt10unique_ptrINSt13__future_base12_Result_baseENS2_8_DeleterEEvENS1_13_State_baseV27_SetterIN8opendnp314LinkStatisticsEOS9_EEE9_M_invokeERKSt9_Any_data, .-_ZNSt17_Function_handlerIFSt10unique_ptrINSt13__future_base12_Result_baseENS2_8_DeleterEEvENS1_13_State_baseV27_SetterIN8opendnp314LinkStatisticsEOS9_EEE9_M_invokeERKSt9_Any_data
	.section	.text._ZNSt17_Function_handlerIFSt10unique_ptrINSt13__future_base12_Result_baseENS2_8_DeleterEEvENS1_13_State_baseV27_SetterIN7openpal10LogFiltersEOS9_EEE9_M_invokeERKSt9_Any_data,"axG",@progbits,_ZNSt17_Function_handlerIFSt10unique_ptrINSt13__future_base12_Result_baseENS2_8_DeleterEEvENS1_13_State_baseV27_SetterIN7openpal10LogFiltersEOS9_EEE9_M_invokeERKSt9_Any_data,comdat
	.align	2
	.p2align 4,,11
	.weak	_ZNSt17_Function_handlerIFSt10unique_ptrINSt13__future_base12_Result_baseENS2_8_DeleterEEvENS1_13_State_baseV27_SetterIN7openpal10LogFiltersEOS9_EEE9_M_invokeERKSt9_Any_data
	.type	_ZNSt17_Function_handlerIFSt10unique_ptrINSt13__future_base12_Result_baseENS2_8_DeleterEEvENS1_13_State_baseV27_SetterIN7openpal10LogFiltersEOS9_EEE9_M_invokeERKSt9_Any_data, %function
_ZNSt17_Function_handlerIFSt10unique_ptrINSt13__future_base12_Result_baseENS2_8_DeleterEEvENS1_13_State_baseV27_SetterIN7openpal10LogFiltersEOS9_EEE9_M_invokeERKSt9_Any_data:
.LFB11466:
	.cfi_startproc
	mov	x1, x0
	mov	w3, 1
	mov	x0, x8
	ldp	x2, x4, [x1]
	ldr	x1, [x2, 16]
	ldr	w4, [x4]
	str	w4, [x1, 16]
	strb	w3, [x1, 20]
	str	xzr, [x2, 16]
	str	x1, [x8]
	ret
	.cfi_endproc
.LFE11466:
	.size	_ZNSt17_Function_handlerIFSt10unique_ptrINSt13__future_base12_Result_baseENS2_8_DeleterEEvENS1_13_State_baseV27_SetterIN7openpal10LogFiltersEOS9_EEE9_M_invokeERKSt9_Any_data, .-_ZNSt17_Function_handlerIFSt10unique_ptrINSt13__future_base12_Result_baseENS2_8_DeleterEEvENS1_13_State_baseV27_SetterIN7openpal10LogFiltersEOS9_EEE9_M_invokeERKSt9_Any_data
	.section	.text._ZNSt17_Function_handlerIFSt10unique_ptrINSt13__future_base12_Result_baseENS2_8_DeleterEEvENS1_13_State_baseV27_SetterIbObEEE9_M_invokeERKSt9_Any_data,"axG",@progbits,_ZNSt17_Function_handlerIFSt10unique_ptrINSt13__future_base12_Result_baseENS2_8_DeleterEEvENS1_13_State_baseV27_SetterIbObEEE9_M_invokeERKSt9_Any_data,comdat
	.align	2
	.p2align 4,,11
	.weak	_ZNSt17_Function_handlerIFSt10unique_ptrINSt13__future_base12_Result_baseENS2_8_DeleterEEvENS1_13_State_baseV27_SetterIbObEEE9_M_invokeERKSt9_Any_data
	.type	_ZNSt17_Function_handlerIFSt10unique_ptrINSt13__future_base12_Result_baseENS2_8_DeleterEEvENS1_13_State_baseV27_SetterIbObEEE9_M_invokeERKSt9_Any_data, %function
_ZNSt17_Function_handlerIFSt10unique_ptrINSt13__future_base12_Result_baseENS2_8_DeleterEEvENS1_13_State_baseV27_SetterIbObEEE9_M_invokeERKSt9_Any_data:
.LFB11818:
	.cfi_startproc
	mov	x1, x0
	mov	w3, 1
	mov	x0, x8
	ldp	x2, x4, [x1]
	ldr	x1, [x2, 16]
	ldrb	w4, [x4]
	strb	w4, [x1, 16]
	strb	w3, [x1, 17]
	str	xzr, [x2, 16]
	str	x1, [x8]
	ret
	.cfi_endproc
.LFE11818:
	.size	_ZNSt17_Function_handlerIFSt10unique_ptrINSt13__future_base12_Result_baseENS2_8_DeleterEEvENS1_13_State_baseV27_SetterIbObEEE9_M_invokeERKSt9_Any_data, .-_ZNSt17_Function_handlerIFSt10unique_ptrINSt13__future_base12_Result_baseENS2_8_DeleterEEvENS1_13_State_baseV27_SetterIbObEEE9_M_invokeERKSt9_Any_data
	.section	.text._ZNSt13__future_base13_State_baseV2D2Ev,"axG",@progbits,_ZNSt13__future_base13_State_baseV2D5Ev,comdat
	.align	2
	.p2align 4,,11
	.weak	_ZNSt13__future_base13_State_baseV2D2Ev
	.type	_ZNSt13__future_base13_State_baseV2D2Ev, %function
_ZNSt13__future_base13_State_baseV2D2Ev:
.LFB12851:
	.cfi_startproc
	.cfi_personality 0x9b,DW.ref.__gxx_personality_v0
	.cfi_lsda 0x1b,.LLSDA12851
	adrp	x1, :got:_ZTVNSt13__future_base13_State_baseV2E
	mov	x2, x0
	ldr	x0, [x0, 8]
	ldr	x1, [x1, #:got_lo12:_ZTVNSt13__future_base13_State_baseV2E]
	add	x1, x1, 16
	str	x1, [x2]
	cbz	x0, .L26
	stp	x29, x30, [sp, -16]!
	.cfi_def_cfa_offset 16
	.cfi_offset 29, -16
	.cfi_offset 30, -8
	mov	x29, sp
	ldr	x1, [x0]
	ldr	x1, [x1]
	blr	x1
	ldp	x29, x30, [sp], 16
	.cfi_restore 30
	.cfi_restore 29
	.cfi_def_cfa_offset 0
	ret
	.p2align 2,,3
.L26:
	ret
	.cfi_endproc
.LFE12851:
	.global	__gxx_personality_v0
	.section	.gcc_except_table._ZNSt13__future_base13_State_baseV2D2Ev,"aG",@progbits,_ZNSt13__future_base13_State_baseV2D5Ev,comdat
.LLSDA12851:
	.byte	0xff
	.byte	0xff
	.byte	0x1
	.uleb128 .LLSDACSE12851-.LLSDACSB12851
.LLSDACSB12851:
.LLSDACSE12851:
	.section	.text._ZNSt13__future_base13_State_baseV2D2Ev,"axG",@progbits,_ZNSt13__future_base13_State_baseV2D5Ev,comdat
	.size	_ZNSt13__future_base13_State_baseV2D2Ev, .-_ZNSt13__future_base13_State_baseV2D2Ev
	.weak	_ZNSt13__future_base13_State_baseV2D1Ev
	.set	_ZNSt13__future_base13_State_baseV2D1Ev,_ZNSt13__future_base13_State_baseV2D2Ev
	.section	.text._ZN4asio6detail10service_idINS0_13epoll_reactorEED2Ev,"axG",@progbits,_ZN4asio6detail10service_idINS0_13epoll_reactorEED5Ev,comdat
	.align	2
	.p2align 4,,11
	.weak	_ZN4asio6detail10service_idINS0_13epoll_reactorEED2Ev
	.type	_ZN4asio6detail10service_idINS0_13epoll_reactorEED2Ev, %function
_ZN4asio6detail10service_idINS0_13epoll_reactorEED2Ev:
.LFB12923:
	.cfi_startproc
	ret
	.cfi_endproc
.LFE12923:
	.size	_ZN4asio6detail10service_idINS0_13epoll_reactorEED2Ev, .-_ZN4asio6detail10service_idINS0_13epoll_reactorEED2Ev
	.weak	_ZN4asio6detail10service_idINS0_13epoll_reactorEED1Ev
	.set	_ZN4asio6detail10service_idINS0_13epoll_reactorEED1Ev,_ZN4asio6detail10service_idINS0_13epoll_reactorEED2Ev
	.section	.text._ZN4asio6detail10service_idINS0_15task_io_serviceEED2Ev,"axG",@progbits,_ZN4asio6detail10service_idINS0_15task_io_serviceEED5Ev,comdat
	.align	2
	.p2align 4,,11
	.weak	_ZN4asio6detail10service_idINS0_15task_io_serviceEED2Ev
	.type	_ZN4asio6detail10service_idINS0_15task_io_serviceEED2Ev, %function
_ZN4asio6detail10service_idINS0_15task_io_serviceEED2Ev:
.LFB12926:
	.cfi_startproc
	ret
	.cfi_endproc
.LFE12926:
	.size	_ZN4asio6detail10service_idINS0_15task_io_serviceEED2Ev, .-_ZN4asio6detail10service_idINS0_15task_io_serviceEED2Ev
	.weak	_ZN4asio6detail10service_idINS0_15task_io_serviceEED1Ev
	.set	_ZN4asio6detail10service_idINS0_15task_io_serviceEED1Ev,_ZN4asio6detail10service_idINS0_15task_io_serviceEED2Ev
	.section	.text._ZN4asio6detail10service_idINS0_14strand_serviceEED2Ev,"axG",@progbits,_ZN4asio6detail10service_idINS0_14strand_serviceEED5Ev,comdat
	.align	2
	.p2align 4,,11
	.weak	_ZN4asio6detail10service_idINS0_14strand_serviceEED2Ev
	.type	_ZN4asio6detail10service_idINS0_14strand_serviceEED2Ev, %function
_ZN4asio6detail10service_idINS0_14strand_serviceEED2Ev:
.LFB12932:
	.cfi_startproc
	ret
	.cfi_endproc
.LFE12932:
	.size	_ZN4asio6detail10service_idINS0_14strand_serviceEED2Ev, .-_ZN4asio6detail10service_idINS0_14strand_serviceEED2Ev
	.weak	_ZN4asio6detail10service_idINS0_14strand_serviceEED1Ev
	.set	_ZN4asio6detail10service_idINS0_14strand_serviceEED1Ev,_ZN4asio6detail10service_idINS0_14strand_serviceEED2Ev
	.section	.text._ZNSt23_Sp_counted_ptr_inplaceIN8asiodnp315OutstationStackESaIS1_ELN9__gnu_cxx12_Lock_policyE2EED2Ev,"axG",@progbits,_ZNSt23_Sp_counted_ptr_inplaceIN8asiodnp315OutstationStackESaIS1_ELN9__gnu_cxx12_Lock_policyE2EED5Ev,comdat
	.align	2
	.p2align 4,,11
	.weak	_ZNSt23_Sp_counted_ptr_inplaceIN8asiodnp315OutstationStackESaIS1_ELN9__gnu_cxx12_Lock_policyE2EED2Ev
	.type	_ZNSt23_Sp_counted_ptr_inplaceIN8asiodnp315OutstationStackESaIS1_ELN9__gnu_cxx12_Lock_policyE2EED2Ev, %function
_ZNSt23_Sp_counted_ptr_inplaceIN8asiodnp315OutstationStackESaIS1_ELN9__gnu_cxx12_Lock_policyE2EED2Ev:
.LFB12935:
	.cfi_startproc
	ret
	.cfi_endproc
.LFE12935:
	.size	_ZNSt23_Sp_counted_ptr_inplaceIN8asiodnp315OutstationStackESaIS1_ELN9__gnu_cxx12_Lock_policyE2EED2Ev, .-_ZNSt23_Sp_counted_ptr_inplaceIN8asiodnp315OutstationStackESaIS1_ELN9__gnu_cxx12_Lock_policyE2EED2Ev
	.weak	_ZNSt23_Sp_counted_ptr_inplaceIN8asiodnp315OutstationStackESaIS1_ELN9__gnu_cxx12_Lock_policyE2EED1Ev
	.set	_ZNSt23_Sp_counted_ptr_inplaceIN8asiodnp315OutstationStackESaIS1_ELN9__gnu_cxx12_Lock_policyE2EED1Ev,_ZNSt23_Sp_counted_ptr_inplaceIN8asiodnp315OutstationStackESaIS1_ELN9__gnu_cxx12_Lock_policyE2EED2Ev
	.section	.text._ZNSt23_Sp_counted_ptr_inplaceIN8asiodnp311MasterStackESaIS1_ELN9__gnu_cxx12_Lock_policyE2EED2Ev,"axG",@progbits,_ZNSt23_Sp_counted_ptr_inplaceIN8asiodnp311MasterStackESaIS1_ELN9__gnu_cxx12_Lock_policyE2EED5Ev,comdat
	.align	2
	.p2align 4,,11
	.weak	_ZNSt23_Sp_counted_ptr_inplaceIN8asiodnp311MasterStackESaIS1_ELN9__gnu_cxx12_Lock_policyE2EED2Ev
	.type	_ZNSt23_Sp_counted_ptr_inplaceIN8asiodnp311MasterStackESaIS1_ELN9__gnu_cxx12_Lock_policyE2EED2Ev, %function
_ZNSt23_Sp_counted_ptr_inplaceIN8asiodnp311MasterStackESaIS1_ELN9__gnu_cxx12_Lock_policyE2EED2Ev:
.LFB12942:
	.cfi_startproc
	ret
	.cfi_endproc
.LFE12942:
	.size	_ZNSt23_Sp_counted_ptr_inplaceIN8asiodnp311MasterStackESaIS1_ELN9__gnu_cxx12_Lock_policyE2EED2Ev, .-_ZNSt23_Sp_counted_ptr_inplaceIN8asiodnp311MasterStackESaIS1_ELN9__gnu_cxx12_Lock_policyE2EED2Ev
	.weak	_ZNSt23_Sp_counted_ptr_inplaceIN8asiodnp311MasterStackESaIS1_ELN9__gnu_cxx12_Lock_policyE2EED1Ev
	.set	_ZNSt23_Sp_counted_ptr_inplaceIN8asiodnp311MasterStackESaIS1_ELN9__gnu_cxx12_Lock_policyE2EED1Ev,_ZNSt23_Sp_counted_ptr_inplaceIN8asiodnp311MasterStackESaIS1_ELN9__gnu_cxx12_Lock_policyE2EED2Ev
	.section	.text._ZNSt23_Sp_counted_ptr_inplaceIN8asiodnp311MasterStackESaIS1_ELN9__gnu_cxx12_Lock_policyE2EE10_M_disposeEv,"axG",@progbits,_ZNSt23_Sp_counted_ptr_inplaceIN8asiodnp311MasterStackESaIS1_ELN9__gnu_cxx12_Lock_policyE2EE10_M_disposeEv,comdat
	.align	2
	.p2align 4,,11
	.weak	_ZNSt23_Sp_counted_ptr_inplaceIN8asiodnp311MasterStackESaIS1_ELN9__gnu_cxx12_Lock_policyE2EE10_M_disposeEv
	.type	_ZNSt23_Sp_counted_ptr_inplaceIN8asiodnp311MasterStackESaIS1_ELN9__gnu_cxx12_Lock_policyE2EE10_M_disposeEv, %function
_ZNSt23_Sp_counted_ptr_inplaceIN8asiodnp311MasterStackESaIS1_ELN9__gnu_cxx12_Lock_policyE2EE10_M_disposeEv:
.LFB12945:
	.cfi_startproc
	mov	x1, x0
	add	x0, x0, 16
	ldr	x1, [x1, 16]
	ldr	x1, [x1, 16]
	mov	x16, x1
	br	x16
	.cfi_endproc
.LFE12945:
	.size	_ZNSt23_Sp_counted_ptr_inplaceIN8asiodnp311MasterStackESaIS1_ELN9__gnu_cxx12_Lock_policyE2EE10_M_disposeEv, .-_ZNSt23_Sp_counted_ptr_inplaceIN8asiodnp311MasterStackESaIS1_ELN9__gnu_cxx12_Lock_policyE2EE10_M_disposeEv
	.section	.text._ZNSt23_Sp_counted_ptr_inplaceIN7asiopal15ResourceManagerESaIS1_ELN9__gnu_cxx12_Lock_policyE2EED2Ev,"axG",@progbits,_ZNSt23_Sp_counted_ptr_inplaceIN7asiopal15ResourceManagerESaIS1_ELN9__gnu_cxx12_Lock_policyE2EED5Ev,comdat
	.align	2
	.p2align 4,,11
	.weak	_ZNSt23_Sp_counted_ptr_inplaceIN7asiopal15ResourceManagerESaIS1_ELN9__gnu_cxx12_Lock_policyE2EED2Ev
	.type	_ZNSt23_Sp_counted_ptr_inplaceIN7asiopal15ResourceManagerESaIS1_ELN9__gnu_cxx12_Lock_policyE2EED2Ev, %function
_ZNSt23_Sp_counted_ptr_inplaceIN7asiopal15ResourceManagerESaIS1_ELN9__gnu_cxx12_Lock_policyE2EED2Ev:
.LFB12963:
	.cfi_startproc
	ret
	.cfi_endproc
.LFE12963:
	.size	_ZNSt23_Sp_counted_ptr_inplaceIN7asiopal15ResourceManagerESaIS1_ELN9__gnu_cxx12_Lock_policyE2EED2Ev, .-_ZNSt23_Sp_counted_ptr_inplaceIN7asiopal15ResourceManagerESaIS1_ELN9__gnu_cxx12_Lock_policyE2EED2Ev
	.weak	_ZNSt23_Sp_counted_ptr_inplaceIN7asiopal15ResourceManagerESaIS1_ELN9__gnu_cxx12_Lock_policyE2EED1Ev
	.set	_ZNSt23_Sp_counted_ptr_inplaceIN7asiopal15ResourceManagerESaIS1_ELN9__gnu_cxx12_Lock_policyE2EED1Ev,_ZNSt23_Sp_counted_ptr_inplaceIN7asiopal15ResourceManagerESaIS1_ELN9__gnu_cxx12_Lock_policyE2EED2Ev
	.section	.text._ZNSt23_Sp_counted_ptr_inplaceINSt13__future_base13_State_baseV2ESaIS1_ELN9__gnu_cxx12_Lock_policyE2EED2Ev,"axG",@progbits,_ZNSt23_Sp_counted_ptr_inplaceINSt13__future_base13_State_baseV2ESaIS1_ELN9__gnu_cxx12_Lock_policyE2EED5Ev,comdat
	.align	2
	.p2align 4,,11
	.weak	_ZNSt23_Sp_counted_ptr_inplaceINSt13__future_base13_State_baseV2ESaIS1_ELN9__gnu_cxx12_Lock_policyE2EED2Ev
	.type	_ZNSt23_Sp_counted_ptr_inplaceINSt13__future_base13_State_baseV2ESaIS1_ELN9__gnu_cxx12_Lock_policyE2EED2Ev, %function
_ZNSt23_Sp_counted_ptr_inplaceINSt13__future_base13_State_baseV2ESaIS1_ELN9__gnu_cxx12_Lock_policyE2EED2Ev:
.LFB12977:
	.cfi_startproc
	ret
	.cfi_endproc
.LFE12977:
	.size	_ZNSt23_Sp_counted_ptr_inplaceINSt13__future_base13_State_baseV2ESaIS1_ELN9__gnu_cxx12_Lock_policyE2EED2Ev, .-_ZNSt23_Sp_counted_ptr_inplaceINSt13__future_base13_State_baseV2ESaIS1_ELN9__gnu_cxx12_Lock_policyE2EED2Ev
	.weak	_ZNSt23_Sp_counted_ptr_inplaceINSt13__future_base13_State_baseV2ESaIS1_ELN9__gnu_cxx12_Lock_policyE2EED1Ev
	.set	_ZNSt23_Sp_counted_ptr_inplaceINSt13__future_base13_State_baseV2ESaIS1_ELN9__gnu_cxx12_Lock_policyE2EED1Ev,_ZNSt23_Sp_counted_ptr_inplaceINSt13__future_base13_State_baseV2ESaIS1_ELN9__gnu_cxx12_Lock_policyE2EED2Ev
	.section	.text._ZNSt23_Sp_counted_ptr_inplaceINSt13__future_base13_State_baseV2ESaIS1_ELN9__gnu_cxx12_Lock_policyE2EE10_M_disposeEv,"axG",@progbits,_ZNSt23_Sp_counted_ptr_inplaceINSt13__future_base13_State_baseV2ESaIS1_ELN9__gnu_cxx12_Lock_policyE2EE10_M_disposeEv,comdat
	.align	2
	.p2align 4,,11
	.weak	_ZNSt23_Sp_counted_ptr_inplaceINSt13__future_base13_State_baseV2ESaIS1_ELN9__gnu_cxx12_Lock_policyE2EE10_M_disposeEv
	.type	_ZNSt23_Sp_counted_ptr_inplaceINSt13__future_base13_State_baseV2ESaIS1_ELN9__gnu_cxx12_Lock_policyE2EE10_M_disposeEv, %function
_ZNSt23_Sp_counted_ptr_inplaceINSt13__future_base13_State_baseV2ESaIS1_ELN9__gnu_cxx12_Lock_policyE2EE10_M_disposeEv:
.LFB12980:
	.cfi_startproc
	mov	x1, x0
	add	x0, x0, 16
	ldr	x1, [x1, 16]
	ldr	x1, [x1]
	mov	x16, x1
	br	x16
	.cfi_endproc
.LFE12980:
	.size	_ZNSt23_Sp_counted_ptr_inplaceINSt13__future_base13_State_baseV2ESaIS1_ELN9__gnu_cxx12_Lock_policyE2EE10_M_disposeEv, .-_ZNSt23_Sp_counted_ptr_inplaceINSt13__future_base13_State_baseV2ESaIS1_ELN9__gnu_cxx12_Lock_policyE2EE10_M_disposeEv
	.section	.text._ZNSt23_Sp_counted_ptr_inplaceIN7openpal6Logger8SettingsESaIS2_ELN9__gnu_cxx12_Lock_policyE2EED2Ev,"axG",@progbits,_ZNSt23_Sp_counted_ptr_inplaceIN7openpal6Logger8SettingsESaIS2_ELN9__gnu_cxx12_Lock_policyE2EED5Ev,comdat
	.align	2
	.p2align 4,,11
	.weak	_ZNSt23_Sp_counted_ptr_inplaceIN7openpal6Logger8SettingsESaIS2_ELN9__gnu_cxx12_Lock_policyE2EED2Ev
	.type	_ZNSt23_Sp_counted_ptr_inplaceIN7openpal6Logger8SettingsESaIS2_ELN9__gnu_cxx12_Lock_policyE2EED2Ev, %function
_ZNSt23_Sp_counted_ptr_inplaceIN7openpal6Logger8SettingsESaIS2_ELN9__gnu_cxx12_Lock_policyE2EED2Ev:
.LFB12991:
	.cfi_startproc
	ret
	.cfi_endproc
.LFE12991:
	.size	_ZNSt23_Sp_counted_ptr_inplaceIN7openpal6Logger8SettingsESaIS2_ELN9__gnu_cxx12_Lock_policyE2EED2Ev, .-_ZNSt23_Sp_counted_ptr_inplaceIN7openpal6Logger8SettingsESaIS2_ELN9__gnu_cxx12_Lock_policyE2EED2Ev
	.weak	_ZNSt23_Sp_counted_ptr_inplaceIN7openpal6Logger8SettingsESaIS2_ELN9__gnu_cxx12_Lock_policyE2EED1Ev
	.set	_ZNSt23_Sp_counted_ptr_inplaceIN7openpal6Logger8SettingsESaIS2_ELN9__gnu_cxx12_Lock_policyE2EED1Ev,_ZNSt23_Sp_counted_ptr_inplaceIN7openpal6Logger8SettingsESaIS2_ELN9__gnu_cxx12_Lock_policyE2EED2Ev
	.section	.text._ZNSt13__future_base13_State_baseV2D0Ev,"axG",@progbits,_ZNSt13__future_base13_State_baseV2D5Ev,comdat
	.align	2
	.p2align 4,,11
	.weak	_ZNSt13__future_base13_State_baseV2D0Ev
	.type	_ZNSt13__future_base13_State_baseV2D0Ev, %function
_ZNSt13__future_base13_State_baseV2D0Ev:
.LFB12853:
	.cfi_startproc
	.cfi_personality 0x9b,DW.ref.__gxx_personality_v0
	.cfi_lsda 0x1b,.LLSDA12853
	stp	x29, x30, [sp, -32]!
	.cfi_def_cfa_offset 32
	.cfi_offset 29, -32
	.cfi_offset 30, -24
	adrp	x1, :got:_ZTVNSt13__future_base13_State_baseV2E
	mov	x29, sp
	ldr	x1, [x1, #:got_lo12:_ZTVNSt13__future_base13_State_baseV2E]
	str	x19, [sp, 16]
	.cfi_offset 19, -16
	mov	x19, x0
	ldr	x0, [x0, 8]
	add	x1, x1, 16
	str	x1, [x19]
	cbz	x0, .L40
	ldr	x1, [x0]
	ldr	x1, [x1]
	blr	x1
.L40:
	mov	x0, x19
	mov	x1, 32
	ldr	x19, [sp, 16]
	ldp	x29, x30, [sp], 32
	.cfi_restore 30
	.cfi_restore 29
	.cfi_restore 19
	.cfi_def_cfa_offset 0
	b	_ZdlPvm
	.cfi_endproc
.LFE12853:
	.section	.gcc_except_table._ZNSt13__future_base13_State_baseV2D0Ev,"aG",@progbits,_ZNSt13__future_base13_State_baseV2D5Ev,comdat
.LLSDA12853:
	.byte	0xff
	.byte	0xff
	.byte	0x1
	.uleb128 .LLSDACSE12853-.LLSDACSB12853
.LLSDACSB12853:
.LLSDACSE12853:
	.section	.text._ZNSt13__future_base13_State_baseV2D0Ev,"axG",@progbits,_ZNSt13__future_base13_State_baseV2D5Ev,comdat
	.size	_ZNSt13__future_base13_State_baseV2D0Ev, .-_ZNSt13__future_base13_State_baseV2D0Ev
	.section	.text._ZNSt23_Sp_counted_ptr_inplaceIN7openpal6Logger8SettingsESaIS2_ELN9__gnu_cxx12_Lock_policyE2EED0Ev,"axG",@progbits,_ZNSt23_Sp_counted_ptr_inplaceIN7openpal6Logger8SettingsESaIS2_ELN9__gnu_cxx12_Lock_policyE2EED5Ev,comdat
	.align	2
	.p2align 4,,11
	.weak	_ZNSt23_Sp_counted_ptr_inplaceIN7openpal6Logger8SettingsESaIS2_ELN9__gnu_cxx12_Lock_policyE2EED0Ev
	.type	_ZNSt23_Sp_counted_ptr_inplaceIN7openpal6Logger8SettingsESaIS2_ELN9__gnu_cxx12_Lock_policyE2EED0Ev, %function
_ZNSt23_Sp_counted_ptr_inplaceIN7openpal6Logger8SettingsESaIS2_ELN9__gnu_cxx12_Lock_policyE2EED0Ev:
.LFB12993:
	.cfi_startproc
	mov	x1, 56
	b	_ZdlPvm
	.cfi_endproc
.LFE12993:
	.size	_ZNSt23_Sp_counted_ptr_inplaceIN7openpal6Logger8SettingsESaIS2_ELN9__gnu_cxx12_Lock_policyE2EED0Ev, .-_ZNSt23_Sp_counted_ptr_inplaceIN7openpal6Logger8SettingsESaIS2_ELN9__gnu_cxx12_Lock_policyE2EED0Ev
	.section	.text._ZNSt23_Sp_counted_ptr_inplaceINSt13__future_base13_State_baseV2ESaIS1_ELN9__gnu_cxx12_Lock_policyE2EED0Ev,"axG",@progbits,_ZNSt23_Sp_counted_ptr_inplaceINSt13__future_base13_State_baseV2ESaIS1_ELN9__gnu_cxx12_Lock_policyE2EED5Ev,comdat
	.align	2
	.p2align 4,,11
	.weak	_ZNSt23_Sp_counted_ptr_inplaceINSt13__future_base13_State_baseV2ESaIS1_ELN9__gnu_cxx12_Lock_policyE2EED0Ev
	.type	_ZNSt23_Sp_counted_ptr_inplaceINSt13__future_base13_State_baseV2ESaIS1_ELN9__gnu_cxx12_Lock_policyE2EED0Ev, %function
_ZNSt23_Sp_counted_ptr_inplaceINSt13__future_base13_State_baseV2ESaIS1_ELN9__gnu_cxx12_Lock_policyE2EED0Ev:
.LFB12979:
	.cfi_startproc
	mov	x1, 48
	b	_ZdlPvm
	.cfi_endproc
.LFE12979:
	.size	_ZNSt23_Sp_counted_ptr_inplaceINSt13__future_base13_State_baseV2ESaIS1_ELN9__gnu_cxx12_Lock_policyE2EED0Ev, .-_ZNSt23_Sp_counted_ptr_inplaceINSt13__future_base13_State_baseV2ESaIS1_ELN9__gnu_cxx12_Lock_policyE2EED0Ev
	.section	.text._ZNSt23_Sp_counted_ptr_inplaceIN7asiopal15ResourceManagerESaIS1_ELN9__gnu_cxx12_Lock_policyE2EED0Ev,"axG",@progbits,_ZNSt23_Sp_counted_ptr_inplaceIN7asiopal15ResourceManagerESaIS1_ELN9__gnu_cxx12_Lock_policyE2EED5Ev,comdat
	.align	2
	.p2align 4,,11
	.weak	_ZNSt23_Sp_counted_ptr_inplaceIN7asiopal15ResourceManagerESaIS1_ELN9__gnu_cxx12_Lock_policyE2EED0Ev
	.type	_ZNSt23_Sp_counted_ptr_inplaceIN7asiopal15ResourceManagerESaIS1_ELN9__gnu_cxx12_Lock_policyE2EED0Ev, %function
_ZNSt23_Sp_counted_ptr_inplaceIN7asiopal15ResourceManagerESaIS1_ELN9__gnu_cxx12_Lock_policyE2EED0Ev:
.LFB12965:
	.cfi_startproc
	mov	x1, 128
	b	_ZdlPvm
	.cfi_endproc
.LFE12965:
	.size	_ZNSt23_Sp_counted_ptr_inplaceIN7asiopal15ResourceManagerESaIS1_ELN9__gnu_cxx12_Lock_policyE2EED0Ev, .-_ZNSt23_Sp_counted_ptr_inplaceIN7asiopal15ResourceManagerESaIS1_ELN9__gnu_cxx12_Lock_policyE2EED0Ev
	.section	.text._ZNSt23_Sp_counted_ptr_inplaceIN8asiodnp311MasterStackESaIS1_ELN9__gnu_cxx12_Lock_policyE2EED0Ev,"axG",@progbits,_ZNSt23_Sp_counted_ptr_inplaceIN8asiodnp311MasterStackESaIS1_ELN9__gnu_cxx12_Lock_policyE2EED5Ev,comdat
	.align	2
	.p2align 4,,11
	.weak	_ZNSt23_Sp_counted_ptr_inplaceIN8asiodnp311MasterStackESaIS1_ELN9__gnu_cxx12_Lock_policyE2EED0Ev
	.type	_ZNSt23_Sp_counted_ptr_inplaceIN8asiodnp311MasterStackESaIS1_ELN9__gnu_cxx12_Lock_policyE2EED0Ev, %function
_ZNSt23_Sp_counted_ptr_inplaceIN8asiodnp311MasterStackESaIS1_ELN9__gnu_cxx12_Lock_policyE2EED0Ev:
.LFB12944:
	.cfi_startproc
	mov	x1, 704
	b	_ZdlPvm
	.cfi_endproc
.LFE12944:
	.size	_ZNSt23_Sp_counted_ptr_inplaceIN8asiodnp311MasterStackESaIS1_ELN9__gnu_cxx12_Lock_policyE2EED0Ev, .-_ZNSt23_Sp_counted_ptr_inplaceIN8asiodnp311MasterStackESaIS1_ELN9__gnu_cxx12_Lock_policyE2EED0Ev
	.section	.text._ZNSt23_Sp_counted_ptr_inplaceIN8asiodnp315OutstationStackESaIS1_ELN9__gnu_cxx12_Lock_policyE2EED0Ev,"axG",@progbits,_ZNSt23_Sp_counted_ptr_inplaceIN8asiodnp315OutstationStackESaIS1_ELN9__gnu_cxx12_Lock_policyE2EED5Ev,comdat
	.align	2
	.p2align 4,,11
	.weak	_ZNSt23_Sp_counted_ptr_inplaceIN8asiodnp315OutstationStackESaIS1_ELN9__gnu_cxx12_Lock_policyE2EED0Ev
	.type	_ZNSt23_Sp_counted_ptr_inplaceIN8asiodnp315OutstationStackESaIS1_ELN9__gnu_cxx12_Lock_policyE2EED0Ev, %function
_ZNSt23_Sp_counted_ptr_inplaceIN8asiodnp315OutstationStackESaIS1_ELN9__gnu_cxx12_Lock_policyE2EED0Ev:
.LFB12937:
	.cfi_startproc
	mov	x1, 1120
	b	_ZdlPvm
	.cfi_endproc
.LFE12937:
	.size	_ZNSt23_Sp_counted_ptr_inplaceIN8asiodnp315OutstationStackESaIS1_ELN9__gnu_cxx12_Lock_policyE2EED0Ev, .-_ZNSt23_Sp_counted_ptr_inplaceIN8asiodnp315OutstationStackESaIS1_ELN9__gnu_cxx12_Lock_policyE2EED0Ev
	.section	.text._ZNSt23_Sp_counted_ptr_inplaceIN8asiodnp315OutstationStackESaIS1_ELN9__gnu_cxx12_Lock_policyE2EE10_M_destroyEv,"axG",@progbits,_ZNSt23_Sp_counted_ptr_inplaceIN8asiodnp315OutstationStackESaIS1_ELN9__gnu_cxx12_Lock_policyE2EE10_M_destroyEv,comdat
	.align	2
	.p2align 4,,11
	.weak	_ZNSt23_Sp_counted_ptr_inplaceIN8asiodnp315OutstationStackESaIS1_ELN9__gnu_cxx12_Lock_policyE2EE10_M_destroyEv
	.type	_ZNSt23_Sp_counted_ptr_inplaceIN8asiodnp315OutstationStackESaIS1_ELN9__gnu_cxx12_Lock_policyE2EE10_M_destroyEv, %function
_ZNSt23_Sp_counted_ptr_inplaceIN8asiodnp315OutstationStackESaIS1_ELN9__gnu_cxx12_Lock_policyE2EE10_M_destroyEv:
.LFB12939:
	.cfi_startproc
	mov	x1, 1120
	b	_ZdlPvm
	.cfi_endproc
.LFE12939:
	.size	_ZNSt23_Sp_counted_ptr_inplaceIN8asiodnp315OutstationStackESaIS1_ELN9__gnu_cxx12_Lock_policyE2EE10_M_destroyEv, .-_ZNSt23_Sp_counted_ptr_inplaceIN8asiodnp315OutstationStackESaIS1_ELN9__gnu_cxx12_Lock_policyE2EE10_M_destroyEv
	.section	.text._ZNSt23_Sp_counted_ptr_inplaceIN8asiodnp311MasterStackESaIS1_ELN9__gnu_cxx12_Lock_policyE2EE10_M_destroyEv,"axG",@progbits,_ZNSt23_Sp_counted_ptr_inplaceIN8asiodnp311MasterStackESaIS1_ELN9__gnu_cxx12_Lock_policyE2EE10_M_destroyEv,comdat
	.align	2
	.p2align 4,,11
	.weak	_ZNSt23_Sp_counted_ptr_inplaceIN8asiodnp311MasterStackESaIS1_ELN9__gnu_cxx12_Lock_policyE2EE10_M_destroyEv
	.type	_ZNSt23_Sp_counted_ptr_inplaceIN8asiodnp311MasterStackESaIS1_ELN9__gnu_cxx12_Lock_policyE2EE10_M_destroyEv, %function
_ZNSt23_Sp_counted_ptr_inplaceIN8asiodnp311MasterStackESaIS1_ELN9__gnu_cxx12_Lock_policyE2EE10_M_destroyEv:
.LFB12946:
	.cfi_startproc
	mov	x1, 704
	b	_ZdlPvm
	.cfi_endproc
.LFE12946:
	.size	_ZNSt23_Sp_counted_ptr_inplaceIN8asiodnp311MasterStackESaIS1_ELN9__gnu_cxx12_Lock_policyE2EE10_M_destroyEv, .-_ZNSt23_Sp_counted_ptr_inplaceIN8asiodnp311MasterStackESaIS1_ELN9__gnu_cxx12_Lock_policyE2EE10_M_destroyEv
	.section	.text._ZNSt23_Sp_counted_ptr_inplaceIN7asiopal15ResourceManagerESaIS1_ELN9__gnu_cxx12_Lock_policyE2EE10_M_destroyEv,"axG",@progbits,_ZNSt23_Sp_counted_ptr_inplaceIN7asiopal15ResourceManagerESaIS1_ELN9__gnu_cxx12_Lock_policyE2EE10_M_destroyEv,comdat
	.align	2
	.p2align 4,,11
	.weak	_ZNSt23_Sp_counted_ptr_inplaceIN7asiopal15ResourceManagerESaIS1_ELN9__gnu_cxx12_Lock_policyE2EE10_M_destroyEv
	.type	_ZNSt23_Sp_counted_ptr_inplaceIN7asiopal15ResourceManagerESaIS1_ELN9__gnu_cxx12_Lock_policyE2EE10_M_destroyEv, %function
_ZNSt23_Sp_counted_ptr_inplaceIN7asiopal15ResourceManagerESaIS1_ELN9__gnu_cxx12_Lock_policyE2EE10_M_destroyEv:
.LFB12967:
	.cfi_startproc
	mov	x1, 128
	b	_ZdlPvm
	.cfi_endproc
.LFE12967:
	.size	_ZNSt23_Sp_counted_ptr_inplaceIN7asiopal15ResourceManagerESaIS1_ELN9__gnu_cxx12_Lock_policyE2EE10_M_destroyEv, .-_ZNSt23_Sp_counted_ptr_inplaceIN7asiopal15ResourceManagerESaIS1_ELN9__gnu_cxx12_Lock_policyE2EE10_M_destroyEv
	.section	.text._ZNSt23_Sp_counted_ptr_inplaceINSt13__future_base13_State_baseV2ESaIS1_ELN9__gnu_cxx12_Lock_policyE2EE10_M_destroyEv,"axG",@progbits,_ZNSt23_Sp_counted_ptr_inplaceINSt13__future_base13_State_baseV2ESaIS1_ELN9__gnu_cxx12_Lock_policyE2EE10_M_destroyEv,comdat
	.align	2
	.p2align 4,,11
	.weak	_ZNSt23_Sp_counted_ptr_inplaceINSt13__future_base13_State_baseV2ESaIS1_ELN9__gnu_cxx12_Lock_policyE2EE10_M_destroyEv
	.type	_ZNSt23_Sp_counted_ptr_inplaceINSt13__future_base13_State_baseV2ESaIS1_ELN9__gnu_cxx12_Lock_policyE2EE10_M_destroyEv, %function
_ZNSt23_Sp_counted_ptr_inplaceINSt13__future_base13_State_baseV2ESaIS1_ELN9__gnu_cxx12_Lock_policyE2EE10_M_destroyEv:
.LFB12981:
	.cfi_startproc
	mov	x1, 48
	b	_ZdlPvm
	.cfi_endproc
.LFE12981:
	.size	_ZNSt23_Sp_counted_ptr_inplaceINSt13__future_base13_State_baseV2ESaIS1_ELN9__gnu_cxx12_Lock_policyE2EE10_M_destroyEv, .-_ZNSt23_Sp_counted_ptr_inplaceINSt13__future_base13_State_baseV2ESaIS1_ELN9__gnu_cxx12_Lock_policyE2EE10_M_destroyEv
	.section	.text._ZNSt23_Sp_counted_ptr_inplaceIN7openpal6Logger8SettingsESaIS2_ELN9__gnu_cxx12_Lock_policyE2EE10_M_destroyEv,"axG",@progbits,_ZNSt23_Sp_counted_ptr_inplaceIN7openpal6Logger8SettingsESaIS2_ELN9__gnu_cxx12_Lock_policyE2EE10_M_destroyEv,comdat
	.align	2
	.p2align 4,,11
	.weak	_ZNSt23_Sp_counted_ptr_inplaceIN7openpal6Logger8SettingsESaIS2_ELN9__gnu_cxx12_Lock_policyE2EE10_M_destroyEv
	.type	_ZNSt23_Sp_counted_ptr_inplaceIN7openpal6Logger8SettingsESaIS2_ELN9__gnu_cxx12_Lock_policyE2EE10_M_destroyEv, %function
_ZNSt23_Sp_counted_ptr_inplaceIN7openpal6Logger8SettingsESaIS2_ELN9__gnu_cxx12_Lock_policyE2EE10_M_destroyEv:
.LFB12995:
	.cfi_startproc
	mov	x1, 56
	b	_ZdlPvm
	.cfi_endproc
.LFE12995:
	.size	_ZNSt23_Sp_counted_ptr_inplaceIN7openpal6Logger8SettingsESaIS2_ELN9__gnu_cxx12_Lock_policyE2EE10_M_destroyEv, .-_ZNSt23_Sp_counted_ptr_inplaceIN7openpal6Logger8SettingsESaIS2_ELN9__gnu_cxx12_Lock_policyE2EE10_M_destroyEv
	.section	.text._ZNSt23_Sp_counted_ptr_inplaceIN7openpal6Logger8SettingsESaIS2_ELN9__gnu_cxx12_Lock_policyE2EE10_M_disposeEv,"axG",@progbits,_ZNSt23_Sp_counted_ptr_inplaceIN7openpal6Logger8SettingsESaIS2_ELN9__gnu_cxx12_Lock_policyE2EE10_M_disposeEv,comdat
	.align	2
	.p2align 4,,11
	.weak	_ZNSt23_Sp_counted_ptr_inplaceIN7openpal6Logger8SettingsESaIS2_ELN9__gnu_cxx12_Lock_policyE2EE10_M_disposeEv
	.type	_ZNSt23_Sp_counted_ptr_inplaceIN7openpal6Logger8SettingsESaIS2_ELN9__gnu_cxx12_Lock_policyE2EE10_M_disposeEv, %function
_ZNSt23_Sp_counted_ptr_inplaceIN7openpal6Logger8SettingsESaIS2_ELN9__gnu_cxx12_Lock_policyE2EE10_M_disposeEv:
.LFB12994:
	.cfi_startproc
	add	x1, x0, 32
	add	x2, x0, 16
	ldr	x0, [x0, 16]
	cmp	x0, x1
	beq	.L55
	ldr	x1, [x2, 16]
	add	x1, x1, 1
	b	_ZdlPvm
	.p2align 2,,3
.L55:
	ret
	.cfi_endproc
.LFE12994:
	.size	_ZNSt23_Sp_counted_ptr_inplaceIN7openpal6Logger8SettingsESaIS2_ELN9__gnu_cxx12_Lock_policyE2EE10_M_disposeEv, .-_ZNSt23_Sp_counted_ptr_inplaceIN7openpal6Logger8SettingsESaIS2_ELN9__gnu_cxx12_Lock_policyE2EE10_M_disposeEv
	.section	.text._ZN7openpal5ArrayIhjED2Ev,"axG",@progbits,_ZN7openpal5ArrayIhjED5Ev,comdat
	.align	2
	.p2align 4,,11
	.weak	_ZN7openpal5ArrayIhjED2Ev
	.type	_ZN7openpal5ArrayIhjED2Ev, %function
_ZN7openpal5ArrayIhjED2Ev:
.LFB9731:
	.cfi_startproc
	adrp	x1, :got:_ZTVN7openpal5ArrayIhjEE
	mov	x2, x0
	ldr	x0, [x0, 16]
	ldr	x1, [x1, #:got_lo12:_ZTVN7openpal5ArrayIhjEE]
	add	x1, x1, 16
	str	x1, [x2]
	cbz	x0, .L57
	b	_ZdaPv
	.p2align 2,,3
.L57:
	ret
	.cfi_endproc
.LFE9731:
	.size	_ZN7openpal5ArrayIhjED2Ev, .-_ZN7openpal5ArrayIhjED2Ev
	.weak	_ZN7openpal5ArrayIhjED1Ev
	.set	_ZN7openpal5ArrayIhjED1Ev,_ZN7openpal5ArrayIhjED2Ev
	.section	.text._ZN7openpal5ArrayIhjED0Ev,"axG",@progbits,_ZN7openpal5ArrayIhjED5Ev,comdat
	.align	2
	.p2align 4,,11
	.weak	_ZN7openpal5ArrayIhjED0Ev
	.type	_ZN7openpal5ArrayIhjED0Ev, %function
_ZN7openpal5ArrayIhjED0Ev:
.LFB9733:
	.cfi_startproc
	stp	x29, x30, [sp, -32]!
	.cfi_def_cfa_offset 32
	.cfi_offset 29, -32
	.cfi_offset 30, -24
	adrp	x1, :got:_ZTVN7openpal5ArrayIhjEE
	mov	x29, sp
	ldr	x1, [x1, #:got_lo12:_ZTVN7openpal5ArrayIhjEE]
	str	x19, [sp, 16]
	.cfi_offset 19, -16
	mov	x19, x0
	ldr	x0, [x0, 16]
	add	x1, x1, 16
	str	x1, [x19]
	cbz	x0, .L60
	bl	_ZdaPv
.L60:
	mov	x0, x19
	mov	x1, 24
	ldr	x19, [sp, 16]
	ldp	x29, x30, [sp], 32
	.cfi_restore 30
	.cfi_restore 29
	.cfi_restore 19
	.cfi_def_cfa_offset 0
	b	_ZdlPvm
	.cfi_endproc
.LFE9733:
	.size	_ZN7openpal5ArrayIhjED0Ev, .-_ZN7openpal5ArrayIhjED0Ev
	.section	.text._ZN7openpal5ArrayIN8opendnp34CellINS1_19TimeAndIntervalSpecEEEtED2Ev,"axG",@progbits,_ZN7openpal5ArrayIN8opendnp34CellINS1_19TimeAndIntervalSpecEEEtED5Ev,comdat
	.align	2
	.p2align 4,,11
	.weak	_ZN7openpal5ArrayIN8opendnp34CellINS1_19TimeAndIntervalSpecEEEtED2Ev
	.type	_ZN7openpal5ArrayIN8opendnp34CellINS1_19TimeAndIntervalSpecEEEtED2Ev, %function
_ZN7openpal5ArrayIN8opendnp34CellINS1_19TimeAndIntervalSpecEEEtED2Ev:
.LFB13270:
	.cfi_startproc
	adrp	x1, :got:_ZTVN7openpal5ArrayIN8opendnp34CellINS1_19TimeAndIntervalSpecEEEtEE
	mov	x2, x0
	ldr	x0, [x0, 16]
	ldr	x1, [x1, #:got_lo12:_ZTVN7openpal5ArrayIN8opendnp34CellINS1_19TimeAndIntervalSpecEEEtEE]
	add	x1, x1, 16
	str	x1, [x2]
	cbz	x0, .L65
	b	_ZdaPv
	.p2align 2,,3
.L65:
	ret
	.cfi_endproc
.LFE13270:
	.size	_ZN7openpal5ArrayIN8opendnp34CellINS1_19TimeAndIntervalSpecEEEtED2Ev, .-_ZN7openpal5ArrayIN8opendnp34CellINS1_19TimeAndIntervalSpecEEEtED2Ev
	.weak	_ZN7openpal5ArrayIN8opendnp34CellINS1_19TimeAndIntervalSpecEEEtED1Ev
	.set	_ZN7openpal5ArrayIN8opendnp34CellINS1_19TimeAndIntervalSpecEEEtED1Ev,_ZN7openpal5ArrayIN8opendnp34CellINS1_19TimeAndIntervalSpecEEEtED2Ev
	.section	.text._ZN7openpal5ArrayIN8opendnp34CellINS1_19TimeAndIntervalSpecEEEtED0Ev,"axG",@progbits,_ZN7openpal5ArrayIN8opendnp34CellINS1_19TimeAndIntervalSpecEEEtED5Ev,comdat
	.align	2
	.p2align 4,,11
	.weak	_ZN7openpal5ArrayIN8opendnp34CellINS1_19TimeAndIntervalSpecEEEtED0Ev
	.type	_ZN7openpal5ArrayIN8opendnp34CellINS1_19TimeAndIntervalSpecEEEtED0Ev, %function
_ZN7openpal5ArrayIN8opendnp34CellINS1_19TimeAndIntervalSpecEEEtED0Ev:
.LFB13272:
	.cfi_startproc
	stp	x29, x30, [sp, -32]!
	.cfi_def_cfa_offset 32
	.cfi_offset 29, -32
	.cfi_offset 30, -24
	adrp	x1, :got:_ZTVN7openpal5ArrayIN8opendnp34CellINS1_19TimeAndIntervalSpecEEEtEE
	mov	x29, sp
	ldr	x1, [x1, #:got_lo12:_ZTVN7openpal5ArrayIN8opendnp34CellINS1_19TimeAndIntervalSpecEEEtEE]
	str	x19, [sp, 16]
	.cfi_offset 19, -16
	mov	x19, x0
	ldr	x0, [x0, 16]
	add	x1, x1, 16
	str	x1, [x19]
	cbz	x0, .L68
	bl	_ZdaPv
.L68:
	mov	x0, x19
	mov	x1, 24
	ldr	x19, [sp, 16]
	ldp	x29, x30, [sp], 32
	.cfi_restore 30
	.cfi_restore 29
	.cfi_restore 19
	.cfi_def_cfa_offset 0
	b	_ZdlPvm
	.cfi_endproc
.LFE13272:
	.size	_ZN7openpal5ArrayIN8opendnp34CellINS1_19TimeAndIntervalSpecEEEtED0Ev, .-_ZN7openpal5ArrayIN8opendnp34CellINS1_19TimeAndIntervalSpecEEEtED0Ev
	.section	.text._ZN7openpal5ArrayIN8opendnp34CellINS1_22AnalogOutputStatusSpecEEEtED2Ev,"axG",@progbits,_ZN7openpal5ArrayIN8opendnp34CellINS1_22AnalogOutputStatusSpecEEEtED5Ev,comdat
	.align	2
	.p2align 4,,11
	.weak	_ZN7openpal5ArrayIN8opendnp34CellINS1_22AnalogOutputStatusSpecEEEtED2Ev
	.type	_ZN7openpal5ArrayIN8opendnp34CellINS1_22AnalogOutputStatusSpecEEEtED2Ev, %function
_ZN7openpal5ArrayIN8opendnp34CellINS1_22AnalogOutputStatusSpecEEEtED2Ev:
.LFB13266:
	.cfi_startproc
	adrp	x1, :got:_ZTVN7openpal5ArrayIN8opendnp34CellINS1_22AnalogOutputStatusSpecEEEtEE
	mov	x2, x0
	ldr	x0, [x0, 16]
	ldr	x1, [x1, #:got_lo12:_ZTVN7openpal5ArrayIN8opendnp34CellINS1_22AnalogOutputStatusSpecEEEtEE]
	add	x1, x1, 16
	str	x1, [x2]
	cbz	x0, .L73
	b	_ZdaPv
	.p2align 2,,3
.L73:
	ret
	.cfi_endproc
.LFE13266:
	.size	_ZN7openpal5ArrayIN8opendnp34CellINS1_22AnalogOutputStatusSpecEEEtED2Ev, .-_ZN7openpal5ArrayIN8opendnp34CellINS1_22AnalogOutputStatusSpecEEEtED2Ev
	.weak	_ZN7openpal5ArrayIN8opendnp34CellINS1_22AnalogOutputStatusSpecEEEtED1Ev
	.set	_ZN7openpal5ArrayIN8opendnp34CellINS1_22AnalogOutputStatusSpecEEEtED1Ev,_ZN7openpal5ArrayIN8opendnp34CellINS1_22AnalogOutputStatusSpecEEEtED2Ev
	.section	.text._ZN7openpal5ArrayIN8opendnp34CellINS1_22AnalogOutputStatusSpecEEEtED0Ev,"axG",@progbits,_ZN7openpal5ArrayIN8opendnp34CellINS1_22AnalogOutputStatusSpecEEEtED5Ev,comdat
	.align	2
	.p2align 4,,11
	.weak	_ZN7openpal5ArrayIN8opendnp34CellINS1_22AnalogOutputStatusSpecEEEtED0Ev
	.type	_ZN7openpal5ArrayIN8opendnp34CellINS1_22AnalogOutputStatusSpecEEEtED0Ev, %function
_ZN7openpal5ArrayIN8opendnp34CellINS1_22AnalogOutputStatusSpecEEEtED0Ev:
.LFB13268:
	.cfi_startproc
	stp	x29, x30, [sp, -32]!
	.cfi_def_cfa_offset 32
	.cfi_offset 29, -32
	.cfi_offset 30, -24
	adrp	x1, :got:_ZTVN7openpal5ArrayIN8opendnp34CellINS1_22AnalogOutputStatusSpecEEEtEE
	mov	x29, sp
	ldr	x1, [x1, #:got_lo12:_ZTVN7openpal5ArrayIN8opendnp34CellINS1_22AnalogOutputStatusSpecEEEtEE]
	str	x19, [sp, 16]
	.cfi_offset 19, -16
	mov	x19, x0
	ldr	x0, [x0, 16]
	add	x1, x1, 16
	str	x1, [x19]
	cbz	x0, .L76
	bl	_ZdaPv
.L76:
	mov	x0, x19
	mov	x1, 24
	ldr	x19, [sp, 16]
	ldp	x29, x30, [sp], 32
	.cfi_restore 30
	.cfi_restore 29
	.cfi_restore 19
	.cfi_def_cfa_offset 0
	b	_ZdlPvm
	.cfi_endproc
.LFE13268:
	.size	_ZN7openpal5ArrayIN8opendnp34CellINS1_22AnalogOutputStatusSpecEEEtED0Ev, .-_ZN7openpal5ArrayIN8opendnp34CellINS1_22AnalogOutputStatusSpecEEEtED0Ev
	.section	.text._ZN7openpal5ArrayIN8opendnp34CellINS1_22BinaryOutputStatusSpecEEEtED2Ev,"axG",@progbits,_ZN7openpal5ArrayIN8opendnp34CellINS1_22BinaryOutputStatusSpecEEEtED5Ev,comdat
	.align	2
	.p2align 4,,11
	.weak	_ZN7openpal5ArrayIN8opendnp34CellINS1_22BinaryOutputStatusSpecEEEtED2Ev
	.type	_ZN7openpal5ArrayIN8opendnp34CellINS1_22BinaryOutputStatusSpecEEEtED2Ev, %function
_ZN7openpal5ArrayIN8opendnp34CellINS1_22BinaryOutputStatusSpecEEEtED2Ev:
.LFB13262:
	.cfi_startproc
	adrp	x1, :got:_ZTVN7openpal5ArrayIN8opendnp34CellINS1_22BinaryOutputStatusSpecEEEtEE
	mov	x2, x0
	ldr	x0, [x0, 16]
	ldr	x1, [x1, #:got_lo12:_ZTVN7openpal5ArrayIN8opendnp34CellINS1_22BinaryOutputStatusSpecEEEtEE]
	add	x1, x1, 16
	str	x1, [x2]
	cbz	x0, .L81
	b	_ZdaPv
	.p2align 2,,3
.L81:
	ret
	.cfi_endproc
.LFE13262:
	.size	_ZN7openpal5ArrayIN8opendnp34CellINS1_22BinaryOutputStatusSpecEEEtED2Ev, .-_ZN7openpal5ArrayIN8opendnp34CellINS1_22BinaryOutputStatusSpecEEEtED2Ev
	.weak	_ZN7openpal5ArrayIN8opendnp34CellINS1_22BinaryOutputStatusSpecEEEtED1Ev
	.set	_ZN7openpal5ArrayIN8opendnp34CellINS1_22BinaryOutputStatusSpecEEEtED1Ev,_ZN7openpal5ArrayIN8opendnp34CellINS1_22BinaryOutputStatusSpecEEEtED2Ev
	.section	.text._ZN7openpal5ArrayIN8opendnp34CellINS1_22BinaryOutputStatusSpecEEEtED0Ev,"axG",@progbits,_ZN7openpal5ArrayIN8opendnp34CellINS1_22BinaryOutputStatusSpecEEEtED5Ev,comdat
	.align	2
	.p2align 4,,11
	.weak	_ZN7openpal5ArrayIN8opendnp34CellINS1_22BinaryOutputStatusSpecEEEtED0Ev
	.type	_ZN7openpal5ArrayIN8opendnp34CellINS1_22BinaryOutputStatusSpecEEEtED0Ev, %function
_ZN7openpal5ArrayIN8opendnp34CellINS1_22BinaryOutputStatusSpecEEEtED0Ev:
.LFB13264:
	.cfi_startproc
	stp	x29, x30, [sp, -32]!
	.cfi_def_cfa_offset 32
	.cfi_offset 29, -32
	.cfi_offset 30, -24
	adrp	x1, :got:_ZTVN7openpal5ArrayIN8opendnp34CellINS1_22BinaryOutputStatusSpecEEEtEE
	mov	x29, sp
	ldr	x1, [x1, #:got_lo12:_ZTVN7openpal5ArrayIN8opendnp34CellINS1_22BinaryOutputStatusSpecEEEtEE]
	str	x19, [sp, 16]
	.cfi_offset 19, -16
	mov	x19, x0
	ldr	x0, [x0, 16]
	add	x1, x1, 16
	str	x1, [x19]
	cbz	x0, .L84
	bl	_ZdaPv
.L84:
	mov	x0, x19
	mov	x1, 24
	ldr	x19, [sp, 16]
	ldp	x29, x30, [sp], 32
	.cfi_restore 30
	.cfi_restore 29
	.cfi_restore 19
	.cfi_def_cfa_offset 0
	b	_ZdlPvm
	.cfi_endproc
.LFE13264:
	.size	_ZN7openpal5ArrayIN8opendnp34CellINS1_22BinaryOutputStatusSpecEEEtED0Ev, .-_ZN7openpal5ArrayIN8opendnp34CellINS1_22BinaryOutputStatusSpecEEEtED0Ev
	.section	.text._ZN7openpal5ArrayIN8opendnp34CellINS1_17FrozenCounterSpecEEEtED2Ev,"axG",@progbits,_ZN7openpal5ArrayIN8opendnp34CellINS1_17FrozenCounterSpecEEEtED5Ev,comdat
	.align	2
	.p2align 4,,11
	.weak	_ZN7openpal5ArrayIN8opendnp34CellINS1_17FrozenCounterSpecEEEtED2Ev
	.type	_ZN7openpal5ArrayIN8opendnp34CellINS1_17FrozenCounterSpecEEEtED2Ev, %function
_ZN7openpal5ArrayIN8opendnp34CellINS1_17FrozenCounterSpecEEEtED2Ev:
.LFB13258:
	.cfi_startproc
	adrp	x1, :got:_ZTVN7openpal5ArrayIN8opendnp34CellINS1_17FrozenCounterSpecEEEtEE
	mov	x2, x0
	ldr	x0, [x0, 16]
	ldr	x1, [x1, #:got_lo12:_ZTVN7openpal5ArrayIN8opendnp34CellINS1_17FrozenCounterSpecEEEtEE]
	add	x1, x1, 16
	str	x1, [x2]
	cbz	x0, .L89
	b	_ZdaPv
	.p2align 2,,3
.L89:
	ret
	.cfi_endproc
.LFE13258:
	.size	_ZN7openpal5ArrayIN8opendnp34CellINS1_17FrozenCounterSpecEEEtED2Ev, .-_ZN7openpal5ArrayIN8opendnp34CellINS1_17FrozenCounterSpecEEEtED2Ev
	.weak	_ZN7openpal5ArrayIN8opendnp34CellINS1_17FrozenCounterSpecEEEtED1Ev
	.set	_ZN7openpal5ArrayIN8opendnp34CellINS1_17FrozenCounterSpecEEEtED1Ev,_ZN7openpal5ArrayIN8opendnp34CellINS1_17FrozenCounterSpecEEEtED2Ev
	.section	.text._ZN7openpal5ArrayIN8opendnp34CellINS1_17FrozenCounterSpecEEEtED0Ev,"axG",@progbits,_ZN7openpal5ArrayIN8opendnp34CellINS1_17FrozenCounterSpecEEEtED5Ev,comdat
	.align	2
	.p2align 4,,11
	.weak	_ZN7openpal5ArrayIN8opendnp34CellINS1_17FrozenCounterSpecEEEtED0Ev
	.type	_ZN7openpal5ArrayIN8opendnp34CellINS1_17FrozenCounterSpecEEEtED0Ev, %function
_ZN7openpal5ArrayIN8opendnp34CellINS1_17FrozenCounterSpecEEEtED0Ev:
.LFB13260:
	.cfi_startproc
	stp	x29, x30, [sp, -32]!
	.cfi_def_cfa_offset 32
	.cfi_offset 29, -32
	.cfi_offset 30, -24
	adrp	x1, :got:_ZTVN7openpal5ArrayIN8opendnp34CellINS1_17FrozenCounterSpecEEEtEE
	mov	x29, sp
	ldr	x1, [x1, #:got_lo12:_ZTVN7openpal5ArrayIN8opendnp34CellINS1_17FrozenCounterSpecEEEtEE]
	str	x19, [sp, 16]
	.cfi_offset 19, -16
	mov	x19, x0
	ldr	x0, [x0, 16]
	add	x1, x1, 16
	str	x1, [x19]
	cbz	x0, .L92
	bl	_ZdaPv
.L92:
	mov	x0, x19
	mov	x1, 24
	ldr	x19, [sp, 16]
	ldp	x29, x30, [sp], 32
	.cfi_restore 30
	.cfi_restore 29
	.cfi_restore 19
	.cfi_def_cfa_offset 0
	b	_ZdlPvm
	.cfi_endproc
.LFE13260:
	.size	_ZN7openpal5ArrayIN8opendnp34CellINS1_17FrozenCounterSpecEEEtED0Ev, .-_ZN7openpal5ArrayIN8opendnp34CellINS1_17FrozenCounterSpecEEEtED0Ev
	.section	.text._ZN7openpal5ArrayIN8opendnp34CellINS1_11CounterSpecEEEtED2Ev,"axG",@progbits,_ZN7openpal5ArrayIN8opendnp34CellINS1_11CounterSpecEEEtED5Ev,comdat
	.align	2
	.p2align 4,,11
	.weak	_ZN7openpal5ArrayIN8opendnp34CellINS1_11CounterSpecEEEtED2Ev
	.type	_ZN7openpal5ArrayIN8opendnp34CellINS1_11CounterSpecEEEtED2Ev, %function
_ZN7openpal5ArrayIN8opendnp34CellINS1_11CounterSpecEEEtED2Ev:
.LFB13254:
	.cfi_startproc
	adrp	x1, :got:_ZTVN7openpal5ArrayIN8opendnp34CellINS1_11CounterSpecEEEtEE
	mov	x2, x0
	ldr	x0, [x0, 16]
	ldr	x1, [x1, #:got_lo12:_ZTVN7openpal5ArrayIN8opendnp34CellINS1_11CounterSpecEEEtEE]
	add	x1, x1, 16
	str	x1, [x2]
	cbz	x0, .L97
	b	_ZdaPv
	.p2align 2,,3
.L97:
	ret
	.cfi_endproc
.LFE13254:
	.size	_ZN7openpal5ArrayIN8opendnp34CellINS1_11CounterSpecEEEtED2Ev, .-_ZN7openpal5ArrayIN8opendnp34CellINS1_11CounterSpecEEEtED2Ev
	.weak	_ZN7openpal5ArrayIN8opendnp34CellINS1_11CounterSpecEEEtED1Ev
	.set	_ZN7openpal5ArrayIN8opendnp34CellINS1_11CounterSpecEEEtED1Ev,_ZN7openpal5ArrayIN8opendnp34CellINS1_11CounterSpecEEEtED2Ev
	.section	.text._ZN7openpal5ArrayIN8opendnp34CellINS1_11CounterSpecEEEtED0Ev,"axG",@progbits,_ZN7openpal5ArrayIN8opendnp34CellINS1_11CounterSpecEEEtED5Ev,comdat
	.align	2
	.p2align 4,,11
	.weak	_ZN7openpal5ArrayIN8opendnp34CellINS1_11CounterSpecEEEtED0Ev
	.type	_ZN7openpal5ArrayIN8opendnp34CellINS1_11CounterSpecEEEtED0Ev, %function
_ZN7openpal5ArrayIN8opendnp34CellINS1_11CounterSpecEEEtED0Ev:
.LFB13256:
	.cfi_startproc
	stp	x29, x30, [sp, -32]!
	.cfi_def_cfa_offset 32
	.cfi_offset 29, -32
	.cfi_offset 30, -24
	adrp	x1, :got:_ZTVN7openpal5ArrayIN8opendnp34CellINS1_11CounterSpecEEEtEE
	mov	x29, sp
	ldr	x1, [x1, #:got_lo12:_ZTVN7openpal5ArrayIN8opendnp34CellINS1_11CounterSpecEEEtEE]
	str	x19, [sp, 16]
	.cfi_offset 19, -16
	mov	x19, x0
	ldr	x0, [x0, 16]
	add	x1, x1, 16
	str	x1, [x19]
	cbz	x0, .L100
	bl	_ZdaPv
.L100:
	mov	x0, x19
	mov	x1, 24
	ldr	x19, [sp, 16]
	ldp	x29, x30, [sp], 32
	.cfi_restore 30
	.cfi_restore 29
	.cfi_restore 19
	.cfi_def_cfa_offset 0
	b	_ZdlPvm
	.cfi_endproc
.LFE13256:
	.size	_ZN7openpal5ArrayIN8opendnp34CellINS1_11CounterSpecEEEtED0Ev, .-_ZN7openpal5ArrayIN8opendnp34CellINS1_11CounterSpecEEEtED0Ev
	.section	.text._ZN7openpal5ArrayIN8opendnp34CellINS1_10AnalogSpecEEEtED2Ev,"axG",@progbits,_ZN7openpal5ArrayIN8opendnp34CellINS1_10AnalogSpecEEEtED5Ev,comdat
	.align	2
	.p2align 4,,11
	.weak	_ZN7openpal5ArrayIN8opendnp34CellINS1_10AnalogSpecEEEtED2Ev
	.type	_ZN7openpal5ArrayIN8opendnp34CellINS1_10AnalogSpecEEEtED2Ev, %function
_ZN7openpal5ArrayIN8opendnp34CellINS1_10AnalogSpecEEEtED2Ev:
.LFB13250:
	.cfi_startproc
	adrp	x1, :got:_ZTVN7openpal5ArrayIN8opendnp34CellINS1_10AnalogSpecEEEtEE
	mov	x2, x0
	ldr	x0, [x0, 16]
	ldr	x1, [x1, #:got_lo12:_ZTVN7openpal5ArrayIN8opendnp34CellINS1_10AnalogSpecEEEtEE]
	add	x1, x1, 16
	str	x1, [x2]
	cbz	x0, .L105
	b	_ZdaPv
	.p2align 2,,3
.L105:
	ret
	.cfi_endproc
.LFE13250:
	.size	_ZN7openpal5ArrayIN8opendnp34CellINS1_10AnalogSpecEEEtED2Ev, .-_ZN7openpal5ArrayIN8opendnp34CellINS1_10AnalogSpecEEEtED2Ev
	.weak	_ZN7openpal5ArrayIN8opendnp34CellINS1_10AnalogSpecEEEtED1Ev
	.set	_ZN7openpal5ArrayIN8opendnp34CellINS1_10AnalogSpecEEEtED1Ev,_ZN7openpal5ArrayIN8opendnp34CellINS1_10AnalogSpecEEEtED2Ev
	.section	.text._ZN7openpal5ArrayIN8opendnp34CellINS1_10AnalogSpecEEEtED0Ev,"axG",@progbits,_ZN7openpal5ArrayIN8opendnp34CellINS1_10AnalogSpecEEEtED5Ev,comdat
	.align	2
	.p2align 4,,11
	.weak	_ZN7openpal5ArrayIN8opendnp34CellINS1_10AnalogSpecEEEtED0Ev
	.type	_ZN7openpal5ArrayIN8opendnp34CellINS1_10AnalogSpecEEEtED0Ev, %function
_ZN7openpal5ArrayIN8opendnp34CellINS1_10AnalogSpecEEEtED0Ev:
.LFB13252:
	.cfi_startproc
	stp	x29, x30, [sp, -32]!
	.cfi_def_cfa_offset 32
	.cfi_offset 29, -32
	.cfi_offset 30, -24
	adrp	x1, :got:_ZTVN7openpal5ArrayIN8opendnp34CellINS1_10AnalogSpecEEEtEE
	mov	x29, sp
	ldr	x1, [x1, #:got_lo12:_ZTVN7openpal5ArrayIN8opendnp34CellINS1_10AnalogSpecEEEtEE]
	str	x19, [sp, 16]
	.cfi_offset 19, -16
	mov	x19, x0
	ldr	x0, [x0, 16]
	add	x1, x1, 16
	str	x1, [x19]
	cbz	x0, .L108
	bl	_ZdaPv
.L108:
	mov	x0, x19
	mov	x1, 24
	ldr	x19, [sp, 16]
	ldp	x29, x30, [sp], 32
	.cfi_restore 30
	.cfi_restore 29
	.cfi_restore 19
	.cfi_def_cfa_offset 0
	b	_ZdlPvm
	.cfi_endproc
.LFE13252:
	.size	_ZN7openpal5ArrayIN8opendnp34CellINS1_10AnalogSpecEEEtED0Ev, .-_ZN7openpal5ArrayIN8opendnp34CellINS1_10AnalogSpecEEEtED0Ev
	.section	.text._ZN7openpal5ArrayIN8opendnp34CellINS1_19DoubleBitBinarySpecEEEtED2Ev,"axG",@progbits,_ZN7openpal5ArrayIN8opendnp34CellINS1_19DoubleBitBinarySpecEEEtED5Ev,comdat
	.align	2
	.p2align 4,,11
	.weak	_ZN7openpal5ArrayIN8opendnp34CellINS1_19DoubleBitBinarySpecEEEtED2Ev
	.type	_ZN7openpal5ArrayIN8opendnp34CellINS1_19DoubleBitBinarySpecEEEtED2Ev, %function
_ZN7openpal5ArrayIN8opendnp34CellINS1_19DoubleBitBinarySpecEEEtED2Ev:
.LFB13246:
	.cfi_startproc
	adrp	x1, :got:_ZTVN7openpal5ArrayIN8opendnp34CellINS1_19DoubleBitBinarySpecEEEtEE
	mov	x2, x0
	ldr	x0, [x0, 16]
	ldr	x1, [x1, #:got_lo12:_ZTVN7openpal5ArrayIN8opendnp34CellINS1_19DoubleBitBinarySpecEEEtEE]
	add	x1, x1, 16
	str	x1, [x2]
	cbz	x0, .L113
	b	_ZdaPv
	.p2align 2,,3
.L113:
	ret
	.cfi_endproc
.LFE13246:
	.size	_ZN7openpal5ArrayIN8opendnp34CellINS1_19DoubleBitBinarySpecEEEtED2Ev, .-_ZN7openpal5ArrayIN8opendnp34CellINS1_19DoubleBitBinarySpecEEEtED2Ev
	.weak	_ZN7openpal5ArrayIN8opendnp34CellINS1_19DoubleBitBinarySpecEEEtED1Ev
	.set	_ZN7openpal5ArrayIN8opendnp34CellINS1_19DoubleBitBinarySpecEEEtED1Ev,_ZN7openpal5ArrayIN8opendnp34CellINS1_19DoubleBitBinarySpecEEEtED2Ev
	.section	.text._ZN7openpal5ArrayIN8opendnp34CellINS1_19DoubleBitBinarySpecEEEtED0Ev,"axG",@progbits,_ZN7openpal5ArrayIN8opendnp34CellINS1_19DoubleBitBinarySpecEEEtED5Ev,comdat
	.align	2
	.p2align 4,,11
	.weak	_ZN7openpal5ArrayIN8opendnp34CellINS1_19DoubleBitBinarySpecEEEtED0Ev
	.type	_ZN7openpal5ArrayIN8opendnp34CellINS1_19DoubleBitBinarySpecEEEtED0Ev, %function
_ZN7openpal5ArrayIN8opendnp34CellINS1_19DoubleBitBinarySpecEEEtED0Ev:
.LFB13248:
	.cfi_startproc
	stp	x29, x30, [sp, -32]!
	.cfi_def_cfa_offset 32
	.cfi_offset 29, -32
	.cfi_offset 30, -24
	adrp	x1, :got:_ZTVN7openpal5ArrayIN8opendnp34CellINS1_19DoubleBitBinarySpecEEEtEE
	mov	x29, sp
	ldr	x1, [x1, #:got_lo12:_ZTVN7openpal5ArrayIN8opendnp34CellINS1_19DoubleBitBinarySpecEEEtEE]
	str	x19, [sp, 16]
	.cfi_offset 19, -16
	mov	x19, x0
	ldr	x0, [x0, 16]
	add	x1, x1, 16
	str	x1, [x19]
	cbz	x0, .L116
	bl	_ZdaPv
.L116:
	mov	x0, x19
	mov	x1, 24
	ldr	x19, [sp, 16]
	ldp	x29, x30, [sp], 32
	.cfi_restore 30
	.cfi_restore 29
	.cfi_restore 19
	.cfi_def_cfa_offset 0
	b	_ZdlPvm
	.cfi_endproc
.LFE13248:
	.size	_ZN7openpal5ArrayIN8opendnp34CellINS1_19DoubleBitBinarySpecEEEtED0Ev, .-_ZN7openpal5ArrayIN8opendnp34CellINS1_19DoubleBitBinarySpecEEEtED0Ev
	.section	.text._ZN7openpal5ArrayIN8opendnp34CellINS1_10BinarySpecEEEtED2Ev,"axG",@progbits,_ZN7openpal5ArrayIN8opendnp34CellINS1_10BinarySpecEEEtED5Ev,comdat
	.align	2
	.p2align 4,,11
	.weak	_ZN7openpal5ArrayIN8opendnp34CellINS1_10BinarySpecEEEtED2Ev
	.type	_ZN7openpal5ArrayIN8opendnp34CellINS1_10BinarySpecEEEtED2Ev, %function
_ZN7openpal5ArrayIN8opendnp34CellINS1_10BinarySpecEEEtED2Ev:
.LFB13242:
	.cfi_startproc
	adrp	x1, :got:_ZTVN7openpal5ArrayIN8opendnp34CellINS1_10BinarySpecEEEtEE
	mov	x2, x0
	ldr	x0, [x0, 16]
	ldr	x1, [x1, #:got_lo12:_ZTVN7openpal5ArrayIN8opendnp34CellINS1_10BinarySpecEEEtEE]
	add	x1, x1, 16
	str	x1, [x2]
	cbz	x0, .L121
	b	_ZdaPv
	.p2align 2,,3
.L121:
	ret
	.cfi_endproc
.LFE13242:
	.size	_ZN7openpal5ArrayIN8opendnp34CellINS1_10BinarySpecEEEtED2Ev, .-_ZN7openpal5ArrayIN8opendnp34CellINS1_10BinarySpecEEEtED2Ev
	.weak	_ZN7openpal5ArrayIN8opendnp34CellINS1_10BinarySpecEEEtED1Ev
	.set	_ZN7openpal5ArrayIN8opendnp34CellINS1_10BinarySpecEEEtED1Ev,_ZN7openpal5ArrayIN8opendnp34CellINS1_10BinarySpecEEEtED2Ev
	.section	.text._ZN7openpal5ArrayIN8opendnp34CellINS1_10BinarySpecEEEtED0Ev,"axG",@progbits,_ZN7openpal5ArrayIN8opendnp34CellINS1_10BinarySpecEEEtED5Ev,comdat
	.align	2
	.p2align 4,,11
	.weak	_ZN7openpal5ArrayIN8opendnp34CellINS1_10BinarySpecEEEtED0Ev
	.type	_ZN7openpal5ArrayIN8opendnp34CellINS1_10BinarySpecEEEtED0Ev, %function
_ZN7openpal5ArrayIN8opendnp34CellINS1_10BinarySpecEEEtED0Ev:
.LFB13244:
	.cfi_startproc
	stp	x29, x30, [sp, -32]!
	.cfi_def_cfa_offset 32
	.cfi_offset 29, -32
	.cfi_offset 30, -24
	adrp	x1, :got:_ZTVN7openpal5ArrayIN8opendnp34CellINS1_10BinarySpecEEEtEE
	mov	x29, sp
	ldr	x1, [x1, #:got_lo12:_ZTVN7openpal5ArrayIN8opendnp34CellINS1_10BinarySpecEEEtEE]
	str	x19, [sp, 16]
	.cfi_offset 19, -16
	mov	x19, x0
	ldr	x0, [x0, 16]
	add	x1, x1, 16
	str	x1, [x19]
	cbz	x0, .L124
	bl	_ZdaPv
.L124:
	mov	x0, x19
	mov	x1, 24
	ldr	x19, [sp, 16]
	ldp	x29, x30, [sp], 32
	.cfi_restore 30
	.cfi_restore 29
	.cfi_restore 19
	.cfi_def_cfa_offset 0
	b	_ZdlPvm
	.cfi_endproc
.LFE13244:
	.size	_ZN7openpal5ArrayIN8opendnp34CellINS1_10BinarySpecEEEtED0Ev, .-_ZN7openpal5ArrayIN8opendnp34CellINS1_10BinarySpecEEEtED0Ev
	.section	.text._ZN7openpal5ArrayINS_8ListNodeIN8opendnp39SOERecordEEEjED2Ev,"axG",@progbits,_ZN7openpal5ArrayINS_8ListNodeIN8opendnp39SOERecordEEEjED5Ev,comdat
	.align	2
	.p2align 4,,11
	.weak	_ZN7openpal5ArrayINS_8ListNodeIN8opendnp39SOERecordEEEjED2Ev
	.type	_ZN7openpal5ArrayINS_8ListNodeIN8opendnp39SOERecordEEEjED2Ev, %function
_ZN7openpal5ArrayINS_8ListNodeIN8opendnp39SOERecordEEEjED2Ev:
.LFB13238:
	.cfi_startproc
	adrp	x1, :got:_ZTVN7openpal5ArrayINS_8ListNodeIN8opendnp39SOERecordEEEjEE
	mov	x2, x0
	ldr	x0, [x0, 16]
	ldr	x1, [x1, #:got_lo12:_ZTVN7openpal5ArrayINS_8ListNodeIN8opendnp39SOERecordEEEjEE]
	add	x1, x1, 16
	str	x1, [x2]
	cbz	x0, .L129
	b	_ZdaPv
	.p2align 2,,3
.L129:
	ret
	.cfi_endproc
.LFE13238:
	.size	_ZN7openpal5ArrayINS_8ListNodeIN8opendnp39SOERecordEEEjED2Ev, .-_ZN7openpal5ArrayINS_8ListNodeIN8opendnp39SOERecordEEEjED2Ev
	.weak	_ZN7openpal5ArrayINS_8ListNodeIN8opendnp39SOERecordEEEjED1Ev
	.set	_ZN7openpal5ArrayINS_8ListNodeIN8opendnp39SOERecordEEEjED1Ev,_ZN7openpal5ArrayINS_8ListNodeIN8opendnp39SOERecordEEEjED2Ev
	.section	.text._ZN7openpal5ArrayINS_8ListNodeIN8opendnp39SOERecordEEEjED0Ev,"axG",@progbits,_ZN7openpal5ArrayINS_8ListNodeIN8opendnp39SOERecordEEEjED5Ev,comdat
	.align	2
	.p2align 4,,11
	.weak	_ZN7openpal5ArrayINS_8ListNodeIN8opendnp39SOERecordEEEjED0Ev
	.type	_ZN7openpal5ArrayINS_8ListNodeIN8opendnp39SOERecordEEEjED0Ev, %function
_ZN7openpal5ArrayINS_8ListNodeIN8opendnp39SOERecordEEEjED0Ev:
.LFB13240:
	.cfi_startproc
	stp	x29, x30, [sp, -32]!
	.cfi_def_cfa_offset 32
	.cfi_offset 29, -32
	.cfi_offset 30, -24
	adrp	x1, :got:_ZTVN7openpal5ArrayINS_8ListNodeIN8opendnp39SOERecordEEEjEE
	mov	x29, sp
	ldr	x1, [x1, #:got_lo12:_ZTVN7openpal5ArrayINS_8ListNodeIN8opendnp39SOERecordEEEjEE]
	str	x19, [sp, 16]
	.cfi_offset 19, -16
	mov	x19, x0
	ldr	x0, [x0, 16]
	add	x1, x1, 16
	str	x1, [x19]
	cbz	x0, .L132
	bl	_ZdaPv
.L132:
	mov	x0, x19
	mov	x1, 24
	ldr	x19, [sp, 16]
	ldp	x29, x30, [sp], 32
	.cfi_restore 30
	.cfi_restore 29
	.cfi_restore 19
	.cfi_def_cfa_offset 0
	b	_ZdlPvm
	.cfi_endproc
.LFE13240:
	.size	_ZN7openpal5ArrayINS_8ListNodeIN8opendnp39SOERecordEEEjED0Ev, .-_ZN7openpal5ArrayINS_8ListNodeIN8opendnp39SOERecordEEEjED0Ev
	.section	.text._ZNSt13__future_base7_ResultIN8opendnp314LinkStatisticsEED2Ev,"axG",@progbits,_ZNSt13__future_base7_ResultIN8opendnp314LinkStatisticsEED5Ev,comdat
	.align	2
	.p2align 4,,11
	.weak	_ZNSt13__future_base7_ResultIN8opendnp314LinkStatisticsEED2Ev
	.type	_ZNSt13__future_base7_ResultIN8opendnp314LinkStatisticsEED2Ev, %function
_ZNSt13__future_base7_ResultIN8opendnp314LinkStatisticsEED2Ev:
.LFB13023:
	.cfi_startproc
	adrp	x1, :got:_ZTVNSt13__future_base7_ResultIN8opendnp314LinkStatisticsEEE
	ldr	x1, [x1, #:got_lo12:_ZTVNSt13__future_base7_ResultIN8opendnp314LinkStatisticsEEE]
	add	x1, x1, 16
	str	x1, [x0]
	b	_ZNSt13__future_base12_Result_baseD2Ev
	.cfi_endproc
.LFE13023:
	.size	_ZNSt13__future_base7_ResultIN8opendnp314LinkStatisticsEED2Ev, .-_ZNSt13__future_base7_ResultIN8opendnp314LinkStatisticsEED2Ev
	.weak	_ZNSt13__future_base7_ResultIN8opendnp314LinkStatisticsEED1Ev
	.set	_ZNSt13__future_base7_ResultIN8opendnp314LinkStatisticsEED1Ev,_ZNSt13__future_base7_ResultIN8opendnp314LinkStatisticsEED2Ev
	.section	.text._ZNSt13__future_base7_ResultIN8opendnp314LinkStatisticsEED0Ev,"axG",@progbits,_ZNSt13__future_base7_ResultIN8opendnp314LinkStatisticsEED5Ev,comdat
	.align	2
	.p2align 4,,11
	.weak	_ZNSt13__future_base7_ResultIN8opendnp314LinkStatisticsEED0Ev
	.type	_ZNSt13__future_base7_ResultIN8opendnp314LinkStatisticsEED0Ev, %function
_ZNSt13__future_base7_ResultIN8opendnp314LinkStatisticsEED0Ev:
.LFB13025:
	.cfi_startproc
	stp	x29, x30, [sp, -32]!
	.cfi_def_cfa_offset 32
	.cfi_offset 29, -32
	.cfi_offset 30, -24
	adrp	x1, :got:_ZTVNSt13__future_base7_ResultIN8opendnp314LinkStatisticsEEE
	mov	x29, sp
	ldr	x1, [x1, #:got_lo12:_ZTVNSt13__future_base7_ResultIN8opendnp314LinkStatisticsEEE]
	str	x19, [sp, 16]
	.cfi_offset 19, -16
	mov	x19, x0
	add	x1, x1, 16
	str	x1, [x0]
	bl	_ZNSt13__future_base12_Result_baseD2Ev
	mov	x0, x19
	mov	x1, 72
	ldr	x19, [sp, 16]
	ldp	x29, x30, [sp], 32
	.cfi_restore 30
	.cfi_restore 29
	.cfi_restore 19
	.cfi_def_cfa_offset 0
	b	_ZdlPvm
	.cfi_endproc
.LFE13025:
	.size	_ZNSt13__future_base7_ResultIN8opendnp314LinkStatisticsEED0Ev, .-_ZNSt13__future_base7_ResultIN8opendnp314LinkStatisticsEED0Ev
	.section	.text._ZNSt13__future_base7_ResultIN7openpal10LogFiltersEED2Ev,"axG",@progbits,_ZNSt13__future_base7_ResultIN7openpal10LogFiltersEED5Ev,comdat
	.align	2
	.p2align 4,,11
	.weak	_ZNSt13__future_base7_ResultIN7openpal10LogFiltersEED2Ev
	.type	_ZNSt13__future_base7_ResultIN7openpal10LogFiltersEED2Ev, %function
_ZNSt13__future_base7_ResultIN7openpal10LogFiltersEED2Ev:
.LFB13018:
	.cfi_startproc
	adrp	x1, :got:_ZTVNSt13__future_base7_ResultIN7openpal10LogFiltersEEE
	ldr	x1, [x1, #:got_lo12:_ZTVNSt13__future_base7_ResultIN7openpal10LogFiltersEEE]
	add	x1, x1, 16
	str	x1, [x0]
	b	_ZNSt13__future_base12_Result_baseD2Ev
	.cfi_endproc
.LFE13018:
	.size	_ZNSt13__future_base7_ResultIN7openpal10LogFiltersEED2Ev, .-_ZNSt13__future_base7_ResultIN7openpal10LogFiltersEED2Ev
	.weak	_ZNSt13__future_base7_ResultIN7openpal10LogFiltersEED1Ev
	.set	_ZNSt13__future_base7_ResultIN7openpal10LogFiltersEED1Ev,_ZNSt13__future_base7_ResultIN7openpal10LogFiltersEED2Ev
	.section	.text._ZNSt13__future_base7_ResultIN7openpal10LogFiltersEED0Ev,"axG",@progbits,_ZNSt13__future_base7_ResultIN7openpal10LogFiltersEED5Ev,comdat
	.align	2
	.p2align 4,,11
	.weak	_ZNSt13__future_base7_ResultIN7openpal10LogFiltersEED0Ev
	.type	_ZNSt13__future_base7_ResultIN7openpal10LogFiltersEED0Ev, %function
_ZNSt13__future_base7_ResultIN7openpal10LogFiltersEED0Ev:
.LFB13020:
	.cfi_startproc
	stp	x29, x30, [sp, -32]!
	.cfi_def_cfa_offset 32
	.cfi_offset 29, -32
	.cfi_offset 30, -24
	adrp	x1, :got:_ZTVNSt13__future_base7_ResultIN7openpal10LogFiltersEEE
	mov	x29, sp
	ldr	x1, [x1, #:got_lo12:_ZTVNSt13__future_base7_ResultIN7openpal10LogFiltersEEE]
	str	x19, [sp, 16]
	.cfi_offset 19, -16
	mov	x19, x0
	add	x1, x1, 16
	str	x1, [x0]
	bl	_ZNSt13__future_base12_Result_baseD2Ev
	mov	x0, x19
	mov	x1, 24
	ldr	x19, [sp, 16]
	ldp	x29, x30, [sp], 32
	.cfi_restore 30
	.cfi_restore 29
	.cfi_restore 19
	.cfi_def_cfa_offset 0
	b	_ZdlPvm
	.cfi_endproc
.LFE13020:
	.size	_ZNSt13__future_base7_ResultIN7openpal10LogFiltersEED0Ev, .-_ZNSt13__future_base7_ResultIN7openpal10LogFiltersEED0Ev
	.section	.text._ZNSt13__future_base7_ResultIbED2Ev,"axG",@progbits,_ZNSt13__future_base7_ResultIbED5Ev,comdat
	.align	2
	.p2align 4,,11
	.weak	_ZNSt13__future_base7_ResultIbED2Ev
	.type	_ZNSt13__future_base7_ResultIbED2Ev, %function
_ZNSt13__future_base7_ResultIbED2Ev:
.LFB13013:
	.cfi_startproc
	adrp	x1, :got:_ZTVNSt13__future_base7_ResultIbEE
	ldr	x1, [x1, #:got_lo12:_ZTVNSt13__future_base7_ResultIbEE]
	add	x1, x1, 16
	str	x1, [x0]
	b	_ZNSt13__future_base12_Result_baseD2Ev
	.cfi_endproc
.LFE13013:
	.size	_ZNSt13__future_base7_ResultIbED2Ev, .-_ZNSt13__future_base7_ResultIbED2Ev
	.weak	_ZNSt13__future_base7_ResultIbED1Ev
	.set	_ZNSt13__future_base7_ResultIbED1Ev,_ZNSt13__future_base7_ResultIbED2Ev
	.section	.text._ZNSt13__future_base7_ResultIbED0Ev,"axG",@progbits,_ZNSt13__future_base7_ResultIbED5Ev,comdat
	.align	2
	.p2align 4,,11
	.weak	_ZNSt13__future_base7_ResultIbED0Ev
	.type	_ZNSt13__future_base7_ResultIbED0Ev, %function
_ZNSt13__future_base7_ResultIbED0Ev:
.LFB13015:
	.cfi_startproc
	stp	x29, x30, [sp, -32]!
	.cfi_def_cfa_offset 32
	.cfi_offset 29, -32
	.cfi_offset 30, -24
	adrp	x1, :got:_ZTVNSt13__future_base7_ResultIbEE
	mov	x29, sp
	ldr	x1, [x1, #:got_lo12:_ZTVNSt13__future_base7_ResultIbEE]
	str	x19, [sp, 16]
	.cfi_offset 19, -16
	mov	x19, x0
	add	x1, x1, 16
	str	x1, [x0]
	bl	_ZNSt13__future_base12_Result_baseD2Ev
	mov	x0, x19
	mov	x1, 24
	ldr	x19, [sp, 16]
	ldp	x29, x30, [sp], 32
	.cfi_restore 30
	.cfi_restore 29
	.cfi_restore 19
	.cfi_def_cfa_offset 0
	b	_ZdlPvm
	.cfi_endproc
.LFE13015:
	.size	_ZNSt13__future_base7_ResultIbED0Ev, .-_ZNSt13__future_base7_ResultIbED0Ev
	.section	.text._ZNSt13__future_base13_State_baseV29_M_do_setEPSt8functionIFSt10unique_ptrINS_12_Result_baseENS3_8_DeleterEEvEEPb,"axG",@progbits,_ZNSt13__future_base13_State_baseV29_M_do_setEPSt8functionIFSt10unique_ptrINS_12_Result_baseENS3_8_DeleterEEvEEPb,comdat
	.align	2
	.p2align 4,,11
	.weak	_ZNSt13__future_base13_State_baseV29_M_do_setEPSt8functionIFSt10unique_ptrINS_12_Result_baseENS3_8_DeleterEEvEEPb
	.type	_ZNSt13__future_base13_State_baseV29_M_do_setEPSt8functionIFSt10unique_ptrINS_12_Result_baseENS3_8_DeleterEEvEEPb, %function
_ZNSt13__future_base13_State_baseV29_M_do_setEPSt8functionIFSt10unique_ptrINS_12_Result_baseENS3_8_DeleterEEvEEPb:
.LFB7722:
	.cfi_startproc
	.cfi_personality 0x9b,DW.ref.__gxx_personality_v0
	.cfi_lsda 0x1b,.LLSDA7722
	stp	x29, x30, [sp, -48]!
	.cfi_def_cfa_offset 48
	.cfi_offset 29, -48
	.cfi_offset 30, -40
	adrp	x3, :got:__stack_chk_guard
	mov	x29, sp
	ldr	x3, [x3, #:got_lo12:__stack_chk_guard]
	stp	x19, x20, [sp, 16]
	.cfi_offset 19, -32
	.cfi_offset 20, -24
	ldr	x4, [x1, 16]
	ldr	x5, [x3]
	str	x5, [sp, 40]
	mov	x5, 0
	cbz	x4, .L154
	mov	x20, x2
	mov	x19, x0
	ldr	x2, [x1, 24]
	mov	x0, x1
	add	x8, sp, 32
.LEHB0:
	blr	x2
.LEHE0:
	mov	w1, 1
	ldr	x0, [x19, 8]
	strb	w1, [x20]
	ldr	x1, [sp, 32]
	str	x1, [x19, 8]
	str	x0, [sp, 32]
	cbz	x0, .L146
	ldr	x1, [x0]
	ldr	x1, [x1]
	blr	x1
.L146:
	adrp	x0, :got:__stack_chk_guard
	ldr	x0, [x0, #:got_lo12:__stack_chk_guard]
	ldr	x2, [sp, 40]
	ldr	x1, [x0]
	subs	x2, x2, x1
	mov	x1, 0
	bne	.L155
	ldp	x19, x20, [sp, 16]
	ldp	x29, x30, [sp], 48
	.cfi_remember_state
	.cfi_restore 30
	.cfi_restore 29
	.cfi_restore 19
	.cfi_restore 20
	.cfi_def_cfa_offset 0
	ret
.L154:
	.cfi_restore_state
.LEHB1:
	bl	_ZSt25__throw_bad_function_callv
.LEHE1:
.L155:
	bl	__stack_chk_fail
	.cfi_endproc
.LFE7722:
	.section	.gcc_except_table._ZNSt13__future_base13_State_baseV29_M_do_setEPSt8functionIFSt10unique_ptrINS_12_Result_baseENS3_8_DeleterEEvEEPb,"aG",@progbits,_ZNSt13__future_base13_State_baseV29_M_do_setEPSt8functionIFSt10unique_ptrINS_12_Result_baseENS3_8_DeleterEEvEEPb,comdat
.LLSDA7722:
	.byte	0xff
	.byte	0xff
	.byte	0x1
	.uleb128 .LLSDACSE7722-.LLSDACSB7722
.LLSDACSB7722:
	.uleb128 .LEHB0-.LFB7722
	.uleb128 .LEHE0-.LEHB0
	.uleb128 0
	.uleb128 0
	.uleb128 .LEHB1-.LFB7722
	.uleb128 .LEHE1-.LEHB1
	.uleb128 0
	.uleb128 0
.LLSDACSE7722:
	.section	.text._ZNSt13__future_base13_State_baseV29_M_do_setEPSt8functionIFSt10unique_ptrINS_12_Result_baseENS3_8_DeleterEEvEEPb,"axG",@progbits,_ZNSt13__future_base13_State_baseV29_M_do_setEPSt8functionIFSt10unique_ptrINS_12_Result_baseENS3_8_DeleterEEvEEPb,comdat
	.size	_ZNSt13__future_base13_State_baseV29_M_do_setEPSt8functionIFSt10unique_ptrINS_12_Result_baseENS3_8_DeleterEEvEEPb, .-_ZNSt13__future_base13_State_baseV29_M_do_setEPSt8functionIFSt10unique_ptrINS_12_Result_baseENS3_8_DeleterEEvEEPb
	.section	.text._ZN4asio6detail7tss_ptrINS0_10call_stackINS0_15task_io_serviceENS0_27task_io_service_thread_infoEE7contextEED2Ev,"axG",@progbits,_ZN4asio6detail7tss_ptrINS0_10call_stackINS0_15task_io_serviceENS0_27task_io_service_thread_infoEE7contextEED5Ev,comdat
	.align	2
	.p2align 4,,11
	.weak	_ZN4asio6detail7tss_ptrINS0_10call_stackINS0_15task_io_serviceENS0_27task_io_service_thread_infoEE7contextEED2Ev
	.type	_ZN4asio6detail7tss_ptrINS0_10call_stackINS0_15task_io_serviceENS0_27task_io_service_thread_infoEE7contextEED2Ev, %function
_ZN4asio6detail7tss_ptrINS0_10call_stackINS0_15task_io_serviceENS0_27task_io_service_thread_infoEE7contextEED2Ev:
.LFB12920:
	.cfi_startproc
	ldr	w0, [x0]
	b	pthread_key_delete
	.cfi_endproc
.LFE12920:
	.size	_ZN4asio6detail7tss_ptrINS0_10call_stackINS0_15task_io_serviceENS0_27task_io_service_thread_infoEE7contextEED2Ev, .-_ZN4asio6detail7tss_ptrINS0_10call_stackINS0_15task_io_serviceENS0_27task_io_service_thread_infoEE7contextEED2Ev
	.weak	_ZN4asio6detail7tss_ptrINS0_10call_stackINS0_15task_io_serviceENS0_27task_io_service_thread_infoEE7contextEED1Ev
	.set	_ZN4asio6detail7tss_ptrINS0_10call_stackINS0_15task_io_serviceENS0_27task_io_service_thread_infoEE7contextEED1Ev,_ZN4asio6detail7tss_ptrINS0_10call_stackINS0_15task_io_serviceENS0_27task_io_service_thread_infoEE7contextEED2Ev
	.section	.text._ZN4asio6detail7tss_ptrINS0_10call_stackINS0_14strand_service11strand_implEhE7contextEED2Ev,"axG",@progbits,_ZN4asio6detail7tss_ptrINS0_10call_stackINS0_14strand_service11strand_implEhE7contextEED5Ev,comdat
	.align	2
	.p2align 4,,11
	.weak	_ZN4asio6detail7tss_ptrINS0_10call_stackINS0_14strand_service11strand_implEhE7contextEED2Ev
	.type	_ZN4asio6detail7tss_ptrINS0_10call_stackINS0_14strand_service11strand_implEhE7contextEED2Ev, %function
_ZN4asio6detail7tss_ptrINS0_10call_stackINS0_14strand_service11strand_implEhE7contextEED2Ev:
.LFB12929:
	.cfi_startproc
	ldr	w0, [x0]
	b	pthread_key_delete
	.cfi_endproc
.LFE12929:
	.size	_ZN4asio6detail7tss_ptrINS0_10call_stackINS0_14strand_service11strand_implEhE7contextEED2Ev, .-_ZN4asio6detail7tss_ptrINS0_10call_stackINS0_14strand_service11strand_implEhE7contextEED2Ev
	.weak	_ZN4asio6detail7tss_ptrINS0_10call_stackINS0_14strand_service11strand_implEhE7contextEED1Ev
	.set	_ZN4asio6detail7tss_ptrINS0_10call_stackINS0_14strand_service11strand_implEhE7contextEED1Ev,_ZN4asio6detail7tss_ptrINS0_10call_stackINS0_14strand_service11strand_implEhE7contextEED2Ev
	.section	.text._ZN4asio6detail15system_categoryD2Ev,"axG",@progbits,_ZN4asio6detail15system_categoryD5Ev,comdat
	.align	2
	.p2align 4,,11
	.weak	_ZN4asio6detail15system_categoryD2Ev
	.type	_ZN4asio6detail15system_categoryD2Ev, %function
_ZN4asio6detail15system_categoryD2Ev:
.LFB12895:
	.cfi_startproc
	adrp	x1, :got:_ZTVN4asio6detail15system_categoryE
	ldr	x1, [x1, #:got_lo12:_ZTVN4asio6detail15system_categoryE]
	add	x1, x1, 16
	str	x1, [x0]
	b	_ZNSt3_V214error_categoryD2Ev
	.cfi_endproc
.LFE12895:
	.size	_ZN4asio6detail15system_categoryD2Ev, .-_ZN4asio6detail15system_categoryD2Ev
	.weak	_ZN4asio6detail15system_categoryD1Ev
	.set	_ZN4asio6detail15system_categoryD1Ev,_ZN4asio6detail15system_categoryD2Ev
	.section	.text._ZN4asio6detail15system_categoryD0Ev,"axG",@progbits,_ZN4asio6detail15system_categoryD5Ev,comdat
	.align	2
	.p2align 4,,11
	.weak	_ZN4asio6detail15system_categoryD0Ev
	.type	_ZN4asio6detail15system_categoryD0Ev, %function
_ZN4asio6detail15system_categoryD0Ev:
.LFB12897:
	.cfi_startproc
	stp	x29, x30, [sp, -32]!
	.cfi_def_cfa_offset 32
	.cfi_offset 29, -32
	.cfi_offset 30, -24
	adrp	x1, :got:_ZTVN4asio6detail15system_categoryE
	mov	x29, sp
	ldr	x1, [x1, #:got_lo12:_ZTVN4asio6detail15system_categoryE]
	str	x19, [sp, 16]
	.cfi_offset 19, -16
	mov	x19, x0
	add	x1, x1, 16
	str	x1, [x0]
	bl	_ZNSt3_V214error_categoryD2Ev
	mov	x0, x19
	mov	x1, 8
	ldr	x19, [sp, 16]
	ldp	x29, x30, [sp], 32
	.cfi_restore 30
	.cfi_restore 29
	.cfi_restore 19
	.cfi_def_cfa_offset 0
	b	_ZdlPvm
	.cfi_endproc
.LFE12897:
	.size	_ZN4asio6detail15system_categoryD0Ev, .-_ZN4asio6detail15system_categoryD0Ev
	.section	.text._ZN4asio5error6detail14netdb_categoryD2Ev,"axG",@progbits,_ZN4asio5error6detail14netdb_categoryD5Ev,comdat
	.align	2
	.p2align 4,,11
	.weak	_ZN4asio5error6detail14netdb_categoryD2Ev
	.type	_ZN4asio5error6detail14netdb_categoryD2Ev, %function
_ZN4asio5error6detail14netdb_categoryD2Ev:
.LFB12891:
	.cfi_startproc
	adrp	x1, :got:_ZTVN4asio5error6detail14netdb_categoryE
	ldr	x1, [x1, #:got_lo12:_ZTVN4asio5error6detail14netdb_categoryE]
	add	x1, x1, 16
	str	x1, [x0]
	b	_ZNSt3_V214error_categoryD2Ev
	.cfi_endproc
.LFE12891:
	.size	_ZN4asio5error6detail14netdb_categoryD2Ev, .-_ZN4asio5error6detail14netdb_categoryD2Ev
	.weak	_ZN4asio5error6detail14netdb_categoryD1Ev
	.set	_ZN4asio5error6detail14netdb_categoryD1Ev,_ZN4asio5error6detail14netdb_categoryD2Ev
	.section	.text._ZN4asio5error6detail14netdb_categoryD0Ev,"axG",@progbits,_ZN4asio5error6detail14netdb_categoryD5Ev,comdat
	.align	2
	.p2align 4,,11
	.weak	_ZN4asio5error6detail14netdb_categoryD0Ev
	.type	_ZN4asio5error6detail14netdb_categoryD0Ev, %function
_ZN4asio5error6detail14netdb_categoryD0Ev:
.LFB12893:
	.cfi_startproc
	stp	x29, x30, [sp, -32]!
	.cfi_def_cfa_offset 32
	.cfi_offset 29, -32
	.cfi_offset 30, -24
	adrp	x1, :got:_ZTVN4asio5error6detail14netdb_categoryE
	mov	x29, sp
	ldr	x1, [x1, #:got_lo12:_ZTVN4asio5error6detail14netdb_categoryE]
	str	x19, [sp, 16]
	.cfi_offset 19, -16
	mov	x19, x0
	add	x1, x1, 16
	str	x1, [x0]
	bl	_ZNSt3_V214error_categoryD2Ev
	mov	x0, x19
	mov	x1, 8
	ldr	x19, [sp, 16]
	ldp	x29, x30, [sp], 32
	.cfi_restore 30
	.cfi_restore 29
	.cfi_restore 19
	.cfi_def_cfa_offset 0
	b	_ZdlPvm
	.cfi_endproc
.LFE12893:
	.size	_ZN4asio5error6detail14netdb_categoryD0Ev, .-_ZN4asio5error6detail14netdb_categoryD0Ev
	.section	.text._ZN4asio5error6detail17addrinfo_categoryD2Ev,"axG",@progbits,_ZN4asio5error6detail17addrinfo_categoryD5Ev,comdat
	.align	2
	.p2align 4,,11
	.weak	_ZN4asio5error6detail17addrinfo_categoryD2Ev
	.type	_ZN4asio5error6detail17addrinfo_categoryD2Ev, %function
_ZN4asio5error6detail17addrinfo_categoryD2Ev:
.LFB12887:
	.cfi_startproc
	adrp	x1, :got:_ZTVN4asio5error6detail17addrinfo_categoryE
	ldr	x1, [x1, #:got_lo12:_ZTVN4asio5error6detail17addrinfo_categoryE]
	add	x1, x1, 16
	str	x1, [x0]
	b	_ZNSt3_V214error_categoryD2Ev
	.cfi_endproc
.LFE12887:
	.size	_ZN4asio5error6detail17addrinfo_categoryD2Ev, .-_ZN4asio5error6detail17addrinfo_categoryD2Ev
	.weak	_ZN4asio5error6detail17addrinfo_categoryD1Ev
	.set	_ZN4asio5error6detail17addrinfo_categoryD1Ev,_ZN4asio5error6detail17addrinfo_categoryD2Ev
	.section	.text._ZN4asio5error6detail17addrinfo_categoryD0Ev,"axG",@progbits,_ZN4asio5error6detail17addrinfo_categoryD5Ev,comdat
	.align	2
	.p2align 4,,11
	.weak	_ZN4asio5error6detail17addrinfo_categoryD0Ev
	.type	_ZN4asio5error6detail17addrinfo_categoryD0Ev, %function
_ZN4asio5error6detail17addrinfo_categoryD0Ev:
.LFB12889:
	.cfi_startproc
	stp	x29, x30, [sp, -32]!
	.cfi_def_cfa_offset 32
	.cfi_offset 29, -32
	.cfi_offset 30, -24
	adrp	x1, :got:_ZTVN4asio5error6detail17addrinfo_categoryE
	mov	x29, sp
	ldr	x1, [x1, #:got_lo12:_ZTVN4asio5error6detail17addrinfo_categoryE]
	str	x19, [sp, 16]
	.cfi_offset 19, -16
	mov	x19, x0
	add	x1, x1, 16
	str	x1, [x0]
	bl	_ZNSt3_V214error_categoryD2Ev
	mov	x0, x19
	mov	x1, 8
	ldr	x19, [sp, 16]
	ldp	x29, x30, [sp], 32
	.cfi_restore 30
	.cfi_restore 29
	.cfi_restore 19
	.cfi_def_cfa_offset 0
	b	_ZdlPvm
	.cfi_endproc
.LFE12889:
	.size	_ZN4asio5error6detail17addrinfo_categoryD0Ev, .-_ZN4asio5error6detail17addrinfo_categoryD0Ev
	.section	.text._ZN4asio5error6detail13misc_categoryD2Ev,"axG",@progbits,_ZN4asio5error6detail13misc_categoryD5Ev,comdat
	.align	2
	.p2align 4,,11
	.weak	_ZN4asio5error6detail13misc_categoryD2Ev
	.type	_ZN4asio5error6detail13misc_categoryD2Ev, %function
_ZN4asio5error6detail13misc_categoryD2Ev:
.LFB12883:
	.cfi_startproc
	adrp	x1, :got:_ZTVN4asio5error6detail13misc_categoryE
	ldr	x1, [x1, #:got_lo12:_ZTVN4asio5error6detail13misc_categoryE]
	add	x1, x1, 16
	str	x1, [x0]
	b	_ZNSt3_V214error_categoryD2Ev
	.cfi_endproc
.LFE12883:
	.size	_ZN4asio5error6detail13misc_categoryD2Ev, .-_ZN4asio5error6detail13misc_categoryD2Ev
	.weak	_ZN4asio5error6detail13misc_categoryD1Ev
	.set	_ZN4asio5error6detail13misc_categoryD1Ev,_ZN4asio5error6detail13misc_categoryD2Ev
	.section	.text._ZN4asio5error6detail13misc_categoryD0Ev,"axG",@progbits,_ZN4asio5error6detail13misc_categoryD5Ev,comdat
	.align	2
	.p2align 4,,11
	.weak	_ZN4asio5error6detail13misc_categoryD0Ev
	.type	_ZN4asio5error6detail13misc_categoryD0Ev, %function
_ZN4asio5error6detail13misc_categoryD0Ev:
.LFB12885:
	.cfi_startproc
	stp	x29, x30, [sp, -32]!
	.cfi_def_cfa_offset 32
	.cfi_offset 29, -32
	.cfi_offset 30, -24
	adrp	x1, :got:_ZTVN4asio5error6detail13misc_categoryE
	mov	x29, sp
	ldr	x1, [x1, #:got_lo12:_ZTVN4asio5error6detail13misc_categoryE]
	str	x19, [sp, 16]
	.cfi_offset 19, -16
	mov	x19, x0
	add	x1, x1, 16
	str	x1, [x0]
	bl	_ZNSt3_V214error_categoryD2Ev
	mov	x0, x19
	mov	x1, 8
	ldr	x19, [sp, 16]
	ldp	x29, x30, [sp], 32
	.cfi_restore 30
	.cfi_restore 29
	.cfi_restore 19
	.cfi_def_cfa_offset 0
	b	_ZdlPvm
	.cfi_endproc
.LFE12885:
	.size	_ZN4asio5error6detail13misc_categoryD0Ev, .-_ZN4asio5error6detail13misc_categoryD0Ev
	.text
	.align	2
	.p2align 4,,11
	.type	_ZNSt17_Function_handlerIFN8opendnp314LinkStatisticsEvEZN8asiodnp311DNP3Channel13GetStatisticsEvEUlvE_E10_M_managerERSt9_Any_dataRKS7_St18_Manager_operation, %function
_ZNSt17_Function_handlerIFN8opendnp314LinkStatisticsEvEZN8asiodnp311DNP3Channel13GetStatisticsEvEUlvE_E10_M_managerERSt9_Any_dataRKS7_St18_Manager_operation:
.LFB10530:
	.cfi_startproc
	cbz	w2, .L171
	cmp	w2, 1
	beq	.L176
	cmp	w2, 2
	beq	.L177
	mov	w0, 0
	ret
	.p2align 2,,3
.L177:
	ldr	x1, [x1]
.L176:
	str	x1, [x0]
	mov	w0, 0
	ret
	.p2align 2,,3
.L171:
	adrp	x1, .LANCHOR0
	add	x1, x1, :lo12:.LANCHOR0
	str	x1, [x0]
	mov	w0, 0
	ret
	.cfi_endproc
.LFE10530:
	.size	_ZNSt17_Function_handlerIFN8opendnp314LinkStatisticsEvEZN8asiodnp311DNP3Channel13GetStatisticsEvEUlvE_E10_M_managerERSt9_Any_dataRKS7_St18_Manager_operation, .-_ZNSt17_Function_handlerIFN8opendnp314LinkStatisticsEvEZN8asiodnp311DNP3Channel13GetStatisticsEvEUlvE_E10_M_managerERSt9_Any_dataRKS7_St18_Manager_operation
	.align	2
	.p2align 4,,11
	.type	_ZNSt17_Function_handlerIFN7openpal10LogFiltersEvEZNK8asiodnp311DNP3Channel13GetLogFiltersEvEUlvE_E10_M_managerERSt9_Any_dataRKS7_St18_Manager_operation, %function
_ZNSt17_Function_handlerIFN7openpal10LogFiltersEvEZNK8asiodnp311DNP3Channel13GetLogFiltersEvEUlvE_E10_M_managerERSt9_Any_dataRKS7_St18_Manager_operation:
.LFB10553:
	.cfi_startproc
	cbz	w2, .L179
	cmp	w2, 1
	beq	.L184
	cmp	w2, 2
	beq	.L185
	mov	w0, 0
	ret
	.p2align 2,,3
.L185:
	ldr	x1, [x1]
.L184:
	str	x1, [x0]
	mov	w0, 0
	ret
	.p2align 2,,3
.L179:
	adrp	x1, .LANCHOR0
	add	x1, x1, :lo12:.LANCHOR0
	add	x1, x1, 16
	str	x1, [x0]
	mov	w0, 0
	ret
	.cfi_endproc
.LFE10553:
	.size	_ZNSt17_Function_handlerIFN7openpal10LogFiltersEvEZNK8asiodnp311DNP3Channel13GetLogFiltersEvEUlvE_E10_M_managerERSt9_Any_dataRKS7_St18_Manager_operation, .-_ZNSt17_Function_handlerIFN7openpal10LogFiltersEvEZNK8asiodnp311DNP3Channel13GetLogFiltersEvEUlvE_E10_M_managerERSt9_Any_dataRKS7_St18_Manager_operation
	.section	.text._ZNSt17_Function_handlerIFSt10unique_ptrINSt13__future_base12_Result_baseENS2_8_DeleterEEvENS1_13_State_baseV27_SetterIN8opendnp314LinkStatisticsEOS9_EEE10_M_managerERSt9_Any_dataRKSD_St18_Manager_operation,"axG",@progbits,_ZNSt17_Function_handlerIFSt10unique_ptrINSt13__future_base12_Result_baseENS2_8_DeleterEEvENS1_13_State_baseV27_SetterIN8opendnp314LinkStatisticsEOS9_EEE10_M_managerERSt9_Any_dataRKSD_St18_Manager_operation,comdat
	.align	2
	.p2align 4,,11
	.weak	_ZNSt17_Function_handlerIFSt10unique_ptrINSt13__future_base12_Result_baseENS2_8_DeleterEEvENS1_13_State_baseV27_SetterIN8opendnp314LinkStatisticsEOS9_EEE10_M_managerERSt9_Any_dataRKSD_St18_Manager_operation
	.type	_ZNSt17_Function_handlerIFSt10unique_ptrINSt13__future_base12_Result_baseENS2_8_DeleterEEvENS1_13_State_baseV27_SetterIN8opendnp314LinkStatisticsEOS9_EEE10_M_managerERSt9_Any_dataRKSD_St18_Manager_operation, %function
_ZNSt17_Function_handlerIFSt10unique_ptrINSt13__future_base12_Result_baseENS2_8_DeleterEEvENS1_13_State_baseV27_SetterIN8opendnp314LinkStatisticsEOS9_EEE10_M_managerERSt9_Any_dataRKSD_St18_Manager_operation:
.LFB11434:
	.cfi_startproc
	cbz	w2, .L187
	cmp	w2, 1
	beq	.L188
	cmp	w2, 2
	beq	.L192
.L190:
	mov	w0, 0
	ret
	.p2align 2,,3
.L187:
	adrp	x1, :got:_ZTINSt13__future_base13_State_baseV27_SetterIN8opendnp314LinkStatisticsEOS3_EE
	ldr	x1, [x1, #:got_lo12:_ZTINSt13__future_base13_State_baseV27_SetterIN8opendnp314LinkStatisticsEOS3_EE]
	str	x1, [x0]
	mov	w0, 0
	ret
	.p2align 2,,3
.L188:
	str	x1, [x0]
	mov	w0, 0
	ret
	.p2align 2,,3
.L192:
	ldp	x2, x3, [x1]
	stp	x2, x3, [x0]
	b	.L190
	.cfi_endproc
.LFE11434:
	.size	_ZNSt17_Function_handlerIFSt10unique_ptrINSt13__future_base12_Result_baseENS2_8_DeleterEEvENS1_13_State_baseV27_SetterIN8opendnp314LinkStatisticsEOS9_EEE10_M_managerERSt9_Any_dataRKSD_St18_Manager_operation, .-_ZNSt17_Function_handlerIFSt10unique_ptrINSt13__future_base12_Result_baseENS2_8_DeleterEEvENS1_13_State_baseV27_SetterIN8opendnp314LinkStatisticsEOS9_EEE10_M_managerERSt9_Any_dataRKSD_St18_Manager_operation
	.section	.text._ZNSt17_Function_handlerIFSt10unique_ptrINSt13__future_base12_Result_baseENS2_8_DeleterEEvENS1_13_State_baseV27_SetterIN7openpal10LogFiltersEOS9_EEE10_M_managerERSt9_Any_dataRKSD_St18_Manager_operation,"axG",@progbits,_ZNSt17_Function_handlerIFSt10unique_ptrINSt13__future_base12_Result_baseENS2_8_DeleterEEvENS1_13_State_baseV27_SetterIN7openpal10LogFiltersEOS9_EEE10_M_managerERSt9_Any_dataRKSD_St18_Manager_operation,comdat
	.align	2
	.p2align 4,,11
	.weak	_ZNSt17_Function_handlerIFSt10unique_ptrINSt13__future_base12_Result_baseENS2_8_DeleterEEvENS1_13_State_baseV27_SetterIN7openpal10LogFiltersEOS9_EEE10_M_managerERSt9_Any_dataRKSD_St18_Manager_operation
	.type	_ZNSt17_Function_handlerIFSt10unique_ptrINSt13__future_base12_Result_baseENS2_8_DeleterEEvENS1_13_State_baseV27_SetterIN7openpal10LogFiltersEOS9_EEE10_M_managerERSt9_Any_dataRKSD_St18_Manager_operation, %function
_ZNSt17_Function_handlerIFSt10unique_ptrINSt13__future_base12_Result_baseENS2_8_DeleterEEvENS1_13_State_baseV27_SetterIN7openpal10LogFiltersEOS9_EEE10_M_managerERSt9_Any_dataRKSD_St18_Manager_operation:
.LFB11467:
	.cfi_startproc
	cbz	w2, .L194
	cmp	w2, 1
	beq	.L195
	cmp	w2, 2
	beq	.L199
.L197:
	mov	w0, 0
	ret
	.p2align 2,,3
.L194:
	adrp	x1, :got:_ZTINSt13__future_base13_State_baseV27_SetterIN7openpal10LogFiltersEOS3_EE
	ldr	x1, [x1, #:got_lo12:_ZTINSt13__future_base13_State_baseV27_SetterIN7openpal10LogFiltersEOS3_EE]
	str	x1, [x0]
	mov	w0, 0
	ret
	.p2align 2,,3
.L195:
	str	x1, [x0]
	mov	w0, 0
	ret
	.p2align 2,,3
.L199:
	ldp	x2, x3, [x1]
	stp	x2, x3, [x0]
	b	.L197
	.cfi_endproc
.LFE11467:
	.size	_ZNSt17_Function_handlerIFSt10unique_ptrINSt13__future_base12_Result_baseENS2_8_DeleterEEvENS1_13_State_baseV27_SetterIN7openpal10LogFiltersEOS9_EEE10_M_managerERSt9_Any_dataRKSD_St18_Manager_operation, .-_ZNSt17_Function_handlerIFSt10unique_ptrINSt13__future_base12_Result_baseENS2_8_DeleterEEvENS1_13_State_baseV27_SetterIN7openpal10LogFiltersEOS9_EEE10_M_managerERSt9_Any_dataRKSD_St18_Manager_operation
	.section	.text._ZNSt17_Function_handlerIFSt10unique_ptrINSt13__future_base12_Result_baseENS2_8_DeleterEEvENS1_13_State_baseV27_SetterIbObEEE10_M_managerERSt9_Any_dataRKSB_St18_Manager_operation,"axG",@progbits,_ZNSt17_Function_handlerIFSt10unique_ptrINSt13__future_base12_Result_baseENS2_8_DeleterEEvENS1_13_State_baseV27_SetterIbObEEE10_M_managerERSt9_Any_dataRKSB_St18_Manager_operation,comdat
	.align	2
	.p2align 4,,11
	.weak	_ZNSt17_Function_handlerIFSt10unique_ptrINSt13__future_base12_Result_baseENS2_8_DeleterEEvENS1_13_State_baseV27_SetterIbObEEE10_M_managerERSt9_Any_dataRKSB_St18_Manager_operation
	.type	_ZNSt17_Function_handlerIFSt10unique_ptrINSt13__future_base12_Result_baseENS2_8_DeleterEEvENS1_13_State_baseV27_SetterIbObEEE10_M_managerERSt9_Any_dataRKSB_St18_Manager_operation, %function
_ZNSt17_Function_handlerIFSt10unique_ptrINSt13__future_base12_Result_baseENS2_8_DeleterEEvENS1_13_State_baseV27_SetterIbObEEE10_M_managerERSt9_Any_dataRKSB_St18_Manager_operation:
.LFB11819:
	.cfi_startproc
	cbz	w2, .L201
	cmp	w2, 1
	beq	.L202
	cmp	w2, 2
	beq	.L206
.L204:
	mov	w0, 0
	ret
	.p2align 2,,3
.L201:
	adrp	x1, :got:_ZTINSt13__future_base13_State_baseV27_SetterIbObEE
	ldr	x1, [x1, #:got_lo12:_ZTINSt13__future_base13_State_baseV27_SetterIbObEE]
	str	x1, [x0]
	mov	w0, 0
	ret
	.p2align 2,,3
.L202:
	str	x1, [x0]
	mov	w0, 0
	ret
	.p2align 2,,3
.L206:
	ldp	x2, x3, [x1]
	stp	x2, x3, [x0]
	b	.L204
	.cfi_endproc
.LFE11819:
	.size	_ZNSt17_Function_handlerIFSt10unique_ptrINSt13__future_base12_Result_baseENS2_8_DeleterEEvENS1_13_State_baseV27_SetterIbObEEE10_M_managerERSt9_Any_dataRKSB_St18_Manager_operation, .-_ZNSt17_Function_handlerIFSt10unique_ptrINSt13__future_base12_Result_baseENS2_8_DeleterEEvENS1_13_State_baseV27_SetterIbObEEE10_M_managerERSt9_Any_dataRKSB_St18_Manager_operation
	.section	.text._ZNSt23_Sp_counted_ptr_inplaceIN8asiodnp311MasterStackESaIS1_ELN9__gnu_cxx12_Lock_policyE2EE14_M_get_deleterERKSt9type_info,"axG",@progbits,_ZNSt23_Sp_counted_ptr_inplaceIN8asiodnp311MasterStackESaIS1_ELN9__gnu_cxx12_Lock_policyE2EE14_M_get_deleterERKSt9type_info,comdat
	.align	2
	.p2align 4,,11
	.weak	_ZNSt23_Sp_counted_ptr_inplaceIN8asiodnp311MasterStackESaIS1_ELN9__gnu_cxx12_Lock_policyE2EE14_M_get_deleterERKSt9type_info
	.type	_ZNSt23_Sp_counted_ptr_inplaceIN8asiodnp311MasterStackESaIS1_ELN9__gnu_cxx12_Lock_policyE2EE14_M_get_deleterERKSt9type_info, %function
_ZNSt23_Sp_counted_ptr_inplaceIN8asiodnp311MasterStackESaIS1_ELN9__gnu_cxx12_Lock_policyE2EE14_M_get_deleterERKSt9type_info:
.LFB12947:
	.cfi_startproc
	stp	x29, x30, [sp, -32]!
	.cfi_def_cfa_offset 32
	.cfi_offset 29, -32
	.cfi_offset 30, -24
	adrp	x2, :got:_ZZNSt19_Sp_make_shared_tag5_S_tiEvE5__tag
	mov	x29, sp
	ldr	x2, [x2, #:got_lo12:_ZZNSt19_Sp_make_shared_tag5_S_tiEvE5__tag]
	str	x19, [sp, 16]
	.cfi_offset 19, -16
	add	x19, x0, 16
	cmp	x1, x2
	beq	.L207
	adrp	x2, :got:_ZTSSt19_Sp_make_shared_tag
	ldr	x0, [x1, 8]
	ldr	x1, [x2, #:got_lo12:_ZTSSt19_Sp_make_shared_tag]
	cmp	x0, x1
	beq	.L207
	ldrb	w2, [x0]
	cmp	w2, 42
	beq	.L209
	bl	strcmp
	cmp	w0, 0
	csel	x19, x19, xzr, eq
.L207:
	mov	x0, x19
	ldr	x19, [sp, 16]
	ldp	x29, x30, [sp], 32
	.cfi_remember_state
	.cfi_restore 30
	.cfi_restore 29
	.cfi_restore 19
	.cfi_def_cfa_offset 0
	ret
	.p2align 2,,3
.L209:
	.cfi_restore_state
	mov	x19, 0
	mov	x0, x19
	ldr	x19, [sp, 16]
	ldp	x29, x30, [sp], 32
	.cfi_restore 30
	.cfi_restore 29
	.cfi_restore 19
	.cfi_def_cfa_offset 0
	ret
	.cfi_endproc
.LFE12947:
	.size	_ZNSt23_Sp_counted_ptr_inplaceIN8asiodnp311MasterStackESaIS1_ELN9__gnu_cxx12_Lock_policyE2EE14_M_get_deleterERKSt9type_info, .-_ZNSt23_Sp_counted_ptr_inplaceIN8asiodnp311MasterStackESaIS1_ELN9__gnu_cxx12_Lock_policyE2EE14_M_get_deleterERKSt9type_info
	.section	.text._ZNSt13__future_base7_ResultIN8opendnp314LinkStatisticsEE10_M_destroyEv,"axG",@progbits,_ZNSt13__future_base7_ResultIN8opendnp314LinkStatisticsEE10_M_destroyEv,comdat
	.align	2
	.p2align 4,,11
	.weak	_ZNSt13__future_base7_ResultIN8opendnp314LinkStatisticsEE10_M_destroyEv
	.type	_ZNSt13__future_base7_ResultIN8opendnp314LinkStatisticsEE10_M_destroyEv, %function
_ZNSt13__future_base7_ResultIN8opendnp314LinkStatisticsEE10_M_destroyEv:
.LFB13021:
	.cfi_startproc
	ldr	x2, [x0]
	adrp	x1, :got:_ZNSt13__future_base7_ResultIN8opendnp314LinkStatisticsEED0Ev
	ldr	x1, [x1, #:got_lo12:_ZNSt13__future_base7_ResultIN8opendnp314LinkStatisticsEED0Ev]
	ldr	x2, [x2, 16]
	cmp	x2, x1
	bne	.L213
	stp	x29, x30, [sp, -32]!
	.cfi_def_cfa_offset 32
	.cfi_offset 29, -32
	.cfi_offset 30, -24
	adrp	x1, :got:_ZTVNSt13__future_base7_ResultIN8opendnp314LinkStatisticsEEE
	mov	x29, sp
	ldr	x1, [x1, #:got_lo12:_ZTVNSt13__future_base7_ResultIN8opendnp314LinkStatisticsEEE]
	str	x19, [sp, 16]
	.cfi_offset 19, -16
	mov	x19, x0
	add	x1, x1, 16
	str	x1, [x0]
	bl	_ZNSt13__future_base12_Result_baseD2Ev
	mov	x0, x19
	mov	x1, 72
	ldr	x19, [sp, 16]
	ldp	x29, x30, [sp], 32
	.cfi_restore 30
	.cfi_restore 29
	.cfi_restore 19
	.cfi_def_cfa_offset 0
	b	_ZdlPvm
	.p2align 2,,3
.L213:
	mov	x16, x2
	br	x16
	.cfi_endproc
.LFE13021:
	.size	_ZNSt13__future_base7_ResultIN8opendnp314LinkStatisticsEE10_M_destroyEv, .-_ZNSt13__future_base7_ResultIN8opendnp314LinkStatisticsEE10_M_destroyEv
	.section	.text._ZNSt13__future_base7_ResultIbE10_M_destroyEv,"axG",@progbits,_ZNSt13__future_base7_ResultIbE10_M_destroyEv,comdat
	.align	2
	.p2align 4,,11
	.weak	_ZNSt13__future_base7_ResultIbE10_M_destroyEv
	.type	_ZNSt13__future_base7_ResultIbE10_M_destroyEv, %function
_ZNSt13__future_base7_ResultIbE10_M_destroyEv:
.LFB13011:
	.cfi_startproc
	ldr	x2, [x0]
	adrp	x1, :got:_ZNSt13__future_base7_ResultIbED0Ev
	ldr	x1, [x1, #:got_lo12:_ZNSt13__future_base7_ResultIbED0Ev]
	ldr	x2, [x2, 16]
	cmp	x2, x1
	bne	.L218
	stp	x29, x30, [sp, -32]!
	.cfi_def_cfa_offset 32
	.cfi_offset 29, -32
	.cfi_offset 30, -24
	adrp	x1, :got:_ZTVNSt13__future_base7_ResultIbEE
	mov	x29, sp
	ldr	x1, [x1, #:got_lo12:_ZTVNSt13__future_base7_ResultIbEE]
	str	x19, [sp, 16]
	.cfi_offset 19, -16
	mov	x19, x0
	add	x1, x1, 16
	str	x1, [x0]
	bl	_ZNSt13__future_base12_Result_baseD2Ev
	mov	x0, x19
	mov	x1, 24
	ldr	x19, [sp, 16]
	ldp	x29, x30, [sp], 32
	.cfi_restore 30
	.cfi_restore 29
	.cfi_restore 19
	.cfi_def_cfa_offset 0
	b	_ZdlPvm
	.p2align 2,,3
.L218:
	mov	x16, x2
	br	x16
	.cfi_endproc
.LFE13011:
	.size	_ZNSt13__future_base7_ResultIbE10_M_destroyEv, .-_ZNSt13__future_base7_ResultIbE10_M_destroyEv
	.section	.text._ZNSt13__future_base7_ResultIN7openpal10LogFiltersEE10_M_destroyEv,"axG",@progbits,_ZNSt13__future_base7_ResultIN7openpal10LogFiltersEE10_M_destroyEv,comdat
	.align	2
	.p2align 4,,11
	.weak	_ZNSt13__future_base7_ResultIN7openpal10LogFiltersEE10_M_destroyEv
	.type	_ZNSt13__future_base7_ResultIN7openpal10LogFiltersEE10_M_destroyEv, %function
_ZNSt13__future_base7_ResultIN7openpal10LogFiltersEE10_M_destroyEv:
.LFB13016:
	.cfi_startproc
	ldr	x2, [x0]
	adrp	x1, :got:_ZNSt13__future_base7_ResultIN7openpal10LogFiltersEED0Ev
	ldr	x1, [x1, #:got_lo12:_ZNSt13__future_base7_ResultIN7openpal10LogFiltersEED0Ev]
	ldr	x2, [x2, 16]
	cmp	x2, x1
	bne	.L223
	stp	x29, x30, [sp, -32]!
	.cfi_def_cfa_offset 32
	.cfi_offset 29, -32
	.cfi_offset 30, -24
	adrp	x1, :got:_ZTVNSt13__future_base7_ResultIN7openpal10LogFiltersEEE
	mov	x29, sp
	ldr	x1, [x1, #:got_lo12:_ZTVNSt13__future_base7_ResultIN7openpal10LogFiltersEEE]
	str	x19, [sp, 16]
	.cfi_offset 19, -16
	mov	x19, x0
	add	x1, x1, 16
	str	x1, [x0]
	bl	_ZNSt13__future_base12_Result_baseD2Ev
	mov	x0, x19
	mov	x1, 24
	ldr	x19, [sp, 16]
	ldp	x29, x30, [sp], 32
	.cfi_restore 30
	.cfi_restore 29
	.cfi_restore 19
	.cfi_def_cfa_offset 0
	b	_ZdlPvm
	.p2align 2,,3
.L223:
	mov	x16, x2
	br	x16
	.cfi_endproc
.LFE13016:
	.size	_ZNSt13__future_base7_ResultIN7openpal10LogFiltersEE10_M_destroyEv, .-_ZNSt13__future_base7_ResultIN7openpal10LogFiltersEE10_M_destroyEv
	.section	.text._ZNSt23_Sp_counted_ptr_inplaceIN8asiodnp315OutstationStackESaIS1_ELN9__gnu_cxx12_Lock_policyE2EE14_M_get_deleterERKSt9type_info,"axG",@progbits,_ZNSt23_Sp_counted_ptr_inplaceIN8asiodnp315OutstationStackESaIS1_ELN9__gnu_cxx12_Lock_policyE2EE14_M_get_deleterERKSt9type_info,comdat
	.align	2
	.p2align 4,,11
	.weak	_ZNSt23_Sp_counted_ptr_inplaceIN8asiodnp315OutstationStackESaIS1_ELN9__gnu_cxx12_Lock_policyE2EE14_M_get_deleterERKSt9type_info
	.type	_ZNSt23_Sp_counted_ptr_inplaceIN8asiodnp315OutstationStackESaIS1_ELN9__gnu_cxx12_Lock_policyE2EE14_M_get_deleterERKSt9type_info, %function
_ZNSt23_Sp_counted_ptr_inplaceIN8asiodnp315OutstationStackESaIS1_ELN9__gnu_cxx12_Lock_policyE2EE14_M_get_deleterERKSt9type_info:
.LFB12940:
	.cfi_startproc
	stp	x29, x30, [sp, -32]!
	.cfi_def_cfa_offset 32
	.cfi_offset 29, -32
	.cfi_offset 30, -24
	adrp	x2, :got:_ZZNSt19_Sp_make_shared_tag5_S_tiEvE5__tag
	mov	x29, sp
	ldr	x2, [x2, #:got_lo12:_ZZNSt19_Sp_make_shared_tag5_S_tiEvE5__tag]
	str	x19, [sp, 16]
	.cfi_offset 19, -16
	add	x19, x0, 16
	cmp	x1, x2
	beq	.L227
	adrp	x2, :got:_ZTSSt19_Sp_make_shared_tag
	ldr	x0, [x1, 8]
	ldr	x1, [x2, #:got_lo12:_ZTSSt19_Sp_make_shared_tag]
	cmp	x0, x1
	beq	.L227
	ldrb	w2, [x0]
	cmp	w2, 42
	beq	.L229
	bl	strcmp
	cmp	w0, 0
	csel	x19, x19, xzr, eq
.L227:
	mov	x0, x19
	ldr	x19, [sp, 16]
	ldp	x29, x30, [sp], 32
	.cfi_remember_state
	.cfi_restore 30
	.cfi_restore 29
	.cfi_restore 19
	.cfi_def_cfa_offset 0
	ret
	.p2align 2,,3
.L229:
	.cfi_restore_state
	mov	x19, 0
	mov	x0, x19
	ldr	x19, [sp, 16]
	ldp	x29, x30, [sp], 32
	.cfi_restore 30
	.cfi_restore 29
	.cfi_restore 19
	.cfi_def_cfa_offset 0
	ret
	.cfi_endproc
.LFE12940:
	.size	_ZNSt23_Sp_counted_ptr_inplaceIN8asiodnp315OutstationStackESaIS1_ELN9__gnu_cxx12_Lock_policyE2EE14_M_get_deleterERKSt9type_info, .-_ZNSt23_Sp_counted_ptr_inplaceIN8asiodnp315OutstationStackESaIS1_ELN9__gnu_cxx12_Lock_policyE2EE14_M_get_deleterERKSt9type_info
	.section	.text._ZNSt23_Sp_counted_ptr_inplaceINSt13__future_base13_State_baseV2ESaIS1_ELN9__gnu_cxx12_Lock_policyE2EE14_M_get_deleterERKSt9type_info,"axG",@progbits,_ZNSt23_Sp_counted_ptr_inplaceINSt13__future_base13_State_baseV2ESaIS1_ELN9__gnu_cxx12_Lock_policyE2EE14_M_get_deleterERKSt9type_info,comdat
	.align	2
	.p2align 4,,11
	.weak	_ZNSt23_Sp_counted_ptr_inplaceINSt13__future_base13_State_baseV2ESaIS1_ELN9__gnu_cxx12_Lock_policyE2EE14_M_get_deleterERKSt9type_info
	.type	_ZNSt23_Sp_counted_ptr_inplaceINSt13__future_base13_State_baseV2ESaIS1_ELN9__gnu_cxx12_Lock_policyE2EE14_M_get_deleterERKSt9type_info, %function
_ZNSt23_Sp_counted_ptr_inplaceINSt13__future_base13_State_baseV2ESaIS1_ELN9__gnu_cxx12_Lock_policyE2EE14_M_get_deleterERKSt9type_info:
.LFB12982:
	.cfi_startproc
	stp	x29, x30, [sp, -32]!
	.cfi_def_cfa_offset 32
	.cfi_offset 29, -32
	.cfi_offset 30, -24
	adrp	x2, :got:_ZZNSt19_Sp_make_shared_tag5_S_tiEvE5__tag
	mov	x29, sp
	ldr	x2, [x2, #:got_lo12:_ZZNSt19_Sp_make_shared_tag5_S_tiEvE5__tag]
	str	x19, [sp, 16]
	.cfi_offset 19, -16
	add	x19, x0, 16
	cmp	x1, x2
	beq	.L232
	adrp	x2, :got:_ZTSSt19_Sp_make_shared_tag
	ldr	x0, [x1, 8]
	ldr	x1, [x2, #:got_lo12:_ZTSSt19_Sp_make_shared_tag]
	cmp	x0, x1
	beq	.L232
	ldrb	w2, [x0]
	cmp	w2, 42
	beq	.L234
	bl	strcmp
	cmp	w0, 0
	csel	x19, x19, xzr, eq
.L232:
	mov	x0, x19
	ldr	x19, [sp, 16]
	ldp	x29, x30, [sp], 32
	.cfi_remember_state
	.cfi_restore 30
	.cfi_restore 29
	.cfi_restore 19
	.cfi_def_cfa_offset 0
	ret
	.p2align 2,,3
.L234:
	.cfi_restore_state
	mov	x19, 0
	mov	x0, x19
	ldr	x19, [sp, 16]
	ldp	x29, x30, [sp], 32
	.cfi_restore 30
	.cfi_restore 29
	.cfi_restore 19
	.cfi_def_cfa_offset 0
	ret
	.cfi_endproc
.LFE12982:
	.size	_ZNSt23_Sp_counted_ptr_inplaceINSt13__future_base13_State_baseV2ESaIS1_ELN9__gnu_cxx12_Lock_policyE2EE14_M_get_deleterERKSt9type_info, .-_ZNSt23_Sp_counted_ptr_inplaceINSt13__future_base13_State_baseV2ESaIS1_ELN9__gnu_cxx12_Lock_policyE2EE14_M_get_deleterERKSt9type_info
	.section	.text._ZNSt23_Sp_counted_ptr_inplaceIN7openpal6Logger8SettingsESaIS2_ELN9__gnu_cxx12_Lock_policyE2EE14_M_get_deleterERKSt9type_info,"axG",@progbits,_ZNSt23_Sp_counted_ptr_inplaceIN7openpal6Logger8SettingsESaIS2_ELN9__gnu_cxx12_Lock_policyE2EE14_M_get_deleterERKSt9type_info,comdat
	.align	2
	.p2align 4,,11
	.weak	_ZNSt23_Sp_counted_ptr_inplaceIN7openpal6Logger8SettingsESaIS2_ELN9__gnu_cxx12_Lock_policyE2EE14_M_get_deleterERKSt9type_info
	.type	_ZNSt23_Sp_counted_ptr_inplaceIN7openpal6Logger8SettingsESaIS2_ELN9__gnu_cxx12_Lock_policyE2EE14_M_get_deleterERKSt9type_info, %function
_ZNSt23_Sp_counted_ptr_inplaceIN7openpal6Logger8SettingsESaIS2_ELN9__gnu_cxx12_Lock_policyE2EE14_M_get_deleterERKSt9type_info:
.LFB12996:
	.cfi_startproc
	stp	x29, x30, [sp, -32]!
	.cfi_def_cfa_offset 32
	.cfi_offset 29, -32
	.cfi_offset 30, -24
	adrp	x2, :got:_ZZNSt19_Sp_make_shared_tag5_S_tiEvE5__tag
	mov	x29, sp
	ldr	x2, [x2, #:got_lo12:_ZZNSt19_Sp_make_shared_tag5_S_tiEvE5__tag]
	str	x19, [sp, 16]
	.cfi_offset 19, -16
	add	x19, x0, 16
	cmp	x1, x2
	beq	.L237
	adrp	x2, :got:_ZTSSt19_Sp_make_shared_tag
	ldr	x0, [x1, 8]
	ldr	x1, [x2, #:got_lo12:_ZTSSt19_Sp_make_shared_tag]
	cmp	x0, x1
	beq	.L237
	ldrb	w2, [x0]
	cmp	w2, 42
	beq	.L239
	bl	strcmp
	cmp	w0, 0
	csel	x19, x19, xzr, eq
.L237:
	mov	x0, x19
	ldr	x19, [sp, 16]
	ldp	x29, x30, [sp], 32
	.cfi_remember_state
	.cfi_restore 30
	.cfi_restore 29
	.cfi_restore 19
	.cfi_def_cfa_offset 0
	ret
	.p2align 2,,3
.L239:
	.cfi_restore_state
	mov	x19, 0
	mov	x0, x19
	ldr	x19, [sp, 16]
	ldp	x29, x30, [sp], 32
	.cfi_restore 30
	.cfi_restore 29
	.cfi_restore 19
	.cfi_def_cfa_offset 0
	ret
	.cfi_endproc
.LFE12996:
	.size	_ZNSt23_Sp_counted_ptr_inplaceIN7openpal6Logger8SettingsESaIS2_ELN9__gnu_cxx12_Lock_policyE2EE14_M_get_deleterERKSt9type_info, .-_ZNSt23_Sp_counted_ptr_inplaceIN7openpal6Logger8SettingsESaIS2_ELN9__gnu_cxx12_Lock_policyE2EE14_M_get_deleterERKSt9type_info
	.section	.text._ZNSt23_Sp_counted_ptr_inplaceIN7asiopal15ResourceManagerESaIS1_ELN9__gnu_cxx12_Lock_policyE2EE14_M_get_deleterERKSt9type_info,"axG",@progbits,_ZNSt23_Sp_counted_ptr_inplaceIN7asiopal15ResourceManagerESaIS1_ELN9__gnu_cxx12_Lock_policyE2EE14_M_get_deleterERKSt9type_info,comdat
	.align	2
	.p2align 4,,11
	.weak	_ZNSt23_Sp_counted_ptr_inplaceIN7asiopal15ResourceManagerESaIS1_ELN9__gnu_cxx12_Lock_policyE2EE14_M_get_deleterERKSt9type_info
	.type	_ZNSt23_Sp_counted_ptr_inplaceIN7asiopal15ResourceManagerESaIS1_ELN9__gnu_cxx12_Lock_policyE2EE14_M_get_deleterERKSt9type_info, %function
_ZNSt23_Sp_counted_ptr_inplaceIN7asiopal15ResourceManagerESaIS1_ELN9__gnu_cxx12_Lock_policyE2EE14_M_get_deleterERKSt9type_info:
.LFB12968:
	.cfi_startproc
	stp	x29, x30, [sp, -32]!
	.cfi_def_cfa_offset 32
	.cfi_offset 29, -32
	.cfi_offset 30, -24
	adrp	x2, :got:_ZZNSt19_Sp_make_shared_tag5_S_tiEvE5__tag
	mov	x29, sp
	ldr	x2, [x2, #:got_lo12:_ZZNSt19_Sp_make_shared_tag5_S_tiEvE5__tag]
	str	x19, [sp, 16]
	.cfi_offset 19, -16
	add	x19, x0, 16
	cmp	x1, x2
	beq	.L242
	adrp	x2, :got:_ZTSSt19_Sp_make_shared_tag
	ldr	x0, [x1, 8]
	ldr	x1, [x2, #:got_lo12:_ZTSSt19_Sp_make_shared_tag]
	cmp	x0, x1
	beq	.L242
	ldrb	w2, [x0]
	cmp	w2, 42
	beq	.L244
	bl	strcmp
	cmp	w0, 0
	csel	x19, x19, xzr, eq
.L242:
	mov	x0, x19
	ldr	x19, [sp, 16]
	ldp	x29, x30, [sp], 32
	.cfi_remember_state
	.cfi_restore 30
	.cfi_restore 29
	.cfi_restore 19
	.cfi_def_cfa_offset 0
	ret
	.p2align 2,,3
.L244:
	.cfi_restore_state
	mov	x19, 0
	mov	x0, x19
	ldr	x19, [sp, 16]
	ldp	x29, x30, [sp], 32
	.cfi_restore 30
	.cfi_restore 29
	.cfi_restore 19
	.cfi_def_cfa_offset 0
	ret
	.cfi_endproc
.LFE12968:
	.size	_ZNSt23_Sp_counted_ptr_inplaceIN7asiopal15ResourceManagerESaIS1_ELN9__gnu_cxx12_Lock_policyE2EE14_M_get_deleterERKSt9type_info, .-_ZNSt23_Sp_counted_ptr_inplaceIN7asiopal15ResourceManagerESaIS1_ELN9__gnu_cxx12_Lock_policyE2EE14_M_get_deleterERKSt9type_info
	.global	__aarch64_swp4_sync
	.global	__aarch64_swp4_rel
	.section	.text._ZN4asio6detail18completion_handlerIZN7asiopal8Executor10ReturnFromIN8opendnp314LinkStatisticsEEET_RKSt8functionIFS7_vEEEUlvE_E11do_completeEPNS0_15task_io_serviceEPNS0_25task_io_service_operationERKSt10error_codem,"axG",@progbits,_ZN4asio6detail18completion_handlerIZN7asiopal8Executor10ReturnFromIN8opendnp314LinkStatisticsEEET_RKSt8functionIFS7_vEEEUlvE_E11do_completeEPNS0_15task_io_serviceEPNS0_25task_io_service_operationERKSt10error_codem,comdat
	.align	2
	.p2align 4,,11
	.weak	_ZN4asio6detail18completion_handlerIZN7asiopal8Executor10ReturnFromIN8opendnp314LinkStatisticsEEET_RKSt8functionIFS7_vEEEUlvE_E11do_completeEPNS0_15task_io_serviceEPNS0_25task_io_service_operationERKSt10error_codem
	.type	_ZN4asio6detail18completion_handlerIZN7asiopal8Executor10ReturnFromIN8opendnp314LinkStatisticsEEET_RKSt8functionIFS7_vEEEUlvE_E11do_completeEPNS0_15task_io_serviceEPNS0_25task_io_service_operationERKSt10error_codem, %function
_ZN4asio6detail18completion_handlerIZN7asiopal8Executor10ReturnFromIN8opendnp314LinkStatisticsEEET_RKSt8functionIFS7_vEEEUlvE_E11do_completeEPNS0_15task_io_serviceEPNS0_25task_io_service_operationERKSt10error_codem:
.LFB11767:
	.cfi_startproc
	.cfi_personality 0x9b,DW.ref.__gxx_personality_v0
	.cfi_lsda 0x1b,.LLSDA11767
	stp	x29, x30, [sp, -256]!
	.cfi_def_cfa_offset 256
	.cfi_offset 29, -256
	.cfi_offset 30, -248
	adrp	x3, :got:_ZN4asio6detail10call_stackINS0_15task_io_serviceENS0_27task_io_service_thread_infoEE4top_E
	adrp	x2, :got:__stack_chk_guard
	mov	x29, sp
	ldr	x3, [x3, #:got_lo12:_ZN4asio6detail10call_stackINS0_15task_io_serviceENS0_27task_io_service_thread_infoEE4top_E]
	stp	x19, x20, [sp, 16]
	.cfi_offset 19, -240
	.cfi_offset 20, -232
	mov	x20, x0
	ldr	x2, [x2, #:got_lo12:__stack_chk_guard]
	stp	x21, x22, [sp, 32]
	ldr	w0, [x3]
	stp	x23, x24, [sp, 48]
	.cfi_offset 21, -224
	.cfi_offset 22, -216
	.cfi_offset 23, -208
	.cfi_offset 24, -200
	mov	x19, x1
	ldr	x1, [x2]
	str	x1, [sp, 248]
	mov	x1, 0
	ldp	x21, x24, [x19, 24]
	bl	pthread_getspecific
	cbz	x0, .L248
	ldr	x0, [x0, 8]
	cbz	x0, .L248
	ldr	x1, [x0]
	cbz	x1, .L282
.L248:
	mov	x0, x19
	bl	_ZdlPv
.L249:
	cbz	x20, .L247
	add	x22, sp, 80
	mov	w0, 1
	mov	x1, x22
	str	wzr, [sp, 80]
	bl	__aarch64_swp4_sync
	ldr	x0, [x24, 16]
	cbz	x0, .L283
	ldr	x1, [x24, 24]
	add	x23, sp, 160
	mov	x8, x23
	mov	x0, x24
.LEHB2:
	blr	x1
.LEHE2:
	ldr	x19, [x21]
	cbz	x19, .L284
	adrp	x0, :tlsdesc:_ZSt15__once_callable
	ldr	x6, [x0, #:tlsdesc_lo12:_ZSt15__once_callable]
	add	x0, x0, :tlsdesc_lo12:_ZSt15__once_callable
	.tlsdesccall	_ZSt15__once_callable
	blr	x6
	mrs	x20, tpidr_el0
	add	x6, sp, 128
	adrp	x5, :got:_ZNSt13__future_base13_State_baseV29_M_do_setEPSt8functionIFSt10unique_ptrINS_12_Result_baseENS3_8_DeleterEEvEEPb
	adrp	x1, :got:__once_proxy
	adrp	x2, :got:_ZZNSt9once_flag18_Prepare_executionC4IZSt9call_onceIMNSt13__future_base13_State_baseV2EFvPSt8functionIFSt10unique_ptrINS3_12_Result_baseENS7_8_DeleterEEvEEPbEJPS4_SC_SD_EEvRS_OT_DpOT0_EUlvE_EERSI_ENUlvE_4_FUNEv
	adrp	x3, :got:_ZNSt17_Function_handlerIFSt10unique_ptrINSt13__future_base12_Result_baseENS2_8_DeleterEEvENS1_13_State_baseV27_SetterIN8opendnp314LinkStatisticsEOS9_EEE9_M_invokeERKSt9_Any_data
	adrp	x4, :got:_ZNSt17_Function_handlerIFSt10unique_ptrINSt13__future_base12_Result_baseENS2_8_DeleterEEvENS1_13_State_baseV27_SetterIN8opendnp314LinkStatisticsEOS9_EEE10_M_managerERSt9_Any_dataRKSD_St18_Manager_operation
	ldr	x9, [x5, #:got_lo12:_ZNSt13__future_base13_State_baseV29_M_do_setEPSt8functionIFSt10unique_ptrINS_12_Result_baseENS3_8_DeleterEEvEEPb]
	str	x6, [x20, x0]
	ldr	x2, [x2, #:got_lo12:_ZZNSt9once_flag18_Prepare_executionC4IZSt9call_onceIMNSt13__future_base13_State_baseV2EFvPSt8functionIFSt10unique_ptrINS3_12_Result_baseENS7_8_DeleterEEvEEPbEJPS4_SC_SD_EEvRS_OT_DpOT0_EUlvE_EERSI_ENUlvE_4_FUNEv]
	adrp	x0, :tlsdesc:_ZSt11__once_call
	ldr	x6, [x0, #:tlsdesc_lo12:_ZSt11__once_call]
	add	x0, x0, :tlsdesc_lo12:_ZSt11__once_call
	.tlsdesccall	_ZSt11__once_call
	blr	x6
	ldr	x3, [x3, #:got_lo12:_ZNSt17_Function_handlerIFSt10unique_ptrINSt13__future_base12_Result_baseENS2_8_DeleterEEvENS1_13_State_baseV27_SetterIN8opendnp314LinkStatisticsEOS9_EEE9_M_invokeERKSt9_Any_data]
	add	x10, sp, 79
	ldr	x4, [x4, #:got_lo12:_ZNSt17_Function_handlerIFSt10unique_ptrINSt13__future_base12_Result_baseENS2_8_DeleterEEvENS1_13_State_baseV27_SetterIN8opendnp314LinkStatisticsEOS9_EEE10_M_managerERSt9_Any_dataRKSD_St18_Manager_operation]
	add	x8, sp, 112
	ldr	x1, [x1, #:got_lo12:__once_proxy]
	add	x7, sp, 104
	add	x6, sp, 96
	add	x5, sp, 88
	add	x24, sp, 216
	str	x2, [x20, x0]
	add	x0, x19, 24
	strb	wzr, [sp, 79]
	stp	x10, x24, [sp, 88]
	stp	x19, x9, [sp, 104]
	stp	xzr, x8, [sp, 120]
	stp	x7, x6, [sp, 136]
	str	x5, [sp, 152]
	stp	x21, x23, [sp, 216]
	stp	x4, x3, [sp, 232]
.LEHB3:
	bl	pthread_once
.LEHE3:
	cbnz	w0, .L285
	ldrb	w1, [sp, 79]
	adrp	x0, :tlsdesc:_ZSt15__once_callable
	ldr	x2, [x0, #:tlsdesc_lo12:_ZSt15__once_callable]
	add	x0, x0, :tlsdesc_lo12:_ZSt15__once_callable
	.tlsdesccall	_ZSt15__once_callable
	blr	x2
	str	xzr, [x20, x0]
	adrp	x0, :tlsdesc:_ZSt11__once_call
	ldr	x2, [x0, #:tlsdesc_lo12:_ZSt11__once_call]
	add	x0, x0, :tlsdesc_lo12:_ZSt11__once_call
	.tlsdesccall	_ZSt11__once_call
	blr	x2
	str	xzr, [x20, x0]
	cbnz	w1, .L286
	mov	w0, 2
.LEHB4:
	bl	_ZSt20__throw_future_errori
.LEHE4:
	.p2align 2,,3
.L286:
	add	x19, x19, 16
	mov	w0, 1
	mov	x1, x19
	bl	__aarch64_swp4_rel
	tbnz	w0, #31, .L258
.L261:
	ldr	x3, [sp, 232]
	cbz	x3, .L260
	mov	x1, x24
	mov	x0, x24
	mov	w2, 3
	blr	x3
.L260:
	stlr	wzr, [x22]
.L247:
	adrp	x0, :got:__stack_chk_guard
	ldr	x0, [x0, #:got_lo12:__stack_chk_guard]
	ldr	x2, [sp, 248]
	ldr	x1, [x0]
	subs	x2, x2, x1
	mov	x1, 0
	bne	.L287
	ldp	x19, x20, [sp, 16]
	ldp	x21, x22, [sp, 32]
	ldp	x23, x24, [sp, 48]
	ldp	x29, x30, [sp], 256
	.cfi_remember_state
	.cfi_restore 30
	.cfi_restore 29
	.cfi_restore 23
	.cfi_restore 24
	.cfi_restore 21
	.cfi_restore 22
	.cfi_restore 19
	.cfi_restore 20
	.cfi_def_cfa_offset 0
	ret
	.p2align 2,,3
.L258:
	.cfi_restore_state
	mov	x0, x19
.LEHB5:
	bl	_ZNSt28__atomic_futex_unsigned_base19_M_futex_notify_allEPj
.LEHE5:
	b	.L261
	.p2align 2,,3
.L282:
	ldrb	w1, [x19, 40]
	strb	w1, [x19]
	str	x19, [x0]
	b	.L249
.L283:
.LEHB6:
	bl	_ZSt25__throw_bad_function_callv
.LEHE6:
.L285:
.LEHB7:
	bl	_ZSt20__throw_system_errori
.LEHE7:
.L284:
	mov	w0, 3
.LEHB8:
	bl	_ZSt20__throw_future_errori
.LEHE8:
.L287:
	bl	__stack_chk_fail
.L266:
	mov	x19, x0
.L257:
	ldr	x3, [sp, 232]
	cbz	x3, .L262
	mov	x1, x24
	mov	x0, x24
	mov	w2, 3
	blr	x3
.L262:
	mov	x0, x19
.L263:
	stlr	wzr, [x22]
.LEHB9:
	bl	_Unwind_Resume
.LEHE9:
.L267:
	mov	x19, x0
	adrp	x0, :tlsdesc:_ZSt15__once_callable
	ldr	x1, [x0, #:tlsdesc_lo12:_ZSt15__once_callable]
	add	x0, x0, :tlsdesc_lo12:_ZSt15__once_callable
	.tlsdesccall	_ZSt15__once_callable
	blr	x1
	str	xzr, [x20, x0]
	adrp	x0, :tlsdesc:_ZSt11__once_call
	ldr	x1, [x0, #:tlsdesc_lo12:_ZSt11__once_call]
	add	x0, x0, :tlsdesc_lo12:_ZSt11__once_call
	.tlsdesccall	_ZSt11__once_call
	blr	x1
	str	xzr, [x20, x0]
	b	.L257
.L265:
	b	.L263
	.cfi_endproc
.LFE11767:
	.section	.gcc_except_table._ZN4asio6detail18completion_handlerIZN7asiopal8Executor10ReturnFromIN8opendnp314LinkStatisticsEEET_RKSt8functionIFS7_vEEEUlvE_E11do_completeEPNS0_15task_io_serviceEPNS0_25task_io_service_operationERKSt10error_codem,"aG",@progbits,_ZN4asio6detail18completion_handlerIZN7asiopal8Executor10ReturnFromIN8opendnp314LinkStatisticsEEET_RKSt8functionIFS7_vEEEUlvE_E11do_completeEPNS0_15task_io_serviceEPNS0_25task_io_service_operationERKSt10error_codem,comdat
.LLSDA11767:
	.byte	0xff
	.byte	0xff
	.byte	0x1
	.uleb128 .LLSDACSE11767-.LLSDACSB11767
.LLSDACSB11767:
	.uleb128 .LEHB2-.LFB11767
	.uleb128 .LEHE2-.LEHB2
	.uleb128 .L265-.LFB11767
	.uleb128 0
	.uleb128 .LEHB3-.LFB11767
	.uleb128 .LEHE3-.LEHB3
	.uleb128 .L267-.LFB11767
	.uleb128 0
	.uleb128 .LEHB4-.LFB11767
	.uleb128 .LEHE4-.LEHB4
	.uleb128 .L266-.LFB11767
	.uleb128 0
	.uleb128 .LEHB5-.LFB11767
	.uleb128 .LEHE5-.LEHB5
	.uleb128 .L266-.LFB11767
	.uleb128 0
	.uleb128 .LEHB6-.LFB11767
	.uleb128 .LEHE6-.LEHB6
	.uleb128 .L265-.LFB11767
	.uleb128 0
	.uleb128 .LEHB7-.LFB11767
	.uleb128 .LEHE7-.LEHB7
	.uleb128 .L267-.LFB11767
	.uleb128 0
	.uleb128 .LEHB8-.LFB11767
	.uleb128 .LEHE8-.LEHB8
	.uleb128 .L265-.LFB11767
	.uleb128 0
	.uleb128 .LEHB9-.LFB11767
	.uleb128 .LEHE9-.LEHB9
	.uleb128 0
	.uleb128 0
.LLSDACSE11767:
	.section	.text._ZN4asio6detail18completion_handlerIZN7asiopal8Executor10ReturnFromIN8opendnp314LinkStatisticsEEET_RKSt8functionIFS7_vEEEUlvE_E11do_completeEPNS0_15task_io_serviceEPNS0_25task_io_service_operationERKSt10error_codem,"axG",@progbits,_ZN4asio6detail18completion_handlerIZN7asiopal8Executor10ReturnFromIN8opendnp314LinkStatisticsEEET_RKSt8functionIFS7_vEEEUlvE_E11do_completeEPNS0_15task_io_serviceEPNS0_25task_io_service_operationERKSt10error_codem,comdat
	.size	_ZN4asio6detail18completion_handlerIZN7asiopal8Executor10ReturnFromIN8opendnp314LinkStatisticsEEET_RKSt8functionIFS7_vEEEUlvE_E11do_completeEPNS0_15task_io_serviceEPNS0_25task_io_service_operationERKSt10error_codem, .-_ZN4asio6detail18completion_handlerIZN7asiopal8Executor10ReturnFromIN8opendnp314LinkStatisticsEEET_RKSt8functionIFS7_vEEEUlvE_E11do_completeEPNS0_15task_io_serviceEPNS0_25task_io_service_operationERKSt10error_codem
	.section	.text._ZN4asio6detail18completion_handlerIZN7asiopal8Executor10ReturnFromIbEET_RKSt8functionIFS5_vEEEUlvE_E11do_completeEPNS0_15task_io_serviceEPNS0_25task_io_service_operationERKSt10error_codem,"axG",@progbits,_ZN4asio6detail18completion_handlerIZN7asiopal8Executor10ReturnFromIbEET_RKSt8functionIFS5_vEEEUlvE_E11do_completeEPNS0_15task_io_serviceEPNS0_25task_io_service_operationERKSt10error_codem,comdat
	.align	2
	.p2align 4,,11
	.weak	_ZN4asio6detail18completion_handlerIZN7asiopal8Executor10ReturnFromIbEET_RKSt8functionIFS5_vEEEUlvE_E11do_completeEPNS0_15task_io_serviceEPNS0_25task_io_service_operationERKSt10error_codem
	.type	_ZN4asio6detail18completion_handlerIZN7asiopal8Executor10ReturnFromIbEET_RKSt8functionIFS5_vEEEUlvE_E11do_completeEPNS0_15task_io_serviceEPNS0_25task_io_service_operationERKSt10error_codem, %function
_ZN4asio6detail18completion_handlerIZN7asiopal8Executor10ReturnFromIbEET_RKSt8functionIFS5_vEEEUlvE_E11do_completeEPNS0_15task_io_serviceEPNS0_25task_io_service_operationERKSt10error_codem:
.LFB12306:
	.cfi_startproc
	.cfi_personality 0x9b,DW.ref.__gxx_personality_v0
	.cfi_lsda 0x1b,.LLSDA12306
	stp	x29, x30, [sp, -192]!
	.cfi_def_cfa_offset 192
	.cfi_offset 29, -192
	.cfi_offset 30, -184
	adrp	x3, :got:_ZN4asio6detail10call_stackINS0_15task_io_serviceENS0_27task_io_service_thread_infoEE4top_E
	adrp	x2, :got:__stack_chk_guard
	mov	x29, sp
	ldr	x3, [x3, #:got_lo12:_ZN4asio6detail10call_stackINS0_15task_io_serviceENS0_27task_io_service_thread_infoEE4top_E]
	stp	x19, x20, [sp, 16]
	.cfi_offset 19, -176
	.cfi_offset 20, -168
	mov	x20, x0
	ldr	x2, [x2, #:got_lo12:__stack_chk_guard]
	stp	x21, x22, [sp, 32]
	ldr	w0, [x3]
	mov	x19, x1
	ldr	x1, [x2]
	str	x1, [sp, 184]
	mov	x1, 0
	.cfi_offset 21, -160
	.cfi_offset 22, -152
	ldp	x22, x21, [x19, 24]
	bl	pthread_getspecific
	cbz	x0, .L289
	ldr	x0, [x0, 8]
	cbz	x0, .L289
	ldr	x1, [x0]
	cbz	x1, .L323
.L289:
	mov	x0, x19
	bl	_ZdlPv
.L290:
	cbz	x20, .L288
	str	x23, [sp, 48]
	.cfi_offset 23, -144
	add	x23, sp, 72
	mov	x1, x23
	mov	w0, 1
	str	wzr, [sp, 72]
	bl	__aarch64_swp4_sync
	ldr	x0, [x21, 16]
	cbz	x0, .L324
	ldr	x1, [x21, 24]
	mov	x0, x21
.LEHB10:
	blr	x1
.LEHE10:
	ldr	x19, [x22]
	strb	w0, [sp, 70]
	cbz	x19, .L325
	adrp	x0, :tlsdesc:_ZSt15__once_callable
	ldr	x5, [x0, #:tlsdesc_lo12:_ZSt15__once_callable]
	add	x0, x0, :tlsdesc_lo12:_ZSt15__once_callable
	.tlsdesccall	_ZSt15__once_callable
	blr	x5
	mrs	x20, tpidr_el0
	add	x5, sp, 120
	adrp	x6, :got:_ZNSt13__future_base13_State_baseV29_M_do_setEPSt8functionIFSt10unique_ptrINS_12_Result_baseENS3_8_DeleterEEvEEPb
	adrp	x1, :got:__once_proxy
	adrp	x2, :got:_ZZNSt9once_flag18_Prepare_executionC4IZSt9call_onceIMNSt13__future_base13_State_baseV2EFvPSt8functionIFSt10unique_ptrINS3_12_Result_baseENS7_8_DeleterEEvEEPbEJPS4_SC_SD_EEvRS_OT_DpOT0_EUlvE_EERSI_ENUlvE_4_FUNEv
	adrp	x3, :got:_ZNSt17_Function_handlerIFSt10unique_ptrINSt13__future_base12_Result_baseENS2_8_DeleterEEvENS1_13_State_baseV27_SetterIbObEEE9_M_invokeERKSt9_Any_data
	adrp	x4, :got:_ZNSt17_Function_handlerIFSt10unique_ptrINSt13__future_base12_Result_baseENS2_8_DeleterEEvENS1_13_State_baseV27_SetterIbObEEE10_M_managerERSt9_Any_dataRKSB_St18_Manager_operation
	ldr	x10, [x6, #:got_lo12:_ZNSt13__future_base13_State_baseV29_M_do_setEPSt8functionIFSt10unique_ptrINS_12_Result_baseENS3_8_DeleterEEvEEPb]
	str	x5, [x20, x0]
	ldr	x2, [x2, #:got_lo12:_ZZNSt9once_flag18_Prepare_executionC4IZSt9call_onceIMNSt13__future_base13_State_baseV2EFvPSt8functionIFSt10unique_ptrINS3_12_Result_baseENS7_8_DeleterEEvEEPbEJPS4_SC_SD_EEvRS_OT_DpOT0_EUlvE_EERSI_ENUlvE_4_FUNEv]
	adrp	x0, :tlsdesc:_ZSt11__once_call
	ldr	x5, [x0, #:tlsdesc_lo12:_ZSt11__once_call]
	add	x0, x0, :tlsdesc_lo12:_ZSt11__once_call
	.tlsdesccall	_ZSt11__once_call
	blr	x5
	ldr	x3, [x3, #:got_lo12:_ZNSt17_Function_handlerIFSt10unique_ptrINSt13__future_base12_Result_baseENS2_8_DeleterEEvENS1_13_State_baseV27_SetterIbObEEE9_M_invokeERKSt9_Any_data]
	add	x5, sp, 70
	ldr	x4, [x4, #:got_lo12:_ZNSt17_Function_handlerIFSt10unique_ptrINSt13__future_base12_Result_baseENS2_8_DeleterEEvENS1_13_State_baseV27_SetterIbObEEE10_M_managerERSt9_Any_dataRKSB_St18_Manager_operation]
	add	x11, sp, 71
	ldr	x1, [x1, #:got_lo12:__once_proxy]
	add	x9, sp, 104
	add	x8, sp, 96
	add	x7, sp, 88
	add	x6, sp, 80
	add	x21, sp, 152
	str	x2, [x20, x0]
	add	x0, x19, 24
	strb	wzr, [sp, 71]
	stp	x11, x21, [sp, 80]
	stp	x19, x10, [sp, 96]
	stp	xzr, x9, [sp, 112]
	stp	x8, x7, [sp, 128]
	stp	x6, x22, [sp, 144]
	stp	x5, x4, [sp, 160]
	str	x3, [sp, 176]
.LEHB11:
	bl	pthread_once
.LEHE11:
	cbnz	w0, .L326
	ldrb	w1, [sp, 71]
	adrp	x0, :tlsdesc:_ZSt15__once_callable
	ldr	x2, [x0, #:tlsdesc_lo12:_ZSt15__once_callable]
	add	x0, x0, :tlsdesc_lo12:_ZSt15__once_callable
	.tlsdesccall	_ZSt15__once_callable
	blr	x2
	str	xzr, [x20, x0]
	adrp	x0, :tlsdesc:_ZSt11__once_call
	ldr	x2, [x0, #:tlsdesc_lo12:_ZSt11__once_call]
	add	x0, x0, :tlsdesc_lo12:_ZSt11__once_call
	.tlsdesccall	_ZSt11__once_call
	blr	x2
	str	xzr, [x20, x0]
	cbnz	w1, .L327
	mov	w0, 2
.LEHB12:
	bl	_ZSt20__throw_future_errori
.LEHE12:
	.p2align 2,,3
.L327:
	add	x19, x19, 16
	mov	w0, 1
	mov	x1, x19
	bl	__aarch64_swp4_rel
	tbnz	w0, #31, .L299
.L302:
	ldr	x3, [sp, 168]
	cbz	x3, .L301
	mov	x1, x21
	mov	x0, x21
	mov	w2, 3
	blr	x3
.L301:
	stlr	wzr, [x23]
	ldr	x23, [sp, 48]
	.cfi_restore 23
.L288:
	adrp	x0, :got:__stack_chk_guard
	ldr	x0, [x0, #:got_lo12:__stack_chk_guard]
	ldr	x2, [sp, 184]
	ldr	x1, [x0]
	subs	x2, x2, x1
	mov	x1, 0
	bne	.L328
	ldp	x19, x20, [sp, 16]
	ldp	x21, x22, [sp, 32]
	ldp	x29, x30, [sp], 192
	.cfi_restore 30
	.cfi_restore 29
	.cfi_restore 21
	.cfi_restore 22
	.cfi_restore 19
	.cfi_restore 20
	.cfi_def_cfa_offset 0
	ret
	.p2align 2,,3
.L299:
	.cfi_def_cfa_offset 192
	.cfi_offset 19, -176
	.cfi_offset 20, -168
	.cfi_offset 21, -160
	.cfi_offset 22, -152
	.cfi_offset 23, -144
	.cfi_offset 29, -192
	.cfi_offset 30, -184
	mov	x0, x19
.LEHB13:
	bl	_ZNSt28__atomic_futex_unsigned_base19_M_futex_notify_allEPj
.LEHE13:
	b	.L302
	.p2align 2,,3
.L323:
	.cfi_restore 23
	ldrb	w1, [x19, 40]
	strb	w1, [x19]
	str	x19, [x0]
	b	.L290
.L324:
	.cfi_offset 23, -144
.LEHB14:
	bl	_ZSt25__throw_bad_function_callv
.LEHE14:
.L326:
.LEHB15:
	bl	_ZSt20__throw_system_errori
.LEHE15:
.L325:
	mov	w0, 3
.LEHB16:
	bl	_ZSt20__throw_future_errori
.LEHE16:
.L328:
	.cfi_restore 23
	str	x23, [sp, 48]
	.cfi_offset 23, -144
	bl	__stack_chk_fail
.L307:
	mov	x19, x0
.L298:
	ldr	x3, [sp, 168]
	cbz	x3, .L303
	mov	x1, x21
	mov	x0, x21
	mov	w2, 3
	blr	x3
.L303:
	mov	x0, x19
.L304:
	stlr	wzr, [x23]
.LEHB17:
	bl	_Unwind_Resume
.LEHE17:
.L308:
	mov	x19, x0
	adrp	x0, :tlsdesc:_ZSt15__once_callable
	ldr	x1, [x0, #:tlsdesc_lo12:_ZSt15__once_callable]
	add	x0, x0, :tlsdesc_lo12:_ZSt15__once_callable
	.tlsdesccall	_ZSt15__once_callable
	blr	x1
	str	xzr, [x20, x0]
	adrp	x0, :tlsdesc:_ZSt11__once_call
	ldr	x1, [x0, #:tlsdesc_lo12:_ZSt11__once_call]
	add	x0, x0, :tlsdesc_lo12:_ZSt11__once_call
	.tlsdesccall	_ZSt11__once_call
	blr	x1
	str	xzr, [x20, x0]
	b	.L298
.L306:
	b	.L304
	.cfi_endproc
.LFE12306:
	.section	.gcc_except_table._ZN4asio6detail18completion_handlerIZN7asiopal8Executor10ReturnFromIbEET_RKSt8functionIFS5_vEEEUlvE_E11do_completeEPNS0_15task_io_serviceEPNS0_25task_io_service_operationERKSt10error_codem,"aG",@progbits,_ZN4asio6detail18completion_handlerIZN7asiopal8Executor10ReturnFromIbEET_RKSt8functionIFS5_vEEEUlvE_E11do_completeEPNS0_15task_io_serviceEPNS0_25task_io_service_operationERKSt10error_codem,comdat
.LLSDA12306:
	.byte	0xff
	.byte	0xff
	.byte	0x1
	.uleb128 .LLSDACSE12306-.LLSDACSB12306
.LLSDACSB12306:
	.uleb128 .LEHB10-.LFB12306
	.uleb128 .LEHE10-.LEHB10
	.uleb128 .L306-.LFB12306
	.uleb128 0
	.uleb128 .LEHB11-.LFB12306
	.uleb128 .LEHE11-.LEHB11
	.uleb128 .L308-.LFB12306
	.uleb128 0
	.uleb128 .LEHB12-.LFB12306
	.uleb128 .LEHE12-.LEHB12
	.uleb128 .L307-.LFB12306
	.uleb128 0
	.uleb128 .LEHB13-.LFB12306
	.uleb128 .LEHE13-.LEHB13
	.uleb128 .L307-.LFB12306
	.uleb128 0
	.uleb128 .LEHB14-.LFB12306
	.uleb128 .LEHE14-.LEHB14
	.uleb128 .L306-.LFB12306
	.uleb128 0
	.uleb128 .LEHB15-.LFB12306
	.uleb128 .LEHE15-.LEHB15
	.uleb128 .L308-.LFB12306
	.uleb128 0
	.uleb128 .LEHB16-.LFB12306
	.uleb128 .LEHE16-.LEHB16
	.uleb128 .L306-.LFB12306
	.uleb128 0
	.uleb128 .LEHB17-.LFB12306
	.uleb128 .LEHE17-.LEHB17
	.uleb128 0
	.uleb128 0
.LLSDACSE12306:
	.section	.text._ZN4asio6detail18completion_handlerIZN7asiopal8Executor10ReturnFromIbEET_RKSt8functionIFS5_vEEEUlvE_E11do_completeEPNS0_15task_io_serviceEPNS0_25task_io_service_operationERKSt10error_codem,"axG",@progbits,_ZN4asio6detail18completion_handlerIZN7asiopal8Executor10ReturnFromIbEET_RKSt8functionIFS5_vEEEUlvE_E11do_completeEPNS0_15task_io_serviceEPNS0_25task_io_service_operationERKSt10error_codem,comdat
	.size	_ZN4asio6detail18completion_handlerIZN7asiopal8Executor10ReturnFromIbEET_RKSt8functionIFS5_vEEEUlvE_E11do_completeEPNS0_15task_io_serviceEPNS0_25task_io_service_operationERKSt10error_codem, .-_ZN4asio6detail18completion_handlerIZN7asiopal8Executor10ReturnFromIbEET_RKSt8functionIFS5_vEEEUlvE_E11do_completeEPNS0_15task_io_serviceEPNS0_25task_io_service_operationERKSt10error_codem
	.section	.text._ZN4asio6detail18completion_handlerIZN7asiopal8Executor10ReturnFromIN7openpal10LogFiltersEEET_RKSt8functionIFS7_vEEEUlvE_E11do_completeEPNS0_15task_io_serviceEPNS0_25task_io_service_operationERKSt10error_codem,"axG",@progbits,_ZN4asio6detail18completion_handlerIZN7asiopal8Executor10ReturnFromIN7openpal10LogFiltersEEET_RKSt8functionIFS7_vEEEUlvE_E11do_completeEPNS0_15task_io_serviceEPNS0_25task_io_service_operationERKSt10error_codem,comdat
	.align	2
	.p2align 4,,11
	.weak	_ZN4asio6detail18completion_handlerIZN7asiopal8Executor10ReturnFromIN7openpal10LogFiltersEEET_RKSt8functionIFS7_vEEEUlvE_E11do_completeEPNS0_15task_io_serviceEPNS0_25task_io_service_operationERKSt10error_codem
	.type	_ZN4asio6detail18completion_handlerIZN7asiopal8Executor10ReturnFromIN7openpal10LogFiltersEEET_RKSt8functionIFS7_vEEEUlvE_E11do_completeEPNS0_15task_io_serviceEPNS0_25task_io_service_operationERKSt10error_codem, %function
_ZN4asio6detail18completion_handlerIZN7asiopal8Executor10ReturnFromIN7openpal10LogFiltersEEET_RKSt8functionIFS7_vEEEUlvE_E11do_completeEPNS0_15task_io_serviceEPNS0_25task_io_service_operationERKSt10error_codem:
.LFB11797:
	.cfi_startproc
	.cfi_personality 0x9b,DW.ref.__gxx_personality_v0
	.cfi_lsda 0x1b,.LLSDA11797
	stp	x29, x30, [sp, -208]!
	.cfi_def_cfa_offset 208
	.cfi_offset 29, -208
	.cfi_offset 30, -200
	adrp	x3, :got:_ZN4asio6detail10call_stackINS0_15task_io_serviceENS0_27task_io_service_thread_infoEE4top_E
	adrp	x2, :got:__stack_chk_guard
	mov	x29, sp
	ldr	x3, [x3, #:got_lo12:_ZN4asio6detail10call_stackINS0_15task_io_serviceENS0_27task_io_service_thread_infoEE4top_E]
	stp	x19, x20, [sp, 16]
	.cfi_offset 19, -192
	.cfi_offset 20, -184
	mov	x20, x0
	ldr	x2, [x2, #:got_lo12:__stack_chk_guard]
	stp	x21, x22, [sp, 32]
	ldr	w0, [x3]
	mov	x19, x1
	ldr	x1, [x2]
	str	x1, [sp, 200]
	mov	x1, 0
	.cfi_offset 21, -176
	.cfi_offset 22, -168
	ldp	x22, x21, [x19, 24]
	bl	pthread_getspecific
	cbz	x0, .L330
	ldr	x0, [x0, 8]
	cbz	x0, .L330
	ldr	x1, [x0]
	cbz	x1, .L364
.L330:
	mov	x0, x19
	bl	_ZdlPv
.L331:
	cbz	x20, .L329
	str	x23, [sp, 48]
	.cfi_offset 23, -160
	add	x23, sp, 80
	mov	x1, x23
	mov	w0, 1
	str	wzr, [sp, 80]
	bl	__aarch64_swp4_sync
	ldr	x0, [x21, 16]
	cbz	x0, .L365
	ldr	x1, [x21, 24]
	mov	x0, x21
.LEHB18:
	blr	x1
.LEHE18:
	ldr	x19, [x22]
	str	w0, [sp, 88]
	cbz	x19, .L366
	adrp	x0, :tlsdesc:_ZSt15__once_callable
	ldr	x5, [x0, #:tlsdesc_lo12:_ZSt15__once_callable]
	add	x0, x0, :tlsdesc_lo12:_ZSt15__once_callable
	.tlsdesccall	_ZSt15__once_callable
	blr	x5
	mrs	x20, tpidr_el0
	add	x5, sp, 136
	adrp	x6, :got:_ZNSt13__future_base13_State_baseV29_M_do_setEPSt8functionIFSt10unique_ptrINS_12_Result_baseENS3_8_DeleterEEvEEPb
	adrp	x1, :got:__once_proxy
	adrp	x2, :got:_ZZNSt9once_flag18_Prepare_executionC4IZSt9call_onceIMNSt13__future_base13_State_baseV2EFvPSt8functionIFSt10unique_ptrINS3_12_Result_baseENS7_8_DeleterEEvEEPbEJPS4_SC_SD_EEvRS_OT_DpOT0_EUlvE_EERSI_ENUlvE_4_FUNEv
	adrp	x3, :got:_ZNSt17_Function_handlerIFSt10unique_ptrINSt13__future_base12_Result_baseENS2_8_DeleterEEvENS1_13_State_baseV27_SetterIN7openpal10LogFiltersEOS9_EEE9_M_invokeERKSt9_Any_data
	adrp	x4, :got:_ZNSt17_Function_handlerIFSt10unique_ptrINSt13__future_base12_Result_baseENS2_8_DeleterEEvENS1_13_State_baseV27_SetterIN7openpal10LogFiltersEOS9_EEE10_M_managerERSt9_Any_dataRKSD_St18_Manager_operation
	ldr	x10, [x6, #:got_lo12:_ZNSt13__future_base13_State_baseV29_M_do_setEPSt8functionIFSt10unique_ptrINS_12_Result_baseENS3_8_DeleterEEvEEPb]
	str	x5, [x20, x0]
	ldr	x2, [x2, #:got_lo12:_ZZNSt9once_flag18_Prepare_executionC4IZSt9call_onceIMNSt13__future_base13_State_baseV2EFvPSt8functionIFSt10unique_ptrINS3_12_Result_baseENS7_8_DeleterEEvEEPbEJPS4_SC_SD_EEvRS_OT_DpOT0_EUlvE_EERSI_ENUlvE_4_FUNEv]
	adrp	x0, :tlsdesc:_ZSt11__once_call
	ldr	x5, [x0, #:tlsdesc_lo12:_ZSt11__once_call]
	add	x0, x0, :tlsdesc_lo12:_ZSt11__once_call
	.tlsdesccall	_ZSt11__once_call
	blr	x5
	ldr	x3, [x3, #:got_lo12:_ZNSt17_Function_handlerIFSt10unique_ptrINSt13__future_base12_Result_baseENS2_8_DeleterEEvENS1_13_State_baseV27_SetterIN7openpal10LogFiltersEOS9_EEE9_M_invokeERKSt9_Any_data]
	add	x5, sp, 88
	ldr	x4, [x4, #:got_lo12:_ZNSt17_Function_handlerIFSt10unique_ptrINSt13__future_base12_Result_baseENS2_8_DeleterEEvENS1_13_State_baseV27_SetterIN7openpal10LogFiltersEOS9_EEE10_M_managerERSt9_Any_dataRKSD_St18_Manager_operation]
	add	x11, sp, 79
	ldr	x1, [x1, #:got_lo12:__once_proxy]
	add	x9, sp, 120
	add	x8, sp, 112
	add	x7, sp, 104
	add	x6, sp, 96
	add	x21, sp, 168
	str	x2, [x20, x0]
	add	x0, x19, 24
	strb	wzr, [sp, 79]
	stp	x11, x21, [sp, 96]
	stp	x19, x10, [sp, 112]
	stp	xzr, x9, [sp, 128]
	stp	x8, x7, [sp, 144]
	stp	x6, x22, [sp, 160]
	stp	x5, x4, [sp, 176]
	str	x3, [sp, 192]
.LEHB19:
	bl	pthread_once
.LEHE19:
	cbnz	w0, .L367
	ldrb	w1, [sp, 79]
	adrp	x0, :tlsdesc:_ZSt15__once_callable
	ldr	x2, [x0, #:tlsdesc_lo12:_ZSt15__once_callable]
	add	x0, x0, :tlsdesc_lo12:_ZSt15__once_callable
	.tlsdesccall	_ZSt15__once_callable
	blr	x2
	str	xzr, [x20, x0]
	adrp	x0, :tlsdesc:_ZSt11__once_call
	ldr	x2, [x0, #:tlsdesc_lo12:_ZSt11__once_call]
	add	x0, x0, :tlsdesc_lo12:_ZSt11__once_call
	.tlsdesccall	_ZSt11__once_call
	blr	x2
	str	xzr, [x20, x0]
	cbnz	w1, .L368
	mov	w0, 2
.LEHB20:
	bl	_ZSt20__throw_future_errori
.LEHE20:
	.p2align 2,,3
.L368:
	add	x19, x19, 16
	mov	w0, 1
	mov	x1, x19
	bl	__aarch64_swp4_rel
	tbnz	w0, #31, .L340
.L343:
	ldr	x3, [sp, 184]
	cbz	x3, .L342
	mov	x1, x21
	mov	x0, x21
	mov	w2, 3
	blr	x3
.L342:
	stlr	wzr, [x23]
	ldr	x23, [sp, 48]
	.cfi_restore 23
.L329:
	adrp	x0, :got:__stack_chk_guard
	ldr	x0, [x0, #:got_lo12:__stack_chk_guard]
	ldr	x2, [sp, 200]
	ldr	x1, [x0]
	subs	x2, x2, x1
	mov	x1, 0
	bne	.L369
	ldp	x19, x20, [sp, 16]
	ldp	x21, x22, [sp, 32]
	ldp	x29, x30, [sp], 208
	.cfi_restore 30
	.cfi_restore 29
	.cfi_restore 21
	.cfi_restore 22
	.cfi_restore 19
	.cfi_restore 20
	.cfi_def_cfa_offset 0
	ret
	.p2align 2,,3
.L340:
	.cfi_def_cfa_offset 208
	.cfi_offset 19, -192
	.cfi_offset 20, -184
	.cfi_offset 21, -176
	.cfi_offset 22, -168
	.cfi_offset 23, -160
	.cfi_offset 29, -208
	.cfi_offset 30, -200
	mov	x0, x19
.LEHB21:
	bl	_ZNSt28__atomic_futex_unsigned_base19_M_futex_notify_allEPj
.LEHE21:
	b	.L343
	.p2align 2,,3
.L364:
	.cfi_restore 23
	ldrb	w1, [x19, 40]
	strb	w1, [x19]
	str	x19, [x0]
	b	.L331
.L365:
	.cfi_offset 23, -160
.LEHB22:
	bl	_ZSt25__throw_bad_function_callv
.LEHE22:
.L367:
.LEHB23:
	bl	_ZSt20__throw_system_errori
.LEHE23:
.L366:
	mov	w0, 3
.LEHB24:
	bl	_ZSt20__throw_future_errori
.LEHE24:
.L369:
	.cfi_restore 23
	str	x23, [sp, 48]
	.cfi_offset 23, -160
	bl	__stack_chk_fail
.L348:
	mov	x19, x0
.L339:
	ldr	x3, [sp, 184]
	cbz	x3, .L344
	mov	x1, x21
	mov	x0, x21
	mov	w2, 3
	blr	x3
.L344:
	mov	x0, x19
.L345:
	stlr	wzr, [x23]
.LEHB25:
	bl	_Unwind_Resume
.LEHE25:
.L349:
	mov	x19, x0
	adrp	x0, :tlsdesc:_ZSt15__once_callable
	ldr	x1, [x0, #:tlsdesc_lo12:_ZSt15__once_callable]
	add	x0, x0, :tlsdesc_lo12:_ZSt15__once_callable
	.tlsdesccall	_ZSt15__once_callable
	blr	x1
	str	xzr, [x20, x0]
	adrp	x0, :tlsdesc:_ZSt11__once_call
	ldr	x1, [x0, #:tlsdesc_lo12:_ZSt11__once_call]
	add	x0, x0, :tlsdesc_lo12:_ZSt11__once_call
	.tlsdesccall	_ZSt11__once_call
	blr	x1
	str	xzr, [x20, x0]
	b	.L339
.L347:
	b	.L345
	.cfi_endproc
.LFE11797:
	.section	.gcc_except_table._ZN4asio6detail18completion_handlerIZN7asiopal8Executor10ReturnFromIN7openpal10LogFiltersEEET_RKSt8functionIFS7_vEEEUlvE_E11do_completeEPNS0_15task_io_serviceEPNS0_25task_io_service_operationERKSt10error_codem,"aG",@progbits,_ZN4asio6detail18completion_handlerIZN7asiopal8Executor10ReturnFromIN7openpal10LogFiltersEEET_RKSt8functionIFS7_vEEEUlvE_E11do_completeEPNS0_15task_io_serviceEPNS0_25task_io_service_operationERKSt10error_codem,comdat
.LLSDA11797:
	.byte	0xff
	.byte	0xff
	.byte	0x1
	.uleb128 .LLSDACSE11797-.LLSDACSB11797
.LLSDACSB11797:
	.uleb128 .LEHB18-.LFB11797
	.uleb128 .LEHE18-.LEHB18
	.uleb128 .L347-.LFB11797
	.uleb128 0
	.uleb128 .LEHB19-.LFB11797
	.uleb128 .LEHE19-.LEHB19
	.uleb128 .L349-.LFB11797
	.uleb128 0
	.uleb128 .LEHB20-.LFB11797
	.uleb128 .LEHE20-.LEHB20
	.uleb128 .L348-.LFB11797
	.uleb128 0
	.uleb128 .LEHB21-.LFB11797
	.uleb128 .LEHE21-.LEHB21
	.uleb128 .L348-.LFB11797
	.uleb128 0
	.uleb128 .LEHB22-.LFB11797
	.uleb128 .LEHE22-.LEHB22
	.uleb128 .L347-.LFB11797
	.uleb128 0
	.uleb128 .LEHB23-.LFB11797
	.uleb128 .LEHE23-.LEHB23
	.uleb128 .L349-.LFB11797
	.uleb128 0
	.uleb128 .LEHB24-.LFB11797
	.uleb128 .LEHE24-.LEHB24
	.uleb128 .L347-.LFB11797
	.uleb128 0
	.uleb128 .LEHB25-.LFB11797
	.uleb128 .LEHE25-.LEHB25
	.uleb128 0
	.uleb128 0
.LLSDACSE11797:
	.section	.text._ZN4asio6detail18completion_handlerIZN7asiopal8Executor10ReturnFromIN7openpal10LogFiltersEEET_RKSt8functionIFS7_vEEEUlvE_E11do_completeEPNS0_15task_io_serviceEPNS0_25task_io_service_operationERKSt10error_codem,"axG",@progbits,_ZN4asio6detail18completion_handlerIZN7asiopal8Executor10ReturnFromIN7openpal10LogFiltersEEET_RKSt8functionIFS7_vEEEUlvE_E11do_completeEPNS0_15task_io_serviceEPNS0_25task_io_service_operationERKSt10error_codem,comdat
	.size	_ZN4asio6detail18completion_handlerIZN7asiopal8Executor10ReturnFromIN7openpal10LogFiltersEEET_RKSt8functionIFS7_vEEEUlvE_E11do_completeEPNS0_15task_io_serviceEPNS0_25task_io_service_operationERKSt10error_codem, .-_ZN4asio6detail18completion_handlerIZN7asiopal8Executor10ReturnFromIN7openpal10LogFiltersEEET_RKSt8functionIFS7_vEEEUlvE_E11do_completeEPNS0_15task_io_serviceEPNS0_25task_io_service_operationERKSt10error_codem
	.section	.rodata._ZNK4asio6detail15system_category7messageB5cxx11Ei.str1.8,"aMS",@progbits,1
	.align	3
.LC4:
	.string	"Operation aborted."
	.align	3
.LC5:
	.string	"basic_string::_M_construct null not valid"
	.section	.text._ZNK4asio6detail15system_category7messageB5cxx11Ei,"axG",@progbits,_ZNK4asio6detail15system_category7messageB5cxx11Ei,comdat
	.align	2
	.p2align 4,,11
	.weak	_ZNK4asio6detail15system_category7messageB5cxx11Ei
	.type	_ZNK4asio6detail15system_category7messageB5cxx11Ei, %function
_ZNK4asio6detail15system_category7messageB5cxx11Ei:
.LFB3568:
	.cfi_startproc
	stp	x29, x30, [sp, -320]!
	.cfi_def_cfa_offset 320
	.cfi_offset 29, -320
	.cfi_offset 30, -312
	adrp	x0, :got:__stack_chk_guard
	mov	x29, sp
	ldr	x2, [x0, #:got_lo12:__stack_chk_guard]
	stp	x19, x20, [sp, 16]
	mov	w0, w1
	stp	x21, x22, [sp, 32]
	.cfi_offset 19, -304
	.cfi_offset 20, -296
	.cfi_offset 21, -288
	.cfi_offset 22, -280
	mov	x19, x8
	add	x21, x8, 16
	ldr	x1, [x2]
	str	x1, [sp, 312]
	mov	x1, 0
	cmp	w0, 125
	beq	.L385
	movi	v0.4s, 0
	add	x3, sp, 72
	add	x1, sp, 56
	mov	x2, 256
	stp	xzr, xzr, [sp, 56]
	stp	q0, q0, [x3]
	stp	q0, q0, [x3, 32]
	stp	q0, q0, [x3, 64]
	stp	q0, q0, [x3, 96]
	stp	q0, q0, [x3, 128]
	stp	q0, q0, [x3, 160]
	stp	q0, q0, [x3, 192]
	str	q0, [x3, 224]
	bl	strerror_r
	mov	x22, x0
	str	x21, [x19]
	cbz	x0, .L373
	bl	strlen
	str	x0, [sp, 48]
	mov	x20, x0
	cmp	x0, 15
	bhi	.L386
	cmp	x0, 1
	bne	.L377
	ldrb	w0, [x22]
	strb	w0, [x19, 16]
.L378:
	str	x20, [x19, 8]
	strb	wzr, [x21, x20]
.L370:
	adrp	x0, :got:__stack_chk_guard
	ldr	x0, [x0, #:got_lo12:__stack_chk_guard]
	ldr	x2, [sp, 312]
	ldr	x1, [x0]
	subs	x2, x2, x1
	mov	x1, 0
	bne	.L387
	mov	x0, x19
	ldp	x19, x20, [sp, 16]
	ldp	x21, x22, [sp, 32]
	ldp	x29, x30, [sp], 320
	.cfi_remember_state
	.cfi_restore 30
	.cfi_restore 29
	.cfi_restore 21
	.cfi_restore 22
	.cfi_restore 19
	.cfi_restore 20
	.cfi_def_cfa_offset 0
	ret
	.p2align 2,,3
.L386:
	.cfi_restore_state
	add	x1, sp, 48
	mov	x0, x19
	mov	x2, 0
	bl	_ZNSt7__cxx1112basic_stringIcSt11char_traitsIcESaIcEE9_M_createERmm
	mov	x21, x0
	str	x0, [x19]
	ldr	x1, [sp, 48]
	str	x1, [x19, 16]
.L376:
	mov	x2, x20
	mov	x0, x21
	mov	x1, x22
	bl	memcpy
	ldr	x21, [x19]
	ldr	x20, [sp, 48]
	b	.L378
	.p2align 2,,3
.L385:
	mov	x3, 18
	str	x21, [x8]
	add	x1, sp, 48
	mov	x2, 0
	mov	x0, x8
	str	x3, [sp, 48]
	bl	_ZNSt7__cxx1112basic_stringIcSt11char_traitsIcESaIcEE9_M_createERmm
	str	x0, [x19]
	adrp	x1, .LC4
	add	x1, x1, :lo12:.LC4
	ldr	x2, [sp, 48]
	str	x2, [x19, 16]
	ldp	x2, x3, [x1]
	stp	x2, x3, [x0]
	ldrh	w1, [x1, 16]
	strh	w1, [x0, 16]
	ldr	x1, [x19]
	ldr	x0, [sp, 48]
	str	x0, [x19, 8]
	strb	wzr, [x1, x0]
	b	.L370
	.p2align 2,,3
.L377:
	cbz	x0, .L378
	b	.L376
.L373:
	adrp	x0, .LC5
	add	x0, x0, :lo12:.LC5
	bl	_ZSt19__throw_logic_errorPKc
.L387:
	bl	__stack_chk_fail
	.cfi_endproc
.LFE3568:
	.size	_ZNK4asio6detail15system_category7messageB5cxx11Ei, .-_ZNK4asio6detail15system_category7messageB5cxx11Ei
	.section	.rodata._ZNK4asio5error6detail17addrinfo_category7messageB5cxx11Ei.str1.8,"aMS",@progbits,1
	.align	3
.LC6:
	.string	"Service not found"
	.align	3
.LC7:
	.string	"Socket type not supported"
	.align	3
.LC8:
	.string	"asio.addrinfo error"
	.section	.text._ZNK4asio5error6detail17addrinfo_category7messageB5cxx11Ei,"axG",@progbits,_ZNK4asio5error6detail17addrinfo_category7messageB5cxx11Ei,comdat
	.align	2
	.p2align 4,,11
	.weak	_ZNK4asio5error6detail17addrinfo_category7messageB5cxx11Ei
	.type	_ZNK4asio5error6detail17addrinfo_category7messageB5cxx11Ei, %function
_ZNK4asio5error6detail17addrinfo_category7messageB5cxx11Ei:
.LFB3595:
	.cfi_startproc
	stp	x29, x30, [sp, -48]!
	.cfi_def_cfa_offset 48
	.cfi_offset 29, -48
	.cfi_offset 30, -40
	adrp	x0, :got:__stack_chk_guard
	add	x2, x8, 16
	mov	x29, sp
	ldr	x0, [x0, #:got_lo12:__stack_chk_guard]
	str	x19, [sp, 16]
	.cfi_offset 19, -32
	mov	x19, x8
	ldr	x3, [x0]
	str	x3, [sp, 40]
	mov	x3, 0
	str	x2, [x8]
	cmn	w1, #8
	beq	.L394
	cmn	w1, #7
	beq	.L395
	mov	x3, 19
	add	x1, sp, 32
	mov	x2, 0
	mov	x0, x8
	str	x3, [sp, 32]
	bl	_ZNSt7__cxx1112basic_stringIcSt11char_traitsIcESaIcEE9_M_createERmm
	adrp	x1, .LC8
	add	x1, x1, :lo12:.LC8
	ldr	x2, [sp, 32]
	str	x0, [x19]
	str	x2, [x19, 16]
	ldp	x2, x3, [x1]
	stp	x2, x3, [x0]
	ldr	w1, [x1, 15]
	str	w1, [x0, 15]
	ldr	x1, [x19]
	ldr	x0, [sp, 32]
	str	x0, [x19, 8]
	strb	wzr, [x1, x0]
.L388:
	adrp	x0, :got:__stack_chk_guard
	ldr	x0, [x0, #:got_lo12:__stack_chk_guard]
	ldr	x2, [sp, 40]
	ldr	x1, [x0]
	subs	x2, x2, x1
	mov	x1, 0
	bne	.L396
	mov	x0, x19
	ldr	x19, [sp, 16]
	ldp	x29, x30, [sp], 48
	.cfi_remember_state
	.cfi_restore 30
	.cfi_restore 29
	.cfi_restore 19
	.cfi_def_cfa_offset 0
	ret
	.p2align 2,,3
.L395:
	.cfi_restore_state
	mov	x3, 25
	add	x1, sp, 32
	mov	x2, 0
	mov	x0, x8
	str	x3, [sp, 32]
	bl	_ZNSt7__cxx1112basic_stringIcSt11char_traitsIcESaIcEE9_M_createERmm
	adrp	x1, .LC7
	add	x1, x1, :lo12:.LC7
	ldr	x2, [sp, 32]
	str	x0, [x19]
	ldr	q1, [x1]
	str	x2, [x19, 16]
	ldr	q0, [x1, 9]
	str	q1, [x0]
	str	q0, [x0, 9]
	ldr	x1, [x19]
	ldr	x0, [sp, 32]
	str	x0, [x19, 8]
	strb	wzr, [x1, x0]
	b	.L388
	.p2align 2,,3
.L394:
	mov	x3, 17
	add	x1, sp, 32
	mov	x2, 0
	mov	x0, x8
	str	x3, [sp, 32]
	bl	_ZNSt7__cxx1112basic_stringIcSt11char_traitsIcESaIcEE9_M_createERmm
	adrp	x1, .LC6
	add	x1, x1, :lo12:.LC6
	ldr	x2, [sp, 32]
	str	x0, [x19]
	str	x2, [x19, 16]
	ldp	x2, x3, [x1]
	stp	x2, x3, [x0]
	ldrb	w1, [x1, 16]
	strb	w1, [x0, 16]
	ldr	x1, [x19]
	ldr	x0, [sp, 32]
	str	x0, [x19, 8]
	strb	wzr, [x1, x0]
	b	.L388
.L396:
	bl	__stack_chk_fail
	.cfi_endproc
.LFE3595:
	.size	_ZNK4asio5error6detail17addrinfo_category7messageB5cxx11Ei, .-_ZNK4asio5error6detail17addrinfo_category7messageB5cxx11Ei
	.section	.rodata._ZNK4asio5error6detail14netdb_category7messageB5cxx11Ei.str1.8,"aMS",@progbits,1
	.align	3
.LC9:
	.string	"Host not found (authoritative)"
	.align	3
.LC10:
	.string	"Host not found (non-authoritative), try again later"
	.align	3
.LC11:
	.string	"The query is valid, but it does not have associated data"
	.align	3
.LC12:
	.string	"A non-recoverable error occurred during database lookup"
	.align	3
.LC13:
	.string	"asio.netdb error"
	.section	.text._ZNK4asio5error6detail14netdb_category7messageB5cxx11Ei,"axG",@progbits,_ZNK4asio5error6detail14netdb_category7messageB5cxx11Ei,comdat
	.align	2
	.p2align 4,,11
	.weak	_ZNK4asio5error6detail14netdb_category7messageB5cxx11Ei
	.type	_ZNK4asio5error6detail14netdb_category7messageB5cxx11Ei, %function
_ZNK4asio5error6detail14netdb_category7messageB5cxx11Ei:
.LFB3589:
	.cfi_startproc
	stp	x29, x30, [sp, -48]!
	.cfi_def_cfa_offset 48
	.cfi_offset 29, -48
	.cfi_offset 30, -40
	adrp	x0, :got:__stack_chk_guard
	add	x2, x8, 16
	mov	x29, sp
	ldr	x0, [x0, #:got_lo12:__stack_chk_guard]
	str	x19, [sp, 16]
	.cfi_offset 19, -32
	mov	x19, x8
	ldr	x3, [x0]
	str	x3, [sp, 40]
	mov	x3, 0
	str	x2, [x8]
	cmp	w1, 1
	beq	.L406
	cmp	w1, 2
	beq	.L407
	cmp	w1, 4
	beq	.L408
	cmp	w1, 3
	beq	.L409
	mov	x3, 16
	add	x1, sp, 32
	mov	x2, 0
	mov	x0, x8
	str	x3, [sp, 32]
	bl	_ZNSt7__cxx1112basic_stringIcSt11char_traitsIcESaIcEE9_M_createERmm
	adrp	x1, .LC13
	add	x1, x1, :lo12:.LC13
	ldr	x2, [sp, 32]
	str	x0, [x19]
	str	x2, [x19, 16]
	ldp	x2, x3, [x1]
	stp	x2, x3, [x0]
	ldr	x1, [x19]
	ldr	x0, [sp, 32]
	str	x0, [x19, 8]
	strb	wzr, [x1, x0]
.L397:
	adrp	x0, :got:__stack_chk_guard
	ldr	x0, [x0, #:got_lo12:__stack_chk_guard]
	ldr	x2, [sp, 40]
	ldr	x1, [x0]
	subs	x2, x2, x1
	mov	x1, 0
	bne	.L410
	mov	x0, x19
	ldr	x19, [sp, 16]
	ldp	x29, x30, [sp], 48
	.cfi_remember_state
	.cfi_restore 30
	.cfi_restore 29
	.cfi_restore 19
	.cfi_def_cfa_offset 0
	ret
	.p2align 2,,3
.L406:
	.cfi_restore_state
	mov	x3, 30
	add	x1, sp, 32
	mov	x2, 0
	mov	x0, x8
	str	x3, [sp, 32]
	bl	_ZNSt7__cxx1112basic_stringIcSt11char_traitsIcESaIcEE9_M_createERmm
	adrp	x1, .LC9
	add	x1, x1, :lo12:.LC9
	ldr	x2, [sp, 32]
	str	x0, [x19]
	ldr	q1, [x1]
	str	x2, [x19, 16]
	ldr	q0, [x1, 14]
	str	q1, [x0]
	str	q0, [x0, 14]
	ldr	x1, [x19]
	ldr	x0, [sp, 32]
	str	x0, [x19, 8]
	strb	wzr, [x1, x0]
	b	.L397
	.p2align 2,,3
.L409:
	mov	x3, 55
	add	x1, sp, 32
	mov	x2, 0
	mov	x0, x8
	str	x3, [sp, 32]
	bl	_ZNSt7__cxx1112basic_stringIcSt11char_traitsIcESaIcEE9_M_createERmm
	adrp	x1, .LC12
	add	x1, x1, :lo12:.LC12
	ldr	x2, [sp, 32]
	str	x0, [x19]
	ldr	q2, [x1, 32]
	str	x2, [x19, 16]
	ldp	q0, q1, [x1]
	str	q2, [x0, 32]
	ldr	x1, [x1, 47]
	str	x1, [x0, 47]
.L405:
	stp	q0, q1, [x0]
	ldr	x1, [x19]
	ldr	x0, [sp, 32]
	str	x0, [x19, 8]
	strb	wzr, [x1, x0]
	b	.L397
	.p2align 2,,3
.L407:
	mov	x3, 51
	add	x1, sp, 32
	mov	x2, 0
	mov	x0, x8
	str	x3, [sp, 32]
	bl	_ZNSt7__cxx1112basic_stringIcSt11char_traitsIcESaIcEE9_M_createERmm
	adrp	x1, .LC10
	add	x1, x1, :lo12:.LC10
	ldr	x2, [sp, 32]
	str	x0, [x19]
	ldr	q2, [x1, 32]
	str	x2, [x19, 16]
	ldp	q0, q1, [x1]
	ldr	w1, [x1, 47]
	str	q2, [x0, 32]
	str	w1, [x0, 47]
	b	.L405
	.p2align 2,,3
.L408:
	mov	x3, 56
	add	x1, sp, 32
	mov	x2, 0
	mov	x0, x8
	str	x3, [sp, 32]
	bl	_ZNSt7__cxx1112basic_stringIcSt11char_traitsIcESaIcEE9_M_createERmm
	adrp	x1, .LC11
	add	x1, x1, :lo12:.LC11
	ldr	x2, [sp, 32]
	str	x0, [x19]
	ldp	q1, q2, [x1]
	str	x2, [x19, 16]
	ldr	q0, [x1, 32]
	ldr	x1, [x1, 48]
	str	x1, [x0, 48]
	stp	q1, q2, [x0]
	str	q0, [x0, 32]
	ldr	x1, [x19]
	ldr	x0, [sp, 32]
	str	x0, [x19, 8]
	strb	wzr, [x1, x0]
	b	.L397
.L410:
	bl	__stack_chk_fail
	.cfi_endproc
.LFE3589:
	.size	_ZNK4asio5error6detail14netdb_category7messageB5cxx11Ei, .-_ZNK4asio5error6detail14netdb_category7messageB5cxx11Ei
	.section	.rodata._ZNK4asio5error6detail13misc_category7messageB5cxx11Ei.str1.8,"aMS",@progbits,1
	.align	3
.LC14:
	.string	"Already open"
	.align	3
.LC15:
	.string	"End of file"
	.align	3
.LC16:
	.string	"Element not found"
	.align	3
.LC17:
	.string	"The descriptor does not fit into the select call's fd_set"
	.align	3
.LC18:
	.string	"asio.misc error"
	.section	.text._ZNK4asio5error6detail13misc_category7messageB5cxx11Ei,"axG",@progbits,_ZNK4asio5error6detail13misc_category7messageB5cxx11Ei,comdat
	.align	2
	.p2align 4,,11
	.weak	_ZNK4asio5error6detail13misc_category7messageB5cxx11Ei
	.type	_ZNK4asio5error6detail13misc_category7messageB5cxx11Ei, %function
_ZNK4asio5error6detail13misc_category7messageB5cxx11Ei:
.LFB3601:
	.cfi_startproc
	stp	x29, x30, [sp, -48]!
	.cfi_def_cfa_offset 48
	.cfi_offset 29, -48
	.cfi_offset 30, -40
	adrp	x0, :got:__stack_chk_guard
	add	x2, x8, 16
	mov	x29, sp
	ldr	x0, [x0, #:got_lo12:__stack_chk_guard]
	str	x19, [sp, 16]
	.cfi_offset 19, -32
	mov	x19, x8
	ldr	x3, [x0]
	str	x3, [sp, 40]
	mov	x3, 0
	cmp	w1, 1
	beq	.L419
	cmp	w1, 2
	beq	.L420
	cmp	w1, 3
	beq	.L421
	cmp	w1, 4
	beq	.L422
	adrp	x0, .LC18
	add	x0, x0, :lo12:.LC18
	str	x2, [x8]
	mov	x1, 15
	ldr	x3, [x0]
	str	x3, [x8, 16]
	ldr	x0, [x0, 7]
	str	x0, [x2, 7]
	str	x1, [x8, 8]
	strb	wzr, [x8, 31]
.L411:
	adrp	x0, :got:__stack_chk_guard
	ldr	x0, [x0, #:got_lo12:__stack_chk_guard]
	ldr	x2, [sp, 40]
	ldr	x1, [x0]
	subs	x2, x2, x1
	mov	x1, 0
	bne	.L423
	mov	x0, x19
	ldr	x19, [sp, 16]
	ldp	x29, x30, [sp], 48
	.cfi_remember_state
	.cfi_restore 30
	.cfi_restore 29
	.cfi_restore 19
	.cfi_def_cfa_offset 0
	ret
	.p2align 2,,3
.L419:
	.cfi_restore_state
	adrp	x0, .LC14
	add	x0, x0, :lo12:.LC14
	str	x2, [x8]
	mov	x1, 12
	ldr	x3, [x0]
	str	x3, [x8, 16]
	ldr	w0, [x0, 8]
	str	w0, [x2, 8]
	str	x1, [x8, 8]
	strb	wzr, [x8, 28]
	b	.L411
	.p2align 2,,3
.L422:
	mov	x3, 57
	str	x2, [x8]
	add	x1, sp, 32
	mov	x2, 0
	mov	x0, x8
	str	x3, [sp, 32]
	bl	_ZNSt7__cxx1112basic_stringIcSt11char_traitsIcESaIcEE9_M_createERmm
	str	x0, [x19]
	adrp	x1, .LC17
	add	x1, x1, :lo12:.LC17
	ldr	x2, [sp, 32]
	str	x2, [x19, 16]
	ldr	q3, [x1, 32]
	ldp	q1, q2, [x1]
	ldr	q0, [x1, 41]
	str	q3, [x0, 32]
	stp	q1, q2, [x0]
	str	q0, [x0, 41]
	ldr	x1, [x19]
	ldr	x0, [sp, 32]
	str	x0, [x19, 8]
	strb	wzr, [x1, x0]
	b	.L411
	.p2align 2,,3
.L420:
	adrp	x0, .LC15
	add	x0, x0, :lo12:.LC15
	str	x2, [x8]
	mov	x1, 11
	ldr	x3, [x0]
	str	x3, [x8, 16]
	ldr	w0, [x0, 7]
	str	w0, [x2, 7]
	str	x1, [x8, 8]
	strb	wzr, [x8, 27]
	b	.L411
	.p2align 2,,3
.L421:
	mov	x3, 17
	str	x2, [x8]
	add	x1, sp, 32
	mov	x2, 0
	mov	x0, x8
	str	x3, [sp, 32]
	bl	_ZNSt7__cxx1112basic_stringIcSt11char_traitsIcESaIcEE9_M_createERmm
	str	x0, [x19]
	adrp	x1, .LC16
	add	x1, x1, :lo12:.LC16
	ldr	x2, [sp, 32]
	str	x2, [x19, 16]
	ldp	x2, x3, [x1]
	stp	x2, x3, [x0]
	ldrb	w1, [x1, 16]
	strb	w1, [x0, 16]
	ldr	x1, [x19]
	ldr	x0, [sp, 32]
	str	x0, [x19, 8]
	strb	wzr, [x1, x0]
	b	.L411
.L423:
	bl	__stack_chk_fail
	.cfi_endproc
.LFE3601:
	.size	_ZNK4asio5error6detail13misc_category7messageB5cxx11Ei, .-_ZNK4asio5error6detail13misc_category7messageB5cxx11Ei
	.global	__aarch64_ldadd4_acq_rel
	.section	.text._ZN7openpal6LoggerD2Ev,"axG",@progbits,_ZN7openpal6LoggerD5Ev,comdat
	.align	2
	.p2align 4,,11
	.weak	_ZN7openpal6LoggerD2Ev
	.type	_ZN7openpal6LoggerD2Ev, %function
_ZN7openpal6LoggerD2Ev:
.LFB2896:
	.cfi_startproc
	stp	x29, x30, [sp, -48]!
	.cfi_def_cfa_offset 48
	.cfi_offset 29, -48
	.cfi_offset 30, -40
	mov	x29, sp
	stp	x19, x20, [sp, 16]
	.cfi_offset 19, -32
	.cfi_offset 20, -24
	mov	x19, x0
	ldr	x20, [x0, 24]
	str	x21, [sp, 32]
	.cfi_offset 21, -16
	cbz	x20, .L426
	adrp	x21, :got:__libc_single_threaded
	ldr	x0, [x21, #:got_lo12:__libc_single_threaded]
	ldrb	w0, [x0]
	cbz	w0, .L427
	ldr	w0, [x20, 8]
	sub	w1, w0, #1
	str	w1, [x20, 8]
.L428:
	cmp	w0, 1
	beq	.L440
.L426:
	ldr	x19, [x19, 8]
	cbz	x19, .L424
	adrp	x21, :got:__libc_single_threaded
	ldr	x0, [x21, #:got_lo12:__libc_single_threaded]
	ldrb	w0, [x0]
	cbz	w0, .L434
	ldr	w0, [x19, 8]
	sub	w1, w0, #1
	str	w1, [x19, 8]
.L435:
	cmp	w0, 1
	beq	.L441
.L424:
	ldp	x19, x20, [sp, 16]
	ldr	x21, [sp, 32]
	ldp	x29, x30, [sp], 48
	.cfi_remember_state
	.cfi_restore 30
	.cfi_restore 29
	.cfi_restore 21
	.cfi_restore 19
	.cfi_restore 20
	.cfi_def_cfa_offset 0
	ret
	.p2align 2,,3
.L440:
	.cfi_restore_state
	ldr	x1, [x20]
	mov	x0, x20
	ldr	x1, [x1, 16]
	blr	x1
	ldr	x21, [x21, #:got_lo12:__libc_single_threaded]
	ldrb	w0, [x21]
	cbz	w0, .L430
	ldr	w0, [x20, 12]
	sub	w1, w0, #1
	str	w1, [x20, 12]
.L431:
	cmp	w0, 1
	bne	.L426
	ldr	x1, [x20]
	mov	x0, x20
	ldr	x1, [x1, 24]
	blr	x1
	b	.L426
	.p2align 2,,3
.L441:
	ldr	x1, [x19]
	mov	x0, x19
	ldr	x1, [x1, 16]
	blr	x1
	ldr	x21, [x21, #:got_lo12:__libc_single_threaded]
	ldrb	w0, [x21]
	cbz	w0, .L437
	ldr	w0, [x19, 12]
	sub	w1, w0, #1
	str	w1, [x19, 12]
.L438:
	cmp	w0, 1
	bne	.L424
	ldr	x1, [x19]
	mov	x0, x19
	ldp	x19, x20, [sp, 16]
	ldr	x21, [sp, 32]
	ldp	x29, x30, [sp], 48
	.cfi_remember_state
	.cfi_restore 30
	.cfi_restore 29
	.cfi_restore 21
	.cfi_restore 19
	.cfi_restore 20
	.cfi_def_cfa_offset 0
	ldr	x1, [x1, 24]
	mov	x16, x1
	br	x16
	.p2align 2,,3
.L434:
	.cfi_restore_state
	add	x1, x19, 8
	mov	w0, -1
	bl	__aarch64_ldadd4_acq_rel
	b	.L435
	.p2align 2,,3
.L427:
	add	x1, x20, 8
	mov	w0, -1
	bl	__aarch64_ldadd4_acq_rel
	b	.L428
	.p2align 2,,3
.L430:
	add	x1, x20, 12
	mov	w0, -1
	bl	__aarch64_ldadd4_acq_rel
	b	.L431
	.p2align 2,,3
.L437:
	add	x1, x19, 12
	mov	w0, -1
	bl	__aarch64_ldadd4_acq_rel
	b	.L438
	.cfi_endproc
.LFE2896:
	.size	_ZN7openpal6LoggerD2Ev, .-_ZN7openpal6LoggerD2Ev
	.weak	_ZN7openpal6LoggerD1Ev
	.set	_ZN7openpal6LoggerD1Ev,_ZN7openpal6LoggerD2Ev
	.section	.rodata._ZNSt12system_errorC2ESt10error_codePKc.str1.8,"aMS",@progbits,1
	.align	3
.LC19:
	.string	": "
	.section	.text._ZNSt12system_errorC2ESt10error_codePKc,"axG",@progbits,_ZNSt12system_errorC5ESt10error_codePKc,comdat
	.align	2
	.p2align 4,,11
	.weak	_ZNSt12system_errorC2ESt10error_codePKc
	.type	_ZNSt12system_errorC2ESt10error_codePKc, %function
_ZNSt12system_errorC2ESt10error_codePKc:
.LFB3518:
	.cfi_startproc
	.cfi_personality 0x9b,DW.ref.__gxx_personality_v0
	.cfi_lsda 0x1b,.LLSDA3518
	stp	x29, x30, [sp, -176]!
	.cfi_def_cfa_offset 176
	.cfi_offset 29, -176
	.cfi_offset 30, -168
	adrp	x4, :got:__stack_chk_guard
	mov	x29, sp
	stp	x19, x20, [sp, 16]
	.cfi_offset 19, -160
	.cfi_offset 20, -152
	mov	x20, x2
	mov	x19, x0
	ldr	x2, [x4, #:got_lo12:__stack_chk_guard]
	stp	x21, x22, [sp, 32]
	mov	x0, x20
	ldr	x4, [x20]
	.cfi_offset 21, -144
	.cfi_offset 22, -136
	mov	x21, x1
	mov	x22, x3
	ldr	x4, [x4, 32]
	str	x23, [sp, 48]
	.cfi_offset 23, -128
	add	x23, sp, 136
	mov	x8, x23
	ldr	x3, [x2]
	str	x3, [sp, 168]
	mov	x3, 0
.LEHB26:
	blr	x4
.LEHE26:
	adrp	x3, .LC19
	mov	x0, x23
	add	x3, x3, :lo12:.LC19
	mov	x4, 2
	mov	x2, 0
	mov	x1, 0
.LEHB27:
	bl	_ZNSt7__cxx1112basic_stringIcSt11char_traitsIcESaIcEE10_M_replaceEmmPKcm
.LEHE27:
	add	x23, sp, 120
	str	x23, [sp, 104]
	mov	x4, x0
	ldr	x1, [x0], 16
	cmp	x1, x0
	beq	.L462
	ldr	x2, [x4, 16]
	str	x1, [sp, 104]
	str	x2, [sp, 120]
.L444:
	ldr	x1, [x4, 8]
	str	x1, [sp, 112]
	stp	x0, xzr, [x4]
	mov	x0, x22
	strb	wzr, [x4, 16]
	bl	strlen
	mov	x4, x0
	mov	x3, x22
	add	x0, sp, 104
	mov	x2, 0
	mov	x1, 0
.LEHB28:
	bl	_ZNSt7__cxx1112basic_stringIcSt11char_traitsIcESaIcEE10_M_replaceEmmPKcm
.LEHE28:
	add	x22, sp, 88
	str	x22, [sp, 72]
	mov	x3, x0
	ldr	x1, [x0], 16
	cmp	x1, x0
	beq	.L463
	ldr	x2, [x3, 16]
	str	x1, [sp, 72]
	str	x2, [sp, 88]
.L446:
	ldr	x1, [x3, 8]
	str	x1, [sp, 80]
	stp	x0, xzr, [x3]
	add	x1, sp, 72
	mov	x0, x19
	strb	wzr, [x3, 16]
.LEHB29:
	bl	_ZNSt13runtime_errorC2ERKNSt7__cxx1112basic_stringIcSt11char_traitsIcESaIcEEE
.LEHE29:
	ldr	x0, [sp, 72]
	cmp	x0, x22
	beq	.L447
	ldr	x1, [sp, 88]
	add	x1, x1, 1
	bl	_ZdlPvm
.L447:
	ldr	x0, [sp, 104]
	cmp	x0, x23
	beq	.L448
	ldr	x1, [sp, 120]
	add	x1, x1, 1
	bl	_ZdlPvm
.L448:
	ldr	x0, [sp, 136]
	add	x1, sp, 152
	cmp	x0, x1
	beq	.L449
	ldr	x1, [sp, 152]
	add	x1, x1, 1
	bl	_ZdlPvm
.L449:
	adrp	x0, :got:_ZTVSt12system_error
	adrp	x1, :got:__stack_chk_guard
	stp	x21, x20, [x19, 16]
	ldr	x0, [x0, #:got_lo12:_ZTVSt12system_error]
	ldr	x1, [x1, #:got_lo12:__stack_chk_guard]
	add	x0, x0, 16
	str	x0, [x19]
	ldr	x0, [sp, 168]
	ldr	x2, [x1]
	subs	x0, x0, x2
	mov	x2, 0
	bne	.L464
	ldp	x19, x20, [sp, 16]
	ldp	x21, x22, [sp, 32]
	ldr	x23, [sp, 48]
	ldp	x29, x30, [sp], 176
	.cfi_remember_state
	.cfi_restore 30
	.cfi_restore 29
	.cfi_restore 23
	.cfi_restore 21
	.cfi_restore 22
	.cfi_restore 19
	.cfi_restore 20
	.cfi_def_cfa_offset 0
	ret
	.p2align 2,,3
.L462:
	.cfi_restore_state
	ldp	x2, x3, [x4, 16]
	stp	x2, x3, [sp, 120]
	b	.L444
	.p2align 2,,3
.L463:
	ldp	x4, x5, [x3, 16]
	stp	x4, x5, [sp, 88]
	b	.L446
.L464:
	bl	__stack_chk_fail
.L459:
	ldr	x2, [sp, 72]
	mov	x19, x0
	cmp	x2, x22
	beq	.L452
	ldr	x1, [sp, 88]
	mov	x0, x2
	add	x1, x1, 1
	bl	_ZdlPvm
.L452:
	ldr	x0, [sp, 104]
	cmp	x0, x23
	beq	.L454
	ldr	x1, [sp, 120]
	add	x1, x1, 1
	bl	_ZdlPvm
.L454:
	ldr	x0, [sp, 136]
	add	x1, sp, 152
	cmp	x0, x1
	beq	.L455
	ldr	x1, [sp, 152]
	add	x1, x1, 1
	bl	_ZdlPvm
.L455:
	mov	x0, x19
.LEHB30:
	bl	_Unwind_Resume
.LEHE30:
.L457:
	mov	x19, x0
	b	.L454
.L458:
	mov	x19, x0
	b	.L452
	.cfi_endproc
.LFE3518:
	.section	.gcc_except_table._ZNSt12system_errorC2ESt10error_codePKc,"aG",@progbits,_ZNSt12system_errorC5ESt10error_codePKc,comdat
.LLSDA3518:
	.byte	0xff
	.byte	0xff
	.byte	0x1
	.uleb128 .LLSDACSE3518-.LLSDACSB3518
.LLSDACSB3518:
	.uleb128 .LEHB26-.LFB3518
	.uleb128 .LEHE26-.LEHB26
	.uleb128 0
	.uleb128 0
	.uleb128 .LEHB27-.LFB3518
	.uleb128 .LEHE27-.LEHB27
	.uleb128 .L457-.LFB3518
	.uleb128 0
	.uleb128 .LEHB28-.LFB3518
	.uleb128 .LEHE28-.LEHB28
	.uleb128 .L458-.LFB3518
	.uleb128 0
	.uleb128 .LEHB29-.LFB3518
	.uleb128 .LEHE29-.LEHB29
	.uleb128 .L459-.LFB3518
	.uleb128 0
	.uleb128 .LEHB30-.LFB3518
	.uleb128 .LEHE30-.LEHB30
	.uleb128 0
	.uleb128 0
.LLSDACSE3518:
	.section	.text._ZNSt12system_errorC2ESt10error_codePKc,"axG",@progbits,_ZNSt12system_errorC5ESt10error_codePKc,comdat
	.size	_ZNSt12system_errorC2ESt10error_codePKc, .-_ZNSt12system_errorC2ESt10error_codePKc
	.weak	_ZNSt12system_errorC1ESt10error_codePKc
	.set	_ZNSt12system_errorC1ESt10error_codePKc,_ZNSt12system_errorC2ESt10error_codePKc
	.section	.rodata._ZN4asio6detail20posix_tss_ptr_createERj.str1.8,"aMS",@progbits,1
	.align	3
.LC20:
	.string	"tss"
	.section	.text._ZN4asio6detail20posix_tss_ptr_createERj,"axG",@progbits,_ZN4asio6detail20posix_tss_ptr_createERj,comdat
	.align	2
	.p2align 4,,11
	.weak	_ZN4asio6detail20posix_tss_ptr_createERj
	.type	_ZN4asio6detail20posix_tss_ptr_createERj, %function
_ZN4asio6detail20posix_tss_ptr_createERj:
.LFB3606:
	.cfi_startproc
	.cfi_personality 0x9b,DW.ref.__gxx_personality_v0
	.cfi_lsda 0x1b,.LLSDA3606
	stp	x29, x30, [sp, -96]!
	.cfi_def_cfa_offset 96
	.cfi_offset 29, -96
	.cfi_offset 30, -88
	adrp	x2, :got:__stack_chk_guard
	mov	x1, 0
	mov	x29, sp
	ldr	x2, [x2, #:got_lo12:__stack_chk_guard]
	stp	x19, x20, [sp, 16]
	.cfi_offset 19, -80
	.cfi_offset 20, -72
	adrp	x20, :got:_ZGVZN4asio15system_categoryEvE8instance
	str	x21, [sp, 32]
	.cfi_offset 21, -64
	ldr	x3, [x2]
	str	x3, [sp, 88]
	mov	x3, 0
	bl	pthread_key_create
	mov	w19, w0
	ldr	x20, [x20, #:got_lo12:_ZGVZN4asio15system_categoryEvE8instance]
	ldar	x0, [x20]
	adrp	x21, :got:_ZZN4asio15system_categoryEvE8instance
	tbz	x0, 0, .L477
.L467:
	mov	x1, 0
	ldr	x21, [x21, #:got_lo12:_ZZN4asio15system_categoryEvE8instance]
	bfi	x1, x19, 0, 32
	cbnz	w19, .L478
	adrp	x0, :got:__stack_chk_guard
	ldr	x0, [x0, #:got_lo12:__stack_chk_guard]
	ldr	x2, [sp, 88]
	ldr	x1, [x0]
	subs	x2, x2, x1
	mov	x1, 0
	bne	.L479
	ldp	x19, x20, [sp, 16]
	ldr	x21, [sp, 32]
	ldp	x29, x30, [sp], 96
	.cfi_remember_state
	.cfi_restore 30
	.cfi_restore 29
	.cfi_restore 21
	.cfi_restore 19
	.cfi_restore 20
	.cfi_def_cfa_offset 0
	ret
	.p2align 2,,3
.L477:
	.cfi_restore_state
	mov	x0, x20
	adrp	x21, :got:_ZZN4asio15system_categoryEvE8instance
	bl	__cxa_guard_acquire
	cbz	w0, .L467
	adrp	x0, :got:_ZN4asio6detail15system_categoryD1Ev
	adrp	x2, __dso_handle
	ldr	x1, [x21, #:got_lo12:_ZZN4asio15system_categoryEvE8instance]
	add	x2, x2, :lo12:__dso_handle
	ldr	x0, [x0, #:got_lo12:_ZN4asio6detail15system_categoryD1Ev]
	bl	__cxa_atexit
	mov	x0, x20
	bl	__cxa_guard_release
	b	.L467
.L479:
	bl	__stack_chk_fail
.L478:
	mov	x2, x21
	adrp	x3, .LC20
	add	x3, x3, :lo12:.LC20
	add	x20, sp, 56
	mov	x0, x20
.LEHB31:
	bl	_ZNSt12system_errorC1ESt10error_codePKc
.LEHE31:
	mov	x0, 32
	bl	__cxa_allocate_exception
	mov	x19, x0
	mov	x1, x20
	bl	_ZNSt13runtime_errorC2ERKS_
	adrp	x3, :got:_ZTVSt12system_error
	adrp	x2, :got:_ZNSt12system_errorD1Ev
	adrp	x1, :got:_ZTISt12system_error
	mov	x0, x19
	ldr	x3, [x3, #:got_lo12:_ZTVSt12system_error]
	ldp	x4, x5, [sp, 72]
	add	x3, x3, 16
	ldr	x2, [x2, #:got_lo12:_ZNSt12system_errorD1Ev]
	str	x3, [x19]
	ldr	x1, [x1, #:got_lo12:_ZTISt12system_error]
	stp	x4, x5, [x19, 16]
.LEHB32:
	bl	__cxa_throw
.LEHE32:
.L472:
	mov	x19, x0
	mov	x0, x20
	bl	_ZNSt12system_errorD1Ev
	mov	x0, x19
.LEHB33:
	bl	_Unwind_Resume
.LEHE33:
	.cfi_endproc
.LFE3606:
	.section	.gcc_except_table._ZN4asio6detail20posix_tss_ptr_createERj,"aG",@progbits,_ZN4asio6detail20posix_tss_ptr_createERj,comdat
.LLSDA3606:
	.byte	0xff
	.byte	0xff
	.byte	0x1
	.uleb128 .LLSDACSE3606-.LLSDACSB3606
.LLSDACSB3606:
	.uleb128 .LEHB31-.LFB3606
	.uleb128 .LEHE31-.LEHB31
	.uleb128 0
	.uleb128 0
	.uleb128 .LEHB32-.LFB3606
	.uleb128 .LEHE32-.LEHB32
	.uleb128 .L472-.LFB3606
	.uleb128 0
	.uleb128 .LEHB33-.LFB3606
	.uleb128 .LEHE33-.LEHB33
	.uleb128 0
	.uleb128 0
.LLSDACSE3606:
	.section	.text._ZN4asio6detail20posix_tss_ptr_createERj,"axG",@progbits,_ZN4asio6detail20posix_tss_ptr_createERj,comdat
	.size	_ZN4asio6detail20posix_tss_ptr_createERj, .-_ZN4asio6detail20posix_tss_ptr_createERj
	.global	__aarch64_ldadd8_acq_rel
	.section	.text._ZN4asio6detail14strand_service7do_postERPNS1_11strand_implEPNS0_25task_io_service_operationEb,"axG",@progbits,_ZN4asio6detail14strand_service7do_postERPNS1_11strand_implEPNS0_25task_io_service_operationEb,comdat
	.align	2
	.p2align 4,,11
	.weak	_ZN4asio6detail14strand_service7do_postERPNS1_11strand_implEPNS0_25task_io_service_operationEb
	.type	_ZN4asio6detail14strand_service7do_postERPNS1_11strand_implEPNS0_25task_io_service_operationEb, %function
_ZN4asio6detail14strand_service7do_postERPNS1_11strand_implEPNS0_25task_io_service_operationEb:
.LFB7418:
	.cfi_startproc
	stp	x29, x30, [sp, -112]!
	.cfi_def_cfa_offset 112
	.cfi_offset 29, -112
	.cfi_offset 30, -104
	adrp	x4, :got:__stack_chk_guard
	mov	x29, sp
	stp	x19, x20, [sp, 16]
	.cfi_offset 19, -96
	.cfi_offset 20, -88
	mov	x20, x1
	mov	x19, x2
	ldr	x1, [x4, #:got_lo12:__stack_chk_guard]
	stp	x21, x22, [sp, 32]
	.cfi_offset 21, -80
	.cfi_offset 22, -72
	mov	x21, x0
	ldr	x4, [x20]
	ldr	x2, [x1]
	str	x2, [sp, 104]
	mov	x2, 0
	and	w22, w3, 255
	add	x0, x4, 24
	bl	pthread_mutex_lock
	ldr	x1, [x20]
	dup	v0.2d, x19
	ldrb	w2, [x1, 72]
	cbz	w2, .L481
	str	xzr, [x19]
	ldr	x3, [x1, 88]
	cbz	x3, .L482
	str	x19, [x3]
	str	x19, [x1, 88]
.L483:
	adrp	x0, :got:__stack_chk_guard
	ldr	x0, [x0, #:got_lo12:__stack_chk_guard]
	ldr	x3, [sp, 104]
	ldr	x2, [x0]
	subs	x3, x3, x2
	mov	x2, 0
	add	x0, x1, 24
	bne	.L512
.L511:
	ldp	x19, x20, [sp, 16]
	ldp	x21, x22, [sp, 32]
	ldp	x29, x30, [sp], 112
	.cfi_remember_state
	.cfi_restore 30
	.cfi_restore 29
	.cfi_restore 21
	.cfi_restore 22
	.cfi_restore 19
	.cfi_restore 20
	.cfi_def_cfa_offset 0
	b	pthread_mutex_unlock
	.p2align 2,,3
.L482:
	.cfi_restore_state
	str	q0, [x1, 80]
	b	.L483
	.p2align 2,,3
.L481:
	mov	w0, 1
	strb	w0, [x1, 72]
	add	x0, x1, 24
	str	q0, [sp, 48]
	bl	pthread_mutex_unlock
	ldr	x20, [x20]
	dup	v0.2d, x20
	ldr	x1, [x20, 104]
	str	xzr, [x19]
	str	q0, [sp, 64]
	ldr	q0, [sp, 48]
	cbz	x1, .L485
	str	x19, [x1]
	str	x19, [x20, 104]
.L486:
	ldr	x19, [x21, 40]
	ldrb	w0, [x19, 40]
	orr	w0, w0, w22
	cbz	w0, .L487
	adrp	x0, :got:_ZN4asio6detail10call_stackINS0_15task_io_serviceENS0_27task_io_service_thread_infoEE4top_E
	ldr	x0, [x0, #:got_lo12:_ZN4asio6detail10call_stackINS0_15task_io_serviceENS0_27task_io_service_thread_infoEE4top_E]
	ldr	w0, [x0]
	bl	pthread_getspecific
	cbnz	x0, .L490
	b	.L487
	.p2align 2,,3
.L488:
	ldr	x0, [x0, 16]
	cbz	x0, .L487
.L490:
	ldr	x1, [x0]
	cmp	x19, x1
	bne	.L488
	ldr	x0, [x0, 8]
	cbz	x0, .L487
	ldp	x3, x1, [x0, 16]
	add	x1, x1, 1
	str	x1, [x0, 24]
	str	xzr, [x20]
	ldr	x1, [x0, 16]
	cbz	x3, .L491
	str	x20, [x1]
	str	x20, [x0, 16]
.L480:
	adrp	x0, :got:__stack_chk_guard
	ldr	x0, [x0, #:got_lo12:__stack_chk_guard]
	ldr	x2, [sp, 104]
	ldr	x1, [x0]
	subs	x2, x2, x1
	mov	x1, 0
	bne	.L512
	ldp	x19, x20, [sp, 16]
	ldp	x21, x22, [sp, 32]
	ldp	x29, x30, [sp], 112
	.cfi_remember_state
	.cfi_restore 30
	.cfi_restore 29
	.cfi_restore 21
	.cfi_restore 22
	.cfi_restore 19
	.cfi_restore 20
	.cfi_def_cfa_offset 0
	ret
	.p2align 2,,3
.L487:
	.cfi_restore_state
	add	x1, x19, 192
	add	x21, x19, 48
	mov	x0, 1
	bl	__aarch64_ldadd8_acq_rel
	mov	x0, x21
	bl	pthread_mutex_lock
	ldr	x1, [x19, 208]
	str	xzr, [x20]
	cbz	x1, .L493
	str	x20, [x1]
	str	x20, [x19, 208]
.L494:
	ldr	x1, [x19, 144]
	add	x20, x19, 96
	orr	x1, x1, 1
	str	x1, [x20, 48]
	cmp	x1, 1
	beq	.L495
	mov	x0, x21
	bl	pthread_mutex_unlock
	adrp	x0, :got:__stack_chk_guard
	ldr	x0, [x0, #:got_lo12:__stack_chk_guard]
	ldr	x2, [sp, 104]
	ldr	x1, [x0]
	subs	x2, x2, x1
	mov	x1, 0
	bne	.L512
	mov	x0, x20
	ldp	x19, x20, [sp, 16]
	ldp	x21, x22, [sp, 32]
	ldp	x29, x30, [sp], 112
	.cfi_remember_state
	.cfi_restore 30
	.cfi_restore 29
	.cfi_restore 21
	.cfi_restore 22
	.cfi_restore 19
	.cfi_restore 20
	.cfi_def_cfa_offset 0
	b	pthread_cond_signal
	.p2align 2,,3
.L493:
	.cfi_restore_state
	ldr	q0, [sp, 64]
	str	q0, [x19, 200]
	b	.L494
	.p2align 2,,3
.L495:
	ldrb	w0, [x19, 184]
	cbnz	w0, .L497
	ldr	x3, [x19, 152]
	cbz	x3, .L497
	ldr	w2, [x3, 96]
	add	x4, x3, 96
	ldr	w0, [x3, 104]
	mov	w5, 9
	movk	w5, 0x8000, lsl 16
	strb	w1, [x19, 184]
	add	x3, sp, 88
	mov	w1, 3
	str	w5, [sp, 88]
	str	x4, [sp, 96]
	bl	epoll_ctl
.L497:
	adrp	x0, :got:__stack_chk_guard
	ldr	x0, [x0, #:got_lo12:__stack_chk_guard]
	ldr	x2, [sp, 104]
	ldr	x1, [x0]
	subs	x2, x2, x1
	mov	x1, 0
	mov	x0, x21
	beq	.L511
.L512:
	bl	__stack_chk_fail
	.p2align 2,,3
.L485:
	str	q0, [x20, 96]
	b	.L486
	.p2align 2,,3
.L491:
	ldr	q0, [sp, 64]
	str	q0, [x0, 8]
	b	.L480
	.cfi_endproc
.LFE7418:
	.size	_ZN4asio6detail14strand_service7do_postERPNS1_11strand_implEPNS0_25task_io_service_operationEb, .-_ZN4asio6detail14strand_service7do_postERPNS1_11strand_implEPNS0_25task_io_service_operationEb
	.section	.rodata._ZNSt13__future_base13_State_baseV216_M_break_promiseESt10unique_ptrINS_12_Result_baseENS2_8_DeleterEE.str1.8,"aMS",@progbits,1
	.align	3
.LC21:
	.string	"std::future_error: "
	.section	.text._ZNSt13__future_base13_State_baseV216_M_break_promiseESt10unique_ptrINS_12_Result_baseENS2_8_DeleterEE,"axG",@progbits,_ZNSt13__future_base13_State_baseV216_M_break_promiseESt10unique_ptrINS_12_Result_baseENS2_8_DeleterEE,comdat
	.align	2
	.p2align 4,,11
	.weak	_ZNSt13__future_base13_State_baseV216_M_break_promiseESt10unique_ptrINS_12_Result_baseENS2_8_DeleterEE
	.type	_ZNSt13__future_base13_State_baseV216_M_break_promiseESt10unique_ptrINS_12_Result_baseENS2_8_DeleterEE, %function
_ZNSt13__future_base13_State_baseV216_M_break_promiseESt10unique_ptrINS_12_Result_baseENS2_8_DeleterEE:
.LFB7709:
	.cfi_startproc
	.cfi_personality 0x9b,DW.ref.__gxx_personality_v0
	.cfi_lsda 0x1b,.LLSDA7709
	stp	x29, x30, [sp, -208]!
	.cfi_def_cfa_offset 208
	.cfi_offset 29, -208
	.cfi_offset 30, -200
	adrp	x2, :got:__stack_chk_guard
	mov	x29, sp
	ldr	x2, [x2, #:got_lo12:__stack_chk_guard]
	stp	x19, x20, [sp, 16]
	.cfi_offset 19, -192
	.cfi_offset 20, -184
	mov	x20, x0
	stp	x23, x24, [sp, 48]
	.cfi_offset 23, -160
	.cfi_offset 24, -152
	ldr	x23, [x1]
	ldr	x0, [x2]
	str	x0, [sp, 200]
	mov	x0, 0
	cbz	x23, .L513
	mov	x19, x1
	stp	x21, x22, [sp, 32]
	.cfi_offset 22, -168
	.cfi_offset 21, -176
	add	x22, sp, 136
	str	x25, [sp, 64]
	.cfi_offset 25, -144
	bl	_ZSt15future_categoryv
	ldr	x2, [x0]
	mov	x8, x22
	mov	x21, x0
	mov	w1, 4
	ldr	x2, [x2, 32]
.LEHB34:
	blr	x2
.LEHE34:
	adrp	x3, .LC21
	mov	x0, x22
	add	x3, x3, :lo12:.LC21
	mov	x4, 19
	mov	x2, 0
	mov	x1, 0
.LEHB35:
	bl	_ZNSt7__cxx1112basic_stringIcSt11char_traitsIcESaIcEE10_M_replaceEmmPKcm
.LEHE35:
	add	x22, sp, 184
	str	x22, [sp, 168]
	mov	x1, x0
	ldr	x2, [x0], 16
	cmp	x2, x0
	beq	.L537
	ldr	x3, [x1, 16]
	str	x2, [sp, 168]
	str	x3, [sp, 184]
.L517:
	ldr	x2, [x1, 8]
	str	x2, [sp, 176]
	stp	x0, xzr, [x1]
	add	x24, sp, 104
	mov	x0, x24
	strb	wzr, [x1, 16]
	add	x1, sp, 168
.LEHB36:
	bl	_ZNSt11logic_errorC2ERKNSt7__cxx1112basic_stringIcSt11char_traitsIcESaIcEEE
.LEHE36:
	ldr	x0, [sp, 168]
	cmp	x0, x22
	beq	.L518
	ldr	x1, [sp, 184]
	add	x1, x1, 1
	bl	_ZdlPvm
.L518:
	ldr	x0, [sp, 136]
	add	x1, sp, 152
	cmp	x0, x1
	beq	.L519
	ldr	x1, [sp, 152]
	add	x1, x1, 1
	bl	_ZdlPvm
.L519:
	adrp	x22, :got:_ZTVSt12future_error
	mov	w1, 4
	mov	x0, 32
	str	w1, [sp, 120]
	ldr	x22, [x22, #:got_lo12:_ZTVSt12future_error]
	str	x21, [sp, 128]
	add	x25, sp, 88
	add	x22, x22, 16
	str	x22, [sp, 104]
	bl	__cxa_allocate_exception
	mov	x21, x0
	adrp	x2, :got:_ZNSt15__exception_ptr12__dest_thunkISt12future_errorEEvPv
	adrp	x1, :got:_ZTISt12future_error
	ldr	x2, [x2, #:got_lo12:_ZNSt15__exception_ptr12__dest_thunkISt12future_errorEEvPv]
	ldr	x1, [x1, #:got_lo12:_ZTISt12future_error]
	bl	__cxa_init_primary_exception
	mov	x1, x24
	mov	x0, x21
	bl	_ZNSt11logic_errorC2ERKS_
	ldp	x0, x1, [sp, 120]
	str	x22, [x21]
	stp	x0, x1, [x21, 16]
	mov	x1, x21
	mov	x0, x25
	bl	_ZNSt15__exception_ptr13exception_ptrC1EPv
	ldr	x0, [x23, 8]
	ldr	x1, [sp, 88]
	str	x1, [x23, 8]
	stp	xzr, x0, [sp, 88]
	cbz	x0, .L521
	add	x0, sp, 96
	bl	_ZNSt15__exception_ptr13exception_ptr10_M_releaseEv
	ldr	x0, [sp, 88]
	cbz	x0, .L521
	mov	x0, x25
	bl	_ZNSt15__exception_ptr13exception_ptr10_M_releaseEv
.L521:
	mov	x0, x24
	bl	_ZNSt12future_errorD1Ev
	ldr	x1, [x19]
	add	x21, x20, 16
	ldr	x0, [x20, 8]
	str	x1, [x20, 8]
	str	x0, [x19]
	mov	x1, x21
	mov	w0, 1
	bl	__aarch64_swp4_rel
	tbnz	w0, #31, .L538
	ldp	x21, x22, [sp, 32]
	.cfi_restore 22
	.cfi_restore 21
	ldr	x25, [sp, 64]
	.cfi_restore 25
.L513:
	adrp	x0, :got:__stack_chk_guard
	ldr	x0, [x0, #:got_lo12:__stack_chk_guard]
	ldr	x2, [sp, 200]
	ldr	x1, [x0]
	subs	x2, x2, x1
	mov	x1, 0
	bne	.L539
	ldp	x19, x20, [sp, 16]
	ldp	x23, x24, [sp, 48]
	ldp	x29, x30, [sp], 208
	.cfi_restore 30
	.cfi_restore 29
	.cfi_restore 23
	.cfi_restore 24
	.cfi_restore 19
	.cfi_restore 20
	.cfi_def_cfa_offset 0
	ret
	.p2align 2,,3
.L537:
	.cfi_def_cfa_offset 208
	.cfi_offset 19, -192
	.cfi_offset 20, -184
	.cfi_offset 21, -176
	.cfi_offset 22, -168
	.cfi_offset 23, -160
	.cfi_offset 24, -152
	.cfi_offset 25, -144
	.cfi_offset 29, -208
	.cfi_offset 30, -200
	ldp	x2, x3, [x1, 16]
	stp	x2, x3, [sp, 184]
	b	.L517
	.p2align 2,,3
.L538:
	adrp	x0, :got:__stack_chk_guard
	ldr	x0, [x0, #:got_lo12:__stack_chk_guard]
	ldr	x2, [sp, 200]
	ldr	x1, [x0]
	subs	x2, x2, x1
	mov	x1, 0
	bne	.L536
	mov	x0, x21
	ldp	x19, x20, [sp, 16]
	ldp	x21, x22, [sp, 32]
	.cfi_restore 22
	.cfi_restore 21
	ldp	x23, x24, [sp, 48]
	ldr	x25, [sp, 64]
	.cfi_restore 25
	ldp	x29, x30, [sp], 208
	.cfi_restore 30
	.cfi_restore 29
	.cfi_restore 23
	.cfi_restore 24
	.cfi_restore 19
	.cfi_restore 20
	.cfi_def_cfa_offset 0
.LEHB37:
	b	_ZNSt28__atomic_futex_unsigned_base19_M_futex_notify_allEPj
.L539:
	.cfi_def_cfa_offset 208
	.cfi_offset 19, -192
	.cfi_offset 20, -184
	.cfi_offset 23, -160
	.cfi_offset 24, -152
	.cfi_offset 29, -208
	.cfi_offset 30, -200
	stp	x21, x22, [sp, 32]
	.cfi_offset 22, -168
	.cfi_offset 21, -176
	str	x25, [sp, 64]
	.cfi_offset 25, -144
.L536:
	bl	__stack_chk_fail
.L529:
	mov	x19, x0
.L524:
	ldr	x0, [sp, 136]
	add	x1, sp, 152
	cmp	x0, x1
	beq	.L525
	ldr	x1, [sp, 152]
	add	x1, x1, 1
	bl	_ZdlPvm
.L525:
	mov	x0, x19
	bl	_Unwind_Resume
.LEHE37:
.L530:
	ldr	x2, [sp, 168]
	mov	x19, x0
	cmp	x2, x22
	beq	.L524
	ldr	x1, [sp, 184]
	mov	x0, x2
	add	x1, x1, 1
	bl	_ZdlPvm
	b	.L524
	.cfi_endproc
.LFE7709:
	.section	.gcc_except_table._ZNSt13__future_base13_State_baseV216_M_break_promiseESt10unique_ptrINS_12_Result_baseENS2_8_DeleterEE,"aG",@progbits,_ZNSt13__future_base13_State_baseV216_M_break_promiseESt10unique_ptrINS_12_Result_baseENS2_8_DeleterEE,comdat
.LLSDA7709:
	.byte	0xff
	.byte	0xff
	.byte	0x1
	.uleb128 .LLSDACSE7709-.LLSDACSB7709
.LLSDACSB7709:
	.uleb128 .LEHB34-.LFB7709
	.uleb128 .LEHE34-.LEHB34
	.uleb128 0
	.uleb128 0
	.uleb128 .LEHB35-.LFB7709
	.uleb128 .LEHE35-.LEHB35
	.uleb128 .L529-.LFB7709
	.uleb128 0
	.uleb128 .LEHB36-.LFB7709
	.uleb128 .LEHE36-.LEHB36
	.uleb128 .L530-.LFB7709
	.uleb128 0
	.uleb128 .LEHB37-.LFB7709
	.uleb128 .LEHE37-.LEHB37
	.uleb128 0
	.uleb128 0
.LLSDACSE7709:
	.section	.text._ZNSt13__future_base13_State_baseV216_M_break_promiseESt10unique_ptrINS_12_Result_baseENS2_8_DeleterEE,"axG",@progbits,_ZNSt13__future_base13_State_baseV216_M_break_promiseESt10unique_ptrINS_12_Result_baseENS2_8_DeleterEE,comdat
	.size	_ZNSt13__future_base13_State_baseV216_M_break_promiseESt10unique_ptrINS_12_Result_baseENS2_8_DeleterEE, .-_ZNSt13__future_base13_State_baseV216_M_break_promiseESt10unique_ptrINS_12_Result_baseENS2_8_DeleterEE
	.section	.text._ZNSt14__shared_countILN9__gnu_cxx12_Lock_policyE2EEC2ERKS2_,"axG",@progbits,_ZNSt14__shared_countILN9__gnu_cxx12_Lock_policyE2EEC5ERKS2_,comdat
	.align	2
	.p2align 4,,11
	.weak	_ZNSt14__shared_countILN9__gnu_cxx12_Lock_policyE2EEC2ERKS2_
	.type	_ZNSt14__shared_countILN9__gnu_cxx12_Lock_policyE2EEC2ERKS2_, %function
_ZNSt14__shared_countILN9__gnu_cxx12_Lock_policyE2EEC2ERKS2_:
.LFB8728:
	.cfi_startproc
	ldr	x1, [x1]
	str	x1, [x0]
	cbz	x1, .L547
	adrp	x0, :got:__libc_single_threaded
	ldr	x0, [x0, #:got_lo12:__libc_single_threaded]
	ldrb	w0, [x0]
	cbz	w0, .L542
	ldr	w0, [x1, 8]
	add	w0, w0, 1
	str	w0, [x1, 8]
	ret
	.p2align 2,,3
.L547:
	ret
	.p2align 2,,3
.L542:
	stp	x29, x30, [sp, -16]!
	.cfi_def_cfa_offset 16
	.cfi_offset 29, -16
	.cfi_offset 30, -8
	add	x1, x1, 8
	mov	w0, 1
	mov	x29, sp
	bl	__aarch64_ldadd4_acq_rel
	ldp	x29, x30, [sp], 16
	.cfi_restore 30
	.cfi_restore 29
	.cfi_def_cfa_offset 0
	ret
	.cfi_endproc
.LFE8728:
	.size	_ZNSt14__shared_countILN9__gnu_cxx12_Lock_policyE2EEC2ERKS2_, .-_ZNSt14__shared_countILN9__gnu_cxx12_Lock_policyE2EEC2ERKS2_
	.weak	_ZNSt14__shared_countILN9__gnu_cxx12_Lock_policyE2EEC1ERKS2_
	.set	_ZNSt14__shared_countILN9__gnu_cxx12_Lock_policyE2EEC1ERKS2_,_ZNSt14__shared_countILN9__gnu_cxx12_Lock_policyE2EEC2ERKS2_
	.section	.text._ZZZN8asiodnp311DNP3Channel8AddStackINS_11MasterStackEEESt10shared_ptrIT_ERKN8opendnp310LinkConfigERKS5_ENKUlvE_clEvENUlvE_D2Ev,"axG",@progbits,_ZZZN8asiodnp311DNP3Channel8AddStackINS_11MasterStackEEESt10shared_ptrIT_ERKN8opendnp310LinkConfigERKS5_ENKUlvE_clEvENUlvE_D5Ev,comdat
	.align	2
	.p2align 4,,11
	.weak	_ZZZN8asiodnp311DNP3Channel8AddStackINS_11MasterStackEEESt10shared_ptrIT_ERKN8opendnp310LinkConfigERKS5_ENKUlvE_clEvENUlvE_D2Ev
	.type	_ZZZN8asiodnp311DNP3Channel8AddStackINS_11MasterStackEEESt10shared_ptrIT_ERKN8opendnp310LinkConfigERKS5_ENKUlvE_clEvENUlvE_D2Ev, %function
_ZZZN8asiodnp311DNP3Channel8AddStackINS_11MasterStackEEESt10shared_ptrIT_ERKN8opendnp310LinkConfigERKS5_ENKUlvE_clEvENUlvE_D2Ev:
.LFB9881:
	.cfi_startproc
	stp	x29, x30, [sp, -48]!
	.cfi_def_cfa_offset 48
	.cfi_offset 29, -48
	.cfi_offset 30, -40
	mov	x29, sp
	stp	x19, x20, [sp, 16]
	.cfi_offset 19, -32
	.cfi_offset 20, -24
	mov	x19, x0
	ldr	x20, [x0, 32]
	str	x21, [sp, 32]
	.cfi_offset 21, -16
	cbz	x20, .L551
	adrp	x21, :got:__libc_single_threaded
	ldr	x0, [x21, #:got_lo12:__libc_single_threaded]
	ldrb	w0, [x0]
	cbz	w0, .L552
	ldr	w0, [x20, 8]
	sub	w1, w0, #1
	str	w1, [x20, 8]
.L553:
	cmp	w0, 1
	beq	.L565
.L551:
	ldr	x19, [x19, 8]
	cbz	x19, .L549
	adrp	x21, :got:__libc_single_threaded
	ldr	x0, [x21, #:got_lo12:__libc_single_threaded]
	ldrb	w0, [x0]
	cbz	w0, .L559
	ldr	w0, [x19, 8]
	sub	w1, w0, #1
	str	w1, [x19, 8]
.L560:
	cmp	w0, 1
	beq	.L566
.L549:
	ldp	x19, x20, [sp, 16]
	ldr	x21, [sp, 32]
	ldp	x29, x30, [sp], 48
	.cfi_remember_state
	.cfi_restore 30
	.cfi_restore 29
	.cfi_restore 21
	.cfi_restore 19
	.cfi_restore 20
	.cfi_def_cfa_offset 0
	ret
	.p2align 2,,3
.L565:
	.cfi_restore_state
	ldr	x1, [x20]
	mov	x0, x20
	ldr	x1, [x1, 16]
	blr	x1
	ldr	x21, [x21, #:got_lo12:__libc_single_threaded]
	ldrb	w0, [x21]
	cbz	w0, .L555
	ldr	w0, [x20, 12]
	sub	w1, w0, #1
	str	w1, [x20, 12]
.L556:
	cmp	w0, 1
	bne	.L551
	ldr	x1, [x20]
	mov	x0, x20
	ldr	x1, [x1, 24]
	blr	x1
	b	.L551
	.p2align 2,,3
.L566:
	ldr	x1, [x19]
	mov	x0, x19
	ldr	x1, [x1, 16]
	blr	x1
	ldr	x21, [x21, #:got_lo12:__libc_single_threaded]
	ldrb	w0, [x21]
	cbz	w0, .L562
	ldr	w0, [x19, 12]
	sub	w1, w0, #1
	str	w1, [x19, 12]
.L563:
	cmp	w0, 1
	bne	.L549
	ldr	x1, [x19]
	mov	x0, x19
	ldp	x19, x20, [sp, 16]
	ldr	x21, [sp, 32]
	ldp	x29, x30, [sp], 48
	.cfi_remember_state
	.cfi_restore 30
	.cfi_restore 29
	.cfi_restore 21
	.cfi_restore 19
	.cfi_restore 20
	.cfi_def_cfa_offset 0
	ldr	x1, [x1, 24]
	mov	x16, x1
	br	x16
	.p2align 2,,3
.L559:
	.cfi_restore_state
	add	x1, x19, 8
	mov	w0, -1
	bl	__aarch64_ldadd4_acq_rel
	b	.L560
	.p2align 2,,3
.L552:
	add	x1, x20, 8
	mov	w0, -1
	bl	__aarch64_ldadd4_acq_rel
	b	.L553
	.p2align 2,,3
.L555:
	add	x1, x20, 12
	mov	w0, -1
	bl	__aarch64_ldadd4_acq_rel
	b	.L556
	.p2align 2,,3
.L562:
	add	x1, x19, 12
	mov	w0, -1
	bl	__aarch64_ldadd4_acq_rel
	b	.L563
	.cfi_endproc
.LFE9881:
	.size	_ZZZN8asiodnp311DNP3Channel8AddStackINS_11MasterStackEEESt10shared_ptrIT_ERKN8opendnp310LinkConfigERKS5_ENKUlvE_clEvENUlvE_D2Ev, .-_ZZZN8asiodnp311DNP3Channel8AddStackINS_11MasterStackEEESt10shared_ptrIT_ERKN8opendnp310LinkConfigERKS5_ENKUlvE_clEvENUlvE_D2Ev
	.weak	_ZZZN8asiodnp311DNP3Channel8AddStackINS_11MasterStackEEESt10shared_ptrIT_ERKN8opendnp310LinkConfigERKS5_ENKUlvE_clEvENUlvE_D1Ev
	.set	_ZZZN8asiodnp311DNP3Channel8AddStackINS_11MasterStackEEESt10shared_ptrIT_ERKN8opendnp310LinkConfigERKS5_ENKUlvE_clEvENUlvE_D1Ev,_ZZZN8asiodnp311DNP3Channel8AddStackINS_11MasterStackEEESt10shared_ptrIT_ERKN8opendnp310LinkConfigERKS5_ENKUlvE_clEvENUlvE_D2Ev
	.section	.text._ZZN8asiodnp311DNP3Channel8AddStackINS_11MasterStackEEESt10shared_ptrIT_ERKN8opendnp310LinkConfigERKS5_ENUlvE_D2Ev,"axG",@progbits,_ZZN8asiodnp311DNP3Channel8AddStackINS_11MasterStackEEESt10shared_ptrIT_ERKN8opendnp310LinkConfigERKS5_ENUlvE_D5Ev,comdat
	.align	2
	.p2align 4,,11
	.weak	_ZZN8asiodnp311DNP3Channel8AddStackINS_11MasterStackEEESt10shared_ptrIT_ERKN8opendnp310LinkConfigERKS5_ENUlvE_D2Ev
	.type	_ZZN8asiodnp311DNP3Channel8AddStackINS_11MasterStackEEESt10shared_ptrIT_ERKN8opendnp310LinkConfigERKS5_ENUlvE_D2Ev, %function
_ZZN8asiodnp311DNP3Channel8AddStackINS_11MasterStackEEESt10shared_ptrIT_ERKN8opendnp310LinkConfigERKS5_ENUlvE_D2Ev:
.LFB9892:
	.cfi_startproc
	stp	x29, x30, [sp, -48]!
	.cfi_def_cfa_offset 48
	.cfi_offset 29, -48
	.cfi_offset 30, -40
	mov	x29, sp
	stp	x19, x20, [sp, 16]
	.cfi_offset 19, -32
	.cfi_offset 20, -24
	mov	x19, x0
	ldr	x20, [x0, 32]
	str	x21, [sp, 32]
	.cfi_offset 21, -16
	cbz	x20, .L569
	adrp	x21, :got:__libc_single_threaded
	ldr	x0, [x21, #:got_lo12:__libc_single_threaded]
	ldrb	w0, [x0]
	cbz	w0, .L570
	ldr	w0, [x20, 8]
	sub	w1, w0, #1
	str	w1, [x20, 8]
.L571:
	cmp	w0, 1
	beq	.L583
.L569:
	ldr	x19, [x19, 8]
	cbz	x19, .L567
	adrp	x21, :got:__libc_single_threaded
	ldr	x0, [x21, #:got_lo12:__libc_single_threaded]
	ldrb	w0, [x0]
	cbz	w0, .L577
	ldr	w0, [x19, 8]
	sub	w1, w0, #1
	str	w1, [x19, 8]
.L578:
	cmp	w0, 1
	beq	.L584
.L567:
	ldp	x19, x20, [sp, 16]
	ldr	x21, [sp, 32]
	ldp	x29, x30, [sp], 48
	.cfi_remember_state
	.cfi_restore 30
	.cfi_restore 29
	.cfi_restore 21
	.cfi_restore 19
	.cfi_restore 20
	.cfi_def_cfa_offset 0
	ret
	.p2align 2,,3
.L583:
	.cfi_restore_state
	ldr	x1, [x20]
	mov	x0, x20
	ldr	x1, [x1, 16]
	blr	x1
	ldr	x21, [x21, #:got_lo12:__libc_single_threaded]
	ldrb	w0, [x21]
	cbz	w0, .L573
	ldr	w0, [x20, 12]
	sub	w1, w0, #1
	str	w1, [x20, 12]
.L574:
	cmp	w0, 1
	bne	.L569
	ldr	x1, [x20]
	mov	x0, x20
	ldr	x1, [x1, 24]
	blr	x1
	b	.L569
	.p2align 2,,3
.L584:
	ldr	x1, [x19]
	mov	x0, x19
	ldr	x1, [x1, 16]
	blr	x1
	ldr	x21, [x21, #:got_lo12:__libc_single_threaded]
	ldrb	w0, [x21]
	cbz	w0, .L580
	ldr	w0, [x19, 12]
	sub	w1, w0, #1
	str	w1, [x19, 12]
.L581:
	cmp	w0, 1
	bne	.L567
	ldr	x1, [x19]
	mov	x0, x19
	ldp	x19, x20, [sp, 16]
	ldr	x21, [sp, 32]
	ldp	x29, x30, [sp], 48
	.cfi_remember_state
	.cfi_restore 30
	.cfi_restore 29
	.cfi_restore 21
	.cfi_restore 19
	.cfi_restore 20
	.cfi_def_cfa_offset 0
	ldr	x1, [x1, 24]
	mov	x16, x1
	br	x16
	.p2align 2,,3
.L577:
	.cfi_restore_state
	add	x1, x19, 8
	mov	w0, -1
	bl	__aarch64_ldadd4_acq_rel
	b	.L578
	.p2align 2,,3
.L570:
	add	x1, x20, 8
	mov	w0, -1
	bl	__aarch64_ldadd4_acq_rel
	b	.L571
	.p2align 2,,3
.L573:
	add	x1, x20, 12
	mov	w0, -1
	bl	__aarch64_ldadd4_acq_rel
	b	.L574
	.p2align 2,,3
.L580:
	add	x1, x19, 12
	mov	w0, -1
	bl	__aarch64_ldadd4_acq_rel
	b	.L581
	.cfi_endproc
.LFE9892:
	.size	_ZZN8asiodnp311DNP3Channel8AddStackINS_11MasterStackEEESt10shared_ptrIT_ERKN8opendnp310LinkConfigERKS5_ENUlvE_D2Ev, .-_ZZN8asiodnp311DNP3Channel8AddStackINS_11MasterStackEEESt10shared_ptrIT_ERKN8opendnp310LinkConfigERKS5_ENUlvE_D2Ev
	.weak	_ZZN8asiodnp311DNP3Channel8AddStackINS_11MasterStackEEESt10shared_ptrIT_ERKN8opendnp310LinkConfigERKS5_ENUlvE_D1Ev
	.set	_ZZN8asiodnp311DNP3Channel8AddStackINS_11MasterStackEEESt10shared_ptrIT_ERKN8opendnp310LinkConfigERKS5_ENUlvE_D1Ev,_ZZN8asiodnp311DNP3Channel8AddStackINS_11MasterStackEEESt10shared_ptrIT_ERKN8opendnp310LinkConfigERKS5_ENUlvE_D2Ev
	.section	.text._ZZZN8asiodnp311DNP3Channel8AddStackINS_15OutstationStackEEESt10shared_ptrIT_ERKN8opendnp310LinkConfigERKS5_ENKUlvE_clEvENUlvE_D2Ev,"axG",@progbits,_ZZZN8asiodnp311DNP3Channel8AddStackINS_15OutstationStackEEESt10shared_ptrIT_ERKN8opendnp310LinkConfigERKS5_ENKUlvE_clEvENUlvE_D5Ev,comdat
	.align	2
	.p2align 4,,11
	.weak	_ZZZN8asiodnp311DNP3Channel8AddStackINS_15OutstationStackEEESt10shared_ptrIT_ERKN8opendnp310LinkConfigERKS5_ENKUlvE_clEvENUlvE_D2Ev
	.type	_ZZZN8asiodnp311DNP3Channel8AddStackINS_15OutstationStackEEESt10shared_ptrIT_ERKN8opendnp310LinkConfigERKS5_ENKUlvE_clEvENUlvE_D2Ev, %function
_ZZZN8asiodnp311DNP3Channel8AddStackINS_15OutstationStackEEESt10shared_ptrIT_ERKN8opendnp310LinkConfigERKS5_ENKUlvE_clEvENUlvE_D2Ev:
.LFB9914:
	.cfi_startproc
	stp	x29, x30, [sp, -48]!
	.cfi_def_cfa_offset 48
	.cfi_offset 29, -48
	.cfi_offset 30, -40
	mov	x29, sp
	stp	x19, x20, [sp, 16]
	.cfi_offset 19, -32
	.cfi_offset 20, -24
	mov	x19, x0
	ldr	x20, [x0, 32]
	str	x21, [sp, 32]
	.cfi_offset 21, -16
	cbz	x20, .L587
	adrp	x21, :got:__libc_single_threaded
	ldr	x0, [x21, #:got_lo12:__libc_single_threaded]
	ldrb	w0, [x0]
	cbz	w0, .L588
	ldr	w0, [x20, 8]
	sub	w1, w0, #1
	str	w1, [x20, 8]
.L589:
	cmp	w0, 1
	beq	.L601
.L587:
	ldr	x19, [x19, 8]
	cbz	x19, .L585
	adrp	x21, :got:__libc_single_threaded
	ldr	x0, [x21, #:got_lo12:__libc_single_threaded]
	ldrb	w0, [x0]
	cbz	w0, .L595
	ldr	w0, [x19, 8]
	sub	w1, w0, #1
	str	w1, [x19, 8]
.L596:
	cmp	w0, 1
	beq	.L602
.L585:
	ldp	x19, x20, [sp, 16]
	ldr	x21, [sp, 32]
	ldp	x29, x30, [sp], 48
	.cfi_remember_state
	.cfi_restore 30
	.cfi_restore 29
	.cfi_restore 21
	.cfi_restore 19
	.cfi_restore 20
	.cfi_def_cfa_offset 0
	ret
	.p2align 2,,3
.L601:
	.cfi_restore_state
	ldr	x1, [x20]
	mov	x0, x20
	ldr	x1, [x1, 16]
	blr	x1
	ldr	x21, [x21, #:got_lo12:__libc_single_threaded]
	ldrb	w0, [x21]
	cbz	w0, .L591
	ldr	w0, [x20, 12]
	sub	w1, w0, #1
	str	w1, [x20, 12]
.L592:
	cmp	w0, 1
	bne	.L587
	ldr	x1, [x20]
	mov	x0, x20
	ldr	x1, [x1, 24]
	blr	x1
	b	.L587
	.p2align 2,,3
.L602:
	ldr	x1, [x19]
	mov	x0, x19
	ldr	x1, [x1, 16]
	blr	x1
	ldr	x21, [x21, #:got_lo12:__libc_single_threaded]
	ldrb	w0, [x21]
	cbz	w0, .L598
	ldr	w0, [x19, 12]
	sub	w1, w0, #1
	str	w1, [x19, 12]
.L599:
	cmp	w0, 1
	bne	.L585
	ldr	x1, [x19]
	mov	x0, x19
	ldp	x19, x20, [sp, 16]
	ldr	x21, [sp, 32]
	ldp	x29, x30, [sp], 48
	.cfi_remember_state
	.cfi_restore 30
	.cfi_restore 29
	.cfi_restore 21
	.cfi_restore 19
	.cfi_restore 20
	.cfi_def_cfa_offset 0
	ldr	x1, [x1, 24]
	mov	x16, x1
	br	x16
	.p2align 2,,3
.L595:
	.cfi_restore_state
	add	x1, x19, 8
	mov	w0, -1
	bl	__aarch64_ldadd4_acq_rel
	b	.L596
	.p2align 2,,3
.L588:
	add	x1, x20, 8
	mov	w0, -1
	bl	__aarch64_ldadd4_acq_rel
	b	.L589
	.p2align 2,,3
.L591:
	add	x1, x20, 12
	mov	w0, -1
	bl	__aarch64_ldadd4_acq_rel
	b	.L592
	.p2align 2,,3
.L598:
	add	x1, x19, 12
	mov	w0, -1
	bl	__aarch64_ldadd4_acq_rel
	b	.L599
	.cfi_endproc
.LFE9914:
	.size	_ZZZN8asiodnp311DNP3Channel8AddStackINS_15OutstationStackEEESt10shared_ptrIT_ERKN8opendnp310LinkConfigERKS5_ENKUlvE_clEvENUlvE_D2Ev, .-_ZZZN8asiodnp311DNP3Channel8AddStackINS_15OutstationStackEEESt10shared_ptrIT_ERKN8opendnp310LinkConfigERKS5_ENKUlvE_clEvENUlvE_D2Ev
	.weak	_ZZZN8asiodnp311DNP3Channel8AddStackINS_15OutstationStackEEESt10shared_ptrIT_ERKN8opendnp310LinkConfigERKS5_ENKUlvE_clEvENUlvE_D1Ev
	.set	_ZZZN8asiodnp311DNP3Channel8AddStackINS_15OutstationStackEEESt10shared_ptrIT_ERKN8opendnp310LinkConfigERKS5_ENKUlvE_clEvENUlvE_D1Ev,_ZZZN8asiodnp311DNP3Channel8AddStackINS_15OutstationStackEEESt10shared_ptrIT_ERKN8opendnp310LinkConfigERKS5_ENKUlvE_clEvENUlvE_D2Ev
	.section	.text._ZZN8asiodnp311DNP3Channel8AddStackINS_15OutstationStackEEESt10shared_ptrIT_ERKN8opendnp310LinkConfigERKS5_ENUlvE_D2Ev,"axG",@progbits,_ZZN8asiodnp311DNP3Channel8AddStackINS_15OutstationStackEEESt10shared_ptrIT_ERKN8opendnp310LinkConfigERKS5_ENUlvE_D5Ev,comdat
	.align	2
	.p2align 4,,11
	.weak	_ZZN8asiodnp311DNP3Channel8AddStackINS_15OutstationStackEEESt10shared_ptrIT_ERKN8opendnp310LinkConfigERKS5_ENUlvE_D2Ev
	.type	_ZZN8asiodnp311DNP3Channel8AddStackINS_15OutstationStackEEESt10shared_ptrIT_ERKN8opendnp310LinkConfigERKS5_ENUlvE_D2Ev, %function
_ZZN8asiodnp311DNP3Channel8AddStackINS_15OutstationStackEEESt10shared_ptrIT_ERKN8opendnp310LinkConfigERKS5_ENUlvE_D2Ev:
.LFB9922:
	.cfi_startproc
	stp	x29, x30, [sp, -48]!
	.cfi_def_cfa_offset 48
	.cfi_offset 29, -48
	.cfi_offset 30, -40
	mov	x29, sp
	stp	x19, x20, [sp, 16]
	.cfi_offset 19, -32
	.cfi_offset 20, -24
	mov	x19, x0
	ldr	x20, [x0, 32]
	str	x21, [sp, 32]
	.cfi_offset 21, -16
	cbz	x20, .L605
	adrp	x21, :got:__libc_single_threaded
	ldr	x0, [x21, #:got_lo12:__libc_single_threaded]
	ldrb	w0, [x0]
	cbz	w0, .L606
	ldr	w0, [x20, 8]
	sub	w1, w0, #1
	str	w1, [x20, 8]
.L607:
	cmp	w0, 1
	beq	.L619
.L605:
	ldr	x19, [x19, 8]
	cbz	x19, .L603
	adrp	x21, :got:__libc_single_threaded
	ldr	x0, [x21, #:got_lo12:__libc_single_threaded]
	ldrb	w0, [x0]
	cbz	w0, .L613
	ldr	w0, [x19, 8]
	sub	w1, w0, #1
	str	w1, [x19, 8]
.L614:
	cmp	w0, 1
	beq	.L620
.L603:
	ldp	x19, x20, [sp, 16]
	ldr	x21, [sp, 32]
	ldp	x29, x30, [sp], 48
	.cfi_remember_state
	.cfi_restore 30
	.cfi_restore 29
	.cfi_restore 21
	.cfi_restore 19
	.cfi_restore 20
	.cfi_def_cfa_offset 0
	ret
	.p2align 2,,3
.L619:
	.cfi_restore_state
	ldr	x1, [x20]
	mov	x0, x20
	ldr	x1, [x1, 16]
	blr	x1
	ldr	x21, [x21, #:got_lo12:__libc_single_threaded]
	ldrb	w0, [x21]
	cbz	w0, .L609
	ldr	w0, [x20, 12]
	sub	w1, w0, #1
	str	w1, [x20, 12]
.L610:
	cmp	w0, 1
	bne	.L605
	ldr	x1, [x20]
	mov	x0, x20
	ldr	x1, [x1, 24]
	blr	x1
	b	.L605
	.p2align 2,,3
.L620:
	ldr	x1, [x19]
	mov	x0, x19
	ldr	x1, [x1, 16]
	blr	x1
	ldr	x21, [x21, #:got_lo12:__libc_single_threaded]
	ldrb	w0, [x21]
	cbz	w0, .L616
	ldr	w0, [x19, 12]
	sub	w1, w0, #1
	str	w1, [x19, 12]
.L617:
	cmp	w0, 1
	bne	.L603
	ldr	x1, [x19]
	mov	x0, x19
	ldp	x19, x20, [sp, 16]
	ldr	x21, [sp, 32]
	ldp	x29, x30, [sp], 48
	.cfi_remember_state
	.cfi_restore 30
	.cfi_restore 29
	.cfi_restore 21
	.cfi_restore 19
	.cfi_restore 20
	.cfi_def_cfa_offset 0
	ldr	x1, [x1, 24]
	mov	x16, x1
	br	x16
	.p2align 2,,3
.L613:
	.cfi_restore_state
	add	x1, x19, 8
	mov	w0, -1
	bl	__aarch64_ldadd4_acq_rel
	b	.L614
	.p2align 2,,3
.L606:
	add	x1, x20, 8
	mov	w0, -1
	bl	__aarch64_ldadd4_acq_rel
	b	.L607
	.p2align 2,,3
.L609:
	add	x1, x20, 12
	mov	w0, -1
	bl	__aarch64_ldadd4_acq_rel
	b	.L610
	.p2align 2,,3
.L616:
	add	x1, x19, 12
	mov	w0, -1
	bl	__aarch64_ldadd4_acq_rel
	b	.L617
	.cfi_endproc
.LFE9922:
	.size	_ZZN8asiodnp311DNP3Channel8AddStackINS_15OutstationStackEEESt10shared_ptrIT_ERKN8opendnp310LinkConfigERKS5_ENUlvE_D2Ev, .-_ZZN8asiodnp311DNP3Channel8AddStackINS_15OutstationStackEEESt10shared_ptrIT_ERKN8opendnp310LinkConfigERKS5_ENUlvE_D2Ev
	.weak	_ZZN8asiodnp311DNP3Channel8AddStackINS_15OutstationStackEEESt10shared_ptrIT_ERKN8opendnp310LinkConfigERKS5_ENUlvE_D1Ev
	.set	_ZZN8asiodnp311DNP3Channel8AddStackINS_15OutstationStackEEESt10shared_ptrIT_ERKN8opendnp310LinkConfigERKS5_ENUlvE_D1Ev,_ZZN8asiodnp311DNP3Channel8AddStackINS_15OutstationStackEEESt10shared_ptrIT_ERKN8opendnp310LinkConfigERKS5_ENUlvE_D2Ev
	.section	.text._ZNSt16_Sp_counted_baseILN9__gnu_cxx12_Lock_policyE2EE10_M_releaseEv,"axG",@progbits,_ZNSt16_Sp_counted_baseILN9__gnu_cxx12_Lock_policyE2EE10_M_releaseEv,comdat
	.align	2
	.p2align 4,,11
	.weak	_ZNSt16_Sp_counted_baseILN9__gnu_cxx12_Lock_policyE2EE10_M_releaseEv
	.type	_ZNSt16_Sp_counted_baseILN9__gnu_cxx12_Lock_policyE2EE10_M_releaseEv, %function
_ZNSt16_Sp_counted_baseILN9__gnu_cxx12_Lock_policyE2EE10_M_releaseEv:
.LFB9948:
	.cfi_startproc
	stp	x29, x30, [sp, -32]!
	.cfi_def_cfa_offset 32
	.cfi_offset 29, -32
	.cfi_offset 30, -24
	mov	x29, sp
	stp	x19, x20, [sp, 16]
	.cfi_offset 19, -16
	.cfi_offset 20, -8
	adrp	x20, :got:__libc_single_threaded
	mov	x19, x0
	ldr	x0, [x20, #:got_lo12:__libc_single_threaded]
	ldrb	w0, [x0]
	cbz	w0, .L622
	ldr	w0, [x19, 8]
	sub	w1, w0, #1
	str	w1, [x19, 8]
.L623:
	cmp	w0, 1
	beq	.L630
.L621:
	ldp	x19, x20, [sp, 16]
	ldp	x29, x30, [sp], 32
	.cfi_remember_state
	.cfi_restore 30
	.cfi_restore 29
	.cfi_restore 19
	.cfi_restore 20
	.cfi_def_cfa_offset 0
	ret
	.p2align 2,,3
.L630:
	.cfi_restore_state
	ldr	x1, [x19]
	mov	x0, x19
	ldr	x1, [x1, 16]
	blr	x1
	ldr	x20, [x20, #:got_lo12:__libc_single_threaded]
	ldrb	w0, [x20]
	cbz	w0, .L626
	ldr	w0, [x19, 12]
	sub	w1, w0, #1
	str	w1, [x19, 12]
.L627:
	cmp	w0, 1
	bne	.L621
	ldr	x1, [x19]
	mov	x0, x19
	ldp	x19, x20, [sp, 16]
	ldp	x29, x30, [sp], 32
	.cfi_remember_state
	.cfi_restore 30
	.cfi_restore 29
	.cfi_restore 19
	.cfi_restore 20
	.cfi_def_cfa_offset 0
	ldr	x1, [x1, 24]
	mov	x16, x1
	br	x16
	.p2align 2,,3
.L622:
	.cfi_restore_state
	add	x1, x19, 8
	mov	w0, -1
	bl	__aarch64_ldadd4_acq_rel
	b	.L623
	.p2align 2,,3
.L626:
	add	x1, x19, 12
	mov	w0, -1
	bl	__aarch64_ldadd4_acq_rel
	b	.L627
	.cfi_endproc
.LFE9948:
	.size	_ZNSt16_Sp_counted_baseILN9__gnu_cxx12_Lock_policyE2EE10_M_releaseEv, .-_ZNSt16_Sp_counted_baseILN9__gnu_cxx12_Lock_policyE2EE10_M_releaseEv
	.section	.text._ZNSt17_Function_handlerIFbvEZZN8asiodnp311DNP3Channel8AddStackINS1_11MasterStackEEESt10shared_ptrIT_ERKN8opendnp310LinkConfigERKS7_ENKUlvE_clEvEUlvE_E9_M_invokeERKSt9_Any_data,"axG",@progbits,_ZNSt17_Function_handlerIFbvEZZN8asiodnp311DNP3Channel8AddStackINS1_11MasterStackEEESt10shared_ptrIT_ERKN8opendnp310LinkConfigERKS7_ENKUlvE_clEvEUlvE_E9_M_invokeERKSt9_Any_data,comdat
	.align	2
	.p2align 4,,11
	.weak	_ZNSt17_Function_handlerIFbvEZZN8asiodnp311DNP3Channel8AddStackINS1_11MasterStackEEESt10shared_ptrIT_ERKN8opendnp310LinkConfigERKS7_ENKUlvE_clEvEUlvE_E9_M_invokeERKSt9_Any_data
	.type	_ZNSt17_Function_handlerIFbvEZZN8asiodnp311DNP3Channel8AddStackINS1_11MasterStackEEESt10shared_ptrIT_ERKN8opendnp310LinkConfigERKS7_ENKUlvE_clEvEUlvE_E9_M_invokeERKSt9_Any_data, %function
_ZNSt17_Function_handlerIFbvEZZN8asiodnp311DNP3Channel8AddStackINS1_11MasterStackEEESt10shared_ptrIT_ERKN8opendnp310LinkConfigERKS7_ENKUlvE_clEvEUlvE_E9_M_invokeERKSt9_Any_data:
.LFB11165:
	.cfi_startproc
	.cfi_personality 0x9b,DW.ref.__gxx_personality_v0
	.cfi_lsda 0x1b,.LLSDA11165
	stp	x29, x30, [sp, -80]!
	.cfi_def_cfa_offset 80
	.cfi_offset 29, -80
	.cfi_offset 30, -72
	adrp	x1, :got:__stack_chk_guard
	mov	x29, sp
	ldr	x1, [x1, #:got_lo12:__stack_chk_guard]
	stp	x19, x20, [sp, 16]
	.cfi_offset 19, -64
	.cfi_offset 20, -56
	ldr	x19, [x0]
	ldr	x0, [x1]
	str	x0, [sp, 72]
	mov	x0, 0
	ldp	x0, x1, [x19]
	ldr	x2, [x19, 24]
	cmp	x0, 0
	add	x3, x0, 16
	csel	x0, x3, x0, ne
	stp	x0, x1, [sp, 56]
	ldr	x20, [x2, 72]
	cbz	x1, .L633
	adrp	x0, :got:__libc_single_threaded
	ldr	x0, [x0, #:got_lo12:__libc_single_threaded]
	ldrb	w0, [x0]
	cbz	w0, .L634
	ldr	w0, [x1, 8]
	add	w0, w0, 1
	str	w0, [x1, 8]
.L633:
	add	x2, x19, 16
	mov	x0, x20
	add	x1, sp, 56
.LEHB38:
	bl	_ZN8asiodnp39IOHandler10AddContextERKSt10shared_ptrIN8opendnp312ILinkSessionEERKNS2_5RouteE
.LEHE38:
	ldr	x20, [sp, 64]
	mov	w19, w0
	cbz	x20, .L636
	str	x21, [sp, 32]
	.cfi_offset 21, -48
	adrp	x21, :got:__libc_single_threaded
	ldr	x0, [x21, #:got_lo12:__libc_single_threaded]
	ldrb	w0, [x0]
	cbz	w0, .L637
	ldr	w0, [x20, 8]
	sub	w1, w0, #1
	str	w1, [x20, 8]
.L638:
	cmp	w0, 1
	beq	.L658
.L657:
	ldr	x21, [sp, 32]
	.cfi_restore 21
.L636:
	adrp	x1, :got:__stack_chk_guard
	ldr	x1, [x1, #:got_lo12:__stack_chk_guard]
	ldr	x0, [sp, 72]
	ldr	x2, [x1]
	subs	x0, x0, x2
	mov	x2, 0
	bne	.L659
	mov	w0, w19
	ldp	x19, x20, [sp, 16]
	ldp	x29, x30, [sp], 80
	.cfi_remember_state
	.cfi_restore 30
	.cfi_restore 29
	.cfi_restore 19
	.cfi_restore 20
	.cfi_def_cfa_offset 0
	ret
	.p2align 2,,3
.L634:
	.cfi_restore_state
	add	x1, x1, 8
	mov	w0, 1
	bl	__aarch64_ldadd4_acq_rel
	b	.L633
	.p2align 2,,3
.L658:
	.cfi_offset 21, -48
	ldr	x1, [x20]
	mov	x0, x20
	ldr	x1, [x1, 16]
	blr	x1
	ldr	x21, [x21, #:got_lo12:__libc_single_threaded]
	ldrb	w0, [x21]
	cbz	w0, .L640
	ldr	w0, [x20, 12]
	sub	w1, w0, #1
	str	w1, [x20, 12]
.L641:
	cmp	w0, 1
	bne	.L657
	ldr	x1, [x20]
	mov	x0, x20
	ldr	x1, [x1, 24]
	blr	x1
	ldr	x21, [sp, 32]
	.cfi_remember_state
	.cfi_restore 21
	b	.L636
	.p2align 2,,3
.L637:
	.cfi_restore_state
	add	x1, x20, 8
	mov	w0, -1
	bl	__aarch64_ldadd4_acq_rel
	b	.L638
	.p2align 2,,3
.L640:
	add	x1, x20, 12
	mov	w0, -1
	bl	__aarch64_ldadd4_acq_rel
	b	.L641
.L659:
	.cfi_restore 21
	str	x21, [sp, 32]
	.cfi_remember_state
	.cfi_offset 21, -48
	bl	__stack_chk_fail
.L645:
	.cfi_restore_state
	ldr	x1, [sp, 64]
	str	x21, [sp, 32]
	.cfi_offset 21, -48
	mov	x19, x0
	cbz	x1, .L643
	mov	x0, x1
	bl	_ZNSt16_Sp_counted_baseILN9__gnu_cxx12_Lock_policyE2EE10_M_releaseEv
.L643:
	mov	x0, x19
.LEHB39:
	bl	_Unwind_Resume
.LEHE39:
	.cfi_endproc
.LFE11165:
	.section	.gcc_except_table._ZNSt17_Function_handlerIFbvEZZN8asiodnp311DNP3Channel8AddStackINS1_11MasterStackEEESt10shared_ptrIT_ERKN8opendnp310LinkConfigERKS7_ENKUlvE_clEvEUlvE_E9_M_invokeERKSt9_Any_data,"aG",@progbits,_ZNSt17_Function_handlerIFbvEZZN8asiodnp311DNP3Channel8AddStackINS1_11MasterStackEEESt10shared_ptrIT_ERKN8opendnp310LinkConfigERKS7_ENKUlvE_clEvEUlvE_E9_M_invokeERKSt9_Any_data,comdat
.LLSDA11165:
	.byte	0xff
	.byte	0xff
	.byte	0x1
	.uleb128 .LLSDACSE11165-.LLSDACSB11165
.LLSDACSB11165:
	.uleb128 .LEHB38-.LFB11165
	.uleb128 .LEHE38-.LEHB38
	.uleb128 .L645-.LFB11165
	.uleb128 0
	.uleb128 .LEHB39-.LFB11165
	.uleb128 .LEHE39-.LEHB39
	.uleb128 0
	.uleb128 0
.LLSDACSE11165:
	.section	.text._ZNSt17_Function_handlerIFbvEZZN8asiodnp311DNP3Channel8AddStackINS1_11MasterStackEEESt10shared_ptrIT_ERKN8opendnp310LinkConfigERKS7_ENKUlvE_clEvEUlvE_E9_M_invokeERKSt9_Any_data,"axG",@progbits,_ZNSt17_Function_handlerIFbvEZZN8asiodnp311DNP3Channel8AddStackINS1_11MasterStackEEESt10shared_ptrIT_ERKN8opendnp310LinkConfigERKS7_ENKUlvE_clEvEUlvE_E9_M_invokeERKSt9_Any_data,comdat
	.size	_ZNSt17_Function_handlerIFbvEZZN8asiodnp311DNP3Channel8AddStackINS1_11MasterStackEEESt10shared_ptrIT_ERKN8opendnp310LinkConfigERKS7_ENKUlvE_clEvEUlvE_E9_M_invokeERKSt9_Any_data, .-_ZNSt17_Function_handlerIFbvEZZN8asiodnp311DNP3Channel8AddStackINS1_11MasterStackEEESt10shared_ptrIT_ERKN8opendnp310LinkConfigERKS7_ENKUlvE_clEvEUlvE_E9_M_invokeERKSt9_Any_data
	.section	.text._ZNSt17_Function_handlerIFbvEZZN8asiodnp311DNP3Channel8AddStackINS1_15OutstationStackEEESt10shared_ptrIT_ERKN8opendnp310LinkConfigERKS7_ENKUlvE_clEvEUlvE_E9_M_invokeERKSt9_Any_data,"axG",@progbits,_ZNSt17_Function_handlerIFbvEZZN8asiodnp311DNP3Channel8AddStackINS1_15OutstationStackEEESt10shared_ptrIT_ERKN8opendnp310LinkConfigERKS7_ENKUlvE_clEvEUlvE_E9_M_invokeERKSt9_Any_data,comdat
	.align	2
	.p2align 4,,11
	.weak	_ZNSt17_Function_handlerIFbvEZZN8asiodnp311DNP3Channel8AddStackINS1_15OutstationStackEEESt10shared_ptrIT_ERKN8opendnp310LinkConfigERKS7_ENKUlvE_clEvEUlvE_E9_M_invokeERKSt9_Any_data
	.type	_ZNSt17_Function_handlerIFbvEZZN8asiodnp311DNP3Channel8AddStackINS1_15OutstationStackEEESt10shared_ptrIT_ERKN8opendnp310LinkConfigERKS7_ENKUlvE_clEvEUlvE_E9_M_invokeERKSt9_Any_data, %function
_ZNSt17_Function_handlerIFbvEZZN8asiodnp311DNP3Channel8AddStackINS1_15OutstationStackEEESt10shared_ptrIT_ERKN8opendnp310LinkConfigERKS7_ENKUlvE_clEvEUlvE_E9_M_invokeERKSt9_Any_data:
.LFB11206:
	.cfi_startproc
	.cfi_personality 0x9b,DW.ref.__gxx_personality_v0
	.cfi_lsda 0x1b,.LLSDA11206
	stp	x29, x30, [sp, -80]!
	.cfi_def_cfa_offset 80
	.cfi_offset 29, -80
	.cfi_offset 30, -72
	adrp	x1, :got:__stack_chk_guard
	mov	x29, sp
	ldr	x1, [x1, #:got_lo12:__stack_chk_guard]
	stp	x19, x20, [sp, 16]
	.cfi_offset 19, -64
	.cfi_offset 20, -56
	ldr	x19, [x0]
	ldr	x0, [x1]
	str	x0, [sp, 72]
	mov	x0, 0
	ldp	x0, x1, [x19]
	ldr	x2, [x19, 24]
	cmp	x0, 0
	add	x3, x0, 8
	csel	x0, x3, x0, ne
	stp	x0, x1, [sp, 56]
	ldr	x20, [x2, 72]
	cbz	x1, .L662
	adrp	x0, :got:__libc_single_threaded
	ldr	x0, [x0, #:got_lo12:__libc_single_threaded]
	ldrb	w0, [x0]
	cbz	w0, .L663
	ldr	w0, [x1, 8]
	add	w0, w0, 1
	str	w0, [x1, 8]
.L662:
	add	x2, x19, 16
	mov	x0, x20
	add	x1, sp, 56
.LEHB40:
	bl	_ZN8asiodnp39IOHandler10AddContextERKSt10shared_ptrIN8opendnp312ILinkSessionEERKNS2_5RouteE
.LEHE40:
	ldr	x20, [sp, 64]
	mov	w19, w0
	cbz	x20, .L665
	str	x21, [sp, 32]
	.cfi_offset 21, -48
	adrp	x21, :got:__libc_single_threaded
	ldr	x0, [x21, #:got_lo12:__libc_single_threaded]
	ldrb	w0, [x0]
	cbz	w0, .L666
	ldr	w0, [x20, 8]
	sub	w1, w0, #1
	str	w1, [x20, 8]
.L667:
	cmp	w0, 1
	beq	.L687
.L686:
	ldr	x21, [sp, 32]
	.cfi_restore 21
.L665:
	adrp	x1, :got:__stack_chk_guard
	ldr	x1, [x1, #:got_lo12:__stack_chk_guard]
	ldr	x0, [sp, 72]
	ldr	x2, [x1]
	subs	x0, x0, x2
	mov	x2, 0
	bne	.L688
	mov	w0, w19
	ldp	x19, x20, [sp, 16]
	ldp	x29, x30, [sp], 80
	.cfi_remember_state
	.cfi_restore 30
	.cfi_restore 29
	.cfi_restore 19
	.cfi_restore 20
	.cfi_def_cfa_offset 0
	ret
	.p2align 2,,3
.L663:
	.cfi_restore_state
	add	x1, x1, 8
	mov	w0, 1
	bl	__aarch64_ldadd4_acq_rel
	b	.L662
	.p2align 2,,3
.L687:
	.cfi_offset 21, -48
	ldr	x1, [x20]
	mov	x0, x20
	ldr	x1, [x1, 16]
	blr	x1
	ldr	x21, [x21, #:got_lo12:__libc_single_threaded]
	ldrb	w0, [x21]
	cbz	w0, .L669
	ldr	w0, [x20, 12]
	sub	w1, w0, #1
	str	w1, [x20, 12]
.L670:
	cmp	w0, 1
	bne	.L686
	ldr	x1, [x20]
	mov	x0, x20
	ldr	x1, [x1, 24]
	blr	x1
	ldr	x21, [sp, 32]
	.cfi_remember_state
	.cfi_restore 21
	b	.L665
	.p2align 2,,3
.L666:
	.cfi_restore_state
	add	x1, x20, 8
	mov	w0, -1
	bl	__aarch64_ldadd4_acq_rel
	b	.L667
	.p2align 2,,3
.L669:
	add	x1, x20, 12
	mov	w0, -1
	bl	__aarch64_ldadd4_acq_rel
	b	.L670
.L688:
	.cfi_restore 21
	str	x21, [sp, 32]
	.cfi_remember_state
	.cfi_offset 21, -48
	bl	__stack_chk_fail
.L674:
	.cfi_restore_state
	ldr	x1, [sp, 64]
	str	x21, [sp, 32]
	.cfi_offset 21, -48
	mov	x19, x0
	cbz	x1, .L672
	mov	x0, x1
	bl	_ZNSt16_Sp_counted_baseILN9__gnu_cxx12_Lock_policyE2EE10_M_releaseEv
.L672:
	mov	x0, x19
.LEHB41:
	bl	_Unwind_Resume
.LEHE41:
	.cfi_endproc
.LFE11206:
	.section	.gcc_except_table._ZNSt17_Function_handlerIFbvEZZN8asiodnp311DNP3Channel8AddStackINS1_15OutstationStackEEESt10shared_ptrIT_ERKN8opendnp310LinkConfigERKS7_ENKUlvE_clEvEUlvE_E9_M_invokeERKSt9_Any_data,"aG",@progbits,_ZNSt17_Function_handlerIFbvEZZN8asiodnp311DNP3Channel8AddStackINS1_15OutstationStackEEESt10shared_ptrIT_ERKN8opendnp310LinkConfigERKS7_ENKUlvE_clEvEUlvE_E9_M_invokeERKSt9_Any_data,comdat
.LLSDA11206:
	.byte	0xff
	.byte	0xff
	.byte	0x1
	.uleb128 .LLSDACSE11206-.LLSDACSB11206
.LLSDACSB11206:
	.uleb128 .LEHB40-.LFB11206
	.uleb128 .LEHE40-.LEHB40
	.uleb128 .L674-.LFB11206
	.uleb128 0
	.uleb128 .LEHB41-.LFB11206
	.uleb128 .LEHE41-.LEHB41
	.uleb128 0
	.uleb128 0
.LLSDACSE11206:
	.section	.text._ZNSt17_Function_handlerIFbvEZZN8asiodnp311DNP3Channel8AddStackINS1_15OutstationStackEEESt10shared_ptrIT_ERKN8opendnp310LinkConfigERKS7_ENKUlvE_clEvEUlvE_E9_M_invokeERKSt9_Any_data,"axG",@progbits,_ZNSt17_Function_handlerIFbvEZZN8asiodnp311DNP3Channel8AddStackINS1_15OutstationStackEEESt10shared_ptrIT_ERKN8opendnp310LinkConfigERKS7_ENKUlvE_clEvEUlvE_E9_M_invokeERKSt9_Any_data,comdat
	.size	_ZNSt17_Function_handlerIFbvEZZN8asiodnp311DNP3Channel8AddStackINS1_15OutstationStackEEESt10shared_ptrIT_ERKN8opendnp310LinkConfigERKS7_ENKUlvE_clEvEUlvE_E9_M_invokeERKSt9_Any_data, .-_ZNSt17_Function_handlerIFbvEZZN8asiodnp311DNP3Channel8AddStackINS1_15OutstationStackEEESt10shared_ptrIT_ERKN8opendnp310LinkConfigERKS7_ENKUlvE_clEvEUlvE_E9_M_invokeERKSt9_Any_data
	.global	__aarch64_cas4_acq_rel
	.text
	.align	2
	.p2align 4,,11
	.global	_ZN8asiodnp311DNP3Channel8ShutdownEv
	.type	_ZN8asiodnp311DNP3Channel8ShutdownEv, %function
_ZN8asiodnp311DNP3Channel8ShutdownEv:
.LFB8602:
	.cfi_startproc
	.cfi_personality 0x9b,DW.ref.__gxx_personality_v0
	.cfi_lsda 0x1b,.LLSDA8602
	stp	x29, x30, [sp, -112]!
	.cfi_def_cfa_offset 112
	.cfi_offset 29, -112
	.cfi_offset 30, -104
	adrp	x1, :got:__stack_chk_guard
	mov	x29, sp
	ldr	x1, [x1, #:got_lo12:__stack_chk_guard]
	stp	x19, x20, [sp, 16]
	.cfi_offset 19, -96
	.cfi_offset 20, -88
	mov	x20, x0
	stp	x21, x22, [sp, 32]
	stp	x23, x24, [sp, 48]
	.cfi_offset 21, -80
	.cfi_offset 22, -72
	.cfi_offset 23, -64
	.cfi_offset 24, -56
	ldr	x19, [x0, 16]
	ldr	x0, [x1]
	str	x0, [sp, 104]
	mov	x0, 0
	cbz	x19, .L690
	add	x22, x19, 8
	ldr	w21, [x22]
.L692:
	cbz	w21, .L690
	add	w1, w21, 1
	mov	w0, w21
	mov	x2, x22
	bl	__aarch64_cas4_acq_rel
	cmp	w0, w21
	mov	w21, w0
	bne	.L692
	mov	x0, 16
	stp	xzr, xzr, [sp, 72]
	stp	xzr, xzr, [sp, 88]
	ldr	x23, [x20, 8]
	ldr	x24, [x20, 56]
.LEHB42:
	bl	_Znwm
.LEHE42:
	adrp	x21, :got:__libc_single_threaded
	mov	x20, x0
	ldr	x0, [x21, #:got_lo12:__libc_single_threaded]
	stp	x23, x19, [x20]
	ldrb	w0, [x0]
	cbz	w0, .L733
	ldr	w0, [x19, 8]
	add	w0, w0, 1
	str	w0, [x19, 8]
.L694:
	adrp	x2, _ZNSt17_Function_handlerIFvvEZN8asiodnp311DNP3Channel8ShutdownEvEUlvE_E9_M_invokeERKSt9_Any_data
	adrp	x3, _ZNSt17_Function_handlerIFvvEZN8asiodnp311DNP3Channel8ShutdownEvEUlvE_E10_M_managerERSt9_Any_dataRKS5_St18_Manager_operation
	add	x2, x2, :lo12:_ZNSt17_Function_handlerIFvvEZN8asiodnp311DNP3Channel8ShutdownEvEUlvE_E9_M_invokeERKSt9_Any_data
	add	x3, x3, :lo12:_ZNSt17_Function_handlerIFvvEZN8asiodnp311DNP3Channel8ShutdownEvEUlvE_E10_M_managerERSt9_Any_dataRKS5_St18_Manager_operation
	add	x23, sp, 72
	mov	x0, x24
	mov	x1, x23
	str	x20, [sp, 72]
	stp	x3, x2, [sp, 88]
.LEHB43:
	bl	_ZN7asiopal8Executor18BlockUntilAndFlushERKSt8functionIFvvEE
.LEHE43:
	ldr	x3, [sp, 88]
	cbz	x3, .L699
	mov	x1, x23
	mov	x0, x23
	mov	w2, 3
	blr	x3
.L699:
	ldr	x0, [x21, #:got_lo12:__libc_single_threaded]
	ldrb	w0, [x0]
	cbz	w0, .L700
	ldr	w0, [x19, 8]
	sub	w1, w0, #1
	str	w1, [x19, 8]
	cmp	w0, 1
	beq	.L734
.L689:
	adrp	x0, :got:__stack_chk_guard
	ldr	x0, [x0, #:got_lo12:__stack_chk_guard]
	ldr	x2, [sp, 104]
	ldr	x1, [x0]
	subs	x2, x2, x1
	mov	x1, 0
	bne	.L732
	ldp	x19, x20, [sp, 16]
	ldp	x21, x22, [sp, 32]
	ldp	x23, x24, [sp, 48]
	ldp	x29, x30, [sp], 112
	.cfi_remember_state
	.cfi_restore 30
	.cfi_restore 29
	.cfi_restore 23
	.cfi_restore 24
	.cfi_restore 21
	.cfi_restore 22
	.cfi_restore 19
	.cfi_restore 20
	.cfi_def_cfa_offset 0
	ret
	.p2align 2,,3
.L733:
	.cfi_restore_state
	mov	x1, x22
	mov	w0, 1
	bl	__aarch64_ldadd4_acq_rel
	b	.L694
	.p2align 2,,3
.L734:
	ldr	x1, [x19]
	mov	x0, x19
	ldr	x1, [x1, 16]
	blr	x1
	ldr	x21, [x21, #:got_lo12:__libc_single_threaded]
	ldrb	w0, [x21]
	cbz	w0, .L704
	ldr	w0, [x19, 12]
	sub	w1, w0, #1
	str	w1, [x19, 12]
.L705:
	cmp	w0, 1
	bne	.L689
	adrp	x0, :got:__stack_chk_guard
	ldr	x0, [x0, #:got_lo12:__stack_chk_guard]
	ldr	x2, [sp, 104]
	ldr	x1, [x0]
	subs	x2, x2, x1
	mov	x1, 0
	bne	.L732
	ldr	x1, [x19]
	mov	x0, x19
	ldp	x19, x20, [sp, 16]
	ldr	x1, [x1, 24]
	ldp	x21, x22, [sp, 32]
	mov	x16, x1
	ldp	x23, x24, [sp, 48]
	ldp	x29, x30, [sp], 112
	.cfi_remember_state
	.cfi_restore 30
	.cfi_restore 29
	.cfi_restore 23
	.cfi_restore 24
	.cfi_restore 21
	.cfi_restore 22
	.cfi_restore 19
	.cfi_restore 20
	.cfi_def_cfa_offset 0
	br	x16
	.p2align 2,,3
.L700:
	.cfi_restore_state
	mov	x1, x22
	mov	w0, -1
	bl	__aarch64_ldadd4_acq_rel
	cmp	w0, 1
	bne	.L689
	b	.L734
	.p2align 2,,3
.L704:
	add	x1, x19, 12
	mov	w0, -1
	bl	__aarch64_ldadd4_acq_rel
	b	.L705
.L732:
	bl	__stack_chk_fail
.L690:
	mov	x0, 8
	bl	__cxa_allocate_exception
	adrp	x3, :got:_ZTVSt12bad_weak_ptr
	adrp	x2, :got:_ZNSt12bad_weak_ptrD1Ev
	adrp	x1, :got:_ZTISt12bad_weak_ptr
	ldr	x3, [x3, #:got_lo12:_ZTVSt12bad_weak_ptr]
	ldr	x2, [x2, #:got_lo12:_ZNSt12bad_weak_ptrD1Ev]
	add	x3, x3, 16
	ldr	x1, [x1, #:got_lo12:_ZTISt12bad_weak_ptr]
	str	x3, [x0]
.LEHB44:
	bl	__cxa_throw
.LEHE44:
.L713:
	ldr	x3, [sp, 88]
	mov	x20, x0
	cbz	x3, .L698
	add	x1, sp, 72
	mov	w2, 3
	mov	x0, x1
	blr	x3
.L698:
	mov	x0, x19
	bl	_ZNSt16_Sp_counted_baseILN9__gnu_cxx12_Lock_policyE2EE10_M_releaseEv
	mov	x0, x20
.LEHB45:
	bl	_Unwind_Resume
.LEHE45:
.L712:
	ldr	x3, [sp, 88]
	mov	x20, x0
	cbz	x3, .L698
	mov	x1, x23
	mov	x0, x23
	mov	w2, 3
	blr	x3
	b	.L698
	.cfi_endproc
.LFE8602:
	.section	.gcc_except_table,"a",@progbits
.LLSDA8602:
	.byte	0xff
	.byte	0xff
	.byte	0x1
	.uleb128 .LLSDACSE8602-.LLSDACSB8602
.LLSDACSB8602:
	.uleb128 .LEHB42-.LFB8602
	.uleb128 .LEHE42-.LEHB42
	.uleb128 .L713-.LFB8602
	.uleb128 0
	.uleb128 .LEHB43-.LFB8602
	.uleb128 .LEHE43-.LEHB43
	.uleb128 .L712-.LFB8602
	.uleb128 0
	.uleb128 .LEHB44-.LFB8602
	.uleb128 .LEHE44-.LEHB44
	.uleb128 0
	.uleb128 0
	.uleb128 .LEHB45-.LFB8602
	.uleb128 .LEHE45-.LEHB45
	.uleb128 0
	.uleb128 0
.LLSDACSE8602:
	.text
	.size	_ZN8asiodnp311DNP3Channel8ShutdownEv, .-_ZN8asiodnp311DNP3Channel8ShutdownEv
	.align	2
	.p2align 4,,11
	.global	_ZN8asiodnp311DNP3Channel12ShutdownImplEv
	.type	_ZN8asiodnp311DNP3Channel12ShutdownImplEv, %function
_ZN8asiodnp311DNP3Channel12ShutdownImplEv:
.LFB8615:
	.cfi_startproc
	.cfi_personality 0x9b,DW.ref.__gxx_personality_v0
	.cfi_lsda 0x1b,.LLSDA8615
	stp	x29, x30, [sp, -128]!
	.cfi_def_cfa_offset 128
	.cfi_offset 29, -128
	.cfi_offset 30, -120
	adrp	x1, :got:__stack_chk_guard
	mov	x29, sp
	ldr	x1, [x1, #:got_lo12:__stack_chk_guard]
	stp	x19, x20, [sp, 16]
	.cfi_offset 19, -112
	.cfi_offset 20, -104
	mov	x19, x0
	ldr	x0, [x0, 104]
	ldr	x2, [x1]
	str	x2, [sp, 120]
	mov	x2, 0
	cbz	x0, .L735
	ldr	x0, [x19, 72]
	stp	x21, x22, [sp, 32]
	.cfi_offset 22, -88
	.cfi_offset 21, -96
	stp	x23, x24, [sp, 48]
	.cfi_offset 24, -72
	.cfi_offset 23, -80
.LEHB46:
	bl	_ZN8asiodnp39IOHandler8ShutdownEv
	ldr	x0, [x19, 80]
	stp	xzr, xzr, [x19, 72]
	cbz	x0, .L737
	bl	_ZNSt16_Sp_counted_baseILN9__gnu_cxx12_Lock_policyE2EE10_M_releaseEv
.L737:
	ldr	x0, [x19, 104]
	bl	_ZN7asiopal15ResourceManager8ShutdownEv
.LEHE46:
	ldr	x0, [x19, 112]
	stp	xzr, xzr, [x19, 104]
	cbz	x0, .L738
	bl	_ZNSt16_Sp_counted_baseILN9__gnu_cxx12_Lock_policyE2EE10_M_releaseEv
.L738:
	ldr	x20, [x19, 16]
	cbz	x20, .L739
	add	x23, x20, 8
	ldr	w21, [x23]
.L741:
	cbz	w21, .L739
	add	w1, w21, 1
	mov	w0, w21
	mov	x2, x23
	bl	__aarch64_cas4_acq_rel
	cmp	w0, w21
	mov	w21, w0
	bne	.L741
	adrp	x0, :got:__libc_single_threaded
	ldr	x22, [x19, 8]
	ldr	x0, [x0, #:got_lo12:__libc_single_threaded]
	ldr	x21, [x19, 56]
	ldrb	w0, [x0]
	cbz	w0, .L802
	ldr	w0, [x20, 8]
	add	w0, w0, 1
	str	w0, [x20, 8]
.L742:
	adrp	x23, :got:_ZN4asio6detail10call_stackINS0_15task_io_serviceENS0_27task_io_service_thread_infoEE4top_E
	ldr	x24, [x21, 40]
	ldr	x0, [x23, #:got_lo12:_ZN4asio6detail10call_stackINS0_15task_io_serviceENS0_27task_io_service_thread_infoEE4top_E]
	ldr	w0, [x0]
	bl	pthread_getspecific
	cbz	x0, .L743
	ldr	x0, [x0, 8]
	cbz	x0, .L743
	ldr	x19, [x0]
	cbz	x19, .L743
	str	xzr, [x0]
	ldrb	w0, [x19]
	cmp	w0, 39
	bls	.L744
	strb	w0, [x19, 40]
.L745:
	dup	v0.2d, x19
	adrp	x1, _ZN4asio6detail18completion_handlerIZN8asiodnp311DNP3Channel12ShutdownImplEvEUlvE_E11do_completeEPNS0_15task_io_serviceEPNS0_25task_io_service_operationERKSt10error_codem
	add	x1, x1, :lo12:_ZN4asio6detail18completion_handlerIZN8asiodnp311DNP3Channel12ShutdownImplEvEUlvE_E11do_completeEPNS0_15task_io_serviceEPNS0_25task_io_service_operationERKSt10error_codem
	ldr	x0, [x21, 48]
	stp	xzr, x1, [x19]
	str	wzr, [x19, 16]
	add	x0, x0, 24
	stp	x22, x20, [x19, 24]
	str	q0, [sp, 64]
	bl	pthread_mutex_lock
	ldr	x0, [x21, 48]
	ldrb	w1, [x0, 72]
	cbz	w1, .L746
	str	xzr, [x19]
	ldr	x3, [x0, 88]
	cbz	x3, .L747
	str	x19, [x3]
	str	x19, [x0, 88]
.L748:
	add	x0, x0, 24
	bl	pthread_mutex_unlock
.L749:
	adrp	x0, :got:__stack_chk_guard
	ldr	x0, [x0, #:got_lo12:__stack_chk_guard]
	ldr	x2, [sp, 120]
	ldr	x1, [x0]
	subs	x2, x2, x1
	mov	x1, 0
	bne	.L801
	mov	x0, x20
	ldp	x19, x20, [sp, 16]
	ldp	x21, x22, [sp, 32]
	.cfi_remember_state
	.cfi_restore 22
	.cfi_restore 21
	ldp	x23, x24, [sp, 48]
	.cfi_restore 24
	.cfi_restore 23
	ldp	x29, x30, [sp], 128
	.cfi_restore 30
	.cfi_restore 29
	.cfi_restore 19
	.cfi_restore 20
	.cfi_def_cfa_offset 0
	b	_ZNSt16_Sp_counted_baseILN9__gnu_cxx12_Lock_policyE2EE10_M_releaseEv
	.p2align 2,,3
.L744:
	.cfi_restore_state
	mov	x0, x19
	bl	_ZdlPv
.L743:
	mov	x0, 41
.LEHB47:
	bl	_Znwm
.LEHE47:
	mov	w1, 40
	mov	x19, x0
	strb	w1, [x0, 40]
	b	.L745
	.p2align 2,,3
.L735:
	.cfi_restore 21
	.cfi_restore 22
	.cfi_restore 23
	.cfi_restore 24
	adrp	x0, :got:__stack_chk_guard
	ldr	x0, [x0, #:got_lo12:__stack_chk_guard]
	ldr	x2, [sp, 120]
	ldr	x1, [x0]
	subs	x2, x2, x1
	mov	x1, 0
	bne	.L803
	ldp	x19, x20, [sp, 16]
	ldp	x29, x30, [sp], 128
	.cfi_restore 30
	.cfi_restore 29
	.cfi_restore 19
	.cfi_restore 20
	.cfi_def_cfa_offset 0
	ret
	.p2align 2,,3
.L746:
	.cfi_def_cfa_offset 128
	.cfi_offset 19, -112
	.cfi_offset 20, -104
	.cfi_offset 21, -96
	.cfi_offset 22, -88
	.cfi_offset 23, -80
	.cfi_offset 24, -72
	.cfi_offset 29, -128
	.cfi_offset 30, -120
	mov	w1, 1
	strb	w1, [x0, 72]
	add	x0, x0, 24
	bl	pthread_mutex_unlock
	ldr	x21, [x21, 48]
	dup	v0.2d, x21
	ldr	x1, [x21, 104]
	str	xzr, [x19]
	str	q0, [sp, 80]
	cbz	x1, .L750
	str	x19, [x1]
	str	x19, [x21, 104]
.L751:
	ldr	x19, [x24, 40]
	ldrb	w0, [x19, 40]
	cbnz	w0, .L804
.L752:
	add	x1, x19, 192
	add	x22, x19, 48
	mov	x0, 1
	bl	__aarch64_ldadd8_acq_rel
	mov	x0, x22
	bl	pthread_mutex_lock
	ldr	x1, [x19, 208]
	str	xzr, [x21]
	cbz	x1, .L757
	str	x21, [x1]
	str	x21, [x19, 208]
.L758:
	ldr	x1, [x19, 144]
	add	x21, x19, 96
	orr	x1, x1, 1
	str	x1, [x19, 144]
	cmp	x1, 1
	beq	.L759
	mov	x0, x22
	bl	pthread_mutex_unlock
	mov	x0, x21
	bl	pthread_cond_signal
	b	.L749
	.p2align 2,,3
.L802:
	mov	x1, x23
	mov	w0, 1
	bl	__aarch64_ldadd4_acq_rel
	b	.L742
	.p2align 2,,3
.L750:
	ldr	q0, [sp, 64]
	str	q0, [x21, 96]
	b	.L751
	.p2align 2,,3
.L759:
	ldrb	w0, [x19, 184]
	cbnz	w0, .L761
	ldr	x3, [x19, 152]
	cbz	x3, .L761
	ldr	w2, [x3, 96]
	add	x4, x3, 96
	ldr	w0, [x3, 104]
	mov	w5, 9
	movk	w5, 0x8000, lsl 16
	strb	w1, [x19, 184]
	add	x3, sp, 104
	mov	w1, 3
	str	w5, [sp, 104]
	str	x4, [sp, 112]
	bl	epoll_ctl
.L761:
	mov	x0, x22
	bl	pthread_mutex_unlock
	b	.L749
	.p2align 2,,3
.L747:
	ldr	q0, [sp, 64]
	str	q0, [x0, 80]
	b	.L748
	.p2align 2,,3
.L804:
	ldr	x23, [x23, #:got_lo12:_ZN4asio6detail10call_stackINS0_15task_io_serviceENS0_27task_io_service_thread_infoEE4top_E]
	ldr	w0, [x23]
	bl	pthread_getspecific
	cbnz	x0, .L755
	b	.L752
	.p2align 2,,3
.L753:
	ldr	x0, [x0, 16]
	cbz	x0, .L752
.L755:
	ldr	x1, [x0]
	cmp	x19, x1
	bne	.L753
	ldr	x0, [x0, 8]
	cbz	x0, .L752
	ldp	x3, x1, [x0, 16]
	add	x1, x1, 1
	str	x1, [x0, 24]
	str	xzr, [x21]
	ldr	x1, [x0, 16]
	cbz	x3, .L756
	str	x21, [x1]
	str	x21, [x0, 16]
	b	.L749
	.p2align 2,,3
.L757:
	ldr	q0, [sp, 80]
	str	q0, [x19, 200]
	b	.L758
	.p2align 2,,3
.L756:
	ldr	q0, [sp, 80]
	str	q0, [x0, 8]
	b	.L749
.L803:
	.cfi_restore 21
	.cfi_restore 22
	.cfi_restore 23
	.cfi_restore 24
	stp	x21, x22, [sp, 32]
	.cfi_offset 22, -88
	.cfi_offset 21, -96
	stp	x23, x24, [sp, 48]
	.cfi_offset 24, -72
	.cfi_offset 23, -80
.L801:
	bl	__stack_chk_fail
.L767:
	mov	x19, x0
	mov	x0, x20
	bl	_ZNSt16_Sp_counted_baseILN9__gnu_cxx12_Lock_policyE2EE10_M_releaseEv
	mov	x0, x20
	bl	_ZNSt16_Sp_counted_baseILN9__gnu_cxx12_Lock_policyE2EE10_M_releaseEv
	mov	x0, x19
.LEHB48:
	bl	_Unwind_Resume
.L739:
	mov	x0, 8
	bl	__cxa_allocate_exception
	adrp	x3, :got:_ZTVSt12bad_weak_ptr
	adrp	x2, :got:_ZNSt12bad_weak_ptrD1Ev
	adrp	x1, :got:_ZTISt12bad_weak_ptr
	ldr	x3, [x3, #:got_lo12:_ZTVSt12bad_weak_ptr]
	ldr	x2, [x2, #:got_lo12:_ZNSt12bad_weak_ptrD1Ev]
	add	x3, x3, 16
	ldr	x1, [x1, #:got_lo12:_ZTISt12bad_weak_ptr]
	str	x3, [x0]
	bl	__cxa_throw
.LEHE48:
	.cfi_endproc
.LFE8615:
	.section	.gcc_except_table
.LLSDA8615:
	.byte	0xff
	.byte	0xff
	.byte	0x1
	.uleb128 .LLSDACSE8615-.LLSDACSB8615
.LLSDACSB8615:
	.uleb128 .LEHB46-.LFB8615
	.uleb128 .LEHE46-.LEHB46
	.uleb128 0
	.uleb128 0
	.uleb128 .LEHB47-.LFB8615
	.uleb128 .LEHE47-.LEHB47
	.uleb128 .L767-.LFB8615
	.uleb128 0
	.uleb128 .LEHB48-.LFB8615
	.uleb128 .LEHE48-.LEHB48
	.uleb128 0
	.uleb128 0
.LLSDACSE8615:
	.text
	.size	_ZN8asiodnp311DNP3Channel12ShutdownImplEv, .-_ZN8asiodnp311DNP3Channel12ShutdownImplEv
	.align	2
	.p2align 4,,11
	.type	_ZNSt17_Function_handlerIFvvEZN8asiodnp311DNP3Channel8ShutdownEvEUlvE_E9_M_invokeERKSt9_Any_data, %function
_ZNSt17_Function_handlerIFvvEZN8asiodnp311DNP3Channel8ShutdownEvEUlvE_E9_M_invokeERKSt9_Any_data:
.LFB10497:
	.cfi_startproc
	ldr	x0, [x0]
	ldr	x0, [x0]
	b	_ZN8asiodnp311DNP3Channel12ShutdownImplEv
	.cfi_endproc
.LFE10497:
	.size	_ZNSt17_Function_handlerIFvvEZN8asiodnp311DNP3Channel8ShutdownEvEUlvE_E9_M_invokeERKSt9_Any_data, .-_ZNSt17_Function_handlerIFvvEZN8asiodnp311DNP3Channel8ShutdownEvEUlvE_E9_M_invokeERKSt9_Any_data
	.align	2
	.p2align 4,,11
	.global	_ZN8asiodnp311DNP3ChannelD2Ev
	.type	_ZN8asiodnp311DNP3ChannelD2Ev, %function
_ZN8asiodnp311DNP3ChannelD2Ev:
.LFB8599:
	.cfi_startproc
	.cfi_personality 0x9b,DW.ref.__gxx_personality_v0
	.cfi_lsda 0x1b,.LLSDA8599
	stp	x29, x30, [sp, -48]!
	.cfi_def_cfa_offset 48
	.cfi_offset 29, -48
	.cfi_offset 30, -40
	adrp	x1, :got:_ZTVN8asiodnp311DNP3ChannelE
	mov	x29, sp
	ldr	x1, [x1, #:got_lo12:_ZTVN8asiodnp311DNP3ChannelE]
	stp	x19, x20, [sp, 16]
	.cfi_offset 19, -32
	.cfi_offset 20, -24
	mov	x19, x0
	add	x1, x1, 16
	str	x21, [sp, 32]
	.cfi_offset 21, -16
	str	x1, [x0]
	bl	_ZN8asiodnp311DNP3Channel12ShutdownImplEv
	ldr	x21, [x19, 112]
	cbz	x21, .L808
	adrp	x20, :got:__libc_single_threaded
	ldr	x0, [x20, #:got_lo12:__libc_single_threaded]
	ldrb	w0, [x0]
	cbz	w0, .L809
	ldr	w0, [x21, 8]
	sub	w1, w0, #1
	str	w1, [x21, 8]
.L810:
	cmp	w0, 1
	beq	.L849
.L808:
	ldr	x0, [x19, 96]
	cbz	x0, .L814
	bl	_ZNSt16_Sp_counted_baseILN9__gnu_cxx12_Lock_policyE2EE10_M_releaseEv
.L814:
	ldr	x0, [x19, 80]
	cbz	x0, .L815
	bl	_ZNSt16_Sp_counted_baseILN9__gnu_cxx12_Lock_policyE2EE10_M_releaseEv
.L815:
	ldr	x21, [x19, 64]
	cbz	x21, .L817
	adrp	x20, :got:__libc_single_threaded
	ldr	x0, [x20, #:got_lo12:__libc_single_threaded]
	ldrb	w0, [x0]
	cbz	w0, .L818
	ldr	w0, [x21, 8]
	sub	w1, w0, #1
	str	w1, [x21, 8]
.L819:
	cmp	w0, 1
	beq	.L850
.L817:
	ldr	x21, [x19, 48]
	cbz	x21, .L824
	adrp	x20, :got:__libc_single_threaded
	ldr	x0, [x20, #:got_lo12:__libc_single_threaded]
	ldrb	w0, [x0]
	cbz	w0, .L825
	ldr	w0, [x21, 8]
	sub	w1, w0, #1
	str	w1, [x21, 8]
.L826:
	cmp	w0, 1
	beq	.L851
.L824:
	ldr	x21, [x19, 32]
	cbz	x21, .L831
	adrp	x20, :got:__libc_single_threaded
	ldr	x0, [x20, #:got_lo12:__libc_single_threaded]
	ldrb	w0, [x0]
	cbz	w0, .L832
	ldr	w0, [x21, 8]
	sub	w1, w0, #1
	str	w1, [x21, 8]
.L833:
	cmp	w0, 1
	beq	.L852
.L831:
	ldr	x19, [x19, 16]
	cbz	x19, .L806
	adrp	x0, :got:__libc_single_threaded
	ldr	x0, [x0, #:got_lo12:__libc_single_threaded]
	ldrb	w0, [x0]
	cbz	w0, .L839
	ldr	w0, [x19, 12]
	sub	w1, w0, #1
	str	w1, [x19, 12]
.L840:
	cmp	w0, 1
	beq	.L853
.L806:
	ldp	x19, x20, [sp, 16]
	ldr	x21, [sp, 32]
	ldp	x29, x30, [sp], 48
	.cfi_remember_state
	.cfi_restore 30
	.cfi_restore 29
	.cfi_restore 21
	.cfi_restore 19
	.cfi_restore 20
	.cfi_def_cfa_offset 0
	ret
	.p2align 2,,3
.L849:
	.cfi_restore_state
	ldr	x1, [x21]
	mov	x0, x21
	ldr	x1, [x1, 16]
	blr	x1
	ldr	x20, [x20, #:got_lo12:__libc_single_threaded]
	ldrb	w0, [x20]
	cbz	w0, .L812
	ldr	w0, [x21, 12]
	sub	w1, w0, #1
	str	w1, [x21, 12]
.L813:
	cmp	w0, 1
	bne	.L808
	ldr	x1, [x21]
	mov	x0, x21
	ldr	x1, [x1, 24]
	blr	x1
	b	.L808
	.p2align 2,,3
.L850:
	ldr	x1, [x21]
	mov	x0, x21
	ldr	x1, [x1, 16]
	blr	x1
	ldr	x20, [x20, #:got_lo12:__libc_single_threaded]
	ldrb	w0, [x20]
	cbz	w0, .L821
	ldr	w0, [x21, 12]
	sub	w1, w0, #1
	str	w1, [x21, 12]
.L822:
	cmp	w0, 1
	bne	.L817
	ldr	x1, [x21]
	mov	x0, x21
	ldr	x1, [x1, 24]
	blr	x1
	b	.L817
	.p2align 2,,3
.L851:
	ldr	x1, [x21]
	mov	x0, x21
	ldr	x1, [x1, 16]
	blr	x1
	ldr	x20, [x20, #:got_lo12:__libc_single_threaded]
	ldrb	w0, [x20]
	cbz	w0, .L828
	ldr	w0, [x21, 12]
	sub	w1, w0, #1
	str	w1, [x21, 12]
.L829:
	cmp	w0, 1
	bne	.L824
	ldr	x1, [x21]
	mov	x0, x21
	ldr	x1, [x1, 24]
	blr	x1
	b	.L824
	.p2align 2,,3
.L853:
	ldr	x1, [x19]
	mov	x0, x19
	ldp	x19, x20, [sp, 16]
	ldr	x21, [sp, 32]
	ldp	x29, x30, [sp], 48
	.cfi_remember_state
	.cfi_restore 30
	.cfi_restore 29
	.cfi_restore 21
	.cfi_restore 19
	.cfi_restore 20
	.cfi_def_cfa_offset 0
	ldr	x1, [x1, 24]
	mov	x16, x1
	br	x16
	.p2align 2,,3
.L852:
	.cfi_restore_state
	ldr	x1, [x21]
	mov	x0, x21
	ldr	x1, [x1, 16]
	blr	x1
	ldr	x20, [x20, #:got_lo12:__libc_single_threaded]
	ldrb	w0, [x20]
	cbz	w0, .L835
	ldr	w0, [x21, 12]
	sub	w1, w0, #1
	str	w1, [x21, 12]
.L836:
	cmp	w0, 1
	bne	.L831
	ldr	x1, [x21]
	mov	x0, x21
	ldr	x1, [x1, 24]
	blr	x1
	b	.L831
	.p2align 2,,3
.L809:
	add	x1, x21, 8
	mov	w0, -1
	bl	__aarch64_ldadd4_acq_rel
	b	.L810
	.p2align 2,,3
.L818:
	add	x1, x21, 8
	mov	w0, -1
	bl	__aarch64_ldadd4_acq_rel
	b	.L819
	.p2align 2,,3
.L825:
	add	x1, x21, 8
	mov	w0, -1
	bl	__aarch64_ldadd4_acq_rel
	b	.L826
	.p2align 2,,3
.L832:
	add	x1, x21, 8
	mov	w0, -1
	bl	__aarch64_ldadd4_acq_rel
	b	.L833
	.p2align 2,,3
.L839:
	add	x1, x19, 12
	mov	w0, -1
	bl	__aarch64_ldadd4_acq_rel
	b	.L840
	.p2align 2,,3
.L812:
	add	x1, x21, 12
	mov	w0, -1
	bl	__aarch64_ldadd4_acq_rel
	b	.L813
	.p2align 2,,3
.L821:
	add	x1, x21, 12
	mov	w0, -1
	bl	__aarch64_ldadd4_acq_rel
	b	.L822
	.p2align 2,,3
.L828:
	add	x1, x21, 12
	mov	w0, -1
	bl	__aarch64_ldadd4_acq_rel
	b	.L829
	.p2align 2,,3
.L835:
	add	x1, x21, 12
	mov	w0, -1
	bl	__aarch64_ldadd4_acq_rel
	b	.L836
	.cfi_endproc
.LFE8599:
	.section	.gcc_except_table
.LLSDA8599:
	.byte	0xff
	.byte	0xff
	.byte	0x1
	.uleb128 .LLSDACSE8599-.LLSDACSB8599
.LLSDACSB8599:
.LLSDACSE8599:
	.text
	.size	_ZN8asiodnp311DNP3ChannelD2Ev, .-_ZN8asiodnp311DNP3ChannelD2Ev
	.global	_ZN8asiodnp311DNP3ChannelD1Ev
	.set	_ZN8asiodnp311DNP3ChannelD1Ev,_ZN8asiodnp311DNP3ChannelD2Ev
	.align	2
	.p2align 4,,11
	.global	_ZN8asiodnp311DNP3ChannelD0Ev
	.type	_ZN8asiodnp311DNP3ChannelD0Ev, %function
_ZN8asiodnp311DNP3ChannelD0Ev:
.LFB8601:
	.cfi_startproc
	stp	x29, x30, [sp, -32]!
	.cfi_def_cfa_offset 32
	.cfi_offset 29, -32
	.cfi_offset 30, -24
	mov	x29, sp
	str	x19, [sp, 16]
	.cfi_offset 19, -16
	mov	x19, x0
	bl	_ZN8asiodnp311DNP3ChannelD1Ev
	mov	x0, x19
	mov	x1, 120
	ldr	x19, [sp, 16]
	ldp	x29, x30, [sp], 32
	.cfi_restore 30
	.cfi_restore 29
	.cfi_restore 19
	.cfi_def_cfa_offset 0
	b	_ZdlPvm
	.cfi_endproc
.LFE8601:
	.size	_ZN8asiodnp311DNP3ChannelD0Ev, .-_ZN8asiodnp311DNP3ChannelD0Ev
	.align	2
	.p2align 4,,11
	.global	_ZN8asiodnp311DNP3Channel13SetLogFiltersERKN7openpal10LogFiltersE
	.type	_ZN8asiodnp311DNP3Channel13SetLogFiltersERKN7openpal10LogFiltersE, %function
_ZN8asiodnp311DNP3Channel13SetLogFiltersERKN7openpal10LogFiltersE:
.LFB8644:
	.cfi_startproc
	.cfi_personality 0x9b,DW.ref.__gxx_personality_v0
	.cfi_lsda 0x1b,.LLSDA8644
	stp	x29, x30, [sp, -176]!
	.cfi_def_cfa_offset 176
	.cfi_offset 29, -176
	.cfi_offset 30, -168
	adrp	x2, :got:__stack_chk_guard
	mov	x29, sp
	ldr	x2, [x2, #:got_lo12:__stack_chk_guard]
	stp	x19, x20, [sp, 16]
	.cfi_offset 19, -160
	.cfi_offset 20, -152
	mov	x19, x0
	stp	x21, x22, [sp, 32]
	stp	x23, x24, [sp, 48]
	.cfi_offset 21, -144
	.cfi_offset 22, -136
	.cfi_offset 23, -128
	.cfi_offset 24, -120
	ldr	x20, [x0, 16]
	ldr	x0, [x2]
	str	x0, [sp, 168]
	mov	x0, 0
	cbz	x20, .L857
	mov	x22, x1
	add	x24, x20, 8
	ldr	w21, [x24]
.L859:
	cbz	w21, .L857
	add	w1, w21, 1
	mov	w0, w21
	mov	x2, x24
	bl	__aarch64_cas4_acq_rel
	cmp	w0, w21
	mov	w21, w0
	bne	.L859
	adrp	x0, :got:__libc_single_threaded
	ldr	w1, [x22]
	str	w1, [sp, 128]
	ldr	x0, [x0, #:got_lo12:__libc_single_threaded]
	ldr	x23, [x19, 8]
	ldrb	w0, [x0]
	ldr	x21, [x19, 56]
	cbz	w0, .L913
	ldr	w0, [x20, 8]
	add	w0, w0, 1
	str	w0, [x20, 8]
.L860:
	adrp	x22, :got:_ZN4asio6detail10call_stackINS0_15task_io_serviceENS0_27task_io_service_thread_infoEE4top_E
	ldr	w0, [sp, 128]
	str	w0, [sp, 152]
	ldr	x0, [x22, #:got_lo12:_ZN4asio6detail10call_stackINS0_15task_io_serviceENS0_27task_io_service_thread_infoEE4top_E]
	ldr	x24, [x21, 40]
	ldr	w0, [x0]
	bl	pthread_getspecific
	cbz	x0, .L861
	ldr	x0, [x0, 8]
	cbz	x0, .L861
	ldr	x19, [x0]
	cbz	x19, .L861
	str	xzr, [x0]
	ldrb	w0, [x19]
	cmp	w0, 47
	bls	.L862
	strb	w0, [x19, 48]
	b	.L863
	.p2align 2,,3
.L862:
	mov	x0, x19
	bl	_ZdlPv
.L861:
	mov	x0, 49
.LEHB49:
	bl	_Znwm
.LEHE49:
	mov	x19, x0
	mov	w1, 48
	strb	w1, [x0, 48]
.L863:
	dup	v0.2d, x19
	ldr	w2, [sp, 152]
	adrp	x1, _ZN4asio6detail18completion_handlerIZN8asiodnp311DNP3Channel13SetLogFiltersERKN7openpal10LogFiltersEEUlvE_E11do_completeEPNS0_15task_io_serviceEPNS0_25task_io_service_operationERKSt10error_codem
	add	x1, x1, :lo12:_ZN4asio6detail18completion_handlerIZN8asiodnp311DNP3Channel13SetLogFiltersERKN7openpal10LogFiltersEEUlvE_E11do_completeEPNS0_15task_io_serviceEPNS0_25task_io_service_operationERKSt10error_codem
	ldr	x0, [x21, 48]
	stp	xzr, x1, [x19]
	str	wzr, [x19, 16]
	add	x0, x0, 24
	stp	x23, x20, [x19, 24]
	str	w2, [x19, 40]
	str	q0, [sp, 64]
	bl	pthread_mutex_lock
	ldr	x0, [x21, 48]
	ldrb	w1, [x0, 72]
	cbz	w1, .L864
	str	xzr, [x19]
	ldr	x3, [x0, 88]
	cbz	x3, .L865
	str	x19, [x3]
	str	x19, [x0, 88]
.L866:
	add	x0, x0, 24
	bl	pthread_mutex_unlock
.L867:
	adrp	x0, :got:__stack_chk_guard
	ldr	x0, [x0, #:got_lo12:__stack_chk_guard]
	ldr	x2, [sp, 168]
	ldr	x1, [x0]
	subs	x2, x2, x1
	mov	x1, 0
	bne	.L914
	mov	x0, x20
	ldp	x19, x20, [sp, 16]
	ldp	x21, x22, [sp, 32]
	ldp	x23, x24, [sp, 48]
	ldp	x29, x30, [sp], 176
	.cfi_remember_state
	.cfi_restore 30
	.cfi_restore 29
	.cfi_restore 23
	.cfi_restore 24
	.cfi_restore 21
	.cfi_restore 22
	.cfi_restore 19
	.cfi_restore 20
	.cfi_def_cfa_offset 0
	b	_ZNSt16_Sp_counted_baseILN9__gnu_cxx12_Lock_policyE2EE10_M_releaseEv
	.p2align 2,,3
.L865:
	.cfi_restore_state
	ldr	q0, [sp, 64]
	str	q0, [x0, 80]
	b	.L866
	.p2align 2,,3
.L864:
	mov	w1, 1
	strb	w1, [x0, 72]
	add	x0, x0, 24
	bl	pthread_mutex_unlock
	ldr	x21, [x21, 48]
	dup	v0.2d, x21
	ldr	x1, [x21, 104]
	str	xzr, [x19]
	str	q0, [sp, 80]
	cbz	x1, .L868
	str	x19, [x1]
	str	x19, [x21, 104]
.L869:
	ldr	x19, [x24, 40]
	ldrb	w0, [x19, 40]
	cbnz	w0, .L915
.L870:
	add	x1, x19, 192
	add	x22, x19, 48
	mov	x0, 1
	bl	__aarch64_ldadd8_acq_rel
	mov	x0, x22
	bl	pthread_mutex_lock
	ldr	x1, [x19, 208]
	str	xzr, [x21]
	cbz	x1, .L875
	str	x21, [x1]
	str	x21, [x19, 208]
.L876:
	ldr	x1, [x19, 144]
	add	x21, x19, 96
	orr	x1, x1, 1
	str	x1, [x19, 144]
	cmp	x1, 1
	beq	.L877
	mov	x0, x22
	bl	pthread_mutex_unlock
	mov	x0, x21
	bl	pthread_cond_signal
	b	.L867
	.p2align 2,,3
.L913:
	mov	x1, x24
	mov	w0, 1
	bl	__aarch64_ldadd4_acq_rel
	b	.L860
	.p2align 2,,3
.L875:
	ldr	q0, [sp, 80]
	str	q0, [x19, 200]
	b	.L876
	.p2align 2,,3
.L877:
	ldrb	w0, [x19, 184]
	cbnz	w0, .L879
	ldr	x3, [x19, 152]
	cbz	x3, .L879
	ldr	w2, [x3, 96]
	add	x4, x3, 96
	ldr	w0, [x3, 104]
	mov	w5, 9
	movk	w5, 0x8000, lsl 16
	strb	w1, [x19, 184]
	add	x3, sp, 96
	mov	w1, 3
	str	w5, [sp, 96]
	str	x4, [sp, 104]
	bl	epoll_ctl
.L879:
	mov	x0, x22
	bl	pthread_mutex_unlock
	b	.L867
	.p2align 2,,3
.L915:
	ldr	x22, [x22, #:got_lo12:_ZN4asio6detail10call_stackINS0_15task_io_serviceENS0_27task_io_service_thread_infoEE4top_E]
	ldr	w0, [x22]
	bl	pthread_getspecific
	cbnz	x0, .L873
	b	.L870
	.p2align 2,,3
.L871:
	ldr	x0, [x0, 16]
	cbz	x0, .L870
.L873:
	ldr	x1, [x0]
	cmp	x19, x1
	bne	.L871
	ldr	x0, [x0, 8]
	cbz	x0, .L870
	ldp	x3, x1, [x0, 16]
	add	x1, x1, 1
	str	x1, [x0, 24]
	str	xzr, [x21]
	ldr	x1, [x0, 16]
	cbz	x3, .L874
	str	x21, [x1]
	str	x21, [x0, 16]
	b	.L867
	.p2align 2,,3
.L868:
	ldr	q0, [sp, 64]
	str	q0, [x21, 96]
	b	.L869
	.p2align 2,,3
.L874:
	ldr	q0, [sp, 80]
	str	q0, [x0, 8]
	b	.L867
.L914:
	bl	__stack_chk_fail
.L857:
	mov	x0, 8
	bl	__cxa_allocate_exception
	adrp	x3, :got:_ZTVSt12bad_weak_ptr
	adrp	x2, :got:_ZNSt12bad_weak_ptrD1Ev
	adrp	x1, :got:_ZTISt12bad_weak_ptr
	ldr	x3, [x3, #:got_lo12:_ZTVSt12bad_weak_ptr]
	ldr	x2, [x2, #:got_lo12:_ZNSt12bad_weak_ptrD1Ev]
	add	x3, x3, 16
	ldr	x1, [x1, #:got_lo12:_ZTISt12bad_weak_ptr]
	str	x3, [x0]
.LEHB50:
	bl	__cxa_throw
.L885:
	mov	x19, x0
	mov	x0, x20
	bl	_ZNSt16_Sp_counted_baseILN9__gnu_cxx12_Lock_policyE2EE10_M_releaseEv
	mov	x0, x20
	bl	_ZNSt16_Sp_counted_baseILN9__gnu_cxx12_Lock_policyE2EE10_M_releaseEv
	mov	x0, x19
	bl	_Unwind_Resume
.LEHE50:
	.cfi_endproc
.LFE8644:
	.section	.gcc_except_table
.LLSDA8644:
	.byte	0xff
	.byte	0xff
	.byte	0x1
	.uleb128 .LLSDACSE8644-.LLSDACSB8644
.LLSDACSB8644:
	.uleb128 .LEHB49-.LFB8644
	.uleb128 .LEHE49-.LEHB49
	.uleb128 .L885-.LFB8644
	.uleb128 0
	.uleb128 .LEHB50-.LFB8644
	.uleb128 .LEHE50-.LEHB50
	.uleb128 0
	.uleb128 0
.LLSDACSE8644:
	.text
	.size	_ZN8asiodnp311DNP3Channel13SetLogFiltersERKN7openpal10LogFiltersE, .-_ZN8asiodnp311DNP3Channel13SetLogFiltersERKN7openpal10LogFiltersE
	.align	2
	.p2align 4,,11
	.global	_ZN8asiodnp311DNP3ChannelC2ERKN7openpal6LoggerERKSt10shared_ptrIN7asiopal8ExecutorEERKS5_INS_9IOHandlerEERKS5_INS6_16IResourceManagerEE
	.type	_ZN8asiodnp311DNP3ChannelC2ERKN7openpal6LoggerERKSt10shared_ptrIN7asiopal8ExecutorEERKS5_INS_9IOHandlerEERKS5_INS6_16IResourceManagerEE, %function
_ZN8asiodnp311DNP3ChannelC2ERKN7openpal6LoggerERKSt10shared_ptrIN7asiopal8ExecutorEERKS5_INS_9IOHandlerEERKS5_INS6_16IResourceManagerEE:
.LFB8596:
	.cfi_startproc
	.cfi_personality 0x9b,DW.ref.__gxx_personality_v0
	.cfi_lsda 0x1b,.LLSDA8596
	stp	x29, x30, [sp, -64]!
	.cfi_def_cfa_offset 64
	.cfi_offset 29, -64
	.cfi_offset 30, -56
	adrp	x5, :got:_ZTVN8asiodnp311DNP3ChannelE
	mov	x29, sp
	stp	x19, x20, [sp, 16]
	.cfi_offset 19, -48
	.cfi_offset 20, -40
	mov	x20, x1
	mov	x19, x0
	ldr	x5, [x5, #:got_lo12:_ZTVN8asiodnp311DNP3ChannelE]
	stp	x21, x22, [sp, 32]
	.cfi_offset 21, -32
	.cfi_offset 22, -24
	mov	x22, x3
	ldr	x1, [x1, 8]
	add	x5, x5, 16
	ldr	x0, [x20]
	str	x23, [sp, 48]
	.cfi_offset 23, -16
	stp	x5, xzr, [x19]
	mov	x21, x4
	mov	x23, x2
	stp	xzr, x0, [x19, 16]
	str	x1, [x19, 32]
	cbz	x1, .L917
	adrp	x0, :got:__libc_single_threaded
	ldr	x0, [x0, #:got_lo12:__libc_single_threaded]
	ldrb	w0, [x0]
	cbz	w0, .L918
	ldr	w0, [x1, 8]
	add	w0, w0, 1
	str	w0, [x1, 8]
.L917:
	ldr	q0, [x20, 16]
	umov	x1, v0.d[1]
	str	q0, [x19, 40]
	cbz	x1, .L919
	adrp	x0, :got:__libc_single_threaded
	ldr	x0, [x0, #:got_lo12:__libc_single_threaded]
	ldrb	w0, [x0]
	cbz	w0, .L920
	ldr	w0, [x1, 8]
	add	w0, w0, 1
	str	w0, [x1, 8]
.L919:
	ldr	q0, [x23]
	umov	x1, v0.d[1]
	str	q0, [x19, 56]
	cbz	x1, .L921
	adrp	x0, :got:__libc_single_threaded
	ldr	x0, [x0, #:got_lo12:__libc_single_threaded]
	ldrb	w0, [x0]
	cbz	w0, .L922
	ldr	w0, [x1, 8]
	add	w0, w0, 1
	str	w0, [x1, 8]
.L921:
	ldr	q0, [x22]
	umov	x1, v0.d[1]
	str	q0, [x19, 72]
	cbz	x1, .L923
	adrp	x0, :got:__libc_single_threaded
	ldr	x0, [x0, #:got_lo12:__libc_single_threaded]
	ldrb	w0, [x0]
	cbz	w0, .L924
	ldr	w0, [x1, 8]
	add	w0, w0, 1
	str	w0, [x1, 8]
.L923:
	ldr	q0, [x21]
	umov	x1, v0.d[1]
	str	q0, [x19, 88]
	cbz	x1, .L925
	adrp	x0, :got:__libc_single_threaded
	ldr	x0, [x0, #:got_lo12:__libc_single_threaded]
	ldrb	w0, [x0]
	cbz	w0, .L926
	ldr	w0, [x1, 8]
	add	w0, w0, 1
	str	w0, [x1, 8]
.L925:
	str	xzr, [x19, 104]
	mov	x0, 128
.LEHB51:
	bl	_Znwm
.LEHE51:
	movi	v0.2s, 0x1
	adrp	x2, :got:_ZTVSt23_Sp_counted_ptr_inplaceIN7asiopal15ResourceManagerESaIS1_ELN9__gnu_cxx12_Lock_policyE2EE
	mov	x1, x0
	adrp	x3, :got:_ZTVN7asiopal15ResourceManagerE
	ldr	x2, [x2, #:got_lo12:_ZTVSt23_Sp_counted_ptr_inplaceIN7asiopal15ResourceManagerESaIS1_ELN9__gnu_cxx12_Lock_policyE2EE]
	str	d0, [x0, 8]
	movi	v0.4s, 0
	add	x2, x2, 16
	str	x2, [x1], 16
	add	x2, x0, 88
	ldr	x3, [x3, #:got_lo12:_ZTVN7asiopal15ResourceManagerE]
	stp	q0, q0, [x1]
	add	x3, x3, 16
	stp	q0, q0, [x1, 32]
	stp	q0, q0, [x1, 64]
	stp	xzr, xzr, [x0, 24]
	stp	xzr, xzr, [x0, 40]
	stp	xzr, xzr, [x0, 56]
	ldp	x21, x22, [sp, 32]
	ldr	x23, [sp, 48]
	str	x3, [x0, 16]
	str	wzr, [x0, 88]
	str	xzr, [x0, 96]
	stp	x2, x2, [x2, 16]
	str	xzr, [x2, 32]
	stp	x1, x0, [x19, 104]
	ldp	x19, x20, [sp, 16]
	ldp	x29, x30, [sp], 64
	.cfi_remember_state
	.cfi_restore 30
	.cfi_restore 29
	.cfi_restore 23
	.cfi_restore 21
	.cfi_restore 22
	.cfi_restore 19
	.cfi_restore 20
	.cfi_def_cfa_offset 0
	ret
	.p2align 2,,3
.L924:
	.cfi_restore_state
	add	x1, x1, 8
	mov	w0, 1
	bl	__aarch64_ldadd4_acq_rel
	b	.L923
	.p2align 2,,3
.L922:
	add	x1, x1, 8
	mov	w0, 1
	bl	__aarch64_ldadd4_acq_rel
	b	.L921
	.p2align 2,,3
.L920:
	add	x1, x1, 8
	mov	w0, 1
	bl	__aarch64_ldadd4_acq_rel
	b	.L919
	.p2align 2,,3
.L918:
	add	x1, x1, 8
	mov	w0, 1
	bl	__aarch64_ldadd4_acq_rel
	b	.L917
	.p2align 2,,3
.L926:
	add	x1, x1, 8
	mov	w0, 1
	bl	__aarch64_ldadd4_acq_rel
	b	.L925
.L936:
	ldr	x1, [x19, 96]
	mov	x20, x0
	cbz	x1, .L928
	mov	x0, x1
	bl	_ZNSt16_Sp_counted_baseILN9__gnu_cxx12_Lock_policyE2EE10_M_releaseEv
.L928:
	ldr	x0, [x19, 80]
	cbz	x0, .L929
	bl	_ZNSt16_Sp_counted_baseILN9__gnu_cxx12_Lock_policyE2EE10_M_releaseEv
.L929:
	ldr	x0, [x19, 64]
	cbz	x0, .L930
	bl	_ZNSt16_Sp_counted_baseILN9__gnu_cxx12_Lock_policyE2EE10_M_releaseEv
.L930:
	add	x0, x19, 24
	bl	_ZN7openpal6LoggerD1Ev
	ldr	x19, [x19, 16]
	cbz	x19, .L932
	adrp	x0, :got:__libc_single_threaded
	add	x1, x19, 12
	ldr	x0, [x0, #:got_lo12:__libc_single_threaded]
	ldrb	w0, [x0]
	cbnz	w0, .L963
	mov	w0, -1
	bl	__aarch64_ldadd4_acq_rel
.L934:
	cmp	w0, 1
	bne	.L932
	ldr	x1, [x19]
	mov	x0, x19
	ldr	x1, [x1, 24]
	blr	x1
.L932:
	mov	x0, x20
.LEHB52:
	bl	_Unwind_Resume
.LEHE52:
.L963:
	ldr	w0, [x19, 12]
	sub	w1, w0, #1
	str	w1, [x19, 12]
	b	.L934
	.cfi_endproc
.LFE8596:
	.section	.gcc_except_table
.LLSDA8596:
	.byte	0xff
	.byte	0xff
	.byte	0x1
	.uleb128 .LLSDACSE8596-.LLSDACSB8596
.LLSDACSB8596:
	.uleb128 .LEHB51-.LFB8596
	.uleb128 .LEHE51-.LEHB51
	.uleb128 .L936-.LFB8596
	.uleb128 0
	.uleb128 .LEHB52-.LFB8596
	.uleb128 .LEHE52-.LEHB52
	.uleb128 0
	.uleb128 0
.LLSDACSE8596:
	.text
	.size	_ZN8asiodnp311DNP3ChannelC2ERKN7openpal6LoggerERKSt10shared_ptrIN7asiopal8ExecutorEERKS5_INS_9IOHandlerEERKS5_INS6_16IResourceManagerEE, .-_ZN8asiodnp311DNP3ChannelC2ERKN7openpal6LoggerERKSt10shared_ptrIN7asiopal8ExecutorEERKS5_INS_9IOHandlerEERKS5_INS6_16IResourceManagerEE
	.global	_ZN8asiodnp311DNP3ChannelC1ERKN7openpal6LoggerERKSt10shared_ptrIN7asiopal8ExecutorEERKS5_INS_9IOHandlerEERKS5_INS6_16IResourceManagerEE
	.set	_ZN8asiodnp311DNP3ChannelC1ERKN7openpal6LoggerERKSt10shared_ptrIN7asiopal8ExecutorEERKS5_INS_9IOHandlerEERKS5_INS6_16IResourceManagerEE,_ZN8asiodnp311DNP3ChannelC2ERKN7openpal6LoggerERKSt10shared_ptrIN7asiopal8ExecutorEERKS5_INS_9IOHandlerEERKS5_INS6_16IResourceManagerEE
	.align	2
	.p2align 4,,11
	.type	_ZNSt17_Function_handlerIFvvEZN8asiodnp311DNP3Channel8ShutdownEvEUlvE_E10_M_managerERSt9_Any_dataRKS5_St18_Manager_operation, %function
_ZNSt17_Function_handlerIFvvEZN8asiodnp311DNP3Channel8ShutdownEvEUlvE_E10_M_managerERSt9_Any_dataRKS5_St18_Manager_operation:
.LFB10498:
	.cfi_startproc
	stp	x29, x30, [sp, -48]!
	.cfi_def_cfa_offset 48
	.cfi_offset 29, -48
	.cfi_offset 30, -40
	mov	x29, sp
	stp	x19, x20, [sp, 16]
	.cfi_offset 19, -32
	.cfi_offset 20, -24
	mov	x19, x0
	cbz	w2, .L965
	cmp	w2, 1
	beq	.L966
	cmp	w2, 2
	beq	.L969
	cmp	w2, 3
	bne	.L968
	ldr	x19, [x0]
	cbz	x19, .L968
	ldr	x0, [x19, 8]
	cbz	x0, .L973
	bl	_ZNSt16_Sp_counted_baseILN9__gnu_cxx12_Lock_policyE2EE10_M_releaseEv
.L973:
	mov	x0, x19
	mov	x1, 16
	bl	_ZdlPvm
.L968:
	mov	w0, 0
	ldp	x19, x20, [sp, 16]
	ldp	x29, x30, [sp], 48
	.cfi_remember_state
	.cfi_restore 30
	.cfi_restore 29
	.cfi_restore 19
	.cfi_restore 20
	.cfi_def_cfa_offset 0
	ret
	.p2align 2,,3
.L965:
	.cfi_restore_state
	adrp	x0, .LANCHOR0
	add	x0, x0, :lo12:.LANCHOR0
	add	x0, x0, 32
	str	x0, [x19]
	mov	w0, 0
	ldp	x19, x20, [sp, 16]
	ldp	x29, x30, [sp], 48
	.cfi_remember_state
	.cfi_restore 30
	.cfi_restore 29
	.cfi_restore 19
	.cfi_restore 20
	.cfi_def_cfa_offset 0
	ret
	.p2align 2,,3
.L966:
	.cfi_restore_state
	ldr	x0, [x1]
	str	x0, [x19]
	mov	w0, 0
	ldp	x19, x20, [sp, 16]
	ldp	x29, x30, [sp], 48
	.cfi_remember_state
	.cfi_restore 30
	.cfi_restore 29
	.cfi_restore 19
	.cfi_restore 20
	.cfi_def_cfa_offset 0
	ret
	.p2align 2,,3
.L969:
	.cfi_restore_state
	str	x21, [sp, 32]
	.cfi_offset 21, -16
	mov	x0, 16
	ldr	x21, [x1]
	bl	_Znwm
	mov	x20, x0
	ldr	q0, [x21]
	umov	x1, v0.d[1]
	str	q0, [x0]
	cbz	x1, .L971
	adrp	x0, :got:__libc_single_threaded
	ldr	x0, [x0, #:got_lo12:__libc_single_threaded]
	ldrb	w0, [x0]
	cbz	w0, .L972
	ldr	w0, [x1, 8]
	add	w0, w0, 1
	str	w0, [x1, 8]
.L971:
	ldr	x21, [sp, 32]
	.cfi_remember_state
	.cfi_restore 21
	str	x20, [x19]
	b	.L968
	.p2align 2,,3
.L972:
	.cfi_restore_state
	add	x1, x1, 8
	mov	w0, 1
	bl	__aarch64_ldadd4_acq_rel
	b	.L971
	.cfi_endproc
.LFE10498:
	.size	_ZNSt17_Function_handlerIFvvEZN8asiodnp311DNP3Channel8ShutdownEvEUlvE_E10_M_managerERSt9_Any_dataRKS5_St18_Manager_operation, .-_ZNSt17_Function_handlerIFvvEZN8asiodnp311DNP3Channel8ShutdownEvEUlvE_E10_M_managerERSt9_Any_dataRKS5_St18_Manager_operation
	.align	2
	.p2align 4,,11
	.type	_ZN4asio6detail18completion_handlerIZN8asiodnp311DNP3Channel13SetLogFiltersERKN7openpal10LogFiltersEEUlvE_E11do_completeEPNS0_15task_io_serviceEPNS0_25task_io_service_operationERKSt10error_codem, %function
_ZN4asio6detail18completion_handlerIZN8asiodnp311DNP3Channel13SetLogFiltersERKN7openpal10LogFiltersEEUlvE_E11do_completeEPNS0_15task_io_serviceEPNS0_25task_io_service_operationERKSt10error_codem:
.LFB11486:
	.cfi_startproc
	stp	x29, x30, [sp, -96]!
	.cfi_def_cfa_offset 96
	.cfi_offset 29, -96
	.cfi_offset 30, -88
	adrp	x3, :got:_ZN4asio6detail10call_stackINS0_15task_io_serviceENS0_27task_io_service_thread_infoEE4top_E
	adrp	x2, :got:__stack_chk_guard
	mov	x29, sp
	ldr	x3, [x3, #:got_lo12:_ZN4asio6detail10call_stackINS0_15task_io_serviceENS0_27task_io_service_thread_infoEE4top_E]
	stp	x19, x20, [sp, 16]
	.cfi_offset 19, -80
	.cfi_offset 20, -72
	mov	x19, x1
	ldr	x2, [x2, #:got_lo12:__stack_chk_guard]
	stp	x21, x22, [sp, 32]
	.cfi_offset 21, -64
	.cfi_offset 22, -56
	ldr	w1, [x1, 40]
	mov	x20, x0
	ldr	w0, [x3]
	ldr	x3, [x2]
	str	x3, [sp, 88]
	mov	x3, 0
	str	w1, [sp, 80]
	ldp	x22, x21, [x19, 24]
	bl	pthread_getspecific
	cbz	x0, .L986
	ldr	x0, [x0, 8]
	cbz	x0, .L986
	ldr	x1, [x0]
	cbz	x1, .L1009
.L986:
	mov	x0, x19
	bl	_ZdlPv
.L987:
	cbz	x20, .L988
	add	x19, sp, 56
	mov	w0, 1
	mov	x1, x19
	str	wzr, [sp, 56]
	bl	__aarch64_swp4_sync
	ldr	x0, [x22, 40]
	ldr	w1, [sp, 80]
	str	w1, [x0, 32]
	stlr	wzr, [x19]
.L988:
	cbz	x21, .L985
	adrp	x19, :got:__libc_single_threaded
	ldr	x0, [x19, #:got_lo12:__libc_single_threaded]
	ldrb	w0, [x0]
	cbz	w0, .L991
	ldr	w0, [x21, 8]
	sub	w1, w0, #1
	str	w1, [x21, 8]
.L992:
	cmp	w0, 1
	beq	.L1010
.L985:
	adrp	x0, :got:__stack_chk_guard
	ldr	x0, [x0, #:got_lo12:__stack_chk_guard]
	ldr	x2, [sp, 88]
	ldr	x1, [x0]
	subs	x2, x2, x1
	mov	x1, 0
	bne	.L1008
	ldp	x19, x20, [sp, 16]
	ldp	x21, x22, [sp, 32]
	ldp	x29, x30, [sp], 96
	.cfi_remember_state
	.cfi_restore 30
	.cfi_restore 29
	.cfi_restore 21
	.cfi_restore 22
	.cfi_restore 19
	.cfi_restore 20
	.cfi_def_cfa_offset 0
	ret
	.p2align 2,,3
.L1010:
	.cfi_restore_state
	ldr	x1, [x21]
	mov	x0, x21
	ldr	x1, [x1, 16]
	blr	x1
	ldr	x19, [x19, #:got_lo12:__libc_single_threaded]
	ldrb	w0, [x19]
	cbz	w0, .L994
	ldr	w0, [x21, 12]
	sub	w1, w0, #1
	str	w1, [x21, 12]
.L995:
	cmp	w0, 1
	bne	.L985
	adrp	x0, :got:__stack_chk_guard
	ldr	x0, [x0, #:got_lo12:__stack_chk_guard]
	ldr	x2, [sp, 88]
	ldr	x1, [x0]
	subs	x2, x2, x1
	mov	x1, 0
	bne	.L1008
	ldr	x1, [x21]
	mov	x0, x21
	ldp	x19, x20, [sp, 16]
	ldr	x1, [x1, 24]
	ldp	x21, x22, [sp, 32]
	mov	x16, x1
	ldp	x29, x30, [sp], 96
	.cfi_remember_state
	.cfi_restore 30
	.cfi_restore 29
	.cfi_restore 21
	.cfi_restore 22
	.cfi_restore 19
	.cfi_restore 20
	.cfi_def_cfa_offset 0
	br	x16
	.p2align 2,,3
.L991:
	.cfi_restore_state
	add	x1, x21, 8
	mov	w0, -1
	bl	__aarch64_ldadd4_acq_rel
	b	.L992
	.p2align 2,,3
.L1009:
	ldrb	w1, [x19, 48]
	strb	w1, [x19]
	str	x19, [x0]
	b	.L987
	.p2align 2,,3
.L994:
	add	x1, x21, 12
	mov	w0, -1
	bl	__aarch64_ldadd4_acq_rel
	b	.L995
.L1008:
	bl	__stack_chk_fail
	.cfi_endproc
.LFE11486:
	.size	_ZN4asio6detail18completion_handlerIZN8asiodnp311DNP3Channel13SetLogFiltersERKN7openpal10LogFiltersEEUlvE_E11do_completeEPNS0_15task_io_serviceEPNS0_25task_io_service_operationERKSt10error_codem, .-_ZN4asio6detail18completion_handlerIZN8asiodnp311DNP3Channel13SetLogFiltersERKN7openpal10LogFiltersEEUlvE_E11do_completeEPNS0_15task_io_serviceEPNS0_25task_io_service_operationERKSt10error_codem
	.section	.text._ZNSt17_Function_handlerIFbvEZZN8asiodnp311DNP3Channel8AddStackINS1_11MasterStackEEESt10shared_ptrIT_ERKN8opendnp310LinkConfigERKS7_ENKUlvE_clEvEUlvE_E10_M_managerERSt9_Any_dataRKSH_St18_Manager_operation,"axG",@progbits,_ZNSt17_Function_handlerIFbvEZZN8asiodnp311DNP3Channel8AddStackINS1_11MasterStackEEESt10shared_ptrIT_ERKN8opendnp310LinkConfigERKS7_ENKUlvE_clEvEUlvE_E10_M_managerERSt9_Any_dataRKSH_St18_Manager_operation,comdat
	.align	2
	.p2align 4,,11
	.weak	_ZNSt17_Function_handlerIFbvEZZN8asiodnp311DNP3Channel8AddStackINS1_11MasterStackEEESt10shared_ptrIT_ERKN8opendnp310LinkConfigERKS7_ENKUlvE_clEvEUlvE_E10_M_managerERSt9_Any_dataRKSH_St18_Manager_operation
	.type	_ZNSt17_Function_handlerIFbvEZZN8asiodnp311DNP3Channel8AddStackINS1_11MasterStackEEESt10shared_ptrIT_ERKN8opendnp310LinkConfigERKS7_ENKUlvE_clEvEUlvE_E10_M_managerERSt9_Any_dataRKSH_St18_Manager_operation, %function
_ZNSt17_Function_handlerIFbvEZZN8asiodnp311DNP3Channel8AddStackINS1_11MasterStackEEESt10shared_ptrIT_ERKN8opendnp310LinkConfigERKS7_ENKUlvE_clEvEUlvE_E10_M_managerERSt9_Any_dataRKSH_St18_Manager_operation:
.LFB11166:
	.cfi_startproc
	stp	x29, x30, [sp, -48]!
	.cfi_def_cfa_offset 48
	.cfi_offset 29, -48
	.cfi_offset 30, -40
	mov	x29, sp
	stp	x19, x20, [sp, 16]
	.cfi_offset 19, -32
	.cfi_offset 20, -24
	mov	x19, x0
	cbz	w2, .L1012
	cmp	w2, 1
	beq	.L1013
	cmp	w2, 2
	beq	.L1016
	cmp	w2, 3
	bne	.L1015
	ldr	x19, [x0]
	cbz	x19, .L1015
	ldr	x0, [x19, 32]
	cbz	x0, .L1022
	bl	_ZNSt16_Sp_counted_baseILN9__gnu_cxx12_Lock_policyE2EE10_M_releaseEv
.L1022:
	ldr	x0, [x19, 8]
	cbz	x0, .L1023
	bl	_ZNSt16_Sp_counted_baseILN9__gnu_cxx12_Lock_policyE2EE10_M_releaseEv
.L1023:
	mov	x0, x19
	mov	x1, 40
	bl	_ZdlPvm
.L1015:
	mov	w0, 0
	ldp	x19, x20, [sp, 16]
	ldp	x29, x30, [sp], 48
	.cfi_remember_state
	.cfi_restore 30
	.cfi_restore 29
	.cfi_restore 19
	.cfi_restore 20
	.cfi_def_cfa_offset 0
	ret
	.p2align 2,,3
.L1012:
	.cfi_restore_state
	adrp	x0, :got:_ZTIZZN8asiodnp311DNP3Channel8AddStackINS_11MasterStackEEESt10shared_ptrIT_ERKN8opendnp310LinkConfigERKS5_ENKUlvE_clEvEUlvE_
	ldr	x0, [x0, #:got_lo12:_ZTIZZN8asiodnp311DNP3Channel8AddStackINS_11MasterStackEEESt10shared_ptrIT_ERKN8opendnp310LinkConfigERKS5_ENKUlvE_clEvEUlvE_]
	str	x0, [x19]
	mov	w0, 0
	ldp	x19, x20, [sp, 16]
	ldp	x29, x30, [sp], 48
	.cfi_remember_state
	.cfi_restore 30
	.cfi_restore 29
	.cfi_restore 19
	.cfi_restore 20
	.cfi_def_cfa_offset 0
	ret
	.p2align 2,,3
.L1013:
	.cfi_restore_state
	ldr	x0, [x1]
	str	x0, [x19]
	mov	w0, 0
	ldp	x19, x20, [sp, 16]
	ldp	x29, x30, [sp], 48
	.cfi_remember_state
	.cfi_restore 30
	.cfi_restore 29
	.cfi_restore 19
	.cfi_restore 20
	.cfi_def_cfa_offset 0
	ret
	.p2align 2,,3
.L1016:
	.cfi_restore_state
	str	x21, [sp, 32]
	.cfi_offset 21, -16
	mov	x0, 40
	ldr	x21, [x1]
	bl	_Znwm
	mov	x20, x0
	ldr	q0, [x21]
	umov	x1, v0.d[1]
	str	q0, [x0]
	cbz	x1, .L1018
	adrp	x0, :got:__libc_single_threaded
	ldr	x0, [x0, #:got_lo12:__libc_single_threaded]
	ldrb	w0, [x0]
	cbz	w0, .L1019
	ldr	w0, [x1, 8]
	add	w0, w0, 1
	str	w0, [x1, 8]
.L1018:
	ldr	w0, [x21, 16]
	str	w0, [x20, 16]
	ldr	q0, [x21, 24]
	umov	x1, v0.d[1]
	str	q0, [x20, 24]
	cbz	x1, .L1020
	adrp	x0, :got:__libc_single_threaded
	ldr	x0, [x0, #:got_lo12:__libc_single_threaded]
	ldrb	w0, [x0]
	cbz	w0, .L1021
	ldr	w0, [x1, 8]
	add	w0, w0, 1
	str	w0, [x1, 8]
.L1020:
	ldr	x21, [sp, 32]
	.cfi_remember_state
	.cfi_restore 21
	str	x20, [x19]
	b	.L1015
	.p2align 2,,3
.L1021:
	.cfi_restore_state
	add	x1, x1, 8
	mov	w0, 1
	bl	__aarch64_ldadd4_acq_rel
	b	.L1020
	.p2align 2,,3
.L1019:
	add	x1, x1, 8
	mov	w0, 1
	bl	__aarch64_ldadd4_acq_rel
	b	.L1018
	.cfi_endproc
.LFE11166:
	.size	_ZNSt17_Function_handlerIFbvEZZN8asiodnp311DNP3Channel8AddStackINS1_11MasterStackEEESt10shared_ptrIT_ERKN8opendnp310LinkConfigERKS7_ENKUlvE_clEvEUlvE_E10_M_managerERSt9_Any_dataRKSH_St18_Manager_operation, .-_ZNSt17_Function_handlerIFbvEZZN8asiodnp311DNP3Channel8AddStackINS1_11MasterStackEEESt10shared_ptrIT_ERKN8opendnp310LinkConfigERKS7_ENKUlvE_clEvEUlvE_E10_M_managerERSt9_Any_dataRKSH_St18_Manager_operation
	.section	.text._ZNSt17_Function_handlerIFbvEZZN8asiodnp311DNP3Channel8AddStackINS1_15OutstationStackEEESt10shared_ptrIT_ERKN8opendnp310LinkConfigERKS7_ENKUlvE_clEvEUlvE_E10_M_managerERSt9_Any_dataRKSH_St18_Manager_operation,"axG",@progbits,_ZNSt17_Function_handlerIFbvEZZN8asiodnp311DNP3Channel8AddStackINS1_15OutstationStackEEESt10shared_ptrIT_ERKN8opendnp310LinkConfigERKS7_ENKUlvE_clEvEUlvE_E10_M_managerERSt9_Any_dataRKSH_St18_Manager_operation,comdat
	.align	2
	.p2align 4,,11
	.weak	_ZNSt17_Function_handlerIFbvEZZN8asiodnp311DNP3Channel8AddStackINS1_15OutstationStackEEESt10shared_ptrIT_ERKN8opendnp310LinkConfigERKS7_ENKUlvE_clEvEUlvE_E10_M_managerERSt9_Any_dataRKSH_St18_Manager_operation
	.type	_ZNSt17_Function_handlerIFbvEZZN8asiodnp311DNP3Channel8AddStackINS1_15OutstationStackEEESt10shared_ptrIT_ERKN8opendnp310LinkConfigERKS7_ENKUlvE_clEvEUlvE_E10_M_managerERSt9_Any_dataRKSH_St18_Manager_operation, %function
_ZNSt17_Function_handlerIFbvEZZN8asiodnp311DNP3Channel8AddStackINS1_15OutstationStackEEESt10shared_ptrIT_ERKN8opendnp310LinkConfigERKS7_ENKUlvE_clEvEUlvE_E10_M_managerERSt9_Any_dataRKSH_St18_Manager_operation:
.LFB11207:
	.cfi_startproc
	stp	x29, x30, [sp, -48]!
	.cfi_def_cfa_offset 48
	.cfi_offset 29, -48
	.cfi_offset 30, -40
	mov	x29, sp
	stp	x19, x20, [sp, 16]
	.cfi_offset 19, -32
	.cfi_offset 20, -24
	mov	x19, x0
	cbz	w2, .L1042
	cmp	w2, 1
	beq	.L1043
	cmp	w2, 2
	beq	.L1046
	cmp	w2, 3
	bne	.L1045
	ldr	x19, [x0]
	cbz	x19, .L1045
	ldr	x0, [x19, 32]
	cbz	x0, .L1052
	bl	_ZNSt16_Sp_counted_baseILN9__gnu_cxx12_Lock_policyE2EE10_M_releaseEv
.L1052:
	ldr	x0, [x19, 8]
	cbz	x0, .L1053
	bl	_ZNSt16_Sp_counted_baseILN9__gnu_cxx12_Lock_policyE2EE10_M_releaseEv
.L1053:
	mov	x0, x19
	mov	x1, 40
	bl	_ZdlPvm
.L1045:
	mov	w0, 0
	ldp	x19, x20, [sp, 16]
	ldp	x29, x30, [sp], 48
	.cfi_remember_state
	.cfi_restore 30
	.cfi_restore 29
	.cfi_restore 19
	.cfi_restore 20
	.cfi_def_cfa_offset 0
	ret
	.p2align 2,,3
.L1042:
	.cfi_restore_state
	adrp	x0, :got:_ZTIZZN8asiodnp311DNP3Channel8AddStackINS_15OutstationStackEEESt10shared_ptrIT_ERKN8opendnp310LinkConfigERKS5_ENKUlvE_clEvEUlvE_
	ldr	x0, [x0, #:got_lo12:_ZTIZZN8asiodnp311DNP3Channel8AddStackINS_15OutstationStackEEESt10shared_ptrIT_ERKN8opendnp310LinkConfigERKS5_ENKUlvE_clEvEUlvE_]
	str	x0, [x19]
	mov	w0, 0
	ldp	x19, x20, [sp, 16]
	ldp	x29, x30, [sp], 48
	.cfi_remember_state
	.cfi_restore 30
	.cfi_restore 29
	.cfi_restore 19
	.cfi_restore 20
	.cfi_def_cfa_offset 0
	ret
	.p2align 2,,3
.L1043:
	.cfi_restore_state
	ldr	x0, [x1]
	str	x0, [x19]
	mov	w0, 0
	ldp	x19, x20, [sp, 16]
	ldp	x29, x30, [sp], 48
	.cfi_remember_state
	.cfi_restore 30
	.cfi_restore 29
	.cfi_restore 19
	.cfi_restore 20
	.cfi_def_cfa_offset 0
	ret
	.p2align 2,,3
.L1046:
	.cfi_restore_state
	str	x21, [sp, 32]
	.cfi_offset 21, -16
	mov	x0, 40
	ldr	x21, [x1]
	bl	_Znwm
	mov	x20, x0
	ldr	q0, [x21]
	umov	x1, v0.d[1]
	str	q0, [x0]
	cbz	x1, .L1048
	adrp	x0, :got:__libc_single_threaded
	ldr	x0, [x0, #:got_lo12:__libc_single_threaded]
	ldrb	w0, [x0]
	cbz	w0, .L1049
	ldr	w0, [x1, 8]
	add	w0, w0, 1
	str	w0, [x1, 8]
.L1048:
	ldr	w0, [x21, 16]
	str	w0, [x20, 16]
	ldr	q0, [x21, 24]
	umov	x1, v0.d[1]
	str	q0, [x20, 24]
	cbz	x1, .L1050
	adrp	x0, :got:__libc_single_threaded
	ldr	x0, [x0, #:got_lo12:__libc_single_threaded]
	ldrb	w0, [x0]
	cbz	w0, .L1051
	ldr	w0, [x1, 8]
	add	w0, w0, 1
	str	w0, [x1, 8]
.L1050:
	ldr	x21, [sp, 32]
	.cfi_remember_state
	.cfi_restore 21
	str	x20, [x19]
	b	.L1045
	.p2align 2,,3
.L1051:
	.cfi_restore_state
	add	x1, x1, 8
	mov	w0, 1
	bl	__aarch64_ldadd4_acq_rel
	b	.L1050
	.p2align 2,,3
.L1049:
	add	x1, x1, 8
	mov	w0, 1
	bl	__aarch64_ldadd4_acq_rel
	b	.L1048
	.cfi_endproc
.LFE11207:
	.size	_ZNSt17_Function_handlerIFbvEZZN8asiodnp311DNP3Channel8AddStackINS1_15OutstationStackEEESt10shared_ptrIT_ERKN8opendnp310LinkConfigERKS7_ENKUlvE_clEvEUlvE_E10_M_managerERSt9_Any_dataRKSH_St18_Manager_operation, .-_ZNSt17_Function_handlerIFbvEZZN8asiodnp311DNP3Channel8AddStackINS1_15OutstationStackEEESt10shared_ptrIT_ERKN8opendnp310LinkConfigERKS7_ENKUlvE_clEvEUlvE_E10_M_managerERSt9_Any_dataRKSH_St18_Manager_operation
	.text
	.align	2
	.p2align 4,,11
	.type	_ZN4asio6detail18completion_handlerIZN8asiodnp311DNP3Channel12ShutdownImplEvEUlvE_E11do_completeEPNS0_15task_io_serviceEPNS0_25task_io_service_operationERKSt10error_codem, %function
_ZN4asio6detail18completion_handlerIZN8asiodnp311DNP3Channel12ShutdownImplEvEUlvE_E11do_completeEPNS0_15task_io_serviceEPNS0_25task_io_service_operationERKSt10error_codem:
.LFB11415:
	.cfi_startproc
	.cfi_personality 0x9b,DW.ref.__gxx_personality_v0
	.cfi_lsda 0x1b,.LLSDA11415
	stp	x29, x30, [sp, -96]!
	.cfi_def_cfa_offset 96
	.cfi_offset 29, -96
	.cfi_offset 30, -88
	adrp	x3, :got:_ZN4asio6detail10call_stackINS0_15task_io_serviceENS0_27task_io_service_thread_infoEE4top_E
	adrp	x2, :got:__stack_chk_guard
	mov	x29, sp
	ldr	x3, [x3, #:got_lo12:_ZN4asio6detail10call_stackINS0_15task_io_serviceENS0_27task_io_service_thread_infoEE4top_E]
	stp	x19, x20, [sp, 16]
	.cfi_offset 19, -80
	.cfi_offset 20, -72
	mov	x19, x1
	ldr	x2, [x2, #:got_lo12:__stack_chk_guard]
	stp	x21, x22, [sp, 32]
	.cfi_offset 21, -64
	.cfi_offset 22, -56
	mov	x21, x0
	ldr	w0, [x3]
	ldr	x1, [x2]
	str	x1, [sp, 88]
	mov	x1, 0
	ldp	x22, x20, [x19, 24]
	bl	pthread_getspecific
	cbz	x0, .L1072
	ldr	x0, [x0, 8]
	cbz	x0, .L1072
	ldr	x1, [x0]
	cbz	x1, .L1116
.L1072:
	mov	x0, x19
	bl	_ZdlPv
.L1073:
	cbz	x21, .L1074
	add	x19, sp, 64
	mov	w0, 1
	mov	x1, x19
	str	x23, [sp, 48]
	.cfi_offset 23, -48
	str	wzr, [sp, 64]
	bl	__aarch64_swp4_sync
	ldr	x21, [x22, 88]
	ldr	x0, [x21]
	stp	x22, x20, [sp, 72]
	ldr	x23, [x0, 16]
	cbz	x20, .L1075
	adrp	x0, :got:__libc_single_threaded
	ldr	x0, [x0, #:got_lo12:__libc_single_threaded]
	ldrb	w0, [x0]
	cbz	w0, .L1076
	ldr	w0, [x20, 8]
	add	w0, w0, 1
	str	w0, [x20, 8]
.L1075:
	mov	x0, x21
	add	x1, sp, 72
.LEHB53:
	blr	x23
.LEHE53:
	ldr	x0, [sp, 80]
	cbz	x0, .L1077
	bl	_ZNSt16_Sp_counted_baseILN9__gnu_cxx12_Lock_policyE2EE10_M_releaseEv
.L1077:
	ldr	x0, [x22, 96]
	stp	xzr, xzr, [x22, 88]
	cbz	x0, .L1078
	bl	_ZNSt16_Sp_counted_baseILN9__gnu_cxx12_Lock_policyE2EE10_M_releaseEv
.L1078:
	stlr	wzr, [x19]
	ldr	x23, [sp, 48]
	.cfi_restore 23
.L1074:
	cbz	x20, .L1071
	adrp	x19, :got:__libc_single_threaded
	ldr	x0, [x19, #:got_lo12:__libc_single_threaded]
	ldrb	w0, [x0]
	cbz	w0, .L1085
	ldr	w0, [x20, 8]
	sub	w1, w0, #1
	str	w1, [x20, 8]
.L1086:
	cmp	w0, 1
	beq	.L1117
.L1071:
	adrp	x0, :got:__stack_chk_guard
	ldr	x0, [x0, #:got_lo12:__stack_chk_guard]
	ldr	x2, [sp, 88]
	ldr	x1, [x0]
	subs	x2, x2, x1
	mov	x1, 0
	bne	.L1115
	ldp	x19, x20, [sp, 16]
	ldp	x21, x22, [sp, 32]
	ldp	x29, x30, [sp], 96
	.cfi_remember_state
	.cfi_restore 30
	.cfi_restore 29
	.cfi_restore 21
	.cfi_restore 22
	.cfi_restore 19
	.cfi_restore 20
	.cfi_def_cfa_offset 0
	ret
	.p2align 2,,3
.L1117:
	.cfi_restore_state
	ldr	x1, [x20]
	mov	x0, x20
	ldr	x1, [x1, 16]
	blr	x1
	ldr	x19, [x19, #:got_lo12:__libc_single_threaded]
	ldrb	w0, [x19]
	cbz	w0, .L1088
	ldr	w0, [x20, 12]
	sub	w1, w0, #1
	str	w1, [x20, 12]
.L1089:
	cmp	w0, 1
	bne	.L1071
	adrp	x0, :got:__stack_chk_guard
	ldr	x0, [x0, #:got_lo12:__stack_chk_guard]
	ldr	x2, [sp, 88]
	ldr	x1, [x0]
	subs	x2, x2, x1
	mov	x1, 0
	bne	.L1115
	ldr	x1, [x20]
	mov	x0, x20
	ldp	x19, x20, [sp, 16]
	ldr	x1, [x1, 24]
	ldp	x21, x22, [sp, 32]
	mov	x16, x1
	ldp	x29, x30, [sp], 96
	.cfi_remember_state
	.cfi_restore 30
	.cfi_restore 29
	.cfi_restore 21
	.cfi_restore 22
	.cfi_restore 19
	.cfi_restore 20
	.cfi_def_cfa_offset 0
	br	x16
	.p2align 2,,3
.L1085:
	.cfi_restore_state
	add	x1, x20, 8
	mov	w0, -1
	bl	__aarch64_ldadd4_acq_rel
	b	.L1086
	.p2align 2,,3
.L1076:
	.cfi_offset 23, -48
	add	x1, x20, 8
	mov	w0, 1
	bl	__aarch64_ldadd4_acq_rel
	b	.L1075
	.p2align 2,,3
.L1116:
	.cfi_restore 23
	ldrb	w1, [x19, 40]
	strb	w1, [x19]
	str	x19, [x0]
	b	.L1073
	.p2align 2,,3
.L1088:
	add	x1, x20, 12
	mov	w0, -1
	bl	__aarch64_ldadd4_acq_rel
	b	.L1089
.L1115:
	str	x23, [sp, 48]
	.cfi_offset 23, -48
	bl	__stack_chk_fail
.L1092:
	ldr	x1, [sp, 80]
	mov	x21, x0
	cbz	x1, .L1080
	mov	x0, x1
	bl	_ZNSt16_Sp_counted_baseILN9__gnu_cxx12_Lock_policyE2EE10_M_releaseEv
.L1080:
	stlr	wzr, [x19]
	cbz	x20, .L1082
	mov	x0, x20
	bl	_ZNSt16_Sp_counted_baseILN9__gnu_cxx12_Lock_policyE2EE10_M_releaseEv
.L1082:
	mov	x0, x21
.LEHB54:
	bl	_Unwind_Resume
.LEHE54:
	.cfi_endproc
.LFE11415:
	.section	.gcc_except_table
.LLSDA11415:
	.byte	0xff
	.byte	0xff
	.byte	0x1
	.uleb128 .LLSDACSE11415-.LLSDACSB11415
.LLSDACSB11415:
	.uleb128 .LEHB53-.LFB11415
	.uleb128 .LEHE53-.LEHB53
	.uleb128 .L1092-.LFB11415
	.uleb128 0
	.uleb128 .LEHB54-.LFB11415
	.uleb128 .LEHE54-.LEHB54
	.uleb128 0
	.uleb128 0
.LLSDACSE11415:
	.text
	.size	_ZN4asio6detail18completion_handlerIZN8asiodnp311DNP3Channel12ShutdownImplEvEUlvE_E11do_completeEPNS0_15task_io_serviceEPNS0_25task_io_service_operationERKSt10error_codem, .-_ZN4asio6detail18completion_handlerIZN8asiodnp311DNP3Channel12ShutdownImplEvEUlvE_E11do_completeEPNS0_15task_io_serviceEPNS0_25task_io_service_operationERKSt10error_codem
	.section	.text._ZNSt23_Sp_counted_ptr_inplaceIN8asiodnp315OutstationStackESaIS1_ELN9__gnu_cxx12_Lock_policyE2EE10_M_disposeEv,"axG",@progbits,_ZNSt23_Sp_counted_ptr_inplaceIN8asiodnp315OutstationStackESaIS1_ELN9__gnu_cxx12_Lock_policyE2EE10_M_disposeEv,comdat
	.align	2
	.p2align 4,,11
	.weak	_ZNSt23_Sp_counted_ptr_inplaceIN8asiodnp315OutstationStackESaIS1_ELN9__gnu_cxx12_Lock_policyE2EE10_M_disposeEv
	.type	_ZNSt23_Sp_counted_ptr_inplaceIN8asiodnp315OutstationStackESaIS1_ELN9__gnu_cxx12_Lock_policyE2EE10_M_disposeEv, %function
_ZNSt23_Sp_counted_ptr_inplaceIN8asiodnp315OutstationStackESaIS1_ELN9__gnu_cxx12_Lock_policyE2EE10_M_disposeEv:
.LFB12938:
	.cfi_startproc
	stp	x29, x30, [sp, -48]!
	.cfi_def_cfa_offset 48
	.cfi_offset 29, -48
	.cfi_offset 30, -40
	adrp	x1, :got:_ZTVN8asiodnp315OutstationStackE
	adrp	x2, :got:_ZTVN8opendnp38OContextE
	mov	x29, sp
	ldr	x1, [x1, #:got_lo12:_ZTVN8asiodnp315OutstationStackE]
	stp	x19, x20, [sp, 16]
	.cfi_offset 19, -32
	.cfi_offset 20, -24
	mov	x19, x0
	adrp	x20, :got:_ZTVN7openpal5ArrayIhjEE
	add	x0, x1, 16
	ldr	x2, [x2, #:got_lo12:_ZTVN8opendnp38OContextE]
	add	x5, x1, 144
	ldr	x3, [x20, #:got_lo12:_ZTVN7openpal5ArrayIhjEE]
	stp	x0, x5, [x19, 16]
	add	x1, x1, 208
	ldr	x0, [x19, 1104]
	str	x1, [x19, 32]
	add	x1, x2, 16
	add	x2, x3, 16
	str	x1, [x19, 168]
	str	x2, [x19, 1088]
	cbz	x0, .L1119
	bl	_ZdaPv
.L1119:
	ldr	x1, [x20, #:got_lo12:_ZTVN7openpal5ArrayIhjEE]
	ldr	x0, [x19, 1048]
	add	x1, x1, 16
	str	x1, [x19, 1032]
	cbz	x0, .L1120
	bl	_ZdaPv
.L1120:
	ldr	x20, [x20, #:got_lo12:_ZTVN7openpal5ArrayIhjEE]
	ldr	x0, [x19, 968]
	add	x20, x20, 16
	str	x20, [x19, 952]
	cbz	x0, .L1121
	bl	_ZdaPv
.L1121:
	add	x0, x19, 896
	bl	_ZN7openpal8TimerRefD1Ev
	adrp	x0, :got:_ZTVN8opendnp315DatabaseBuffersE
	adrp	x3, :got:_ZTVN8opendnp38DatabaseE
	adrp	x1, :got:_ZTVN7openpal5ArrayIN8opendnp34CellINS1_19TimeAndIntervalSpecEEEtEE
	add	x4, x19, 552
	ldr	x0, [x0, #:got_lo12:_ZTVN8opendnp315DatabaseBuffersE]
	ldr	x3, [x3, #:got_lo12:_ZTVN8opendnp38DatabaseE]
	add	x5, x0, 88
	ldr	x2, [x1, #:got_lo12:_ZTVN7openpal5ArrayIN8opendnp34CellINS1_19TimeAndIntervalSpecEEEtEE]
	add	x1, x0, 16
	add	x3, x3, 16
	str	x3, [x19, 528]
	str	x1, [x19, 552]
	add	x1, x0, 120
	ldr	x0, [x19, 760]
	stp	x5, x1, [x4, 8]
	add	x1, x2, 16
	str	x1, [x19, 744]
	cbz	x0, .L1122
	bl	_ZdaPv
.L1122:
	adrp	x1, :got:_ZTVN7openpal5ArrayIN8opendnp34CellINS1_22AnalogOutputStatusSpecEEEtEE
	ldr	x0, [x19, 736]
	ldr	x1, [x1, #:got_lo12:_ZTVN7openpal5ArrayIN8opendnp34CellINS1_22AnalogOutputStatusSpecEEEtEE]
	add	x1, x1, 16
	str	x1, [x19, 720]
	cbz	x0, .L1123
	bl	_ZdaPv
.L1123:
	adrp	x1, :got:_ZTVN7openpal5ArrayIN8opendnp34CellINS1_22BinaryOutputStatusSpecEEEtEE
	ldr	x0, [x19, 712]
	ldr	x1, [x1, #:got_lo12:_ZTVN7openpal5ArrayIN8opendnp34CellINS1_22BinaryOutputStatusSpecEEEtEE]
	add	x1, x1, 16
	str	x1, [x19, 696]
	cbz	x0, .L1124
	bl	_ZdaPv
.L1124:
	adrp	x1, :got:_ZTVN7openpal5ArrayIN8opendnp34CellINS1_17FrozenCounterSpecEEEtEE
	ldr	x0, [x19, 688]
	ldr	x1, [x1, #:got_lo12:_ZTVN7openpal5ArrayIN8opendnp34CellINS1_17FrozenCounterSpecEEEtEE]
	add	x1, x1, 16
	str	x1, [x19, 672]
	cbz	x0, .L1125
	bl	_ZdaPv
.L1125:
	adrp	x1, :got:_ZTVN7openpal5ArrayIN8opendnp34CellINS1_11CounterSpecEEEtEE
	ldr	x0, [x19, 664]
	ldr	x1, [x1, #:got_lo12:_ZTVN7openpal5ArrayIN8opendnp34CellINS1_11CounterSpecEEEtEE]
	add	x1, x1, 16
	str	x1, [x19, 648]
	cbz	x0, .L1126
	bl	_ZdaPv
.L1126:
	adrp	x1, :got:_ZTVN7openpal5ArrayIN8opendnp34CellINS1_10AnalogSpecEEEtEE
	ldr	x0, [x19, 640]
	ldr	x1, [x1, #:got_lo12:_ZTVN7openpal5ArrayIN8opendnp34CellINS1_10AnalogSpecEEEtEE]
	add	x1, x1, 16
	str	x1, [x19, 624]
	cbz	x0, .L1127
	bl	_ZdaPv
.L1127:
	adrp	x1, :got:_ZTVN7openpal5ArrayIN8opendnp34CellINS1_19DoubleBitBinarySpecEEEtEE
	ldr	x0, [x19, 616]
	ldr	x1, [x1, #:got_lo12:_ZTVN7openpal5ArrayIN8opendnp34CellINS1_19DoubleBitBinarySpecEEEtEE]
	add	x1, x1, 16
	str	x1, [x19, 600]
	cbz	x0, .L1128
	bl	_ZdaPv
.L1128:
	adrp	x1, :got:_ZTVN7openpal5ArrayIN8opendnp34CellINS1_10BinarySpecEEEtEE
	ldr	x0, [x19, 592]
	ldr	x1, [x1, #:got_lo12:_ZTVN7openpal5ArrayIN8opendnp34CellINS1_10BinarySpecEEEtEE]
	add	x1, x1, 16
	str	x1, [x19, 576]
	cbz	x0, .L1129
	bl	_ZdaPv
.L1129:
	adrp	x1, :got:_ZTVN8opendnp311EventBufferE
	adrp	x2, :got:_ZTVN7openpal5ArrayINS_8ListNodeIN8opendnp39SOERecordEEEjEE
	ldr	x1, [x1, #:got_lo12:_ZTVN8opendnp311EventBufferE]
	ldr	x2, [x2, #:got_lo12:_ZTVN7openpal5ArrayINS_8ListNodeIN8opendnp39SOERecordEEEjEE]
	add	x0, x1, 16
	add	x5, x1, 160
	stp	x0, x5, [x19, 272]
	add	x4, x1, 192
	ldr	x0, [x19, 376]
	add	x1, x1, 224
	add	x2, x2, 16
	stp	x4, x1, [x19, 288]
	str	x2, [x19, 360]
	cbz	x0, .L1130
	bl	_ZdaPv
.L1130:
	ldr	x0, [x19, 264]
	cbz	x0, .L1131
	bl	_ZNSt16_Sp_counted_baseILN9__gnu_cxx12_Lock_policyE2EE10_M_releaseEv
.L1131:
	ldr	x0, [x19, 248]
	cbz	x0, .L1132
	bl	_ZNSt16_Sp_counted_baseILN9__gnu_cxx12_Lock_policyE2EE10_M_releaseEv
.L1132:
	ldr	x0, [x19, 232]
	cbz	x0, .L1133
	bl	_ZNSt16_Sp_counted_baseILN9__gnu_cxx12_Lock_policyE2EE10_M_releaseEv
.L1133:
	ldr	x0, [x19, 216]
	cbz	x0, .L1134
	bl	_ZNSt16_Sp_counted_baseILN9__gnu_cxx12_Lock_policyE2EE10_M_releaseEv
.L1134:
	ldr	x0, [x19, 200]
	cbz	x0, .L1135
	bl	_ZNSt16_Sp_counted_baseILN9__gnu_cxx12_Lock_policyE2EE10_M_releaseEv
.L1135:
	ldr	x0, [x19, 184]
	cbz	x0, .L1136
	bl	_ZNSt16_Sp_counted_baseILN9__gnu_cxx12_Lock_policyE2EE10_M_releaseEv
.L1136:
	ldr	x0, [x19, 160]
	cbz	x0, .L1137
	bl	_ZNSt16_Sp_counted_baseILN9__gnu_cxx12_Lock_policyE2EE10_M_releaseEv
.L1137:
	ldr	x20, [x19, 144]
	cbz	x20, .L1139
	str	x21, [sp, 32]
	.cfi_offset 21, -16
	adrp	x21, :got:__libc_single_threaded
	ldr	x0, [x21, #:got_lo12:__libc_single_threaded]
	ldrb	w0, [x0]
	cbz	w0, .L1140
	ldr	w0, [x20, 8]
	sub	w1, w0, #1
	str	w1, [x20, 8]
.L1141:
	cmp	w0, 1
	beq	.L1230
.L1229:
	ldr	x21, [sp, 32]
	.cfi_restore 21
.L1139:
	ldr	x0, [x19, 128]
	cbz	x0, .L1145
	bl	_ZNSt16_Sp_counted_baseILN9__gnu_cxx12_Lock_policyE2EE10_M_releaseEv
.L1145:
	ldr	x0, [x19, 112]
	cbz	x0, .L1146
	bl	_ZNSt16_Sp_counted_baseILN9__gnu_cxx12_Lock_policyE2EE10_M_releaseEv
.L1146:
	ldr	x0, [x19, 96]
	cbz	x0, .L1147
	bl	_ZNSt16_Sp_counted_baseILN9__gnu_cxx12_Lock_policyE2EE10_M_releaseEv
.L1147:
	ldr	x0, [x19, 80]
	cbz	x0, .L1148
	bl	_ZNSt16_Sp_counted_baseILN9__gnu_cxx12_Lock_policyE2EE10_M_releaseEv
.L1148:
	ldr	x0, [x19, 64]
	cbz	x0, .L1149
	bl	_ZNSt16_Sp_counted_baseILN9__gnu_cxx12_Lock_policyE2EE10_M_releaseEv
.L1149:
	ldr	x19, [x19, 48]
	cbz	x19, .L1118
	adrp	x0, :got:__libc_single_threaded
	ldr	x0, [x0, #:got_lo12:__libc_single_threaded]
	ldrb	w0, [x0]
	cbz	w0, .L1152
	ldr	w0, [x19, 12]
	sub	w1, w0, #1
	str	w1, [x19, 12]
.L1153:
	cmp	w0, 1
	beq	.L1231
.L1118:
	ldp	x19, x20, [sp, 16]
	ldp	x29, x30, [sp], 48
	.cfi_restore 30
	.cfi_restore 29
	.cfi_restore 19
	.cfi_restore 20
	.cfi_def_cfa_offset 0
	ret
	.p2align 2,,3
.L1230:
	.cfi_def_cfa_offset 48
	.cfi_offset 19, -32
	.cfi_offset 20, -24
	.cfi_offset 21, -16
	.cfi_offset 29, -48
	.cfi_offset 30, -40
	ldr	x1, [x20]
	mov	x0, x20
	ldr	x1, [x1, 16]
	blr	x1
	ldr	x21, [x21, #:got_lo12:__libc_single_threaded]
	ldrb	w0, [x21]
	cbz	w0, .L1143
	ldr	w0, [x20, 12]
	sub	w1, w0, #1
	str	w1, [x20, 12]
.L1144:
	cmp	w0, 1
	bne	.L1229
	ldr	x1, [x20]
	mov	x0, x20
	ldr	x1, [x1, 24]
	blr	x1
	ldr	x21, [sp, 32]
	.cfi_restore 21
	b	.L1139
	.p2align 2,,3
.L1231:
	ldr	x1, [x19]
	mov	x0, x19
	ldp	x19, x20, [sp, 16]
	ldp	x29, x30, [sp], 48
	.cfi_remember_state
	.cfi_restore 30
	.cfi_restore 29
	.cfi_restore 19
	.cfi_restore 20
	.cfi_def_cfa_offset 0
	ldr	x1, [x1, 24]
	mov	x16, x1
	br	x16
	.p2align 2,,3
.L1152:
	.cfi_restore_state
	add	x1, x19, 12
	mov	w0, -1
	bl	__aarch64_ldadd4_acq_rel
	b	.L1153
	.p2align 2,,3
.L1140:
	.cfi_offset 21, -16
	add	x1, x20, 8
	mov	w0, -1
	bl	__aarch64_ldadd4_acq_rel
	b	.L1141
	.p2align 2,,3
.L1143:
	add	x1, x20, 12
	mov	w0, -1
	bl	__aarch64_ldadd4_acq_rel
	b	.L1144
	.cfi_endproc
.LFE12938:
	.size	_ZNSt23_Sp_counted_ptr_inplaceIN8asiodnp315OutstationStackESaIS1_ELN9__gnu_cxx12_Lock_policyE2EE10_M_disposeEv, .-_ZNSt23_Sp_counted_ptr_inplaceIN8asiodnp315OutstationStackESaIS1_ELN9__gnu_cxx12_Lock_policyE2EE10_M_disposeEv
	.section	.text._ZNSt7promiseIN8opendnp314LinkStatisticsEED2Ev,"axG",@progbits,_ZNSt7promiseIN8opendnp314LinkStatisticsEED5Ev,comdat
	.align	2
	.p2align 4,,11
	.weak	_ZNSt7promiseIN8opendnp314LinkStatisticsEED2Ev
	.type	_ZNSt7promiseIN8opendnp314LinkStatisticsEED2Ev, %function
_ZNSt7promiseIN8opendnp314LinkStatisticsEED2Ev:
.LFB10536:
	.cfi_startproc
	.cfi_personality 0x9b,DW.ref.__gxx_personality_v0
	.cfi_lsda 0x1b,.LLSDA10536
	stp	x29, x30, [sp, -208]!
	.cfi_def_cfa_offset 208
	.cfi_offset 29, -208
	.cfi_offset 30, -200
	adrp	x1, :got:__stack_chk_guard
	mov	x29, sp
	ldr	x1, [x1, #:got_lo12:__stack_chk_guard]
	stp	x19, x20, [sp, 16]
	.cfi_offset 19, -192
	.cfi_offset 20, -184
	mov	x19, x0
	ldr	x20, [x0]
	ldr	x0, [x1]
	str	x0, [sp, 200]
	mov	x0, 0
	cbz	x20, .L1272
	ldr	x0, [x19, 8]
	cbz	x0, .L1235
	add	x1, x0, 8
	ldr	w1, [x1]
	cmp	w1, 1
	beq	.L1272
.L1235:
	stp	x23, x24, [sp, 48]
	.cfi_offset 24, -152
	.cfi_offset 23, -160
	ldr	x23, [x19, 16]
	str	xzr, [x19, 16]
	cbz	x23, .L1271
	stp	x21, x22, [sp, 32]
	.cfi_offset 22, -168
	.cfi_offset 21, -176
	add	x22, sp, 136
	str	x25, [sp, 64]
	.cfi_offset 25, -144
	bl	_ZSt15future_categoryv
	ldr	x2, [x0]
	mov	x8, x22
	mov	x21, x0
	mov	w1, 4
	ldr	x2, [x2, 32]
	blr	x2
	adrp	x3, .LC21
	mov	x0, x22
	add	x3, x3, :lo12:.LC21
	mov	x4, 19
	mov	x2, 0
	mov	x1, 0
.LEHB55:
	bl	_ZNSt7__cxx1112basic_stringIcSt11char_traitsIcESaIcEE10_M_replaceEmmPKcm
.LEHE55:
	add	x22, sp, 184
	str	x22, [sp, 168]
	mov	x1, x0
	ldr	x2, [x0], 16
	cmp	x2, x0
	beq	.L1276
	ldr	x3, [x1, 16]
	str	x2, [sp, 168]
	str	x3, [sp, 184]
.L1239:
	ldr	x2, [x1, 8]
	str	x2, [sp, 176]
	stp	x0, xzr, [x1]
	add	x24, sp, 104
	mov	x0, x24
	strb	wzr, [x1, 16]
	add	x1, sp, 168
.LEHB56:
	bl	_ZNSt11logic_errorC2ERKNSt7__cxx1112basic_stringIcSt11char_traitsIcESaIcEEE
.LEHE56:
	ldr	x0, [sp, 168]
	cmp	x0, x22
	beq	.L1240
	ldr	x1, [sp, 184]
	add	x1, x1, 1
	bl	_ZdlPvm
.L1240:
	ldr	x0, [sp, 136]
	add	x1, sp, 152
	cmp	x0, x1
	beq	.L1241
	ldr	x1, [sp, 152]
	add	x1, x1, 1
	bl	_ZdlPvm
.L1241:
	adrp	x22, :got:_ZTVSt12future_error
	mov	w1, 4
	mov	x0, 32
	str	w1, [sp, 120]
	ldr	x22, [x22, #:got_lo12:_ZTVSt12future_error]
	str	x21, [sp, 128]
	add	x25, sp, 88
	add	x22, x22, 16
	str	x22, [sp, 104]
	bl	__cxa_allocate_exception
	mov	x21, x0
	adrp	x2, :got:_ZNSt15__exception_ptr12__dest_thunkISt12future_errorEEvPv
	adrp	x1, :got:_ZTISt12future_error
	ldr	x2, [x2, #:got_lo12:_ZNSt15__exception_ptr12__dest_thunkISt12future_errorEEvPv]
	ldr	x1, [x1, #:got_lo12:_ZTISt12future_error]
	bl	__cxa_init_primary_exception
	mov	x1, x24
	mov	x0, x21
	bl	_ZNSt11logic_errorC2ERKS_
	ldp	x0, x1, [sp, 120]
	str	x22, [x21]
	stp	x0, x1, [x21, 16]
	mov	x1, x21
	mov	x0, x25
	bl	_ZNSt15__exception_ptr13exception_ptrC1EPv
	ldr	x0, [x23, 8]
	ldr	x1, [sp, 88]
	str	x1, [x23, 8]
	stp	xzr, x0, [sp, 88]
	cbz	x0, .L1243
	add	x0, sp, 96
	bl	_ZNSt15__exception_ptr13exception_ptr10_M_releaseEv
	ldr	x0, [sp, 88]
	cbz	x0, .L1243
	mov	x0, x25
	bl	_ZNSt15__exception_ptr13exception_ptr10_M_releaseEv
.L1243:
	mov	x0, x24
	bl	_ZNSt12future_errorD1Ev
	ldr	x21, [x20, 8]
	str	x23, [x20, 8]
	add	x20, x20, 16
	mov	w0, 1
	mov	x1, x20
	bl	__aarch64_swp4_rel
	tbnz	w0, #31, .L1277
.L1248:
	cbz	x21, .L1273
	ldr	x1, [x21]
	mov	x0, x21
	ldr	x1, [x1]
	blr	x1
.L1273:
	ldp	x21, x22, [sp, 32]
	.cfi_restore 22
	.cfi_restore 21
	ldp	x23, x24, [sp, 48]
	.cfi_restore 24
	.cfi_restore 23
	ldr	x20, [x19, 16]
	ldr	x25, [sp, 64]
	.cfi_restore 25
.L1234:
	cbz	x20, .L1274
	ldr	x1, [x20]
	adrp	x0, :got:_ZNSt13__future_base7_ResultIN8opendnp314LinkStatisticsEE10_M_destroyEv
	ldr	x0, [x0, #:got_lo12:_ZNSt13__future_base7_ResultIN8opendnp314LinkStatisticsEE10_M_destroyEv]
	ldr	x2, [x1]
	cmp	x2, x0
	bne	.L1251
	adrp	x0, :got:_ZNSt13__future_base7_ResultIN8opendnp314LinkStatisticsEED0Ev
	ldr	x1, [x1, 16]
	ldr	x0, [x0, #:got_lo12:_ZNSt13__future_base7_ResultIN8opendnp314LinkStatisticsEED0Ev]
	cmp	x1, x0
	bne	.L1252
	adrp	x1, :got:_ZTVNSt13__future_base7_ResultIN8opendnp314LinkStatisticsEEE
	mov	x0, x20
	ldr	x1, [x1, #:got_lo12:_ZTVNSt13__future_base7_ResultIN8opendnp314LinkStatisticsEEE]
	add	x1, x1, 16
	str	x1, [x20]
	bl	_ZNSt13__future_base12_Result_baseD2Ev
	mov	x0, x20
	mov	x1, 72
	bl	_ZdlPvm
	ldr	x0, [x19, 8]
.L1237:
	cbz	x0, .L1232
.L1278:
	adrp	x1, :got:__stack_chk_guard
	ldr	x1, [x1, #:got_lo12:__stack_chk_guard]
	ldr	x3, [sp, 200]
	ldr	x2, [x1]
	subs	x3, x3, x2
	mov	x2, 0
	bne	.L1275
	ldp	x19, x20, [sp, 16]
	ldp	x29, x30, [sp], 208
	.cfi_restore 30
	.cfi_restore 29
	.cfi_restore 19
	.cfi_restore 20
	.cfi_def_cfa_offset 0
	b	_ZNSt16_Sp_counted_baseILN9__gnu_cxx12_Lock_policyE2EE10_M_releaseEv
	.p2align 2,,3
.L1271:
	.cfi_def_cfa_offset 208
	.cfi_offset 19, -192
	.cfi_offset 20, -184
	.cfi_offset 23, -160
	.cfi_offset 24, -152
	.cfi_offset 29, -208
	.cfi_offset 30, -200
	ldp	x23, x24, [sp, 48]
	.cfi_restore 24
	.cfi_restore 23
	cbnz	x0, .L1278
.L1232:
	adrp	x0, :got:__stack_chk_guard
	ldr	x0, [x0, #:got_lo12:__stack_chk_guard]
	ldr	x2, [sp, 200]
	ldr	x1, [x0]
	subs	x2, x2, x1
	mov	x1, 0
	bne	.L1275
	ldp	x19, x20, [sp, 16]
	ldp	x29, x30, [sp], 208
	.cfi_remember_state
	.cfi_restore 30
	.cfi_restore 29
	.cfi_restore 19
	.cfi_restore 20
	.cfi_def_cfa_offset 0
	ret
	.p2align 2,,3
.L1272:
	.cfi_restore_state
	ldr	x20, [x19, 16]
	b	.L1234
	.p2align 2,,3
.L1277:
	.cfi_offset 21, -176
	.cfi_offset 22, -168
	.cfi_offset 23, -160
	.cfi_offset 24, -152
	.cfi_offset 25, -144
	mov	x0, x20
	bl	_ZNSt28__atomic_futex_unsigned_base19_M_futex_notify_allEPj
	b	.L1248
	.p2align 2,,3
.L1252:
	.cfi_restore 21
	.cfi_restore 22
	.cfi_restore 23
	.cfi_restore 24
	.cfi_restore 25
	mov	x0, x20
	blr	x1
.L1274:
	ldr	x0, [x19, 8]
	b	.L1237
	.p2align 2,,3
.L1251:
	mov	x0, x20
	blr	x2
	ldr	x0, [x19, 8]
	b	.L1237
	.p2align 2,,3
.L1276:
	.cfi_offset 21, -176
	.cfi_offset 22, -168
	.cfi_offset 23, -160
	.cfi_offset 24, -152
	.cfi_offset 25, -144
	ldp	x2, x3, [x1, 16]
	stp	x2, x3, [sp, 184]
	b	.L1239
.L1275:
	.cfi_restore 21
	.cfi_restore 22
	.cfi_restore 23
	.cfi_restore 24
	.cfi_restore 25
