	.arch armv8-a
	.file	"LinkSession.cpp"
	.text
	.section	.rodata._ZNK4asio6detail15system_category4nameEv.str1.8,"aMS",@progbits,1
	.align	3
.LC0:
	.string	"asio.system"
	.section	.text._ZNK4asio6detail15system_category4nameEv,"axG",@progbits,_ZNK4asio6detail15system_category4nameEv,comdat
	.align	2
	.p2align 4,,11
	.weak	_ZNK4asio6detail15system_category4nameEv
	.type	_ZNK4asio6detail15system_category4nameEv, %function
_ZNK4asio6detail15system_category4nameEv:
.LFB2380:
	.cfi_startproc
	adrp	x0, .LC0
	add	x0, x0, :lo12:.LC0
	ret
	.cfi_endproc
.LFE2380:
	.size	_ZNK4asio6detail15system_category4nameEv, .-_ZNK4asio6detail15system_category4nameEv
	.section	.rodata._ZNK4asio5error6detail14netdb_category4nameEv.str1.8,"aMS",@progbits,1
	.align	3
.LC1:
	.string	"asio.netdb"
	.section	.text._ZNK4asio5error6detail14netdb_category4nameEv,"axG",@progbits,_ZNK4asio5error6detail14netdb_category4nameEv,comdat
	.align	2
	.p2align 4,,11
	.weak	_ZNK4asio5error6detail14netdb_category4nameEv
	.type	_ZNK4asio5error6detail14netdb_category4nameEv, %function
_ZNK4asio5error6detail14netdb_category4nameEv:
.LFB2401:
	.cfi_startproc
	adrp	x0, .LC1
	add	x0, x0, :lo12:.LC1
	ret
	.cfi_endproc
.LFE2401:
	.size	_ZNK4asio5error6detail14netdb_category4nameEv, .-_ZNK4asio5error6detail14netdb_category4nameEv
	.section	.rodata._ZNK4asio5error6detail17addrinfo_category4nameEv.str1.8,"aMS",@progbits,1
	.align	3
.LC2:
	.string	"asio.addrinfo"
	.section	.text._ZNK4asio5error6detail17addrinfo_category4nameEv,"axG",@progbits,_ZNK4asio5error6detail17addrinfo_category4nameEv,comdat
	.align	2
	.p2align 4,,11
	.weak	_ZNK4asio5error6detail17addrinfo_category4nameEv
	.type	_ZNK4asio5error6detail17addrinfo_category4nameEv, %function
_ZNK4asio5error6detail17addrinfo_category4nameEv:
.LFB2407:
	.cfi_startproc
	adrp	x0, .LC2
	add	x0, x0, :lo12:.LC2
	ret
	.cfi_endproc
.LFE2407:
	.size	_ZNK4asio5error6detail17addrinfo_category4nameEv, .-_ZNK4asio5error6detail17addrinfo_category4nameEv
	.section	.rodata._ZNK4asio5error6detail13misc_category4nameEv.str1.8,"aMS",@progbits,1
	.align	3
.LC3:
	.string	"asio.misc"
	.section	.text._ZNK4asio5error6detail13misc_category4nameEv,"axG",@progbits,_ZNK4asio5error6detail13misc_category4nameEv,comdat
	.align	2
	.p2align 4,,11
	.weak	_ZNK4asio5error6detail13misc_category4nameEv
	.type	_ZNK4asio5error6detail13misc_category4nameEv, %function
_ZNK4asio5error6detail13misc_category4nameEv:
.LFB2413:
	.cfi_startproc
	adrp	x0, .LC3
	add	x0, x0, :lo12:.LC3
	ret
	.cfi_endproc
.LFE2413:
	.size	_ZNK4asio5error6detail13misc_category4nameEv, .-_ZNK4asio5error6detail13misc_category4nameEv
	.section	.text._ZN4asio6detail10service_idINS0_13epoll_reactorEED2Ev,"axG",@progbits,_ZN4asio6detail10service_idINS0_13epoll_reactorEED5Ev,comdat
	.align	2
	.p2align 4,,11
	.weak	_ZN4asio6detail10service_idINS0_13epoll_reactorEED2Ev
	.type	_ZN4asio6detail10service_idINS0_13epoll_reactorEED2Ev, %function
_ZN4asio6detail10service_idINS0_13epoll_reactorEED2Ev:
.LFB10554:
	.cfi_startproc
	ret
	.cfi_endproc
.LFE10554:
	.size	_ZN4asio6detail10service_idINS0_13epoll_reactorEED2Ev, .-_ZN4asio6detail10service_idINS0_13epoll_reactorEED2Ev
	.weak	_ZN4asio6detail10service_idINS0_13epoll_reactorEED1Ev
	.set	_ZN4asio6detail10service_idINS0_13epoll_reactorEED1Ev,_ZN4asio6detail10service_idINS0_13epoll_reactorEED2Ev
	.section	.text._ZN4asio6detail10service_idINS0_15task_io_serviceEED2Ev,"axG",@progbits,_ZN4asio6detail10service_idINS0_15task_io_serviceEED5Ev,comdat
	.align	2
	.p2align 4,,11
	.weak	_ZN4asio6detail10service_idINS0_15task_io_serviceEED2Ev
	.type	_ZN4asio6detail10service_idINS0_15task_io_serviceEED2Ev, %function
_ZN4asio6detail10service_idINS0_15task_io_serviceEED2Ev:
.LFB10557:
	.cfi_startproc
	ret
	.cfi_endproc
.LFE10557:
	.size	_ZN4asio6detail10service_idINS0_15task_io_serviceEED2Ev, .-_ZN4asio6detail10service_idINS0_15task_io_serviceEED2Ev
	.weak	_ZN4asio6detail10service_idINS0_15task_io_serviceEED1Ev
	.set	_ZN4asio6detail10service_idINS0_15task_io_serviceEED1Ev,_ZN4asio6detail10service_idINS0_15task_io_serviceEED2Ev
	.section	.text._ZN4asio6detail10service_idINS0_14strand_serviceEED2Ev,"axG",@progbits,_ZN4asio6detail10service_idINS0_14strand_serviceEED5Ev,comdat
	.align	2
	.p2align 4,,11
	.weak	_ZN4asio6detail10service_idINS0_14strand_serviceEED2Ev
	.type	_ZN4asio6detail10service_idINS0_14strand_serviceEED2Ev, %function
_ZN4asio6detail10service_idINS0_14strand_serviceEED2Ev:
.LFB10563:
	.cfi_startproc
	ret
	.cfi_endproc
.LFE10563:
	.size	_ZN4asio6detail10service_idINS0_14strand_serviceEED2Ev, .-_ZN4asio6detail10service_idINS0_14strand_serviceEED2Ev
	.weak	_ZN4asio6detail10service_idINS0_14strand_serviceEED1Ev
	.set	_ZN4asio6detail10service_idINS0_14strand_serviceEED1Ev,_ZN4asio6detail10service_idINS0_14strand_serviceEED2Ev
	.section	.text._ZN4asio6detail7tss_ptrINS0_10call_stackINS0_15task_io_serviceENS0_27task_io_service_thread_infoEE7contextEED2Ev,"axG",@progbits,_ZN4asio6detail7tss_ptrINS0_10call_stackINS0_15task_io_serviceENS0_27task_io_service_thread_infoEE7contextEED5Ev,comdat
	.align	2
	.p2align 4,,11
	.weak	_ZN4asio6detail7tss_ptrINS0_10call_stackINS0_15task_io_serviceENS0_27task_io_service_thread_infoEE7contextEED2Ev
	.type	_ZN4asio6detail7tss_ptrINS0_10call_stackINS0_15task_io_serviceENS0_27task_io_service_thread_infoEE7contextEED2Ev, %function
_ZN4asio6detail7tss_ptrINS0_10call_stackINS0_15task_io_serviceENS0_27task_io_service_thread_infoEE7contextEED2Ev:
.LFB10551:
	.cfi_startproc
	ldr	w0, [x0]
	b	pthread_key_delete
	.cfi_endproc
.LFE10551:
	.size	_ZN4asio6detail7tss_ptrINS0_10call_stackINS0_15task_io_serviceENS0_27task_io_service_thread_infoEE7contextEED2Ev, .-_ZN4asio6detail7tss_ptrINS0_10call_stackINS0_15task_io_serviceENS0_27task_io_service_thread_infoEE7contextEED2Ev
	.weak	_ZN4asio6detail7tss_ptrINS0_10call_stackINS0_15task_io_serviceENS0_27task_io_service_thread_infoEE7contextEED1Ev
	.set	_ZN4asio6detail7tss_ptrINS0_10call_stackINS0_15task_io_serviceENS0_27task_io_service_thread_infoEE7contextEED1Ev,_ZN4asio6detail7tss_ptrINS0_10call_stackINS0_15task_io_serviceENS0_27task_io_service_thread_infoEE7contextEED2Ev
	.section	.text._ZN4asio6detail7tss_ptrINS0_10call_stackINS0_14strand_service11strand_implEhE7contextEED2Ev,"axG",@progbits,_ZN4asio6detail7tss_ptrINS0_10call_stackINS0_14strand_service11strand_implEhE7contextEED5Ev,comdat
	.align	2
	.p2align 4,,11
	.weak	_ZN4asio6detail7tss_ptrINS0_10call_stackINS0_14strand_service11strand_implEhE7contextEED2Ev
	.type	_ZN4asio6detail7tss_ptrINS0_10call_stackINS0_14strand_service11strand_implEhE7contextEED2Ev, %function
_ZN4asio6detail7tss_ptrINS0_10call_stackINS0_14strand_service11strand_implEhE7contextEED2Ev:
.LFB10560:
	.cfi_startproc
	ldr	w0, [x0]
	b	pthread_key_delete
	.cfi_endproc
.LFE10560:
	.size	_ZN4asio6detail7tss_ptrINS0_10call_stackINS0_14strand_service11strand_implEhE7contextEED2Ev, .-_ZN4asio6detail7tss_ptrINS0_10call_stackINS0_14strand_service11strand_implEhE7contextEED2Ev
	.weak	_ZN4asio6detail7tss_ptrINS0_10call_stackINS0_14strand_service11strand_implEhE7contextEED1Ev
	.set	_ZN4asio6detail7tss_ptrINS0_10call_stackINS0_14strand_service11strand_implEhE7contextEED1Ev,_ZN4asio6detail7tss_ptrINS0_10call_stackINS0_14strand_service11strand_implEhE7contextEED2Ev
	.section	.text._ZN4asio6detail15system_categoryD2Ev,"axG",@progbits,_ZN4asio6detail15system_categoryD5Ev,comdat
	.align	2
	.p2align 4,,11
	.weak	_ZN4asio6detail15system_categoryD2Ev
	.type	_ZN4asio6detail15system_categoryD2Ev, %function
_ZN4asio6detail15system_categoryD2Ev:
.LFB10530:
	.cfi_startproc
	adrp	x1, :got:_ZTVN4asio6detail15system_categoryE
	ldr	x1, [x1, #:got_lo12:_ZTVN4asio6detail15system_categoryE]
	add	x1, x1, 16
	str	x1, [x0]
	b	_ZNSt3_V214error_categoryD2Ev
	.cfi_endproc
.LFE10530:
	.size	_ZN4asio6detail15system_categoryD2Ev, .-_ZN4asio6detail15system_categoryD2Ev
	.weak	_ZN4asio6detail15system_categoryD1Ev
	.set	_ZN4asio6detail15system_categoryD1Ev,_ZN4asio6detail15system_categoryD2Ev
	.section	.text._ZN4asio6detail15system_categoryD0Ev,"axG",@progbits,_ZN4asio6detail15system_categoryD5Ev,comdat
	.align	2
	.p2align 4,,11
	.weak	_ZN4asio6detail15system_categoryD0Ev
	.type	_ZN4asio6detail15system_categoryD0Ev, %function
_ZN4asio6detail15system_categoryD0Ev:
.LFB10532:
	.cfi_startproc
	stp	x29, x30, [sp, -32]!
	.cfi_def_cfa_offset 32
	.cfi_offset 29, -32
	.cfi_offset 30, -24
	adrp	x1, :got:_ZTVN4asio6detail15system_categoryE
	mov	x29, sp
	ldr	x1, [x1, #:got_lo12:_ZTVN4asio6detail15system_categoryE]
	str	x19, [sp, 16]
	.cfi_offset 19, -16
	mov	x19, x0
	add	x1, x1, 16
	str	x1, [x0]
	bl	_ZNSt3_V214error_categoryD2Ev
	mov	x0, x19
	mov	x1, 8
	ldr	x19, [sp, 16]
	ldp	x29, x30, [sp], 32
	.cfi_restore 30
	.cfi_restore 29
	.cfi_restore 19
	.cfi_def_cfa_offset 0
	b	_ZdlPvm
	.cfi_endproc
.LFE10532:
	.size	_ZN4asio6detail15system_categoryD0Ev, .-_ZN4asio6detail15system_categoryD0Ev
	.section	.text._ZN4asio5error6detail14netdb_categoryD2Ev,"axG",@progbits,_ZN4asio5error6detail14netdb_categoryD5Ev,comdat
	.align	2
	.p2align 4,,11
	.weak	_ZN4asio5error6detail14netdb_categoryD2Ev
	.type	_ZN4asio5error6detail14netdb_categoryD2Ev, %function
_ZN4asio5error6detail14netdb_categoryD2Ev:
.LFB10526:
	.cfi_startproc
	adrp	x1, :got:_ZTVN4asio5error6detail14netdb_categoryE
	ldr	x1, [x1, #:got_lo12:_ZTVN4asio5error6detail14netdb_categoryE]
	add	x1, x1, 16
	str	x1, [x0]
	b	_ZNSt3_V214error_categoryD2Ev
	.cfi_endproc
.LFE10526:
	.size	_ZN4asio5error6detail14netdb_categoryD2Ev, .-_ZN4asio5error6detail14netdb_categoryD2Ev
	.weak	_ZN4asio5error6detail14netdb_categoryD1Ev
	.set	_ZN4asio5error6detail14netdb_categoryD1Ev,_ZN4asio5error6detail14netdb_categoryD2Ev
	.section	.text._ZN4asio5error6detail14netdb_categoryD0Ev,"axG",@progbits,_ZN4asio5error6detail14netdb_categoryD5Ev,comdat
	.align	2
	.p2align 4,,11
	.weak	_ZN4asio5error6detail14netdb_categoryD0Ev
	.type	_ZN4asio5error6detail14netdb_categoryD0Ev, %function
_ZN4asio5error6detail14netdb_categoryD0Ev:
.LFB10528:
	.cfi_startproc
	stp	x29, x30, [sp, -32]!
	.cfi_def_cfa_offset 32
	.cfi_offset 29, -32
	.cfi_offset 30, -24
	adrp	x1, :got:_ZTVN4asio5error6detail14netdb_categoryE
	mov	x29, sp
	ldr	x1, [x1, #:got_lo12:_ZTVN4asio5error6detail14netdb_categoryE]
	str	x19, [sp, 16]
	.cfi_offset 19, -16
	mov	x19, x0
	add	x1, x1, 16
	str	x1, [x0]
	bl	_ZNSt3_V214error_categoryD2Ev
	mov	x0, x19
	mov	x1, 8
	ldr	x19, [sp, 16]
	ldp	x29, x30, [sp], 32
	.cfi_restore 30
	.cfi_restore 29
	.cfi_restore 19
	.cfi_def_cfa_offset 0
	b	_ZdlPvm
	.cfi_endproc
.LFE10528:
	.size	_ZN4asio5error6detail14netdb_categoryD0Ev, .-_ZN4asio5error6detail14netdb_categoryD0Ev
	.section	.text._ZN4asio5error6detail17addrinfo_categoryD2Ev,"axG",@progbits,_ZN4asio5error6detail17addrinfo_categoryD5Ev,comdat
	.align	2
	.p2align 4,,11
	.weak	_ZN4asio5error6detail17addrinfo_categoryD2Ev
	.type	_ZN4asio5error6detail17addrinfo_categoryD2Ev, %function
_ZN4asio5error6detail17addrinfo_categoryD2Ev:
.LFB10522:
	.cfi_startproc
	adrp	x1, :got:_ZTVN4asio5error6detail17addrinfo_categoryE
	ldr	x1, [x1, #:got_lo12:_ZTVN4asio5error6detail17addrinfo_categoryE]
	add	x1, x1, 16
	str	x1, [x0]
	b	_ZNSt3_V214error_categoryD2Ev
	.cfi_endproc
.LFE10522:
	.size	_ZN4asio5error6detail17addrinfo_categoryD2Ev, .-_ZN4asio5error6detail17addrinfo_categoryD2Ev
	.weak	_ZN4asio5error6detail17addrinfo_categoryD1Ev
	.set	_ZN4asio5error6detail17addrinfo_categoryD1Ev,_ZN4asio5error6detail17addrinfo_categoryD2Ev
	.section	.text._ZN4asio5error6detail17addrinfo_categoryD0Ev,"axG",@progbits,_ZN4asio5error6detail17addrinfo_categoryD5Ev,comdat
	.align	2
	.p2align 4,,11
	.weak	_ZN4asio5error6detail17addrinfo_categoryD0Ev
	.type	_ZN4asio5error6detail17addrinfo_categoryD0Ev, %function
_ZN4asio5error6detail17addrinfo_categoryD0Ev:
.LFB10524:
	.cfi_startproc
	stp	x29, x30, [sp, -32]!
	.cfi_def_cfa_offset 32
	.cfi_offset 29, -32
	.cfi_offset 30, -24
	adrp	x1, :got:_ZTVN4asio5error6detail17addrinfo_categoryE
	mov	x29, sp
	ldr	x1, [x1, #:got_lo12:_ZTVN4asio5error6detail17addrinfo_categoryE]
	str	x19, [sp, 16]
	.cfi_offset 19, -16
	mov	x19, x0
	add	x1, x1, 16
	str	x1, [x0]
	bl	_ZNSt3_V214error_categoryD2Ev
	mov	x0, x19
	mov	x1, 8
	ldr	x19, [sp, 16]
	ldp	x29, x30, [sp], 32
	.cfi_restore 30
	.cfi_restore 29
	.cfi_restore 19
	.cfi_def_cfa_offset 0
	b	_ZdlPvm
	.cfi_endproc
.LFE10524:
	.size	_ZN4asio5error6detail17addrinfo_categoryD0Ev, .-_ZN4asio5error6detail17addrinfo_categoryD0Ev
	.section	.text._ZN4asio5error6detail13misc_categoryD2Ev,"axG",@progbits,_ZN4asio5error6detail13misc_categoryD5Ev,comdat
	.align	2
	.p2align 4,,11
	.weak	_ZN4asio5error6detail13misc_categoryD2Ev
	.type	_ZN4asio5error6detail13misc_categoryD2Ev, %function
_ZN4asio5error6detail13misc_categoryD2Ev:
.LFB10518:
	.cfi_startproc
	adrp	x1, :got:_ZTVN4asio5error6detail13misc_categoryE
	ldr	x1, [x1, #:got_lo12:_ZTVN4asio5error6detail13misc_categoryE]
	add	x1, x1, 16
	str	x1, [x0]
	b	_ZNSt3_V214error_categoryD2Ev
	.cfi_endproc
.LFE10518:
	.size	_ZN4asio5error6detail13misc_categoryD2Ev, .-_ZN4asio5error6detail13misc_categoryD2Ev
	.weak	_ZN4asio5error6detail13misc_categoryD1Ev
	.set	_ZN4asio5error6detail13misc_categoryD1Ev,_ZN4asio5error6detail13misc_categoryD2Ev
	.section	.text._ZN4asio5error6detail13misc_categoryD0Ev,"axG",@progbits,_ZN4asio5error6detail13misc_categoryD5Ev,comdat
	.align	2
	.p2align 4,,11
	.weak	_ZN4asio5error6detail13misc_categoryD0Ev
	.type	_ZN4asio5error6detail13misc_categoryD0Ev, %function
_ZN4asio5error6detail13misc_categoryD0Ev:
.LFB10520:
	.cfi_startproc
	stp	x29, x30, [sp, -32]!
	.cfi_def_cfa_offset 32
	.cfi_offset 29, -32
	.cfi_offset 30, -24
	adrp	x1, :got:_ZTVN4asio5error6detail13misc_categoryE
	mov	x29, sp
	ldr	x1, [x1, #:got_lo12:_ZTVN4asio5error6detail13misc_categoryE]
	str	x19, [sp, 16]
	.cfi_offset 19, -16
	mov	x19, x0
	add	x1, x1, 16
	str	x1, [x0]
	bl	_ZNSt3_V214error_categoryD2Ev
	mov	x0, x19
	mov	x1, 8
	ldr	x19, [sp, 16]
	ldp	x29, x30, [sp], 32
	.cfi_restore 30
	.cfi_restore 29
	.cfi_restore 19
	.cfi_def_cfa_offset 0
	b	_ZdlPvm
	.cfi_endproc
.LFE10520:
	.size	_ZN4asio5error6detail13misc_categoryD0Ev, .-_ZN4asio5error6detail13misc_categoryD0Ev
	.text
	.align	2
	.p2align 4,,11
	.global	_ZN8asiodnp311LinkSession13BeginTransmitERKN7openpal6RSliceERN8opendnp312ILinkSessionE
	.type	_ZN8asiodnp311LinkSession13BeginTransmitERKN7openpal6RSliceERN8opendnp312ILinkSessionE, %function
_ZN8asiodnp311LinkSession13BeginTransmitERKN7openpal6RSliceERN8opendnp312ILinkSessionE:
.LFB7995:
	.cfi_startproc
	ldr	x0, [x0, 136]
	ldr	x2, [x0, 40]
	cbz	x2, .L23
	ldrb	w2, [x0, 56]
	cbnz	w2, .L23
	ldrb	w2, [x0, 58]
	cbnz	w2, .L23
	ldr	x2, [x0]
	mov	w3, 1
	strb	w3, [x0, 58]
	ldr	x2, [x2, 24]
	mov	x16, x2
	br	x16
	.p2align 2,,3
.L23:
	ret
	.cfi_endproc
.LFE7995:
	.size	_ZN8asiodnp311LinkSession13BeginTransmitERKN7openpal6RSliceERN8opendnp312ILinkSessionE, .-_ZN8asiodnp311LinkSession13BeginTransmitERKN7openpal6RSliceERN8opendnp312ILinkSessionE
	.section	.rodata._ZNK4asio6detail15system_category7messageB5cxx11Ei.str1.8,"aMS",@progbits,1
	.align	3
.LC4:
	.string	"Operation aborted."
	.align	3
.LC5:
	.string	"basic_string::_M_construct null not valid"
	.section	.text._ZNK4asio6detail15system_category7messageB5cxx11Ei,"axG",@progbits,_ZNK4asio6detail15system_category7messageB5cxx11Ei,comdat
	.align	2
	.p2align 4,,11
	.weak	_ZNK4asio6detail15system_category7messageB5cxx11Ei
	.type	_ZNK4asio6detail15system_category7messageB5cxx11Ei, %function
_ZNK4asio6detail15system_category7messageB5cxx11Ei:
.LFB2381:
	.cfi_startproc
	stp	x29, x30, [sp, -320]!
	.cfi_def_cfa_offset 320
	.cfi_offset 29, -320
	.cfi_offset 30, -312
	adrp	x0, :got:__stack_chk_guard
	mov	x29, sp
	ldr	x2, [x0, #:got_lo12:__stack_chk_guard]
	stp	x19, x20, [sp, 16]
	mov	w0, w1
	stp	x21, x22, [sp, 32]
	.cfi_offset 19, -304
	.cfi_offset 20, -296
	.cfi_offset 21, -288
	.cfi_offset 22, -280
	mov	x19, x8
	add	x21, x8, 16
	ldr	x1, [x2]
	str	x1, [sp, 312]
	mov	x1, 0
	cmp	w0, 125
	beq	.L43
	movi	v0.4s, 0
	add	x3, sp, 72
	add	x1, sp, 56
	mov	x2, 256
	stp	xzr, xzr, [sp, 56]
	stp	q0, q0, [x3]
	stp	q0, q0, [x3, 32]
	stp	q0, q0, [x3, 64]
	stp	q0, q0, [x3, 96]
	stp	q0, q0, [x3, 128]
	stp	q0, q0, [x3, 160]
	stp	q0, q0, [x3, 192]
	str	q0, [x3, 224]
	bl	strerror_r
	mov	x22, x0
	str	x21, [x19]
	cbz	x0, .L31
	bl	strlen
	str	x0, [sp, 48]
	mov	x20, x0
	cmp	x0, 15
	bhi	.L44
	cmp	x0, 1
	bne	.L35
	ldrb	w0, [x22]
	strb	w0, [x19, 16]
.L36:
	str	x20, [x19, 8]
	strb	wzr, [x21, x20]
.L28:
	adrp	x0, :got:__stack_chk_guard
	ldr	x0, [x0, #:got_lo12:__stack_chk_guard]
	ldr	x2, [sp, 312]
	ldr	x1, [x0]
	subs	x2, x2, x1
	mov	x1, 0
	bne	.L45
	mov	x0, x19
	ldp	x19, x20, [sp, 16]
	ldp	x21, x22, [sp, 32]
	ldp	x29, x30, [sp], 320
	.cfi_remember_state
	.cfi_restore 30
	.cfi_restore 29
	.cfi_restore 21
	.cfi_restore 22
	.cfi_restore 19
	.cfi_restore 20
	.cfi_def_cfa_offset 0
	ret
	.p2align 2,,3
.L44:
	.cfi_restore_state
	add	x1, sp, 48
	mov	x0, x19
	mov	x2, 0
	bl	_ZNSt7__cxx1112basic_stringIcSt11char_traitsIcESaIcEE9_M_createERmm
	mov	x21, x0
	str	x0, [x19]
	ldr	x1, [sp, 48]
	str	x1, [x19, 16]
.L34:
	mov	x2, x20
	mov	x0, x21
	mov	x1, x22
	bl	memcpy
	ldr	x21, [x19]
	ldr	x20, [sp, 48]
	b	.L36
	.p2align 2,,3
.L43:
	mov	x3, 18
	str	x21, [x8]
	add	x1, sp, 48
	mov	x2, 0
	mov	x0, x8
	str	x3, [sp, 48]
	bl	_ZNSt7__cxx1112basic_stringIcSt11char_traitsIcESaIcEE9_M_createERmm
	str	x0, [x19]
	adrp	x1, .LC4
	add	x1, x1, :lo12:.LC4
	ldr	x2, [sp, 48]
	str	x2, [x19, 16]
	ldp	x2, x3, [x1]
	stp	x2, x3, [x0]
	ldrh	w1, [x1, 16]
	strh	w1, [x0, 16]
	ldr	x1, [x19]
	ldr	x0, [sp, 48]
	str	x0, [x19, 8]
	strb	wzr, [x1, x0]
	b	.L28
	.p2align 2,,3
.L35:
	cbz	x0, .L36
	b	.L34
.L31:
	adrp	x0, .LC5
	add	x0, x0, :lo12:.LC5
	bl	_ZSt19__throw_logic_errorPKc
.L45:
	bl	__stack_chk_fail
	.cfi_endproc
.LFE2381:
	.size	_ZNK4asio6detail15system_category7messageB5cxx11Ei, .-_ZNK4asio6detail15system_category7messageB5cxx11Ei
	.section	.rodata._ZNK4asio5error6detail17addrinfo_category7messageB5cxx11Ei.str1.8,"aMS",@progbits,1
	.align	3
.LC6:
	.string	"Service not found"
	.align	3
.LC7:
	.string	"Socket type not supported"
	.align	3
.LC8:
	.string	"asio.addrinfo error"
	.section	.text._ZNK4asio5error6detail17addrinfo_category7messageB5cxx11Ei,"axG",@progbits,_ZNK4asio5error6detail17addrinfo_category7messageB5cxx11Ei,comdat
	.align	2
	.p2align 4,,11
	.weak	_ZNK4asio5error6detail17addrinfo_category7messageB5cxx11Ei
	.type	_ZNK4asio5error6detail17addrinfo_category7messageB5cxx11Ei, %function
_ZNK4asio5error6detail17addrinfo_category7messageB5cxx11Ei:
.LFB2408:
	.cfi_startproc
	stp	x29, x30, [sp, -48]!
	.cfi_def_cfa_offset 48
	.cfi_offset 29, -48
	.cfi_offset 30, -40
	adrp	x0, :got:__stack_chk_guard
	add	x2, x8, 16
	mov	x29, sp
	ldr	x0, [x0, #:got_lo12:__stack_chk_guard]
	str	x19, [sp, 16]
	.cfi_offset 19, -32
	mov	x19, x8
	ldr	x3, [x0]
	str	x3, [sp, 40]
	mov	x3, 0
	str	x2, [x8]
	cmn	w1, #8
	beq	.L52
	cmn	w1, #7
	beq	.L53
	mov	x3, 19
	add	x1, sp, 32
	mov	x2, 0
	mov	x0, x8
	str	x3, [sp, 32]
	bl	_ZNSt7__cxx1112basic_stringIcSt11char_traitsIcESaIcEE9_M_createERmm
	adrp	x1, .LC8
	add	x1, x1, :lo12:.LC8
	ldr	x2, [sp, 32]
	str	x0, [x19]
	str	x2, [x19, 16]
	ldp	x2, x3, [x1]
	stp	x2, x3, [x0]
	ldr	w1, [x1, 15]
	str	w1, [x0, 15]
	ldr	x1, [x19]
	ldr	x0, [sp, 32]
	str	x0, [x19, 8]
	strb	wzr, [x1, x0]
.L46:
	adrp	x0, :got:__stack_chk_guard
	ldr	x0, [x0, #:got_lo12:__stack_chk_guard]
	ldr	x2, [sp, 40]
	ldr	x1, [x0]
	subs	x2, x2, x1
	mov	x1, 0
	bne	.L54
	mov	x0, x19
	ldr	x19, [sp, 16]
	ldp	x29, x30, [sp], 48
	.cfi_remember_state
	.cfi_restore 30
	.cfi_restore 29
	.cfi_restore 19
	.cfi_def_cfa_offset 0
	ret
	.p2align 2,,3
.L53:
	.cfi_restore_state
	mov	x3, 25
	add	x1, sp, 32
	mov	x2, 0
	mov	x0, x8
	str	x3, [sp, 32]
	bl	_ZNSt7__cxx1112basic_stringIcSt11char_traitsIcESaIcEE9_M_createERmm
	adrp	x1, .LC7
	add	x1, x1, :lo12:.LC7
	ldr	x2, [sp, 32]
	str	x0, [x19]
	ldr	q1, [x1]
	str	x2, [x19, 16]
	ldr	q0, [x1, 9]
	str	q1, [x0]
	str	q0, [x0, 9]
	ldr	x1, [x19]
	ldr	x0, [sp, 32]
	str	x0, [x19, 8]
	strb	wzr, [x1, x0]
	b	.L46
	.p2align 2,,3
.L52:
	mov	x3, 17
	add	x1, sp, 32
	mov	x2, 0
	mov	x0, x8
	str	x3, [sp, 32]
	bl	_ZNSt7__cxx1112basic_stringIcSt11char_traitsIcESaIcEE9_M_createERmm
	adrp	x1, .LC6
	add	x1, x1, :lo12:.LC6
	ldr	x2, [sp, 32]
	str	x0, [x19]
	str	x2, [x19, 16]
	ldp	x2, x3, [x1]
	stp	x2, x3, [x0]
	ldrb	w1, [x1, 16]
	strb	w1, [x0, 16]
	ldr	x1, [x19]
	ldr	x0, [sp, 32]
	str	x0, [x19, 8]
	strb	wzr, [x1, x0]
	b	.L46
.L54:
	bl	__stack_chk_fail
	.cfi_endproc
.LFE2408:
	.size	_ZNK4asio5error6detail17addrinfo_category7messageB5cxx11Ei, .-_ZNK4asio5error6detail17addrinfo_category7messageB5cxx11Ei
	.section	.rodata._ZNK4asio5error6detail13misc_category7messageB5cxx11Ei.str1.8,"aMS",@progbits,1
	.align	3
.LC9:
	.string	"Already open"
	.align	3
.LC10:
	.string	"End of file"
	.align	3
.LC11:
	.string	"Element not found"
	.align	3
.LC12:
	.string	"The descriptor does not fit into the select call's fd_set"
	.align	3
.LC13:
	.string	"asio.misc error"
	.section	.text._ZNK4asio5error6detail13misc_category7messageB5cxx11Ei,"axG",@progbits,_ZNK4asio5error6detail13misc_category7messageB5cxx11Ei,comdat
	.align	2
	.p2align 4,,11
	.weak	_ZNK4asio5error6detail13misc_category7messageB5cxx11Ei
	.type	_ZNK4asio5error6detail13misc_category7messageB5cxx11Ei, %function
_ZNK4asio5error6detail13misc_category7messageB5cxx11Ei:
.LFB2414:
	.cfi_startproc
	stp	x29, x30, [sp, -48]!
	.cfi_def_cfa_offset 48
	.cfi_offset 29, -48
	.cfi_offset 30, -40
	adrp	x0, :got:__stack_chk_guard
	add	x2, x8, 16
	mov	x29, sp
	ldr	x0, [x0, #:got_lo12:__stack_chk_guard]
	str	x19, [sp, 16]
	.cfi_offset 19, -32
	mov	x19, x8
	ldr	x3, [x0]
	str	x3, [sp, 40]
	mov	x3, 0
	cmp	w1, 1
	beq	.L63
	cmp	w1, 2
	beq	.L64
	cmp	w1, 3
	beq	.L65
	cmp	w1, 4
	beq	.L66
	adrp	x0, .LC13
	add	x0, x0, :lo12:.LC13
	str	x2, [x8]
	mov	x1, 15
	ldr	x3, [x0]
	str	x3, [x8, 16]
	ldr	x0, [x0, 7]
	str	x0, [x2, 7]
	str	x1, [x8, 8]
	strb	wzr, [x8, 31]
.L55:
	adrp	x0, :got:__stack_chk_guard
	ldr	x0, [x0, #:got_lo12:__stack_chk_guard]
	ldr	x2, [sp, 40]
	ldr	x1, [x0]
	subs	x2, x2, x1
	mov	x1, 0
	bne	.L67
	mov	x0, x19
	ldr	x19, [sp, 16]
	ldp	x29, x30, [sp], 48
	.cfi_remember_state
	.cfi_restore 30
	.cfi_restore 29
	.cfi_restore 19
	.cfi_def_cfa_offset 0
	ret
	.p2align 2,,3
.L63:
	.cfi_restore_state
	adrp	x0, .LC9
	add	x0, x0, :lo12:.LC9
	str	x2, [x8]
	mov	x1, 12
	ldr	x3, [x0]
	str	x3, [x8, 16]
	ldr	w0, [x0, 8]
	str	w0, [x2, 8]
	str	x1, [x8, 8]
	strb	wzr, [x8, 28]
	b	.L55
	.p2align 2,,3
.L66:
	mov	x3, 57
	str	x2, [x8]
	add	x1, sp, 32
	mov	x2, 0
	mov	x0, x8
	str	x3, [sp, 32]
	bl	_ZNSt7__cxx1112basic_stringIcSt11char_traitsIcESaIcEE9_M_createERmm
	str	x0, [x19]
	adrp	x1, .LC12
	add	x1, x1, :lo12:.LC12
	ldr	x2, [sp, 32]
	str	x2, [x19, 16]
	ldr	q3, [x1, 32]
	ldp	q1, q2, [x1]
	ldr	q0, [x1, 41]
	str	q3, [x0, 32]
	stp	q1, q2, [x0]
	str	q0, [x0, 41]
	ldr	x1, [x19]
	ldr	x0, [sp, 32]
	str	x0, [x19, 8]
	strb	wzr, [x1, x0]
	b	.L55
	.p2align 2,,3
.L64:
	adrp	x0, .LC10
	add	x0, x0, :lo12:.LC10
	str	x2, [x8]
	mov	x1, 11
	ldr	x3, [x0]
	str	x3, [x8, 16]
	ldr	w0, [x0, 7]
	str	w0, [x2, 7]
	str	x1, [x8, 8]
	strb	wzr, [x8, 27]
	b	.L55
	.p2align 2,,3
.L65:
	mov	x3, 17
	str	x2, [x8]
	add	x1, sp, 32
	mov	x2, 0
	mov	x0, x8
	str	x3, [sp, 32]
	bl	_ZNSt7__cxx1112basic_stringIcSt11char_traitsIcESaIcEE9_M_createERmm
	str	x0, [x19]
	adrp	x1, .LC11
	add	x1, x1, :lo12:.LC11
	ldr	x2, [sp, 32]
	str	x2, [x19, 16]
	ldp	x2, x3, [x1]
	stp	x2, x3, [x0]
	ldrb	w1, [x1, 16]
	strb	w1, [x0, 16]
	ldr	x1, [x19]
	ldr	x0, [sp, 32]
	str	x0, [x19, 8]
	strb	wzr, [x1, x0]
	b	.L55
.L67:
	bl	__stack_chk_fail
	.cfi_endproc
.LFE2414:
	.size	_ZNK4asio5error6detail13misc_category7messageB5cxx11Ei, .-_ZNK4asio5error6detail13misc_category7messageB5cxx11Ei
	.section	.rodata._ZNK4asio5error6detail14netdb_category7messageB5cxx11Ei.str1.8,"aMS",@progbits,1
	.align	3
.LC14:
	.string	"Host not found (authoritative)"
	.align	3
.LC15:
	.string	"Host not found (non-authoritative), try again later"
	.align	3
.LC16:
	.string	"The query is valid, but it does not have associated data"
	.align	3
.LC17:
	.string	"A non-recoverable error occurred during database lookup"
	.align	3
.LC18:
	.string	"asio.netdb error"
	.section	.text._ZNK4asio5error6detail14netdb_category7messageB5cxx11Ei,"axG",@progbits,_ZNK4asio5error6detail14netdb_category7messageB5cxx11Ei,comdat
	.align	2
	.p2align 4,,11
	.weak	_ZNK4asio5error6detail14netdb_category7messageB5cxx11Ei
	.type	_ZNK4asio5error6detail14netdb_category7messageB5cxx11Ei, %function
_ZNK4asio5error6detail14netdb_category7messageB5cxx11Ei:
.LFB2402:
	.cfi_startproc
	stp	x29, x30, [sp, -48]!
	.cfi_def_cfa_offset 48
	.cfi_offset 29, -48
	.cfi_offset 30, -40
	adrp	x0, :got:__stack_chk_guard
	add	x2, x8, 16
	mov	x29, sp
	ldr	x0, [x0, #:got_lo12:__stack_chk_guard]
	str	x19, [sp, 16]
	.cfi_offset 19, -32
	mov	x19, x8
	ldr	x3, [x0]
	str	x3, [sp, 40]
	mov	x3, 0
	str	x2, [x8]
	cmp	w1, 1
	beq	.L77
	cmp	w1, 2
	beq	.L78
	cmp	w1, 4
	beq	.L79
	cmp	w1, 3
	beq	.L80
	mov	x3, 16
	add	x1, sp, 32
	mov	x2, 0
	mov	x0, x8
	str	x3, [sp, 32]
	bl	_ZNSt7__cxx1112basic_stringIcSt11char_traitsIcESaIcEE9_M_createERmm
	adrp	x1, .LC18
	add	x1, x1, :lo12:.LC18
	ldr	x2, [sp, 32]
	str	x0, [x19]
	str	x2, [x19, 16]
	ldp	x2, x3, [x1]
	stp	x2, x3, [x0]
	ldr	x1, [x19]
	ldr	x0, [sp, 32]
	str	x0, [x19, 8]
	strb	wzr, [x1, x0]
.L68:
	adrp	x0, :got:__stack_chk_guard
	ldr	x0, [x0, #:got_lo12:__stack_chk_guard]
	ldr	x2, [sp, 40]
	ldr	x1, [x0]
	subs	x2, x2, x1
	mov	x1, 0
	bne	.L81
	mov	x0, x19
	ldr	x19, [sp, 16]
	ldp	x29, x30, [sp], 48
	.cfi_remember_state
	.cfi_restore 30
	.cfi_restore 29
	.cfi_restore 19
	.cfi_def_cfa_offset 0
	ret
	.p2align 2,,3
.L77:
	.cfi_restore_state
	mov	x3, 30
	add	x1, sp, 32
	mov	x2, 0
	mov	x0, x8
	str	x3, [sp, 32]
	bl	_ZNSt7__cxx1112basic_stringIcSt11char_traitsIcESaIcEE9_M_createERmm
	adrp	x1, .LC14
	add	x1, x1, :lo12:.LC14
	ldr	x2, [sp, 32]
	str	x0, [x19]
	ldr	q1, [x1]
	str	x2, [x19, 16]
	ldr	q0, [x1, 14]
	str	q1, [x0]
	str	q0, [x0, 14]
	ldr	x1, [x19]
	ldr	x0, [sp, 32]
	str	x0, [x19, 8]
	strb	wzr, [x1, x0]
	b	.L68
	.p2align 2,,3
.L80:
	mov	x3, 55
	add	x1, sp, 32
	mov	x2, 0
	mov	x0, x8
	str	x3, [sp, 32]
	bl	_ZNSt7__cxx1112basic_stringIcSt11char_traitsIcESaIcEE9_M_createERmm
	adrp	x1, .LC17
	add	x1, x1, :lo12:.LC17
	ldr	x2, [sp, 32]
	str	x0, [x19]
	ldr	q2, [x1, 32]
	str	x2, [x19, 16]
	ldp	q0, q1, [x1]
	str	q2, [x0, 32]
	ldr	x1, [x1, 47]
	str	x1, [x0, 47]
.L76:
	stp	q0, q1, [x0]
	ldr	x1, [x19]
	ldr	x0, [sp, 32]
	str	x0, [x19, 8]
	strb	wzr, [x1, x0]
	b	.L68
	.p2align 2,,3
.L78:
	mov	x3, 51
	add	x1, sp, 32
	mov	x2, 0
	mov	x0, x8
	str	x3, [sp, 32]
	bl	_ZNSt7__cxx1112basic_stringIcSt11char_traitsIcESaIcEE9_M_createERmm
	adrp	x1, .LC15
	add	x1, x1, :lo12:.LC15
	ldr	x2, [sp, 32]
	str	x0, [x19]
	ldr	q2, [x1, 32]
	str	x2, [x19, 16]
	ldp	q0, q1, [x1]
	ldr	w1, [x1, 47]
	str	q2, [x0, 32]
	str	w1, [x0, 47]
	b	.L76
	.p2align 2,,3
.L79:
	mov	x3, 56
	add	x1, sp, 32
	mov	x2, 0
	mov	x0, x8
	str	x3, [sp, 32]
	bl	_ZNSt7__cxx1112basic_stringIcSt11char_traitsIcESaIcEE9_M_createERmm
	adrp	x1, .LC16
	add	x1, x1, :lo12:.LC16
	ldr	x2, [sp, 32]
	str	x0, [x19]
	ldp	q1, q2, [x1]
	str	x2, [x19, 16]
	ldr	q0, [x1, 32]
	ldr	x1, [x1, 48]
	str	x1, [x0, 48]
	stp	q1, q2, [x0]
	str	q0, [x0, 32]
	ldr	x1, [x19]
	ldr	x0, [sp, 32]
	str	x0, [x19, 8]
	strb	wzr, [x1, x0]
	b	.L68
.L81:
	bl	__stack_chk_fail
	.cfi_endproc
.LFE2402:
	.size	_ZNK4asio5error6detail14netdb_category7messageB5cxx11Ei, .-_ZNK4asio5error6detail14netdb_category7messageB5cxx11Ei
	.global	__aarch64_ldadd4_acq_rel
	.section	.text._ZN8asiodnp311LinkSessionD2Ev,"axG",@progbits,_ZN8asiodnp311LinkSessionD5Ev,comdat
	.align	2
	.p2align 4,,11
	.weak	_ZThn8_N8asiodnp311LinkSessionD1Ev
	.type	_ZThn8_N8asiodnp311LinkSessionD1Ev, %function
_ZThn8_N8asiodnp311LinkSessionD1Ev:
.LFB10702:
	.cfi_startproc
	stp	x29, x30, [sp, -48]!
	.cfi_def_cfa_offset 48
	.cfi_offset 29, -48
	.cfi_offset 30, -40
	adrp	x1, :got:_ZTVN8asiodnp311LinkSessionE
	mov	x29, sp
	stp	x19, x20, [sp, 16]
	.cfi_offset 19, -32
	.cfi_offset 20, -24
	mov	x19, x0
	ldr	x0, [x1, #:got_lo12:_ZTVN8asiodnp311LinkSessionE]
	mov	x1, x19
	str	x21, [sp, 32]
	.cfi_offset 21, -16
	add	x2, x0, 16
	str	x2, [x19, -8]
	add	x2, x0, 96
	add	x3, x0, 144
	ldr	x21, [x19, 592]
	str	x2, [x1], -8
	add	x2, x0, 184
	add	x0, x0, 224
	str	x3, [x1, 16]
	stp	x2, x0, [x1, 40]
	cbz	x21, .L84
	adrp	x20, :got:__libc_single_threaded
	ldr	x0, [x20, #:got_lo12:__libc_single_threaded]
	ldrb	w0, [x0]
	cbz	w0, .L85
	ldr	w0, [x21, 8]
	sub	w1, w0, #1
	str	w1, [x21, 8]
.L86:
	cmp	w0, 1
	beq	.L145
.L84:
	add	x0, x19, 560
	bl	_ZN7openpal8TimerRefD1Ev
	ldr	x21, [x19, 168]
	cbz	x21, .L91
	adrp	x20, :got:__libc_single_threaded
	ldr	x0, [x20, #:got_lo12:__libc_single_threaded]
	ldrb	w0, [x0]
	cbz	w0, .L92
	ldr	w0, [x21, 8]
	sub	w1, w0, #1
	str	w1, [x21, 8]
.L93:
	cmp	w0, 1
	beq	.L146
.L91:
	ldr	x21, [x19, 152]
	cbz	x21, .L98
	adrp	x20, :got:__libc_single_threaded
	ldr	x0, [x20, #:got_lo12:__libc_single_threaded]
	ldrb	w0, [x0]
	cbz	w0, .L99
	ldr	w0, [x21, 8]
	sub	w1, w0, #1
	str	w1, [x21, 8]
.L100:
	cmp	w0, 1
	beq	.L147
.L98:
	ldr	x21, [x19, 136]
	cbz	x21, .L105
	adrp	x20, :got:__libc_single_threaded
	ldr	x0, [x20, #:got_lo12:__libc_single_threaded]
	ldrb	w0, [x0]
	cbz	w0, .L106
	ldr	w0, [x21, 8]
	sub	w1, w0, #1
	str	w1, [x21, 8]
.L107:
	cmp	w0, 1
	beq	.L148
.L105:
	ldr	x21, [x19, 120]
	cbz	x21, .L112
	adrp	x20, :got:__libc_single_threaded
	ldr	x0, [x20, #:got_lo12:__libc_single_threaded]
	ldrb	w0, [x0]
	cbz	w0, .L113
	ldr	w0, [x21, 8]
	sub	w1, w0, #1
	str	w1, [x21, 8]
.L114:
	cmp	w0, 1
	beq	.L149
.L112:
	ldr	x21, [x19, 104]
	cbz	x21, .L119
	adrp	x20, :got:__libc_single_threaded
	ldr	x0, [x20, #:got_lo12:__libc_single_threaded]
	ldrb	w0, [x0]
	cbz	w0, .L120
	ldr	w0, [x21, 8]
	sub	w1, w0, #1
	str	w1, [x21, 8]
.L121:
	cmp	w0, 1
	beq	.L150
.L119:
	ldr	x21, [x19, 80]
	cbz	x21, .L126
	adrp	x20, :got:__libc_single_threaded
	ldr	x0, [x20, #:got_lo12:__libc_single_threaded]
	ldrb	w0, [x0]
	cbz	w0, .L127
	ldr	w0, [x21, 8]
	sub	w1, w0, #1
	str	w1, [x21, 8]
.L128:
	cmp	w0, 1
	beq	.L151
.L126:
	ldr	x21, [x19, 64]
	cbz	x21, .L133
	adrp	x20, :got:__libc_single_threaded
	ldr	x0, [x20, #:got_lo12:__libc_single_threaded]
	ldrb	w0, [x0]
	cbz	w0, .L134
	ldr	w0, [x21, 8]
	sub	w1, w0, #1
	str	w1, [x21, 8]
.L135:
	cmp	w0, 1
	beq	.L152
.L133:
	ldr	x19, [x19, 24]
	cbz	x19, .L82
	adrp	x0, :got:__libc_single_threaded
	ldr	x0, [x0, #:got_lo12:__libc_single_threaded]
	ldrb	w0, [x0]
	cbz	w0, .L141
	ldr	w0, [x19, 12]
	sub	w1, w0, #1
	str	w1, [x19, 12]
.L142:
	cmp	w0, 1
	beq	.L153
.L82:
	ldp	x19, x20, [sp, 16]
	ldr	x21, [sp, 32]
	ldp	x29, x30, [sp], 48
	.cfi_remember_state
	.cfi_restore 30
	.cfi_restore 29
	.cfi_restore 21
	.cfi_restore 19
	.cfi_restore 20
	.cfi_def_cfa_offset 0
	ret
	.p2align 2,,3
.L145:
	.cfi_restore_state
	ldr	x1, [x21]
	mov	x0, x21
	ldr	x1, [x1, 16]
	blr	x1
	ldr	x20, [x20, #:got_lo12:__libc_single_threaded]
	ldrb	w0, [x20]
	cbz	w0, .L88
	ldr	w0, [x21, 12]
	sub	w1, w0, #1
	str	w1, [x21, 12]
.L89:
	cmp	w0, 1
	bne	.L84
	ldr	x1, [x21]
	mov	x0, x21
	ldr	x1, [x1, 24]
	blr	x1
	b	.L84
	.p2align 2,,3
.L146:
	ldr	x1, [x21]
	mov	x0, x21
	ldr	x1, [x1, 16]
	blr	x1
	ldr	x20, [x20, #:got_lo12:__libc_single_threaded]
	ldrb	w0, [x20]
	cbz	w0, .L95
	ldr	w0, [x21, 12]
	sub	w1, w0, #1
	str	w1, [x21, 12]
.L96:
	cmp	w0, 1
	bne	.L91
	ldr	x1, [x21]
	mov	x0, x21
	ldr	x1, [x1, 24]
	blr	x1
	b	.L91
	.p2align 2,,3
.L147:
	ldr	x1, [x21]
	mov	x0, x21
	ldr	x1, [x1, 16]
	blr	x1
	ldr	x20, [x20, #:got_lo12:__libc_single_threaded]
	ldrb	w0, [x20]
	cbz	w0, .L102
	ldr	w0, [x21, 12]
	sub	w1, w0, #1
	str	w1, [x21, 12]
.L103:
	cmp	w0, 1
	bne	.L98
	ldr	x1, [x21]
	mov	x0, x21
	ldr	x1, [x1, 24]
	blr	x1
	b	.L98
	.p2align 2,,3
.L151:
	ldr	x1, [x21]
	mov	x0, x21
	ldr	x1, [x1, 16]
	blr	x1
	ldr	x20, [x20, #:got_lo12:__libc_single_threaded]
	ldrb	w0, [x20]
	cbz	w0, .L130
	ldr	w0, [x21, 12]
	sub	w1, w0, #1
	str	w1, [x21, 12]
.L131:
	cmp	w0, 1
	bne	.L126
	ldr	x1, [x21]
	mov	x0, x21
	ldr	x1, [x1, 24]
	blr	x1
	b	.L126
	.p2align 2,,3
.L149:
	ldr	x1, [x21]
	mov	x0, x21
	ldr	x1, [x1, 16]
	blr	x1
	ldr	x20, [x20, #:got_lo12:__libc_single_threaded]
	ldrb	w0, [x20]
	cbz	w0, .L116
	ldr	w0, [x21, 12]
	sub	w1, w0, #1
	str	w1, [x21, 12]
.L117:
	cmp	w0, 1
	bne	.L112
	ldr	x1, [x21]
	mov	x0, x21
	ldr	x1, [x1, 24]
	blr	x1
	b	.L112
	.p2align 2,,3
.L153:
	ldr	x1, [x19]
	mov	x0, x19
	ldp	x19, x20, [sp, 16]
	ldr	x21, [sp, 32]
	ldp	x29, x30, [sp], 48
	.cfi_remember_state
	.cfi_restore 30
	.cfi_restore 29
	.cfi_restore 21
	.cfi_restore 19
	.cfi_restore 20
	.cfi_def_cfa_offset 0
	ldr	x1, [x1, 24]
	mov	x16, x1
	br	x16
	.p2align 2,,3
.L148:
	.cfi_restore_state
	ldr	x1, [x21]
	mov	x0, x21
	ldr	x1, [x1, 16]
	blr	x1
	ldr	x20, [x20, #:got_lo12:__libc_single_threaded]
	ldrb	w0, [x20]
	cbz	w0, .L109
	ldr	w0, [x21, 12]
	sub	w1, w0, #1
	str	w1, [x21, 12]
.L110:
	cmp	w0, 1
	bne	.L105
	ldr	x1, [x21]
	mov	x0, x21
	ldr	x1, [x1, 24]
	blr	x1
	b	.L105
	.p2align 2,,3
.L150:
	ldr	x1, [x21]
	mov	x0, x21
	ldr	x1, [x1, 16]
	blr	x1
	ldr	x20, [x20, #:got_lo12:__libc_single_threaded]
	ldrb	w0, [x20]
	cbz	w0, .L123
	ldr	w0, [x21, 12]
	sub	w1, w0, #1
	str	w1, [x21, 12]
.L124:
	cmp	w0, 1
	bne	.L119
	ldr	x1, [x21]
	mov	x0, x21
	ldr	x1, [x1, 24]
	blr	x1
	b	.L119
	.p2align 2,,3
.L152:
	ldr	x1, [x21]
	mov	x0, x21
	ldr	x1, [x1, 16]
	blr	x1
	ldr	x20, [x20, #:got_lo12:__libc_single_threaded]
	ldrb	w0, [x20]
	cbz	w0, .L137
	ldr	w0, [x21, 12]
	sub	w1, w0, #1
	str	w1, [x21, 12]
.L138:
	cmp	w0, 1
	bne	.L133
	ldr	x1, [x21]
	mov	x0, x21
	ldr	x1, [x1, 24]
	blr	x1
	b	.L133
	.p2align 2,,3
.L120:
	add	x1, x21, 8
	mov	w0, -1
	bl	__aarch64_ldadd4_acq_rel
	b	.L121
	.p2align 2,,3
.L113:
	add	x1, x21, 8
	mov	w0, -1
	bl	__aarch64_ldadd4_acq_rel
	b	.L114
	.p2align 2,,3
.L92:
	add	x1, x21, 8
	mov	w0, -1
	bl	__aarch64_ldadd4_acq_rel
	b	.L93
	.p2align 2,,3
.L99:
	add	x1, x21, 8
	mov	w0, -1
	bl	__aarch64_ldadd4_acq_rel
	b	.L100
	.p2align 2,,3
.L106:
	add	x1, x21, 8
	mov	w0, -1
	bl	__aarch64_ldadd4_acq_rel
	b	.L107
	.p2align 2,,3
.L141:
	add	x1, x19, 12
	mov	w0, -1
	bl	__aarch64_ldadd4_acq_rel
	b	.L142
	.p2align 2,,3
.L134:
	add	x1, x21, 8
	mov	w0, -1
	bl	__aarch64_ldadd4_acq_rel
	b	.L135
	.p2align 2,,3
.L85:
	add	x1, x21, 8
	mov	w0, -1
	bl	__aarch64_ldadd4_acq_rel
	b	.L86
	.p2align 2,,3
.L127:
	add	x1, x21, 8
	mov	w0, -1
	bl	__aarch64_ldadd4_acq_rel
	b	.L128
	.p2align 2,,3
.L116:
	add	x1, x21, 12
	mov	w0, -1
	bl	__aarch64_ldadd4_acq_rel
	b	.L117
	.p2align 2,,3
.L137:
	add	x1, x21, 12
	mov	w0, -1
	bl	__aarch64_ldadd4_acq_rel
	b	.L138
	.p2align 2,,3
.L102:
	add	x1, x21, 12
	mov	w0, -1
	bl	__aarch64_ldadd4_acq_rel
	b	.L103
	.p2align 2,,3
.L123:
	add	x1, x21, 12
	mov	w0, -1
	bl	__aarch64_ldadd4_acq_rel
	b	.L124
	.p2align 2,,3
.L88:
	add	x1, x21, 12
	mov	w0, -1
	bl	__aarch64_ldadd4_acq_rel
	b	.L89
	.p2align 2,,3
.L95:
	add	x1, x21, 12
	mov	w0, -1
	bl	__aarch64_ldadd4_acq_rel
	b	.L96
	.p2align 2,,3
.L130:
	add	x1, x21, 12
	mov	w0, -1
	bl	__aarch64_ldadd4_acq_rel
	b	.L131
	.p2align 2,,3
.L109:
	add	x1, x21, 12
	mov	w0, -1
	bl	__aarch64_ldadd4_acq_rel
	b	.L110
	.cfi_endproc
.LFE10702:
	.size	_ZThn8_N8asiodnp311LinkSessionD1Ev, .-_ZThn8_N8asiodnp311LinkSessionD1Ev
	.align	2
	.p2align 4,,11
	.weak	_ZThn48_N8asiodnp311LinkSessionD1Ev
	.type	_ZThn48_N8asiodnp311LinkSessionD1Ev, %function
_ZThn48_N8asiodnp311LinkSessionD1Ev:
.LFB10704:
	.cfi_startproc
	stp	x29, x30, [sp, -48]!
	.cfi_def_cfa_offset 48
	.cfi_offset 29, -48
	.cfi_offset 30, -40
	adrp	x1, :got:_ZTVN8asiodnp311LinkSessionE
	mov	x29, sp
	stp	x19, x20, [sp, 16]
	.cfi_offset 19, -32
	.cfi_offset 20, -24
	mov	x19, x0
	ldr	x0, [x1, #:got_lo12:_ZTVN8asiodnp311LinkSessionE]
	str	x21, [sp, 32]
	.cfi_offset 21, -16
	ldr	x21, [x19, 552]
	add	x2, x0, 16
	add	x4, x0, 96
	add	x3, x0, 144
	stp	x2, x4, [x19, -48]
	add	x2, x0, 184
	add	x0, x0, 224
	str	x3, [x19, -32]
	stp	x2, x0, [x19, -8]
	cbz	x21, .L156
	adrp	x20, :got:__libc_single_threaded
	ldr	x0, [x20, #:got_lo12:__libc_single_threaded]
	ldrb	w0, [x0]
	cbz	w0, .L157
	ldr	w0, [x21, 8]
	sub	w1, w0, #1
	str	w1, [x21, 8]
.L158:
	cmp	w0, 1
	beq	.L217
.L156:
	add	x0, x19, 520
	bl	_ZN7openpal8TimerRefD1Ev
	ldr	x21, [x19, 128]
	cbz	x21, .L163
	adrp	x20, :got:__libc_single_threaded
	ldr	x0, [x20, #:got_lo12:__libc_single_threaded]
	ldrb	w0, [x0]
	cbz	w0, .L164
	ldr	w0, [x21, 8]
	sub	w1, w0, #1
	str	w1, [x21, 8]
.L165:
	cmp	w0, 1
	beq	.L218
.L163:
	ldr	x21, [x19, 112]
	cbz	x21, .L170
	adrp	x20, :got:__libc_single_threaded
	ldr	x0, [x20, #:got_lo12:__libc_single_threaded]
	ldrb	w0, [x0]
	cbz	w0, .L171
	ldr	w0, [x21, 8]
	sub	w1, w0, #1
	str	w1, [x21, 8]
.L172:
	cmp	w0, 1
	beq	.L219
.L170:
	ldr	x21, [x19, 96]
	cbz	x21, .L177
	adrp	x20, :got:__libc_single_threaded
	ldr	x0, [x20, #:got_lo12:__libc_single_threaded]
	ldrb	w0, [x0]
	cbz	w0, .L178
	ldr	w0, [x21, 8]
	sub	w1, w0, #1
	str	w1, [x21, 8]
.L179:
	cmp	w0, 1
	beq	.L220
.L177:
	ldr	x21, [x19, 80]
	cbz	x21, .L184
	adrp	x20, :got:__libc_single_threaded
	ldr	x0, [x20, #:got_lo12:__libc_single_threaded]
	ldrb	w0, [x0]
	cbz	w0, .L185
	ldr	w0, [x21, 8]
	sub	w1, w0, #1
	str	w1, [x21, 8]
.L186:
	cmp	w0, 1
	beq	.L221
.L184:
	ldr	x21, [x19, 64]
	cbz	x21, .L191
	adrp	x20, :got:__libc_single_threaded
	ldr	x0, [x20, #:got_lo12:__libc_single_threaded]
	ldrb	w0, [x0]
	cbz	w0, .L192
	ldr	w0, [x21, 8]
	sub	w1, w0, #1
	str	w1, [x21, 8]
.L193:
	cmp	w0, 1
	beq	.L222
.L191:
	ldr	x21, [x19, 40]
	cbz	x21, .L198
	adrp	x20, :got:__libc_single_threaded
	ldr	x0, [x20, #:got_lo12:__libc_single_threaded]
	ldrb	w0, [x0]
	cbz	w0, .L199
	ldr	w0, [x21, 8]
	sub	w1, w0, #1
	str	w1, [x21, 8]
.L200:
	cmp	w0, 1
	beq	.L223
.L198:
	ldr	x21, [x19, 24]
	cbz	x21, .L205
	adrp	x20, :got:__libc_single_threaded
	ldr	x0, [x20, #:got_lo12:__libc_single_threaded]
	ldrb	w0, [x0]
	cbz	w0, .L206
	ldr	w0, [x21, 8]
	sub	w1, w0, #1
	str	w1, [x21, 8]
.L207:
	cmp	w0, 1
	beq	.L224
.L205:
	ldr	x19, [x19, -16]
	cbz	x19, .L154
	adrp	x0, :got:__libc_single_threaded
	ldr	x0, [x0, #:got_lo12:__libc_single_threaded]
	ldrb	w0, [x0]
	cbz	w0, .L213
	ldr	w0, [x19, 12]
	sub	w1, w0, #1
	str	w1, [x19, 12]
.L214:
	cmp	w0, 1
	beq	.L225
.L154:
	ldp	x19, x20, [sp, 16]
	ldr	x21, [sp, 32]
	ldp	x29, x30, [sp], 48
	.cfi_remember_state
	.cfi_restore 30
	.cfi_restore 29
	.cfi_restore 21
	.cfi_restore 19
	.cfi_restore 20
	.cfi_def_cfa_offset 0
	ret
	.p2align 2,,3
.L217:
	.cfi_restore_state
	ldr	x1, [x21]
	mov	x0, x21
	ldr	x1, [x1, 16]
	blr	x1
	ldr	x20, [x20, #:got_lo12:__libc_single_threaded]
	ldrb	w0, [x20]
	cbz	w0, .L160
	ldr	w0, [x21, 12]
	sub	w1, w0, #1
	str	w1, [x21, 12]
.L161:
	cmp	w0, 1
	bne	.L156
	ldr	x1, [x21]
	mov	x0, x21
	ldr	x1, [x1, 24]
	blr	x1
	b	.L156
	.p2align 2,,3
.L218:
	ldr	x1, [x21]
	mov	x0, x21
	ldr	x1, [x1, 16]
	blr	x1
	ldr	x20, [x20, #:got_lo12:__libc_single_threaded]
	ldrb	w0, [x20]
	cbz	w0, .L167
	ldr	w0, [x21, 12]
	sub	w1, w0, #1
	str	w1, [x21, 12]
.L168:
	cmp	w0, 1
	bne	.L163
	ldr	x1, [x21]
	mov	x0, x21
	ldr	x1, [x1, 24]
	blr	x1
	b	.L163
	.p2align 2,,3
.L219:
	ldr	x1, [x21]
	mov	x0, x21
	ldr	x1, [x1, 16]
	blr	x1
	ldr	x20, [x20, #:got_lo12:__libc_single_threaded]
	ldrb	w0, [x20]
	cbz	w0, .L174
	ldr	w0, [x21, 12]
	sub	w1, w0, #1
	str	w1, [x21, 12]
.L175:
	cmp	w0, 1
	bne	.L170
	ldr	x1, [x21]
	mov	x0, x21
	ldr	x1, [x1, 24]
	blr	x1
	b	.L170
	.p2align 2,,3
.L223:
	ldr	x1, [x21]
	mov	x0, x21
	ldr	x1, [x1, 16]
	blr	x1
	ldr	x20, [x20, #:got_lo12:__libc_single_threaded]
	ldrb	w0, [x20]
	cbz	w0, .L202
	ldr	w0, [x21, 12]
	sub	w1, w0, #1
	str	w1, [x21, 12]
.L203:
	cmp	w0, 1
	bne	.L198
	ldr	x1, [x21]
	mov	x0, x21
	ldr	x1, [x1, 24]
	blr	x1
	b	.L198
	.p2align 2,,3
.L221:
	ldr	x1, [x21]
	mov	x0, x21
	ldr	x1, [x1, 16]
	blr	x1
	ldr	x20, [x20, #:got_lo12:__libc_single_threaded]
	ldrb	w0, [x20]
	cbz	w0, .L188
	ldr	w0, [x21, 12]
	sub	w1, w0, #1
	str	w1, [x21, 12]
.L189:
	cmp	w0, 1
	bne	.L184
	ldr	x1, [x21]
	mov	x0, x21
	ldr	x1, [x1, 24]
	blr	x1
	b	.L184
	.p2align 2,,3
.L225:
	ldr	x1, [x19]
	mov	x0, x19
	ldp	x19, x20, [sp, 16]
	ldr	x21, [sp, 32]
	ldp	x29, x30, [sp], 48
	.cfi_remember_state
	.cfi_restore 30
	.cfi_restore 29
	.cfi_restore 21
	.cfi_restore 19
	.cfi_restore 20
	.cfi_def_cfa_offset 0
	ldr	x1, [x1, 24]
	mov	x16, x1
	br	x16
	.p2align 2,,3
.L220:
	.cfi_restore_state
	ldr	x1, [x21]
	mov	x0, x21
	ldr	x1, [x1, 16]
	blr	x1
	ldr	x20, [x20, #:got_lo12:__libc_single_threaded]
	ldrb	w0, [x20]
	cbz	w0, .L181
	ldr	w0, [x21, 12]
	sub	w1, w0, #1
	str	w1, [x21, 12]
.L182:
	cmp	w0, 1
	bne	.L177
	ldr	x1, [x21]
	mov	x0, x21
	ldr	x1, [x1, 24]
	blr	x1
	b	.L177
	.p2align 2,,3
.L222:
	ldr	x1, [x21]
	mov	x0, x21
	ldr	x1, [x1, 16]
	blr	x1
	ldr	x20, [x20, #:got_lo12:__libc_single_threaded]
	ldrb	w0, [x20]
	cbz	w0, .L195
	ldr	w0, [x21, 12]
	sub	w1, w0, #1
	str	w1, [x21, 12]
.L196:
	cmp	w0, 1
	bne	.L191
	ldr	x1, [x21]
	mov	x0, x21
	ldr	x1, [x1, 24]
	blr	x1
	b	.L191
	.p2align 2,,3
.L224:
	ldr	x1, [x21]
	mov	x0, x21
	ldr	x1, [x1, 16]
	blr	x1
	ldr	x20, [x20, #:got_lo12:__libc_single_threaded]
	ldrb	w0, [x20]
	cbz	w0, .L209
	ldr	w0, [x21, 12]
	sub	w1, w0, #1
	str	w1, [x21, 12]
.L210:
	cmp	w0, 1
	bne	.L205
	ldr	x1, [x21]
	mov	x0, x21
	ldr	x1, [x1, 24]
	blr	x1
	b	.L205
	.p2align 2,,3
.L192:
	add	x1, x21, 8
	mov	w0, -1
	bl	__aarch64_ldadd4_acq_rel
	b	.L193
	.p2align 2,,3
.L185:
	add	x1, x21, 8
	mov	w0, -1
	bl	__aarch64_ldadd4_acq_rel
	b	.L186
	.p2align 2,,3
.L164:
	add	x1, x21, 8
	mov	w0, -1
	bl	__aarch64_ldadd4_acq_rel
	b	.L165
	.p2align 2,,3
.L171:
	add	x1, x21, 8
	mov	w0, -1
	bl	__aarch64_ldadd4_acq_rel
	b	.L172
	.p2align 2,,3
.L178:
	add	x1, x21, 8
	mov	w0, -1
	bl	__aarch64_ldadd4_acq_rel
	b	.L179
	.p2align 2,,3
.L213:
	add	x1, x19, 12
	mov	w0, -1
	bl	__aarch64_ldadd4_acq_rel
	b	.L214
	.p2align 2,,3
.L206:
	add	x1, x21, 8
	mov	w0, -1
	bl	__aarch64_ldadd4_acq_rel
	b	.L207
	.p2align 2,,3
.L157:
	add	x1, x21, 8
	mov	w0, -1
	bl	__aarch64_ldadd4_acq_rel
	b	.L158
	.p2align 2,,3
.L199:
	add	x1, x21, 8
	mov	w0, -1
	bl	__aarch64_ldadd4_acq_rel
	b	.L200
	.p2align 2,,3
.L188:
	add	x1, x21, 12
	mov	w0, -1
	bl	__aarch64_ldadd4_acq_rel
	b	.L189
	.p2align 2,,3
.L209:
	add	x1, x21, 12
	mov	w0, -1
	bl	__aarch64_ldadd4_acq_rel
	b	.L210
	.p2align 2,,3
.L174:
	add	x1, x21, 12
	mov	w0, -1
	bl	__aarch64_ldadd4_acq_rel
	b	.L175
	.p2align 2,,3
.L195:
	add	x1, x21, 12
	mov	w0, -1
	bl	__aarch64_ldadd4_acq_rel
	b	.L196
	.p2align 2,,3
.L160:
	add	x1, x21, 12
	mov	w0, -1
	bl	__aarch64_ldadd4_acq_rel
	b	.L161
	.p2align 2,,3
.L167:
	add	x1, x21, 12
	mov	w0, -1
	bl	__aarch64_ldadd4_acq_rel
	b	.L168
	.p2align 2,,3
.L202:
	add	x1, x21, 12
	mov	w0, -1
	bl	__aarch64_ldadd4_acq_rel
	b	.L203
	.p2align 2,,3
.L181:
	add	x1, x21, 12
	mov	w0, -1
	bl	__aarch64_ldadd4_acq_rel
	b	.L182
	.cfi_endproc
.LFE10704:
	.size	_ZThn48_N8asiodnp311LinkSessionD1Ev, .-_ZThn48_N8asiodnp311LinkSessionD1Ev
	.align	2
	.p2align 4,,11
	.weak	_ZThn16_N8asiodnp311LinkSessionD1Ev
	.type	_ZThn16_N8asiodnp311LinkSessionD1Ev, %function
_ZThn16_N8asiodnp311LinkSessionD1Ev:
.LFB10703:
	.cfi_startproc
	stp	x29, x30, [sp, -48]!
	.cfi_def_cfa_offset 48
	.cfi_offset 29, -48
	.cfi_offset 30, -40
	adrp	x1, :got:_ZTVN8asiodnp311LinkSessionE
	mov	x29, sp
	stp	x19, x20, [sp, 16]
	.cfi_offset 19, -32
	.cfi_offset 20, -24
	mov	x19, x0
	ldr	x0, [x1, #:got_lo12:_ZTVN8asiodnp311LinkSessionE]
	str	x21, [sp, 32]
	.cfi_offset 21, -16
	ldr	x21, [x19, 584]
	add	x2, x0, 16
	add	x4, x0, 96
	add	x3, x0, 144
	stp	x2, x4, [x19, -16]
	add	x2, x0, 184
	add	x0, x0, 224
	str	x3, [x19]
	stp	x2, x0, [x19, 24]
	cbz	x21, .L228
	adrp	x20, :got:__libc_single_threaded
	ldr	x0, [x20, #:got_lo12:__libc_single_threaded]
	ldrb	w0, [x0]
	cbz	w0, .L229
	ldr	w0, [x21, 8]
	sub	w1, w0, #1
	str	w1, [x21, 8]
.L230:
	cmp	w0, 1
	beq	.L289
.L228:
	add	x0, x19, 552
	bl	_ZN7openpal8TimerRefD1Ev
	ldr	x21, [x19, 160]
	cbz	x21, .L235
	adrp	x20, :got:__libc_single_threaded
	ldr	x0, [x20, #:got_lo12:__libc_single_threaded]
	ldrb	w0, [x0]
	cbz	w0, .L236
	ldr	w0, [x21, 8]
	sub	w1, w0, #1
	str	w1, [x21, 8]
.L237:
	cmp	w0, 1
	beq	.L290
.L235:
	ldr	x21, [x19, 144]
	cbz	x21, .L242
	adrp	x20, :got:__libc_single_threaded
	ldr	x0, [x20, #:got_lo12:__libc_single_threaded]
	ldrb	w0, [x0]
	cbz	w0, .L243
	ldr	w0, [x21, 8]
	sub	w1, w0, #1
	str	w1, [x21, 8]
.L244:
	cmp	w0, 1
	beq	.L291
.L242:
	ldr	x21, [x19, 128]
	cbz	x21, .L249
	adrp	x20, :got:__libc_single_threaded
	ldr	x0, [x20, #:got_lo12:__libc_single_threaded]
	ldrb	w0, [x0]
	cbz	w0, .L250
	ldr	w0, [x21, 8]
	sub	w1, w0, #1
	str	w1, [x21, 8]
.L251:
	cmp	w0, 1
	beq	.L292
.L249:
	ldr	x21, [x19, 112]
	cbz	x21, .L256
	adrp	x20, :got:__libc_single_threaded
	ldr	x0, [x20, #:got_lo12:__libc_single_threaded]
	ldrb	w0, [x0]
	cbz	w0, .L257
	ldr	w0, [x21, 8]
	sub	w1, w0, #1
	str	w1, [x21, 8]
.L258:
	cmp	w0, 1
	beq	.L293
.L256:
	ldr	x21, [x19, 96]
	cbz	x21, .L263
	adrp	x20, :got:__libc_single_threaded
	ldr	x0, [x20, #:got_lo12:__libc_single_threaded]
	ldrb	w0, [x0]
	cbz	w0, .L264
	ldr	w0, [x21, 8]
	sub	w1, w0, #1
	str	w1, [x21, 8]
.L265:
	cmp	w0, 1
	beq	.L294
.L263:
	ldr	x21, [x19, 72]
	cbz	x21, .L270
	adrp	x20, :got:__libc_single_threaded
	ldr	x0, [x20, #:got_lo12:__libc_single_threaded]
	ldrb	w0, [x0]
	cbz	w0, .L271
	ldr	w0, [x21, 8]
	sub	w1, w0, #1
	str	w1, [x21, 8]
.L272:
	cmp	w0, 1
	beq	.L295
.L270:
	ldr	x21, [x19, 56]
	cbz	x21, .L277
	adrp	x20, :got:__libc_single_threaded
	ldr	x0, [x20, #:got_lo12:__libc_single_threaded]
	ldrb	w0, [x0]
	cbz	w0, .L278
	ldr	w0, [x21, 8]
	sub	w1, w0, #1
	str	w1, [x21, 8]
.L279:
	cmp	w0, 1
	beq	.L296
.L277:
	ldr	x19, [x19, 16]
	cbz	x19, .L226
	adrp	x0, :got:__libc_single_threaded
	ldr	x0, [x0, #:got_lo12:__libc_single_threaded]
	ldrb	w0, [x0]
	cbz	w0, .L285
	ldr	w0, [x19, 12]
	sub	w1, w0, #1
	str	w1, [x19, 12]
.L286:
	cmp	w0, 1
	beq	.L297
.L226:
	ldp	x19, x20, [sp, 16]
	ldr	x21, [sp, 32]
	ldp	x29, x30, [sp], 48
	.cfi_remember_state
	.cfi_restore 30
	.cfi_restore 29
	.cfi_restore 21
	.cfi_restore 19
	.cfi_restore 20
	.cfi_def_cfa_offset 0
	ret
	.p2align 2,,3
.L289:
	.cfi_restore_state
	ldr	x1, [x21]
	mov	x0, x21
	ldr	x1, [x1, 16]
	blr	x1
	ldr	x20, [x20, #:got_lo12:__libc_single_threaded]
	ldrb	w0, [x20]
	cbz	w0, .L232
	ldr	w0, [x21, 12]
	sub	w1, w0, #1
	str	w1, [x21, 12]
.L233:
	cmp	w0, 1
	bne	.L228
	ldr	x1, [x21]
	mov	x0, x21
	ldr	x1, [x1, 24]
	blr	x1
	b	.L228
	.p2align 2,,3
.L290:
	ldr	x1, [x21]
	mov	x0, x21
	ldr	x1, [x1, 16]
	blr	x1
	ldr	x20, [x20, #:got_lo12:__libc_single_threaded]
	ldrb	w0, [x20]
	cbz	w0, .L239
	ldr	w0, [x21, 12]
	sub	w1, w0, #1
	str	w1, [x21, 12]
.L240:
	cmp	w0, 1
	bne	.L235
	ldr	x1, [x21]
	mov	x0, x21
	ldr	x1, [x1, 24]
	blr	x1
	b	.L235
	.p2align 2,,3
.L291:
	ldr	x1, [x21]
	mov	x0, x21
	ldr	x1, [x1, 16]
	blr	x1
	ldr	x20, [x20, #:got_lo12:__libc_single_threaded]
	ldrb	w0, [x20]
	cbz	w0, .L246
	ldr	w0, [x21, 12]
	sub	w1, w0, #1
	str	w1, [x21, 12]
.L247:
	cmp	w0, 1
	bne	.L242
	ldr	x1, [x21]
	mov	x0, x21
	ldr	x1, [x1, 24]
	blr	x1
	b	.L242
	.p2align 2,,3
.L295:
	ldr	x1, [x21]
	mov	x0, x21
	ldr	x1, [x1, 16]
	blr	x1
	ldr	x20, [x20, #:got_lo12:__libc_single_threaded]
	ldrb	w0, [x20]
	cbz	w0, .L274
	ldr	w0, [x21, 12]
	sub	w1, w0, #1
	str	w1, [x21, 12]
.L275:
	cmp	w0, 1
	bne	.L270
	ldr	x1, [x21]
	mov	x0, x21
	ldr	x1, [x1, 24]
	blr	x1
	b	.L270
	.p2align 2,,3
.L293:
	ldr	x1, [x21]
	mov	x0, x21
	ldr	x1, [x1, 16]
	blr	x1
	ldr	x20, [x20, #:got_lo12:__libc_single_threaded]
	ldrb	w0, [x20]
	cbz	w0, .L260
	ldr	w0, [x21, 12]
	sub	w1, w0, #1
	str	w1, [x21, 12]
.L261:
	cmp	w0, 1
	bne	.L256
	ldr	x1, [x21]
	mov	x0, x21
	ldr	x1, [x1, 24]
	blr	x1
	b	.L256
	.p2align 2,,3
.L297:
	ldr	x1, [x19]
	mov	x0, x19
	ldp	x19, x20, [sp, 16]
	ldr	x21, [sp, 32]
	ldp	x29, x30, [sp], 48
	.cfi_remember_state
	.cfi_restore 30
	.cfi_restore 29
	.cfi_restore 21
	.cfi_restore 19
	.cfi_restore 20
	.cfi_def_cfa_offset 0
	ldr	x1, [x1, 24]
	mov	x16, x1
	br	x16
	.p2align 2,,3
.L292:
	.cfi_restore_state
	ldr	x1, [x21]
	mov	x0, x21
	ldr	x1, [x1, 16]
	blr	x1
	ldr	x20, [x20, #:got_lo12:__libc_single_threaded]
	ldrb	w0, [x20]
	cbz	w0, .L253
	ldr	w0, [x21, 12]
	sub	w1, w0, #1
	str	w1, [x21, 12]
.L254:
	cmp	w0, 1
	bne	.L249
	ldr	x1, [x21]
	mov	x0, x21
	ldr	x1, [x1, 24]
	blr	x1
	b	.L249
	.p2align 2,,3
.L294:
	ldr	x1, [x21]
	mov	x0, x21
	ldr	x1, [x1, 16]
	blr	x1
	ldr	x20, [x20, #:got_lo12:__libc_single_threaded]
	ldrb	w0, [x20]
	cbz	w0, .L267
	ldr	w0, [x21, 12]
	sub	w1, w0, #1
	str	w1, [x21, 12]
.L268:
	cmp	w0, 1
	bne	.L263
	ldr	x1, [x21]
	mov	x0, x21
	ldr	x1, [x1, 24]
	blr	x1
	b	.L263
	.p2align 2,,3
.L296:
	ldr	x1, [x21]
	mov	x0, x21
	ldr	x1, [x1, 16]
	blr	x1
	ldr	x20, [x20, #:got_lo12:__libc_single_threaded]
	ldrb	w0, [x20]
	cbz	w0, .L281
	ldr	w0, [x21, 12]
	sub	w1, w0, #1
	str	w1, [x21, 12]
.L282:
	cmp	w0, 1
	bne	.L277
	ldr	x1, [x21]
	mov	x0, x21
	ldr	x1, [x1, 24]
	blr	x1
	b	.L277
	.p2align 2,,3
.L264:
	add	x1, x21, 8
	mov	w0, -1
	bl	__aarch64_ldadd4_acq_rel
	b	.L265
	.p2align 2,,3
.L257:
	add	x1, x21, 8
	mov	w0, -1
	bl	__aarch64_ldadd4_acq_rel
	b	.L258
	.p2align 2,,3
.L236:
	add	x1, x21, 8
	mov	w0, -1
	bl	__aarch64_ldadd4_acq_rel
	b	.L237
	.p2align 2,,3
.L243:
	add	x1, x21, 8
	mov	w0, -1
	bl	__aarch64_ldadd4_acq_rel
	b	.L244
	.p2align 2,,3
.L250:
	add	x1, x21, 8
	mov	w0, -1
	bl	__aarch64_ldadd4_acq_rel
	b	.L251
	.p2align 2,,3
.L285:
	add	x1, x19, 12
	mov	w0, -1
	bl	__aarch64_ldadd4_acq_rel
	b	.L286
	.p2align 2,,3
.L278:
	add	x1, x21, 8
	mov	w0, -1
	bl	__aarch64_ldadd4_acq_rel
	b	.L279
	.p2align 2,,3
.L229:
	add	x1, x21, 8
	mov	w0, -1
	bl	__aarch64_ldadd4_acq_rel
	b	.L230
	.p2align 2,,3
.L271:
	add	x1, x21, 8
	mov	w0, -1
	bl	__aarch64_ldadd4_acq_rel
	b	.L272
	.p2align 2,,3
.L260:
	add	x1, x21, 12
	mov	w0, -1
	bl	__aarch64_ldadd4_acq_rel
	b	.L261
	.p2align 2,,3
.L281:
	add	x1, x21, 12
	mov	w0, -1
	bl	__aarch64_ldadd4_acq_rel
	b	.L282
	.p2align 2,,3
.L246:
	add	x1, x21, 12
	mov	w0, -1
	bl	__aarch64_ldadd4_acq_rel
	b	.L247
	.p2align 2,,3
.L267:
	add	x1, x21, 12
	mov	w0, -1
	bl	__aarch64_ldadd4_acq_rel
	b	.L268
	.p2align 2,,3
.L232:
	add	x1, x21, 12
	mov	w0, -1
	bl	__aarch64_ldadd4_acq_rel
	b	.L233
	.p2align 2,,3
.L239:
	add	x1, x21, 12
	mov	w0, -1
	bl	__aarch64_ldadd4_acq_rel
	b	.L240
	.p2align 2,,3
.L274:
	add	x1, x21, 12
	mov	w0, -1
	bl	__aarch64_ldadd4_acq_rel
	b	.L275
	.p2align 2,,3
.L253:
	add	x1, x21, 12
	mov	w0, -1
	bl	__aarch64_ldadd4_acq_rel
	b	.L254
	.cfi_endproc
.LFE10703:
	.size	_ZThn16_N8asiodnp311LinkSessionD1Ev, .-_ZThn16_N8asiodnp311LinkSessionD1Ev
	.align	2
	.p2align 4,,11
	.weak	_ZThn40_N8asiodnp311LinkSessionD1Ev
	.type	_ZThn40_N8asiodnp311LinkSessionD1Ev, %function
_ZThn40_N8asiodnp311LinkSessionD1Ev:
.LFB10701:
	.cfi_startproc
	stp	x29, x30, [sp, -48]!
	.cfi_def_cfa_offset 48
	.cfi_offset 29, -48
	.cfi_offset 30, -40
	adrp	x1, :got:_ZTVN8asiodnp311LinkSessionE
	mov	x29, sp
	stp	x19, x20, [sp, 16]
	.cfi_offset 19, -32
	.cfi_offset 20, -24
	mov	x19, x0
	ldr	x0, [x1, #:got_lo12:_ZTVN8asiodnp311LinkSessionE]
	str	x21, [sp, 32]
	.cfi_offset 21, -16
	ldr	x21, [x19, 560]
	add	x2, x0, 16
	add	x4, x0, 96
	add	x3, x0, 144
	stp	x2, x4, [x19, -40]
	add	x2, x0, 184
	add	x0, x0, 224
	str	x3, [x19, -24]
	stp	x2, x0, [x19]
	cbz	x21, .L300
	adrp	x20, :got:__libc_single_threaded
	ldr	x0, [x20, #:got_lo12:__libc_single_threaded]
	ldrb	w0, [x0]
	cbz	w0, .L301
	ldr	w0, [x21, 8]
	sub	w1, w0, #1
	str	w1, [x21, 8]
.L302:
	cmp	w0, 1
	beq	.L361
.L300:
	add	x0, x19, 528
	bl	_ZN7openpal8TimerRefD1Ev
	ldr	x21, [x19, 136]
	cbz	x21, .L307
	adrp	x20, :got:__libc_single_threaded
	ldr	x0, [x20, #:got_lo12:__libc_single_threaded]
	ldrb	w0, [x0]
	cbz	w0, .L308
	ldr	w0, [x21, 8]
	sub	w1, w0, #1
	str	w1, [x21, 8]
.L309:
	cmp	w0, 1
	beq	.L362
.L307:
	ldr	x21, [x19, 120]
	cbz	x21, .L314
	adrp	x20, :got:__libc_single_threaded
	ldr	x0, [x20, #:got_lo12:__libc_single_threaded]
	ldrb	w0, [x0]
	cbz	w0, .L315
	ldr	w0, [x21, 8]
	sub	w1, w0, #1
	str	w1, [x21, 8]
.L316:
	cmp	w0, 1
	beq	.L363
.L314:
	ldr	x21, [x19, 104]
	cbz	x21, .L321
	adrp	x20, :got:__libc_single_threaded
	ldr	x0, [x20, #:got_lo12:__libc_single_threaded]
	ldrb	w0, [x0]
	cbz	w0, .L322
	ldr	w0, [x21, 8]
	sub	w1, w0, #1
	str	w1, [x21, 8]
.L323:
	cmp	w0, 1
	beq	.L364
.L321:
	ldr	x21, [x19, 88]
	cbz	x21, .L328
	adrp	x20, :got:__libc_single_threaded
	ldr	x0, [x20, #:got_lo12:__libc_single_threaded]
	ldrb	w0, [x0]
	cbz	w0, .L329
	ldr	w0, [x21, 8]
	sub	w1, w0, #1
	str	w1, [x21, 8]
.L330:
	cmp	w0, 1
	beq	.L365
.L328:
	ldr	x21, [x19, 72]
	cbz	x21, .L335
	adrp	x20, :got:__libc_single_threaded
	ldr	x0, [x20, #:got_lo12:__libc_single_threaded]
	ldrb	w0, [x0]
	cbz	w0, .L336
	ldr	w0, [x21, 8]
	sub	w1, w0, #1
	str	w1, [x21, 8]
.L337:
	cmp	w0, 1
	beq	.L366
.L335:
	ldr	x21, [x19, 48]
	cbz	x21, .L342
	adrp	x20, :got:__libc_single_threaded
	ldr	x0, [x20, #:got_lo12:__libc_single_threaded]
	ldrb	w0, [x0]
	cbz	w0, .L343
	ldr	w0, [x21, 8]
	sub	w1, w0, #1
	str	w1, [x21, 8]
.L344:
	cmp	w0, 1
	beq	.L367
.L342:
	ldr	x21, [x19, 32]
	cbz	x21, .L349
	adrp	x20, :got:__libc_single_threaded
	ldr	x0, [x20, #:got_lo12:__libc_single_threaded]
	ldrb	w0, [x0]
	cbz	w0, .L350
	ldr	w0, [x21, 8]
	sub	w1, w0, #1
	str	w1, [x21, 8]
.L351:
	cmp	w0, 1
	beq	.L368
.L349:
	ldr	x19, [x19, -8]
	cbz	x19, .L298
	adrp	x0, :got:__libc_single_threaded
	ldr	x0, [x0, #:got_lo12:__libc_single_threaded]
	ldrb	w0, [x0]
	cbz	w0, .L357
	ldr	w0, [x19, 12]
	sub	w1, w0, #1
	str	w1, [x19, 12]
.L358:
	cmp	w0, 1
	beq	.L369
.L298:
	ldp	x19, x20, [sp, 16]
	ldr	x21, [sp, 32]
	ldp	x29, x30, [sp], 48
	.cfi_remember_state
	.cfi_restore 30
	.cfi_restore 29
	.cfi_restore 21
	.cfi_restore 19
	.cfi_restore 20
	.cfi_def_cfa_offset 0
	ret
	.p2align 2,,3
.L361:
	.cfi_restore_state
	ldr	x1, [x21]
	mov	x0, x21
	ldr	x1, [x1, 16]
	blr	x1
	ldr	x20, [x20, #:got_lo12:__libc_single_threaded]
	ldrb	w0, [x20]
	cbz	w0, .L304
	ldr	w0, [x21, 12]
	sub	w1, w0, #1
	str	w1, [x21, 12]
.L305:
	cmp	w0, 1
	bne	.L300
	ldr	x1, [x21]
	mov	x0, x21
	ldr	x1, [x1, 24]
	blr	x1
	b	.L300
	.p2align 2,,3
.L362:
	ldr	x1, [x21]
	mov	x0, x21
	ldr	x1, [x1, 16]
	blr	x1
	ldr	x20, [x20, #:got_lo12:__libc_single_threaded]
	ldrb	w0, [x20]
	cbz	w0, .L311
	ldr	w0, [x21, 12]
	sub	w1, w0, #1
	str	w1, [x21, 12]
.L312:
	cmp	w0, 1
	bne	.L307
	ldr	x1, [x21]
	mov	x0, x21
	ldr	x1, [x1, 24]
	blr	x1
	b	.L307
	.p2align 2,,3
.L363:
	ldr	x1, [x21]
	mov	x0, x21
	ldr	x1, [x1, 16]
	blr	x1
	ldr	x20, [x20, #:got_lo12:__libc_single_threaded]
	ldrb	w0, [x20]
	cbz	w0, .L318
	ldr	w0, [x21, 12]
	sub	w1, w0, #1
	str	w1, [x21, 12]
.L319:
	cmp	w0, 1
	bne	.L314
	ldr	x1, [x21]
	mov	x0, x21
	ldr	x1, [x1, 24]
	blr	x1
	b	.L314
	.p2align 2,,3
.L367:
	ldr	x1, [x21]
	mov	x0, x21
	ldr	x1, [x1, 16]
	blr	x1
	ldr	x20, [x20, #:got_lo12:__libc_single_threaded]
	ldrb	w0, [x20]
	cbz	w0, .L346
	ldr	w0, [x21, 12]
	sub	w1, w0, #1
	str	w1, [x21, 12]
.L347:
	cmp	w0, 1
	bne	.L342
	ldr	x1, [x21]
	mov	x0, x21
	ldr	x1, [x1, 24]
	blr	x1
	b	.L342
	.p2align 2,,3
.L365:
	ldr	x1, [x21]
	mov	x0, x21
	ldr	x1, [x1, 16]
	blr	x1
	ldr	x20, [x20, #:got_lo12:__libc_single_threaded]
	ldrb	w0, [x20]
	cbz	w0, .L332
	ldr	w0, [x21, 12]
	sub	w1, w0, #1
	str	w1, [x21, 12]
.L333:
	cmp	w0, 1
	bne	.L328
	ldr	x1, [x21]
	mov	x0, x21
	ldr	x1, [x1, 24]
	blr	x1
	b	.L328
	.p2align 2,,3
.L369:
	ldr	x1, [x19]
	mov	x0, x19
	ldp	x19, x20, [sp, 16]
	ldr	x21, [sp, 32]
	ldp	x29, x30, [sp], 48
	.cfi_remember_state
	.cfi_restore 30
	.cfi_restore 29
	.cfi_restore 21
	.cfi_restore 19
	.cfi_restore 20
	.cfi_def_cfa_offset 0
	ldr	x1, [x1, 24]
	mov	x16, x1
	br	x16
	.p2align 2,,3
.L364:
	.cfi_restore_state
	ldr	x1, [x21]
	mov	x0, x21
	ldr	x1, [x1, 16]
	blr	x1
	ldr	x20, [x20, #:got_lo12:__libc_single_threaded]
	ldrb	w0, [x20]
	cbz	w0, .L325
	ldr	w0, [x21, 12]
	sub	w1, w0, #1
	str	w1, [x21, 12]
.L326:
	cmp	w0, 1
	bne	.L321
	ldr	x1, [x21]
	mov	x0, x21
	ldr	x1, [x1, 24]
	blr	x1
	b	.L321
	.p2align 2,,3
.L366:
	ldr	x1, [x21]
	mov	x0, x21
	ldr	x1, [x1, 16]
	blr	x1
	ldr	x20, [x20, #:got_lo12:__libc_single_threaded]
	ldrb	w0, [x20]
	cbz	w0, .L339
	ldr	w0, [x21, 12]
	sub	w1, w0, #1
	str	w1, [x21, 12]
.L340:
	cmp	w0, 1
	bne	.L335
	ldr	x1, [x21]
	mov	x0, x21
	ldr	x1, [x1, 24]
	blr	x1
	b	.L335
	.p2align 2,,3
.L368:
	ldr	x1, [x21]
	mov	x0, x21
	ldr	x1, [x1, 16]
	blr	x1
	ldr	x20, [x20, #:got_lo12:__libc_single_threaded]
	ldrb	w0, [x20]
	cbz	w0, .L353
	ldr	w0, [x21, 12]
	sub	w1, w0, #1
	str	w1, [x21, 12]
.L354:
	cmp	w0, 1
	bne	.L349
	ldr	x1, [x21]
	mov	x0, x21
	ldr	x1, [x1, 24]
	blr	x1
	b	.L349
	.p2align 2,,3
.L336:
	add	x1, x21, 8
	mov	w0, -1
	bl	__aarch64_ldadd4_acq_rel
	b	.L337
	.p2align 2,,3
.L329:
	add	x1, x21, 8
	mov	w0, -1
	bl	__aarch64_ldadd4_acq_rel
	b	.L330
	.p2align 2,,3
.L308:
	add	x1, x21, 8
	mov	w0, -1
	bl	__aarch64_ldadd4_acq_rel
	b	.L309
	.p2align 2,,3
.L315:
	add	x1, x21, 8
	mov	w0, -1
	bl	__aarch64_ldadd4_acq_rel
	b	.L316
	.p2align 2,,3
.L322:
	add	x1, x21, 8
	mov	w0, -1
	bl	__aarch64_ldadd4_acq_rel
	b	.L323
	.p2align 2,,3
.L357:
	add	x1, x19, 12
	mov	w0, -1
	bl	__aarch64_ldadd4_acq_rel
	b	.L358
	.p2align 2,,3
.L350:
	add	x1, x21, 8
	mov	w0, -1
	bl	__aarch64_ldadd4_acq_rel
	b	.L351
	.p2align 2,,3
.L301:
	add	x1, x21, 8
	mov	w0, -1
	bl	__aarch64_ldadd4_acq_rel
	b	.L302
	.p2align 2,,3
.L343:
	add	x1, x21, 8
	mov	w0, -1
	bl	__aarch64_ldadd4_acq_rel
	b	.L344
	.p2align 2,,3
.L332:
	add	x1, x21, 12
	mov	w0, -1
	bl	__aarch64_ldadd4_acq_rel
	b	.L333
	.p2align 2,,3
.L353:
	add	x1, x21, 12
	mov	w0, -1
	bl	__aarch64_ldadd4_acq_rel
	b	.L354
	.p2align 2,,3
.L318:
	add	x1, x21, 12
	mov	w0, -1
	bl	__aarch64_ldadd4_acq_rel
	b	.L319
	.p2align 2,,3
.L339:
	add	x1, x21, 12
	mov	w0, -1
	bl	__aarch64_ldadd4_acq_rel
	b	.L340
	.p2align 2,,3
.L304:
	add	x1, x21, 12
	mov	w0, -1
	bl	__aarch64_ldadd4_acq_rel
	b	.L305
	.p2align 2,,3
.L311:
	add	x1, x21, 12
	mov	w0, -1
	bl	__aarch64_ldadd4_acq_rel
	b	.L312
	.p2align 2,,3
.L346:
	add	x1, x21, 12
	mov	w0, -1
	bl	__aarch64_ldadd4_acq_rel
	b	.L347
	.p2align 2,,3
.L325:
	add	x1, x21, 12
	mov	w0, -1
	bl	__aarch64_ldadd4_acq_rel
	b	.L326
	.cfi_endproc
.LFE10701:
	.size	_ZThn40_N8asiodnp311LinkSessionD1Ev, .-_ZThn40_N8asiodnp311LinkSessionD1Ev
	.section	.text._ZN8asiodnp311LinkSessionD0Ev,"axG",@progbits,_ZN8asiodnp311LinkSessionD5Ev,comdat
	.align	2
	.p2align 4,,11
	.weak	_ZThn48_N8asiodnp311LinkSessionD0Ev
	.type	_ZThn48_N8asiodnp311LinkSessionD0Ev, %function
_ZThn48_N8asiodnp311LinkSessionD0Ev:
.LFB10694:
	.cfi_startproc
	stp	x29, x30, [sp, -48]!
	.cfi_def_cfa_offset 48
	.cfi_offset 29, -48
	.cfi_offset 30, -40
	adrp	x1, :got:_ZTVN8asiodnp311LinkSessionE
	mov	x29, sp
	stp	x19, x20, [sp, 16]
	.cfi_offset 19, -32
	.cfi_offset 20, -24
	mov	x19, x0
	ldr	x0, [x1, #:got_lo12:_ZTVN8asiodnp311LinkSessionE]
	stp	x21, x22, [sp, 32]
	.cfi_offset 21, -16
	.cfi_offset 22, -8
	sub	x21, x19, #48
	ldr	x22, [x19, 552]
	add	x1, x0, 16
	str	x1, [x19, -48]
	add	x3, x0, 96
	add	x2, x0, 144
	add	x1, x0, 184
	add	x0, x0, 224
	stp	x3, x2, [x21, 8]
	stp	x1, x0, [x21, 40]
	cbz	x22, .L372
	adrp	x20, :got:__libc_single_threaded
	ldr	x0, [x20, #:got_lo12:__libc_single_threaded]
	ldrb	w0, [x0]
	cbz	w0, .L373
	ldr	w0, [x22, 8]
	sub	w1, w0, #1
	str	w1, [x22, 8]
.L374:
	cmp	w0, 1
	beq	.L433
.L372:
	add	x0, x19, 520
	bl	_ZN7openpal8TimerRefD1Ev
	ldr	x22, [x19, 128]
	cbz	x22, .L379
	adrp	x20, :got:__libc_single_threaded
	ldr	x0, [x20, #:got_lo12:__libc_single_threaded]
	ldrb	w0, [x0]
	cbz	w0, .L380
	ldr	w0, [x22, 8]
	sub	w1, w0, #1
	str	w1, [x22, 8]
.L381:
	cmp	w0, 1
	beq	.L434
.L379:
	ldr	x22, [x19, 112]
	cbz	x22, .L386
	adrp	x20, :got:__libc_single_threaded
	ldr	x0, [x20, #:got_lo12:__libc_single_threaded]
	ldrb	w0, [x0]
	cbz	w0, .L387
	ldr	w0, [x22, 8]
	sub	w1, w0, #1
	str	w1, [x22, 8]
.L388:
	cmp	w0, 1
	beq	.L435
.L386:
	ldr	x22, [x19, 96]
	cbz	x22, .L393
	adrp	x20, :got:__libc_single_threaded
	ldr	x0, [x20, #:got_lo12:__libc_single_threaded]
	ldrb	w0, [x0]
	cbz	w0, .L394
	ldr	w0, [x22, 8]
	sub	w1, w0, #1
	str	w1, [x22, 8]
.L395:
	cmp	w0, 1
	beq	.L436
.L393:
	ldr	x22, [x19, 80]
	cbz	x22, .L400
	adrp	x20, :got:__libc_single_threaded
	ldr	x0, [x20, #:got_lo12:__libc_single_threaded]
	ldrb	w0, [x0]
	cbz	w0, .L401
	ldr	w0, [x22, 8]
	sub	w1, w0, #1
	str	w1, [x22, 8]
.L402:
	cmp	w0, 1
	beq	.L437
.L400:
	ldr	x22, [x19, 64]
	cbz	x22, .L407
	adrp	x20, :got:__libc_single_threaded
	ldr	x0, [x20, #:got_lo12:__libc_single_threaded]
	ldrb	w0, [x0]
	cbz	w0, .L408
	ldr	w0, [x22, 8]
	sub	w1, w0, #1
	str	w1, [x22, 8]
.L409:
	cmp	w0, 1
	beq	.L438
.L407:
	ldr	x22, [x19, 40]
	cbz	x22, .L414
	adrp	x20, :got:__libc_single_threaded
	ldr	x0, [x20, #:got_lo12:__libc_single_threaded]
	ldrb	w0, [x0]
	cbz	w0, .L415
	ldr	w0, [x22, 8]
	sub	w1, w0, #1
	str	w1, [x22, 8]
.L416:
	cmp	w0, 1
	beq	.L439
.L414:
	ldr	x22, [x19, 24]
	cbz	x22, .L421
	adrp	x20, :got:__libc_single_threaded
	ldr	x0, [x20, #:got_lo12:__libc_single_threaded]
	ldrb	w0, [x0]
	cbz	w0, .L422
	ldr	w0, [x22, 8]
	sub	w1, w0, #1
	str	w1, [x22, 8]
.L423:
	cmp	w0, 1
	beq	.L440
.L421:
	ldr	x19, [x19, -16]
	cbz	x19, .L428
	adrp	x0, :got:__libc_single_threaded
	ldr	x0, [x0, #:got_lo12:__libc_single_threaded]
	ldrb	w0, [x0]
	cbz	w0, .L429
	ldr	w0, [x19, 12]
	sub	w1, w0, #1
	str	w1, [x19, 12]
.L430:
	cmp	w0, 1
	beq	.L441
.L428:
	mov	x0, x21
	mov	x1, 608
	ldp	x19, x20, [sp, 16]
	ldp	x21, x22, [sp, 32]
	ldp	x29, x30, [sp], 48
	.cfi_remember_state
	.cfi_restore 30
	.cfi_restore 29
	.cfi_restore 21
	.cfi_restore 22
	.cfi_restore 19
	.cfi_restore 20
	.cfi_def_cfa_offset 0
	b	_ZdlPvm
	.p2align 2,,3
.L433:
	.cfi_restore_state
	ldr	x1, [x22]
	mov	x0, x22
	ldr	x1, [x1, 16]
	blr	x1
	ldr	x20, [x20, #:got_lo12:__libc_single_threaded]
	ldrb	w0, [x20]
	cbz	w0, .L376
	ldr	w0, [x22, 12]
	sub	w1, w0, #1
	str	w1, [x22, 12]
.L377:
	cmp	w0, 1
	bne	.L372
	ldr	x1, [x22]
	mov	x0, x22
	ldr	x1, [x1, 24]
	blr	x1
	b	.L372
	.p2align 2,,3
.L434:
	ldr	x1, [x22]
	mov	x0, x22
	ldr	x1, [x1, 16]
	blr	x1
	ldr	x20, [x20, #:got_lo12:__libc_single_threaded]
	ldrb	w0, [x20]
	cbz	w0, .L383
	ldr	w0, [x22, 12]
	sub	w1, w0, #1
	str	w1, [x22, 12]
.L384:
	cmp	w0, 1
	bne	.L379
	ldr	x1, [x22]
	mov	x0, x22
	ldr	x1, [x1, 24]
	blr	x1
	b	.L379
	.p2align 2,,3
.L435:
	ldr	x1, [x22]
	mov	x0, x22
	ldr	x1, [x1, 16]
	blr	x1
	ldr	x20, [x20, #:got_lo12:__libc_single_threaded]
	ldrb	w0, [x20]
	cbz	w0, .L390
	ldr	w0, [x22, 12]
	sub	w1, w0, #1
	str	w1, [x22, 12]
.L391:
	cmp	w0, 1
	bne	.L386
	ldr	x1, [x22]
	mov	x0, x22
	ldr	x1, [x1, 24]
	blr	x1
	b	.L386
	.p2align 2,,3
.L439:
	ldr	x1, [x22]
	mov	x0, x22
	ldr	x1, [x1, 16]
	blr	x1
	ldr	x20, [x20, #:got_lo12:__libc_single_threaded]
	ldrb	w0, [x20]
	cbz	w0, .L418
	ldr	w0, [x22, 12]
	sub	w1, w0, #1
	str	w1, [x22, 12]
.L419:
	cmp	w0, 1
	bne	.L414
	ldr	x1, [x22]
	mov	x0, x22
	ldr	x1, [x1, 24]
	blr	x1
	b	.L414
	.p2align 2,,3
.L437:
	ldr	x1, [x22]
	mov	x0, x22
	ldr	x1, [x1, 16]
	blr	x1
	ldr	x20, [x20, #:got_lo12:__libc_single_threaded]
	ldrb	w0, [x20]
	cbz	w0, .L404
	ldr	w0, [x22, 12]
	sub	w1, w0, #1
	str	w1, [x22, 12]
.L405:
	cmp	w0, 1
	bne	.L400
	ldr	x1, [x22]
	mov	x0, x22
	ldr	x1, [x1, 24]
	blr	x1
	b	.L400
	.p2align 2,,3
.L441:
	ldr	x1, [x19]
	mov	x0, x19
	ldr	x1, [x1, 24]
	blr	x1
	mov	x0, x21
	mov	x1, 608
	ldp	x19, x20, [sp, 16]
	ldp	x21, x22, [sp, 32]
	ldp	x29, x30, [sp], 48
	.cfi_remember_state
	.cfi_restore 30
	.cfi_restore 29
	.cfi_restore 21
	.cfi_restore 22
	.cfi_restore 19
	.cfi_restore 20
	.cfi_def_cfa_offset 0
	b	_ZdlPvm
	.p2align 2,,3
.L436:
	.cfi_restore_state
	ldr	x1, [x22]
	mov	x0, x22
	ldr	x1, [x1, 16]
	blr	x1
	ldr	x20, [x20, #:got_lo12:__libc_single_threaded]
	ldrb	w0, [x20]
	cbz	w0, .L397
	ldr	w0, [x22, 12]
	sub	w1, w0, #1
	str	w1, [x22, 12]
.L398:
	cmp	w0, 1
	bne	.L393
	ldr	x1, [x22]
	mov	x0, x22
	ldr	x1, [x1, 24]
	blr	x1
	b	.L393
	.p2align 2,,3
.L438:
	ldr	x1, [x22]
	mov	x0, x22
	ldr	x1, [x1, 16]
	blr	x1
	ldr	x20, [x20, #:got_lo12:__libc_single_threaded]
	ldrb	w0, [x20]
	cbz	w0, .L411
	ldr	w0, [x22, 12]
	sub	w1, w0, #1
	str	w1, [x22, 12]
.L412:
	cmp	w0, 1
	bne	.L407
	ldr	x1, [x22]
	mov	x0, x22
	ldr	x1, [x1, 24]
	blr	x1
	b	.L407
	.p2align 2,,3
.L440:
	ldr	x1, [x22]
	mov	x0, x22
	ldr	x1, [x1, 16]
	blr	x1
	ldr	x20, [x20, #:got_lo12:__libc_single_threaded]
	ldrb	w0, [x20]
	cbz	w0, .L425
	ldr	w0, [x22, 12]
	sub	w1, w0, #1
	str	w1, [x22, 12]
.L426:
	cmp	w0, 1
	bne	.L421
	ldr	x1, [x22]
	mov	x0, x22
	ldr	x1, [x1, 24]
	blr	x1
	b	.L421
	.p2align 2,,3
.L408:
	add	x1, x22, 8
	mov	w0, -1
	bl	__aarch64_ldadd4_acq_rel
	b	.L409
	.p2align 2,,3
.L401:
	add	x1, x22, 8
	mov	w0, -1
	bl	__aarch64_ldadd4_acq_rel
	b	.L402
	.p2align 2,,3
.L380:
	add	x1, x22, 8
	mov	w0, -1
	bl	__aarch64_ldadd4_acq_rel
	b	.L381
	.p2align 2,,3
.L387:
	add	x1, x22, 8
	mov	w0, -1
	bl	__aarch64_ldadd4_acq_rel
	b	.L388
	.p2align 2,,3
.L394:
	add	x1, x22, 8
	mov	w0, -1
	bl	__aarch64_ldadd4_acq_rel
	b	.L395
	.p2align 2,,3
.L429:
	add	x1, x19, 12
	mov	w0, -1
	bl	__aarch64_ldadd4_acq_rel
	b	.L430
	.p2align 2,,3
.L422:
	add	x1, x22, 8
	mov	w0, -1
	bl	__aarch64_ldadd4_acq_rel
	b	.L423
	.p2align 2,,3
.L373:
	add	x1, x22, 8
	mov	w0, -1
	bl	__aarch64_ldadd4_acq_rel
	b	.L374
	.p2align 2,,3
.L415:
	add	x1, x22, 8
	mov	w0, -1
	bl	__aarch64_ldadd4_acq_rel
	b	.L416
	.p2align 2,,3
.L404:
	add	x1, x22, 12
	mov	w0, -1
	bl	__aarch64_ldadd4_acq_rel
	b	.L405
	.p2align 2,,3
.L425:
	add	x1, x22, 12
	mov	w0, -1
	bl	__aarch64_ldadd4_acq_rel
	b	.L426
	.p2align 2,,3
.L390:
	add	x1, x22, 12
	mov	w0, -1
	bl	__aarch64_ldadd4_acq_rel
	b	.L391
	.p2align 2,,3
.L411:
	add	x1, x22, 12
	mov	w0, -1
	bl	__aarch64_ldadd4_acq_rel
	b	.L412
	.p2align 2,,3
.L376:
	add	x1, x22, 12
	mov	w0, -1
	bl	__aarch64_ldadd4_acq_rel
	b	.L377
	.p2align 2,,3
.L383:
	add	x1, x22, 12
	mov	w0, -1
	bl	__aarch64_ldadd4_acq_rel
	b	.L384
	.p2align 2,,3
.L418:
	add	x1, x22, 12
	mov	w0, -1
	bl	__aarch64_ldadd4_acq_rel
	b	.L419
	.p2align 2,,3
.L397:
	add	x1, x22, 12
	mov	w0, -1
	bl	__aarch64_ldadd4_acq_rel
	b	.L398
	.cfi_endproc
.LFE10694:
	.size	_ZThn48_N8asiodnp311LinkSessionD0Ev, .-_ZThn48_N8asiodnp311LinkSessionD0Ev
	.align	2
	.p2align 4,,11
	.weak	_ZThn16_N8asiodnp311LinkSessionD0Ev
	.type	_ZThn16_N8asiodnp311LinkSessionD0Ev, %function
_ZThn16_N8asiodnp311LinkSessionD0Ev:
.LFB10697:
	.cfi_startproc
	stp	x29, x30, [sp, -48]!
	.cfi_def_cfa_offset 48
	.cfi_offset 29, -48
	.cfi_offset 30, -40
	adrp	x1, :got:_ZTVN8asiodnp311LinkSessionE
	mov	x29, sp
	stp	x19, x20, [sp, 16]
	.cfi_offset 19, -32
	.cfi_offset 20, -24
	mov	x19, x0
	ldr	x0, [x1, #:got_lo12:_ZTVN8asiodnp311LinkSessionE]
	stp	x21, x22, [sp, 32]
	.cfi_offset 21, -16
	.cfi_offset 22, -8
	sub	x21, x19, #16
	ldr	x22, [x19, 584]
	add	x1, x0, 16
	str	x1, [x19, -16]
	add	x3, x0, 96
	add	x2, x0, 144
	add	x1, x0, 184
	add	x0, x0, 224
	stp	x3, x2, [x21, 8]
	stp	x1, x0, [x21, 40]
	cbz	x22, .L444
	adrp	x20, :got:__libc_single_threaded
	ldr	x0, [x20, #:got_lo12:__libc_single_threaded]
	ldrb	w0, [x0]
	cbz	w0, .L445
	ldr	w0, [x22, 8]
	sub	w1, w0, #1
	str	w1, [x22, 8]
.L446:
	cmp	w0, 1
	beq	.L505
.L444:
	add	x0, x19, 552
	bl	_ZN7openpal8TimerRefD1Ev
	ldr	x22, [x19, 160]
	cbz	x22, .L451
	adrp	x20, :got:__libc_single_threaded
	ldr	x0, [x20, #:got_lo12:__libc_single_threaded]
	ldrb	w0, [x0]
	cbz	w0, .L452
	ldr	w0, [x22, 8]
	sub	w1, w0, #1
	str	w1, [x22, 8]
.L453:
	cmp	w0, 1
	beq	.L506
.L451:
	ldr	x22, [x19, 144]
	cbz	x22, .L458
	adrp	x20, :got:__libc_single_threaded
	ldr	x0, [x20, #:got_lo12:__libc_single_threaded]
	ldrb	w0, [x0]
	cbz	w0, .L459
	ldr	w0, [x22, 8]
	sub	w1, w0, #1
	str	w1, [x22, 8]
.L460:
	cmp	w0, 1
	beq	.L507
.L458:
	ldr	x22, [x19, 128]
	cbz	x22, .L465
	adrp	x20, :got:__libc_single_threaded
	ldr	x0, [x20, #:got_lo12:__libc_single_threaded]
	ldrb	w0, [x0]
	cbz	w0, .L466
	ldr	w0, [x22, 8]
	sub	w1, w0, #1
	str	w1, [x22, 8]
.L467:
	cmp	w0, 1
	beq	.L508
.L465:
	ldr	x22, [x19, 112]
	cbz	x22, .L472
	adrp	x20, :got:__libc_single_threaded
	ldr	x0, [x20, #:got_lo12:__libc_single_threaded]
	ldrb	w0, [x0]
	cbz	w0, .L473
	ldr	w0, [x22, 8]
	sub	w1, w0, #1
	str	w1, [x22, 8]
.L474:
	cmp	w0, 1
	beq	.L509
.L472:
	ldr	x22, [x19, 96]
	cbz	x22, .L479
	adrp	x20, :got:__libc_single_threaded
	ldr	x0, [x20, #:got_lo12:__libc_single_threaded]
	ldrb	w0, [x0]
	cbz	w0, .L480
	ldr	w0, [x22, 8]
	sub	w1, w0, #1
	str	w1, [x22, 8]
.L481:
	cmp	w0, 1
	beq	.L510
.L479:
	ldr	x22, [x19, 72]
	cbz	x22, .L486
	adrp	x20, :got:__libc_single_threaded
	ldr	x0, [x20, #:got_lo12:__libc_single_threaded]
	ldrb	w0, [x0]
	cbz	w0, .L487
	ldr	w0, [x22, 8]
	sub	w1, w0, #1
	str	w1, [x22, 8]
.L488:
	cmp	w0, 1
	beq	.L511
.L486:
	ldr	x22, [x19, 56]
	cbz	x22, .L493
	adrp	x20, :got:__libc_single_threaded
	ldr	x0, [x20, #:got_lo12:__libc_single_threaded]
	ldrb	w0, [x0]
	cbz	w0, .L494
	ldr	w0, [x22, 8]
	sub	w1, w0, #1
	str	w1, [x22, 8]
.L495:
	cmp	w0, 1
	beq	.L512
.L493:
	ldr	x19, [x19, 16]
	cbz	x19, .L500
	adrp	x0, :got:__libc_single_threaded
	ldr	x0, [x0, #:got_lo12:__libc_single_threaded]
	ldrb	w0, [x0]
	cbz	w0, .L501
	ldr	w0, [x19, 12]
	sub	w1, w0, #1
	str	w1, [x19, 12]
.L502:
	cmp	w0, 1
	beq	.L513
.L500:
	mov	x0, x21
	mov	x1, 608
	ldp	x19, x20, [sp, 16]
	ldp	x21, x22, [sp, 32]
	ldp	x29, x30, [sp], 48
	.cfi_remember_state
	.cfi_restore 30
	.cfi_restore 29
	.cfi_restore 21
	.cfi_restore 22
	.cfi_restore 19
	.cfi_restore 20
	.cfi_def_cfa_offset 0
	b	_ZdlPvm
	.p2align 2,,3
.L505:
	.cfi_restore_state
	ldr	x1, [x22]
	mov	x0, x22
	ldr	x1, [x1, 16]
	blr	x1
	ldr	x20, [x20, #:got_lo12:__libc_single_threaded]
	ldrb	w0, [x20]
	cbz	w0, .L448
	ldr	w0, [x22, 12]
	sub	w1, w0, #1
	str	w1, [x22, 12]
.L449:
	cmp	w0, 1
	bne	.L444
	ldr	x1, [x22]
	mov	x0, x22
	ldr	x1, [x1, 24]
	blr	x1
	b	.L444
	.p2align 2,,3
.L506:
	ldr	x1, [x22]
	mov	x0, x22
	ldr	x1, [x1, 16]
	blr	x1
	ldr	x20, [x20, #:got_lo12:__libc_single_threaded]
	ldrb	w0, [x20]
	cbz	w0, .L455
	ldr	w0, [x22, 12]
	sub	w1, w0, #1
	str	w1, [x22, 12]
.L456:
	cmp	w0, 1
	bne	.L451
	ldr	x1, [x22]
	mov	x0, x22
	ldr	x1, [x1, 24]
	blr	x1
	b	.L451
	.p2align 2,,3
.L507:
	ldr	x1, [x22]
	mov	x0, x22
	ldr	x1, [x1, 16]
	blr	x1
	ldr	x20, [x20, #:got_lo12:__libc_single_threaded]
	ldrb	w0, [x20]
	cbz	w0, .L462
	ldr	w0, [x22, 12]
	sub	w1, w0, #1
	str	w1, [x22, 12]
.L463:
	cmp	w0, 1
	bne	.L458
	ldr	x1, [x22]
	mov	x0, x22
	ldr	x1, [x1, 24]
	blr	x1
	b	.L458
	.p2align 2,,3
.L511:
	ldr	x1, [x22]
	mov	x0, x22
	ldr	x1, [x1, 16]
	blr	x1
	ldr	x20, [x20, #:got_lo12:__libc_single_threaded]
	ldrb	w0, [x20]
	cbz	w0, .L490
	ldr	w0, [x22, 12]
	sub	w1, w0, #1
	str	w1, [x22, 12]
.L491:
	cmp	w0, 1
	bne	.L486
	ldr	x1, [x22]
	mov	x0, x22
	ldr	x1, [x1, 24]
	blr	x1
	b	.L486
	.p2align 2,,3
.L509:
	ldr	x1, [x22]
	mov	x0, x22
	ldr	x1, [x1, 16]
	blr	x1
	ldr	x20, [x20, #:got_lo12:__libc_single_threaded]
	ldrb	w0, [x20]
	cbz	w0, .L476
	ldr	w0, [x22, 12]
	sub	w1, w0, #1
	str	w1, [x22, 12]
.L477:
	cmp	w0, 1
	bne	.L472
	ldr	x1, [x22]
	mov	x0, x22
	ldr	x1, [x1, 24]
	blr	x1
	b	.L472
	.p2align 2,,3
.L513:
	ldr	x1, [x19]
	mov	x0, x19
	ldr	x1, [x1, 24]
	blr	x1
	mov	x0, x21
	mov	x1, 608
	ldp	x19, x20, [sp, 16]
	ldp	x21, x22, [sp, 32]
	ldp	x29, x30, [sp], 48
	.cfi_remember_state
	.cfi_restore 30
	.cfi_restore 29
	.cfi_restore 21
	.cfi_restore 22
	.cfi_restore 19
	.cfi_restore 20
	.cfi_def_cfa_offset 0
	b	_ZdlPvm
	.p2align 2,,3
.L508:
	.cfi_restore_state
	ldr	x1, [x22]
	mov	x0, x22
	ldr	x1, [x1, 16]
	blr	x1
	ldr	x20, [x20, #:got_lo12:__libc_single_threaded]
	ldrb	w0, [x20]
	cbz	w0, .L469
	ldr	w0, [x22, 12]
	sub	w1, w0, #1
	str	w1, [x22, 12]
.L470:
	cmp	w0, 1
	bne	.L465
	ldr	x1, [x22]
	mov	x0, x22
	ldr	x1, [x1, 24]
	blr	x1
	b	.L465
	.p2align 2,,3
.L510:
	ldr	x1, [x22]
	mov	x0, x22
	ldr	x1, [x1, 16]
	blr	x1
	ldr	x20, [x20, #:got_lo12:__libc_single_threaded]
	ldrb	w0, [x20]
	cbz	w0, .L483
	ldr	w0, [x22, 12]
	sub	w1, w0, #1
	str	w1, [x22, 12]
.L484:
	cmp	w0, 1
	bne	.L479
	ldr	x1, [x22]
	mov	x0, x22
	ldr	x1, [x1, 24]
	blr	x1
	b	.L479
	.p2align 2,,3
.L512:
	ldr	x1, [x22]
	mov	x0, x22
	ldr	x1, [x1, 16]
	blr	x1
	ldr	x20, [x20, #:got_lo12:__libc_single_threaded]
	ldrb	w0, [x20]
	cbz	w0, .L497
	ldr	w0, [x22, 12]
	sub	w1, w0, #1
	str	w1, [x22, 12]
.L498:
	cmp	w0, 1
	bne	.L493
	ldr	x1, [x22]
	mov	x0, x22
	ldr	x1, [x1, 24]
	blr	x1
	b	.L493
	.p2align 2,,3
.L480:
	add	x1, x22, 8
	mov	w0, -1
	bl	__aarch64_ldadd4_acq_rel
	b	.L481
	.p2align 2,,3
.L473:
	add	x1, x22, 8
	mov	w0, -1
	bl	__aarch64_ldadd4_acq_rel
	b	.L474
	.p2align 2,,3
.L452:
	add	x1, x22, 8
	mov	w0, -1
	bl	__aarch64_ldadd4_acq_rel
	b	.L453
	.p2align 2,,3
.L459:
	add	x1, x22, 8
	mov	w0, -1
	bl	__aarch64_ldadd4_acq_rel
	b	.L460
	.p2align 2,,3
.L466:
	add	x1, x22, 8
	mov	w0, -1
	bl	__aarch64_ldadd4_acq_rel
	b	.L467
	.p2align 2,,3
.L501:
	add	x1, x19, 12
	mov	w0, -1
	bl	__aarch64_ldadd4_acq_rel
	b	.L502
	.p2align 2,,3
.L494:
	add	x1, x22, 8
	mov	w0, -1
	bl	__aarch64_ldadd4_acq_rel
	b	.L495
	.p2align 2,,3
.L445:
	add	x1, x22, 8
	mov	w0, -1
	bl	__aarch64_ldadd4_acq_rel
	b	.L446
	.p2align 2,,3
.L487:
	add	x1, x22, 8
	mov	w0, -1
	bl	__aarch64_ldadd4_acq_rel
	b	.L488
	.p2align 2,,3
.L476:
	add	x1, x22, 12
	mov	w0, -1
	bl	__aarch64_ldadd4_acq_rel
	b	.L477
	.p2align 2,,3
.L497:
	add	x1, x22, 12
	mov	w0, -1
	bl	__aarch64_ldadd4_acq_rel
	b	.L498
	.p2align 2,,3
.L462:
	add	x1, x22, 12
	mov	w0, -1
	bl	__aarch64_ldadd4_acq_rel
	b	.L463
	.p2align 2,,3
.L483:
	add	x1, x22, 12
	mov	w0, -1
	bl	__aarch64_ldadd4_acq_rel
	b	.L484
	.p2align 2,,3
.L448:
	add	x1, x22, 12
	mov	w0, -1
	bl	__aarch64_ldadd4_acq_rel
	b	.L449
	.p2align 2,,3
.L455:
	add	x1, x22, 12
	mov	w0, -1
	bl	__aarch64_ldadd4_acq_rel
	b	.L456
	.p2align 2,,3
.L490:
	add	x1, x22, 12
	mov	w0, -1
	bl	__aarch64_ldadd4_acq_rel
	b	.L491
	.p2align 2,,3
.L469:
	add	x1, x22, 12
	mov	w0, -1
	bl	__aarch64_ldadd4_acq_rel
	b	.L470
	.cfi_endproc
.LFE10697:
	.size	_ZThn16_N8asiodnp311LinkSessionD0Ev, .-_ZThn16_N8asiodnp311LinkSessionD0Ev
	.align	2
	.p2align 4,,11
	.weak	_ZThn40_N8asiodnp311LinkSessionD0Ev
	.type	_ZThn40_N8asiodnp311LinkSessionD0Ev, %function
_ZThn40_N8asiodnp311LinkSessionD0Ev:
.LFB10695:
	.cfi_startproc
	stp	x29, x30, [sp, -48]!
	.cfi_def_cfa_offset 48
	.cfi_offset 29, -48
	.cfi_offset 30, -40
	adrp	x1, :got:_ZTVN8asiodnp311LinkSessionE
	mov	x29, sp
	stp	x19, x20, [sp, 16]
	.cfi_offset 19, -32
	.cfi_offset 20, -24
	mov	x19, x0
	ldr	x0, [x1, #:got_lo12:_ZTVN8asiodnp311LinkSessionE]
	stp	x21, x22, [sp, 32]
	.cfi_offset 21, -16
	.cfi_offset 22, -8
	sub	x21, x19, #40
	ldr	x22, [x19, 560]
	add	x1, x0, 16
	str	x1, [x19, -40]
	add	x3, x0, 96
	add	x2, x0, 144
	add	x1, x0, 184
	add	x0, x0, 224
	stp	x3, x2, [x21, 8]
	stp	x1, x0, [x21, 40]
	cbz	x22, .L516
	adrp	x20, :got:__libc_single_threaded
	ldr	x0, [x20, #:got_lo12:__libc_single_threaded]
	ldrb	w0, [x0]
	cbz	w0, .L517
	ldr	w0, [x22, 8]
	sub	w1, w0, #1
	str	w1, [x22, 8]
.L518:
	cmp	w0, 1
	beq	.L577
.L516:
	add	x0, x19, 528
	bl	_ZN7openpal8TimerRefD1Ev
	ldr	x22, [x19, 136]
	cbz	x22, .L523
	adrp	x20, :got:__libc_single_threaded
	ldr	x0, [x20, #:got_lo12:__libc_single_threaded]
	ldrb	w0, [x0]
	cbz	w0, .L524
	ldr	w0, [x22, 8]
	sub	w1, w0, #1
	str	w1, [x22, 8]
.L525:
	cmp	w0, 1
	beq	.L578
.L523:
	ldr	x22, [x19, 120]
	cbz	x22, .L530
	adrp	x20, :got:__libc_single_threaded
	ldr	x0, [x20, #:got_lo12:__libc_single_threaded]
	ldrb	w0, [x0]
	cbz	w0, .L531
	ldr	w0, [x22, 8]
	sub	w1, w0, #1
	str	w1, [x22, 8]
.L532:
	cmp	w0, 1
	beq	.L579
.L530:
	ldr	x22, [x19, 104]
	cbz	x22, .L537
	adrp	x20, :got:__libc_single_threaded
	ldr	x0, [x20, #:got_lo12:__libc_single_threaded]
	ldrb	w0, [x0]
	cbz	w0, .L538
	ldr	w0, [x22, 8]
	sub	w1, w0, #1
	str	w1, [x22, 8]
.L539:
	cmp	w0, 1
	beq	.L580
.L537:
	ldr	x22, [x19, 88]
	cbz	x22, .L544
	adrp	x20, :got:__libc_single_threaded
	ldr	x0, [x20, #:got_lo12:__libc_single_threaded]
	ldrb	w0, [x0]
	cbz	w0, .L545
	ldr	w0, [x22, 8]
	sub	w1, w0, #1
	str	w1, [x22, 8]
.L546:
	cmp	w0, 1
	beq	.L581
.L544:
	ldr	x22, [x19, 72]
	cbz	x22, .L551
	adrp	x20, :got:__libc_single_threaded
	ldr	x0, [x20, #:got_lo12:__libc_single_threaded]
	ldrb	w0, [x0]
	cbz	w0, .L552
	ldr	w0, [x22, 8]
	sub	w1, w0, #1
	str	w1, [x22, 8]
.L553:
	cmp	w0, 1
	beq	.L582
.L551:
	ldr	x22, [x19, 48]
	cbz	x22, .L558
	adrp	x20, :got:__libc_single_threaded
	ldr	x0, [x20, #:got_lo12:__libc_single_threaded]
	ldrb	w0, [x0]
	cbz	w0, .L559
	ldr	w0, [x22, 8]
	sub	w1, w0, #1
	str	w1, [x22, 8]
.L560:
	cmp	w0, 1
	beq	.L583
.L558:
	ldr	x22, [x19, 32]
	cbz	x22, .L565
	adrp	x20, :got:__libc_single_threaded
	ldr	x0, [x20, #:got_lo12:__libc_single_threaded]
	ldrb	w0, [x0]
	cbz	w0, .L566
	ldr	w0, [x22, 8]
	sub	w1, w0, #1
	str	w1, [x22, 8]
.L567:
	cmp	w0, 1
	beq	.L584
.L565:
	ldr	x19, [x19, -8]
	cbz	x19, .L572
	adrp	x0, :got:__libc_single_threaded
	ldr	x0, [x0, #:got_lo12:__libc_single_threaded]
	ldrb	w0, [x0]
	cbz	w0, .L573
	ldr	w0, [x19, 12]
	sub	w1, w0, #1
	str	w1, [x19, 12]
.L574:
	cmp	w0, 1
	beq	.L585
.L572:
	mov	x0, x21
	mov	x1, 608
	ldp	x19, x20, [sp, 16]
	ldp	x21, x22, [sp, 32]
	ldp	x29, x30, [sp], 48
	.cfi_remember_state
	.cfi_restore 30
	.cfi_restore 29
	.cfi_restore 21
	.cfi_restore 22
	.cfi_restore 19
	.cfi_restore 20
	.cfi_def_cfa_offset 0
	b	_ZdlPvm
	.p2align 2,,3
.L577:
	.cfi_restore_state
	ldr	x1, [x22]
	mov	x0, x22
	ldr	x1, [x1, 16]
	blr	x1
	ldr	x20, [x20, #:got_lo12:__libc_single_threaded]
	ldrb	w0, [x20]
	cbz	w0, .L520
	ldr	w0, [x22, 12]
	sub	w1, w0, #1
	str	w1, [x22, 12]
.L521:
	cmp	w0, 1
	bne	.L516
	ldr	x1, [x22]
	mov	x0, x22
	ldr	x1, [x1, 24]
	blr	x1
	b	.L516
	.p2align 2,,3
.L578:
	ldr	x1, [x22]
	mov	x0, x22
	ldr	x1, [x1, 16]
	blr	x1
	ldr	x20, [x20, #:got_lo12:__libc_single_threaded]
	ldrb	w0, [x20]
	cbz	w0, .L527
	ldr	w0, [x22, 12]
	sub	w1, w0, #1
	str	w1, [x22, 12]
.L528:
	cmp	w0, 1
	bne	.L523
	ldr	x1, [x22]
	mov	x0, x22
	ldr	x1, [x1, 24]
	blr	x1
	b	.L523
	.p2align 2,,3
.L579:
	ldr	x1, [x22]
	mov	x0, x22
	ldr	x1, [x1, 16]
	blr	x1
	ldr	x20, [x20, #:got_lo12:__libc_single_threaded]
	ldrb	w0, [x20]
	cbz	w0, .L534
	ldr	w0, [x22, 12]
	sub	w1, w0, #1
	str	w1, [x22, 12]
.L535:
	cmp	w0, 1
	bne	.L530
	ldr	x1, [x22]
	mov	x0, x22
	ldr	x1, [x1, 24]
	blr	x1
	b	.L530
	.p2align 2,,3
.L583:
	ldr	x1, [x22]
	mov	x0, x22
	ldr	x1, [x1, 16]
	blr	x1
	ldr	x20, [x20, #:got_lo12:__libc_single_threaded]
	ldrb	w0, [x20]
	cbz	w0, .L562
	ldr	w0, [x22, 12]
	sub	w1, w0, #1
	str	w1, [x22, 12]
.L563:
	cmp	w0, 1
	bne	.L558
	ldr	x1, [x22]
	mov	x0, x22
	ldr	x1, [x1, 24]
	blr	x1
	b	.L558
	.p2align 2,,3
.L581:
	ldr	x1, [x22]
	mov	x0, x22
	ldr	x1, [x1, 16]
	blr	x1
	ldr	x20, [x20, #:got_lo12:__libc_single_threaded]
	ldrb	w0, [x20]
	cbz	w0, .L548
	ldr	w0, [x22, 12]
	sub	w1, w0, #1
	str	w1, [x22, 12]
.L549:
	cmp	w0, 1
	bne	.L544
	ldr	x1, [x22]
	mov	x0, x22
	ldr	x1, [x1, 24]
	blr	x1
	b	.L544
	.p2align 2,,3
.L585:
	ldr	x1, [x19]
	mov	x0, x19
	ldr	x1, [x1, 24]
	blr	x1
	mov	x0, x21
	mov	x1, 608
	ldp	x19, x20, [sp, 16]
	ldp	x21, x22, [sp, 32]
	ldp	x29, x30, [sp], 48
	.cfi_remember_state
	.cfi_restore 30
	.cfi_restore 29
	.cfi_restore 21
	.cfi_restore 22
	.cfi_restore 19
	.cfi_restore 20
	.cfi_def_cfa_offset 0
	b	_ZdlPvm
	.p2align 2,,3
.L580:
	.cfi_restore_state
	ldr	x1, [x22]
	mov	x0, x22
	ldr	x1, [x1, 16]
	blr	x1
	ldr	x20, [x20, #:got_lo12:__libc_single_threaded]
	ldrb	w0, [x20]
	cbz	w0, .L541
	ldr	w0, [x22, 12]
	sub	w1, w0, #1
	str	w1, [x22, 12]
.L542:
	cmp	w0, 1
	bne	.L537
	ldr	x1, [x22]
	mov	x0, x22
	ldr	x1, [x1, 24]
	blr	x1
	b	.L537
	.p2align 2,,3
.L582:
	ldr	x1, [x22]
	mov	x0, x22
	ldr	x1, [x1, 16]
	blr	x1
	ldr	x20, [x20, #:got_lo12:__libc_single_threaded]
	ldrb	w0, [x20]
	cbz	w0, .L555
	ldr	w0, [x22, 12]
	sub	w1, w0, #1
	str	w1, [x22, 12]
.L556:
	cmp	w0, 1
	bne	.L551
	ldr	x1, [x22]
	mov	x0, x22
	ldr	x1, [x1, 24]
	blr	x1
	b	.L551
	.p2align 2,,3
.L584:
	ldr	x1, [x22]
	mov	x0, x22
	ldr	x1, [x1, 16]
	blr	x1
	ldr	x20, [x20, #:got_lo12:__libc_single_threaded]
	ldrb	w0, [x20]
	cbz	w0, .L569
	ldr	w0, [x22, 12]
	sub	w1, w0, #1
	str	w1, [x22, 12]
.L570:
	cmp	w0, 1
	bne	.L565
	ldr	x1, [x22]
	mov	x0, x22
	ldr	x1, [x1, 24]
	blr	x1
	b	.L565
	.p2align 2,,3
.L552:
	add	x1, x22, 8
	mov	w0, -1
	bl	__aarch64_ldadd4_acq_rel
	b	.L553
	.p2align 2,,3
.L545:
	add	x1, x22, 8
	mov	w0, -1
	bl	__aarch64_ldadd4_acq_rel
	b	.L546
	.p2align 2,,3
.L524:
	add	x1, x22, 8
	mov	w0, -1
	bl	__aarch64_ldadd4_acq_rel
	b	.L525
	.p2align 2,,3
.L531:
	add	x1, x22, 8
	mov	w0, -1
	bl	__aarch64_ldadd4_acq_rel
	b	.L532
	.p2align 2,,3
.L538:
	add	x1, x22, 8
	mov	w0, -1
	bl	__aarch64_ldadd4_acq_rel
	b	.L539
	.p2align 2,,3
.L573:
	add	x1, x19, 12
	mov	w0, -1
	bl	__aarch64_ldadd4_acq_rel
	b	.L574
	.p2align 2,,3
.L566:
	add	x1, x22, 8
	mov	w0, -1
	bl	__aarch64_ldadd4_acq_rel
	b	.L567
	.p2align 2,,3
.L517:
	add	x1, x22, 8
	mov	w0, -1
	bl	__aarch64_ldadd4_acq_rel
	b	.L518
	.p2align 2,,3
.L559:
	add	x1, x22, 8
	mov	w0, -1
	bl	__aarch64_ldadd4_acq_rel
	b	.L560
	.p2align 2,,3
.L548:
	add	x1, x22, 12
	mov	w0, -1
	bl	__aarch64_ldadd4_acq_rel
	b	.L549
	.p2align 2,,3
.L569:
	add	x1, x22, 12
	mov	w0, -1
	bl	__aarch64_ldadd4_acq_rel
	b	.L570
	.p2align 2,,3
.L534:
	add	x1, x22, 12
	mov	w0, -1
	bl	__aarch64_ldadd4_acq_rel
	b	.L535
	.p2align 2,,3
.L555:
	add	x1, x22, 12
	mov	w0, -1
	bl	__aarch64_ldadd4_acq_rel
	b	.L556
	.p2align 2,,3
.L520:
	add	x1, x22, 12
	mov	w0, -1
	bl	__aarch64_ldadd4_acq_rel
	b	.L521
	.p2align 2,,3
.L527:
	add	x1, x22, 12
	mov	w0, -1
	bl	__aarch64_ldadd4_acq_rel
	b	.L528
	.p2align 2,,3
.L562:
	add	x1, x22, 12
	mov	w0, -1
	bl	__aarch64_ldadd4_acq_rel
	b	.L563
	.p2align 2,,3
.L541:
	add	x1, x22, 12
	mov	w0, -1
	bl	__aarch64_ldadd4_acq_rel
	b	.L542
	.cfi_endproc
.LFE10695:
	.size	_ZThn40_N8asiodnp311LinkSessionD0Ev, .-_ZThn40_N8asiodnp311LinkSessionD0Ev
	.align	2
	.p2align 4,,11
	.weak	_ZThn8_N8asiodnp311LinkSessionD0Ev
	.type	_ZThn8_N8asiodnp311LinkSessionD0Ev, %function
_ZThn8_N8asiodnp311LinkSessionD0Ev:
.LFB10696:
	.cfi_startproc
	stp	x29, x30, [sp, -48]!
	.cfi_def_cfa_offset 48
	.cfi_offset 29, -48
	.cfi_offset 30, -40
	adrp	x1, :got:_ZTVN8asiodnp311LinkSessionE
	mov	x29, sp
	stp	x19, x20, [sp, 16]
	.cfi_offset 19, -32
	.cfi_offset 20, -24
	mov	x19, x0
	ldr	x0, [x1, #:got_lo12:_ZTVN8asiodnp311LinkSessionE]
	stp	x21, x22, [sp, 32]
	.cfi_offset 21, -16
	.cfi_offset 22, -8
	mov	x21, x19
	add	x1, x0, 16
	str	x1, [x19, -8]
	add	x1, x0, 96
	add	x2, x0, 144
	ldr	x22, [x19, 592]
	str	x1, [x21], -8
	add	x1, x0, 184
	add	x0, x0, 224
	str	x2, [x21, 16]
	stp	x1, x0, [x21, 40]
	cbz	x22, .L588
	adrp	x20, :got:__libc_single_threaded
	ldr	x0, [x20, #:got_lo12:__libc_single_threaded]
	ldrb	w0, [x0]
	cbz	w0, .L589
	ldr	w0, [x22, 8]
	sub	w1, w0, #1
	str	w1, [x22, 8]
.L590:
	cmp	w0, 1
	beq	.L649
.L588:
	add	x0, x19, 560
	bl	_ZN7openpal8TimerRefD1Ev
	ldr	x22, [x19, 168]
	cbz	x22, .L595
	adrp	x20, :got:__libc_single_threaded
	ldr	x0, [x20, #:got_lo12:__libc_single_threaded]
	ldrb	w0, [x0]
	cbz	w0, .L596
	ldr	w0, [x22, 8]
	sub	w1, w0, #1
	str	w1, [x22, 8]
.L597:
	cmp	w0, 1
	beq	.L650
.L595:
	ldr	x22, [x19, 152]
	cbz	x22, .L602
	adrp	x20, :got:__libc_single_threaded
	ldr	x0, [x20, #:got_lo12:__libc_single_threaded]
	ldrb	w0, [x0]
	cbz	w0, .L603
	ldr	w0, [x22, 8]
	sub	w1, w0, #1
	str	w1, [x22, 8]
.L604:
	cmp	w0, 1
	beq	.L651
.L602:
	ldr	x22, [x19, 136]
	cbz	x22, .L609
	adrp	x20, :got:__libc_single_threaded
	ldr	x0, [x20, #:got_lo12:__libc_single_threaded]
	ldrb	w0, [x0]
	cbz	w0, .L610
	ldr	w0, [x22, 8]
	sub	w1, w0, #1
	str	w1, [x22, 8]
.L611:
	cmp	w0, 1
	beq	.L652
.L609:
	ldr	x22, [x19, 120]
	cbz	x22, .L616
	adrp	x20, :got:__libc_single_threaded
	ldr	x0, [x20, #:got_lo12:__libc_single_threaded]
	ldrb	w0, [x0]
	cbz	w0, .L617
	ldr	w0, [x22, 8]
	sub	w1, w0, #1
	str	w1, [x22, 8]
.L618:
	cmp	w0, 1
	beq	.L653
.L616:
	ldr	x22, [x19, 104]
	cbz	x22, .L623
	adrp	x20, :got:__libc_single_threaded
	ldr	x0, [x20, #:got_lo12:__libc_single_threaded]
	ldrb	w0, [x0]
	cbz	w0, .L624
	ldr	w0, [x22, 8]
	sub	w1, w0, #1
	str	w1, [x22, 8]
.L625:
	cmp	w0, 1
	beq	.L654
.L623:
	ldr	x22, [x19, 80]
	cbz	x22, .L630
	adrp	x20, :got:__libc_single_threaded
	ldr	x0, [x20, #:got_lo12:__libc_single_threaded]
	ldrb	w0, [x0]
	cbz	w0, .L631
	ldr	w0, [x22, 8]
	sub	w1, w0, #1
	str	w1, [x22, 8]
.L632:
	cmp	w0, 1
	beq	.L655
.L630:
	ldr	x22, [x19, 64]
	cbz	x22, .L637
	adrp	x20, :got:__libc_single_threaded
	ldr	x0, [x20, #:got_lo12:__libc_single_threaded]
	ldrb	w0, [x0]
	cbz	w0, .L638
	ldr	w0, [x22, 8]
	sub	w1, w0, #1
	str	w1, [x22, 8]
.L639:
	cmp	w0, 1
	beq	.L656
.L637:
	ldr	x19, [x19, 24]
	cbz	x19, .L644
	adrp	x0, :got:__libc_single_threaded
	ldr	x0, [x0, #:got_lo12:__libc_single_threaded]
	ldrb	w0, [x0]
	cbz	w0, .L645
	ldr	w0, [x19, 12]
	sub	w1, w0, #1
	str	w1, [x19, 12]
.L646:
	cmp	w0, 1
	beq	.L657
.L644:
	mov	x0, x21
	mov	x1, 608
	ldp	x19, x20, [sp, 16]
	ldp	x21, x22, [sp, 32]
	ldp	x29, x30, [sp], 48
	.cfi_remember_state
	.cfi_restore 30
	.cfi_restore 29
	.cfi_restore 21
	.cfi_restore 22
	.cfi_restore 19
	.cfi_restore 20
	.cfi_def_cfa_offset 0
	b	_ZdlPvm
	.p2align 2,,3
.L649:
	.cfi_restore_state
	ldr	x1, [x22]
	mov	x0, x22
	ldr	x1, [x1, 16]
	blr	x1
	ldr	x20, [x20, #:got_lo12:__libc_single_threaded]
	ldrb	w0, [x20]
	cbz	w0, .L592
	ldr	w0, [x22, 12]
	sub	w1, w0, #1
	str	w1, [x22, 12]
.L593:
	cmp	w0, 1
	bne	.L588
	ldr	x1, [x22]
	mov	x0, x22
	ldr	x1, [x1, 24]
	blr	x1
	b	.L588
	.p2align 2,,3
.L650:
	ldr	x1, [x22]
	mov	x0, x22
	ldr	x1, [x1, 16]
	blr	x1
	ldr	x20, [x20, #:got_lo12:__libc_single_threaded]
	ldrb	w0, [x20]
	cbz	w0, .L599
	ldr	w0, [x22, 12]
	sub	w1, w0, #1
	str	w1, [x22, 12]
.L600:
	cmp	w0, 1
	bne	.L595
	ldr	x1, [x22]
	mov	x0, x22
	ldr	x1, [x1, 24]
	blr	x1
	b	.L595
	.p2align 2,,3
.L651:
	ldr	x1, [x22]
	mov	x0, x22
	ldr	x1, [x1, 16]
	blr	x1
	ldr	x20, [x20, #:got_lo12:__libc_single_threaded]
	ldrb	w0, [x20]
	cbz	w0, .L606
	ldr	w0, [x22, 12]
	sub	w1, w0, #1
	str	w1, [x22, 12]
.L607:
	cmp	w0, 1
	bne	.L602
	ldr	x1, [x22]
	mov	x0, x22
	ldr	x1, [x1, 24]
	blr	x1
	b	.L602
	.p2align 2,,3
.L655:
	ldr	x1, [x22]
	mov	x0, x22
	ldr	x1, [x1, 16]
	blr	x1
	ldr	x20, [x20, #:got_lo12:__libc_single_threaded]
	ldrb	w0, [x20]
	cbz	w0, .L634
	ldr	w0, [x22, 12]
	sub	w1, w0, #1
	str	w1, [x22, 12]
.L635:
	cmp	w0, 1
	bne	.L630
	ldr	x1, [x22]
	mov	x0, x22
	ldr	x1, [x1, 24]
	blr	x1
	b	.L630
	.p2align 2,,3
.L653:
	ldr	x1, [x22]
	mov	x0, x22
	ldr	x1, [x1, 16]
	blr	x1
	ldr	x20, [x20, #:got_lo12:__libc_single_threaded]
	ldrb	w0, [x20]
	cbz	w0, .L620
	ldr	w0, [x22, 12]
	sub	w1, w0, #1
	str	w1, [x22, 12]
.L621:
	cmp	w0, 1
	bne	.L616
	ldr	x1, [x22]
	mov	x0, x22
	ldr	x1, [x1, 24]
	blr	x1
	b	.L616
	.p2align 2,,3
.L657:
	ldr	x1, [x19]
	mov	x0, x19
	ldr	x1, [x1, 24]
	blr	x1
	mov	x0, x21
	mov	x1, 608
	ldp	x19, x20, [sp, 16]
	ldp	x21, x22, [sp, 32]
	ldp	x29, x30, [sp], 48
	.cfi_remember_state
	.cfi_restore 30
	.cfi_restore 29
	.cfi_restore 21
	.cfi_restore 22
	.cfi_restore 19
	.cfi_restore 20
	.cfi_def_cfa_offset 0
	b	_ZdlPvm
	.p2align 2,,3
.L652:
	.cfi_restore_state
	ldr	x1, [x22]
	mov	x0, x22
	ldr	x1, [x1, 16]
	blr	x1
	ldr	x20, [x20, #:got_lo12:__libc_single_threaded]
	ldrb	w0, [x20]
	cbz	w0, .L613
	ldr	w0, [x22, 12]
	sub	w1, w0, #1
	str	w1, [x22, 12]
.L614:
	cmp	w0, 1
	bne	.L609
	ldr	x1, [x22]
	mov	x0, x22
	ldr	x1, [x1, 24]
	blr	x1
	b	.L609
	.p2align 2,,3
.L654:
	ldr	x1, [x22]
	mov	x0, x22
	ldr	x1, [x1, 16]
	blr	x1
	ldr	x20, [x20, #:got_lo12:__libc_single_threaded]
	ldrb	w0, [x20]
	cbz	w0, .L627
	ldr	w0, [x22, 12]
	sub	w1, w0, #1
	str	w1, [x22, 12]
.L628:
	cmp	w0, 1
	bne	.L623
	ldr	x1, [x22]
	mov	x0, x22
	ldr	x1, [x1, 24]
	blr	x1
	b	.L623
	.p2align 2,,3
.L656:
	ldr	x1, [x22]
	mov	x0, x22
	ldr	x1, [x1, 16]
	blr	x1
	ldr	x20, [x20, #:got_lo12:__libc_single_threaded]
	ldrb	w0, [x20]
	cbz	w0, .L641
	ldr	w0, [x22, 12]
	sub	w1, w0, #1
	str	w1, [x22, 12]
.L642:
	cmp	w0, 1
	bne	.L637
	ldr	x1, [x22]
	mov	x0, x22
	ldr	x1, [x1, 24]
	blr	x1
	b	.L637
	.p2align 2,,3
.L624:
	add	x1, x22, 8
	mov	w0, -1
	bl	__aarch64_ldadd4_acq_rel
	b	.L625
	.p2align 2,,3
.L617:
	add	x1, x22, 8
	mov	w0, -1
	bl	__aarch64_ldadd4_acq_rel
	b	.L618
	.p2align 2,,3
.L596:
	add	x1, x22, 8
	mov	w0, -1
	bl	__aarch64_ldadd4_acq_rel
	b	.L597
	.p2align 2,,3
.L603:
	add	x1, x22, 8
	mov	w0, -1
	bl	__aarch64_ldadd4_acq_rel
	b	.L604
	.p2align 2,,3
.L610:
	add	x1, x22, 8
	mov	w0, -1
	bl	__aarch64_ldadd4_acq_rel
	b	.L611
	.p2align 2,,3
.L645:
	add	x1, x19, 12
	mov	w0, -1
	bl	__aarch64_ldadd4_acq_rel
	b	.L646
	.p2align 2,,3
.L638:
	add	x1, x22, 8
	mov	w0, -1
	bl	__aarch64_ldadd4_acq_rel
	b	.L639
	.p2align 2,,3
.L589:
	add	x1, x22, 8
	mov	w0, -1
	bl	__aarch64_ldadd4_acq_rel
	b	.L590
	.p2align 2,,3
.L631:
	add	x1, x22, 8
	mov	w0, -1
	bl	__aarch64_ldadd4_acq_rel
	b	.L632
	.p2align 2,,3
.L620:
	add	x1, x22, 12
	mov	w0, -1
	bl	__aarch64_ldadd4_acq_rel
	b	.L621
	.p2align 2,,3
.L641:
	add	x1, x22, 12
	mov	w0, -1
	bl	__aarch64_ldadd4_acq_rel
	b	.L642
	.p2align 2,,3
.L606:
	add	x1, x22, 12
	mov	w0, -1
	bl	__aarch64_ldadd4_acq_rel
	b	.L607
	.p2align 2,,3
.L627:
	add	x1, x22, 12
	mov	w0, -1
	bl	__aarch64_ldadd4_acq_rel
	b	.L628
	.p2align 2,,3
.L592:
	add	x1, x22, 12
	mov	w0, -1
	bl	__aarch64_ldadd4_acq_rel
	b	.L593
	.p2align 2,,3
.L599:
	add	x1, x22, 12
	mov	w0, -1
	bl	__aarch64_ldadd4_acq_rel
	b	.L600
	.p2align 2,,3
.L634:
	add	x1, x22, 12
	mov	w0, -1
	bl	__aarch64_ldadd4_acq_rel
	b	.L635
	.p2align 2,,3
.L613:
	add	x1, x22, 12
	mov	w0, -1
	bl	__aarch64_ldadd4_acq_rel
	b	.L614
	.cfi_endproc
.LFE10696:
	.size	_ZThn8_N8asiodnp311LinkSessionD0Ev, .-_ZThn8_N8asiodnp311LinkSessionD0Ev
	.align	2
	.p2align 4,,11
	.weak	_ZN8asiodnp311LinkSessionD0Ev
	.type	_ZN8asiodnp311LinkSessionD0Ev, %function
_ZN8asiodnp311LinkSessionD0Ev:
.LFB10480:
	.cfi_startproc
	stp	x29, x30, [sp, -48]!
	.cfi_def_cfa_offset 48
	.cfi_offset 29, -48
	.cfi_offset 30, -40
	adrp	x1, :got:_ZTVN8asiodnp311LinkSessionE
	mov	x29, sp
	stp	x19, x20, [sp, 16]
	.cfi_offset 19, -32
	.cfi_offset 20, -24
	mov	x19, x0
	ldr	x0, [x1, #:got_lo12:_ZTVN8asiodnp311LinkSessionE]
	str	x21, [sp, 32]
	.cfi_offset 21, -16
	ldr	x21, [x19, 600]
	add	x4, x0, 16
	add	x3, x0, 96
	add	x2, x0, 144
	add	x1, x0, 184
	add	x0, x0, 224
	stp	x4, x3, [x19]
	str	x2, [x19, 16]
	stp	x1, x0, [x19, 40]
	cbz	x21, .L660
	adrp	x20, :got:__libc_single_threaded
	ldr	x0, [x20, #:got_lo12:__libc_single_threaded]
	ldrb	w0, [x0]
	cbz	w0, .L661
	ldr	w0, [x21, 8]
	sub	w1, w0, #1
	str	w1, [x21, 8]
.L662:
	cmp	w0, 1
	beq	.L721
.L660:
	add	x0, x19, 568
	bl	_ZN7openpal8TimerRefD1Ev
	ldr	x21, [x19, 176]
	cbz	x21, .L667
	adrp	x20, :got:__libc_single_threaded
	ldr	x0, [x20, #:got_lo12:__libc_single_threaded]
	ldrb	w0, [x0]
	cbz	w0, .L668
	ldr	w0, [x21, 8]
	sub	w1, w0, #1
	str	w1, [x21, 8]
.L669:
	cmp	w0, 1
	beq	.L722
.L667:
	ldr	x21, [x19, 160]
	cbz	x21, .L674
	adrp	x20, :got:__libc_single_threaded
	ldr	x0, [x20, #:got_lo12:__libc_single_threaded]
	ldrb	w0, [x0]
	cbz	w0, .L675
	ldr	w0, [x21, 8]
	sub	w1, w0, #1
	str	w1, [x21, 8]
.L676:
	cmp	w0, 1
	beq	.L723
.L674:
	ldr	x21, [x19, 144]
	cbz	x21, .L681
	adrp	x20, :got:__libc_single_threaded
	ldr	x0, [x20, #:got_lo12:__libc_single_threaded]
	ldrb	w0, [x0]
	cbz	w0, .L682
	ldr	w0, [x21, 8]
	sub	w1, w0, #1
	str	w1, [x21, 8]
.L683:
	cmp	w0, 1
	beq	.L724
.L681:
	ldr	x21, [x19, 128]
	cbz	x21, .L688
	adrp	x20, :got:__libc_single_threaded
	ldr	x0, [x20, #:got_lo12:__libc_single_threaded]
	ldrb	w0, [x0]
	cbz	w0, .L689
	ldr	w0, [x21, 8]
	sub	w1, w0, #1
	str	w1, [x21, 8]
.L690:
	cmp	w0, 1
	beq	.L725
.L688:
	ldr	x21, [x19, 112]
	cbz	x21, .L695
	adrp	x20, :got:__libc_single_threaded
	ldr	x0, [x20, #:got_lo12:__libc_single_threaded]
	ldrb	w0, [x0]
	cbz	w0, .L696
	ldr	w0, [x21, 8]
	sub	w1, w0, #1
	str	w1, [x21, 8]
.L697:
	cmp	w0, 1
	beq	.L726
.L695:
	ldr	x21, [x19, 88]
	cbz	x21, .L702
	adrp	x20, :got:__libc_single_threaded
	ldr	x0, [x20, #:got_lo12:__libc_single_threaded]
	ldrb	w0, [x0]
	cbz	w0, .L703
	ldr	w0, [x21, 8]
	sub	w1, w0, #1
	str	w1, [x21, 8]
.L704:
	cmp	w0, 1
	beq	.L727
.L702:
	ldr	x21, [x19, 72]
	cbz	x21, .L709
	adrp	x20, :got:__libc_single_threaded
	ldr	x0, [x20, #:got_lo12:__libc_single_threaded]
	ldrb	w0, [x0]
	cbz	w0, .L710
	ldr	w0, [x21, 8]
	sub	w1, w0, #1
	str	w1, [x21, 8]
.L711:
	cmp	w0, 1
	beq	.L728
.L709:
	ldr	x20, [x19, 32]
	cbz	x20, .L716
	adrp	x0, :got:__libc_single_threaded
	ldr	x0, [x0, #:got_lo12:__libc_single_threaded]
	ldrb	w0, [x0]
	cbz	w0, .L717
	ldr	w0, [x20, 12]
	sub	w1, w0, #1
	str	w1, [x20, 12]
.L718:
	cmp	w0, 1
	beq	.L729
.L716:
	mov	x0, x19
	mov	x1, 608
	ldp	x19, x20, [sp, 16]
	ldr	x21, [sp, 32]
	ldp	x29, x30, [sp], 48
	.cfi_remember_state
	.cfi_restore 30
	.cfi_restore 29
	.cfi_restore 21
	.cfi_restore 19
	.cfi_restore 20
	.cfi_def_cfa_offset 0
	b	_ZdlPvm
	.p2align 2,,3
.L721:
	.cfi_restore_state
	ldr	x1, [x21]
	mov	x0, x21
	ldr	x1, [x1, 16]
	blr	x1
	ldr	x20, [x20, #:got_lo12:__libc_single_threaded]
	ldrb	w0, [x20]
	cbz	w0, .L664
	ldr	w0, [x21, 12]
	sub	w1, w0, #1
	str	w1, [x21, 12]
.L665:
	cmp	w0, 1
	bne	.L660
	ldr	x1, [x21]
	mov	x0, x21
	ldr	x1, [x1, 24]
	blr	x1
	b	.L660
	.p2align 2,,3
.L722:
	ldr	x1, [x21]
	mov	x0, x21
	ldr	x1, [x1, 16]
	blr	x1
	ldr	x20, [x20, #:got_lo12:__libc_single_threaded]
	ldrb	w0, [x20]
	cbz	w0, .L671
	ldr	w0, [x21, 12]
	sub	w1, w0, #1
	str	w1, [x21, 12]
.L672:
	cmp	w0, 1
	bne	.L667
	ldr	x1, [x21]
	mov	x0, x21
	ldr	x1, [x1, 24]
	blr	x1
	b	.L667
	.p2align 2,,3
.L723:
	ldr	x1, [x21]
	mov	x0, x21
	ldr	x1, [x1, 16]
	blr	x1
	ldr	x20, [x20, #:got_lo12:__libc_single_threaded]
	ldrb	w0, [x20]
	cbz	w0, .L678
	ldr	w0, [x21, 12]
	sub	w1, w0, #1
	str	w1, [x21, 12]
.L679:
	cmp	w0, 1
	bne	.L674
	ldr	x1, [x21]
	mov	x0, x21
	ldr	x1, [x1, 24]
	blr	x1
	b	.L674
	.p2align 2,,3
.L727:
	ldr	x1, [x21]
	mov	x0, x21
	ldr	x1, [x1, 16]
	blr	x1
	ldr	x20, [x20, #:got_lo12:__libc_single_threaded]
	ldrb	w0, [x20]
	cbz	w0, .L706
	ldr	w0, [x21, 12]
	sub	w1, w0, #1
	str	w1, [x21, 12]
.L707:
	cmp	w0, 1
	bne	.L702
	ldr	x1, [x21]
	mov	x0, x21
	ldr	x1, [x1, 24]
	blr	x1
	b	.L702
	.p2align 2,,3
.L725:
	ldr	x1, [x21]
	mov	x0, x21
	ldr	x1, [x1, 16]
	blr	x1
	ldr	x20, [x20, #:got_lo12:__libc_single_threaded]
	ldrb	w0, [x20]
	cbz	w0, .L692
	ldr	w0, [x21, 12]
	sub	w1, w0, #1
	str	w1, [x21, 12]
.L693:
	cmp	w0, 1
	bne	.L688
	ldr	x1, [x21]
	mov	x0, x21
	ldr	x1, [x1, 24]
	blr	x1
	b	.L688
	.p2align 2,,3
.L729:
	ldr	x1, [x20]
	mov	x0, x20
	ldr	x1, [x1, 24]
	blr	x1
	mov	x0, x19
	mov	x1, 608
	ldp	x19, x20, [sp, 16]
	ldr	x21, [sp, 32]
	ldp	x29, x30, [sp], 48
	.cfi_remember_state
	.cfi_restore 30
	.cfi_restore 29
	.cfi_restore 21
	.cfi_restore 19
	.cfi_restore 20
	.cfi_def_cfa_offset 0
	b	_ZdlPvm
	.p2align 2,,3
.L724:
	.cfi_restore_state
	ldr	x1, [x21]
	mov	x0, x21
	ldr	x1, [x1, 16]
	blr	x1
	ldr	x20, [x20, #:got_lo12:__libc_single_threaded]
	ldrb	w0, [x20]
	cbz	w0, .L685
	ldr	w0, [x21, 12]
	sub	w1, w0, #1
	str	w1, [x21, 12]
.L686:
	cmp	w0, 1
	bne	.L681
	ldr	x1, [x21]
	mov	x0, x21
	ldr	x1, [x1, 24]
	blr	x1
	b	.L681
	.p2align 2,,3
.L726:
	ldr	x1, [x21]
	mov	x0, x21
	ldr	x1, [x1, 16]
	blr	x1
	ldr	x20, [x20, #:got_lo12:__libc_single_threaded]
	ldrb	w0, [x20]
	cbz	w0, .L699
	ldr	w0, [x21, 12]
	sub	w1, w0, #1
	str	w1, [x21, 12]
.L700:
	cmp	w0, 1
	bne	.L695
	ldr	x1, [x21]
	mov	x0, x21
	ldr	x1, [x1, 24]
	blr	x1
	b	.L695
	.p2align 2,,3
.L728:
	ldr	x1, [x21]
	mov	x0, x21
	ldr	x1, [x1, 16]
	blr	x1
	ldr	x20, [x20, #:got_lo12:__libc_single_threaded]
	ldrb	w0, [x20]
	cbz	w0, .L713
	ldr	w0, [x21, 12]
	sub	w1, w0, #1
	str	w1, [x21, 12]
.L714:
	cmp	w0, 1
	bne	.L709
	ldr	x1, [x21]
	mov	x0, x21
	ldr	x1, [x1, 24]
	blr	x1
	b	.L709
	.p2align 2,,3
.L696:
	add	x1, x21, 8
	mov	w0, -1
	bl	__aarch64_ldadd4_acq_rel
	b	.L697
	.p2align 2,,3
.L689:
	add	x1, x21, 8
	mov	w0, -1
	bl	__aarch64_ldadd4_acq_rel
	b	.L690
	.p2align 2,,3
.L668:
	add	x1, x21, 8
	mov	w0, -1
	bl	__aarch64_ldadd4_acq_rel
	b	.L669
	.p2align 2,,3
.L675:
	add	x1, x21, 8
	mov	w0, -1
	bl	__aarch64_ldadd4_acq_rel
	b	.L676
	.p2align 2,,3
.L682:
	add	x1, x21, 8
	mov	w0, -1
	bl	__aarch64_ldadd4_acq_rel
	b	.L683
	.p2align 2,,3
.L717:
	add	x1, x20, 12
	mov	w0, -1
	bl	__aarch64_ldadd4_acq_rel
	b	.L718
	.p2align 2,,3
.L710:
	add	x1, x21, 8
	mov	w0, -1
	bl	__aarch64_ldadd4_acq_rel
	b	.L711
	.p2align 2,,3
.L661:
	add	x1, x21, 8
	mov	w0, -1
	bl	__aarch64_ldadd4_acq_rel
	b	.L662
	.p2align 2,,3
.L703:
	add	x1, x21, 8
	mov	w0, -1
	bl	__aarch64_ldadd4_acq_rel
	b	.L704
	.p2align 2,,3
.L692:
	add	x1, x21, 12
	mov	w0, -1
	bl	__aarch64_ldadd4_acq_rel
	b	.L693
	.p2align 2,,3
.L713:
	add	x1, x21, 12
	mov	w0, -1
	bl	__aarch64_ldadd4_acq_rel
	b	.L714
	.p2align 2,,3
.L678:
	add	x1, x21, 12
	mov	w0, -1
	bl	__aarch64_ldadd4_acq_rel
	b	.L679
	.p2align 2,,3
.L699:
	add	x1, x21, 12
	mov	w0, -1
	bl	__aarch64_ldadd4_acq_rel
	b	.L700
	.p2align 2,,3
.L664:
	add	x1, x21, 12
	mov	w0, -1
	bl	__aarch64_ldadd4_acq_rel
	b	.L665
	.p2align 2,,3
.L671:
	add	x1, x21, 12
	mov	w0, -1
	bl	__aarch64_ldadd4_acq_rel
	b	.L672
	.p2align 2,,3
.L706:
	add	x1, x21, 12
	mov	w0, -1
	bl	__aarch64_ldadd4_acq_rel
	b	.L707
	.p2align 2,,3
.L685:
	add	x1, x21, 12
	mov	w0, -1
	bl	__aarch64_ldadd4_acq_rel
	b	.L686
	.cfi_endproc
.LFE10480:
	.size	_ZN8asiodnp311LinkSessionD0Ev, .-_ZN8asiodnp311LinkSessionD0Ev
	.section	.text._ZN8asiodnp311LinkSessionD2Ev,"axG",@progbits,_ZN8asiodnp311LinkSessionD5Ev,comdat
	.align	2
	.p2align 4,,11
	.weak	_ZN8asiodnp311LinkSessionD2Ev
	.type	_ZN8asiodnp311LinkSessionD2Ev, %function
_ZN8asiodnp311LinkSessionD2Ev:
.LFB10478:
	.cfi_startproc
	stp	x29, x30, [sp, -48]!
	.cfi_def_cfa_offset 48
	.cfi_offset 29, -48
	.cfi_offset 30, -40
	adrp	x1, :got:_ZTVN8asiodnp311LinkSessionE
	mov	x29, sp
	stp	x19, x20, [sp, 16]
	.cfi_offset 19, -32
	.cfi_offset 20, -24
	mov	x19, x0
	ldr	x0, [x1, #:got_lo12:_ZTVN8asiodnp311LinkSessionE]
	str	x21, [sp, 32]
	.cfi_offset 21, -16
	ldr	x21, [x19, 600]
	add	x4, x0, 16
	add	x3, x0, 96
	add	x2, x0, 144
	add	x1, x0, 184
	add	x0, x0, 224
	stp	x4, x3, [x19]
	str	x2, [x19, 16]
	stp	x1, x0, [x19, 40]
	cbz	x21, .L732
	adrp	x20, :got:__libc_single_threaded
	ldr	x0, [x20, #:got_lo12:__libc_single_threaded]
	ldrb	w0, [x0]
	cbz	w0, .L733
	ldr	w0, [x21, 8]
	sub	w1, w0, #1
	str	w1, [x21, 8]
.L734:
	cmp	w0, 1
	beq	.L793
.L732:
	add	x0, x19, 568
	bl	_ZN7openpal8TimerRefD1Ev
	ldr	x21, [x19, 176]
	cbz	x21, .L739
	adrp	x20, :got:__libc_single_threaded
	ldr	x0, [x20, #:got_lo12:__libc_single_threaded]
	ldrb	w0, [x0]
	cbz	w0, .L740
	ldr	w0, [x21, 8]
	sub	w1, w0, #1
	str	w1, [x21, 8]
.L741:
	cmp	w0, 1
	beq	.L794
.L739:
	ldr	x21, [x19, 160]
	cbz	x21, .L746
	adrp	x20, :got:__libc_single_threaded
	ldr	x0, [x20, #:got_lo12:__libc_single_threaded]
	ldrb	w0, [x0]
	cbz	w0, .L747
	ldr	w0, [x21, 8]
	sub	w1, w0, #1
	str	w1, [x21, 8]
.L748:
	cmp	w0, 1
	beq	.L795
.L746:
	ldr	x21, [x19, 144]
	cbz	x21, .L753
	adrp	x20, :got:__libc_single_threaded
	ldr	x0, [x20, #:got_lo12:__libc_single_threaded]
	ldrb	w0, [x0]
	cbz	w0, .L754
	ldr	w0, [x21, 8]
	sub	w1, w0, #1
	str	w1, [x21, 8]
.L755:
	cmp	w0, 1
	beq	.L796
.L753:
	ldr	x21, [x19, 128]
	cbz	x21, .L760
	adrp	x20, :got:__libc_single_threaded
	ldr	x0, [x20, #:got_lo12:__libc_single_threaded]
	ldrb	w0, [x0]
	cbz	w0, .L761
	ldr	w0, [x21, 8]
	sub	w1, w0, #1
	str	w1, [x21, 8]
.L762:
	cmp	w0, 1
	beq	.L797
.L760:
	ldr	x21, [x19, 112]
	cbz	x21, .L767
	adrp	x20, :got:__libc_single_threaded
	ldr	x0, [x20, #:got_lo12:__libc_single_threaded]
	ldrb	w0, [x0]
	cbz	w0, .L768
	ldr	w0, [x21, 8]
	sub	w1, w0, #1
	str	w1, [x21, 8]
.L769:
	cmp	w0, 1
	beq	.L798
.L767:
	ldr	x21, [x19, 88]
	cbz	x21, .L774
	adrp	x20, :got:__libc_single_threaded
	ldr	x0, [x20, #:got_lo12:__libc_single_threaded]
	ldrb	w0, [x0]
	cbz	w0, .L775
	ldr	w0, [x21, 8]
	sub	w1, w0, #1
	str	w1, [x21, 8]
.L776:
	cmp	w0, 1
	beq	.L799
.L774:
	ldr	x21, [x19, 72]
	cbz	x21, .L781
	adrp	x20, :got:__libc_single_threaded
	ldr	x0, [x20, #:got_lo12:__libc_single_threaded]
	ldrb	w0, [x0]
	cbz	w0, .L782
	ldr	w0, [x21, 8]
	sub	w1, w0, #1
	str	w1, [x21, 8]
.L783:
	cmp	w0, 1
	beq	.L800
.L781:
	ldr	x19, [x19, 32]
	cbz	x19, .L730
	adrp	x0, :got:__libc_single_threaded
	ldr	x0, [x0, #:got_lo12:__libc_single_threaded]
	ldrb	w0, [x0]
	cbz	w0, .L789
	ldr	w0, [x19, 12]
	sub	w1, w0, #1
	str	w1, [x19, 12]
.L790:
	cmp	w0, 1
	beq	.L801
.L730:
	ldp	x19, x20, [sp, 16]
	ldr	x21, [sp, 32]
	ldp	x29, x30, [sp], 48
	.cfi_remember_state
	.cfi_restore 30
	.cfi_restore 29
	.cfi_restore 21
	.cfi_restore 19
	.cfi_restore 20
	.cfi_def_cfa_offset 0
	ret
	.p2align 2,,3
.L793:
	.cfi_restore_state
	ldr	x1, [x21]
	mov	x0, x21
	ldr	x1, [x1, 16]
	blr	x1
	ldr	x20, [x20, #:got_lo12:__libc_single_threaded]
	ldrb	w0, [x20]
	cbz	w0, .L736
	ldr	w0, [x21, 12]
	sub	w1, w0, #1
	str	w1, [x21, 12]
.L737:
	cmp	w0, 1
	bne	.L732
	ldr	x1, [x21]
	mov	x0, x21
	ldr	x1, [x1, 24]
	blr	x1
	b	.L732
	.p2align 2,,3
.L794:
	ldr	x1, [x21]
	mov	x0, x21
	ldr	x1, [x1, 16]
	blr	x1
	ldr	x20, [x20, #:got_lo12:__libc_single_threaded]
	ldrb	w0, [x20]
	cbz	w0, .L743
	ldr	w0, [x21, 12]
	sub	w1, w0, #1
	str	w1, [x21, 12]
.L744:
	cmp	w0, 1
	bne	.L739
	ldr	x1, [x21]
	mov	x0, x21
	ldr	x1, [x1, 24]
	blr	x1
	b	.L739
	.p2align 2,,3
.L795:
	ldr	x1, [x21]
	mov	x0, x21
	ldr	x1, [x1, 16]
	blr	x1
	ldr	x20, [x20, #:got_lo12:__libc_single_threaded]
	ldrb	w0, [x20]
	cbz	w0, .L750
	ldr	w0, [x21, 12]
	sub	w1, w0, #1
	str	w1, [x21, 12]
.L751:
	cmp	w0, 1
	bne	.L746
	ldr	x1, [x21]
	mov	x0, x21
	ldr	x1, [x1, 24]
	blr	x1
	b	.L746
	.p2align 2,,3
.L799:
	ldr	x1, [x21]
	mov	x0, x21
	ldr	x1, [x1, 16]
	blr	x1
	ldr	x20, [x20, #:got_lo12:__libc_single_threaded]
	ldrb	w0, [x20]
	cbz	w0, .L778
	ldr	w0, [x21, 12]
	sub	w1, w0, #1
	str	w1, [x21, 12]
.L779:
	cmp	w0, 1
	bne	.L774
	ldr	x1, [x21]
	mov	x0, x21
	ldr	x1, [x1, 24]
	blr	x1
	b	.L774
	.p2align 2,,3
.L797:
	ldr	x1, [x21]
	mov	x0, x21
	ldr	x1, [x1, 16]
	blr	x1
	ldr	x20, [x20, #:got_lo12:__libc_single_threaded]
	ldrb	w0, [x20]
	cbz	w0, .L764
	ldr	w0, [x21, 12]
	sub	w1, w0, #1
	str	w1, [x21, 12]
.L765:
	cmp	w0, 1
	bne	.L760
	ldr	x1, [x21]
	mov	x0, x21
	ldr	x1, [x1, 24]
	blr	x1
	b	.L760
	.p2align 2,,3
.L801:
	ldr	x1, [x19]
	mov	x0, x19
	ldp	x19, x20, [sp, 16]
	ldr	x21, [sp, 32]
	ldp	x29, x30, [sp], 48
	.cfi_remember_state
	.cfi_restore 30
	.cfi_restore 29
	.cfi_restore 21
	.cfi_restore 19
	.cfi_restore 20
	.cfi_def_cfa_offset 0
	ldr	x1, [x1, 24]
	mov	x16, x1
	br	x16
	.p2align 2,,3
.L796:
	.cfi_restore_state
	ldr	x1, [x21]
	mov	x0, x21
	ldr	x1, [x1, 16]
	blr	x1
	ldr	x20, [x20, #:got_lo12:__libc_single_threaded]
	ldrb	w0, [x20]
	cbz	w0, .L757
	ldr	w0, [x21, 12]
	sub	w1, w0, #1
	str	w1, [x21, 12]
.L758:
	cmp	w0, 1
	bne	.L753
	ldr	x1, [x21]
	mov	x0, x21
	ldr	x1, [x1, 24]
	blr	x1
	b	.L753
	.p2align 2,,3
.L798:
	ldr	x1, [x21]
	mov	x0, x21
	ldr	x1, [x1, 16]
	blr	x1
	ldr	x20, [x20, #:got_lo12:__libc_single_threaded]
	ldrb	w0, [x20]
	cbz	w0, .L771
	ldr	w0, [x21, 12]
	sub	w1, w0, #1
	str	w1, [x21, 12]
.L772:
	cmp	w0, 1
	bne	.L767
	ldr	x1, [x21]
	mov	x0, x21
	ldr	x1, [x1, 24]
	blr	x1
	b	.L767
	.p2align 2,,3
.L800:
	ldr	x1, [x21]
	mov	x0, x21
	ldr	x1, [x1, 16]
	blr	x1
	ldr	x20, [x20, #:got_lo12:__libc_single_threaded]
	ldrb	w0, [x20]
	cbz	w0, .L785
	ldr	w0, [x21, 12]
	sub	w1, w0, #1
	str	w1, [x21, 12]
.L786:
	cmp	w0, 1
	bne	.L781
	ldr	x1, [x21]
	mov	x0, x21
	ldr	x1, [x1, 24]
	blr	x1
	b	.L781
	.p2align 2,,3
.L768:
	add	x1, x21, 8
	mov	w0, -1
	bl	__aarch64_ldadd4_acq_rel
	b	.L769
	.p2align 2,,3
.L761:
	add	x1, x21, 8
	mov	w0, -1
	bl	__aarch64_ldadd4_acq_rel
	b	.L762
	.p2align 2,,3
.L740:
	add	x1, x21, 8
	mov	w0, -1
	bl	__aarch64_ldadd4_acq_rel
	b	.L741
	.p2align 2,,3
.L747:
	add	x1, x21, 8
	mov	w0, -1
	bl	__aarch64_ldadd4_acq_rel
	b	.L748
	.p2align 2,,3
.L754:
	add	x1, x21, 8
	mov	w0, -1
	bl	__aarch64_ldadd4_acq_rel
	b	.L755
	.p2align 2,,3
.L789:
	add	x1, x19, 12
	mov	w0, -1
	bl	__aarch64_ldadd4_acq_rel
	b	.L790
	.p2align 2,,3
.L782:
	add	x1, x21, 8
	mov	w0, -1
	bl	__aarch64_ldadd4_acq_rel
	b	.L783
	.p2align 2,,3
.L733:
	add	x1, x21, 8
	mov	w0, -1
	bl	__aarch64_ldadd4_acq_rel
	b	.L734
	.p2align 2,,3
.L775:
	add	x1, x21, 8
	mov	w0, -1
	bl	__aarch64_ldadd4_acq_rel
	b	.L776
	.p2align 2,,3
.L764:
	add	x1, x21, 12
	mov	w0, -1
	bl	__aarch64_ldadd4_acq_rel
	b	.L765
	.p2align 2,,3
.L785:
	add	x1, x21, 12
	mov	w0, -1
	bl	__aarch64_ldadd4_acq_rel
	b	.L786
	.p2align 2,,3
.L750:
	add	x1, x21, 12
	mov	w0, -1
	bl	__aarch64_ldadd4_acq_rel
	b	.L751
	.p2align 2,,3
.L771:
	add	x1, x21, 12
	mov	w0, -1
	bl	__aarch64_ldadd4_acq_rel
	b	.L772
	.p2align 2,,3
.L736:
	add	x1, x21, 12
	mov	w0, -1
	bl	__aarch64_ldadd4_acq_rel
	b	.L737
	.p2align 2,,3
.L743:
	add	x1, x21, 12
	mov	w0, -1
	bl	__aarch64_ldadd4_acq_rel
	b	.L744
	.p2align 2,,3
.L778:
	add	x1, x21, 12
	mov	w0, -1
	bl	__aarch64_ldadd4_acq_rel
	b	.L779
	.p2align 2,,3
.L757:
	add	x1, x21, 12
	mov	w0, -1
	bl	__aarch64_ldadd4_acq_rel
	b	.L758
	.cfi_endproc
.LFE10478:
	.size	_ZN8asiodnp311LinkSessionD2Ev, .-_ZN8asiodnp311LinkSessionD2Ev
	.weak	_ZN8asiodnp311LinkSessionD1Ev
	.set	_ZN8asiodnp311LinkSessionD1Ev,_ZN8asiodnp311LinkSessionD2Ev
	.text
	.align	2
	.p2align 4,,11
	.type	_ZNSt17_Function_handlerIFvvEZN8asiodnp311LinkSession8ShutdownEvEUlvE_E10_M_managerERSt9_Any_dataRKS5_St18_Manager_operation, %function
_ZNSt17_Function_handlerIFvvEZN8asiodnp311LinkSession8ShutdownEvEUlvE_E10_M_managerERSt9_Any_dataRKS5_St18_Manager_operation:
.LFB9377:
	.cfi_startproc
	stp	x29, x30, [sp, -48]!
	.cfi_def_cfa_offset 48
	.cfi_offset 29, -48
	.cfi_offset 30, -40
	mov	x29, sp
	stp	x19, x20, [sp, 16]
	.cfi_offset 19, -32
	.cfi_offset 20, -24
	mov	x19, x0
	cbz	w2, .L803
	cmp	w2, 1
	beq	.L804
	cmp	w2, 2
	beq	.L807
	cmp	w2, 3
	bne	.L806
	ldr	x19, [x0]
	cbz	x19, .L806
	ldr	x20, [x19, 8]
	cbz	x20, .L812
	str	x21, [sp, 32]
	.cfi_offset 21, -16
	adrp	x21, :got:__libc_single_threaded
	ldr	x0, [x21, #:got_lo12:__libc_single_threaded]
	ldrb	w0, [x0]
	cbz	w0, .L813
	ldr	w0, [x20, 8]
	sub	w1, w0, #1
	str	w1, [x20, 8]
.L814:
	cmp	w0, 1
	beq	.L828
.L827:
	ldr	x21, [sp, 32]
	.cfi_restore 21
.L812:
	mov	x0, x19
	mov	x1, 16
	bl	_ZdlPvm
.L806:
	mov	w0, 0
	ldp	x19, x20, [sp, 16]
	ldp	x29, x30, [sp], 48
	.cfi_remember_state
	.cfi_restore 30
	.cfi_restore 29
	.cfi_restore 19
	.cfi_restore 20
	.cfi_def_cfa_offset 0
	ret
	.p2align 2,,3
.L803:
	.cfi_restore_state
	adrp	x0, .LANCHOR0
	add	x0, x0, :lo12:.LANCHOR0
	str	x0, [x19]
	mov	w0, 0
	ldp	x19, x20, [sp, 16]
	ldp	x29, x30, [sp], 48
	.cfi_remember_state
	.cfi_restore 30
	.cfi_restore 29
	.cfi_restore 19
	.cfi_restore 20
	.cfi_def_cfa_offset 0
	ret
	.p2align 2,,3
.L804:
	.cfi_restore_state
	ldr	x0, [x1]
	str	x0, [x19]
	mov	w0, 0
	ldp	x19, x20, [sp, 16]
	ldp	x29, x30, [sp], 48
	.cfi_remember_state
	.cfi_restore 30
	.cfi_restore 29
	.cfi_restore 19
	.cfi_restore 20
	.cfi_def_cfa_offset 0
	ret
	.p2align 2,,3
.L807:
	.cfi_restore_state
	str	x21, [sp, 32]
	.cfi_offset 21, -16
	mov	x0, 16
	ldr	x21, [x1]
	bl	_Znwm
	mov	x20, x0
	ldr	q0, [x21]
	umov	x1, v0.d[1]
	str	q0, [x0]
	cbz	x1, .L809
	adrp	x0, :got:__libc_single_threaded
	ldr	x0, [x0, #:got_lo12:__libc_single_threaded]
	ldrb	w0, [x0]
	cbz	w0, .L810
	ldr	w0, [x1, 8]
	add	w0, w0, 1
	str	w0, [x1, 8]
.L809:
	ldr	x21, [sp, 32]
	.cfi_remember_state
	.cfi_restore 21
	str	x20, [x19]
	b	.L806
.L828:
	.cfi_restore_state
	ldr	x1, [x20]
	mov	x0, x20
	ldr	x1, [x1, 16]
	blr	x1
	ldr	x21, [x21, #:got_lo12:__libc_single_threaded]
	ldrb	w0, [x21]
	cbz	w0, .L816
	ldr	w0, [x20, 12]
	sub	w1, w0, #1
	str	w1, [x20, 12]
.L817:
	cmp	w0, 1
	bne	.L827
	ldr	x1, [x20]
	mov	x0, x20
	ldr	x1, [x1, 24]
	blr	x1
	ldr	x21, [sp, 32]
	.cfi_remember_state
	.cfi_restore 21
	b	.L812
	.p2align 2,,3
.L810:
	.cfi_restore_state
	add	x1, x1, 8
	mov	w0, 1
	bl	__aarch64_ldadd4_acq_rel
	b	.L809
.L813:
	add	x1, x20, 8
	mov	w0, -1
	bl	__aarch64_ldadd4_acq_rel
	b	.L814
.L816:
	add	x1, x20, 12
	mov	w0, -1
	bl	__aarch64_ldadd4_acq_rel
	b	.L817
	.cfi_endproc
.LFE9377:
	.size	_ZNSt17_Function_handlerIFvvEZN8asiodnp311LinkSession8ShutdownEvEUlvE_E10_M_managerERSt9_Any_dataRKS5_St18_Manager_operation, .-_ZNSt17_Function_handlerIFvvEZN8asiodnp311LinkSession8ShutdownEvEUlvE_E10_M_managerERSt9_Any_dataRKS5_St18_Manager_operation
	.align	2
	.p2align 4,,11
	.type	_ZNSt17_Function_handlerIFvvEZN7openpal8TimerRef5StartIZN8asiodnp311LinkSession5StartEvEUlvE_EEbRKNS1_12TimeDurationERKT_EUlvE_E10_M_managerERSt9_Any_dataRKSF_St18_Manager_operation, %function
_ZNSt17_Function_handlerIFvvEZN7openpal8TimerRef5StartIZN8asiodnp311LinkSession5StartEvEUlvE_EEbRKNS1_12TimeDurationERKT_EUlvE_E10_M_managerERSt9_Any_dataRKSF_St18_Manager_operation:
.LFB9730:
	.cfi_startproc
	stp	x29, x30, [sp, -48]!
	.cfi_def_cfa_offset 48
	.cfi_offset 29, -48
	.cfi_offset 30, -40
	mov	x29, sp
	stp	x19, x20, [sp, 16]
	.cfi_offset 19, -32
	.cfi_offset 20, -24
	mov	x19, x0
	cbz	w2, .L830
	cmp	w2, 1
	beq	.L831
	cmp	w2, 2
	beq	.L834
	cmp	w2, 3
	bne	.L833
	ldr	x19, [x0]
	cbz	x19, .L833
	ldr	x20, [x19, 16]
	cbz	x20, .L839
	str	x21, [sp, 32]
	.cfi_offset 21, -16
	adrp	x21, :got:__libc_single_threaded
	ldr	x0, [x21, #:got_lo12:__libc_single_threaded]
	ldrb	w0, [x0]
	cbz	w0, .L840
	ldr	w0, [x20, 8]
	sub	w1, w0, #1
	str	w1, [x20, 8]
.L841:
	cmp	w0, 1
	beq	.L855
.L854:
	ldr	x21, [sp, 32]
	.cfi_restore 21
.L839:
	mov	x0, x19
	mov	x1, 24
	bl	_ZdlPvm
.L833:
	mov	w0, 0
	ldp	x19, x20, [sp, 16]
	ldp	x29, x30, [sp], 48
	.cfi_remember_state
	.cfi_restore 30
	.cfi_restore 29
	.cfi_restore 19
	.cfi_restore 20
	.cfi_def_cfa_offset 0
	ret
	.p2align 2,,3
.L830:
	.cfi_restore_state
	adrp	x0, .LANCHOR0
	add	x0, x0, :lo12:.LANCHOR0
	add	x0, x0, 16
	str	x0, [x19]
	mov	w0, 0
	ldp	x19, x20, [sp, 16]
	ldp	x29, x30, [sp], 48
	.cfi_remember_state
	.cfi_restore 30
	.cfi_restore 29
	.cfi_restore 19
	.cfi_restore 20
	.cfi_def_cfa_offset 0
	ret
	.p2align 2,,3
.L831:
	.cfi_restore_state
	ldr	x0, [x1]
	str	x0, [x19]
	mov	w0, 0
	ldp	x19, x20, [sp, 16]
	ldp	x29, x30, [sp], 48
	.cfi_remember_state
	.cfi_restore 30
	.cfi_restore 29
	.cfi_restore 19
	.cfi_restore 20
	.cfi_def_cfa_offset 0
	ret
	.p2align 2,,3
.L834:
	.cfi_restore_state
	str	x21, [sp, 32]
	.cfi_offset 21, -16
	mov	x0, 24
	ldr	x21, [x1]
	bl	_Znwm
	mov	x20, x0
	ldr	q0, [x21]
	str	q0, [x0]
	ldr	x1, [x21, 16]
	str	x1, [x0, 16]
	cbz	x1, .L836
	adrp	x0, :got:__libc_single_threaded
	ldr	x0, [x0, #:got_lo12:__libc_single_threaded]
	ldrb	w0, [x0]
	cbz	w0, .L837
	ldr	w0, [x1, 8]
	add	w0, w0, 1
	str	w0, [x1, 8]
.L836:
	ldr	x21, [sp, 32]
	.cfi_remember_state
	.cfi_restore 21
	str	x20, [x19]
	b	.L833
.L855:
	.cfi_restore_state
	ldr	x1, [x20]
	mov	x0, x20
	ldr	x1, [x1, 16]
	blr	x1
	ldr	x21, [x21, #:got_lo12:__libc_single_threaded]
	ldrb	w0, [x21]
	cbz	w0, .L843
	ldr	w0, [x20, 12]
	sub	w1, w0, #1
	str	w1, [x20, 12]
.L844:
	cmp	w0, 1
	bne	.L854
	ldr	x1, [x20]
	mov	x0, x20
	ldr	x1, [x1, 24]
	blr	x1
	ldr	x21, [sp, 32]
	.cfi_remember_state
	.cfi_restore 21
	b	.L839
	.p2align 2,,3
.L837:
	.cfi_restore_state
	add	x1, x1, 8
	mov	w0, 1
	bl	__aarch64_ldadd4_acq_rel
	b	.L836
.L840:
	add	x1, x20, 8
	mov	w0, -1
	bl	__aarch64_ldadd4_acq_rel
	b	.L841
.L843:
	add	x1, x20, 12
	mov	w0, -1
	bl	__aarch64_ldadd4_acq_rel
	b	.L844
	.cfi_endproc
.LFE9730:
	.size	_ZNSt17_Function_handlerIFvvEZN7openpal8TimerRef5StartIZN8asiodnp311LinkSession5StartEvEUlvE_EEbRKNS1_12TimeDurationERKT_EUlvE_E10_M_managerERSt9_Any_dataRKSF_St18_Manager_operation, .-_ZNSt17_Function_handlerIFvvEZN7openpal8TimerRef5StartIZN8asiodnp311LinkSession5StartEvEUlvE_EEbRKNS1_12TimeDurationERKT_EUlvE_E10_M_managerERSt9_Any_dataRKSF_St18_Manager_operation
	.section	.text._ZN7openpal6LoggerD2Ev,"axG",@progbits,_ZN7openpal6LoggerD5Ev,comdat
	.align	2
	.p2align 4,,11
	.weak	_ZN7openpal6LoggerD2Ev
	.type	_ZN7openpal6LoggerD2Ev, %function
_ZN7openpal6LoggerD2Ev:
.LFB2070:
	.cfi_startproc
	stp	x29, x30, [sp, -48]!
	.cfi_def_cfa_offset 48
	.cfi_offset 29, -48
	.cfi_offset 30, -40
	mov	x29, sp
	stp	x19, x20, [sp, 16]
	.cfi_offset 19, -32
	.cfi_offset 20, -24
	mov	x19, x0
	ldr	x20, [x0, 24]
	str	x21, [sp, 32]
	.cfi_offset 21, -16
	cbz	x20, .L858
	adrp	x21, :got:__libc_single_threaded
	ldr	x0, [x21, #:got_lo12:__libc_single_threaded]
	ldrb	w0, [x0]
	cbz	w0, .L859
	ldr	w0, [x20, 8]
	sub	w1, w0, #1
	str	w1, [x20, 8]
.L860:
	cmp	w0, 1
	beq	.L872
.L858:
	ldr	x19, [x19, 8]
	cbz	x19, .L856
	adrp	x21, :got:__libc_single_threaded
	ldr	x0, [x21, #:got_lo12:__libc_single_threaded]
	ldrb	w0, [x0]
	cbz	w0, .L866
	ldr	w0, [x19, 8]
	sub	w1, w0, #1
	str	w1, [x19, 8]
.L867:
	cmp	w0, 1
	beq	.L873
.L856:
	ldp	x19, x20, [sp, 16]
	ldr	x21, [sp, 32]
	ldp	x29, x30, [sp], 48
	.cfi_remember_state
	.cfi_restore 30
	.cfi_restore 29
	.cfi_restore 21
	.cfi_restore 19
	.cfi_restore 20
	.cfi_def_cfa_offset 0
	ret
	.p2align 2,,3
.L872:
	.cfi_restore_state
	ldr	x1, [x20]
	mov	x0, x20
	ldr	x1, [x1, 16]
	blr	x1
	ldr	x21, [x21, #:got_lo12:__libc_single_threaded]
	ldrb	w0, [x21]
	cbz	w0, .L862
	ldr	w0, [x20, 12]
	sub	w1, w0, #1
	str	w1, [x20, 12]
.L863:
	cmp	w0, 1
	bne	.L858
	ldr	x1, [x20]
	mov	x0, x20
	ldr	x1, [x1, 24]
	blr	x1
	b	.L858
	.p2align 2,,3
.L873:
	ldr	x1, [x19]
	mov	x0, x19
	ldr	x1, [x1, 16]
	blr	x1
	ldr	x21, [x21, #:got_lo12:__libc_single_threaded]
	ldrb	w0, [x21]
	cbz	w0, .L869
	ldr	w0, [x19, 12]
	sub	w1, w0, #1
	str	w1, [x19, 12]
.L870:
	cmp	w0, 1
	bne	.L856
	ldr	x1, [x19]
	mov	x0, x19
	ldp	x19, x20, [sp, 16]
	ldr	x21, [sp, 32]
	ldp	x29, x30, [sp], 48
	.cfi_remember_state
	.cfi_restore 30
	.cfi_restore 29
	.cfi_restore 21
	.cfi_restore 19
	.cfi_restore 20
	.cfi_def_cfa_offset 0
	ldr	x1, [x1, 24]
	mov	x16, x1
	br	x16
	.p2align 2,,3
.L866:
	.cfi_restore_state
	add	x1, x19, 8
	mov	w0, -1
	bl	__aarch64_ldadd4_acq_rel
	b	.L867
	.p2align 2,,3
.L859:
	add	x1, x20, 8
	mov	w0, -1
	bl	__aarch64_ldadd4_acq_rel
	b	.L860
	.p2align 2,,3
.L862:
	add	x1, x20, 12
	mov	w0, -1
	bl	__aarch64_ldadd4_acq_rel
	b	.L863
	.p2align 2,,3
.L869:
	add	x1, x19, 12
	mov	w0, -1
	bl	__aarch64_ldadd4_acq_rel
	b	.L870
	.cfi_endproc
.LFE2070:
	.size	_ZN7openpal6LoggerD2Ev, .-_ZN7openpal6LoggerD2Ev
	.weak	_ZN7openpal6LoggerD1Ev
	.set	_ZN7openpal6LoggerD1Ev,_ZN7openpal6LoggerD2Ev
	.section	.rodata._ZNSt12system_errorC2ESt10error_codePKc.str1.8,"aMS",@progbits,1
	.align	3
.LC19:
	.string	": "
	.section	.text._ZNSt12system_errorC2ESt10error_codePKc,"axG",@progbits,_ZNSt12system_errorC5ESt10error_codePKc,comdat
	.align	2
	.p2align 4,,11
	.weak	_ZNSt12system_errorC2ESt10error_codePKc
	.type	_ZNSt12system_errorC2ESt10error_codePKc, %function
_ZNSt12system_errorC2ESt10error_codePKc:
.LFB2331:
	.cfi_startproc
	.cfi_personality 0x9b,DW.ref.__gxx_personality_v0
	.cfi_lsda 0x1b,.LLSDA2331
	stp	x29, x30, [sp, -176]!
	.cfi_def_cfa_offset 176
	.cfi_offset 29, -176
	.cfi_offset 30, -168
	adrp	x4, :got:__stack_chk_guard
	mov	x29, sp
	stp	x19, x20, [sp, 16]
	.cfi_offset 19, -160
	.cfi_offset 20, -152
	mov	x20, x2
	mov	x19, x0
	ldr	x2, [x4, #:got_lo12:__stack_chk_guard]
	stp	x21, x22, [sp, 32]
	mov	x0, x20
	ldr	x4, [x20]
	.cfi_offset 21, -144
	.cfi_offset 22, -136
	mov	x21, x1
	mov	x22, x3
	ldr	x4, [x4, 32]
	str	x23, [sp, 48]
	.cfi_offset 23, -128
	add	x23, sp, 136
	mov	x8, x23
	ldr	x3, [x2]
	str	x3, [sp, 168]
	mov	x3, 0
.LEHB0:
	blr	x4
.LEHE0:
	adrp	x3, .LC19
	mov	x0, x23
	add	x3, x3, :lo12:.LC19
	mov	x4, 2
	mov	x2, 0
	mov	x1, 0
.LEHB1:
	bl	_ZNSt7__cxx1112basic_stringIcSt11char_traitsIcESaIcEE10_M_replaceEmmPKcm
.LEHE1:
	add	x23, sp, 120
	str	x23, [sp, 104]
	mov	x4, x0
	ldr	x1, [x0], 16
	cmp	x1, x0
	beq	.L894
	ldr	x2, [x4, 16]
	str	x1, [sp, 104]
	str	x2, [sp, 120]
.L876:
	ldr	x1, [x4, 8]
	str	x1, [sp, 112]
	stp	x0, xzr, [x4]
	mov	x0, x22
	strb	wzr, [x4, 16]
	bl	strlen
	mov	x4, x0
	mov	x3, x22
	add	x0, sp, 104
	mov	x2, 0
	mov	x1, 0
.LEHB2:
	bl	_ZNSt7__cxx1112basic_stringIcSt11char_traitsIcESaIcEE10_M_replaceEmmPKcm
.LEHE2:
	add	x22, sp, 88
	str	x22, [sp, 72]
	mov	x3, x0
	ldr	x1, [x0], 16
	cmp	x1, x0
	beq	.L895
	ldr	x2, [x3, 16]
	str	x1, [sp, 72]
	str	x2, [sp, 88]
.L878:
	ldr	x1, [x3, 8]
	str	x1, [sp, 80]
	stp	x0, xzr, [x3]
	add	x1, sp, 72
	mov	x0, x19
	strb	wzr, [x3, 16]
.LEHB3:
	bl	_ZNSt13runtime_errorC2ERKNSt7__cxx1112basic_stringIcSt11char_traitsIcESaIcEEE
.LEHE3:
	ldr	x0, [sp, 72]
	cmp	x0, x22
	beq	.L879
	ldr	x1, [sp, 88]
	add	x1, x1, 1
	bl	_ZdlPvm
.L879:
	ldr	x0, [sp, 104]
	cmp	x0, x23
	beq	.L880
	ldr	x1, [sp, 120]
	add	x1, x1, 1
	bl	_ZdlPvm
.L880:
	ldr	x0, [sp, 136]
	add	x1, sp, 152
	cmp	x0, x1
	beq	.L881
	ldr	x1, [sp, 152]
	add	x1, x1, 1
	bl	_ZdlPvm
.L881:
	adrp	x0, :got:_ZTVSt12system_error
	adrp	x1, :got:__stack_chk_guard
	stp	x21, x20, [x19, 16]
	ldr	x0, [x0, #:got_lo12:_ZTVSt12system_error]
	ldr	x1, [x1, #:got_lo12:__stack_chk_guard]
	add	x0, x0, 16
	str	x0, [x19]
	ldr	x0, [sp, 168]
	ldr	x2, [x1]
	subs	x0, x0, x2
	mov	x2, 0
	bne	.L896
	ldp	x19, x20, [sp, 16]
	ldp	x21, x22, [sp, 32]
	ldr	x23, [sp, 48]
	ldp	x29, x30, [sp], 176
	.cfi_remember_state
	.cfi_restore 30
	.cfi_restore 29
	.cfi_restore 23
	.cfi_restore 21
	.cfi_restore 22
	.cfi_restore 19
	.cfi_restore 20
	.cfi_def_cfa_offset 0
	ret
	.p2align 2,,3
.L894:
	.cfi_restore_state
	ldp	x2, x3, [x4, 16]
	stp	x2, x3, [sp, 120]
	b	.L876
	.p2align 2,,3
.L895:
	ldp	x4, x5, [x3, 16]
	stp	x4, x5, [sp, 88]
	b	.L878
.L896:
	bl	__stack_chk_fail
.L891:
	ldr	x2, [sp, 72]
	mov	x19, x0
	cmp	x2, x22
	beq	.L884
	ldr	x1, [sp, 88]
	mov	x0, x2
	add	x1, x1, 1
	bl	_ZdlPvm
.L884:
	ldr	x0, [sp, 104]
	cmp	x0, x23
	beq	.L886
	ldr	x1, [sp, 120]
	add	x1, x1, 1
	bl	_ZdlPvm
.L886:
	ldr	x0, [sp, 136]
	add	x1, sp, 152
	cmp	x0, x1
	beq	.L887
	ldr	x1, [sp, 152]
	add	x1, x1, 1
	bl	_ZdlPvm
.L887:
	mov	x0, x19
.LEHB4:
	bl	_Unwind_Resume
.LEHE4:
.L889:
	mov	x19, x0
	b	.L886
.L890:
	mov	x19, x0
	b	.L884
	.cfi_endproc
.LFE2331:
	.global	__gxx_personality_v0
	.section	.gcc_except_table._ZNSt12system_errorC2ESt10error_codePKc,"aG",@progbits,_ZNSt12system_errorC5ESt10error_codePKc,comdat
.LLSDA2331:
	.byte	0xff
	.byte	0xff
	.byte	0x1
	.uleb128 .LLSDACSE2331-.LLSDACSB2331
.LLSDACSB2331:
	.uleb128 .LEHB0-.LFB2331
	.uleb128 .LEHE0-.LEHB0
	.uleb128 0
	.uleb128 0
	.uleb128 .LEHB1-.LFB2331
	.uleb128 .LEHE1-.LEHB1
	.uleb128 .L889-.LFB2331
	.uleb128 0
	.uleb128 .LEHB2-.LFB2331
	.uleb128 .LEHE2-.LEHB2
	.uleb128 .L890-.LFB2331
	.uleb128 0
	.uleb128 .LEHB3-.LFB2331
	.uleb128 .LEHE3-.LEHB3
	.uleb128 .L891-.LFB2331
	.uleb128 0
	.uleb128 .LEHB4-.LFB2331
	.uleb128 .LEHE4-.LEHB4
	.uleb128 0
	.uleb128 0
.LLSDACSE2331:
	.section	.text._ZNSt12system_errorC2ESt10error_codePKc,"axG",@progbits,_ZNSt12system_errorC5ESt10error_codePKc,comdat
	.size	_ZNSt12system_errorC2ESt10error_codePKc, .-_ZNSt12system_errorC2ESt10error_codePKc
	.weak	_ZNSt12system_errorC1ESt10error_codePKc
	.set	_ZNSt12system_errorC1ESt10error_codePKc,_ZNSt12system_errorC2ESt10error_codePKc
	.section	.rodata._ZN4asio6detail20posix_tss_ptr_createERj.str1.8,"aMS",@progbits,1
	.align	3
.LC20:
	.string	"tss"
	.section	.text._ZN4asio6detail20posix_tss_ptr_createERj,"axG",@progbits,_ZN4asio6detail20posix_tss_ptr_createERj,comdat
	.align	2
	.p2align 4,,11
	.weak	_ZN4asio6detail20posix_tss_ptr_createERj
	.type	_ZN4asio6detail20posix_tss_ptr_createERj, %function
_ZN4asio6detail20posix_tss_ptr_createERj:
.LFB2419:
	.cfi_startproc
	.cfi_personality 0x9b,DW.ref.__gxx_personality_v0
	.cfi_lsda 0x1b,.LLSDA2419
	stp	x29, x30, [sp, -96]!
	.cfi_def_cfa_offset 96
	.cfi_offset 29, -96
	.cfi_offset 30, -88
	adrp	x2, :got:__stack_chk_guard
	mov	x1, 0
	mov	x29, sp
	ldr	x2, [x2, #:got_lo12:__stack_chk_guard]
	stp	x19, x20, [sp, 16]
	.cfi_offset 19, -80
	.cfi_offset 20, -72
	adrp	x20, :got:_ZGVZN4asio15system_categoryEvE8instance
	str	x21, [sp, 32]
	.cfi_offset 21, -64
	ldr	x3, [x2]
	str	x3, [sp, 88]
	mov	x3, 0
	bl	pthread_key_create
	mov	w19, w0
	ldr	x20, [x20, #:got_lo12:_ZGVZN4asio15system_categoryEvE8instance]
	ldar	x0, [x20]
	adrp	x21, :got:_ZZN4asio15system_categoryEvE8instance
	tbz	x0, 0, .L909
.L899:
	mov	x1, 0
	ldr	x21, [x21, #:got_lo12:_ZZN4asio15system_categoryEvE8instance]
	bfi	x1, x19, 0, 32
	cbnz	w19, .L910
	adrp	x0, :got:__stack_chk_guard
	ldr	x0, [x0, #:got_lo12:__stack_chk_guard]
	ldr	x2, [sp, 88]
	ldr	x1, [x0]
	subs	x2, x2, x1
	mov	x1, 0
	bne	.L911
	ldp	x19, x20, [sp, 16]
	ldr	x21, [sp, 32]
	ldp	x29, x30, [sp], 96
	.cfi_remember_state
	.cfi_restore 30
	.cfi_restore 29
	.cfi_restore 21
	.cfi_restore 19
	.cfi_restore 20
	.cfi_def_cfa_offset 0
	ret
	.p2align 2,,3
.L909:
	.cfi_restore_state
	mov	x0, x20
	adrp	x21, :got:_ZZN4asio15system_categoryEvE8instance
	bl	__cxa_guard_acquire
	cbz	w0, .L899
	adrp	x0, :got:_ZN4asio6detail15system_categoryD1Ev
	adrp	x2, __dso_handle
	ldr	x1, [x21, #:got_lo12:_ZZN4asio15system_categoryEvE8instance]
	add	x2, x2, :lo12:__dso_handle
	ldr	x0, [x0, #:got_lo12:_ZN4asio6detail15system_categoryD1Ev]
	bl	__cxa_atexit
	mov	x0, x20
	bl	__cxa_guard_release
	b	.L899
.L911:
	bl	__stack_chk_fail
.L910:
	mov	x2, x21
	adrp	x3, .LC20
	add	x3, x3, :lo12:.LC20
	add	x20, sp, 56
	mov	x0, x20
.LEHB5:
	bl	_ZNSt12system_errorC1ESt10error_codePKc
.LEHE5:
	mov	x0, 32
	bl	__cxa_allocate_exception
	mov	x19, x0
	mov	x1, x20
	bl	_ZNSt13runtime_errorC2ERKS_
	adrp	x3, :got:_ZTVSt12system_error
	adrp	x2, :got:_ZNSt12system_errorD1Ev
	adrp	x1, :got:_ZTISt12system_error
	mov	x0, x19
	ldr	x3, [x3, #:got_lo12:_ZTVSt12system_error]
	ldp	x4, x5, [sp, 72]
	add	x3, x3, 16
	ldr	x2, [x2, #:got_lo12:_ZNSt12system_errorD1Ev]
	str	x3, [x19]
	ldr	x1, [x1, #:got_lo12:_ZTISt12system_error]
	stp	x4, x5, [x19, 16]
.LEHB6:
	bl	__cxa_throw
.LEHE6:
.L904:
	mov	x19, x0
	mov	x0, x20
	bl	_ZNSt12system_errorD1Ev
	mov	x0, x19
.LEHB7:
	bl	_Unwind_Resume
.LEHE7:
	.cfi_endproc
.LFE2419:
	.section	.gcc_except_table._ZN4asio6detail20posix_tss_ptr_createERj,"aG",@progbits,_ZN4asio6detail20posix_tss_ptr_createERj,comdat
.LLSDA2419:
	.byte	0xff
	.byte	0xff
	.byte	0x1
	.uleb128 .LLSDACSE2419-.LLSDACSB2419
.LLSDACSB2419:
	.uleb128 .LEHB5-.LFB2419
	.uleb128 .LEHE5-.LEHB5
	.uleb128 0
	.uleb128 0
	.uleb128 .LEHB6-.LFB2419
	.uleb128 .LEHE6-.LEHB6
	.uleb128 .L904-.LFB2419
	.uleb128 0
	.uleb128 .LEHB7-.LFB2419
	.uleb128 .LEHE7-.LEHB7
	.uleb128 0
	.uleb128 0
.LLSDACSE2419:
	.section	.text._ZN4asio6detail20posix_tss_ptr_createERj,"axG",@progbits,_ZN4asio6detail20posix_tss_ptr_createERj,comdat
	.size	_ZN4asio6detail20posix_tss_ptr_createERj, .-_ZN4asio6detail20posix_tss_ptr_createERj
	.text
	.align	2
	.p2align 4,,11
	.global	_ZN8asiodnp311LinkSession13SetLogFiltersEN7openpal10LogFiltersE
	.type	_ZN8asiodnp311LinkSession13SetLogFiltersEN7openpal10LogFiltersE, %function
_ZN8asiodnp311LinkSession13SetLogFiltersEN7openpal10LogFiltersE:
.LFB7992:
	.cfi_startproc
	ldr	x0, [x0, 80]
	str	w1, [x0, 32]
	ret
	.cfi_endproc
.LFE7992:
	.size	_ZN8asiodnp311LinkSession13SetLogFiltersEN7openpal10LogFiltersE, .-_ZN8asiodnp311LinkSession13SetLogFiltersEN7openpal10LogFiltersE
	.align	2
	.p2align 4,,11
	.global	_ZN8asiodnp311LinkSession12BeginReceiveEv
	.type	_ZN8asiodnp311LinkSession12BeginReceiveEv, %function
_ZN8asiodnp311LinkSession12BeginReceiveEv:
.LFB8007:
	.cfi_startproc
	stp	x29, x30, [sp, -32]!
	.cfi_def_cfa_offset 32
	.cfi_offset 29, -32
	.cfi_offset 30, -24
	mov	x29, sp
	str	x19, [sp, 16]
	.cfi_offset 19, -16
	mov	x19, x0
	add	x0, x0, 152
	bl	_ZNK8opendnp315LinkLayerParser9WriteBuffEv
	mov	x2, x1
	ldr	x3, [x19, 136]
	ldr	x1, [x3, 40]
	cbz	x1, .L914
	ldrb	w1, [x3, 56]
	cbnz	w1, .L914
	ldrb	w1, [x3, 57]
	cbnz	w1, .L914
	mov	w1, 1
	strb	w1, [x3, 57]
	ldr	x4, [x3]
	mov	x1, x0
	ldr	x19, [sp, 16]
	mov	x0, x3
	ldp	x29, x30, [sp], 32
	.cfi_remember_state
	.cfi_restore 30
	.cfi_restore 29
	.cfi_restore 19
	.cfi_def_cfa_offset 0
	ldr	x3, [x4, 16]
	mov	x16, x3
	br	x16
	.p2align 2,,3
.L914:
	.cfi_restore_state
	ldr	x19, [sp, 16]
	ldp	x29, x30, [sp], 32
	.cfi_restore 30
	.cfi_restore 29
	.cfi_restore 19
	.cfi_def_cfa_offset 0
	ret
	.cfi_endproc
.LFE8007:
	.size	_ZN8asiodnp311LinkSession12BeginReceiveEv, .-_ZN8asiodnp311LinkSession12BeginReceiveEv
	.section	.text._ZNSt16_Sp_counted_baseILN9__gnu_cxx12_Lock_policyE2EE10_M_releaseEv,"axG",@progbits,_ZNSt16_Sp_counted_baseILN9__gnu_cxx12_Lock_policyE2EE10_M_releaseEv,comdat
	.align	2
	.p2align 4,,11
	.weak	_ZNSt16_Sp_counted_baseILN9__gnu_cxx12_Lock_policyE2EE10_M_releaseEv
	.type	_ZNSt16_Sp_counted_baseILN9__gnu_cxx12_Lock_policyE2EE10_M_releaseEv, %function
_ZNSt16_Sp_counted_baseILN9__gnu_cxx12_Lock_policyE2EE10_M_releaseEv:
.LFB9055:
	.cfi_startproc
	stp	x29, x30, [sp, -32]!
	.cfi_def_cfa_offset 32
	.cfi_offset 29, -32
	.cfi_offset 30, -24
	mov	x29, sp
	stp	x19, x20, [sp, 16]
	.cfi_offset 19, -16
	.cfi_offset 20, -8
	adrp	x20, :got:__libc_single_threaded
	mov	x19, x0
	ldr	x0, [x20, #:got_lo12:__libc_single_threaded]
	ldrb	w0, [x0]
	cbz	w0, .L920
	ldr	w0, [x19, 8]
	sub	w1, w0, #1
	str	w1, [x19, 8]
.L921:
	cmp	w0, 1
	beq	.L928
.L919:
	ldp	x19, x20, [sp, 16]
	ldp	x29, x30, [sp], 32
	.cfi_remember_state
	.cfi_restore 30
	.cfi_restore 29
	.cfi_restore 19
	.cfi_restore 20
	.cfi_def_cfa_offset 0
	ret
	.p2align 2,,3
.L928:
	.cfi_restore_state
	ldr	x1, [x19]
	mov	x0, x19
	ldr	x1, [x1, 16]
	blr	x1
	ldr	x20, [x20, #:got_lo12:__libc_single_threaded]
	ldrb	w0, [x20]
	cbz	w0, .L924
	ldr	w0, [x19, 12]
	sub	w1, w0, #1
	str	w1, [x19, 12]
.L925:
	cmp	w0, 1
	bne	.L919
	ldr	x1, [x19]
	mov	x0, x19
	ldp	x19, x20, [sp, 16]
	ldp	x29, x30, [sp], 32
	.cfi_remember_state
	.cfi_restore 30
	.cfi_restore 29
	.cfi_restore 19
	.cfi_restore 20
	.cfi_def_cfa_offset 0
	ldr	x1, [x1, 24]
	mov	x16, x1
	br	x16
	.p2align 2,,3
.L920:
	.cfi_restore_state
	add	x1, x19, 8
	mov	w0, -1
	bl	__aarch64_ldadd4_acq_rel
	b	.L921
	.p2align 2,,3
.L924:
	add	x1, x19, 12
	mov	w0, -1
	bl	__aarch64_ldadd4_acq_rel
	b	.L925
	.cfi_endproc
.LFE9055:
	.size	_ZNSt16_Sp_counted_baseILN9__gnu_cxx12_Lock_policyE2EE10_M_releaseEv, .-_ZNSt16_Sp_counted_baseILN9__gnu_cxx12_Lock_policyE2EE10_M_releaseEv
	.text
	.align	2
	.p2align 4,,11
	.global	_ZN8asiodnp311LinkSessionC2ERKN7openpal6LoggerEmRKSt10shared_ptrIN7asiopal16IResourceManagerEERKS5_INS_16IListenCallbacksEERKS5_INS6_13IAsyncChannelEE
	.type	_ZN8asiodnp311LinkSessionC2ERKN7openpal6LoggerEmRKSt10shared_ptrIN7asiopal16IResourceManagerEERKS5_INS_16IListenCallbacksEERKS5_INS6_13IAsyncChannelEE, %function
_ZN8asiodnp311LinkSessionC2ERKN7openpal6LoggerEmRKSt10shared_ptrIN7asiopal16IResourceManagerEERKS5_INS_16IListenCallbacksEERKS5_INS6_13IAsyncChannelEE:
.LFB7955:
	.cfi_startproc
	.cfi_personality 0x9b,DW.ref.__gxx_personality_v0
	.cfi_lsda 0x1b,.LLSDA7955
	stp	x29, x30, [sp, -80]!
	.cfi_def_cfa_offset 80
	.cfi_offset 29, -80
	.cfi_offset 30, -72
	adrp	x6, :got:_ZTVN8asiodnp311LinkSessionE
	mov	x29, sp
	stp	x19, x20, [sp, 16]
	.cfi_offset 19, -64
	.cfi_offset 20, -56
	mov	x19, x0
	mov	x20, x1
	ldr	x0, [x6, #:got_lo12:_ZTVN8asiodnp311LinkSessionE]
	stp	x21, x22, [sp, 32]
	.cfi_offset 21, -48
	.cfi_offset 22, -40
	mov	x22, x4
	stp	x23, x24, [sp, 48]
	add	x1, x0, 184
	add	x8, x0, 16
	str	x25, [sp, 64]
	.cfi_offset 23, -32
	.cfi_offset 24, -24
	.cfi_offset 25, -16
	add	x7, x0, 96
	add	x6, x0, 144
	add	x0, x0, 224
	stp	x8, x7, [x19]
	mov	x24, x2
	mov	x23, x3
	str	x6, [x19, 16]
	mov	x21, x5
	stp	xzr, xzr, [x19, 24]
	add	x25, x19, 64
	stp	x1, x0, [x19, 40]
	strb	wzr, [x19, 56]
	ldr	q0, [x20]
	umov	x1, v0.d[1]
	str	q0, [x19, 64]
	cbz	x1, .L930
	adrp	x0, :got:__libc_single_threaded
	ldr	x0, [x0, #:got_lo12:__libc_single_threaded]
	ldrb	w0, [x0]
	cbz	w0, .L931
	ldr	w0, [x1, 8]
	add	w0, w0, 1
	str	w0, [x1, 8]
.L930:
	ldr	q0, [x20, 16]
	umov	x1, v0.d[1]
	str	q0, [x19, 80]
	cbz	x1, .L932
	adrp	x0, :got:__libc_single_threaded
	ldr	x0, [x0, #:got_lo12:__libc_single_threaded]
	ldrb	w0, [x0]
	cbz	w0, .L933
	ldr	w0, [x1, 8]
	add	w0, w0, 1
	str	w0, [x1, 8]
.L932:
	str	x24, [x19, 96]
	ldr	q0, [x23]
	umov	x1, v0.d[1]
	str	q0, [x19, 104]
	cbz	x1, .L934
	adrp	x0, :got:__libc_single_threaded
	ldr	x0, [x0, #:got_lo12:__libc_single_threaded]
	ldrb	w0, [x0]
	cbz	w0, .L935
	ldr	w0, [x1, 8]
	add	w0, w0, 1
	str	w0, [x1, 8]
.L934:
	ldr	q0, [x22]
	umov	x1, v0.d[1]
	str	q0, [x19, 120]
	cbz	x1, .L936
	adrp	x0, :got:__libc_single_threaded
	ldr	x0, [x0, #:got_lo12:__libc_single_threaded]
	ldrb	w0, [x0]
	cbz	w0, .L937
	ldr	w0, [x1, 8]
	add	w0, w0, 1
	str	w0, [x1, 8]
.L936:
	ldr	q0, [x21]
	umov	x1, v0.d[1]
	str	q0, [x19, 136]
	cbz	x1, .L938
	adrp	x0, :got:__libc_single_threaded
	ldr	x0, [x0, #:got_lo12:__libc_single_threaded]
	ldrb	w0, [x0]
	cbz	w0, .L939
	ldr	w0, [x1, 8]
	add	w0, w0, 1
	str	w0, [x1, 8]
.L938:
	add	x22, x19, 152
	mov	x1, x20
	mov	x0, x22
.LEHB8:
	bl	_ZN8opendnp315LinkLayerParserC1ERKN7openpal6LoggerE
.LEHE8:
	ldr	x1, [x21]
	add	x0, x19, 568
	ldr	x1, [x1, 24]
.LEHB9:
	bl	_ZN7openpal8TimerRefC1ERNS_9IExecutorE
.LEHE9:
	add	x0, x19, 592
	str	wzr, [x19, 584]
	stp	xzr, xzr, [x0]
	ldp	x19, x20, [sp, 16]
	ldp	x21, x22, [sp, 32]
	ldp	x23, x24, [sp, 48]
	ldr	x25, [sp, 64]
	ldp	x29, x30, [sp], 80
	.cfi_remember_state
	.cfi_restore 30
	.cfi_restore 29
	.cfi_restore 25
	.cfi_restore 23
	.cfi_restore 24
	.cfi_restore 21
	.cfi_restore 22
	.cfi_restore 19
	.cfi_restore 20
	.cfi_def_cfa_offset 0
	ret
	.p2align 2,,3
.L939:
	.cfi_restore_state
	add	x1, x1, 8
	mov	w0, 1
	bl	__aarch64_ldadd4_acq_rel
	b	.L938
	.p2align 2,,3
.L933:
	add	x1, x1, 8
	mov	w0, 1
	bl	__aarch64_ldadd4_acq_rel
	b	.L932
	.p2align 2,,3
.L931:
	add	x1, x1, 8
	mov	w0, 1
	bl	__aarch64_ldadd4_acq_rel
	b	.L930
	.p2align 2,,3
.L937:
	add	x1, x1, 8
	mov	w0, 1
	bl	__aarch64_ldadd4_acq_rel
	b	.L936
	.p2align 2,,3
.L935:
	add	x1, x1, 8
	mov	w0, 1
	bl	__aarch64_ldadd4_acq_rel
	b	.L934
.L951:
	mov	x20, x0
	mov	x0, x22
	bl	_ZN7openpal6LoggerD1Ev
.L941:
	ldr	x0, [x19, 144]
	cbz	x0, .L942
	bl	_ZNSt16_Sp_counted_baseILN9__gnu_cxx12_Lock_policyE2EE10_M_releaseEv
.L942:
	ldr	x0, [x19, 128]
	cbz	x0, .L943
	bl	_ZNSt16_Sp_counted_baseILN9__gnu_cxx12_Lock_policyE2EE10_M_releaseEv
.L943:
	ldr	x0, [x19, 112]
	cbz	x0, .L944
	bl	_ZNSt16_Sp_counted_baseILN9__gnu_cxx12_Lock_policyE2EE10_M_releaseEv
.L944:
	mov	x0, x25
	bl	_ZN7openpal6LoggerD1Ev
	ldr	x19, [x19, 32]
	cbz	x19, .L946
	adrp	x0, :got:__libc_single_threaded
	add	x1, x19, 12
	ldr	x0, [x0, #:got_lo12:__libc_single_threaded]
	ldrb	w0, [x0]
	cbnz	w0, .L978
	mov	w0, -1
	bl	__aarch64_ldadd4_acq_rel
.L948:
	cmp	w0, 1
	bne	.L946
	ldr	x1, [x19]
	mov	x0, x19
	ldr	x1, [x1, 24]
	blr	x1
.L946:
	mov	x0, x20
.LEHB10:
	bl	_Unwind_Resume
.LEHE10:
.L950:
	mov	x20, x0
	b	.L941
.L978:
	ldr	w0, [x19, 12]
	sub	w1, w0, #1
	str	w1, [x19, 12]
	b	.L948
	.cfi_endproc
.LFE7955:
	.section	.gcc_except_table,"a",@progbits
.LLSDA7955:
	.byte	0xff
	.byte	0xff
	.byte	0x1
	.uleb128 .LLSDACSE7955-.LLSDACSB7955
.LLSDACSB7955:
	.uleb128 .LEHB8-.LFB7955
	.uleb128 .LEHE8-.LEHB8
	.uleb128 .L950-.LFB7955
	.uleb128 0
	.uleb128 .LEHB9-.LFB7955
	.uleb128 .LEHE9-.LEHB9
	.uleb128 .L951-.LFB7955
	.uleb128 0
	.uleb128 .LEHB10-.LFB7955
	.uleb128 .LEHE10-.LEHB10
	.uleb128 0
	.uleb128 0
.LLSDACSE7955:
	.text
	.size	_ZN8asiodnp311LinkSessionC2ERKN7openpal6LoggerEmRKSt10shared_ptrIN7asiopal16IResourceManagerEERKS5_INS_16IListenCallbacksEERKS5_INS6_13IAsyncChannelEE, .-_ZN8asiodnp311LinkSessionC2ERKN7openpal6LoggerEmRKSt10shared_ptrIN7asiopal16IResourceManagerEERKS5_INS_16IListenCallbacksEERKS5_INS6_13IAsyncChannelEE
	.global	_ZN8asiodnp311LinkSessionC1ERKN7openpal6LoggerEmRKSt10shared_ptrIN7asiopal16IResourceManagerEERKS5_INS_16IListenCallbacksEERKS5_INS6_13IAsyncChannelEE
	.set	_ZN8asiodnp311LinkSessionC1ERKN7openpal6LoggerEmRKSt10shared_ptrIN7asiopal16IResourceManagerEERKS5_INS_16IListenCallbacksEERKS5_INS6_13IAsyncChannelEE,_ZN8asiodnp311LinkSessionC2ERKN7openpal6LoggerEmRKSt10shared_ptrIN7asiopal16IResourceManagerEERKS5_INS_16IListenCallbacksEERKS5_INS6_13IAsyncChannelEE
	.global	__aarch64_swp4_sync
	.align	2
	.p2align 4,,11
	.type	_ZN4asio6detail18completion_handlerIZN8asiodnp311LinkSession12ShutdownImplEvEUlvE_E11do_completeEPNS0_15task_io_serviceEPNS0_25task_io_service_operationERKSt10error_codem, %function
_ZN4asio6detail18completion_handlerIZN8asiodnp311LinkSession12ShutdownImplEvEUlvE_E11do_completeEPNS0_15task_io_serviceEPNS0_25task_io_service_operationERKSt10error_codem:
.LFB9884:
	.cfi_startproc
	.cfi_personality 0x9b,DW.ref.__gxx_personality_v0
	.cfi_lsda 0x1b,.LLSDA9884
	stp	x29, x30, [sp, -96]!
	.cfi_def_cfa_offset 96
	.cfi_offset 29, -96
	.cfi_offset 30, -88
	adrp	x3, :got:_ZN4asio6detail10call_stackINS0_15task_io_serviceENS0_27task_io_service_thread_infoEE4top_E
	adrp	x2, :got:__stack_chk_guard
	mov	x29, sp
	ldr	x3, [x3, #:got_lo12:_ZN4asio6detail10call_stackINS0_15task_io_serviceENS0_27task_io_service_thread_infoEE4top_E]
	stp	x19, x20, [sp, 16]
	.cfi_offset 19, -80
	.cfi_offset 20, -72
	mov	x19, x1
	ldr	x2, [x2, #:got_lo12:__stack_chk_guard]
	stp	x21, x22, [sp, 32]
	.cfi_offset 21, -64
	.cfi_offset 22, -56
	mov	x21, x0
	ldr	w0, [x3]
	ldr	x1, [x2]
	str	x1, [sp, 88]
	mov	x1, 0
	ldp	x22, x20, [x19, 24]
	bl	pthread_getspecific
	cbz	x0, .L980
	ldr	x0, [x0, 8]
	cbz	x0, .L980
	ldr	x1, [x0]
	cbz	x1, .L1023
.L980:
	mov	x0, x19
	bl	_ZdlPv
.L981:
	cbz	x21, .L982
	str	x23, [sp, 48]
	.cfi_offset 23, -48
	add	x23, sp, 64
	mov	x1, x23
	mov	w0, 1
	str	wzr, [sp, 64]
	bl	__aarch64_swp4_sync
	ldr	x19, [x22, 104]
	add	x1, x22, 40
	ldr	x0, [x19]
	stp	x1, x20, [sp, 72]
	ldr	x21, [x0, 16]
	cbz	x20, .L983
	adrp	x0, :got:__libc_single_threaded
	ldr	x0, [x0, #:got_lo12:__libc_single_threaded]
	ldrb	w0, [x0]
	cbz	w0, .L984
	ldr	w0, [x20, 8]
	add	w0, w0, 1
	str	w0, [x20, 8]
.L983:
	mov	x0, x19
	add	x1, sp, 72
.LEHB11:
	blr	x21
.LEHE11:
	ldr	x21, [sp, 80]
	cbz	x21, .L986
	adrp	x19, :got:__libc_single_threaded
	ldr	x0, [x19, #:got_lo12:__libc_single_threaded]
	ldrb	w0, [x0]
	cbz	w0, .L987
	ldr	w0, [x21, 8]
	sub	w1, w0, #1
	str	w1, [x21, 8]
.L988:
	cmp	w0, 1
	bne	.L986
	ldr	x1, [x21]
	mov	x0, x21
	ldr	x1, [x1, 16]
	blr	x1
	ldr	x19, [x19, #:got_lo12:__libc_single_threaded]
	ldrb	w0, [x19]
	cbz	w0, .L990
	ldr	w0, [x21, 12]
	sub	w1, w0, #1
	str	w1, [x21, 12]
.L991:
	cmp	w0, 1
	beq	.L1024
	.p2align 3,,7
.L986:
	stlr	wzr, [x23]
	ldr	x23, [sp, 48]
	.cfi_restore 23
.L982:
	cbz	x20, .L979
	adrp	x19, :got:__libc_single_threaded
	ldr	x0, [x19, #:got_lo12:__libc_single_threaded]
	ldrb	w0, [x0]
	cbz	w0, .L998
	ldr	w0, [x20, 8]
	sub	w1, w0, #1
	str	w1, [x20, 8]
.L999:
	cmp	w0, 1
	beq	.L1025
.L979:
	adrp	x0, :got:__stack_chk_guard
	ldr	x0, [x0, #:got_lo12:__stack_chk_guard]
	ldr	x2, [sp, 88]
	ldr	x1, [x0]
	subs	x2, x2, x1
	mov	x1, 0
	bne	.L1022
	ldp	x19, x20, [sp, 16]
	ldp	x21, x22, [sp, 32]
	ldp	x29, x30, [sp], 96
	.cfi_restore 30
	.cfi_restore 29
	.cfi_restore 21
	.cfi_restore 22
	.cfi_restore 19
	.cfi_restore 20
	.cfi_def_cfa_offset 0
	ret
	.p2align 2,,3
.L987:
	.cfi_def_cfa_offset 96
	.cfi_offset 19, -80
	.cfi_offset 20, -72
	.cfi_offset 21, -64
	.cfi_offset 22, -56
	.cfi_offset 23, -48
	.cfi_offset 29, -96
	.cfi_offset 30, -88
	add	x1, x21, 8
	mov	w0, -1
	bl	__aarch64_ldadd4_acq_rel
	b	.L988
	.p2align 2,,3
.L1025:
	.cfi_restore 23
	ldr	x1, [x20]
	mov	x0, x20
	ldr	x1, [x1, 16]
	blr	x1
	ldr	x19, [x19, #:got_lo12:__libc_single_threaded]
	ldrb	w0, [x19]
	cbz	w0, .L1001
	ldr	w0, [x20, 12]
	sub	w1, w0, #1
	str	w1, [x20, 12]
.L1002:
	cmp	w0, 1
	bne	.L979
	adrp	x0, :got:__stack_chk_guard
	ldr	x0, [x0, #:got_lo12:__stack_chk_guard]
	ldr	x2, [sp, 88]
	ldr	x1, [x0]
	subs	x2, x2, x1
	mov	x1, 0
	bne	.L1022
	ldr	x1, [x20]
	mov	x0, x20
	ldp	x19, x20, [sp, 16]
	ldr	x1, [x1, 24]
	ldp	x21, x22, [sp, 32]
	mov	x16, x1
	ldp	x29, x30, [sp], 96
	.cfi_remember_state
	.cfi_restore 30
	.cfi_restore 29
	.cfi_restore 21
	.cfi_restore 22
	.cfi_restore 19
	.cfi_restore 20
	.cfi_def_cfa_offset 0
	br	x16
	.p2align 2,,3
.L998:
	.cfi_restore_state
	add	x1, x20, 8
	mov	w0, -1
	bl	__aarch64_ldadd4_acq_rel
	b	.L999
	.p2align 2,,3
.L984:
	.cfi_offset 23, -48
	add	x1, x20, 8
	mov	w0, 1
	bl	__aarch64_ldadd4_acq_rel
	b	.L983
	.p2align 2,,3
.L1023:
	.cfi_restore 23
	ldrb	w1, [x19, 40]
	strb	w1, [x19]
	str	x19, [x0]
	b	.L981
	.p2align 2,,3
.L1001:
	add	x1, x20, 12
	mov	w0, -1
	bl	__aarch64_ldadd4_acq_rel
	b	.L1002
	.p2align 2,,3
.L1024:
	.cfi_offset 23, -48
	ldr	x1, [x21]
	mov	x0, x21
	ldr	x1, [x1, 24]
	blr	x1
	b	.L986
	.p2align 2,,3
.L990:
	add	x1, x21, 12
	mov	w0, -1
	bl	__aarch64_ldadd4_acq_rel
	b	.L991
.L1022:
	.cfi_restore 23
	str	x23, [sp, 48]
	.cfi_offset 23, -48
	bl	__stack_chk_fail
.L1005:
	ldr	x1, [sp, 80]
	mov	x19, x0
	cbz	x1, .L993
	mov	x0, x1
	bl	_ZNSt16_Sp_counted_baseILN9__gnu_cxx12_Lock_policyE2EE10_M_releaseEv
.L993:
	stlr	wzr, [x23]
	cbz	x20, .L995
	mov	x0, x20
	bl	_ZNSt16_Sp_counted_baseILN9__gnu_cxx12_Lock_policyE2EE10_M_releaseEv
.L995:
	mov	x0, x19
.LEHB12:
	bl	_Unwind_Resume
.LEHE12:
	.cfi_endproc
.LFE9884:
	.section	.gcc_except_table
.LLSDA9884:
	.byte	0xff
	.byte	0xff
	.byte	0x1
	.uleb128 .LLSDACSE9884-.LLSDACSB9884
.LLSDACSB9884:
	.uleb128 .LEHB11-.LFB9884
	.uleb128 .LEHE11-.LEHB11
	.uleb128 .L1005-.LFB9884
	.uleb128 0
	.uleb128 .LEHB12-.LFB9884
	.uleb128 .LEHE12-.LEHB12
	.uleb128 0
	.uleb128 0
.LLSDACSE9884:
	.text
	.size	_ZN4asio6detail18completion_handlerIZN8asiodnp311LinkSession12ShutdownImplEvEUlvE_E11do_completeEPNS0_15task_io_serviceEPNS0_25task_io_service_operationERKSt10error_codem, .-_ZN4asio6detail18completion_handlerIZN8asiodnp311LinkSession12ShutdownImplEvEUlvE_E11do_completeEPNS0_15task_io_serviceEPNS0_25task_io_service_operationERKSt10error_codem
	.global	__aarch64_cas4_acq_rel
	.align	2
	.p2align 4,,11
	.global	_ZN8asiodnp311LinkSession8ShutdownEv
	.type	_ZN8asiodnp311LinkSession8ShutdownEv, %function
_ZN8asiodnp311LinkSession8ShutdownEv:
.LFB7957:
	.cfi_startproc
	.cfi_personality 0x9b,DW.ref.__gxx_personality_v0
	.cfi_lsda 0x1b,.LLSDA7957
	stp	x29, x30, [sp, -112]!
	.cfi_def_cfa_offset 112
	.cfi_offset 29, -112
	.cfi_offset 30, -104
	adrp	x1, :got:__stack_chk_guard
	mov	x29, sp
	ldr	x1, [x1, #:got_lo12:__stack_chk_guard]
	stp	x19, x20, [sp, 16]
	.cfi_offset 19, -96
	.cfi_offset 20, -88
	mov	x20, x0
	stp	x21, x22, [sp, 32]
	stp	x23, x24, [sp, 48]
	.cfi_offset 21, -80
	.cfi_offset 22, -72
	.cfi_offset 23, -64
	.cfi_offset 24, -56
	ldr	x19, [x0, 32]
	ldr	x0, [x1]
	str	x0, [sp, 104]
	mov	x0, 0
	cbz	x19, .L1027
	add	x22, x19, 8
	ldr	w21, [x22]
.L1029:
	cbz	w21, .L1027
	add	w1, w21, 1
	mov	w0, w21
	mov	x2, x22
	bl	__aarch64_cas4_acq_rel
	cmp	w0, w21
	mov	w21, w0
	bne	.L1029
	ldr	x1, [x20, 136]
	mov	x0, 16
	stp	xzr, xzr, [sp, 72]
	ldr	x24, [x1, 24]
	stp	xzr, xzr, [sp, 88]
	ldr	x23, [x20, 24]
.LEHB13:
	bl	_Znwm
.LEHE13:
	adrp	x21, :got:__libc_single_threaded
	mov	x20, x0
	ldr	x0, [x21, #:got_lo12:__libc_single_threaded]
	stp	x23, x19, [x20]
	ldrb	w0, [x0]
	cbz	w0, .L1070
	ldr	w0, [x19, 8]
	add	w0, w0, 1
	str	w0, [x19, 8]
.L1031:
	adrp	x2, _ZNSt17_Function_handlerIFvvEZN8asiodnp311LinkSession8ShutdownEvEUlvE_E9_M_invokeERKSt9_Any_data
	adrp	x3, _ZNSt17_Function_handlerIFvvEZN8asiodnp311LinkSession8ShutdownEvEUlvE_E10_M_managerERSt9_Any_dataRKS5_St18_Manager_operation
	add	x2, x2, :lo12:_ZNSt17_Function_handlerIFvvEZN8asiodnp311LinkSession8ShutdownEvEUlvE_E9_M_invokeERKSt9_Any_data
	add	x3, x3, :lo12:_ZNSt17_Function_handlerIFvvEZN8asiodnp311LinkSession8ShutdownEvEUlvE_E10_M_managerERSt9_Any_dataRKS5_St18_Manager_operation
	add	x23, sp, 72
	mov	x0, x24
	mov	x1, x23
	str	x20, [sp, 72]
	stp	x3, x2, [sp, 88]
.LEHB14:
	bl	_ZN7asiopal8Executor18BlockUntilAndFlushERKSt8functionIFvvEE
.LEHE14:
	ldr	x3, [sp, 88]
	cbz	x3, .L1036
	mov	x1, x23
	mov	x0, x23
	mov	w2, 3
	blr	x3
.L1036:
	ldr	x0, [x21, #:got_lo12:__libc_single_threaded]
	ldrb	w0, [x0]
	cbz	w0, .L1037
	ldr	w0, [x19, 8]
	sub	w1, w0, #1
	str	w1, [x19, 8]
	cmp	w0, 1
	beq	.L1071
.L1026:
	adrp	x0, :got:__stack_chk_guard
	ldr	x0, [x0, #:got_lo12:__stack_chk_guard]
	ldr	x2, [sp, 104]
	ldr	x1, [x0]
	subs	x2, x2, x1
	mov	x1, 0
	bne	.L1069
	ldp	x19, x20, [sp, 16]
	ldp	x21, x22, [sp, 32]
	ldp	x23, x24, [sp, 48]
	ldp	x29, x30, [sp], 112
	.cfi_remember_state
	.cfi_restore 30
	.cfi_restore 29
	.cfi_restore 23
	.cfi_restore 24
	.cfi_restore 21
	.cfi_restore 22
	.cfi_restore 19
	.cfi_restore 20
	.cfi_def_cfa_offset 0
	ret
	.p2align 2,,3
.L1070:
	.cfi_restore_state
	mov	x1, x22
	mov	w0, 1
	bl	__aarch64_ldadd4_acq_rel
	b	.L1031
	.p2align 2,,3
.L1071:
	ldr	x1, [x19]
	mov	x0, x19
	ldr	x1, [x1, 16]
	blr	x1
	ldr	x21, [x21, #:got_lo12:__libc_single_threaded]
	ldrb	w0, [x21]
	cbz	w0, .L1041
	ldr	w0, [x19, 12]
	sub	w1, w0, #1
	str	w1, [x19, 12]
.L1042:
	cmp	w0, 1
	bne	.L1026
	adrp	x0, :got:__stack_chk_guard
	ldr	x0, [x0, #:got_lo12:__stack_chk_guard]
	ldr	x2, [sp, 104]
	ldr	x1, [x0]
	subs	x2, x2, x1
	mov	x1, 0
	bne	.L1069
	ldr	x1, [x19]
	mov	x0, x19
	ldp	x19, x20, [sp, 16]
	ldr	x1, [x1, 24]
	ldp	x21, x22, [sp, 32]
	mov	x16, x1
	ldp	x23, x24, [sp, 48]
	ldp	x29, x30, [sp], 112
	.cfi_remember_state
	.cfi_restore 30
	.cfi_restore 29
	.cfi_restore 23
	.cfi_restore 24
	.cfi_restore 21
	.cfi_restore 22
	.cfi_restore 19
	.cfi_restore 20
	.cfi_def_cfa_offset 0
	br	x16
	.p2align 2,,3
.L1037:
	.cfi_restore_state
	mov	x1, x22
	mov	w0, -1
	bl	__aarch64_ldadd4_acq_rel
	cmp	w0, 1
	bne	.L1026
	b	.L1071
	.p2align 2,,3
.L1041:
	add	x1, x19, 12
	mov	w0, -1
	bl	__aarch64_ldadd4_acq_rel
	b	.L1042
.L1069:
	bl	__stack_chk_fail
.L1027:
	mov	x0, 8
	bl	__cxa_allocate_exception
	adrp	x3, :got:_ZTVSt12bad_weak_ptr
	adrp	x2, :got:_ZNSt12bad_weak_ptrD1Ev
	adrp	x1, :got:_ZTISt12bad_weak_ptr
	ldr	x3, [x3, #:got_lo12:_ZTVSt12bad_weak_ptr]
	ldr	x2, [x2, #:got_lo12:_ZNSt12bad_weak_ptrD1Ev]
	add	x3, x3, 16
	ldr	x1, [x1, #:got_lo12:_ZTISt12bad_weak_ptr]
	str	x3, [x0]
.LEHB15:
	bl	__cxa_throw
.LEHE15:
.L1050:
	ldr	x3, [sp, 88]
	mov	x20, x0
	cbz	x3, .L1035
	add	x1, sp, 72
	mov	w2, 3
	mov	x0, x1
	blr	x3
.L1035:
	mov	x0, x19
	bl	_ZNSt16_Sp_counted_baseILN9__gnu_cxx12_Lock_policyE2EE10_M_releaseEv
	mov	x0, x20
.LEHB16:
	bl	_Unwind_Resume
.LEHE16:
.L1049:
	ldr	x3, [sp, 88]
	mov	x20, x0
	cbz	x3, .L1035
	mov	x1, x23
	mov	x0, x23
	mov	w2, 3
	blr	x3
	b	.L1035
	.cfi_endproc
.LFE7957:
	.section	.gcc_except_table
.LLSDA7957:
	.byte	0xff
	.byte	0xff
	.byte	0x1
	.uleb128 .LLSDACSE7957-.LLSDACSB7957
.LLSDACSB7957:
	.uleb128 .LEHB13-.LFB7957
	.uleb128 .LEHE13-.LEHB13
	.uleb128 .L1050-.LFB7957
	.uleb128 0
	.uleb128 .LEHB14-.LFB7957
	.uleb128 .LEHE14-.LEHB14
	.uleb128 .L1049-.LFB7957
	.uleb128 0
	.uleb128 .LEHB15-.LFB7957
	.uleb128 .LEHE15-.LEHB15
	.uleb128 0
	.uleb128 0
	.uleb128 .LEHB16-.LFB7957
	.uleb128 .LEHE16-.LEHB16
	.uleb128 0
	.uleb128 0
.LLSDACSE7957:
	.text
	.size	_ZN8asiodnp311LinkSession8ShutdownEv, .-_ZN8asiodnp311LinkSession8ShutdownEv
	.set	.LTHUNK2,_ZN8asiodnp311LinkSession8ShutdownEv
	.align	2
	.p2align 4,,11
	.global	_ZThn40_N8asiodnp311LinkSession8ShutdownEv
	.type	_ZThn40_N8asiodnp311LinkSession8ShutdownEv, %function
_ZThn40_N8asiodnp311LinkSession8ShutdownEv:
.LFB10716:
	.cfi_startproc
	sub	x0, x0, #40
	b	.LTHUNK2
	.cfi_endproc
.LFE10716:
	.size	_ZThn40_N8asiodnp311LinkSession8ShutdownEv, .-_ZThn40_N8asiodnp311LinkSession8ShutdownEv
	.section	.rodata.str1.8,"aMS",@progbits,1
	.align	3
.LC21:
	.string	"SocketSession already has a master bound"
	.align	3
.LC22:
	.string	"/home/jaehyun/OpenPLC_v3/utils/dnp3_src/cpp/libs/src/asiodnp3/LinkSession.cpp(161)"
	.text
	.align	2
	.p2align 4,,11
	.global	_ZN8asiodnp311LinkSession13AcceptSessionERKNSt7__cxx1112basic_stringIcSt11char_traitsIcESaIcEEESt10shared_ptrIN8opendnp311ISOEHandlerEES9_INSA_18IMasterApplicationEERKNS_17MasterStackConfigE
	.type	_ZN8asiodnp311LinkSession13AcceptSessionERKNSt7__cxx1112basic_stringIcSt11char_traitsIcESaIcEEESt10shared_ptrIN8opendnp311ISOEHandlerEES9_INSA_18IMasterApplicationEERKNS_17MasterStackConfigE, %function
_ZN8asiodnp311LinkSession13AcceptSessionERKNSt7__cxx1112basic_stringIcSt11char_traitsIcESaIcEEESt10shared_ptrIN8opendnp311ISOEHandlerEES9_INSA_18IMasterApplicationEERKNS_17MasterStackConfigE:
.LFB7997:
	.cfi_startproc
	.cfi_personality 0x9b,DW.ref.__gxx_personality_v0
	.cfi_lsda 0x1b,.LLSDA7997
	stp	x29, x30, [sp, -144]!
	.cfi_def_cfa_offset 144
	.cfi_offset 29, -144
	.cfi_offset 30, -136
	adrp	x5, :got:__stack_chk_guard
	mov	x29, sp
	ldr	x5, [x5, #:got_lo12:__stack_chk_guard]
	stp	x19, x20, [sp, 16]
	.cfi_offset 19, -128
	.cfi_offset 20, -120
	mov	x19, x0
	stp	x21, x22, [sp, 32]
	mov	x20, x8
	stp	x23, x24, [sp, 48]
	.cfi_offset 21, -112
	.cfi_offset 22, -104
	.cfi_offset 23, -96
	.cfi_offset 24, -88
	add	x24, x0, 64
	ldr	x0, [x0, 592]
	ldr	x6, [x5]
	str	x6, [sp, 136]
	mov	x6, 0
	cbz	x0, .L1073
	add	x21, sp, 120
	mov	w19, 2
	mov	x1, x21
	mov	x0, x24
	str	w19, [sp, 120]
.LEHB17:
	bl	_ZNK7openpal6Logger9IsEnabledERKNS_10LogFiltersE
	tst	w0, 255
	bne	.L1131
.L1074:
	stp	xzr, xzr, [x20]
.L1072:
	adrp	x0, :got:__stack_chk_guard
	ldr	x0, [x0, #:got_lo12:__stack_chk_guard]
	ldr	x2, [sp, 136]
	ldr	x1, [x0]
	subs	x2, x2, x1
	mov	x1, 0
	bne	.L1132
	mov	x0, x20
	ldp	x19, x20, [sp, 16]
	ldp	x21, x22, [sp, 32]
	ldp	x23, x24, [sp, 48]
	ldp	x29, x30, [sp], 144
	.cfi_remember_state
	.cfi_restore 30
	.cfi_restore 29
	.cfi_restore 23
	.cfi_restore 24
	.cfi_restore 21
	.cfi_restore 22
	.cfi_restore 19
	.cfi_restore 20
	.cfi_def_cfa_offset 0
	ret
	.p2align 2,,3
.L1131:
	.cfi_restore_state
	mov	x1, x21
	mov	x0, x24
	adrp	x3, .LC21
	adrp	x2, .LC22
	add	x3, x3, :lo12:.LC21
	add	x2, x2, :lo12:.LC22
	str	w19, [sp, 120]
	bl	_ZN7openpal6Logger3LogERKNS_10LogFiltersEPKcS5_
	b	.L1074
	.p2align 2,,3
.L1073:
	ldr	x0, [x19, 80]
	mov	x21, x2
	mov	x22, x3
	mov	x23, x4
	stp	x25, x26, [sp, 64]
	.cfi_offset 26, -72
	.cfi_offset 25, -80
	str	x27, [sp, 80]
	.cfi_offset 27, -64
	bl	_ZNSt7__cxx1112basic_stringIcSt11char_traitsIcESaIcEE9_M_assignERKS4_
.LEHE17:
	ldr	x2, [x19, 32]
	str	x2, [sp, 128]
	ldr	x27, [x19, 136]
	add	x27, x27, 24
	cbz	x2, .L1076
	add	x25, x2, 8
	ldr	w26, [x25]
.L1078:
	cbz	w26, .L1076
	add	w1, w26, 1
	mov	w0, w26
	mov	x2, x25
	bl	__aarch64_cas4_acq_rel
	cmp	w0, w26
	mov	w26, w0
	bne	.L1078
	ldr	x7, [x19, 24]
	mov	x6, x23
	mov	x3, x22
	mov	x2, x21
	mov	x1, x27
	mov	x0, x24
	add	x8, sp, 96
	mov	x5, x19
	add	x4, sp, 120
	str	x7, [sp, 120]
.LEHB18:
	bl	_ZN8asiodnp318MasterSessionStack6CreateERKN7openpal6LoggerERKSt10shared_ptrIN7asiopal8ExecutorEERKS5_IN8opendnp311ISOEHandlerEERKS5_INSB_18IMasterApplicationEERKS5_INS_11LinkSessionEERNSB_7ILinkTxERKNS_17MasterStackConfigE
.LEHE18:
	ldr	q0, [sp, 96]
	stp	xzr, xzr, [sp, 96]
	ldr	x22, [x19, 600]
	str	q0, [x19, 592]
	cbz	x22, .L1080
	adrp	x21, :got:__libc_single_threaded
	ldr	x0, [x21, #:got_lo12:__libc_single_threaded]
	ldrb	w0, [x0]
	cbz	w0, .L1081
	ldr	w0, [x22, 8]
	sub	w1, w0, #1
	str	w1, [x22, 8]
	cmp	w0, 1
	bne	.L1080
.L1085:
	ldr	x1, [x22]
	mov	x0, x22
	ldr	x1, [x1, 16]
	blr	x1
	ldr	x0, [x21, #:got_lo12:__libc_single_threaded]
	ldrb	w0, [x0]
	cbz	w0, .L1133
	ldr	w0, [x22, 12]
	sub	w1, w0, #1
	str	w1, [x22, 12]
.L1087:
	cmp	w0, 1
	beq	.L1134
.L1086:
	ldr	x22, [sp, 104]
	cbz	x22, .L1080
	ldr	x0, [x21, #:got_lo12:__libc_single_threaded]
	ldrb	w0, [x0]
	cbz	w0, .L1089
	ldr	w0, [x22, 8]
	sub	w1, w0, #1
	str	w1, [x22, 8]
.L1090:
	cmp	w0, 1
	bne	.L1080
	ldr	x1, [x22]
	mov	x0, x22
	ldr	x1, [x1, 16]
	blr	x1
	ldr	x21, [x21, #:got_lo12:__libc_single_threaded]
	ldrb	w0, [x21]
	cbz	w0, .L1091
	ldr	w0, [x22, 12]
	sub	w1, w0, #1
	str	w1, [x22, 12]
.L1092:
	cmp	w0, 1
	bne	.L1080
	ldr	x1, [x22]
	mov	x0, x22
	ldr	x1, [x1, 24]
	blr	x1
	.p2align 3,,7
.L1080:
	ldr	x22, [sp, 128]
	cbz	x22, .L1094
	adrp	x21, :got:__libc_single_threaded
	ldr	x0, [x21, #:got_lo12:__libc_single_threaded]
	ldrb	w0, [x0]
	cbz	w0, .L1095
	ldr	w0, [x22, 8]
	sub	w1, w0, #1
	str	w1, [x22, 8]
.L1096:
	cmp	w0, 1
	bne	.L1094
	ldr	x1, [x22]
	mov	x0, x22
	ldr	x1, [x1, 16]
	blr	x1
	ldr	x21, [x21, #:got_lo12:__libc_single_threaded]
	ldrb	w0, [x21]
	cbz	w0, .L1098
	ldr	w0, [x22, 12]
	sub	w1, w0, #1
	str	w1, [x22, 12]
.L1099:
	cmp	w0, 1
	bne	.L1094
	ldr	x1, [x22]
	mov	x0, x22
	ldr	x1, [x1, 24]
	blr	x1
	.p2align 3,,7
.L1094:
	ldr	q0, [x19, 592]
	umov	x1, v0.d[1]
	str	q0, [x20]
	cbz	x1, .L1130
	adrp	x0, :got:__libc_single_threaded
	ldr	x0, [x0, #:got_lo12:__libc_single_threaded]
	ldrb	w0, [x0]
	cbz	w0, .L1100
	ldr	w0, [x1, 8]
	ldp	x25, x26, [sp, 64]
	.cfi_remember_state
	.cfi_restore 26
	.cfi_restore 25
	add	w0, w0, 1
	ldr	x27, [sp, 80]
	.cfi_restore 27
	str	w0, [x1, 8]
	b	.L1072
	.p2align 2,,3
.L1100:
	.cfi_restore_state
	add	x1, x1, 8
	mov	w0, 1
	bl	__aarch64_ldadd4_acq_rel
	ldp	x25, x26, [sp, 64]
	.cfi_remember_state
	.cfi_restore 26
	.cfi_restore 25
	ldr	x27, [sp, 80]
	.cfi_restore 27
	b	.L1072
	.p2align 2,,3
.L1130:
	.cfi_restore_state
	ldp	x25, x26, [sp, 64]
	.cfi_remember_state
	.cfi_restore 26
	.cfi_restore 25
	ldr	x27, [sp, 80]
	.cfi_restore 27
	b	.L1072
	.p2align 2,,3
.L1081:
	.cfi_restore_state
	add	x1, x22, 8
	mov	w0, -1
	bl	__aarch64_ldadd4_acq_rel
	cmp	w0, 1
	bne	.L1086
	b	.L1085
	.p2align 2,,3
.L1095:
	add	x1, x22, 8
	mov	w0, -1
	bl	__aarch64_ldadd4_acq_rel
	b	.L1096
	.p2align 2,,3
.L1089:
	add	x1, x22, 8
	mov	w0, -1
	bl	__aarch64_ldadd4_acq_rel
	b	.L1090
	.p2align 2,,3
.L1134:
	ldr	x1, [x22]
	mov	x0, x22
	ldr	x1, [x1, 24]
	blr	x1
	b	.L1086
	.p2align 2,,3
.L1098:
	add	x1, x22, 12
	mov	w0, -1
	bl	__aarch64_ldadd4_acq_rel
	b	.L1099
	.p2align 2,,3
.L1091:
	add	x1, x22, 12
	mov	w0, -1
	bl	__aarch64_ldadd4_acq_rel
	b	.L1092
	.p2align 2,,3
.L1133:
	add	x1, x22, 12
	mov	w0, -1
	bl	__aarch64_ldadd4_acq_rel
	b	.L1087
.L1132:
	.cfi_restore 25
	.cfi_restore 26
	.cfi_restore 27
	stp	x25, x26, [sp, 64]
	.cfi_offset 26, -72
	.cfi_offset 25, -80
	str	x27, [sp, 80]
	.cfi_offset 27, -64
	bl	__stack_chk_fail
.L1076:
	mov	x0, 8
	bl	__cxa_allocate_exception
	adrp	x3, :got:_ZTVSt12bad_weak_ptr
	adrp	x2, :got:_ZNSt12bad_weak_ptrD1Ev
	adrp	x1, :got:_ZTISt12bad_weak_ptr
	ldr	x3, [x3, #:got_lo12:_ZTVSt12bad_weak_ptr]
	ldr	x2, [x2, #:got_lo12:_ZNSt12bad_weak_ptrD1Ev]
	add	x3, x3, 16
	ldr	x1, [x1, #:got_lo12:_ZTISt12bad_weak_ptr]
	str	x3, [x0]
.LEHB19:
	bl	__cxa_throw
.L1105:
	ldr	x1, [sp, 128]
	mov	x19, x0
	cbz	x1, .L1102
	mov	x0, x1
	bl	_ZNSt16_Sp_counted_baseILN9__gnu_cxx12_Lock_policyE2EE10_M_releaseEv
.L1102:
	mov	x0, x19
	bl	_Unwind_Resume
.LEHE19:
	.cfi_endproc
.LFE7997:
	.section	.gcc_except_table
.LLSDA7997:
	.byte	0xff
	.byte	0xff
	.byte	0x1
	.uleb128 .LLSDACSE7997-.LLSDACSB7997
.LLSDACSB7997:
	.uleb128 .LEHB17-.LFB7997
	.uleb128 .LEHE17-.LEHB17
	.uleb128 0
	.uleb128 0
	.uleb128 .LEHB18-.LFB7997
	.uleb128 .LEHE18-.LEHB18
	.uleb128 .L1105-.LFB7997
	.uleb128 0
	.uleb128 .LEHB19-.LFB7997
	.uleb128 .LEHE19-.LEHB19
	.uleb128 0
	.uleb128 0
.LLSDACSE7997:
	.text
	.size	_ZN8asiodnp311LinkSession13AcceptSessionERKNSt7__cxx1112basic_stringIcSt11char_traitsIcESaIcEEESt10shared_ptrIN8opendnp311ISOEHandlerEES9_INSA_18IMasterApplicationEERKNS_17MasterStackConfigE, .-_ZN8asiodnp311LinkSession13AcceptSessionERKNSt7__cxx1112basic_stringIcSt11char_traitsIcESaIcEEESt10shared_ptrIN8opendnp311ISOEHandlerEES9_INSA_18IMasterApplicationEERKNS_17MasterStackConfigE
	.align	2
	.p2align 4,,11
	.global	_ZN8asiodnp311LinkSession5StartEv
	.type	_ZN8asiodnp311LinkSession5StartEv, %function
_ZN8asiodnp311LinkSession5StartEv:
.LFB7998:
	.cfi_startproc
	.cfi_personality 0x9b,DW.ref.__gxx_personality_v0
	.cfi_lsda 0x1b,.LLSDA7998
	stp	x29, x30, [sp, -128]!
	.cfi_def_cfa_offset 128
	.cfi_offset 29, -128
	.cfi_offset 30, -120
	adrp	x1, :got:__stack_chk_guard
	mov	x29, sp
	ldr	x1, [x1, #:got_lo12:__stack_chk_guard]
	stp	x19, x20, [sp, 16]
	.cfi_offset 19, -112
	.cfi_offset 20, -104
	mov	x19, x0
	stp	x21, x22, [sp, 32]
	stp	x23, x24, [sp, 48]
	ldr	x20, [x0, 32]
	.cfi_offset 21, -96
	.cfi_offset 22, -88
	.cfi_offset 23, -80
	.cfi_offset 24, -72
	ldr	x23, [x0, 136]
	str	x25, [sp, 64]
	.cfi_offset 25, -64
	ldr	x0, [x1]
	str	x0, [sp, 120]
	mov	x0, 0
	cbz	x20, .L1157
	add	x24, x20, 8
	ldr	w21, [x24]
.L1138:
	cbz	w21, .L1157
	add	w1, w21, 1
	mov	w0, w21
	mov	x2, x24
	bl	__aarch64_cas4_acq_rel
	cmp	w0, w21
	mov	w21, w0
	bne	.L1138
	adrp	x22, :got:__libc_single_threaded
	ldr	x0, [x19, 24]
	ldr	x25, [x22, #:got_lo12:__libc_single_threaded]
	cmp	x0, 0
	ldr	x21, [x23, 48]
	add	x1, x0, 8
	csel	x0, x1, x0, ne
	str	x0, [x23, 40]
	ldrb	w0, [x25]
	cmp	x20, x21
	beq	.L1139
	cbz	w0, .L1140
	ldr	w1, [x20, 8]
	add	w1, w1, 1
	str	w1, [x20, 8]
	cbz	x21, .L1142
.L1141:
	ldr	w0, [x21, 8]
	sub	w1, w0, #1
	str	w1, [x21, 8]
	cmp	w0, 1
	beq	.L1146
.L1221:
	ldr	x0, [x22, #:got_lo12:__libc_single_threaded]
	ldrb	w0, [x0]
.L1142:
	str	x20, [x23, 48]
.L1139:
	cbz	w0, .L1150
	ldr	w0, [x20, 8]
	sub	w1, w0, #1
	str	w1, [x20, 8]
	cmp	w0, 1
	beq	.L1223
.L1153:
	ldr	x20, [x19, 32]
	cbz	x20, .L1157
	add	x23, x20, 8
	ldr	w21, [x23]
.L1159:
	cbz	w21, .L1157
	add	w1, w21, 1
	mov	w0, w21
	mov	x2, x23
	bl	__aarch64_cas4_acq_rel
	cmp	w0, w21
	mov	w21, w0
	bne	.L1159
	ldr	x0, [x19, 120]
	add	x25, x19, 568
	ldr	x24, [x19, 24]
	ldr	x1, [x0]
	ldr	x1, [x1, 32]
.LEHB20:
	blr	x1
.LEHE20:
	str	x0, [sp, 80]
	ldr	x0, [x22, #:got_lo12:__libc_single_threaded]
	ldrb	w0, [x0]
	cbz	w0, .L1224
	ldr	w0, [x20, 8]
	add	w0, w0, 1
	str	w0, [x20, 8]
.L1161:
	mov	x0, 24
	stp	xzr, xzr, [sp, 88]
	stp	xzr, xzr, [sp, 104]
.LEHB21:
	bl	_Znwm
.LEHE21:
	mov	x21, x0
	ldr	x1, [x22, #:got_lo12:__libc_single_threaded]
	stp	x25, x24, [x21]
	ldrb	w0, [x1]
	str	x20, [x21, 16]
	cbz	w0, .L1162
	ldr	w0, [x20, 8]
	add	w0, w0, 1
	str	w0, [x20, 8]
.L1163:
	adrp	x3, _ZNSt17_Function_handlerIFvvEZN7openpal8TimerRef5StartIZN8asiodnp311LinkSession5StartEvEUlvE_EEbRKNS1_12TimeDurationERKT_EUlvE_E9_M_invokeERKSt9_Any_data
	adrp	x4, _ZNSt17_Function_handlerIFvvEZN7openpal8TimerRef5StartIZN8asiodnp311LinkSession5StartEvEUlvE_EEbRKNS1_12TimeDurationERKT_EUlvE_E10_M_managerERSt9_Any_dataRKSF_St18_Manager_operation
	add	x3, x3, :lo12:_ZNSt17_Function_handlerIFvvEZN7openpal8TimerRef5StartIZN8asiodnp311LinkSession5StartEvEUlvE_EEbRKNS1_12TimeDurationERKT_EUlvE_E9_M_invokeERKSt9_Any_data
	add	x4, x4, :lo12:_ZNSt17_Function_handlerIFvvEZN7openpal8TimerRef5StartIZN8asiodnp311LinkSession5StartEvEUlvE_EEbRKNS1_12TimeDurationERKT_EUlvE_E10_M_managerERSt9_Any_dataRKSF_St18_Manager_operation
	add	x24, sp, 88
	mov	x0, x25
	mov	x2, x24
	add	x1, sp, 80
	str	x21, [sp, 88]
	stp	x4, x3, [sp, 104]
.LEHB22:
	bl	_ZN7openpal8TimerRef11StartActionERKNS_12TimeDurationERKSt8functionIFvvEE
.LEHE22:
	ldr	x3, [sp, 104]
	cbz	x3, .L1168
	mov	x1, x24
	mov	x0, x24
	mov	w2, 3
	blr	x3
.L1168:
	ldr	x0, [x22, #:got_lo12:__libc_single_threaded]
	ldrb	w0, [x0]
	cbz	w0, .L1169
	ldr	w0, [x20, 8]
	sub	w1, w0, #1
	str	w1, [x20, 8]
	cmp	w0, 1
	beq	.L1225
.L1172:
	mov	x0, x19
.LEHB23:
	bl	_ZN8asiodnp311LinkSession12BeginReceiveEv
.LEHE23:
	ldr	x0, [x22, #:got_lo12:__libc_single_threaded]
	ldrb	w0, [x0]
	cbz	w0, .L1180
	ldr	w0, [x20, 8]
	sub	w1, w0, #1
	str	w1, [x20, 8]
	cmp	w0, 1
	beq	.L1226
.L1135:
	adrp	x0, :got:__stack_chk_guard
	ldr	x0, [x0, #:got_lo12:__stack_chk_guard]
	ldr	x2, [sp, 120]
	ldr	x1, [x0]
	subs	x2, x2, x1
	mov	x1, 0
	bne	.L1222
	ldp	x19, x20, [sp, 16]
	ldp	x21, x22, [sp, 32]
	ldp	x23, x24, [sp, 48]
	ldr	x25, [sp, 64]
	ldp	x29, x30, [sp], 128
	.cfi_remember_state
	.cfi_restore 30
	.cfi_restore 29
	.cfi_restore 25
	.cfi_restore 23
	.cfi_restore 24
	.cfi_restore 21
	.cfi_restore 22
	.cfi_restore 19
	.cfi_restore 20
	.cfi_def_cfa_offset 0
	ret
	.p2align 2,,3
.L1140:
	.cfi_restore_state
	mov	x1, x24
	mov	w0, 1
	bl	__aarch64_ldadd4_acq_rel
	ldr	x21, [x23, 48]
	ldrb	w0, [x25]
	cbz	x21, .L1142
	cbnz	w0, .L1141
	add	x1, x21, 8
	mov	w0, -1
	bl	__aarch64_ldadd4_acq_rel
	cmp	w0, 1
	bne	.L1221
.L1146:
	ldr	x1, [x21]
	mov	x0, x21
	ldr	x1, [x1, 16]
	blr	x1
	ldr	x0, [x22, #:got_lo12:__libc_single_threaded]
	ldrb	w0, [x0]
	cbz	w0, .L1147
	ldr	w0, [x21, 12]
	sub	w1, w0, #1
	str	w1, [x21, 12]
.L1148:
	cmp	w0, 1
	bne	.L1221
	ldr	x1, [x21]
	mov	x0, x21
	ldr	x1, [x1, 24]
	blr	x1
	b	.L1221
	.p2align 2,,3
.L1224:
	mov	x1, x23
	mov	w0, 1
	bl	__aarch64_ldadd4_acq_rel
	b	.L1161
	.p2align 2,,3
.L1162:
	mov	x1, x23
	mov	w0, 1
	bl	__aarch64_ldadd4_acq_rel
	b	.L1163
	.p2align 2,,3
.L1223:
	ldr	x1, [x20]
	mov	x0, x20
	ldr	x1, [x1, 16]
	blr	x1
	ldr	x0, [x22, #:got_lo12:__libc_single_threaded]
	ldrb	w0, [x0]
	cbz	w0, .L1154
	ldr	w0, [x20, 12]
	sub	w1, w0, #1
	str	w1, [x20, 12]
.L1155:
	cmp	w0, 1
	bne	.L1153
	ldr	x1, [x20]
	mov	x0, x20
	ldr	x1, [x1, 24]
	blr	x1
	b	.L1153
	.p2align 2,,3
.L1225:
	ldr	x1, [x20]
	mov	x0, x20
	ldr	x1, [x1, 16]
	blr	x1
	ldr	x0, [x22, #:got_lo12:__libc_single_threaded]
	ldrb	w0, [x0]
	cbz	w0, .L1173
	ldr	w0, [x20, 12]
	sub	w1, w0, #1
	str	w1, [x20, 12]
.L1174:
	cmp	w0, 1
	bne	.L1172
	ldr	x1, [x20]
	mov	x0, x20
	ldr	x1, [x1, 24]
	blr	x1
	b	.L1172
	.p2align 2,,3
.L1180:
	mov	x1, x23
	mov	w0, -1
	bl	__aarch64_ldadd4_acq_rel
	cmp	w0, 1
	bne	.L1135
.L1226:
	ldr	x1, [x20]
	mov	x0, x20
	ldr	x1, [x1, 16]
	blr	x1
	ldr	x22, [x22, #:got_lo12:__libc_single_threaded]
	ldrb	w0, [x22]
	cbz	w0, .L1184
	ldr	w0, [x20, 12]
	sub	w1, w0, #1
	str	w1, [x20, 12]
.L1185:
	cmp	w0, 1
	bne	.L1135
	adrp	x0, :got:__stack_chk_guard
	ldr	x0, [x0, #:got_lo12:__stack_chk_guard]
	ldr	x2, [sp, 120]
	ldr	x1, [x0]
	subs	x2, x2, x1
	mov	x1, 0
	bne	.L1222
	ldr	x1, [x20]
	mov	x0, x20
	ldp	x19, x20, [sp, 16]
	ldr	x1, [x1, 24]
	ldp	x21, x22, [sp, 32]
	mov	x16, x1
	ldp	x23, x24, [sp, 48]
	ldr	x25, [sp, 64]
	ldp	x29, x30, [sp], 128
	.cfi_remember_state
	.cfi_restore 30
	.cfi_restore 29
	.cfi_restore 25
	.cfi_restore 23
	.cfi_restore 24
	.cfi_restore 21
	.cfi_restore 22
	.cfi_restore 19
	.cfi_restore 20
	.cfi_def_cfa_offset 0
	br	x16
	.p2align 2,,3
.L1169:
	.cfi_restore_state
	mov	x1, x23
	mov	w0, -1
	bl	__aarch64_ldadd4_acq_rel
	cmp	w0, 1
	bne	.L1172
	b	.L1225
	.p2align 2,,3
.L1150:
	mov	x1, x24
	mov	w0, -1
	bl	__aarch64_ldadd4_acq_rel
	cmp	w0, 1
	bne	.L1153
	b	.L1223
	.p2align 2,,3
.L1184:
	add	x1, x20, 12
	mov	w0, -1
	bl	__aarch64_ldadd4_acq_rel
	b	.L1185
	.p2align 2,,3
.L1173:
	add	x1, x20, 12
	mov	w0, -1
	bl	__aarch64_ldadd4_acq_rel
	b	.L1174
	.p2align 2,,3
.L1154:
	add	x1, x20, 12
	mov	w0, -1
	bl	__aarch64_ldadd4_acq_rel
	b	.L1155
	.p2align 2,,3
.L1147:
	add	x1, x21, 12
	mov	w0, -1
	bl	__aarch64_ldadd4_acq_rel
	b	.L1148
.L1222:
	bl	__stack_chk_fail
.L1192:
	mov	x19, x0
.L1179:
	mov	x0, x20
	bl	_ZNSt16_Sp_counted_baseILN9__gnu_cxx12_Lock_policyE2EE10_M_releaseEv
	mov	x0, x19
.LEHB24:
	bl	_Unwind_Resume
.LEHE24:
.L1193:
	ldr	x3, [sp, 104]
	mov	x19, x0
	cbz	x3, .L1167
	mov	x1, x24
	mov	x0, x24
	mov	w2, 3
	blr	x3
.L1167:
	mov	x0, x20
	bl	_ZNSt16_Sp_counted_baseILN9__gnu_cxx12_Lock_policyE2EE10_M_releaseEv
	b	.L1179
.L1194:
	ldr	x3, [sp, 104]
	mov	x19, x0
	cbz	x3, .L1167
	add	x1, sp, 88
	mov	w2, 3
	mov	x0, x1
	blr	x3
	b	.L1167
.L1157:
	mov	x0, 8
	bl	__cxa_allocate_exception
	adrp	x3, :got:_ZTVSt12bad_weak_ptr
	adrp	x2, :got:_ZNSt12bad_weak_ptrD1Ev
	adrp	x1, :got:_ZTISt12bad_weak_ptr
	ldr	x3, [x3, #:got_lo12:_ZTVSt12bad_weak_ptr]
	ldr	x2, [x2, #:got_lo12:_ZNSt12bad_weak_ptrD1Ev]
	add	x3, x3, 16
	ldr	x1, [x1, #:got_lo12:_ZTISt12bad_weak_ptr]
	str	x3, [x0]
.LEHB25:
	bl	__cxa_throw
.LEHE25:
	.cfi_endproc
.LFE7998:
	.section	.gcc_except_table
.LLSDA7998:
	.byte	0xff
	.byte	0xff
	.byte	0x1
	.uleb128 .LLSDACSE7998-.LLSDACSB7998
.LLSDACSB7998:
	.uleb128 .LEHB20-.LFB7998
	.uleb128 .LEHE20-.LEHB20
	.uleb128 .L1192-.LFB7998
	.uleb128 0
	.uleb128 .LEHB21-.LFB7998
	.uleb128 .LEHE21-.LEHB21
	.uleb128 .L1194-.LFB7998
	.uleb128 0
	.uleb128 .LEHB22-.LFB7998
	.uleb128 .LEHE22-.LEHB22
	.uleb128 .L1193-.LFB7998
	.uleb128 0
	.uleb128 .LEHB23-.LFB7998
	.uleb128 .LEHE23-.LEHB23
	.uleb128 .L1192-.LFB7998
	.uleb128 0
	.uleb128 .LEHB24-.LFB7998
	.uleb128 .LEHE24-.LEHB24
	.uleb128 0
	.uleb128 0
	.uleb128 .LEHB25-.LFB7998
	.uleb128 .LEHE25-.LEHB25
	.uleb128 0
	.uleb128 0
.LLSDACSE7998:
	.text
	.size	_ZN8asiodnp311LinkSession5StartEv, .-_ZN8asiodnp311LinkSession5StartEv
	.global	__aarch64_ldadd8_acq_rel
	.align	2
	.p2align 4,,11
	.global	_ZN8asiodnp311LinkSession12ShutdownImplEv
	.type	_ZN8asiodnp311LinkSession12ShutdownImplEv, %function
_ZN8asiodnp311LinkSession12ShutdownImplEv:
.LFB7970:
	.cfi_startproc
	.cfi_personality 0x9b,DW.ref.__gxx_personality_v0
	.cfi_lsda 0x1b,.LLSDA7970
	stp	x29, x30, [sp, -160]!
	.cfi_def_cfa_offset 160
	.cfi_offset 29, -160
	.cfi_offset 30, -152
	adrp	x1, :got:__stack_chk_guard
	mov	x29, sp
	ldr	x1, [x1, #:got_lo12:__stack_chk_guard]
	stp	x19, x20, [sp, 16]
	.cfi_offset 19, -144
	.cfi_offset 20, -136
	mov	x19, x0
	ldrb	w0, [x0, 56]
	ldr	x2, [x1]
	str	x2, [sp, 152]
	mov	x2, 0
	cbz	w0, .L1382
.L1227:
	adrp	x0, :got:__stack_chk_guard
	ldr	x0, [x0, #:got_lo12:__stack_chk_guard]
	ldr	x2, [sp, 152]
	ldr	x1, [x0]
	subs	x2, x2, x1
	mov	x1, 0
	bne	.L1383
	ldp	x19, x20, [sp, 16]
	ldp	x29, x30, [sp], 160
	.cfi_remember_state
	.cfi_restore 30
	.cfi_restore 29
	.cfi_restore 19
	.cfi_restore 20
	.cfi_def_cfa_offset 0
	ret
	.p2align 2,,3
.L1382:
	.cfi_restore_state
	stp	x21, x22, [sp, 32]
	.cfi_offset 22, -120
	.cfi_offset 21, -128
	mov	w0, 1
	stp	x23, x24, [sp, 48]
	.cfi_offset 24, -104
	.cfi_offset 23, -112
	stp	x25, x26, [sp, 64]
	.cfi_offset 26, -88
	.cfi_offset 25, -96
	stp	x27, x28, [sp, 80]
	.cfi_offset 28, -72
	.cfi_offset 27, -80
	ldr	x20, [x19, 120]
	strb	w0, [x19, 56]
	ldr	q0, [x19, 592]
	ldr	x0, [x20]
	umov	x1, v0.d[1]
	ldr	x22, [x19, 96]
	ldr	x21, [x0, 48]
	str	q0, [sp, 128]
	cbz	x1, .L1229
	adrp	x0, :got:__libc_single_threaded
	ldr	x0, [x0, #:got_lo12:__libc_single_threaded]
	ldrb	w0, [x0]
	cbz	w0, .L1230
	ldr	w0, [x1, 8]
	add	w0, w0, 1
	str	w0, [x1, 8]
.L1229:
	add	x26, sp, 128
	mov	x1, x22
	mov	x0, x20
	mov	x2, x26
.LEHB26:
	blr	x21
.LEHE26:
	ldr	x20, [sp, 136]
	cbz	x20, .L1232
	adrp	x21, :got:__libc_single_threaded
	ldr	x0, [x21, #:got_lo12:__libc_single_threaded]
	ldrb	w0, [x0]
	cbz	w0, .L1233
	ldr	w0, [x20, 8]
	sub	w1, w0, #1
	str	w1, [x20, 8]
.L1234:
	cmp	w0, 1
	bne	.L1232
	ldr	x1, [x20]
	mov	x0, x20
	ldr	x1, [x1, 16]
	blr	x1
	ldr	x21, [x21, #:got_lo12:__libc_single_threaded]
	ldrb	w0, [x21]
	cbz	w0, .L1236
	ldr	w0, [x20, 12]
	sub	w1, w0, #1
	str	w1, [x20, 12]
.L1237:
	cmp	w0, 1
	beq	.L1384
	.p2align 3,,7
.L1232:
	ldr	x0, [x19, 592]
	cbz	x0, .L1238
.LEHB27:
	bl	_ZN8asiodnp318MasterSessionStack16OnLowerLayerDownEv
.L1238:
	add	x0, x19, 568
	bl	_ZN7openpal8TimerRef6CancelEv
	ldr	x20, [x19, 136]
	ldrb	w0, [x20, 56]
	cbnz	w0, .L1239
	ldr	x1, [x20]
	mov	w0, 1
	strb	w0, [x20, 56]
	mov	x0, x20
	ldr	x1, [x1, 32]
	blr	x1
.LEHE27:
	ldr	x22, [x20, 16]
	cbz	x22, .L1272
	add	x25, x22, 8
	ldr	w21, [x25]
.L1242:
	cbz	w21, .L1272
	add	w1, w21, 1
	mov	w0, w21
	mov	x2, x25
	bl	__aarch64_cas4_acq_rel
	cmp	w0, w21
	mov	w21, w0
	bne	.L1242
	adrp	x21, :got:__libc_single_threaded
	ldr	x27, [x20, 8]
	ldr	x0, [x21, #:got_lo12:__libc_single_threaded]
	ldr	x24, [x20, 24]
	ldrb	w0, [x0]
	cbz	w0, .L1385
	ldr	w0, [x22, 8]
	add	w0, w0, 1
	str	w0, [x22, 8]
.L1243:
	adrp	x23, :got:_ZN4asio6detail10call_stackINS0_15task_io_serviceENS0_27task_io_service_thread_infoEE4top_E
	ldr	x28, [x24, 40]
	ldr	x0, [x23, #:got_lo12:_ZN4asio6detail10call_stackINS0_15task_io_serviceENS0_27task_io_service_thread_infoEE4top_E]
	ldr	w0, [x0]
	bl	pthread_getspecific
	cbz	x0, .L1244
	ldr	x0, [x0, 8]
	cbz	x0, .L1244
	ldr	x20, [x0]
	cbz	x20, .L1244
	str	xzr, [x0]
	ldrb	w0, [x20]
	cmp	w0, 39
	bls	.L1245
	strb	w0, [x20, 40]
	b	.L1246
	.p2align 2,,3
.L1245:
	mov	x0, x20
	bl	_ZdlPv
.L1244:
	mov	x0, 41
.LEHB28:
	bl	_Znwm
.LEHE28:
	mov	x20, x0
	mov	w1, 40
	strb	w1, [x0, 40]
.L1246:
	adrp	x1, :got:_ZN4asio6detail18completion_handlerIZN7asiopal13IAsyncChannel8ShutdownEvEUlvE_E11do_completeEPNS0_15task_io_serviceEPNS0_25task_io_service_operationERKSt10error_codem
	dup	v0.2d, x20
	ldr	x0, [x24, 48]
	str	wzr, [x20, 16]
	ldr	x1, [x1, #:got_lo12:_ZN4asio6detail18completion_handlerIZN7asiopal13IAsyncChannel8ShutdownEvEUlvE_E11do_completeEPNS0_15task_io_serviceEPNS0_25task_io_service_operationERKSt10error_codem]
	stp	xzr, x1, [x20]
	add	x0, x0, 24
	stp	x27, x22, [x20, 24]
	str	q0, [sp, 96]
	bl	pthread_mutex_lock
	ldr	x0, [x24, 48]
	ldrb	w1, [x0, 72]
	cbz	w1, .L1247
	str	xzr, [x20]
	ldr	x3, [x0, 88]
	cbz	x3, .L1248
	str	x20, [x3]
	str	x20, [x0, 88]
.L1249:
	add	x0, x0, 24
	bl	pthread_mutex_unlock
.L1250:
	ldr	x0, [x21, #:got_lo12:__libc_single_threaded]
	ldrb	w0, [x0]
	cbz	w0, .L1386
	ldr	w0, [x22, 8]
	sub	w1, w0, #1
	str	w1, [x22, 8]
.L1266:
	cmp	w0, 1
	bne	.L1239
	ldr	x1, [x22]
	mov	x0, x22
	ldr	x1, [x1, 16]
	blr	x1
	ldr	x21, [x21, #:got_lo12:__libc_single_threaded]
	ldrb	w0, [x21]
	cbz	w0, .L1269
	ldr	w0, [x22, 12]
	sub	w1, w0, #1
	str	w1, [x22, 12]
.L1270:
	cmp	w0, 1
	bne	.L1239
	ldr	x1, [x22]
	mov	x0, x22
	ldr	x1, [x1, 24]
	blr	x1
	.p2align 3,,7
.L1239:
	ldr	x20, [x19, 32]
	cbz	x20, .L1272
	add	x22, x20, 8
	ldr	w21, [x22]
.L1274:
	cbz	w21, .L1272
	add	w1, w21, 1
	mov	w0, w21
	mov	x2, x22
	bl	__aarch64_cas4_acq_rel
	cmp	w0, w21
	mov	w21, w0
	bne	.L1274
	adrp	x21, :got:__libc_single_threaded
	ldr	x1, [x19, 136]
	ldr	x0, [x21, #:got_lo12:__libc_single_threaded]
	ldr	x27, [x19, 24]
	ldrb	w0, [x0]
	ldr	x24, [x1, 24]
	cbz	w0, .L1387
	ldr	w0, [x20, 8]
	add	w0, w0, 1
	str	w0, [x20, 8]
.L1275:
	adrp	x23, :got:_ZN4asio6detail10call_stackINS0_15task_io_serviceENS0_27task_io_service_thread_infoEE4top_E
	ldr	x25, [x24, 40]
	ldr	x0, [x23, #:got_lo12:_ZN4asio6detail10call_stackINS0_15task_io_serviceENS0_27task_io_service_thread_infoEE4top_E]
	ldr	w0, [x0]
	bl	pthread_getspecific
	cbz	x0, .L1276
	ldr	x0, [x0, 8]
	cbz	x0, .L1276
	ldr	x19, [x0]
	cbz	x19, .L1276
	str	xzr, [x0]
	ldrb	w0, [x19]
	cmp	w0, 39
	bls	.L1277
	strb	w0, [x19, 40]
	b	.L1278
	.p2align 2,,3
.L1277:
	mov	x0, x19
	bl	_ZdlPv
.L1276:
	mov	x0, 41
.LEHB29:
	bl	_Znwm
.LEHE29:
	mov	x19, x0
	mov	w1, 40
	strb	w1, [x0, 40]
.L1278:
	dup	v0.2d, x19
	adrp	x1, _ZN4asio6detail18completion_handlerIZN8asiodnp311LinkSession12ShutdownImplEvEUlvE_E11do_completeEPNS0_15task_io_serviceEPNS0_25task_io_service_operationERKSt10error_codem
	add	x1, x1, :lo12:_ZN4asio6detail18completion_handlerIZN8asiodnp311LinkSession12ShutdownImplEvEUlvE_E11do_completeEPNS0_15task_io_serviceEPNS0_25task_io_service_operationERKSt10error_codem
	ldr	x0, [x24, 48]
	stp	xzr, x1, [x19]
	str	wzr, [x19, 16]
	add	x0, x0, 24
	stp	x27, x20, [x19, 24]
	str	q0, [sp, 96]
	bl	pthread_mutex_lock
	ldr	x0, [x24, 48]
	ldrb	w1, [x0, 72]
	cbz	w1, .L1279
	str	xzr, [x19]
	ldr	x3, [x0, 88]
	cbz	x3, .L1280
	str	x19, [x3]
	str	x19, [x0, 88]
.L1281:
	add	x0, x0, 24
	bl	pthread_mutex_unlock
.L1282:
	ldr	x0, [x21, #:got_lo12:__libc_single_threaded]
	ldrb	w0, [x0]
	cbz	w0, .L1388
	ldr	w0, [x20, 8]
	sub	w1, w0, #1
	str	w1, [x20, 8]
.L1298:
	cmp	w0, 1
	beq	.L1389
.L1380:
	ldp	x21, x22, [sp, 32]
	.cfi_remember_state
	.cfi_restore 22
	.cfi_restore 21
	ldp	x23, x24, [sp, 48]
	.cfi_restore 24
	.cfi_restore 23
	ldp	x25, x26, [sp, 64]
	.cfi_restore 26
	.cfi_restore 25
	ldp	x27, x28, [sp, 80]
	.cfi_restore 28
	.cfi_restore 27
	b	.L1227
	.p2align 2,,3
.L1389:
	.cfi_restore_state
	ldr	x1, [x20]
	mov	x0, x20
	ldr	x1, [x1, 16]
	blr	x1
	ldr	x21, [x21, #:got_lo12:__libc_single_threaded]
	ldrb	w0, [x21]
	cbz	w0, .L1301
	ldr	w0, [x20, 12]
	sub	w1, w0, #1
	str	w1, [x20, 12]
.L1302:
	cmp	w0, 1
	bne	.L1380
	adrp	x0, :got:__stack_chk_guard
	ldr	x0, [x0, #:got_lo12:__stack_chk_guard]
	ldr	x2, [sp, 152]
	ldr	x1, [x0]
	subs	x2, x2, x1
	mov	x1, 0
	bne	.L1381
	ldr	x1, [x20]
	mov	x0, x20
	ldp	x19, x20, [sp, 16]
	ldr	x1, [x1, 24]
	ldp	x21, x22, [sp, 32]
	.cfi_remember_state
	.cfi_restore 22
	.cfi_restore 21
	mov	x16, x1
	ldp	x23, x24, [sp, 48]
	.cfi_restore 24
	.cfi_restore 23
	ldp	x25, x26, [sp, 64]
	.cfi_restore 26
	.cfi_restore 25
	ldp	x27, x28, [sp, 80]
	.cfi_restore 28
	.cfi_restore 27
	ldp	x29, x30, [sp], 160
	.cfi_restore 30
	.cfi_restore 29
	.cfi_restore 19
	.cfi_restore 20
	.cfi_def_cfa_offset 0
	br	x16
	.p2align 2,,3
.L1233:
	.cfi_restore_state
	add	x1, x20, 8
	mov	w0, -1
	bl	__aarch64_ldadd4_acq_rel
	b	.L1234
	.p2align 2,,3
.L1248:
	ldr	q0, [sp, 96]
	str	q0, [x0, 80]
	b	.L1249
	.p2align 2,,3
.L1279:
	mov	w1, 1
	strb	w1, [x0, 72]
	add	x0, x0, 24
	bl	pthread_mutex_unlock
	ldr	x24, [x24, 48]
	dup	v0.2d, x24
	ldr	x1, [x24, 104]
	str	xzr, [x19]
	str	q0, [sp, 112]
	cbz	x1, .L1283
	str	x19, [x1]
	str	x19, [x24, 104]
.L1284:
	ldr	x19, [x25, 40]
	ldrb	w0, [x19, 40]
	cbnz	w0, .L1390
.L1285:
	add	x1, x19, 192
	add	x25, x19, 48
	mov	x0, 1
	bl	__aarch64_ldadd8_acq_rel
	mov	x0, x25
	bl	pthread_mutex_lock
	ldr	x1, [x19, 208]
	str	xzr, [x24]
	cbz	x1, .L1290
	str	x24, [x1]
	str	x24, [x19, 208]
.L1291:
	ldr	x0, [x19, 144]
	add	x23, x19, 96
	orr	x0, x0, 1
	str	x0, [x19, 144]
	cmp	x0, 1
	beq	.L1292
	mov	x0, x25
	bl	pthread_mutex_unlock
	mov	x0, x23
	bl	pthread_cond_signal
	b	.L1282
	.p2align 2,,3
.L1387:
	mov	x1, x22
	mov	w0, 1
	bl	__aarch64_ldadd4_acq_rel
	b	.L1275
	.p2align 2,,3
.L1230:
	add	x1, x1, 8
	mov	w0, 1
	bl	__aarch64_ldadd4_acq_rel
	b	.L1229
	.p2align 2,,3
.L1247:
	mov	w1, 1
	strb	w1, [x0, 72]
	add	x0, x0, 24
	bl	pthread_mutex_unlock
	ldr	x24, [x24, 48]
	dup	v0.2d, x24
	ldr	x1, [x24, 104]
	str	xzr, [x20]
	str	q0, [sp, 112]
	cbz	x1, .L1251
	str	x20, [x1]
	str	x20, [x24, 104]
.L1252:
	ldr	x20, [x28, 40]
	ldrb	w0, [x20, 40]
	cbnz	w0, .L1391
.L1253:
	add	x1, x20, 192
	add	x27, x20, 48
	mov	x0, 1
	bl	__aarch64_ldadd8_acq_rel
	mov	x0, x27
	bl	pthread_mutex_lock
	ldr	x1, [x20, 208]
	str	xzr, [x24]
	cbz	x1, .L1258
	str	x24, [x1]
	str	x24, [x20, 208]
.L1259:
	ldr	x0, [x20, 144]
	add	x23, x20, 96
	orr	x0, x0, 1
	str	x0, [x20, 144]
	cmp	x0, 1
	beq	.L1260
	mov	x0, x27
	bl	pthread_mutex_unlock
	mov	x0, x23
	bl	pthread_cond_signal
	b	.L1250
	.p2align 2,,3
.L1260:
	ldrb	w1, [x20, 184]
	cbnz	w1, .L1262
	ldr	x4, [x20, 152]
	cbz	x4, .L1262
	mov	w1, 9
	strb	w0, [x20, 184]
	ldr	w2, [x4, 96]
	add	x0, x4, 96
	movk	w1, 0x8000, lsl 16
	str	w1, [sp, 128]
	str	x0, [sp, 136]
	mov	x3, x26
	mov	w1, 3
	ldr	w0, [x4, 104]
	bl	epoll_ctl
.L1262:
	mov	x0, x27
	bl	pthread_mutex_unlock
	b	.L1250
	.p2align 2,,3
.L1292:
	ldrb	w1, [x19, 184]
	cbnz	w1, .L1294
	ldr	x4, [x19, 152]
	cbz	x4, .L1294
	mov	w1, 9
	strb	w0, [x19, 184]
	ldr	w2, [x4, 96]
	add	x0, x4, 96
	movk	w1, 0x8000, lsl 16
	str	w1, [sp, 128]
	str	x0, [sp, 136]
	mov	x3, x26
	mov	w1, 3
	ldr	w0, [x4, 104]
	bl	epoll_ctl
.L1294:
	mov	x0, x25
	bl	pthread_mutex_unlock
	b	.L1282
	.p2align 2,,3
.L1280:
	ldr	q0, [sp, 96]
	str	q0, [x0, 80]
	b	.L1281
	.p2align 2,,3
.L1388:
	mov	x1, x22
	mov	w0, -1
	bl	__aarch64_ldadd4_acq_rel
	b	.L1298
	.p2align 2,,3
.L1385:
	mov	x1, x25
	mov	w0, 1
	bl	__aarch64_ldadd4_acq_rel
	b	.L1243
	.p2align 2,,3
.L1386:
	mov	x1, x25
	mov	w0, -1
	bl	__aarch64_ldadd4_acq_rel
	b	.L1266
	.p2align 2,,3
.L1390:
	ldr	x23, [x23, #:got_lo12:_ZN4asio6detail10call_stackINS0_15task_io_serviceENS0_27task_io_service_thread_infoEE4top_E]
	ldr	w0, [x23]
	bl	pthread_getspecific
	cbnz	x0, .L1288
	b	.L1285
	.p2align 2,,3
.L1286:
	ldr	x0, [x0, 16]
	cbz	x0, .L1285
.L1288:
	ldr	x1, [x0]
	cmp	x19, x1
	bne	.L1286
	ldr	x0, [x0, 8]
	cbz	x0, .L1285
	ldp	x3, x1, [x0, 16]
	add	x1, x1, 1
	str	x1, [x0, 24]
	str	xzr, [x24]
	ldr	x1, [x0, 16]
	cbz	x3, .L1289
	str	x24, [x1]
	str	x24, [x0, 16]
	b	.L1282
	.p2align 2,,3
.L1384:
	ldr	x1, [x20]
	mov	x0, x20
	ldr	x1, [x1, 24]
	blr	x1
	b	.L1232
	.p2align 2,,3
.L1269:
	add	x1, x22, 12
	mov	w0, -1
	bl	__aarch64_ldadd4_acq_rel
	b	.L1270
	.p2align 2,,3
.L1283:
	ldr	q0, [sp, 96]
	str	q0, [x24, 96]
	b	.L1284
	.p2align 2,,3
.L1290:
	ldr	q0, [sp, 112]
	str	q0, [x19, 200]
	b	.L1291
	.p2align 2,,3
.L1391:
	ldr	x23, [x23, #:got_lo12:_ZN4asio6detail10call_stackINS0_15task_io_serviceENS0_27task_io_service_thread_infoEE4top_E]
	ldr	w0, [x23]
	bl	pthread_getspecific
	cbnz	x0, .L1256
	b	.L1253
	.p2align 2,,3
.L1254:
	ldr	x0, [x0, 16]
	cbz	x0, .L1253
.L1256:
	ldr	x1, [x0]
	cmp	x20, x1
	bne	.L1254
	ldr	x0, [x0, 8]
	cbz	x0, .L1253
	ldp	x3, x1, [x0, 16]
	add	x1, x1, 1
	str	x1, [x0, 24]
	str	xzr, [x24]
	ldr	x1, [x0, 16]
	cbz	x3, .L1257
	str	x24, [x1]
	str	x24, [x0, 16]
	b	.L1250
	.p2align 2,,3
.L1251:
	ldr	q0, [sp, 96]
	str	q0, [x24, 96]
	b	.L1252
	.p2align 2,,3
.L1301:
	add	x1, x20, 12
	mov	w0, -1
	bl	__aarch64_ldadd4_acq_rel
	b	.L1302
	.p2align 2,,3
.L1236:
	add	x1, x20, 12
	mov	w0, -1
	bl	__aarch64_ldadd4_acq_rel
	b	.L1237
	.p2align 2,,3
.L1258:
	ldr	q0, [sp, 112]
	str	q0, [x20, 200]
	b	.L1259
.L1289:
	ldr	q0, [sp, 112]
	str	q0, [x0, 8]
	b	.L1282
.L1257:
	ldr	q0, [sp, 112]
	str	q0, [x0, 8]
	b	.L1250
.L1383:
	.cfi_restore 21
	.cfi_restore 22
	.cfi_restore 23
	.cfi_restore 24
	.cfi_restore 25
	.cfi_restore 26
	.cfi_restore 27
	.cfi_restore 28
	stp	x21, x22, [sp, 32]
	.cfi_offset 22, -120
	.cfi_offset 21, -128
	stp	x23, x24, [sp, 48]
	.cfi_offset 24, -104
	.cfi_offset 23, -112
	stp	x25, x26, [sp, 64]
	.cfi_offset 26, -88
	.cfi_offset 25, -96
	stp	x27, x28, [sp, 80]
	.cfi_offset 28, -72
	.cfi_offset 27, -80
.L1381:
	bl	__stack_chk_fail
.L1313:
	mov	x19, x0
	mov	x0, x20
	bl	_ZNSt16_Sp_counted_baseILN9__gnu_cxx12_Lock_policyE2EE10_M_releaseEv
	mov	x0, x20
	bl	_ZNSt16_Sp_counted_baseILN9__gnu_cxx12_Lock_policyE2EE10_M_releaseEv
	mov	x0, x19
.LEHB30:
	bl	_Unwind_Resume
.L1312:
	ldr	x1, [sp, 136]
	mov	x19, x0
	cbz	x1, .L1306
	mov	x0, x1
	bl	_ZNSt16_Sp_counted_baseILN9__gnu_cxx12_Lock_policyE2EE10_M_releaseEv
.L1306:
	mov	x0, x19
	bl	_Unwind_Resume
.L1314:
	mov	x19, x0
	mov	x0, x22
	bl	_ZNSt16_Sp_counted_baseILN9__gnu_cxx12_Lock_policyE2EE10_M_releaseEv
	mov	x0, x22
	bl	_ZNSt16_Sp_counted_baseILN9__gnu_cxx12_Lock_policyE2EE10_M_releaseEv
	mov	x0, x19
	bl	_Unwind_Resume
.L1272:
	mov	x0, 8
	bl	__cxa_allocate_exception
	adrp	x3, :got:_ZTVSt12bad_weak_ptr
	adrp	x2, :got:_ZNSt12bad_weak_ptrD1Ev
	adrp	x1, :got:_ZTISt12bad_weak_ptr
	ldr	x3, [x3, #:got_lo12:_ZTVSt12bad_weak_ptr]
	ldr	x2, [x2, #:got_lo12:_ZNSt12bad_weak_ptrD1Ev]
	add	x3, x3, 16
	ldr	x1, [x1, #:got_lo12:_ZTISt12bad_weak_ptr]
	str	x3, [x0]
	bl	__cxa_throw
.LEHE30:
	.cfi_endproc
.LFE7970:
	.section	.gcc_except_table
.LLSDA7970:
	.byte	0xff
	.byte	0xff
	.byte	0x1
	.uleb128 .LLSDACSE7970-.LLSDACSB7970
.LLSDACSB7970:
	.uleb128 .LEHB26-.LFB7970
	.uleb128 .LEHE26-.LEHB26
	.uleb128 .L1312-.LFB7970
	.uleb128 0
	.uleb128 .LEHB27-.LFB7970
	.uleb128 .LEHE27-.LEHB27
	.uleb128 0
	.uleb128 0
	.uleb128 .LEHB28-.LFB7970
	.uleb128 .LEHE28-.LEHB28
	.uleb128 .L1314-.LFB7970
	.uleb128 0
	.uleb128 .LEHB29-.LFB7970
	.uleb128 .LEHE29-.LEHB29
	.uleb128 .L1313-.LFB7970
	.uleb128 0
	.uleb128 .LEHB30-.LFB7970
	.uleb128 .LEHE30-.LEHB30
	.uleb128 0
	.uleb128 0
.LLSDACSE7970:
	.text
	.size	_ZN8asiodnp311LinkSession12ShutdownImplEv, .-_ZN8asiodnp311LinkSession12ShutdownImplEv
	.align	2
	.p2align 4,,11
	.type	_ZNSt17_Function_handlerIFvvEZN8asiodnp311LinkSession8ShutdownEvEUlvE_E9_M_invokeERKSt9_Any_data, %function
_ZNSt17_Function_handlerIFvvEZN8asiodnp311LinkSession8ShutdownEvEUlvE_E9_M_invokeERKSt9_Any_data:
.LFB9376:
	.cfi_startproc
	ldr	x0, [x0]
	ldr	x0, [x0]
	b	_ZN8asiodnp311LinkSession12ShutdownImplEv
	.cfi_endproc
.LFE9376:
	.size	_ZNSt17_Function_handlerIFvvEZN8asiodnp311LinkSession8ShutdownEvEUlvE_E9_M_invokeERKSt9_Any_data, .-_ZNSt17_Function_handlerIFvvEZN8asiodnp311LinkSession8ShutdownEvEUlvE_E9_M_invokeERKSt9_Any_data
	.section	.rodata.str1.8
	.align	3
.LC23:
	.string	"/home/jaehyun/OpenPLC_v3/utils/dnp3_src/cpp/libs/src/asiodnp3/LinkSession.cpp(96)"
	.text
	.align	2
	.p2align 4,,11
	.global	_ZN8asiodnp311LinkSession14OnReadCompleteERKSt10error_codem
	.type	_ZN8asiodnp311LinkSession14OnReadCompleteERKSt10error_codem, %function
_ZN8asiodnp311LinkSession14OnReadCompleteERKSt10error_codem:
.LFB7993:
	.cfi_startproc
	.cfi_personality 0x9b,DW.ref.__gxx_personality_v0
	.cfi_lsda 0x1b,.LLSDA7993
	stp	x29, x30, [sp, -112]!
	.cfi_def_cfa_offset 112
	.cfi_offset 29, -112
	.cfi_offset 30, -104
	adrp	x3, :got:__stack_chk_guard
	mov	x29, sp
	ldr	x3, [x3, #:got_lo12:__stack_chk_guard]
	stp	x19, x20, [sp, 16]
	.cfi_offset 19, -96
	.cfi_offset 20, -88
	mov	x20, x1
	ldr	w1, [x1]
	mov	x19, x0
	ldr	x0, [x3]
	str	x0, [sp, 104]
	mov	x0, 0
	cbz	w1, .L1394
	stp	x21, x22, [sp, 32]
	.cfi_offset 22, -72
	.cfi_offset 21, -80
	add	x21, x19, 64
	add	x22, sp, 64
	mov	x0, x21
	mov	x1, x22
	str	x23, [sp, 48]
	.cfi_offset 23, -64
	mov	w23, 4
	str	w23, [sp, 64]
.LEHB31:
	bl	_ZNK7openpal6Logger9IsEnabledERKNS_10LogFiltersE
	tst	w0, 255
	beq	.L1395
	ldr	x0, [x20, 8]
	add	x8, sp, 72
	ldr	w1, [x20]
	ldr	x2, [x0]
	ldr	x2, [x2, 32]
	str	w23, [sp, 64]
	blr	x2
.LEHE31:
	ldr	x3, [sp, 72]
	adrp	x2, .LC23
	mov	x1, x22
	mov	x0, x21
	add	x2, x2, :lo12:.LC23
.LEHB32:
	bl	_ZN7openpal6Logger3LogERKNS_10LogFiltersEPKcS5_
.LEHE32:
	ldr	x0, [sp, 72]
	add	x1, sp, 88
	cmp	x0, x1
	beq	.L1395
	ldr	x1, [sp, 88]
	add	x1, x1, 1
	bl	_ZdlPvm
.L1395:
	adrp	x0, :got:__stack_chk_guard
	ldr	x0, [x0, #:got_lo12:__stack_chk_guard]
	ldr	x2, [sp, 104]
	ldr	x1, [x0]
	subs	x2, x2, x1
	mov	x1, 0
	bne	.L1407
	mov	x0, x19
	ldp	x19, x20, [sp, 16]
	ldp	x21, x22, [sp, 32]
	.cfi_restore 22
	.cfi_restore 21
	ldr	x23, [sp, 48]
	.cfi_restore 23
	ldp	x29, x30, [sp], 112
	.cfi_restore 30
	.cfi_restore 29
	.cfi_restore 19
	.cfi_restore 20
	.cfi_def_cfa_offset 0
.LEHB33:
	b	_ZN8asiodnp311LinkSession12ShutdownImplEv
	.p2align 2,,3
.L1394:
	.cfi_def_cfa_offset 112
	.cfi_offset 19, -96
	.cfi_offset 20, -88
	.cfi_offset 29, -112
	.cfi_offset 30, -104
	mov	w1, w2
	add	x0, x19, 152
	add	x2, x19, 16
	bl	_ZN8opendnp315LinkLayerParser6OnReadEjRNS_10IFrameSinkE
	adrp	x0, :got:__stack_chk_guard
	ldr	x0, [x0, #:got_lo12:__stack_chk_guard]
	ldr	x2, [sp, 104]
	ldr	x1, [x0]
	subs	x2, x2, x1
	mov	x1, 0
	bne	.L1408
	mov	x0, x19
	ldp	x19, x20, [sp, 16]
	ldp	x29, x30, [sp], 112
	.cfi_remember_state
	.cfi_restore 30
	.cfi_restore 29
	.cfi_restore 19
	.cfi_restore 20
	.cfi_def_cfa_offset 0
	b	_ZN8asiodnp311LinkSession12BeginReceiveEv
.L1408:
	.cfi_restore_state
	stp	x21, x22, [sp, 32]
	.cfi_offset 22, -72
	.cfi_offset 21, -80
	str	x23, [sp, 48]
	.cfi_offset 23, -64
.L1407:
	bl	__stack_chk_fail
.L1402:
	ldr	x2, [sp, 72]
	add	x1, sp, 88
	mov	x19, x0
	cmp	x2, x1
	beq	.L1400
	ldr	x1, [sp, 88]
	mov	x0, x2
	add	x1, x1, 1
	bl	_ZdlPvm
.L1400:
	mov	x0, x19
	bl	_Unwind_Resume
.LEHE33:
	.cfi_endproc
.LFE7993:
	.section	.gcc_except_table
.LLSDA7993:
	.byte	0xff
	.byte	0xff
	.byte	0x1
	.uleb128 .LLSDACSE7993-.LLSDACSB7993
.LLSDACSB7993:
	.uleb128 .LEHB31-.LFB7993
	.uleb128 .LEHE31-.LEHB31
	.uleb128 0
	.uleb128 0
	.uleb128 .LEHB32-.LFB7993
	.uleb128 .LEHE32-.LEHB32
	.uleb128 .L1402-.LFB7993
	.uleb128 0
	.uleb128 .LEHB33-.LFB7993
	.uleb128 .LEHE33-.LEHB33
	.uleb128 0
	.uleb128 0
.LLSDACSE7993:
	.text
	.size	_ZN8asiodnp311LinkSession14OnReadCompleteERKSt10error_codem, .-_ZN8asiodnp311LinkSession14OnReadCompleteERKSt10error_codem
	.section	.rodata.str1.8
	.align	3
.LC24:
	.string	"/home/jaehyun/OpenPLC_v3/utils/dnp3_src/cpp/libs/src/asiodnp3/LinkSession.cpp(110)"
	.text
	.align	2
	.p2align 4,,11
	.global	_ZN8asiodnp311LinkSession15OnWriteCompleteERKSt10error_codem
	.type	_ZN8asiodnp311LinkSession15OnWriteCompleteERKSt10error_codem, %function
_ZN8asiodnp311LinkSession15OnWriteCompleteERKSt10error_codem:
.LFB7994:
	.cfi_startproc
	.cfi_personality 0x9b,DW.ref.__gxx_personality_v0
	.cfi_lsda 0x1b,.LLSDA7994
	stp	x29, x30, [sp, -112]!
	.cfi_def_cfa_offset 112
	.cfi_offset 29, -112
	.cfi_offset 30, -104
	adrp	x2, :got:__stack_chk_guard
	mov	x29, sp
	ldr	x2, [x2, #:got_lo12:__stack_chk_guard]
	stp	x19, x20, [sp, 16]
	.cfi_offset 19, -96
	.cfi_offset 20, -88
	mov	x20, x0
	ldr	w0, [x1]
	mov	x19, x1
	ldr	x1, [x2]
	str	x1, [sp, 104]
	mov	x1, 0
	cbz	w0, .L1410
	stp	x21, x22, [sp, 32]
	.cfi_offset 22, -72
	.cfi_offset 21, -80
	add	x21, x20, 64
	add	x22, sp, 64
	mov	x0, x21
	mov	x1, x22
	str	x23, [sp, 48]
	.cfi_offset 23, -64
	mov	w23, 4
	str	w23, [sp, 64]
.LEHB34:
	bl	_ZNK7openpal6Logger9IsEnabledERKNS_10LogFiltersE
	tst	w0, 255
	beq	.L1411
	ldr	x0, [x19, 8]
	add	x8, sp, 72
	ldr	w1, [x19]
	ldr	x2, [x0]
	ldr	x2, [x2, 32]
	str	w23, [sp, 64]
	blr	x2
.LEHE34:
	ldr	x3, [sp, 72]
	adrp	x2, .LC24
	mov	x1, x22
	mov	x0, x21
	add	x2, x2, :lo12:.LC24
.LEHB35:
	bl	_ZN7openpal6Logger3LogERKNS_10LogFiltersEPKcS5_
.LEHE35:
	ldr	x0, [sp, 72]
	add	x1, sp, 88
	cmp	x0, x1
	beq	.L1411
	ldr	x1, [sp, 88]
	add	x1, x1, 1
	bl	_ZdlPvm
.L1411:
	adrp	x0, :got:__stack_chk_guard
	ldr	x0, [x0, #:got_lo12:__stack_chk_guard]
	ldr	x2, [sp, 104]
	ldr	x1, [x0]
	subs	x2, x2, x1
	mov	x1, 0
	bne	.L1423
	mov	x0, x20
	ldp	x19, x20, [sp, 16]
	ldp	x21, x22, [sp, 32]
	.cfi_restore 22
	.cfi_restore 21
	ldr	x23, [sp, 48]
	.cfi_restore 23
	ldp	x29, x30, [sp], 112
	.cfi_restore 30
	.cfi_restore 29
	.cfi_restore 19
	.cfi_restore 20
	.cfi_def_cfa_offset 0
.LEHB36:
	b	_ZN8asiodnp311LinkSession12ShutdownImplEv
	.p2align 2,,3
.L1410:
	.cfi_def_cfa_offset 112
	.cfi_offset 19, -96
	.cfi_offset 20, -88
	.cfi_offset 29, -112
	.cfi_offset 30, -104
	adrp	x0, :got:__stack_chk_guard
	ldr	x0, [x0, #:got_lo12:__stack_chk_guard]
	ldr	x2, [sp, 104]
	ldr	x1, [x0]
	subs	x2, x2, x1
	mov	x1, 0
	bne	.L1424
	ldr	x0, [x20, 592]
	mov	w1, 1
	ldp	x19, x20, [sp, 16]
	ldp	x29, x30, [sp], 112
	.cfi_remember_state
	.cfi_restore 30
	.cfi_restore 29
	.cfi_restore 19
	.cfi_restore 20
	.cfi_def_cfa_offset 0
	b	_ZN8asiodnp318MasterSessionStack18OnTransmitCompleteEb
.L1424:
	.cfi_restore_state
	stp	x21, x22, [sp, 32]
	.cfi_offset 22, -72
	.cfi_offset 21, -80
	str	x23, [sp, 48]
	.cfi_offset 23, -64
.L1423:
	bl	__stack_chk_fail
.L1418:
	ldr	x2, [sp, 72]
	add	x1, sp, 88
	mov	x19, x0
	cmp	x2, x1
	beq	.L1416
	ldr	x1, [sp, 88]
	mov	x0, x2
	add	x1, x1, 1
	bl	_ZdlPvm
.L1416:
	mov	x0, x19
	bl	_Unwind_Resume
.LEHE36:
	.cfi_endproc
.LFE7994:
	.section	.gcc_except_table
.LLSDA7994:
	.byte	0xff
	.byte	0xff
	.byte	0x1
	.uleb128 .LLSDACSE7994-.LLSDACSB7994
.LLSDACSB7994:
	.uleb128 .LEHB34-.LFB7994
	.uleb128 .LEHE34-.LEHB34
	.uleb128 0
	.uleb128 0
	.uleb128 .LEHB35-.LFB7994
	.uleb128 .LEHE35-.LEHB35
	.uleb128 .L1418-.LFB7994
	.uleb128 0
	.uleb128 .LEHB36-.LFB7994
	.uleb128 .LEHE36-.LEHB36
	.uleb128 0
	.uleb128 0
.LLSDACSE7994:
	.text
	.size	_ZN8asiodnp311LinkSession15OnWriteCompleteERKSt10error_codem, .-_ZN8asiodnp311LinkSession15OnWriteCompleteERKSt10error_codem
	.section	.rodata.str1.8
	.align	3
.LC25:
	.string	"No master created. Closing socket."
	.align	3
.LC26:
	.string	"/home/jaehyun/OpenPLC_v3/utils/dnp3_src/cpp/libs/src/asiodnp3/LinkSession.cpp(145)"
	.text
	.align	2
	.p2align 4,,11
	.global	_ZN8asiodnp311LinkSession7OnFrameERKN8opendnp316LinkHeaderFieldsERKN7openpal6RSliceE
	.type	_ZN8asiodnp311LinkSession7OnFrameERKN8opendnp316LinkHeaderFieldsERKN7openpal6RSliceE, %function
_ZN8asiodnp311LinkSession7OnFrameERKN8opendnp316LinkHeaderFieldsERKN7openpal6RSliceE:
.LFB7996:
	.cfi_startproc
	stp	x29, x30, [sp, -64]!
	.cfi_def_cfa_offset 64
	.cfi_offset 29, -64
	.cfi_offset 30, -56
	adrp	x3, :got:__stack_chk_guard
	mov	x29, sp
	ldr	x3, [x3, #:got_lo12:__stack_chk_guard]
	stp	x19, x20, [sp, 16]
	.cfi_offset 19, -48
	.cfi_offset 20, -40
	mov	x19, x0
	ldr	x0, [x0, 592]
	ldr	x4, [x3]
	str	x4, [sp, 56]
	mov	x4, 0
	cbz	x0, .L1426
	bl	_ZN8asiodnp318MasterSessionStack7OnFrameERKN8opendnp316LinkHeaderFieldsERKN7openpal6RSliceE
.L1427:
	adrp	x0, :got:__stack_chk_guard
	ldr	x0, [x0, #:got_lo12:__stack_chk_guard]
	ldr	x2, [sp, 56]
	ldr	x1, [x0]
	subs	x2, x2, x1
	mov	x1, 0
	bne	.L1435
	mov	w0, 1
	ldp	x19, x20, [sp, 16]
	ldp	x29, x30, [sp], 64
	.cfi_remember_state
	.cfi_restore 30
	.cfi_restore 29
	.cfi_restore 19
	.cfi_restore 20
	.cfi_def_cfa_offset 0
	ret
	.p2align 2,,3
.L1426:
	.cfi_restore_state
	mov	x20, x1
	add	x0, x19, 568
	stp	x21, x22, [sp, 32]
	.cfi_offset 22, -24
	.cfi_offset 21, -32
	mov	x21, x2
	bl	_ZN7openpal8TimerRef6CancelEv
	ldr	x0, [x19, 120]
	add	x3, x19, 48
	ldr	x1, [x19, 96]
	mov	x2, x20
	ldr	x4, [x0]
	ldr	x4, [x4, 40]
	blr	x4
	ldr	x0, [x19, 592]
	cbz	x0, .L1428
	bl	_ZN8asiodnp318MasterSessionStack14OnLowerLayerUpEv
	ldr	x0, [x19, 592]
	mov	x2, x21
	mov	x1, x20
	bl	_ZN8asiodnp318MasterSessionStack7OnFrameERKN8opendnp316LinkHeaderFieldsERKN7openpal6RSliceE
	ldp	x21, x22, [sp, 32]
	.cfi_restore 22
	.cfi_restore 21
	b	.L1427
	.p2align 2,,3
.L1428:
	.cfi_offset 21, -32
	.cfi_offset 22, -24
	add	x21, x19, 64
	add	x22, sp, 48
	mov	w20, 4
	mov	x0, x21
	mov	x1, x22
	str	w20, [sp, 48]
	bl	_ZNK7openpal6Logger9IsEnabledERKNS_10LogFiltersE
	tst	w0, 255
	bne	.L1436
.L1429:
	mov	x0, x19
	bl	_ZN8asiodnp311LinkSession12ShutdownImplEv
	ldp	x21, x22, [sp, 32]
	.cfi_remember_state
	.cfi_restore 22
	.cfi_restore 21
	b	.L1427
	.p2align 2,,3
.L1436:
	.cfi_restore_state
	mov	x1, x22
	mov	x0, x21
	adrp	x3, .LC25
	adrp	x2, .LC26
	add	x3, x3, :lo12:.LC25
	add	x2, x2, :lo12:.LC26
	str	w20, [sp, 48]
	bl	_ZN7openpal6Logger3LogERKNS_10LogFiltersEPKcS5_
	b	.L1429
.L1435:
	.cfi_restore 21
	.cfi_restore 22
	stp	x21, x22, [sp, 32]
	.cfi_offset 22, -24
	.cfi_offset 21, -32
	bl	__stack_chk_fail
	.cfi_endproc
.LFE7996:
	.size	_ZN8asiodnp311LinkSession7OnFrameERKN8opendnp316LinkHeaderFieldsERKN7openpal6RSliceE, .-_ZN8asiodnp311LinkSession7OnFrameERKN8opendnp316LinkHeaderFieldsERKN7openpal6RSliceE
	.align	2
	.p2align 4,,11
	.global	_ZThn16_N8asiodnp311LinkSession7OnFrameERKN8opendnp316LinkHeaderFieldsERKN7openpal6RSliceE
	.type	_ZThn16_N8asiodnp311LinkSession7OnFrameERKN8opendnp316LinkHeaderFieldsERKN7openpal6RSliceE, %function
_ZThn16_N8asiodnp311LinkSession7OnFrameERKN8opendnp316LinkHeaderFieldsERKN7openpal6RSliceE:
.LFB10698:
	.cfi_startproc
	stp	x29, x30, [sp, -64]!
	.cfi_def_cfa_offset 64
	.cfi_offset 29, -64
	.cfi_offset 30, -56
	adrp	x3, :got:__stack_chk_guard
	mov	x29, sp
	ldr	x3, [x3, #:got_lo12:__stack_chk_guard]
	stp	x19, x20, [sp, 16]
	.cfi_offset 19, -48
	.cfi_offset 20, -40
	mov	x19, x0
	ldr	x0, [x0, 576]
	ldr	x4, [x3]
	str	x4, [sp, 56]
	mov	x4, 0
	cbz	x0, .L1438
	bl	_ZN8asiodnp318MasterSessionStack7OnFrameERKN8opendnp316LinkHeaderFieldsERKN7openpal6RSliceE
.L1439:
	adrp	x0, :got:__stack_chk_guard
	ldr	x0, [x0, #:got_lo12:__stack_chk_guard]
	ldr	x2, [sp, 56]
	ldr	x1, [x0]
	subs	x2, x2, x1
	mov	x1, 0
	bne	.L1447
	mov	w0, 1
	ldp	x19, x20, [sp, 16]
	ldp	x29, x30, [sp], 64
	.cfi_remember_state
	.cfi_restore 30
	.cfi_restore 29
	.cfi_restore 19
	.cfi_restore 20
	.cfi_def_cfa_offset 0
	ret
	.p2align 2,,3
.L1438:
	.cfi_restore_state
	mov	x20, x1
	add	x0, x19, 552
	stp	x21, x22, [sp, 32]
	.cfi_offset 22, -24
	.cfi_offset 21, -32
	mov	x21, x2
	bl	_ZN7openpal8TimerRef6CancelEv
	ldr	x0, [x19, 104]
	add	x3, x19, 32
	ldr	x1, [x19, 80]
	mov	x2, x20
	ldr	x4, [x0]
	sub	x22, x19, #16
	ldr	x4, [x4, 40]
	blr	x4
	ldr	x0, [x19, 576]
	cbz	x0, .L1440
	bl	_ZN8asiodnp318MasterSessionStack14OnLowerLayerUpEv
	ldr	x0, [x19, 576]
	mov	x2, x21
	mov	x1, x20
	bl	_ZN8asiodnp318MasterSessionStack7OnFrameERKN8opendnp316LinkHeaderFieldsERKN7openpal6RSliceE
	ldp	x21, x22, [sp, 32]
	.cfi_restore 22
	.cfi_restore 21
	b	.L1439
	.p2align 2,,3
.L1440:
	.cfi_offset 21, -32
	.cfi_offset 22, -24
	add	x19, x19, 48
	add	x21, sp, 48
	mov	w20, 4
	mov	x0, x19
	mov	x1, x21
	str	w20, [sp, 48]
	bl	_ZNK7openpal6Logger9IsEnabledERKNS_10LogFiltersE
	tst	w0, 255
	bne	.L1448
.L1441:
	mov	x0, x22
	bl	_ZN8asiodnp311LinkSession12ShutdownImplEv
	ldp	x21, x22, [sp, 32]
	.cfi_remember_state
	.cfi_restore 22
	.cfi_restore 21
	b	.L1439
	.p2align 2,,3
.L1448:
	.cfi_restore_state
	mov	x1, x21
	mov	x0, x19
	adrp	x3, .LC25
	adrp	x2, .LC26
	add	x3, x3, :lo12:.LC25
	add	x2, x2, :lo12:.LC26
	str	w20, [sp, 48]
	bl	_ZN7openpal6Logger3LogERKNS_10LogFiltersEPKcS5_
	b	.L1441
.L1447:
	.cfi_restore 21
	.cfi_restore 22
	stp	x21, x22, [sp, 32]
	.cfi_offset 22, -24
	.cfi_offset 21, -32
	bl	__stack_chk_fail
	.cfi_endproc
.LFE10698:
	.size	_ZThn16_N8asiodnp311LinkSession7OnFrameERKN8opendnp316LinkHeaderFieldsERKN7openpal6RSliceE, .-_ZThn16_N8asiodnp311LinkSession7OnFrameERKN8opendnp316LinkHeaderFieldsERKN7openpal6RSliceE
	.align	2
	.p2align 4,,11
	.global	_ZThn8_N8asiodnp311LinkSession15OnWriteCompleteERKSt10error_codem
	.type	_ZThn8_N8asiodnp311LinkSession15OnWriteCompleteERKSt10error_codem, %function
_ZThn8_N8asiodnp311LinkSession15OnWriteCompleteERKSt10error_codem:
.LFB10699:
	.cfi_startproc
	.cfi_personality 0x9b,DW.ref.__gxx_personality_v0
	.cfi_lsda 0x1b,.LLSDA10699
	stp	x29, x30, [sp, -112]!
	.cfi_def_cfa_offset 112
	.cfi_offset 29, -112
	.cfi_offset 30, -104
	adrp	x2, :got:__stack_chk_guard
	mov	x29, sp
	ldr	x2, [x2, #:got_lo12:__stack_chk_guard]
	stp	x19, x20, [sp, 16]
	.cfi_offset 19, -96
	.cfi_offset 20, -88
	mov	x20, x0
	ldr	w0, [x1]
	mov	x19, x1
	ldr	x1, [x2]
	str	x1, [sp, 104]
	mov	x1, 0
	cbz	w0, .L1450
	stp	x21, x22, [sp, 32]
	.cfi_offset 22, -72
	.cfi_offset 21, -80
	add	x21, x20, 56
	add	x22, sp, 64
	mov	x0, x21
	mov	x1, x22
	str	x23, [sp, 48]
	.cfi_offset 23, -64
	mov	w23, 4
	str	w23, [sp, 64]
.LEHB37:
	bl	_ZNK7openpal6Logger9IsEnabledERKNS_10LogFiltersE
	tst	w0, 255
	beq	.L1451
	ldr	x0, [x19, 8]
	add	x8, sp, 72
	ldr	w1, [x19]
	ldr	x2, [x0]
	ldr	x2, [x2, 32]
	str	w23, [sp, 64]
	blr	x2
.LEHE37:
	ldr	x3, [sp, 72]
	adrp	x2, .LC24
	mov	x1, x22
	mov	x0, x21
	add	x2, x2, :lo12:.LC24
.LEHB38:
	bl	_ZN7openpal6Logger3LogERKNS_10LogFiltersEPKcS5_
.LEHE38:
	ldr	x0, [sp, 72]
	add	x1, sp, 88
	cmp	x0, x1
	beq	.L1451
	ldr	x1, [sp, 88]
	add	x1, x1, 1
	bl	_ZdlPvm
.L1451:
	adrp	x0, :got:__stack_chk_guard
	ldr	x0, [x0, #:got_lo12:__stack_chk_guard]
	ldr	x2, [sp, 104]
	ldr	x1, [x0]
	subs	x2, x2, x1
	mov	x1, 0
	bne	.L1463
	sub	x0, x20, #8
	ldp	x19, x20, [sp, 16]
	ldp	x21, x22, [sp, 32]
	.cfi_restore 22
	.cfi_restore 21
	ldr	x23, [sp, 48]
	.cfi_restore 23
	ldp	x29, x30, [sp], 112
	.cfi_restore 30
	.cfi_restore 29
	.cfi_restore 19
	.cfi_restore 20
	.cfi_def_cfa_offset 0
.LEHB39:
	b	_ZN8asiodnp311LinkSession12ShutdownImplEv
	.p2align 2,,3
.L1450:
	.cfi_def_cfa_offset 112
	.cfi_offset 19, -96
	.cfi_offset 20, -88
	.cfi_offset 29, -112
	.cfi_offset 30, -104
	adrp	x0, :got:__stack_chk_guard
	ldr	x0, [x0, #:got_lo12:__stack_chk_guard]
	ldr	x2, [sp, 104]
	ldr	x1, [x0]
	subs	x2, x2, x1
	mov	x1, 0
	bne	.L1464
	ldr	x0, [x20, 584]
	mov	w1, 1
	ldp	x19, x20, [sp, 16]
	ldp	x29, x30, [sp], 112
	.cfi_remember_state
	.cfi_restore 30
	.cfi_restore 29
	.cfi_restore 19
	.cfi_restore 20
	.cfi_def_cfa_offset 0
	b	_ZN8asiodnp318MasterSessionStack18OnTransmitCompleteEb
.L1464:
	.cfi_restore_state
	stp	x21, x22, [sp, 32]
	.cfi_offset 22, -72
	.cfi_offset 21, -80
	str	x23, [sp, 48]
	.cfi_offset 23, -64
.L1463:
	bl	__stack_chk_fail
.L1458:
	ldr	x2, [sp, 72]
	add	x1, sp, 88
	mov	x19, x0
	cmp	x2, x1
	beq	.L1456
	ldr	x1, [sp, 88]
	mov	x0, x2
	add	x1, x1, 1
	bl	_ZdlPvm
.L1456:
	mov	x0, x19
	bl	_Unwind_Resume
.LEHE39:
	.cfi_endproc
.LFE10699:
	.section	.gcc_except_table
.LLSDA10699:
	.byte	0xff
	.byte	0xff
	.byte	0x1
	.uleb128 .LLSDACSE10699-.LLSDACSB10699
.LLSDACSB10699:
	.uleb128 .LEHB37-.LFB10699
	.uleb128 .LEHE37-.LEHB37
	.uleb128 0
	.uleb128 0
	.uleb128 .LEHB38-.LFB10699
	.uleb128 .LEHE38-.LEHB38
	.uleb128 .L1458-.LFB10699
	.uleb128 0
	.uleb128 .LEHB39-.LFB10699
	.uleb128 .LEHE39-.LEHB39
	.uleb128 0
	.uleb128 0
.LLSDACSE10699:
	.text
	.size	_ZThn8_N8asiodnp311LinkSession15OnWriteCompleteERKSt10error_codem, .-_ZThn8_N8asiodnp311LinkSession15OnWriteCompleteERKSt10error_codem
	.align	2
	.p2align 4,,11
	.global	_ZThn8_N8asiodnp311LinkSession14OnReadCompleteERKSt10error_codem
	.type	_ZThn8_N8asiodnp311LinkSession14OnReadCompleteERKSt10error_codem, %function
_ZThn8_N8asiodnp311LinkSession14OnReadCompleteERKSt10error_codem:
.LFB10700:
	.cfi_startproc
	.cfi_personality 0x9b,DW.ref.__gxx_personality_v0
	.cfi_lsda 0x1b,.LLSDA10700
	stp	x29, x30, [sp, -112]!
	.cfi_def_cfa_offset 112
	.cfi_offset 29, -112
	.cfi_offset 30, -104
	adrp	x3, :got:__stack_chk_guard
	mov	x29, sp
	ldr	x3, [x3, #:got_lo12:__stack_chk_guard]
	stp	x19, x20, [sp, 16]
	.cfi_offset 19, -96
	.cfi_offset 20, -88
	mov	x20, x1
	stp	x21, x22, [sp, 32]
	.cfi_offset 21, -80
	.cfi_offset 22, -72
	sub	x21, x0, #8
	ldr	w1, [x1]
	ldr	x4, [x3]
	str	x4, [sp, 104]
	mov	x4, 0
	cbz	w1, .L1466
	add	x19, x0, 56
	add	x22, sp, 64
	mov	x0, x19
	mov	x1, x22
	str	x23, [sp, 48]
	.cfi_offset 23, -64
	mov	w23, 4
	str	w23, [sp, 64]
.LEHB40:
	bl	_ZNK7openpal6Logger9IsEnabledERKNS_10LogFiltersE
	tst	w0, 255
	beq	.L1467
	ldr	x0, [x20, 8]
	add	x8, sp, 72
	ldr	w1, [x20]
	ldr	x2, [x0]
	ldr	x2, [x2, 32]
	str	w23, [sp, 64]
	blr	x2
.LEHE40:
	ldr	x3, [sp, 72]
	adrp	x2, .LC23
	mov	x1, x22
	mov	x0, x19
	add	x2, x2, :lo12:.LC23
.LEHB41:
	bl	_ZN7openpal6Logger3LogERKNS_10LogFiltersEPKcS5_
.LEHE41:
	ldr	x0, [sp, 72]
	add	x1, sp, 88
	cmp	x0, x1
	beq	.L1467
	ldr	x1, [sp, 88]
	add	x1, x1, 1
	bl	_ZdlPvm
.L1467:
	adrp	x0, :got:__stack_chk_guard
	ldr	x0, [x0, #:got_lo12:__stack_chk_guard]
	ldr	x2, [sp, 104]
	ldr	x1, [x0]
	subs	x2, x2, x1
	mov	x1, 0
	bne	.L1479
	mov	x0, x21
	ldp	x19, x20, [sp, 16]
	ldp	x21, x22, [sp, 32]
	ldr	x23, [sp, 48]
	.cfi_restore 23
	ldp	x29, x30, [sp], 112
	.cfi_restore 30
	.cfi_restore 29
	.cfi_restore 21
	.cfi_restore 22
	.cfi_restore 19
	.cfi_restore 20
	.cfi_def_cfa_offset 0
.LEHB42:
	b	_ZN8asiodnp311LinkSession12ShutdownImplEv
	.p2align 2,,3
.L1466:
	.cfi_def_cfa_offset 112
	.cfi_offset 19, -96
	.cfi_offset 20, -88
	.cfi_offset 21, -80
	.cfi_offset 22, -72
	.cfi_offset 29, -112
	.cfi_offset 30, -104
	mov	w1, w2
	add	x2, x0, 8
	add	x0, x0, 144
	bl	_ZN8opendnp315LinkLayerParser6OnReadEjRNS_10IFrameSinkE
	adrp	x0, :got:__stack_chk_guard
	ldr	x0, [x0, #:got_lo12:__stack_chk_guard]
	ldr	x2, [sp, 104]
	ldr	x1, [x0]
	subs	x2, x2, x1
	mov	x1, 0
	bne	.L1480
	mov	x0, x21
	ldp	x19, x20, [sp, 16]
	ldp	x21, x22, [sp, 32]
	ldp	x29, x30, [sp], 112
	.cfi_remember_state
	.cfi_restore 30
	.cfi_restore 29
	.cfi_restore 21
	.cfi_restore 22
	.cfi_restore 19
	.cfi_restore 20
	.cfi_def_cfa_offset 0
	b	_ZN8asiodnp311LinkSession12BeginReceiveEv
.L1480:
	.cfi_restore_state
	str	x23, [sp, 48]
	.cfi_offset 23, -64
.L1479:
	bl	__stack_chk_fail
.L1474:
	ldr	x2, [sp, 72]
	add	x1, sp, 88
	mov	x19, x0
	cmp	x2, x1
	beq	.L1472
	ldr	x1, [sp, 88]
	mov	x0, x2
	add	x1, x1, 1
	bl	_ZdlPvm
.L1472:
	mov	x0, x19
	bl	_Unwind_Resume
.LEHE42:
	.cfi_endproc
.LFE10700:
	.section	.gcc_except_table
.LLSDA10700:
	.byte	0xff
	.byte	0xff
	.byte	0x1
	.uleb128 .LLSDACSE10700-.LLSDACSB10700
.LLSDACSB10700:
	.uleb128 .LEHB40-.LFB10700
	.uleb128 .LEHE40-.LEHB40
	.uleb128 0
	.uleb128 0
	.uleb128 .LEHB41-.LFB10700
	.uleb128 .LEHE41-.LEHB41
	.uleb128 .L1474-.LFB10700
	.uleb128 0
	.uleb128 .LEHB42-.LFB10700
	.uleb128 .LEHE42-.LEHB42
	.uleb128 0
	.uleb128 0
.LLSDACSE10700:
	.text
	.size	_ZThn8_N8asiodnp311LinkSession14OnReadCompleteERKSt10error_codem, .-_ZThn8_N8asiodnp311LinkSession14OnReadCompleteERKSt10error_codem
	.section	.rodata.str1.8
	.align	3
.LC27:
	.string	"Timed out before receving a frame. Closing socket."
	.align	3
.LC28:
	.string	"/home/jaehyun/OpenPLC_v3/utils/dnp3_src/cpp/libs/src/asiodnp3/LinkSession.cpp(187)"
	.text
	.align	2
	.p2align 4,,11
	.type	_ZNSt17_Function_handlerIFvvEZN7openpal8TimerRef5StartIZN8asiodnp311LinkSession5StartEvEUlvE_EEbRKNS1_12TimeDurationERKT_EUlvE_E9_M_invokeERKSt9_Any_data, %function
_ZNSt17_Function_handlerIFvvEZN7openpal8TimerRef5StartIZN8asiodnp311LinkSession5StartEvEUlvE_EEbRKNS1_12TimeDurationERKT_EUlvE_E9_M_invokeERKSt9_Any_data:
.LFB9729:
	.cfi_startproc
	.cfi_personality 0x9b,DW.ref.__gxx_personality_v0
	.cfi_lsda 0x1b,.LLSDA9729
	stp	x29, x30, [sp, -160]!
	.cfi_def_cfa_offset 160
	.cfi_offset 29, -160
	.cfi_offset 30, -152
	adrp	x2, :got:__stack_chk_guard
	mov	x29, sp
	ldr	x2, [x2, #:got_lo12:__stack_chk_guard]
	stp	x19, x20, [sp, 16]
	.cfi_offset 19, -144
	.cfi_offset 20, -136
	mov	w20, 2
	ldr	x19, [x0]
	stp	x21, x22, [sp, 32]
	.cfi_offset 21, -128
	.cfi_offset 22, -120
	add	x22, sp, 136
	ldr	x0, [x2]
	str	x0, [sp, 152]
	mov	x0, 0
	mov	x1, x22
	ldp	x2, x0, [x19]
	str	xzr, [x2, 8]
	str	w20, [sp, 136]
	add	x0, x0, 64
.LEHB43:
	bl	_ZNK7openpal6Logger9IsEnabledERKNS_10LogFiltersE
	tst	w0, 255
	bne	.L1555
.L1482:
	ldr	x0, [x19, 8]
	ldr	x19, [x0, 136]
	ldrb	w0, [x19, 56]
	cbnz	w0, .L1481
	ldr	x1, [x19]
	stp	x23, x24, [sp, 48]
	.cfi_offset 24, -104
	.cfi_offset 23, -112
	mov	w0, 1
	stp	x25, x26, [sp, 64]
	.cfi_offset 26, -88
	.cfi_offset 25, -96
	ldr	x1, [x1, 32]
	str	x27, [sp, 80]
	.cfi_offset 27, -80
	strb	w0, [x19, 56]
	mov	x0, x19
	blr	x1
.LEHE43:
	ldr	x20, [x19, 16]
	cbz	x20, .L1484
	add	x24, x20, 8
	ldr	w21, [x24]
.L1486:
	cbz	w21, .L1484
	add	w1, w21, 1
	mov	w0, w21
	mov	x2, x24
	bl	__aarch64_cas4_acq_rel
	cmp	w0, w21
	mov	w21, w0
	bne	.L1486
	adrp	x23, :got:__libc_single_threaded
	ldr	x26, [x19, 8]
	ldr	x0, [x23, #:got_lo12:__libc_single_threaded]
	ldr	x21, [x19, 24]
	ldrb	w0, [x0]
	cbz	w0, .L1556
	ldr	w0, [x20, 8]
	add	w0, w0, 1
	str	w0, [x20, 8]
.L1487:
	adrp	x25, :got:_ZN4asio6detail10call_stackINS0_15task_io_serviceENS0_27task_io_service_thread_infoEE4top_E
	ldr	x27, [x21, 40]
	ldr	x0, [x25, #:got_lo12:_ZN4asio6detail10call_stackINS0_15task_io_serviceENS0_27task_io_service_thread_infoEE4top_E]
	ldr	w0, [x0]
	bl	pthread_getspecific
	cbz	x0, .L1488
	ldr	x0, [x0, 8]
	cbz	x0, .L1488
	ldr	x19, [x0]
	cbz	x19, .L1488
	str	xzr, [x0]
	ldrb	w0, [x19]
	cmp	w0, 39
	bls	.L1489
	strb	w0, [x19, 40]
	b	.L1490
	.p2align 2,,3
.L1489:
	mov	x0, x19
	bl	_ZdlPv
.L1488:
	mov	x0, 41
.LEHB44:
	bl	_Znwm
.LEHE44:
	mov	x19, x0
	mov	w1, 40
	strb	w1, [x0, 40]
.L1490:
	adrp	x1, :got:_ZN4asio6detail18completion_handlerIZN7asiopal13IAsyncChannel8ShutdownEvEUlvE_E11do_completeEPNS0_15task_io_serviceEPNS0_25task_io_service_operationERKSt10error_codem
	dup	v0.2d, x19
	ldr	x0, [x21, 48]
	str	wzr, [x19, 16]
	ldr	x1, [x1, #:got_lo12:_ZN4asio6detail18completion_handlerIZN7asiopal13IAsyncChannel8ShutdownEvEUlvE_E11do_completeEPNS0_15task_io_serviceEPNS0_25task_io_service_operationERKSt10error_codem]
	stp	xzr, x1, [x19]
	add	x0, x0, 24
	stp	x26, x20, [x19, 24]
	str	q0, [sp, 96]
	bl	pthread_mutex_lock
	ldr	x0, [x21, 48]
	ldrb	w1, [x0, 72]
	cbz	w1, .L1491
	str	xzr, [x19]
	ldr	x3, [x0, 88]
	cbz	x3, .L1492
	str	x19, [x3]
	str	x19, [x0, 88]
.L1493:
	add	x0, x0, 24
	bl	pthread_mutex_unlock
.L1494:
	ldr	x0, [x23, #:got_lo12:__libc_single_threaded]
	ldrb	w0, [x0]
	cbz	w0, .L1557
.L1507:
	ldr	w0, [x20, 8]
	sub	w1, w0, #1
	str	w1, [x20, 8]
	cmp	w0, 1
	beq	.L1558
.L1553:
	ldp	x23, x24, [sp, 48]
	.cfi_restore 24
	.cfi_restore 23
	ldp	x25, x26, [sp, 64]
	.cfi_restore 26
	.cfi_restore 25
	ldr	x27, [sp, 80]
	.cfi_restore 27
.L1481:
	adrp	x0, :got:__stack_chk_guard
	ldr	x0, [x0, #:got_lo12:__stack_chk_guard]
	ldr	x2, [sp, 152]
	ldr	x1, [x0]
	subs	x2, x2, x1
	mov	x1, 0
	bne	.L1559
	ldp	x19, x20, [sp, 16]
	ldp	x21, x22, [sp, 32]
	ldp	x29, x30, [sp], 160
	.cfi_remember_state
	.cfi_restore 30
	.cfi_restore 29
	.cfi_restore 21
	.cfi_restore 22
	.cfi_restore 19
	.cfi_restore 20
	.cfi_def_cfa_offset 0
	ret
	.p2align 2,,3
.L1555:
	.cfi_restore_state
	ldr	x0, [x19, 8]
	mov	x1, x22
	adrp	x3, .LC27
	adrp	x2, .LC28
	add	x3, x3, :lo12:.LC27
	add	x2, x2, :lo12:.LC28
	add	x0, x0, 64
	str	w20, [sp, 136]
.LEHB45:
	bl	_ZN7openpal6Logger3LogERKNS_10LogFiltersEPKcS5_
	b	.L1482
	.p2align 2,,3
.L1491:
	.cfi_offset 23, -112
	.cfi_offset 24, -104
	.cfi_offset 25, -96
	.cfi_offset 26, -88
	.cfi_offset 27, -80
	mov	w1, 1
	strb	w1, [x0, 72]
	add	x0, x0, 24
	bl	pthread_mutex_unlock
	ldr	x21, [x21, 48]
	dup	v0.2d, x21
	ldr	x1, [x21, 104]
	str	xzr, [x19]
	str	q0, [sp, 112]
	cbz	x1, .L1495
	str	x19, [x1]
	str	x19, [x21, 104]
.L1496:
	ldr	x19, [x27, 40]
	ldrb	w0, [x19, 40]
	cbnz	w0, .L1560
.L1497:
	add	x1, x19, 192
	add	x25, x19, 48
	mov	x0, 1
	bl	__aarch64_ldadd8_acq_rel
	mov	x0, x25
	bl	pthread_mutex_lock
	ldr	x1, [x19, 208]
	str	xzr, [x21]
	cbz	x1, .L1502
	str	x21, [x1]
	str	x21, [x19, 208]
.L1503:
	ldr	x0, [x19, 144]
	add	x21, x19, 96
	orr	x0, x0, 1
	str	x0, [x19, 144]
	cmp	x0, 1
	beq	.L1504
	mov	x0, x25
	bl	pthread_mutex_unlock
	mov	x0, x21
	bl	pthread_cond_signal
	b	.L1494
	.p2align 2,,3
.L1556:
	mov	x1, x24
	mov	w0, 1
	bl	__aarch64_ldadd4_acq_rel
	b	.L1487
	.p2align 2,,3
.L1495:
	ldr	q0, [sp, 96]
	str	q0, [x21, 96]
	b	.L1496
	.p2align 2,,3
.L1504:
	ldrb	w1, [x19, 184]
	cbnz	w1, .L1506
	ldr	x4, [x19, 152]
	cbz	x4, .L1506
	mov	w1, 9
	strb	w0, [x19, 184]
	ldr	w2, [x4, 96]
	add	x0, x4, 96
	movk	w1, 0x8000, lsl 16
	str	w1, [sp, 136]
	str	x0, [sp, 144]
	mov	x3, x22
	mov	w1, 3
	ldr	w0, [x4, 104]
	bl	epoll_ctl
.L1506:
	mov	x0, x25
	bl	pthread_mutex_unlock
	ldr	x0, [x23, #:got_lo12:__libc_single_threaded]
	ldrb	w0, [x0]
	cbnz	w0, .L1507
.L1557:
	mov	x1, x24
	mov	w0, -1
	bl	__aarch64_ldadd4_acq_rel
	cmp	w0, 1
	bne	.L1553
.L1558:
	ldr	x1, [x20]
	mov	x0, x20
	ldr	x1, [x1, 16]
	blr	x1
	ldr	x23, [x23, #:got_lo12:__libc_single_threaded]
	ldrb	w0, [x23]
	cbz	w0, .L1513
	ldr	w0, [x20, 12]
	sub	w1, w0, #1
	str	w1, [x20, 12]
.L1514:
	cmp	w0, 1
	bne	.L1553
	adrp	x0, :got:__stack_chk_guard
	ldr	x0, [x0, #:got_lo12:__stack_chk_guard]
	ldr	x2, [sp, 152]
	ldr	x1, [x0]
	subs	x2, x2, x1
	mov	x1, 0
	bne	.L1554
	ldr	x1, [x20]
	mov	x0, x20
	ldp	x19, x20, [sp, 16]
	ldr	x1, [x1, 24]
	ldp	x21, x22, [sp, 32]
	mov	x16, x1
	ldp	x23, x24, [sp, 48]
	.cfi_remember_state
	.cfi_restore 24
	.cfi_restore 23
	ldp	x25, x26, [sp, 64]
	.cfi_restore 26
	.cfi_restore 25
	ldr	x27, [sp, 80]
	.cfi_restore 27
	ldp	x29, x30, [sp], 160
	.cfi_restore 30
	.cfi_restore 29
	.cfi_restore 21
	.cfi_restore 22
	.cfi_restore 19
	.cfi_restore 20
	.cfi_def_cfa_offset 0
	br	x16
	.p2align 2,,3
.L1492:
	.cfi_restore_state
	ldr	q0, [sp, 96]
	str	q0, [x0, 80]
	b	.L1493
	.p2align 2,,3
.L1560:
	ldr	x25, [x25, #:got_lo12:_ZN4asio6detail10call_stackINS0_15task_io_serviceENS0_27task_io_service_thread_infoEE4top_E]
	ldr	w0, [x25]
	bl	pthread_getspecific
	cbnz	x0, .L1500
	b	.L1497
	.p2align 2,,3
.L1498:
	ldr	x0, [x0, 16]
	cbz	x0, .L1497
.L1500:
	ldr	x1, [x0]
	cmp	x19, x1
	bne	.L1498
	ldr	x0, [x0, 8]
	cbz	x0, .L1497
	ldp	x3, x1, [x0, 16]
	add	x1, x1, 1
	str	x1, [x0, 24]
	str	xzr, [x21]
	ldr	x1, [x0, 16]
	cbz	x3, .L1501
	str	x21, [x1]
	str	x21, [x0, 16]
	b	.L1494
	.p2align 2,,3
.L1502:
	ldr	q0, [sp, 112]
	str	q0, [x19, 200]
	b	.L1503
	.p2align 2,,3
.L1513:
	add	x1, x20, 12
	mov	w0, -1
	bl	__aarch64_ldadd4_acq_rel
	b	.L1514
	.p2align 2,,3
.L1501:
	ldr	q0, [sp, 112]
	str	q0, [x0, 8]
	b	.L1494
.L1559:
	.cfi_restore 23
	.cfi_restore 24
	.cfi_restore 25
	.cfi_restore 26
	.cfi_restore 27
	stp	x23, x24, [sp, 48]
	.cfi_offset 24, -104
	.cfi_offset 23, -112
	stp	x25, x26, [sp, 64]
	.cfi_offset 26, -88
	.cfi_offset 25, -96
	str	x27, [sp, 80]
	.cfi_offset 27, -80
.L1554:
	bl	__stack_chk_fail
.L1484:
	mov	x0, 8
	bl	__cxa_allocate_exception
	adrp	x3, :got:_ZTVSt12bad_weak_ptr
	adrp	x2, :got:_ZNSt12bad_weak_ptrD1Ev
	adrp	x1, :got:_ZTISt12bad_weak_ptr
	ldr	x3, [x3, #:got_lo12:_ZTVSt12bad_weak_ptr]
	ldr	x2, [x2, #:got_lo12:_ZNSt12bad_weak_ptrD1Ev]
	add	x3, x3, 16
	ldr	x1, [x1, #:got_lo12:_ZTISt12bad_weak_ptr]
	str	x3, [x0]
	bl	__cxa_throw
.L1520:
	mov	x19, x0
	mov	x0, x20
	bl	_ZNSt16_Sp_counted_baseILN9__gnu_cxx12_Lock_policyE2EE10_M_releaseEv
	mov	x0, x20
	bl	_ZNSt16_Sp_counted_baseILN9__gnu_cxx12_Lock_policyE2EE10_M_releaseEv
	mov	x0, x19
	bl	_Unwind_Resume
.LEHE45:
	.cfi_endproc
.LFE9729:
	.section	.gcc_except_table
.LLSDA9729:
	.byte	0xff
	.byte	0xff
	.byte	0x1
	.uleb128 .LLSDACSE9729-.LLSDACSB9729
.LLSDACSB9729:
	.uleb128 .LEHB43-.LFB9729
	.uleb128 .LEHE43-.LEHB43
	.uleb128 0
	.uleb128 0
	.uleb128 .LEHB44-.LFB9729
	.uleb128 .LEHE44-.LEHB44
	.uleb128 .L1520-.LFB9729
	.uleb128 0
	.uleb128 .LEHB45-.LFB9729
	.uleb128 .LEHE45-.LEHB45
	.uleb128 0
	.uleb128 0
.LLSDACSE9729:
	.text
	.size	_ZNSt17_Function_handlerIFvvEZN7openpal8TimerRef5StartIZN8asiodnp311LinkSession5StartEvEUlvE_EEbRKNS1_12TimeDurationERKT_EUlvE_E9_M_invokeERKSt9_Any_data, .-_ZNSt17_Function_handlerIFvvEZN7openpal8TimerRef5StartIZN8asiodnp311LinkSession5StartEvEUlvE_EEbRKNS1_12TimeDurationERKT_EUlvE_E9_M_invokeERKSt9_Any_data
	.align	2
	.p2align 4,,11
	.global	_ZThn48_N8asiodnp311LinkSession13AcceptSessionERKNSt7__cxx1112basic_stringIcSt11char_traitsIcESaIcEEESt10shared_ptrIN8opendnp311ISOEHandlerEES9_INSA_18IMasterApplicationEERKNS_17MasterStackConfigE
	.type	_ZThn48_N8asiodnp311LinkSession13AcceptSessionERKNSt7__cxx1112basic_stringIcSt11char_traitsIcESaIcEEESt10shared_ptrIN8opendnp311ISOEHandlerEES9_INSA_18IMasterApplicationEERKNS_17MasterStackConfigE, %function
_ZThn48_N8asiodnp311LinkSession13AcceptSessionERKNSt7__cxx1112basic_stringIcSt11char_traitsIcESaIcEEESt10shared_ptrIN8opendnp311ISOEHandlerEES9_INSA_18IMasterApplicationEERKNS_17MasterStackConfigE:
.LFB10705:
	.cfi_startproc
	.cfi_personality 0x9b,DW.ref.__gxx_personality_v0
	.cfi_lsda 0x1b,.LLSDA10705
	stp	x29, x30, [sp, -144]!
	.cfi_def_cfa_offset 144
	.cfi_offset 29, -144
	.cfi_offset 30, -136
	adrp	x5, :got:__stack_chk_guard
	mov	x29, sp
	ldr	x5, [x5, #:got_lo12:__stack_chk_guard]
	stp	x19, x20, [sp, 16]
	.cfi_offset 19, -128
	.cfi_offset 20, -120
	mov	x19, x0
	stp	x21, x22, [sp, 32]
	mov	x20, x8
	stp	x23, x24, [sp, 48]
	.cfi_offset 21, -112
	.cfi_offset 22, -104
	.cfi_offset 23, -96
	.cfi_offset 24, -88
	add	x24, x0, 16
	ldr	x0, [x0, 544]
	ldr	x6, [x5]
	str	x6, [sp, 136]
	mov	x6, 0
	cbz	x0, .L1562
	add	x21, sp, 120
	mov	w19, 2
	mov	x1, x21
	mov	x0, x24
	str	w19, [sp, 120]
.LEHB46:
	bl	_ZNK7openpal6Logger9IsEnabledERKNS_10LogFiltersE
	tst	w0, 255
	bne	.L1620
.L1563:
	stp	xzr, xzr, [x20]
.L1561:
	adrp	x0, :got:__stack_chk_guard
	ldr	x0, [x0, #:got_lo12:__stack_chk_guard]
	ldr	x2, [sp, 136]
	ldr	x1, [x0]
	subs	x2, x2, x1
	mov	x1, 0
	bne	.L1621
	ldp	x19, x20, [sp, 16]
	ldp	x21, x22, [sp, 32]
	ldp	x23, x24, [sp, 48]
	ldp	x29, x30, [sp], 144
	.cfi_remember_state
	.cfi_restore 30
	.cfi_restore 29
	.cfi_restore 23
	.cfi_restore 24
	.cfi_restore 21
	.cfi_restore 22
	.cfi_restore 19
	.cfi_restore 20
	.cfi_def_cfa_offset 0
	ret
	.p2align 2,,3
.L1620:
	.cfi_restore_state
	mov	x1, x21
	mov	x0, x24
	adrp	x3, .LC21
	adrp	x2, .LC22
	add	x3, x3, :lo12:.LC21
	add	x2, x2, :lo12:.LC22
	str	w19, [sp, 120]
	bl	_ZN7openpal6Logger3LogERKNS_10LogFiltersEPKcS5_
	b	.L1563
	.p2align 2,,3
.L1562:
	ldr	x0, [x19, 32]
	mov	x21, x2
	mov	x22, x3
	mov	x23, x4
	stp	x25, x26, [sp, 64]
	.cfi_offset 26, -72
	.cfi_offset 25, -80
	str	x27, [sp, 80]
	.cfi_offset 27, -64
	bl	_ZNSt7__cxx1112basic_stringIcSt11char_traitsIcESaIcEE9_M_assignERKS4_
.LEHE46:
	ldr	x2, [x19, -16]
	str	x2, [sp, 128]
	ldr	x27, [x19, 88]
	add	x27, x27, 24
	cbz	x2, .L1565
	add	x25, x2, 8
	ldr	w26, [x25]
.L1567:
	cbz	w26, .L1565
	add	w1, w26, 1
	mov	w0, w26
	mov	x2, x25
	bl	__aarch64_cas4_acq_rel
	cmp	w0, w26
	mov	w26, w0
	bne	.L1567
	ldr	x7, [x19, -24]
	mov	x6, x23
	mov	x3, x22
	mov	x2, x21
	mov	x1, x27
	mov	x0, x24
	add	x8, sp, 96
	sub	x5, x19, #48
	add	x4, sp, 120
	str	x7, [sp, 120]
.LEHB47:
	bl	_ZN8asiodnp318MasterSessionStack6CreateERKN7openpal6LoggerERKSt10shared_ptrIN7asiopal8ExecutorEERKS5_IN8opendnp311ISOEHandlerEERKS5_INSB_18IMasterApplicationEERKS5_INS_11LinkSessionEERNSB_7ILinkTxERKNS_17MasterStackConfigE
.LEHE47:
	ldr	q0, [sp, 96]
	stp	xzr, xzr, [sp, 96]
	ldr	x22, [x19, 552]
	str	q0, [x19, 544]
	cbz	x22, .L1569
	adrp	x21, :got:__libc_single_threaded
	ldr	x0, [x21, #:got_lo12:__libc_single_threaded]
	ldrb	w0, [x0]
	cbz	w0, .L1570
	ldr	w0, [x22, 8]
	sub	w1, w0, #1
	str	w1, [x22, 8]
	cmp	w0, 1
	bne	.L1569
.L1574:
	ldr	x1, [x22]
	mov	x0, x22
	ldr	x1, [x1, 16]
	blr	x1
	ldr	x0, [x21, #:got_lo12:__libc_single_threaded]
	ldrb	w0, [x0]
	cbz	w0, .L1622
	ldr	w0, [x22, 12]
	sub	w1, w0, #1
	str	w1, [x22, 12]
.L1576:
	cmp	w0, 1
	beq	.L1623
.L1575:
	ldr	x22, [sp, 104]
	cbz	x22, .L1569
	ldr	x0, [x21, #:got_lo12:__libc_single_threaded]
	ldrb	w0, [x0]
	cbz	w0, .L1578
	ldr	w0, [x22, 8]
	sub	w1, w0, #1
	str	w1, [x22, 8]
.L1579:
	cmp	w0, 1
	bne	.L1569
	ldr	x1, [x22]
	mov	x0, x22
	ldr	x1, [x1, 16]
	blr	x1
	ldr	x21, [x21, #:got_lo12:__libc_single_threaded]
	ldrb	w0, [x21]
	cbz	w0, .L1580
	ldr	w0, [x22, 12]
	sub	w1, w0, #1
	str	w1, [x22, 12]
.L1581:
	cmp	w0, 1
	bne	.L1569
	ldr	x1, [x22]
	mov	x0, x22
	ldr	x1, [x1, 24]
	blr	x1
	.p2align 3,,7
.L1569:
	ldr	x22, [sp, 128]
	cbz	x22, .L1583
	adrp	x21, :got:__libc_single_threaded
	ldr	x0, [x21, #:got_lo12:__libc_single_threaded]
	ldrb	w0, [x0]
	cbz	w0, .L1584
	ldr	w0, [x22, 8]
	sub	w1, w0, #1
	str	w1, [x22, 8]
.L1585:
	cmp	w0, 1
	bne	.L1583
	ldr	x1, [x22]
	mov	x0, x22
	ldr	x1, [x1, 16]
	blr	x1
	ldr	x21, [x21, #:got_lo12:__libc_single_threaded]
	ldrb	w0, [x21]
	cbz	w0, .L1587
	ldr	w0, [x22, 12]
	sub	w1, w0, #1
	str	w1, [x22, 12]
.L1588:
	cmp	w0, 1
	bne	.L1583
	ldr	x1, [x22]
	mov	x0, x22
	ldr	x1, [x1, 24]
	blr	x1
	.p2align 3,,7
.L1583:
	ldr	q0, [x19, 544]
	umov	x1, v0.d[1]
	str	q0, [x20]
	cbz	x1, .L1619
	adrp	x0, :got:__libc_single_threaded
	ldr	x0, [x0, #:got_lo12:__libc_single_threaded]
	ldrb	w0, [x0]
	cbz	w0, .L1589
	ldr	w0, [x1, 8]
	ldp	x25, x26, [sp, 64]
	.cfi_remember_state
	.cfi_restore 26
	.cfi_restore 25
	add	w0, w0, 1
	ldr	x27, [sp, 80]
	.cfi_restore 27
	str	w0, [x1, 8]
	b	.L1561
	.p2align 2,,3
.L1589:
	.cfi_restore_state
	add	x1, x1, 8
	mov	w0, 1
	bl	__aarch64_ldadd4_acq_rel
	ldp	x25, x26, [sp, 64]
	.cfi_remember_state
	.cfi_restore 26
	.cfi_restore 25
	ldr	x27, [sp, 80]
	.cfi_restore 27
	b	.L1561
	.p2align 2,,3
.L1619:
	.cfi_restore_state
	ldp	x25, x26, [sp, 64]
	.cfi_remember_state
	.cfi_restore 26
	.cfi_restore 25
	ldr	x27, [sp, 80]
	.cfi_restore 27
	b	.L1561
	.p2align 2,,3
.L1570:
	.cfi_restore_state
	add	x1, x22, 8
	mov	w0, -1
	bl	__aarch64_ldadd4_acq_rel
	cmp	w0, 1
	bne	.L1575
	b	.L1574
	.p2align 2,,3
.L1584:
	add	x1, x22, 8
	mov	w0, -1
	bl	__aarch64_ldadd4_acq_rel
	b	.L1585
	.p2align 2,,3
.L1578:
	add	x1, x22, 8
	mov	w0, -1
	bl	__aarch64_ldadd4_acq_rel
	b	.L1579
	.p2align 2,,3
.L1623:
	ldr	x1, [x22]
	mov	x0, x22
	ldr	x1, [x1, 24]
	blr	x1
	b	.L1575
	.p2align 2,,3
.L1587:
	add	x1, x22, 12
	mov	w0, -1
	bl	__aarch64_ldadd4_acq_rel
	b	.L1588
	.p2align 2,,3
.L1580:
	add	x1, x22, 12
	mov	w0, -1
	bl	__aarch64_ldadd4_acq_rel
	b	.L1581
	.p2align 2,,3
.L1622:
	add	x1, x22, 12
	mov	w0, -1
	bl	__aarch64_ldadd4_acq_rel
	b	.L1576
.L1621:
	.cfi_restore 25
	.cfi_restore 26
	.cfi_restore 27
	stp	x25, x26, [sp, 64]
	.cfi_offset 26, -72
	.cfi_offset 25, -80
	str	x27, [sp, 80]
	.cfi_offset 27, -64
	bl	__stack_chk_fail
.L1565:
	mov	x0, 8
	bl	__cxa_allocate_exception
	adrp	x3, :got:_ZTVSt12bad_weak_ptr
	adrp	x2, :got:_ZNSt12bad_weak_ptrD1Ev
	adrp	x1, :got:_ZTISt12bad_weak_ptr
	ldr	x3, [x3, #:got_lo12:_ZTVSt12bad_weak_ptr]
	ldr	x2, [x2, #:got_lo12:_ZNSt12bad_weak_ptrD1Ev]
	add	x3, x3, 16
	ldr	x1, [x1, #:got_lo12:_ZTISt12bad_weak_ptr]
	str	x3, [x0]
.LEHB48:
	bl	__cxa_throw
.L1594:
	ldr	x1, [sp, 128]
	mov	x19, x0
	cbz	x1, .L1591
	mov	x0, x1
	bl	_ZNSt16_Sp_counted_baseILN9__gnu_cxx12_Lock_policyE2EE10_M_releaseEv
.L1591:
	mov	x0, x19
	bl	_Unwind_Resume
.LEHE48:
	.cfi_endproc
.LFE10705:
	.section	.gcc_except_table
.LLSDA10705:
	.byte	0xff
	.byte	0xff
	.byte	0x1
	.uleb128 .LLSDACSE10705-.LLSDACSB10705
.LLSDACSB10705:
	.uleb128 .LEHB46-.LFB10705
	.uleb128 .LEHE46-.LEHB46
	.uleb128 0
	.uleb128 0
	.uleb128 .LEHB47-.LFB10705
	.uleb128 .LEHE47-.LEHB47
	.uleb128 .L1594-.LFB10705
	.uleb128 0
	.uleb128 .LEHB48-.LFB10705
	.uleb128 .LEHE48-.LEHB48
	.uleb128 0
	.uleb128 0
.LLSDACSE10705:
	.text
	.size	_ZThn48_N8asiodnp311LinkSession13AcceptSessionERKNSt7__cxx1112basic_stringIcSt11char_traitsIcESaIcEEESt10shared_ptrIN8opendnp311ISOEHandlerEES9_INSA_18IMasterApplicationEERKNS_17MasterStackConfigE, .-_ZThn48_N8asiodnp311LinkSession13AcceptSessionERKNSt7__cxx1112basic_stringIcSt11char_traitsIcESaIcEEESt10shared_ptrIN8opendnp311ISOEHandlerEES9_INSA_18IMasterApplicationEERKNS_17MasterStackConfigE
	.section	.text._ZN4asio6detail18completion_handlerIZN7asiopal13IAsyncChannel8ShutdownEvEUlvE_E3ptr5resetEv,"axG",@progbits,_ZN4asio6detail18completion_handlerIZN7asiopal13IAsyncChannel8ShutdownEvEUlvE_E3ptr5resetEv,comdat
	.align	2
	.p2align 4,,11
	.weak	_ZN4asio6detail18completion_handlerIZN7asiopal13IAsyncChannel8ShutdownEvEUlvE_E3ptr5resetEv
	.type	_ZN4asio6detail18completion_handlerIZN7asiopal13IAsyncChannel8ShutdownEvEUlvE_E3ptr5resetEv, %function
_ZN4asio6detail18completion_handlerIZN7asiopal13IAsyncChannel8ShutdownEvEUlvE_E3ptr5resetEv:
.LFB9856:
	.cfi_startproc
	stp	x29, x30, [sp, -48]!
	.cfi_def_cfa_offset 48
	.cfi_offset 29, -48
	.cfi_offset 30, -40
	mov	x29, sp
	stp	x19, x20, [sp, 16]
	.cfi_offset 19, -32
	.cfi_offset 20, -24
	mov	x19, x0
	ldr	x0, [x0, 16]
	cbz	x0, .L1625
	ldr	x20, [x0, 32]
	cbz	x20, .L1627
	str	x21, [sp, 32]
	.cfi_offset 21, -16
	adrp	x21, :got:__libc_single_threaded
	ldr	x0, [x21, #:got_lo12:__libc_single_threaded]
	ldrb	w0, [x0]
	cbz	w0, .L1628
	ldr	w0, [x20, 8]
	sub	w1, w0, #1
	str	w1, [x20, 8]
.L1629:
	cmp	w0, 1
	beq	.L1651
.L1650:
	ldr	x21, [sp, 32]
	.cfi_restore 21
.L1627:
	str	xzr, [x19, 16]
.L1625:
	ldr	x20, [x19, 8]
	cbz	x20, .L1624
	adrp	x0, :got:_ZN4asio6detail10call_stackINS0_15task_io_serviceENS0_27task_io_service_thread_infoEE4top_E
	ldr	x0, [x0, #:got_lo12:_ZN4asio6detail10call_stackINS0_15task_io_serviceENS0_27task_io_service_thread_infoEE4top_E]
	ldr	w0, [x0]
	bl	pthread_getspecific
	cbz	x0, .L1634
	ldr	x0, [x0, 8]
	cbz	x0, .L1634
	ldr	x1, [x0]
	cbz	x1, .L1652
.L1634:
	mov	x0, x20
	bl	_ZdlPv
	str	xzr, [x19, 8]
.L1624:
	ldp	x19, x20, [sp, 16]
	ldp	x29, x30, [sp], 48
	.cfi_restore 30
	.cfi_restore 29
	.cfi_restore 19
	.cfi_restore 20
	.cfi_def_cfa_offset 0
	ret
	.p2align 2,,3
.L1651:
	.cfi_def_cfa_offset 48
	.cfi_offset 19, -32
	.cfi_offset 20, -24
	.cfi_offset 21, -16
	.cfi_offset 29, -48
	.cfi_offset 30, -40
	ldr	x1, [x20]
	mov	x0, x20
	ldr	x1, [x1, 16]
	blr	x1
	ldr	x21, [x21, #:got_lo12:__libc_single_threaded]
	ldrb	w0, [x21]
	cbz	w0, .L1631
	ldr	w0, [x20, 12]
	sub	w1, w0, #1
	str	w1, [x20, 12]
.L1632:
	cmp	w0, 1
	bne	.L1650
	ldr	x1, [x20]
	mov	x0, x20
	ldr	x1, [x1, 24]
	blr	x1
	ldr	x21, [sp, 32]
	.cfi_remember_state
	.cfi_restore 21
	b	.L1627
	.p2align 2,,3
.L1628:
	.cfi_restore_state
	add	x1, x20, 8
	mov	w0, -1
	bl	__aarch64_ldadd4_acq_rel
	b	.L1629
	.p2align 2,,3
.L1652:
	.cfi_restore 21
	ldrb	w1, [x20, 40]
	strb	w1, [x20]
	str	x20, [x0]
	str	xzr, [x19, 8]
	b	.L1624
	.p2align 2,,3
.L1631:
	.cfi_offset 21, -16
	add	x1, x20, 12
	mov	w0, -1
	bl	__aarch64_ldadd4_acq_rel
	b	.L1632
	.cfi_endproc
.LFE9856:
	.size	_ZN4asio6detail18completion_handlerIZN7asiopal13IAsyncChannel8ShutdownEvEUlvE_E3ptr5resetEv, .-_ZN4asio6detail18completion_handlerIZN7asiopal13IAsyncChannel8ShutdownEvEUlvE_E3ptr5resetEv
	.section	.text._ZN4asio6detail18completion_handlerIZN7asiopal13IAsyncChannel8ShutdownEvEUlvE_E11do_completeEPNS0_15task_io_serviceEPNS0_25task_io_service_operationERKSt10error_codem,"axG",@progbits,_ZN4asio6detail18completion_handlerIZN7asiopal13IAsyncChannel8ShutdownEvEUlvE_E11do_completeEPNS0_15task_io_serviceEPNS0_25task_io_service_operationERKSt10error_codem,comdat
	.align	2
	.p2align 4,,11
	.weak	_ZN4asio6detail18completion_handlerIZN7asiopal13IAsyncChannel8ShutdownEvEUlvE_E11do_completeEPNS0_15task_io_serviceEPNS0_25task_io_service_operationERKSt10error_codem
	.type	_ZN4asio6detail18completion_handlerIZN7asiopal13IAsyncChannel8ShutdownEvEUlvE_E11do_completeEPNS0_15task_io_serviceEPNS0_25task_io_service_operationERKSt10error_codem, %function
_ZN4asio6detail18completion_handlerIZN7asiopal13IAsyncChannel8ShutdownEvEUlvE_E11do_completeEPNS0_15task_io_serviceEPNS0_25task_io_service_operationERKSt10error_codem:
.LFB9860:
	.cfi_startproc
	.cfi_personality 0x9b,DW.ref.__gxx_personality_v0
	.cfi_lsda 0x1b,.LLSDA9860
	stp	x29, x30, [sp, -192]!
	.cfi_def_cfa_offset 192
	.cfi_offset 29, -192
	.cfi_offset 30, -184
	adrp	x2, :got:__stack_chk_guard
	mov	x29, sp
	stp	x21, x22, [sp, 32]
	.cfi_offset 21, -160
	.cfi_offset 22, -152
	adrp	x21, :got:_ZN4asio6detail10call_stackINS0_15task_io_serviceENS0_27task_io_service_thread_infoEE4top_E
	stp	x19, x20, [sp, 16]
	.cfi_offset 19, -176
	.cfi_offset 20, -168
	mov	x19, x1
	mov	x20, x0
	ldr	x1, [x21, #:got_lo12:_ZN4asio6detail10call_stackINS0_15task_io_serviceENS0_27task_io_service_thread_infoEE4top_E]
	ldr	x2, [x2, #:got_lo12:__stack_chk_guard]
	ldr	w0, [x1]
	add	x1, sp, 128
	ldr	q0, [x19, 24]
	ldr	x3, [x2]
	str	x3, [sp, 184]
	mov	x3, 0
	stp	x1, x19, [sp, 160]
	str	q0, [sp, 128]
	str	xzr, [sp, 176]
	bl	pthread_getspecific
	cbz	x0, .L1654
	ldr	x0, [x0, 8]
	cbz	x0, .L1654
	ldr	x1, [x0]
	cbz	x1, .L1785
.L1654:
	mov	x0, x19
	bl	_ZdlPv
.L1655:
	str	xzr, [sp, 168]
	cbz	x20, .L1656
	stp	x23, x24, [sp, 48]
	.cfi_offset 24, -136
	.cfi_offset 23, -144
	add	x23, sp, 120
	mov	x1, x23
	mov	w0, 1
	str	x25, [sp, 64]
	.cfi_offset 25, -128
	str	wzr, [sp, 120]
	bl	__aarch64_swp4_sync
	ldp	x22, x20, [sp, 128]
	cbz	x20, .L1657
	adrp	x19, :got:__libc_single_threaded
	add	x25, x20, 8
	ldr	x0, [x19, #:got_lo12:__libc_single_threaded]
	ldrb	w0, [x0]
	cbz	w0, .L1658
	ldr	w0, [x20, 8]
	add	w0, w0, 1
	str	w0, [x20, 8]
.L1659:
	ldrb	w0, [x22, 57]
	cbnz	w0, .L1733
	ldrb	w0, [x22, 58]
	cbz	w0, .L1735
.L1733:
	ldr	x19, [x19, #:got_lo12:__libc_single_threaded]
	ldrb	w0, [x19]
	cbz	w0, .L1786
	ldr	w0, [x20, 8]
	ldr	x24, [x22, 24]
	add	w0, w0, 1
	str	w0, [x20, 8]
.L1660:
	ldr	w0, [x20, 8]
	add	w0, w0, 1
	str	w0, [x20, 8]
.L1662:
	ldr	x0, [x21, #:got_lo12:_ZN4asio6detail10call_stackINS0_15task_io_serviceENS0_27task_io_service_thread_infoEE4top_E]
	ldr	x25, [x24, 40]
	ldr	w0, [x0]
	bl	pthread_getspecific
	cbz	x0, .L1663
	ldr	x0, [x0, 8]
	cbz	x0, .L1663
	ldr	x19, [x0]
	cbz	x19, .L1663
	str	xzr, [x0]
	ldrb	w0, [x19]
	cmp	w0, 39
	bls	.L1664
	strb	w0, [x19, 40]
.L1665:
	adrp	x1, :got:_ZN4asio6detail18completion_handlerIZN7asiopal13IAsyncChannel16CheckForShutdownESt10shared_ptrIS3_EEUlvE_E11do_completeEPNS0_15task_io_serviceEPNS0_25task_io_service_operationERKSt10error_codem
	dup	v0.2d, x19
	ldr	x0, [x24, 48]
	str	wzr, [x19, 16]
	ldr	x1, [x1, #:got_lo12:_ZN4asio6detail18completion_handlerIZN7asiopal13IAsyncChannel16CheckForShutdownESt10shared_ptrIS3_EEUlvE_E11do_completeEPNS0_15task_io_serviceEPNS0_25task_io_service_operationERKSt10error_codem]
	stp	xzr, x1, [x19]
	add	x0, x0, 24
	stp	x22, x20, [x19, 24]
	str	q0, [sp, 80]
	bl	pthread_mutex_lock
	ldr	x0, [x24, 48]
	ldrb	w1, [x0, 72]
	cbz	w1, .L1666
	str	xzr, [x19]
	ldr	x3, [x0, 88]
	cbz	x3, .L1667
	str	x19, [x3]
	str	x19, [x0, 88]
.L1668:
	add	x0, x0, 24
	bl	pthread_mutex_unlock
.L1669:
	cbz	x20, .L1701
	adrp	x19, :got:__libc_single_threaded
	ldr	x0, [x19, #:got_lo12:__libc_single_threaded]
	ldrb	w0, [x0]
	cbz	w0, .L1690
	ldr	w0, [x20, 8]
	sub	w1, w0, #1
	str	w1, [x20, 8]
.L1691:
	cmp	w0, 1
	beq	.L1787
.L1689:
	cbz	x20, .L1701
	adrp	x19, :got:__libc_single_threaded
	ldr	x0, [x19, #:got_lo12:__libc_single_threaded]
	ldrb	w0, [x0]
	cbz	w0, .L1704
	ldr	w0, [x20, 8]
	sub	w1, w0, #1
	str	w1, [x20, 8]
.L1705:
	cmp	w0, 1
	beq	.L1788
.L1701:
	stlr	wzr, [x23]
	ldp	x23, x24, [sp, 48]
	.cfi_restore 24
	.cfi_restore 23
	ldr	x25, [sp, 64]
	.cfi_restore 25
.L1656:
	ldr	x20, [sp, 136]
	cbz	x20, .L1712
	adrp	x19, :got:__libc_single_threaded
	ldr	x0, [x19, #:got_lo12:__libc_single_threaded]
	ldrb	w0, [x0]
	cbz	w0, .L1713
	ldr	w0, [x20, 8]
	sub	w1, w0, #1
	str	w1, [x20, 8]
.L1714:
	cmp	w0, 1
	beq	.L1789
.L1712:
	ldr	x0, [sp, 176]
	cbz	x0, .L1718
	ldr	x20, [x0, 32]
	cbz	x20, .L1720
	adrp	x19, :got:__libc_single_threaded
	ldr	x0, [x19, #:got_lo12:__libc_single_threaded]
	ldrb	w0, [x0]
	cbz	w0, .L1721
	ldr	w0, [x20, 8]
	sub	w1, w0, #1
	str	w1, [x20, 8]
.L1722:
	cmp	w0, 1
	beq	.L1790
.L1720:
	str	xzr, [sp, 176]
.L1718:
	ldr	x19, [sp, 168]
	cbz	x19, .L1653
	ldr	x21, [x21, #:got_lo12:_ZN4asio6detail10call_stackINS0_15task_io_serviceENS0_27task_io_service_thread_infoEE4top_E]
	ldr	w0, [x21]
	bl	pthread_getspecific
	cbz	x0, .L1727
	ldr	x0, [x0, 8]
	cbz	x0, .L1727
	ldr	x1, [x0]
	cbz	x1, .L1791
.L1727:
	adrp	x0, :got:__stack_chk_guard
	ldr	x0, [x0, #:got_lo12:__stack_chk_guard]
	ldr	x2, [sp, 184]
	ldr	x1, [x0]
	subs	x2, x2, x1
	mov	x1, 0
	bne	.L1784
	mov	x0, x19
	ldp	x19, x20, [sp, 16]
	ldp	x21, x22, [sp, 32]
	ldp	x29, x30, [sp], 192
	.cfi_remember_state
	.cfi_restore 30
	.cfi_restore 29
	.cfi_restore 21
	.cfi_restore 22
	.cfi_restore 19
	.cfi_restore 20
	.cfi_def_cfa_offset 0
	b	_ZdlPv
	.p2align 2,,3
.L1791:
	.cfi_restore_state
	ldrb	w1, [x19, 40]
	strb	w1, [x19]
	str	x19, [x0]
	.p2align 3,,7
.L1653:
	adrp	x0, :got:__stack_chk_guard
	ldr	x0, [x0, #:got_lo12:__stack_chk_guard]
	ldr	x2, [sp, 184]
	ldr	x1, [x0]
	subs	x2, x2, x1
	mov	x1, 0
	bne	.L1784
	ldp	x19, x20, [sp, 16]
	ldp	x21, x22, [sp, 32]
	ldp	x29, x30, [sp], 192
	.cfi_remember_state
	.cfi_restore 30
	.cfi_restore 29
	.cfi_restore 21
	.cfi_restore 22
	.cfi_restore 19
	.cfi_restore 20
	.cfi_def_cfa_offset 0
	ret
	.p2align 2,,3
.L1790:
	.cfi_restore_state
	ldr	x1, [x20]
	mov	x0, x20
	ldr	x1, [x1, 16]
	blr	x1
	ldr	x19, [x19, #:got_lo12:__libc_single_threaded]
	ldrb	w0, [x19]
	cbz	w0, .L1724
	ldr	w0, [x20, 12]
	sub	w1, w0, #1
	str	w1, [x20, 12]
.L1725:
	cmp	w0, 1
	bne	.L1720
	ldr	x1, [x20]
	mov	x0, x20
	ldr	x1, [x1, 24]
	blr	x1
	b	.L1720
	.p2align 2,,3
.L1657:
	.cfi_offset 23, -144
	.cfi_offset 24, -136
	.cfi_offset 25, -128
	ldrb	w0, [x22, 57]
	cbnz	w0, .L1729
	ldrb	w0, [x22, 58]
	cbnz	w0, .L1729
.L1735:
	ldr	x24, [x22, 48]
	stp	xzr, xzr, [x22, 40]
	cbz	x24, .L1689
	adrp	x19, :got:__libc_single_threaded
	ldr	x0, [x19, #:got_lo12:__libc_single_threaded]
	ldrb	w0, [x0]
	cbz	w0, .L1695
	ldr	w0, [x24, 8]
	sub	w1, w0, #1
	str	w1, [x24, 8]
.L1696:
	cmp	w0, 1
	bne	.L1689
	ldr	x1, [x24]
	mov	x0, x24
	ldr	x1, [x1, 16]
	blr	x1
	ldr	x19, [x19, #:got_lo12:__libc_single_threaded]
	ldrb	w0, [x19]
	cbz	w0, .L1698
	ldr	w0, [x24, 12]
	sub	w1, w0, #1
	str	w1, [x24, 12]
.L1699:
	cmp	w0, 1
	bne	.L1689
	ldr	x1, [x24]
	mov	x0, x24
	ldr	x1, [x1, 24]
	blr	x1
	b	.L1689
	.p2align 2,,3
.L1786:
	mov	x1, x25
	mov	w0, 1
	bl	__aarch64_ldadd4_acq_rel
	ldrb	w0, [x19]
	ldr	x24, [x22, 24]
	cbnz	w0, .L1660
	mov	x1, x25
	mov	w0, 1
	bl	__aarch64_ldadd4_acq_rel
	b	.L1662
	.p2align 2,,3
.L1787:
	ldr	x1, [x20]
	mov	x0, x20
	ldr	x1, [x1, 16]
	blr	x1
	ldr	x19, [x19, #:got_lo12:__libc_single_threaded]
	ldrb	w0, [x19]
	cbz	w0, .L1693
	ldr	w0, [x20, 12]
	sub	w1, w0, #1
	str	w1, [x20, 12]
.L1694:
	cmp	w0, 1
	bne	.L1689
	ldr	x1, [x20]
	mov	x0, x20
	ldr	x1, [x1, 24]
	blr	x1
	b	.L1689
	.p2align 2,,3
.L1664:
	mov	x0, x19
	bl	_ZdlPv
.L1663:
	mov	x0, 41
.LEHB49:
	bl	_Znwm
.LEHE49:
	mov	w1, 40
	mov	x19, x0
	strb	w1, [x0, 40]
	b	.L1665
	.p2align 2,,3
.L1789:
	.cfi_restore 23
	.cfi_restore 24
	.cfi_restore 25
	ldr	x1, [x20]
	mov	x0, x20
	ldr	x1, [x1, 16]
	blr	x1
	ldr	x19, [x19, #:got_lo12:__libc_single_threaded]
	ldrb	w0, [x19]
	cbz	w0, .L1716
	ldr	w0, [x20, 12]
	sub	w1, w0, #1
	str	w1, [x20, 12]
.L1717:
	cmp	w0, 1
	bne	.L1712
	ldr	x1, [x20]
	mov	x0, x20
	ldr	x1, [x1, 24]
	blr	x1
	b	.L1712
	.p2align 2,,3
.L1713:
	add	x1, x20, 8
	mov	w0, -1
	bl	__aarch64_ldadd4_acq_rel
	b	.L1714
	.p2align 2,,3
.L1729:
	.cfi_offset 23, -144
	.cfi_offset 24, -136
	.cfi_offset 25, -128
	ldr	x24, [x22, 24]
	b	.L1662
	.p2align 2,,3
.L1721:
	.cfi_restore 23
	.cfi_restore 24
	.cfi_restore 25
	add	x1, x20, 8
	mov	w0, -1
	bl	__aarch64_ldadd4_acq_rel
	b	.L1722
	.p2align 2,,3
.L1658:
	.cfi_offset 23, -144
	.cfi_offset 24, -136
	.cfi_offset 25, -128
	mov	x1, x25
	mov	w0, 1
	bl	__aarch64_ldadd4_acq_rel
	b	.L1659
	.p2align 2,,3
.L1666:
	mov	w1, 1
	strb	w1, [x0, 72]
	add	x0, x0, 24
	bl	pthread_mutex_unlock
	ldr	x22, [x24, 48]
	dup	v0.2d, x22
	ldr	x1, [x22, 104]
	str	xzr, [x19]
	str	q0, [sp, 96]
	cbz	x1, .L1670
	str	x19, [x1]
	str	x19, [x22, 104]
.L1671:
	ldr	x19, [x25, 40]
	ldrb	w0, [x19, 40]
	cbnz	w0, .L1792
.L1672:
	add	x1, x19, 192
	add	x24, x19, 48
	mov	x0, 1
	bl	__aarch64_ldadd8_acq_rel
	mov	x0, x24
	bl	pthread_mutex_lock
	ldr	x1, [x19, 208]
	str	xzr, [x22]
	cbz	x1, .L1677
	str	x22, [x1]
	str	x22, [x19, 208]
.L1678:
	ldr	x1, [x19, 144]
	add	x22, x19, 96
	orr	x1, x1, 1
	str	x1, [x19, 144]
	cmp	x1, 1
	beq	.L1679
	mov	x0, x24
	bl	pthread_mutex_unlock
	mov	x0, x22
	bl	pthread_cond_signal
	b	.L1669
	.p2align 2,,3
.L1679:
	ldrb	w0, [x19, 184]
	cbnz	w0, .L1681
	ldr	x3, [x19, 152]
	cbz	x3, .L1681
	ldr	w2, [x3, 96]
	add	x4, x3, 96
	ldr	w0, [x3, 104]
	mov	w5, 9
	movk	w5, 0x8000, lsl 16
	strb	w1, [x19, 184]
	add	x3, sp, 144
	mov	w1, 3
	str	w5, [sp, 144]
	str	x4, [sp, 152]
	bl	epoll_ctl
.L1681:
	mov	x0, x24
	bl	pthread_mutex_unlock
	b	.L1669
	.p2align 2,,3
.L1788:
	ldr	x1, [x20]
	mov	x0, x20
	ldr	x1, [x1, 16]
	blr	x1
	ldr	x19, [x19, #:got_lo12:__libc_single_threaded]
	ldrb	w0, [x19]
	cbz	w0, .L1707
	ldr	w0, [x20, 12]
	sub	w1, w0, #1
	str	w1, [x20, 12]
.L1708:
	cmp	w0, 1
	bne	.L1701
	ldr	x1, [x20]
	mov	x0, x20
	ldr	x1, [x1, 24]
	blr	x1
	b	.L1701
	.p2align 2,,3
.L1704:
	add	x1, x20, 8
	mov	w0, -1
	bl	__aarch64_ldadd4_acq_rel
	b	.L1705
	.p2align 2,,3
.L1667:
	ldr	q0, [sp, 80]
	str	q0, [x0, 80]
	b	.L1668
	.p2align 2,,3
.L1785:
	.cfi_restore 23
	.cfi_restore 24
	.cfi_restore 25
	ldrb	w1, [x19, 40]
	strb	w1, [x19]
	str	x19, [x0]
	b	.L1655
	.p2align 2,,3
.L1690:
	.cfi_offset 23, -144
	.cfi_offset 24, -136
	.cfi_offset 25, -128
	add	x1, x20, 8
	mov	w0, -1
	bl	__aarch64_ldadd4_acq_rel
	b	.L1691
	.p2align 2,,3
.L1716:
	.cfi_restore 23
	.cfi_restore 24
	.cfi_restore 25
	add	x1, x20, 12
	mov	w0, -1
	bl	__aarch64_ldadd4_acq_rel
	b	.L1717
	.p2align 2,,3
.L1693:
	.cfi_offset 23, -144
	.cfi_offset 24, -136
	.cfi_offset 25, -128
	add	x1, x20, 12
	mov	w0, -1
	bl	__aarch64_ldadd4_acq_rel
	b	.L1694
	.p2align 2,,3
.L1724:
	.cfi_restore 23
	.cfi_restore 24
	.cfi_restore 25
	add	x1, x20, 12
	mov	w0, -1
	bl	__aarch64_ldadd4_acq_rel
	b	.L1725
	.p2align 2,,3
.L1792:
	.cfi_offset 23, -144
	.cfi_offset 24, -136
	.cfi_offset 25, -128
	ldr	x0, [x21, #:got_lo12:_ZN4asio6detail10call_stackINS0_15task_io_serviceENS0_27task_io_service_thread_infoEE4top_E]
	ldr	w0, [x0]
	bl	pthread_getspecific
	cbnz	x0, .L1675
	b	.L1672
	.p2align 2,,3
.L1673:
	ldr	x0, [x0, 16]
	cbz	x0, .L1672
.L1675:
	ldr	x1, [x0]
	cmp	x19, x1
	bne	.L1673
	ldr	x0, [x0, 8]
	cbz	x0, .L1672
	ldp	x3, x1, [x0, 16]
	add	x1, x1, 1
	str	x1, [x0, 24]
	str	xzr, [x22]
	ldr	x1, [x0, 16]
	cbz	x3, .L1676
	str	x22, [x1]
	str	x22, [x0, 16]
	b	.L1669
	.p2align 2,,3
.L1670:
	ldr	q0, [sp, 80]
	str	q0, [x22, 96]
	b	.L1671
	.p2align 2,,3
.L1707:
	add	x1, x20, 12
	mov	w0, -1
	bl	__aarch64_ldadd4_acq_rel
	b	.L1708
	.p2align 2,,3
.L1695:
	add	x1, x24, 8
	mov	w0, -1
	bl	__aarch64_ldadd4_acq_rel
	b	.L1696
	.p2align 2,,3
.L1677:
	ldr	q0, [sp, 96]
	str	q0, [x19, 200]
	b	.L1678
	.p2align 2,,3
.L1698:
	add	x1, x24, 12
	mov	w0, -1
	bl	__aarch64_ldadd4_acq_rel
	b	.L1699
.L1676:
	ldr	q0, [sp, 96]
	str	q0, [x0, 8]
	b	.L1669
.L1784:
	.cfi_restore 23
	.cfi_restore 24
	.cfi_restore 25
	stp	x23, x24, [sp, 48]
	.cfi_offset 24, -136
	.cfi_offset 23, -144
	str	x25, [sp, 64]
	.cfi_offset 25, -128
	bl	__stack_chk_fail
.L1737:
	mov	x19, x0
	cbz	x20, .L1703
	mov	x0, x20
	bl	_ZNSt16_Sp_counted_baseILN9__gnu_cxx12_Lock_policyE2EE10_M_releaseEv
	mov	x0, x20
	bl	_ZNSt16_Sp_counted_baseILN9__gnu_cxx12_Lock_policyE2EE10_M_releaseEv
	mov	x0, x20
	bl	_ZNSt16_Sp_counted_baseILN9__gnu_cxx12_Lock_policyE2EE10_M_releaseEv
.L1703:
	stlr	wzr, [x23]
	ldr	x0, [sp, 136]
	cbz	x0, .L1710
	bl	_ZNSt16_Sp_counted_baseILN9__gnu_cxx12_Lock_policyE2EE10_M_releaseEv
.L1710:
	add	x0, sp, 160
	bl	_ZN4asio6detail18completion_handlerIZN7asiopal13IAsyncChannel8ShutdownEvEUlvE_E3ptr5resetEv
	mov	x0, x19
.LEHB50:
	bl	_Unwind_Resume
.LEHE50:
	.cfi_endproc
.LFE9860:
	.section	.gcc_except_table
.LLSDA9860:
	.byte	0xff
	.byte	0xff
	.byte	0x1
	.uleb128 .LLSDACSE9860-.LLSDACSB9860
.LLSDACSB9860:
	.uleb128 .LEHB49-.LFB9860
	.uleb128 .LEHE49-.LEHB49
	.uleb128 .L1737-.LFB9860
	.uleb128 0
	.uleb128 .LEHB50-.LFB9860
	.uleb128 .LEHE50-.LEHB50
	.uleb128 0
	.uleb128 0
.LLSDACSE9860:
	.section	.text._ZN4asio6detail18completion_handlerIZN7asiopal13IAsyncChannel8ShutdownEvEUlvE_E11do_completeEPNS0_15task_io_serviceEPNS0_25task_io_service_operationERKSt10error_codem,"axG",@progbits,_ZN4asio6detail18completion_handlerIZN7asiopal13IAsyncChannel8ShutdownEvEUlvE_E11do_completeEPNS0_15task_io_serviceEPNS0_25task_io_service_operationERKSt10error_codem,comdat
	.size	_ZN4asio6detail18completion_handlerIZN7asiopal13IAsyncChannel8ShutdownEvEUlvE_E11do_completeEPNS0_15task_io_serviceEPNS0_25task_io_service_operationERKSt10error_codem, .-_ZN4asio6detail18completion_handlerIZN7asiopal13IAsyncChannel8ShutdownEvEUlvE_E11do_completeEPNS0_15task_io_serviceEPNS0_25task_io_service_operationERKSt10error_codem
	.section	.text._ZN4asio6detail18completion_handlerIZN7asiopal13IAsyncChannel16CheckForShutdownESt10shared_ptrIS3_EEUlvE_E3ptr5resetEv,"axG",@progbits,_ZN4asio6detail18completion_handlerIZN7asiopal13IAsyncChannel16CheckForShutdownESt10shared_ptrIS3_EEUlvE_E3ptr5resetEv,comdat
	.align	2
	.p2align 4,,11
	.weak	_ZN4asio6detail18completion_handlerIZN7asiopal13IAsyncChannel16CheckForShutdownESt10shared_ptrIS3_EEUlvE_E3ptr5resetEv
	.type	_ZN4asio6detail18completion_handlerIZN7asiopal13IAsyncChannel16CheckForShutdownESt10shared_ptrIS3_EEUlvE_E3ptr5resetEv, %function
_ZN4asio6detail18completion_handlerIZN7asiopal13IAsyncChannel16CheckForShutdownESt10shared_ptrIS3_EEUlvE_E3ptr5resetEv:
.LFB9861:
	.cfi_startproc
	stp	x29, x30, [sp, -48]!
	.cfi_def_cfa_offset 48
	.cfi_offset 29, -48
	.cfi_offset 30, -40
	mov	x29, sp
	stp	x19, x20, [sp, 16]
	.cfi_offset 19, -32
	.cfi_offset 20, -24
	mov	x19, x0
	ldr	x0, [x0, 16]
	cbz	x0, .L1794
	ldr	x20, [x0, 32]
	cbz	x20, .L1796
	str	x21, [sp, 32]
	.cfi_offset 21, -16
	adrp	x21, :got:__libc_single_threaded
	ldr	x0, [x21, #:got_lo12:__libc_single_threaded]
	ldrb	w0, [x0]
	cbz	w0, .L1797
	ldr	w0, [x20, 8]
	sub	w1, w0, #1
	str	w1, [x20, 8]
.L1798:
	cmp	w0, 1
	beq	.L1820
.L1819:
	ldr	x21, [sp, 32]
	.cfi_restore 21
.L1796:
	str	xzr, [x19, 16]
.L1794:
	ldr	x20, [x19, 8]
	cbz	x20, .L1793
	adrp	x0, :got:_ZN4asio6detail10call_stackINS0_15task_io_serviceENS0_27task_io_service_thread_infoEE4top_E
	ldr	x0, [x0, #:got_lo12:_ZN4asio6detail10call_stackINS0_15task_io_serviceENS0_27task_io_service_thread_infoEE4top_E]
	ldr	w0, [x0]
	bl	pthread_getspecific
	cbz	x0, .L1803
	ldr	x0, [x0, 8]
	cbz	x0, .L1803
	ldr	x1, [x0]
	cbz	x1, .L1821
.L1803:
	mov	x0, x20
	bl	_ZdlPv
	str	xzr, [x19, 8]
.L1793:
	ldp	x19, x20, [sp, 16]
	ldp	x29, x30, [sp], 48
	.cfi_restore 30
	.cfi_restore 29
	.cfi_restore 19
	.cfi_restore 20
	.cfi_def_cfa_offset 0
	ret
	.p2align 2,,3
.L1820:
	.cfi_def_cfa_offset 48
	.cfi_offset 19, -32
	.cfi_offset 20, -24
	.cfi_offset 21, -16
	.cfi_offset 29, -48
	.cfi_offset 30, -40
	ldr	x1, [x20]
	mov	x0, x20
	ldr	x1, [x1, 16]
	blr	x1
	ldr	x21, [x21, #:got_lo12:__libc_single_threaded]
	ldrb	w0, [x21]
	cbz	w0, .L1800
	ldr	w0, [x20, 12]
	sub	w1, w0, #1
	str	w1, [x20, 12]
.L1801:
	cmp	w0, 1
	bne	.L1819
	ldr	x1, [x20]
	mov	x0, x20
	ldr	x1, [x1, 24]
	blr	x1
	ldr	x21, [sp, 32]
	.cfi_remember_state
	.cfi_restore 21
	b	.L1796
	.p2align 2,,3
.L1797:
	.cfi_restore_state
	add	x1, x20, 8
	mov	w0, -1
	bl	__aarch64_ldadd4_acq_rel
	b	.L1798
	.p2align 2,,3
.L1821:
	.cfi_restore 21
	ldrb	w1, [x20, 40]
	strb	w1, [x20]
	str	x20, [x0]
	str	xzr, [x19, 8]
	b	.L1793
	.p2align 2,,3
.L1800:
	.cfi_offset 21, -16
	add	x1, x20, 12
	mov	w0, -1
	bl	__aarch64_ldadd4_acq_rel
	b	.L1801
	.cfi_endproc
.LFE9861:
	.size	_ZN4asio6detail18completion_handlerIZN7asiopal13IAsyncChannel16CheckForShutdownESt10shared_ptrIS3_EEUlvE_E3ptr5resetEv, .-_ZN4asio6detail18completion_handlerIZN7asiopal13IAsyncChannel16CheckForShutdownESt10shared_ptrIS3_EEUlvE_E3ptr5resetEv
	.section	.text._ZN4asio6detail18completion_handlerIZN7asiopal13IAsyncChannel16CheckForShutdownESt10shared_ptrIS3_EEUlvE_E11do_completeEPNS0_15task_io_serviceEPNS0_25task_io_service_operationERKSt10error_codem,"axG",@progbits,_ZN4asio6detail18completion_handlerIZN7asiopal13IAsyncChannel16CheckForShutdownESt10shared_ptrIS3_EEUlvE_E11do_completeEPNS0_15task_io_serviceEPNS0_25task_io_service_operationERKSt10error_codem,comdat
	.align	2
	.p2align 4,,11
	.weak	_ZN4asio6detail18completion_handlerIZN7asiopal13IAsyncChannel16CheckForShutdownESt10shared_ptrIS3_EEUlvE_E11do_completeEPNS0_15task_io_serviceEPNS0_25task_io_service_operationERKSt10error_codem
	.type	_ZN4asio6detail18completion_handlerIZN7asiopal13IAsyncChannel16CheckForShutdownESt10shared_ptrIS3_EEUlvE_E11do_completeEPNS0_15task_io_serviceEPNS0_25task_io_service_operationERKSt10error_codem, %function
_ZN4asio6detail18completion_handlerIZN7asiopal13IAsyncChannel16CheckForShutdownESt10shared_ptrIS3_EEUlvE_E11do_completeEPNS0_15task_io_serviceEPNS0_25task_io_service_operationERKSt10error_codem:
.LFB9865:
	.cfi_startproc
	.cfi_personality 0x9b,DW.ref.__gxx_personality_v0
	.cfi_lsda 0x1b,.LLSDA9865
	stp	x29, x30, [sp, -192]!
	.cfi_def_cfa_offset 192
	.cfi_offset 29, -192
	.cfi_offset 30, -184
	adrp	x2, :got:__stack_chk_guard
	mov	x29, sp
	stp	x21, x22, [sp, 32]
	.cfi_offset 21, -160
	.cfi_offset 22, -152
	adrp	x21, :got:_ZN4asio6detail10call_stackINS0_15task_io_serviceENS0_27task_io_service_thread_infoEE4top_E
	stp	x19, x20, [sp, 16]
	.cfi_offset 19, -176
	.cfi_offset 20, -168
	mov	x19, x1
	mov	x20, x0
	ldr	x1, [x21, #:got_lo12:_ZN4asio6detail10call_stackINS0_15task_io_serviceENS0_27task_io_service_thread_infoEE4top_E]
	ldr	x2, [x2, #:got_lo12:__stack_chk_guard]
	ldr	w0, [x1]
	add	x1, sp, 128
	ldr	q0, [x19, 24]
	ldr	x3, [x2]
	str	x3, [sp, 184]
	mov	x3, 0
	stp	x1, x19, [sp, 160]
	str	q0, [sp, 128]
	str	xzr, [sp, 176]
	bl	pthread_getspecific
	cbz	x0, .L1823
	ldr	x0, [x0, 8]
	cbz	x0, .L1823
	ldr	x1, [x0]
	cbz	x1, .L1954
.L1823:
	mov	x0, x19
	bl	_ZdlPv
.L1824:
	str	xzr, [sp, 168]
	cbz	x20, .L1825
	stp	x23, x24, [sp, 48]
	.cfi_offset 24, -136
	.cfi_offset 23, -144
	add	x23, sp, 120
	mov	x1, x23
	mov	w0, 1
	str	x25, [sp, 64]
	.cfi_offset 25, -128
	str	wzr, [sp, 120]
	bl	__aarch64_swp4_sync
	ldp	x22, x20, [sp, 128]
	cbz	x20, .L1826
	adrp	x19, :got:__libc_single_threaded
	add	x25, x20, 8
	ldr	x0, [x19, #:got_lo12:__libc_single_threaded]
	ldrb	w0, [x0]
	cbz	w0, .L1827
	ldr	w0, [x20, 8]
	add	w0, w0, 1
	str	w0, [x20, 8]
.L1828:
	ldrb	w0, [x22, 57]
	cbnz	w0, .L1902
	ldrb	w0, [x22, 58]
	cbz	w0, .L1904
.L1902:
	ldr	x19, [x19, #:got_lo12:__libc_single_threaded]
	ldrb	w0, [x19]
	cbz	w0, .L1955
	ldr	w0, [x20, 8]
	ldr	x24, [x22, 24]
	add	w0, w0, 1
	str	w0, [x20, 8]
.L1829:
	ldr	w0, [x20, 8]
	add	w0, w0, 1
	str	w0, [x20, 8]
.L1831:
	ldr	x0, [x21, #:got_lo12:_ZN4asio6detail10call_stackINS0_15task_io_serviceENS0_27task_io_service_thread_infoEE4top_E]
	ldr	x25, [x24, 40]
	ldr	w0, [x0]
	bl	pthread_getspecific
	cbz	x0, .L1832
	ldr	x0, [x0, 8]
	cbz	x0, .L1832
	ldr	x19, [x0]
	cbz	x19, .L1832
	str	xzr, [x0]
	ldrb	w0, [x19]
	cmp	w0, 39
	bls	.L1833
	strb	w0, [x19, 40]
.L1834:
	adrp	x1, :got:_ZN4asio6detail18completion_handlerIZN7asiopal13IAsyncChannel16CheckForShutdownESt10shared_ptrIS3_EEUlvE_E11do_completeEPNS0_15task_io_serviceEPNS0_25task_io_service_operationERKSt10error_codem
	dup	v0.2d, x19
	ldr	x0, [x24, 48]
	str	wzr, [x19, 16]
	ldr	x1, [x1, #:got_lo12:_ZN4asio6detail18completion_handlerIZN7asiopal13IAsyncChannel16CheckForShutdownESt10shared_ptrIS3_EEUlvE_E11do_completeEPNS0_15task_io_serviceEPNS0_25task_io_service_operationERKSt10error_codem]
	stp	xzr, x1, [x19]
	add	x0, x0, 24
	stp	x22, x20, [x19, 24]
	str	q0, [sp, 80]
	bl	pthread_mutex_lock
	ldr	x0, [x24, 48]
	ldrb	w1, [x0, 72]
	cbz	w1, .L1835
	str	xzr, [x19]
	ldr	x3, [x0, 88]
	cbz	x3, .L1836
	str	x19, [x3]
	str	x19, [x0, 88]
.L1837:
	add	x0, x0, 24
	bl	pthread_mutex_unlock
.L1838:
	cbz	x20, .L1870
	adrp	x19, :got:__libc_single_threaded
	ldr	x0, [x19, #:got_lo12:__libc_single_threaded]
	ldrb	w0, [x0]
	cbz	w0, .L1859
	ldr	w0, [x20, 8]
	sub	w1, w0, #1
	str	w1, [x20, 8]
.L1860:
	cmp	w0, 1
	beq	.L1956
.L1858:
	cbz	x20, .L1870
	adrp	x19, :got:__libc_single_threaded
	ldr	x0, [x19, #:got_lo12:__libc_single_threaded]
	ldrb	w0, [x0]
	cbz	w0, .L1873
	ldr	w0, [x20, 8]
	sub	w1, w0, #1
	str	w1, [x20, 8]
.L1874:
	cmp	w0, 1
	beq	.L1957
.L1870:
	stlr	wzr, [x23]
	ldp	x23, x24, [sp, 48]
	.cfi_restore 24
	.cfi_restore 23
	ldr	x25, [sp, 64]
	.cfi_restore 25
.L1825:
	ldr	x20, [sp, 136]
	cbz	x20, .L1881
	adrp	x19, :got:__libc_single_threaded
	ldr	x0, [x19, #:got_lo12:__libc_single_threaded]
	ldrb	w0, [x0]
	cbz	w0, .L1882
	ldr	w0, [x20, 8]
	sub	w1, w0, #1
	str	w1, [x20, 8]
.L1883:
	cmp	w0, 1
	beq	.L1958
.L1881:
	ldr	x0, [sp, 176]
	cbz	x0, .L1887
	ldr	x20, [x0, 32]
	cbz	x20, .L1889
	adrp	x19, :got:__libc_single_threaded
	ldr	x0, [x19, #:got_lo12:__libc_single_threaded]
	ldrb	w0, [x0]
	cbz	w0, .L1890
	ldr	w0, [x20, 8]
	sub	w1, w0, #1
	str	w1, [x20, 8]
.L1891:
	cmp	w0, 1
	beq	.L1959
.L1889:
	str	xzr, [sp, 176]
.L1887:
	ldr	x19, [sp, 168]
	cbz	x19, .L1822
	ldr	x21, [x21, #:got_lo12:_ZN4asio6detail10call_stackINS0_15task_io_serviceENS0_27task_io_service_thread_infoEE4top_E]
	ldr	w0, [x21]
	bl	pthread_getspecific
	cbz	x0, .L1896
	ldr	x0, [x0, 8]
	cbz	x0, .L1896
	ldr	x1, [x0]
	cbz	x1, .L1960
.L1896:
	adrp	x0, :got:__stack_chk_guard
	ldr	x0, [x0, #:got_lo12:__stack_chk_guard]
	ldr	x2, [sp, 184]
	ldr	x1, [x0]
	subs	x2, x2, x1
	mov	x1, 0
	bne	.L1953
	mov	x0, x19
	ldp	x19, x20, [sp, 16]
	ldp	x21, x22, [sp, 32]
	ldp	x29, x30, [sp], 192
	.cfi_remember_state
	.cfi_restore 30
	.cfi_restore 29
	.cfi_restore 21
	.cfi_restore 22
	.cfi_restore 19
	.cfi_restore 20
	.cfi_def_cfa_offset 0
	b	_ZdlPv
	.p2align 2,,3
.L1960:
	.cfi_restore_state
	ldrb	w1, [x19, 40]
	strb	w1, [x19]
	str	x19, [x0]
	.p2align 3,,7
.L1822:
	adrp	x0, :got:__stack_chk_guard
	ldr	x0, [x0, #:got_lo12:__stack_chk_guard]
	ldr	x2, [sp, 184]
	ldr	x1, [x0]
	subs	x2, x2, x1
	mov	x1, 0
	bne	.L1953
	ldp	x19, x20, [sp, 16]
	ldp	x21, x22, [sp, 32]
	ldp	x29, x30, [sp], 192
	.cfi_remember_state
	.cfi_restore 30
	.cfi_restore 29
	.cfi_restore 21
	.cfi_restore 22
	.cfi_restore 19
	.cfi_restore 20
	.cfi_def_cfa_offset 0
	ret
	.p2align 2,,3
.L1959:
	.cfi_restore_state
	ldr	x1, [x20]
	mov	x0, x20
	ldr	x1, [x1, 16]
	blr	x1
	ldr	x19, [x19, #:got_lo12:__libc_single_threaded]
	ldrb	w0, [x19]
	cbz	w0, .L1893
	ldr	w0, [x20, 12]
	sub	w1, w0, #1
	str	w1, [x20, 12]
.L1894:
	cmp	w0, 1
	bne	.L1889
	ldr	x1, [x20]
	mov	x0, x20
	ldr	x1, [x1, 24]
	blr	x1
	b	.L1889
	.p2align 2,,3
.L1826:
	.cfi_offset 23, -144
	.cfi_offset 24, -136
	.cfi_offset 25, -128
	ldrb	w0, [x22, 57]
	cbnz	w0, .L1898
	ldrb	w0, [x22, 58]
	cbnz	w0, .L1898
.L1904:
	ldr	x24, [x22, 48]
	stp	xzr, xzr, [x22, 40]
	cbz	x24, .L1858
	adrp	x19, :got:__libc_single_threaded
	ldr	x0, [x19, #:got_lo12:__libc_single_threaded]
	ldrb	w0, [x0]
	cbz	w0, .L1864
	ldr	w0, [x24, 8]
	sub	w1, w0, #1
	str	w1, [x24, 8]
.L1865:
	cmp	w0, 1
	bne	.L1858
	ldr	x1, [x24]
	mov	x0, x24
	ldr	x1, [x1, 16]
	blr	x1
	ldr	x19, [x19, #:got_lo12:__libc_single_threaded]
	ldrb	w0, [x19]
	cbz	w0, .L1867
	ldr	w0, [x24, 12]
	sub	w1, w0, #1
	str	w1, [x24, 12]
.L1868:
	cmp	w0, 1
	bne	.L1858
	ldr	x1, [x24]
	mov	x0, x24
	ldr	x1, [x1, 24]
	blr	x1
	b	.L1858
	.p2align 2,,3
.L1955:
	mov	x1, x25
	mov	w0, 1
	bl	__aarch64_ldadd4_acq_rel
	ldrb	w0, [x19]
	ldr	x24, [x22, 24]
	cbnz	w0, .L1829
	mov	x1, x25
	mov	w0, 1
	bl	__aarch64_ldadd4_acq_rel
	b	.L1831
	.p2align 2,,3
.L1956:
	ldr	x1, [x20]
	mov	x0, x20
	ldr	x1, [x1, 16]
	blr	x1
	ldr	x19, [x19, #:got_lo12:__libc_single_threaded]
	ldrb	w0, [x19]
	cbz	w0, .L1862
	ldr	w0, [x20, 12]
	sub	w1, w0, #1
	str	w1, [x20, 12]
.L1863:
	cmp	w0, 1
	bne	.L1858
	ldr	x1, [x20]
	mov	x0, x20
	ldr	x1, [x1, 24]
	blr	x1
	b	.L1858
	.p2align 2,,3
.L1833:
	mov	x0, x19
	bl	_ZdlPv
.L1832:
	mov	x0, 41
.LEHB51:
	bl	_Znwm
.LEHE51:
	mov	w1, 40
	mov	x19, x0
	strb	w1, [x0, 40]
	b	.L1834
	.p2align 2,,3
.L1958:
	.cfi_restore 23
	.cfi_restore 24
	.cfi_restore 25
	ldr	x1, [x20]
	mov	x0, x20
	ldr	x1, [x1, 16]
	blr	x1
	ldr	x19, [x19, #:got_lo12:__libc_single_threaded]
	ldrb	w0, [x19]
	cbz	w0, .L1885
	ldr	w0, [x20, 12]
	sub	w1, w0, #1
	str	w1, [x20, 12]
.L1886:
	cmp	w0, 1
	bne	.L1881
	ldr	x1, [x20]
	mov	x0, x20
	ldr	x1, [x1, 24]
	blr	x1
	b	.L1881
	.p2align 2,,3
.L1882:
	add	x1, x20, 8
	mov	w0, -1
	bl	__aarch64_ldadd4_acq_rel
	b	.L1883
	.p2align 2,,3
.L1898:
	.cfi_offset 23, -144
	.cfi_offset 24, -136
	.cfi_offset 25, -128
	ldr	x24, [x22, 24]
	b	.L1831
	.p2align 2,,3
.L1890:
	.cfi_restore 23
	.cfi_restore 24
	.cfi_restore 25
	add	x1, x20, 8
	mov	w0, -1
	bl	__aarch64_ldadd4_acq_rel
	b	.L1891
	.p2align 2,,3
.L1827:
	.cfi_offset 23, -144
	.cfi_offset 24, -136
	.cfi_offset 25, -128
	mov	x1, x25
	mov	w0, 1
	bl	__aarch64_ldadd4_acq_rel
	b	.L1828
	.p2align 2,,3
.L1835:
	mov	w1, 1
	strb	w1, [x0, 72]
	add	x0, x0, 24
	bl	pthread_mutex_unlock
	ldr	x22, [x24, 48]
	dup	v0.2d, x22
	ldr	x1, [x22, 104]
	str	xzr, [x19]
	str	q0, [sp, 96]
	cbz	x1, .L1839
	str	x19, [x1]
	str	x19, [x22, 104]
.L1840:
	ldr	x19, [x25, 40]
	ldrb	w0, [x19, 40]
	cbnz	w0, .L1961
.L1841:
	add	x1, x19, 192
	add	x24, x19, 48
	mov	x0, 1
	bl	__aarch64_ldadd8_acq_rel
	mov	x0, x24
	bl	pthread_mutex_lock
	ldr	x1, [x19, 208]
	str	xzr, [x22]
	cbz	x1, .L1846
	str	x22, [x1]
	str	x22, [x19, 208]
.L1847:
	ldr	x1, [x19, 144]
	add	x22, x19, 96
	orr	x1, x1, 1
	str	x1, [x19, 144]
	cmp	x1, 1
	beq	.L1848
	mov	x0, x24
	bl	pthread_mutex_unlock
	mov	x0, x22
	bl	pthread_cond_signal
	b	.L1838
	.p2align 2,,3
.L1848:
	ldrb	w0, [x19, 184]
	cbnz	w0, .L1850
	ldr	x3, [x19, 152]
	cbz	x3, .L1850
	ldr	w2, [x3, 96]
	add	x4, x3, 96
	ldr	w0, [x3, 104]
	mov	w5, 9
	movk	w5, 0x8000, lsl 16
	strb	w1, [x19, 184]
	add	x3, sp, 144
	mov	w1, 3
	str	w5, [sp, 144]
	str	x4, [sp, 152]
	bl	epoll_ctl
.L1850:
	mov	x0, x24
	bl	pthread_mutex_unlock
	b	.L1838
	.p2align 2,,3
.L1957:
	ldr	x1, [x20]
	mov	x0, x20
	ldr	x1, [x1, 16]
	blr	x1
	ldr	x19, [x19, #:got_lo12:__libc_single_threaded]
	ldrb	w0, [x19]
	cbz	w0, .L1876
	ldr	w0, [x20, 12]
	sub	w1, w0, #1
	str	w1, [x20, 12]
.L1877:
	cmp	w0, 1
	bne	.L1870
	ldr	x1, [x20]
	mov	x0, x20
	ldr	x1, [x1, 24]
	blr	x1
	b	.L1870
	.p2align 2,,3
.L1873:
	add	x1, x20, 8
	mov	w0, -1
	bl	__aarch64_ldadd4_acq_rel
	b	.L1874
	.p2align 2,,3
.L1836:
	ldr	q0, [sp, 80]
	str	q0, [x0, 80]
	b	.L1837
	.p2align 2,,3
.L1954:
	.cfi_restore 23
	.cfi_restore 24
	.cfi_restore 25
	ldrb	w1, [x19, 40]
	strb	w1, [x19]
	str	x19, [x0]
	b	.L1824
	.p2align 2,,3
.L1859:
	.cfi_offset 23, -144
	.cfi_offset 24, -136
	.cfi_offset 25, -128
	add	x1, x20, 8
	mov	w0, -1
	bl	__aarch64_ldadd4_acq_rel
	b	.L1860
	.p2align 2,,3
.L1885:
	.cfi_restore 23
	.cfi_restore 24
	.cfi_restore 25
	add	x1, x20, 12
	mov	w0, -1
	bl	__aarch64_ldadd4_acq_rel
	b	.L1886
	.p2align 2,,3
.L1862:
	.cfi_offset 23, -144
	.cfi_offset 24, -136
	.cfi_offset 25, -128
	add	x1, x20, 12
	mov	w0, -1
	bl	__aarch64_ldadd4_acq_rel
	b	.L1863
	.p2align 2,,3
.L1893:
	.cfi_restore 23
	.cfi_restore 24
	.cfi_restore 25
	add	x1, x20, 12
	mov	w0, -1
	bl	__aarch64_ldadd4_acq_rel
	b	.L1894
	.p2align 2,,3
.L1961:
	.cfi_offset 23, -144
	.cfi_offset 24, -136
	.cfi_offset 25, -128
	ldr	x0, [x21, #:got_lo12:_ZN4asio6detail10call_stackINS0_15task_io_serviceENS0_27task_io_service_thread_infoEE4top_E]
	ldr	w0, [x0]
	bl	pthread_getspecific
	cbnz	x0, .L1844
	b	.L1841
	.p2align 2,,3
.L1842:
	ldr	x0, [x0, 16]
	cbz	x0, .L1841
.L1844:
	ldr	x1, [x0]
	cmp	x19, x1
	bne	.L1842
	ldr	x0, [x0, 8]
	cbz	x0, .L1841
	ldp	x3, x1, [x0, 16]
	add	x1, x1, 1
	str	x1, [x0, 24]
	str	xzr, [x22]
	ldr	x1, [x0, 16]
	cbz	x3, .L1845
	str	x22, [x1]
	str	x22, [x0, 16]
	b	.L1838
	.p2align 2,,3
.L1839:
	ldr	q0, [sp, 80]
	str	q0, [x22, 96]
	b	.L1840
	.p2align 2,,3
.L1876:
	add	x1, x20, 12
	mov	w0, -1
	bl	__aarch64_ldadd4_acq_rel
	b	.L1877
	.p2align 2,,3
.L1864:
	add	x1, x24, 8
	mov	w0, -1
	bl	__aarch64_ldadd4_acq_rel
	b	.L1865
	.p2align 2,,3
.L1846:
	ldr	q0, [sp, 96]
	str	q0, [x19, 200]
	b	.L1847
	.p2align 2,,3
.L1867:
	add	x1, x24, 12
	mov	w0, -1
	bl	__aarch64_ldadd4_acq_rel
	b	.L1868
.L1845:
	ldr	q0, [sp, 96]
	str	q0, [x0, 8]
	b	.L1838
.L1953:
	.cfi_restore 23
	.cfi_restore 24
	.cfi_restore 25
	stp	x23, x24, [sp, 48]
	.cfi_offset 24, -136
	.cfi_offset 23, -144
	str	x25, [sp, 64]
	.cfi_offset 25, -128
	bl	__stack_chk_fail
.L1906:
	mov	x19, x0
	cbz	x20, .L1872
	mov	x0, x20
	bl	_ZNSt16_Sp_counted_baseILN9__gnu_cxx12_Lock_policyE2EE10_M_releaseEv
	mov	x0, x20
	bl	_ZNSt16_Sp_counted_baseILN9__gnu_cxx12_Lock_policyE2EE10_M_releaseEv
	mov	x0, x20
	bl	_ZNSt16_Sp_counted_baseILN9__gnu_cxx12_Lock_policyE2EE10_M_releaseEv
.L1872:
	stlr	wzr, [x23]
	ldr	x0, [sp, 136]
	cbz	x0, .L1879
	bl	_ZNSt16_Sp_counted_baseILN9__gnu_cxx12_Lock_policyE2EE10_M_releaseEv
.L1879:
	add	x0, sp, 160
	bl	_ZN4asio6detail18completion_handlerIZN7asiopal13IAsyncChannel16CheckForShutdownESt10shared_ptrIS3_EEUlvE_E3ptr5resetEv
	mov	x0, x19
.LEHB52:
	bl	_Unwind_Resume
.LEHE52:
	.cfi_endproc
.LFE9865:
	.section	.gcc_except_table
.LLSDA9865:
	.byte	0xff
	.byte	0xff
	.byte	0x1
	.uleb128 .LLSDACSE9865-.LLSDACSB9865
.LLSDACSB9865:
	.uleb128 .LEHB51-.LFB9865
	.uleb128 .LEHE51-.LEHB51
	.uleb128 .L1906-.LFB9865
	.uleb128 0
	.uleb128 .LEHB52-.LFB9865
	.uleb128 .LEHE52-.LEHB52
	.uleb128 0
	.uleb128 0
.LLSDACSE9865:
	.section	.text._ZN4asio6detail18completion_handlerIZN7asiopal13IAsyncChannel16CheckForShutdownESt10shared_ptrIS3_EEUlvE_E11do_completeEPNS0_15task_io_serviceEPNS0_25task_io_service_operationERKSt10error_codem,"axG",@progbits,_ZN4asio6detail18completion_handlerIZN7asiopal13IAsyncChannel16CheckForShutdownESt10shared_ptrIS3_EEUlvE_E11do_completeEPNS0_15task_io_serviceEPNS0_25task_io_service_operationERKSt10error_codem,comdat
	.size	_ZN4asio6detail18completion_handlerIZN7asiopal13IAsyncChannel16CheckForShutdownESt10shared_ptrIS3_EEUlvE_E11do_completeEPNS0_15task_io_serviceEPNS0_25task_io_service_operationERKSt10error_codem, .-_ZN4asio6detail18completion_handlerIZN7asiopal13IAsyncChannel16CheckForShutdownESt10shared_ptrIS3_EEUlvE_E11do_completeEPNS0_15task_io_serviceEPNS0_25task_io_service_operationERKSt10error_codem
	.section	.text.startup,"ax",@progbits
	.align	2
	.p2align 4,,11
	.type	_GLOBAL__sub_I_LinkSession.cpp, %function
_GLOBAL__sub_I_LinkSession.cpp:
.LFB10682:
	.cfi_startproc
	stp	x29, x30, [sp, -32]!
	.cfi_def_cfa_offset 32
	.cfi_offset 29, -32
	.cfi_offset 30, -24
	mov	x29, sp
	str	x19, [sp, 16]
	.cfi_offset 19, -16
	adrp	x19, :got:_ZGVZN4asio15system_categoryEvE8instance
	ldr	x19, [x19, #:got_lo12:_ZGVZN4asio15system_categoryEvE8instance]
	ldar	x0, [x19]
	tbz	x0, 0, .L1993
.L1964:
	adrp	x19, :got:_ZGVZN4asio5error18get_netdb_categoryEvE8instance
	ldr	x19, [x19, #:got_lo12:_ZGVZN4asio5error18get_netdb_categoryEvE8instance]
	ldar	x0, [x19]
	tbz	x0, 0, .L1994
.L1967:
	adrp	x19, :got:_ZGVZN4asio5error21get_addrinfo_categoryEvE8instance
	ldr	x19, [x19, #:got_lo12:_ZGVZN4asio5error21get_addrinfo_categoryEvE8instance]
	ldar	x0, [x19]
	tbz	x0, 0, .L1995
.L1970:
	adrp	x19, :got:_ZGVZN4asio5error17get_misc_categoryEvE8instance
	ldr	x19, [x19, #:got_lo12:_ZGVZN4asio5error17get_misc_categoryEvE8instance]
	ldar	x0, [x19]
	tbz	x0, 0, .L1996
.L1973:
	mov	x0, 5000
	bl	_ZN7openpal12TimeDuration12MillisecondsEl
	adrp	x2, :got:_ZGVN4asio6detail10call_stackINS0_15task_io_serviceENS0_27task_io_service_thread_infoEE4top_E
	ldr	x2, [x2, #:got_lo12:_ZGVN4asio6detail10call_stackINS0_15task_io_serviceENS0_27task_io_service_thread_infoEE4top_E]
	ldr	x0, [x2]
	tbz	x0, 0, .L1997
.L1975:
	adrp	x3, :got:_ZGVN4asio6detail12service_baseINS0_13epoll_reactorEE2idE
	ldr	x3, [x3, #:got_lo12:_ZGVN4asio6detail12service_baseINS0_13epoll_reactorEE2idE]
	ldr	x0, [x3]
	tbz	x0, 0, .L1998
.L1976:
	adrp	x3, :got:_ZGVN4asio6detail12service_baseINS0_15task_io_serviceEE2idE
	ldr	x3, [x3, #:got_lo12:_ZGVN4asio6detail12service_baseINS0_15task_io_serviceEE2idE]
	ldr	x0, [x3]
	tbz	x0, 0, .L1999
.L1977:
	adrp	x2, :got:_ZGVN4asio6detail10call_stackINS0_14strand_service11strand_implEhE4top_E
	ldr	x2, [x2, #:got_lo12:_ZGVN4asio6detail10call_stackINS0_14strand_service11strand_implEhE4top_E]
	ldr	x0, [x2]
	tbz	x0, 0, .L2000
.L1978:
	adrp	x3, :got:_ZGVN4asio6detail12service_baseINS0_14strand_serviceEE2idE
	ldr	x3, [x3, #:got_lo12:_ZGVN4asio6detail12service_baseINS0_14strand_serviceEE2idE]
	ldr	x0, [x3]
	tbz	x0, 0, .L2001
	ldr	x19, [sp, 16]
	ldp	x29, x30, [sp], 32
	.cfi_remember_state
	.cfi_restore 30
	.cfi_restore 29
	.cfi_restore 19
	.cfi_def_cfa_offset 0
	ret
.L1993:
	.cfi_restore_state
	mov	x0, x19
	bl	__cxa_guard_acquire
	cbz	w0, .L1964
	adrp	x1, :got:_ZZN4asio15system_categoryEvE8instance
	adrp	x0, :got:_ZN4asio6detail15system_categoryD1Ev
	adrp	x2, __dso_handle
	add	x2, x2, :lo12:__dso_handle
	ldr	x1, [x1, #:got_lo12:_ZZN4asio15system_categoryEvE8instance]
	ldr	x0, [x0, #:got_lo12:_ZN4asio6detail15system_categoryD1Ev]
	bl	__cxa_atexit
	mov	x0, x19
	bl	__cxa_guard_release
	b	.L1964
.L2001:
	mov	x4, 1
	adrp	x1, :got:_ZN4asio6detail12service_baseINS0_14strand_serviceEE2idE
	ldr	x19, [sp, 16]
	str	x4, [x3]
	adrp	x0, :got:_ZN4asio6detail10service_idINS0_14strand_serviceEED1Ev
	adrp	x2, __dso_handle
	ldp	x29, x30, [sp], 32
	.cfi_remember_state
	.cfi_restore 30
	.cfi_restore 29
	.cfi_restore 19
	.cfi_def_cfa_offset 0
	add	x2, x2, :lo12:__dso_handle
	ldr	x1, [x1, #:got_lo12:_ZN4asio6detail12service_baseINS0_14strand_serviceEE2idE]
	ldr	x0, [x0, #:got_lo12:_ZN4asio6detail10service_idINS0_14strand_serviceEED1Ev]
	b	__cxa_atexit
.L2000:
	.cfi_restore_state
	adrp	x19, :got:_ZN4asio6detail10call_stackINS0_14strand_service11strand_implEhE4top_E
	mov	x0, 1
	str	x0, [x2]
	ldr	x19, [x19, #:got_lo12:_ZN4asio6detail10call_stackINS0_14strand_service11strand_implEhE4top_E]
	mov	x0, x19
	bl	_ZN4asio6detail20posix_tss_ptr_createERj
	adrp	x0, :got:_ZN4asio6detail7tss_ptrINS0_10call_stackINS0_14strand_service11strand_implEhE7contextEED1Ev
	mov	x1, x19
	adrp	x2, __dso_handle
	add	x2, x2, :lo12:__dso_handle
	ldr	x0, [x0, #:got_lo12:_ZN4asio6detail7tss_ptrINS0_10call_stackINS0_14strand_service11strand_implEhE7contextEED1Ev]
	bl	__cxa_atexit
	b	.L1978
.L1999:
	adrp	x1, :got:_ZN4asio6detail12service_baseINS0_15task_io_serviceEE2idE
	adrp	x0, :got:_ZN4asio6detail10service_idINS0_15task_io_serviceEED1Ev
	mov	x4, 1
	adrp	x2, __dso_handle
	ldr	x1, [x1, #:got_lo12:_ZN4asio6detail12service_baseINS0_15task_io_serviceEE2idE]
	add	x2, x2, :lo12:__dso_handle
	ldr	x0, [x0, #:got_lo12:_ZN4asio6detail10service_idINS0_15task_io_serviceEED1Ev]
	str	x4, [x3]
	bl	__cxa_atexit
	b	.L1977
.L1998:
	adrp	x1, :got:_ZN4asio6detail12service_baseINS0_13epoll_reactorEE2idE
	adrp	x0, :got:_ZN4asio6detail10service_idINS0_13epoll_reactorEED1Ev
	mov	x4, 1
	adrp	x2, __dso_handle
	ldr	x1, [x1, #:got_lo12:_ZN4asio6detail12service_baseINS0_13epoll_reactorEE2idE]
	add	x2, x2, :lo12:__dso_handle
	ldr	x0, [x0, #:got_lo12:_ZN4asio6detail10service_idINS0_13epoll_reactorEED1Ev]
	str	x4, [x3]
	bl	__cxa_atexit
	b	.L1976
.L1997:
	adrp	x19, :got:_ZN4asio6detail10call_stackINS0_15task_io_serviceENS0_27task_io_service_thread_infoEE4top_E
	mov	x0, 1
	str	x0, [x2]
	ldr	x19, [x19, #:got_lo12:_ZN4asio6detail10call_stackINS0_15task_io_serviceENS0_27task_io_service_thread_infoEE4top_E]
	mov	x0, x19
	bl	_ZN4asio6detail20posix_tss_ptr_createERj
	adrp	x0, :got:_ZN4asio6detail7tss_ptrINS0_10call_stackINS0_15task_io_serviceENS0_27task_io_service_thread_infoEE7contextEED1Ev
	mov	x1, x19
	adrp	x2, __dso_handle
	add	x2, x2, :lo12:__dso_handle
	ldr	x0, [x0, #:got_lo12:_ZN4asio6detail7tss_ptrINS0_10call_stackINS0_15task_io_serviceENS0_27task_io_service_thread_infoEE7contextEED1Ev]
	bl	__cxa_atexit
	b	.L1975
.L1996:
	mov	x0, x19
	bl	__cxa_guard_acquire
	cbz	w0, .L1973
	adrp	x1, :got:_ZZN4asio5error17get_misc_categoryEvE8instance
	adrp	x0, :got:_ZN4asio5error6detail13misc_categoryD1Ev
	adrp	x2, __dso_handle
	add	x2, x2, :lo12:__dso_handle
	ldr	x1, [x1, #:got_lo12:_ZZN4asio5error17get_misc_categoryEvE8instance]
	ldr	x0, [x0, #:got_lo12:_ZN4asio5error6detail13misc_categoryD1Ev]
	bl	__cxa_atexit
	mov	x0, x19
	bl	__cxa_guard_release
	b	.L1973
.L1995:
	mov	x0, x19
	bl	__cxa_guard_acquire
	cbz	w0, .L1970
	adrp	x1, :got:_ZZN4asio5error21get_addrinfo_categoryEvE8instance
	adrp	x0, :got:_ZN4asio5error6detail17addrinfo_categoryD1Ev
	adrp	x2, __dso_handle
	add	x2, x2, :lo12:__dso_handle
	ldr	x1, [x1, #:got_lo12:_ZZN4asio5error21get_addrinfo_categoryEvE8instance]
	ldr	x0, [x0, #:got_lo12:_ZN4asio5error6detail17addrinfo_categoryD1Ev]
	bl	__cxa_atexit
	mov	x0, x19
	bl	__cxa_guard_release
	b	.L1970
.L1994:
	mov	x0, x19
	bl	__cxa_guard_acquire
	cbz	w0, .L1967
	adrp	x1, :got:_ZZN4asio5error18get_netdb_categoryEvE8instance
	adrp	x0, :got:_ZN4asio5error6detail14netdb_categoryD1Ev
	adrp	x2, __dso_handle
	add	x2, x2, :lo12:__dso_handle
	ldr	x1, [x1, #:got_lo12:_ZZN4asio5error18get_netdb_categoryEvE8instance]
	ldr	x0, [x0, #:got_lo12:_ZN4asio5error6detail14netdb_categoryD1Ev]
	bl	__cxa_atexit
	mov	x0, x19
	bl	__cxa_guard_release
	b	.L1967
	.cfi_endproc
.LFE10682:
	.size	_GLOBAL__sub_I_LinkSession.cpp, .-_GLOBAL__sub_I_LinkSession.cpp
	.section	.init_array,"aw"
	.align	3
	.xword	_GLOBAL__sub_I_LinkSession.cpp
	.weak	_ZTSN7openpal10UncopyableE
	.section	.rodata._ZTSN7openpal10UncopyableE,"aG",@progbits,_ZTSN7openpal10UncopyableE,comdat
	.align	3
	.type	_ZTSN7openpal10UncopyableE, %object
	.size	_ZTSN7openpal10UncopyableE, 23
_ZTSN7openpal10UncopyableE:
	.string	"N7openpal10UncopyableE"
	.weak	_ZTIN7openpal10UncopyableE
	.section	.data.rel.ro._ZTIN7openpal10UncopyableE,"awG",@progbits,_ZTIN7openpal10UncopyableE,comdat
	.align	3
	.type	_ZTIN7openpal10UncopyableE, %object
	.size	_ZTIN7openpal10UncopyableE, 16
_ZTIN7openpal10UncopyableE:
	.xword	_ZTVN10__cxxabiv117__class_type_infoE+16
	.xword	_ZTSN7openpal10UncopyableE
	.weak	_ZTSSt23enable_shared_from_thisIN8asiodnp311LinkSessionEE
	.section	.rodata._ZTSSt23enable_shared_from_thisIN8asiodnp311LinkSessionEE,"aG",@progbits,_ZTSSt23enable_shared_from_thisIN8asiodnp311LinkSessionEE,comdat
	.align	3
	.type	_ZTSSt23enable_shared_from_thisIN8asiodnp311LinkSessionEE, %object
	.size	_ZTSSt23enable_shared_from_thisIN8asiodnp311LinkSessionEE, 54
_ZTSSt23enable_shared_from_thisIN8asiodnp311LinkSessionEE:
	.string	"St23enable_shared_from_thisIN8asiodnp311LinkSessionEE"
	.weak	_ZTISt23enable_shared_from_thisIN8asiodnp311LinkSessionEE
	.section	.data.rel.ro._ZTISt23enable_shared_from_thisIN8asiodnp311LinkSessionEE,"awG",@progbits,_ZTISt23enable_shared_from_thisIN8asiodnp311LinkSessionEE,comdat
	.align	3
	.type	_ZTISt23enable_shared_from_thisIN8asiodnp311LinkSessionEE, %object
	.size	_ZTISt23enable_shared_from_thisIN8asiodnp311LinkSessionEE, 16
_ZTISt23enable_shared_from_thisIN8asiodnp311LinkSessionEE:
	.xword	_ZTVN10__cxxabiv117__class_type_infoE+16
	.xword	_ZTSSt23enable_shared_from_thisIN8asiodnp311LinkSessionEE
	.weak	_ZGVN4asio6detail12service_baseINS0_14strand_serviceEE2idE
	.section	.bss._ZGVN4asio6detail12service_baseINS0_14strand_serviceEE2idE,"awG",@nobits,_ZGVN4asio6detail12service_baseINS0_14strand_serviceEE2idE,comdat
	.align	3
	.type	_ZGVN4asio6detail12service_baseINS0_14strand_serviceEE2idE, %gnu_unique_object
	.size	_ZGVN4asio6detail12service_baseINS0_14strand_serviceEE2idE, 8
_ZGVN4asio6detail12service_baseINS0_14strand_serviceEE2idE:
	.zero	8
	.weak	_ZGVN4asio6detail10call_stackINS0_14strand_service11strand_implEhE4top_E
