	.arch armv8-a
	.file	"MasterSessionStack.cpp"
	.text
	.section	.rodata._ZNK4asio6detail15system_category4nameEv.str1.8,"aMS",@progbits,1
	.align	3
.LC0:
	.string	"asio.system"
	.section	.text._ZNK4asio6detail15system_category4nameEv,"axG",@progbits,_ZNK4asio6detail15system_category4nameEv,comdat
	.align	2
	.p2align 4,,11
	.weak	_ZNK4asio6detail15system_category4nameEv
	.type	_ZNK4asio6detail15system_category4nameEv, %function
_ZNK4asio6detail15system_category4nameEv:
.LFB3345:
	.cfi_startproc
	adrp	x0, .LC0
	add	x0, x0, :lo12:.LC0
	ret
	.cfi_endproc
.LFE3345:
	.size	_ZNK4asio6detail15system_category4nameEv, .-_ZNK4asio6detail15system_category4nameEv
	.section	.rodata._ZNK4asio5error6detail14netdb_category4nameEv.str1.8,"aMS",@progbits,1
	.align	3
.LC1:
	.string	"asio.netdb"
	.section	.text._ZNK4asio5error6detail14netdb_category4nameEv,"axG",@progbits,_ZNK4asio5error6detail14netdb_category4nameEv,comdat
	.align	2
	.p2align 4,,11
	.weak	_ZNK4asio5error6detail14netdb_category4nameEv
	.type	_ZNK4asio5error6detail14netdb_category4nameEv, %function
_ZNK4asio5error6detail14netdb_category4nameEv:
.LFB3366:
	.cfi_startproc
	adrp	x0, .LC1
	add	x0, x0, :lo12:.LC1
	ret
	.cfi_endproc
.LFE3366:
	.size	_ZNK4asio5error6detail14netdb_category4nameEv, .-_ZNK4asio5error6detail14netdb_category4nameEv
	.section	.rodata._ZNK4asio5error6detail17addrinfo_category4nameEv.str1.8,"aMS",@progbits,1
	.align	3
.LC2:
	.string	"asio.addrinfo"
	.section	.text._ZNK4asio5error6detail17addrinfo_category4nameEv,"axG",@progbits,_ZNK4asio5error6detail17addrinfo_category4nameEv,comdat
	.align	2
	.p2align 4,,11
	.weak	_ZNK4asio5error6detail17addrinfo_category4nameEv
	.type	_ZNK4asio5error6detail17addrinfo_category4nameEv, %function
_ZNK4asio5error6detail17addrinfo_category4nameEv:
.LFB3372:
	.cfi_startproc
	adrp	x0, .LC2
	add	x0, x0, :lo12:.LC2
	ret
	.cfi_endproc
.LFE3372:
	.size	_ZNK4asio5error6detail17addrinfo_category4nameEv, .-_ZNK4asio5error6detail17addrinfo_category4nameEv
	.section	.rodata._ZNK4asio5error6detail13misc_category4nameEv.str1.8,"aMS",@progbits,1
	.align	3
.LC3:
	.string	"asio.misc"
	.section	.text._ZNK4asio5error6detail13misc_category4nameEv,"axG",@progbits,_ZNK4asio5error6detail13misc_category4nameEv,comdat
	.align	2
	.p2align 4,,11
	.weak	_ZNK4asio5error6detail13misc_category4nameEv
	.type	_ZNK4asio5error6detail13misc_category4nameEv, %function
_ZNK4asio5error6detail13misc_category4nameEv:
.LFB3378:
	.cfi_startproc
	adrp	x0, .LC3
	add	x0, x0, :lo12:.LC3
	ret
	.cfi_endproc
.LFE3378:
	.size	_ZNK4asio5error6detail13misc_category4nameEv, .-_ZNK4asio5error6detail13misc_category4nameEv
	.section	.text._ZNSt13__future_base13_State_baseV217_M_complete_asyncEv,"axG",@progbits,_ZNSt13__future_base13_State_baseV217_M_complete_asyncEv,comdat
	.align	2
	.p2align 4,,11
	.weak	_ZNSt13__future_base13_State_baseV217_M_complete_asyncEv
	.type	_ZNSt13__future_base13_State_baseV217_M_complete_asyncEv, %function
_ZNSt13__future_base13_State_baseV217_M_complete_asyncEv:
.LFB7507:
	.cfi_startproc
	ret
	.cfi_endproc
.LFE7507:
	.size	_ZNSt13__future_base13_State_baseV217_M_complete_asyncEv, .-_ZNSt13__future_base13_State_baseV217_M_complete_asyncEv
	.section	.text._ZNKSt13__future_base13_State_baseV221_M_is_deferred_futureEv,"axG",@progbits,_ZNKSt13__future_base13_State_baseV221_M_is_deferred_futureEv,comdat
	.align	2
	.p2align 4,,11
	.weak	_ZNKSt13__future_base13_State_baseV221_M_is_deferred_futureEv
	.type	_ZNKSt13__future_base13_State_baseV221_M_is_deferred_futureEv, %function
_ZNKSt13__future_base13_State_baseV221_M_is_deferred_futureEv:
.LFB7508:
	.cfi_startproc
	mov	w0, 0
	ret
	.cfi_endproc
.LFE7508:
	.size	_ZNKSt13__future_base13_State_baseV221_M_is_deferred_futureEv, .-_ZNKSt13__future_base13_State_baseV221_M_is_deferred_futureEv
	.section	.text._ZZNSt9once_flag18_Prepare_executionC4IZSt9call_onceIMNSt13__future_base13_State_baseV2EFvPSt8functionIFSt10unique_ptrINS3_12_Result_baseENS7_8_DeleterEEvEEPbEJPS4_SC_SD_EEvRS_OT_DpOT0_EUlvE_EERSI_ENUlvE_4_FUNEv,"axG",@progbits,_ZZNSt9once_flag18_Prepare_executionC4IZSt9call_onceIMNSt13__future_base13_State_baseV2EFvPSt8functionIFSt10unique_ptrINS3_12_Result_baseENS7_8_DeleterEEvEEPbEJPS4_SC_SD_EEvRS_OT_DpOT0_EUlvE_EERSI_ENUlvE_4_FUNEv,comdat
	.align	2
	.p2align 4,,11
	.weak	_ZZNSt9once_flag18_Prepare_executionC4IZSt9call_onceIMNSt13__future_base13_State_baseV2EFvPSt8functionIFSt10unique_ptrINS3_12_Result_baseENS7_8_DeleterEEvEEPbEJPS4_SC_SD_EEvRS_OT_DpOT0_EUlvE_EERSI_ENUlvE_4_FUNEv
	.type	_ZZNSt9once_flag18_Prepare_executionC4IZSt9call_onceIMNSt13__future_base13_State_baseV2EFvPSt8functionIFSt10unique_ptrINS3_12_Result_baseENS7_8_DeleterEEvEEPbEJPS4_SC_SD_EEvRS_OT_DpOT0_EUlvE_EERSI_ENUlvE_4_FUNEv, %function
_ZZNSt9once_flag18_Prepare_executionC4IZSt9call_onceIMNSt13__future_base13_State_baseV2EFvPSt8functionIFSt10unique_ptrINS3_12_Result_baseENS7_8_DeleterEEvEEPbEJPS4_SC_SD_EEvRS_OT_DpOT0_EUlvE_EERSI_ENUlvE_4_FUNEv:
.LFB9507:
	.cfi_startproc
	mrs	x1, tpidr_el0
	stp	x29, x30, [sp, -16]!
	.cfi_def_cfa_offset 16
	.cfi_offset 29, -16
	.cfi_offset 30, -8
	mov	x29, sp
	adrp	x0, :tlsdesc:_ZSt15__once_callable
	ldr	x2, [x0, #:tlsdesc_lo12:_ZSt15__once_callable]
	add	x0, x0, :tlsdesc_lo12:_ZSt15__once_callable
	.tlsdesccall	_ZSt15__once_callable
	blr	x2
	ldr	x1, [x1, x0]
	ldp	x3, x0, [x1]
	ldp	x6, x1, [x1, 16]
	ldr	x2, [x3, 8]
	ldr	x5, [x0]
	asr	x4, x2, 1
	add	x0, x5, x4
	ldr	x3, [x3]
	tbz	x2, 0, .L9
	ldr	x2, [x5, x4]
	ldr	x3, [x2, x3]
.L9:
	mov	x16, x3
	ldp	x29, x30, [sp], 16
	.cfi_restore 30
	.cfi_restore 29
	.cfi_def_cfa_offset 0
	ldr	x2, [x1]
	ldr	x1, [x6]
	br	x16
	.cfi_endproc
.LFE9507:
	.size	_ZZNSt9once_flag18_Prepare_executionC4IZSt9call_onceIMNSt13__future_base13_State_baseV2EFvPSt8functionIFSt10unique_ptrINS3_12_Result_baseENS7_8_DeleterEEvEEPbEJPS4_SC_SD_EEvRS_OT_DpOT0_EUlvE_EERSI_ENUlvE_4_FUNEv, .-_ZZNSt9once_flag18_Prepare_executionC4IZSt9call_onceIMNSt13__future_base13_State_baseV2EFvPSt8functionIFSt10unique_ptrINS3_12_Result_baseENS7_8_DeleterEEvEEPbEJPS4_SC_SD_EEvRS_OT_DpOT0_EUlvE_EERSI_ENUlvE_4_FUNEv
	.section	.text._ZNSt15__exception_ptr12__dest_thunkISt12future_errorEEvPv,"axG",@progbits,_ZNSt15__exception_ptr12__dest_thunkISt12future_errorEEvPv,comdat
	.align	2
	.p2align 4,,11
	.weak	_ZNSt15__exception_ptr12__dest_thunkISt12future_errorEEvPv
	.type	_ZNSt15__exception_ptr12__dest_thunkISt12future_errorEEvPv, %function
_ZNSt15__exception_ptr12__dest_thunkISt12future_errorEEvPv:
.LFB9527:
	.cfi_startproc
	ldr	x1, [x0]
	ldr	x1, [x1]
	mov	x16, x1
	br	x16
	.cfi_endproc
.LFE9527:
	.size	_ZNSt15__exception_ptr12__dest_thunkISt12future_errorEEvPv, .-_ZNSt15__exception_ptr12__dest_thunkISt12future_errorEEvPv
	.section	.text._ZNSt17_Function_handlerIFSt10unique_ptrINSt13__future_base12_Result_baseENS2_8_DeleterEEvENS1_13_State_baseV27_SetterIN8opendnp315StackStatisticsEOS9_EEE9_M_invokeERKSt9_Any_data,"axG",@progbits,_ZNSt17_Function_handlerIFSt10unique_ptrINSt13__future_base12_Result_baseENS2_8_DeleterEEvENS1_13_State_baseV27_SetterIN8opendnp315StackStatisticsEOS9_EEE9_M_invokeERKSt9_Any_data,comdat
	.align	2
	.p2align 4,,11
	.weak	_ZNSt17_Function_handlerIFSt10unique_ptrINSt13__future_base12_Result_baseENS2_8_DeleterEEvENS1_13_State_baseV27_SetterIN8opendnp315StackStatisticsEOS9_EEE9_M_invokeERKSt9_Any_data
	.type	_ZNSt17_Function_handlerIFSt10unique_ptrINSt13__future_base12_Result_baseENS2_8_DeleterEEvENS1_13_State_baseV27_SetterIN8opendnp315StackStatisticsEOS9_EEE9_M_invokeERKSt9_Any_data, %function
_ZNSt17_Function_handlerIFSt10unique_ptrINSt13__future_base12_Result_baseENS2_8_DeleterEEvENS1_13_State_baseV27_SetterIN8opendnp315StackStatisticsEOS9_EEE9_M_invokeERKSt9_Any_data:
.LFB10628:
	.cfi_startproc
	mov	x1, x0
	mov	w5, 1
	mov	x0, x8
	ldp	x4, x3, [x1]
	ldr	x1, [x4, 16]
	ldp	q0, q1, [x3]
	add	x2, x1, 16
	stp	q0, q1, [x2]
	ldr	x3, [x3, 32]
	str	x3, [x2, 32]
	strb	w5, [x1, 56]
	str	xzr, [x4, 16]
	str	x1, [x8]
	ret
	.cfi_endproc
.LFE10628:
	.size	_ZNSt17_Function_handlerIFSt10unique_ptrINSt13__future_base12_Result_baseENS2_8_DeleterEEvENS1_13_State_baseV27_SetterIN8opendnp315StackStatisticsEOS9_EEE9_M_invokeERKSt9_Any_data, .-_ZNSt17_Function_handlerIFSt10unique_ptrINSt13__future_base12_Result_baseENS2_8_DeleterEEvENS1_13_State_baseV27_SetterIN8opendnp315StackStatisticsEOS9_EEE9_M_invokeERKSt9_Any_data
	.section	.text._ZNSt17_Function_handlerIFSt10unique_ptrINSt13__future_base12_Result_baseENS2_8_DeleterEEvENS1_13_State_baseV27_SetterISt10shared_ptrIN8opendnp311IMasterTaskEEOSB_EEE9_M_invokeERKSt9_Any_data,"axG",@progbits,_ZNSt17_Function_handlerIFSt10unique_ptrINSt13__future_base12_Result_baseENS2_8_DeleterEEvENS1_13_State_baseV27_SetterISt10shared_ptrIN8opendnp311IMasterTaskEEOSB_EEE9_M_invokeERKSt9_Any_data,comdat
	.align	2
	.p2align 4,,11
	.weak	_ZNSt17_Function_handlerIFSt10unique_ptrINSt13__future_base12_Result_baseENS2_8_DeleterEEvENS1_13_State_baseV27_SetterISt10shared_ptrIN8opendnp311IMasterTaskEEOSB_EEE9_M_invokeERKSt9_Any_data
	.type	_ZNSt17_Function_handlerIFSt10unique_ptrINSt13__future_base12_Result_baseENS2_8_DeleterEEvENS1_13_State_baseV27_SetterISt10shared_ptrIN8opendnp311IMasterTaskEEOSB_EEE9_M_invokeERKSt9_Any_data, %function
_ZNSt17_Function_handlerIFSt10unique_ptrINSt13__future_base12_Result_baseENS2_8_DeleterEEvENS1_13_State_baseV27_SetterISt10shared_ptrIN8opendnp311IMasterTaskEEOSB_EEE9_M_invokeERKSt9_Any_data:
.LFB10662:
	.cfi_startproc
	mov	x1, x0
	mov	w4, 1
	mov	x0, x8
	ldp	x3, x2, [x1]
	ldr	x1, [x3, 16]
	ldr	x5, [x2]
	stp	x5, xzr, [x1, 16]
	ldr	x5, [x2, 8]
	stp	xzr, xzr, [x2]
	str	x5, [x1, 24]
	strb	w4, [x1, 32]
	str	xzr, [x3, 16]
	str	x1, [x8]
	ret
	.cfi_endproc
.LFE10662:
	.size	_ZNSt17_Function_handlerIFSt10unique_ptrINSt13__future_base12_Result_baseENS2_8_DeleterEEvENS1_13_State_baseV27_SetterISt10shared_ptrIN8opendnp311IMasterTaskEEOSB_EEE9_M_invokeERKSt9_Any_data, .-_ZNSt17_Function_handlerIFSt10unique_ptrINSt13__future_base12_Result_baseENS2_8_DeleterEEvENS1_13_State_baseV27_SetterISt10shared_ptrIN8opendnp311IMasterTaskEEOSB_EEE9_M_invokeERKSt9_Any_data
	.section	.text._ZNSt13__future_base13_State_baseV2D2Ev,"axG",@progbits,_ZNSt13__future_base13_State_baseV2D5Ev,comdat
	.align	2
	.p2align 4,,11
	.weak	_ZNSt13__future_base13_State_baseV2D2Ev
	.type	_ZNSt13__future_base13_State_baseV2D2Ev, %function
_ZNSt13__future_base13_State_baseV2D2Ev:
.LFB11622:
	.cfi_startproc
	.cfi_personality 0x9b,DW.ref.__gxx_personality_v0
	.cfi_lsda 0x1b,.LLSDA11622
	adrp	x1, :got:_ZTVNSt13__future_base13_State_baseV2E
	mov	x2, x0
	ldr	x0, [x0, 8]
	ldr	x1, [x1, #:got_lo12:_ZTVNSt13__future_base13_State_baseV2E]
	add	x1, x1, 16
	str	x1, [x2]
	cbz	x0, .L23
	stp	x29, x30, [sp, -16]!
	.cfi_def_cfa_offset 16
	.cfi_offset 29, -16
	.cfi_offset 30, -8
	mov	x29, sp
	ldr	x1, [x0]
	ldr	x1, [x1]
	blr	x1
	ldp	x29, x30, [sp], 16
	.cfi_restore 30
	.cfi_restore 29
	.cfi_def_cfa_offset 0
	ret
	.p2align 2,,3
.L23:
	ret
	.cfi_endproc
.LFE11622:
	.global	__gxx_personality_v0
	.section	.gcc_except_table._ZNSt13__future_base13_State_baseV2D2Ev,"aG",@progbits,_ZNSt13__future_base13_State_baseV2D5Ev,comdat
.LLSDA11622:
	.byte	0xff
	.byte	0xff
	.byte	0x1
	.uleb128 .LLSDACSE11622-.LLSDACSB11622
.LLSDACSB11622:
.LLSDACSE11622:
	.section	.text._ZNSt13__future_base13_State_baseV2D2Ev,"axG",@progbits,_ZNSt13__future_base13_State_baseV2D5Ev,comdat
	.size	_ZNSt13__future_base13_State_baseV2D2Ev, .-_ZNSt13__future_base13_State_baseV2D2Ev
	.weak	_ZNSt13__future_base13_State_baseV2D1Ev
	.set	_ZNSt13__future_base13_State_baseV2D1Ev,_ZNSt13__future_base13_State_baseV2D2Ev
	.section	.text._ZN4asio6detail10service_idINS0_13epoll_reactorEED2Ev,"axG",@progbits,_ZN4asio6detail10service_idINS0_13epoll_reactorEED5Ev,comdat
	.align	2
	.p2align 4,,11
	.weak	_ZN4asio6detail10service_idINS0_13epoll_reactorEED2Ev
	.type	_ZN4asio6detail10service_idINS0_13epoll_reactorEED2Ev, %function
_ZN4asio6detail10service_idINS0_13epoll_reactorEED2Ev:
.LFB11690:
	.cfi_startproc
	ret
	.cfi_endproc
.LFE11690:
	.size	_ZN4asio6detail10service_idINS0_13epoll_reactorEED2Ev, .-_ZN4asio6detail10service_idINS0_13epoll_reactorEED2Ev
	.weak	_ZN4asio6detail10service_idINS0_13epoll_reactorEED1Ev
	.set	_ZN4asio6detail10service_idINS0_13epoll_reactorEED1Ev,_ZN4asio6detail10service_idINS0_13epoll_reactorEED2Ev
	.section	.text._ZN4asio6detail10service_idINS0_15task_io_serviceEED2Ev,"axG",@progbits,_ZN4asio6detail10service_idINS0_15task_io_serviceEED5Ev,comdat
	.align	2
	.p2align 4,,11
	.weak	_ZN4asio6detail10service_idINS0_15task_io_serviceEED2Ev
	.type	_ZN4asio6detail10service_idINS0_15task_io_serviceEED2Ev, %function
_ZN4asio6detail10service_idINS0_15task_io_serviceEED2Ev:
.LFB11693:
	.cfi_startproc
	ret
	.cfi_endproc
.LFE11693:
	.size	_ZN4asio6detail10service_idINS0_15task_io_serviceEED2Ev, .-_ZN4asio6detail10service_idINS0_15task_io_serviceEED2Ev
	.weak	_ZN4asio6detail10service_idINS0_15task_io_serviceEED1Ev
	.set	_ZN4asio6detail10service_idINS0_15task_io_serviceEED1Ev,_ZN4asio6detail10service_idINS0_15task_io_serviceEED2Ev
	.section	.text._ZN4asio6detail10service_idINS0_14strand_serviceEED2Ev,"axG",@progbits,_ZN4asio6detail10service_idINS0_14strand_serviceEED5Ev,comdat
	.align	2
	.p2align 4,,11
	.weak	_ZN4asio6detail10service_idINS0_14strand_serviceEED2Ev
	.type	_ZN4asio6detail10service_idINS0_14strand_serviceEED2Ev, %function
_ZN4asio6detail10service_idINS0_14strand_serviceEED2Ev:
.LFB11699:
	.cfi_startproc
	ret
	.cfi_endproc
.LFE11699:
	.size	_ZN4asio6detail10service_idINS0_14strand_serviceEED2Ev, .-_ZN4asio6detail10service_idINS0_14strand_serviceEED2Ev
	.weak	_ZN4asio6detail10service_idINS0_14strand_serviceEED1Ev
	.set	_ZN4asio6detail10service_idINS0_14strand_serviceEED1Ev,_ZN4asio6detail10service_idINS0_14strand_serviceEED2Ev
	.section	.text._ZNSt23_Sp_counted_ptr_inplaceIN8opendnp310CommandSetESaIS1_ELN9__gnu_cxx12_Lock_policyE2EED2Ev,"axG",@progbits,_ZNSt23_Sp_counted_ptr_inplaceIN8opendnp310CommandSetESaIS1_ELN9__gnu_cxx12_Lock_policyE2EED5Ev,comdat
	.align	2
	.p2align 4,,11
	.weak	_ZNSt23_Sp_counted_ptr_inplaceIN8opendnp310CommandSetESaIS1_ELN9__gnu_cxx12_Lock_policyE2EED2Ev
	.type	_ZNSt23_Sp_counted_ptr_inplaceIN8opendnp310CommandSetESaIS1_ELN9__gnu_cxx12_Lock_policyE2EED2Ev, %function
_ZNSt23_Sp_counted_ptr_inplaceIN8opendnp310CommandSetESaIS1_ELN9__gnu_cxx12_Lock_policyE2EED2Ev:
.LFB11766:
	.cfi_startproc
	ret
	.cfi_endproc
.LFE11766:
	.size	_ZNSt23_Sp_counted_ptr_inplaceIN8opendnp310CommandSetESaIS1_ELN9__gnu_cxx12_Lock_policyE2EED2Ev, .-_ZNSt23_Sp_counted_ptr_inplaceIN8opendnp310CommandSetESaIS1_ELN9__gnu_cxx12_Lock_policyE2EED2Ev
	.weak	_ZNSt23_Sp_counted_ptr_inplaceIN8opendnp310CommandSetESaIS1_ELN9__gnu_cxx12_Lock_policyE2EED1Ev
	.set	_ZNSt23_Sp_counted_ptr_inplaceIN8opendnp310CommandSetESaIS1_ELN9__gnu_cxx12_Lock_policyE2EED1Ev,_ZNSt23_Sp_counted_ptr_inplaceIN8opendnp310CommandSetESaIS1_ELN9__gnu_cxx12_Lock_policyE2EED2Ev
	.section	.text._ZNSt23_Sp_counted_ptr_inplaceIN8asiodnp318MasterSessionStackESaIS1_ELN9__gnu_cxx12_Lock_policyE2EED2Ev,"axG",@progbits,_ZNSt23_Sp_counted_ptr_inplaceIN8asiodnp318MasterSessionStackESaIS1_ELN9__gnu_cxx12_Lock_policyE2EED5Ev,comdat
	.align	2
	.p2align 4,,11
	.weak	_ZNSt23_Sp_counted_ptr_inplaceIN8asiodnp318MasterSessionStackESaIS1_ELN9__gnu_cxx12_Lock_policyE2EED2Ev
	.type	_ZNSt23_Sp_counted_ptr_inplaceIN8asiodnp318MasterSessionStackESaIS1_ELN9__gnu_cxx12_Lock_policyE2EED2Ev, %function
_ZNSt23_Sp_counted_ptr_inplaceIN8asiodnp318MasterSessionStackESaIS1_ELN9__gnu_cxx12_Lock_policyE2EED2Ev:
.LFB11773:
	.cfi_startproc
	ret
	.cfi_endproc
.LFE11773:
	.size	_ZNSt23_Sp_counted_ptr_inplaceIN8asiodnp318MasterSessionStackESaIS1_ELN9__gnu_cxx12_Lock_policyE2EED2Ev, .-_ZNSt23_Sp_counted_ptr_inplaceIN8asiodnp318MasterSessionStackESaIS1_ELN9__gnu_cxx12_Lock_policyE2EED2Ev
	.weak	_ZNSt23_Sp_counted_ptr_inplaceIN8asiodnp318MasterSessionStackESaIS1_ELN9__gnu_cxx12_Lock_policyE2EED1Ev
	.set	_ZNSt23_Sp_counted_ptr_inplaceIN8asiodnp318MasterSessionStackESaIS1_ELN9__gnu_cxx12_Lock_policyE2EED1Ev,_ZNSt23_Sp_counted_ptr_inplaceIN8asiodnp318MasterSessionStackESaIS1_ELN9__gnu_cxx12_Lock_policyE2EED2Ev
	.section	.text._ZNSt23_Sp_counted_ptr_inplaceINSt13__future_base13_State_baseV2ESaIS1_ELN9__gnu_cxx12_Lock_policyE2EED2Ev,"axG",@progbits,_ZNSt23_Sp_counted_ptr_inplaceINSt13__future_base13_State_baseV2ESaIS1_ELN9__gnu_cxx12_Lock_policyE2EED5Ev,comdat
	.align	2
	.p2align 4,,11
	.weak	_ZNSt23_Sp_counted_ptr_inplaceINSt13__future_base13_State_baseV2ESaIS1_ELN9__gnu_cxx12_Lock_policyE2EED2Ev
	.type	_ZNSt23_Sp_counted_ptr_inplaceINSt13__future_base13_State_baseV2ESaIS1_ELN9__gnu_cxx12_Lock_policyE2EED2Ev, %function
_ZNSt23_Sp_counted_ptr_inplaceINSt13__future_base13_State_baseV2ESaIS1_ELN9__gnu_cxx12_Lock_policyE2EED2Ev:
.LFB11794:
	.cfi_startproc
	ret
	.cfi_endproc
.LFE11794:
	.size	_ZNSt23_Sp_counted_ptr_inplaceINSt13__future_base13_State_baseV2ESaIS1_ELN9__gnu_cxx12_Lock_policyE2EED2Ev, .-_ZNSt23_Sp_counted_ptr_inplaceINSt13__future_base13_State_baseV2ESaIS1_ELN9__gnu_cxx12_Lock_policyE2EED2Ev
	.weak	_ZNSt23_Sp_counted_ptr_inplaceINSt13__future_base13_State_baseV2ESaIS1_ELN9__gnu_cxx12_Lock_policyE2EED1Ev
	.set	_ZNSt23_Sp_counted_ptr_inplaceINSt13__future_base13_State_baseV2ESaIS1_ELN9__gnu_cxx12_Lock_policyE2EED1Ev,_ZNSt23_Sp_counted_ptr_inplaceINSt13__future_base13_State_baseV2ESaIS1_ELN9__gnu_cxx12_Lock_policyE2EED2Ev
	.section	.text._ZNSt23_Sp_counted_ptr_inplaceINSt13__future_base13_State_baseV2ESaIS1_ELN9__gnu_cxx12_Lock_policyE2EE10_M_disposeEv,"axG",@progbits,_ZNSt23_Sp_counted_ptr_inplaceINSt13__future_base13_State_baseV2ESaIS1_ELN9__gnu_cxx12_Lock_policyE2EE10_M_disposeEv,comdat
	.align	2
	.p2align 4,,11
	.weak	_ZNSt23_Sp_counted_ptr_inplaceINSt13__future_base13_State_baseV2ESaIS1_ELN9__gnu_cxx12_Lock_policyE2EE10_M_disposeEv
	.type	_ZNSt23_Sp_counted_ptr_inplaceINSt13__future_base13_State_baseV2ESaIS1_ELN9__gnu_cxx12_Lock_policyE2EE10_M_disposeEv, %function
_ZNSt23_Sp_counted_ptr_inplaceINSt13__future_base13_State_baseV2ESaIS1_ELN9__gnu_cxx12_Lock_policyE2EE10_M_disposeEv:
.LFB11797:
	.cfi_startproc
	mov	x1, x0
	add	x0, x0, 16
	ldr	x1, [x1, 16]
	ldr	x1, [x1]
	mov	x16, x1
	br	x16
	.cfi_endproc
.LFE11797:
	.size	_ZNSt23_Sp_counted_ptr_inplaceINSt13__future_base13_State_baseV2ESaIS1_ELN9__gnu_cxx12_Lock_policyE2EE10_M_disposeEv, .-_ZNSt23_Sp_counted_ptr_inplaceINSt13__future_base13_State_baseV2ESaIS1_ELN9__gnu_cxx12_Lock_policyE2EE10_M_disposeEv
	.section	.text._ZNSt23_Sp_counted_ptr_inplaceIN8asiodnp310MasterScanESaIS1_ELN9__gnu_cxx12_Lock_policyE2EED2Ev,"axG",@progbits,_ZNSt23_Sp_counted_ptr_inplaceIN8asiodnp310MasterScanESaIS1_ELN9__gnu_cxx12_Lock_policyE2EED5Ev,comdat
	.align	2
	.p2align 4,,11
	.weak	_ZNSt23_Sp_counted_ptr_inplaceIN8asiodnp310MasterScanESaIS1_ELN9__gnu_cxx12_Lock_policyE2EED2Ev
	.type	_ZNSt23_Sp_counted_ptr_inplaceIN8asiodnp310MasterScanESaIS1_ELN9__gnu_cxx12_Lock_policyE2EED2Ev, %function
_ZNSt23_Sp_counted_ptr_inplaceIN8asiodnp310MasterScanESaIS1_ELN9__gnu_cxx12_Lock_policyE2EED2Ev:
.LFB11808:
	.cfi_startproc
	ret
	.cfi_endproc
.LFE11808:
	.size	_ZNSt23_Sp_counted_ptr_inplaceIN8asiodnp310MasterScanESaIS1_ELN9__gnu_cxx12_Lock_policyE2EED2Ev, .-_ZNSt23_Sp_counted_ptr_inplaceIN8asiodnp310MasterScanESaIS1_ELN9__gnu_cxx12_Lock_policyE2EED2Ev
	.weak	_ZNSt23_Sp_counted_ptr_inplaceIN8asiodnp310MasterScanESaIS1_ELN9__gnu_cxx12_Lock_policyE2EED1Ev
	.set	_ZNSt23_Sp_counted_ptr_inplaceIN8asiodnp310MasterScanESaIS1_ELN9__gnu_cxx12_Lock_policyE2EED1Ev,_ZNSt23_Sp_counted_ptr_inplaceIN8asiodnp310MasterScanESaIS1_ELN9__gnu_cxx12_Lock_policyE2EED2Ev
	.section	.text._ZNSt23_Sp_counted_ptr_inplaceIN8asiodnp310MasterScanESaIS1_ELN9__gnu_cxx12_Lock_policyE2EE14_M_get_deleterERKSt9type_info,"axG",@progbits,_ZNSt23_Sp_counted_ptr_inplaceIN8asiodnp310MasterScanESaIS1_ELN9__gnu_cxx12_Lock_policyE2EE14_M_get_deleterERKSt9type_info,comdat
	.align	2
	.p2align 4,,11
	.weak	_ZNSt23_Sp_counted_ptr_inplaceIN8asiodnp310MasterScanESaIS1_ELN9__gnu_cxx12_Lock_policyE2EE14_M_get_deleterERKSt9type_info
	.type	_ZNSt23_Sp_counted_ptr_inplaceIN8asiodnp310MasterScanESaIS1_ELN9__gnu_cxx12_Lock_policyE2EE14_M_get_deleterERKSt9type_info, %function
_ZNSt23_Sp_counted_ptr_inplaceIN8asiodnp310MasterScanESaIS1_ELN9__gnu_cxx12_Lock_policyE2EE14_M_get_deleterERKSt9type_info:
.LFB11813:
	.cfi_startproc
	stp	x29, x30, [sp, -32]!
	.cfi_def_cfa_offset 32
	.cfi_offset 29, -32
	.cfi_offset 30, -24
	adrp	x2, :got:_ZZNSt19_Sp_make_shared_tag5_S_tiEvE5__tag
	mov	x29, sp
	ldr	x2, [x2, #:got_lo12:_ZZNSt19_Sp_make_shared_tag5_S_tiEvE5__tag]
	str	x19, [sp, 16]
	.cfi_offset 19, -16
	add	x19, x0, 16
	cmp	x1, x2
	beq	.L34
	adrp	x2, :got:_ZTSSt19_Sp_make_shared_tag
	ldr	x0, [x1, 8]
	ldr	x1, [x2, #:got_lo12:_ZTSSt19_Sp_make_shared_tag]
	cmp	x0, x1
	beq	.L34
	ldrb	w2, [x0]
	cmp	w2, 42
	beq	.L36
	bl	strcmp
	cmp	w0, 0
	csel	x19, x19, xzr, eq
.L34:
	mov	x0, x19
	ldr	x19, [sp, 16]
	ldp	x29, x30, [sp], 32
	.cfi_remember_state
	.cfi_restore 30
	.cfi_restore 29
	.cfi_restore 19
	.cfi_def_cfa_offset 0
	ret
	.p2align 2,,3
.L36:
	.cfi_restore_state
	mov	x19, 0
	mov	x0, x19
	ldr	x19, [sp, 16]
	ldp	x29, x30, [sp], 32
	.cfi_restore 30
	.cfi_restore 29
	.cfi_restore 19
	.cfi_def_cfa_offset 0
	ret
	.cfi_endproc
.LFE11813:
	.size	_ZNSt23_Sp_counted_ptr_inplaceIN8asiodnp310MasterScanESaIS1_ELN9__gnu_cxx12_Lock_policyE2EE14_M_get_deleterERKSt9type_info, .-_ZNSt23_Sp_counted_ptr_inplaceIN8asiodnp310MasterScanESaIS1_ELN9__gnu_cxx12_Lock_policyE2EE14_M_get_deleterERKSt9type_info
	.section	.text._ZNSt13__future_base13_State_baseV2D0Ev,"axG",@progbits,_ZNSt13__future_base13_State_baseV2D5Ev,comdat
	.align	2
	.p2align 4,,11
	.weak	_ZNSt13__future_base13_State_baseV2D0Ev
	.type	_ZNSt13__future_base13_State_baseV2D0Ev, %function
_ZNSt13__future_base13_State_baseV2D0Ev:
.LFB11624:
	.cfi_startproc
	.cfi_personality 0x9b,DW.ref.__gxx_personality_v0
	.cfi_lsda 0x1b,.LLSDA11624
	stp	x29, x30, [sp, -32]!
	.cfi_def_cfa_offset 32
	.cfi_offset 29, -32
	.cfi_offset 30, -24
	adrp	x1, :got:_ZTVNSt13__future_base13_State_baseV2E
	mov	x29, sp
	ldr	x1, [x1, #:got_lo12:_ZTVNSt13__future_base13_State_baseV2E]
	str	x19, [sp, 16]
	.cfi_offset 19, -16
	mov	x19, x0
	ldr	x0, [x0, 8]
	add	x1, x1, 16
	str	x1, [x19]
	cbz	x0, .L40
	ldr	x1, [x0]
	ldr	x1, [x1]
	blr	x1
.L40:
	mov	x0, x19
	mov	x1, 32
	ldr	x19, [sp, 16]
	ldp	x29, x30, [sp], 32
	.cfi_restore 30
	.cfi_restore 29
	.cfi_restore 19
	.cfi_def_cfa_offset 0
	b	_ZdlPvm
	.cfi_endproc
.LFE11624:
	.section	.gcc_except_table._ZNSt13__future_base13_State_baseV2D0Ev,"aG",@progbits,_ZNSt13__future_base13_State_baseV2D5Ev,comdat
.LLSDA11624:
	.byte	0xff
	.byte	0xff
	.byte	0x1
	.uleb128 .LLSDACSE11624-.LLSDACSB11624
.LLSDACSB11624:
.LLSDACSE11624:
	.section	.text._ZNSt13__future_base13_State_baseV2D0Ev,"axG",@progbits,_ZNSt13__future_base13_State_baseV2D5Ev,comdat
	.size	_ZNSt13__future_base13_State_baseV2D0Ev, .-_ZNSt13__future_base13_State_baseV2D0Ev
	.section	.text._ZNSt23_Sp_counted_ptr_inplaceIN8asiodnp310MasterScanESaIS1_ELN9__gnu_cxx12_Lock_policyE2EED0Ev,"axG",@progbits,_ZNSt23_Sp_counted_ptr_inplaceIN8asiodnp310MasterScanESaIS1_ELN9__gnu_cxx12_Lock_policyE2EED5Ev,comdat
	.align	2
	.p2align 4,,11
	.weak	_ZNSt23_Sp_counted_ptr_inplaceIN8asiodnp310MasterScanESaIS1_ELN9__gnu_cxx12_Lock_policyE2EED0Ev
	.type	_ZNSt23_Sp_counted_ptr_inplaceIN8asiodnp310MasterScanESaIS1_ELN9__gnu_cxx12_Lock_policyE2EED0Ev, %function
_ZNSt23_Sp_counted_ptr_inplaceIN8asiodnp310MasterScanESaIS1_ELN9__gnu_cxx12_Lock_policyE2EED0Ev:
.LFB11810:
	.cfi_startproc
	mov	x1, 56
	b	_ZdlPvm
	.cfi_endproc
.LFE11810:
	.size	_ZNSt23_Sp_counted_ptr_inplaceIN8asiodnp310MasterScanESaIS1_ELN9__gnu_cxx12_Lock_policyE2EED0Ev, .-_ZNSt23_Sp_counted_ptr_inplaceIN8asiodnp310MasterScanESaIS1_ELN9__gnu_cxx12_Lock_policyE2EED0Ev
	.section	.text._ZNSt23_Sp_counted_ptr_inplaceINSt13__future_base13_State_baseV2ESaIS1_ELN9__gnu_cxx12_Lock_policyE2EED0Ev,"axG",@progbits,_ZNSt23_Sp_counted_ptr_inplaceINSt13__future_base13_State_baseV2ESaIS1_ELN9__gnu_cxx12_Lock_policyE2EED5Ev,comdat
	.align	2
	.p2align 4,,11
	.weak	_ZNSt23_Sp_counted_ptr_inplaceINSt13__future_base13_State_baseV2ESaIS1_ELN9__gnu_cxx12_Lock_policyE2EED0Ev
	.type	_ZNSt23_Sp_counted_ptr_inplaceINSt13__future_base13_State_baseV2ESaIS1_ELN9__gnu_cxx12_Lock_policyE2EED0Ev, %function
_ZNSt23_Sp_counted_ptr_inplaceINSt13__future_base13_State_baseV2ESaIS1_ELN9__gnu_cxx12_Lock_policyE2EED0Ev:
.LFB11796:
	.cfi_startproc
	mov	x1, 48
	b	_ZdlPvm
	.cfi_endproc
.LFE11796:
	.size	_ZNSt23_Sp_counted_ptr_inplaceINSt13__future_base13_State_baseV2ESaIS1_ELN9__gnu_cxx12_Lock_policyE2EED0Ev, .-_ZNSt23_Sp_counted_ptr_inplaceINSt13__future_base13_State_baseV2ESaIS1_ELN9__gnu_cxx12_Lock_policyE2EED0Ev
	.section	.text._ZNSt23_Sp_counted_ptr_inplaceIN8asiodnp318MasterSessionStackESaIS1_ELN9__gnu_cxx12_Lock_policyE2EED0Ev,"axG",@progbits,_ZNSt23_Sp_counted_ptr_inplaceIN8asiodnp318MasterSessionStackESaIS1_ELN9__gnu_cxx12_Lock_policyE2EED5Ev,comdat
	.align	2
	.p2align 4,,11
	.weak	_ZNSt23_Sp_counted_ptr_inplaceIN8asiodnp318MasterSessionStackESaIS1_ELN9__gnu_cxx12_Lock_policyE2EED0Ev
	.type	_ZNSt23_Sp_counted_ptr_inplaceIN8asiodnp318MasterSessionStackESaIS1_ELN9__gnu_cxx12_Lock_policyE2EED0Ev, %function
_ZNSt23_Sp_counted_ptr_inplaceIN8asiodnp318MasterSessionStackESaIS1_ELN9__gnu_cxx12_Lock_policyE2EED0Ev:
.LFB11775:
	.cfi_startproc
	mov	x1, 632
	b	_ZdlPvm
	.cfi_endproc
.LFE11775:
	.size	_ZNSt23_Sp_counted_ptr_inplaceIN8asiodnp318MasterSessionStackESaIS1_ELN9__gnu_cxx12_Lock_policyE2EED0Ev, .-_ZNSt23_Sp_counted_ptr_inplaceIN8asiodnp318MasterSessionStackESaIS1_ELN9__gnu_cxx12_Lock_policyE2EED0Ev
	.section	.text._ZNSt23_Sp_counted_ptr_inplaceIN8opendnp310CommandSetESaIS1_ELN9__gnu_cxx12_Lock_policyE2EED0Ev,"axG",@progbits,_ZNSt23_Sp_counted_ptr_inplaceIN8opendnp310CommandSetESaIS1_ELN9__gnu_cxx12_Lock_policyE2EED5Ev,comdat
	.align	2
	.p2align 4,,11
	.weak	_ZNSt23_Sp_counted_ptr_inplaceIN8opendnp310CommandSetESaIS1_ELN9__gnu_cxx12_Lock_policyE2EED0Ev
	.type	_ZNSt23_Sp_counted_ptr_inplaceIN8opendnp310CommandSetESaIS1_ELN9__gnu_cxx12_Lock_policyE2EED0Ev, %function
_ZNSt23_Sp_counted_ptr_inplaceIN8opendnp310CommandSetESaIS1_ELN9__gnu_cxx12_Lock_policyE2EED0Ev:
.LFB11768:
	.cfi_startproc
	mov	x1, 40
	b	_ZdlPvm
	.cfi_endproc
.LFE11768:
	.size	_ZNSt23_Sp_counted_ptr_inplaceIN8opendnp310CommandSetESaIS1_ELN9__gnu_cxx12_Lock_policyE2EED0Ev, .-_ZNSt23_Sp_counted_ptr_inplaceIN8opendnp310CommandSetESaIS1_ELN9__gnu_cxx12_Lock_policyE2EED0Ev
	.section	.text._ZNSt23_Sp_counted_ptr_inplaceIN8opendnp310CommandSetESaIS1_ELN9__gnu_cxx12_Lock_policyE2EE10_M_destroyEv,"axG",@progbits,_ZNSt23_Sp_counted_ptr_inplaceIN8opendnp310CommandSetESaIS1_ELN9__gnu_cxx12_Lock_policyE2EE10_M_destroyEv,comdat
	.align	2
	.p2align 4,,11
	.weak	_ZNSt23_Sp_counted_ptr_inplaceIN8opendnp310CommandSetESaIS1_ELN9__gnu_cxx12_Lock_policyE2EE10_M_destroyEv
	.type	_ZNSt23_Sp_counted_ptr_inplaceIN8opendnp310CommandSetESaIS1_ELN9__gnu_cxx12_Lock_policyE2EE10_M_destroyEv, %function
_ZNSt23_Sp_counted_ptr_inplaceIN8opendnp310CommandSetESaIS1_ELN9__gnu_cxx12_Lock_policyE2EE10_M_destroyEv:
.LFB11770:
	.cfi_startproc
	mov	x1, 40
	b	_ZdlPvm
	.cfi_endproc
.LFE11770:
	.size	_ZNSt23_Sp_counted_ptr_inplaceIN8opendnp310CommandSetESaIS1_ELN9__gnu_cxx12_Lock_policyE2EE10_M_destroyEv, .-_ZNSt23_Sp_counted_ptr_inplaceIN8opendnp310CommandSetESaIS1_ELN9__gnu_cxx12_Lock_policyE2EE10_M_destroyEv
	.section	.text._ZNSt23_Sp_counted_ptr_inplaceIN8asiodnp318MasterSessionStackESaIS1_ELN9__gnu_cxx12_Lock_policyE2EE10_M_destroyEv,"axG",@progbits,_ZNSt23_Sp_counted_ptr_inplaceIN8asiodnp318MasterSessionStackESaIS1_ELN9__gnu_cxx12_Lock_policyE2EE10_M_destroyEv,comdat
	.align	2
	.p2align 4,,11
	.weak	_ZNSt23_Sp_counted_ptr_inplaceIN8asiodnp318MasterSessionStackESaIS1_ELN9__gnu_cxx12_Lock_policyE2EE10_M_destroyEv
	.type	_ZNSt23_Sp_counted_ptr_inplaceIN8asiodnp318MasterSessionStackESaIS1_ELN9__gnu_cxx12_Lock_policyE2EE10_M_destroyEv, %function
_ZNSt23_Sp_counted_ptr_inplaceIN8asiodnp318MasterSessionStackESaIS1_ELN9__gnu_cxx12_Lock_policyE2EE10_M_destroyEv:
.LFB11777:
	.cfi_startproc
	mov	x1, 632
	b	_ZdlPvm
	.cfi_endproc
.LFE11777:
	.size	_ZNSt23_Sp_counted_ptr_inplaceIN8asiodnp318MasterSessionStackESaIS1_ELN9__gnu_cxx12_Lock_policyE2EE10_M_destroyEv, .-_ZNSt23_Sp_counted_ptr_inplaceIN8asiodnp318MasterSessionStackESaIS1_ELN9__gnu_cxx12_Lock_policyE2EE10_M_destroyEv
	.section	.text._ZNSt23_Sp_counted_ptr_inplaceINSt13__future_base13_State_baseV2ESaIS1_ELN9__gnu_cxx12_Lock_policyE2EE10_M_destroyEv,"axG",@progbits,_ZNSt23_Sp_counted_ptr_inplaceINSt13__future_base13_State_baseV2ESaIS1_ELN9__gnu_cxx12_Lock_policyE2EE10_M_destroyEv,comdat
	.align	2
	.p2align 4,,11
	.weak	_ZNSt23_Sp_counted_ptr_inplaceINSt13__future_base13_State_baseV2ESaIS1_ELN9__gnu_cxx12_Lock_policyE2EE10_M_destroyEv
	.type	_ZNSt23_Sp_counted_ptr_inplaceINSt13__future_base13_State_baseV2ESaIS1_ELN9__gnu_cxx12_Lock_policyE2EE10_M_destroyEv, %function
_ZNSt23_Sp_counted_ptr_inplaceINSt13__future_base13_State_baseV2ESaIS1_ELN9__gnu_cxx12_Lock_policyE2EE10_M_destroyEv:
.LFB11798:
	.cfi_startproc
	mov	x1, 48
	b	_ZdlPvm
	.cfi_endproc
.LFE11798:
	.size	_ZNSt23_Sp_counted_ptr_inplaceINSt13__future_base13_State_baseV2ESaIS1_ELN9__gnu_cxx12_Lock_policyE2EE10_M_destroyEv, .-_ZNSt23_Sp_counted_ptr_inplaceINSt13__future_base13_State_baseV2ESaIS1_ELN9__gnu_cxx12_Lock_policyE2EE10_M_destroyEv
	.section	.text._ZNSt23_Sp_counted_ptr_inplaceIN8asiodnp310MasterScanESaIS1_ELN9__gnu_cxx12_Lock_policyE2EE10_M_destroyEv,"axG",@progbits,_ZNSt23_Sp_counted_ptr_inplaceIN8asiodnp310MasterScanESaIS1_ELN9__gnu_cxx12_Lock_policyE2EE10_M_destroyEv,comdat
	.align	2
	.p2align 4,,11
	.weak	_ZNSt23_Sp_counted_ptr_inplaceIN8asiodnp310MasterScanESaIS1_ELN9__gnu_cxx12_Lock_policyE2EE10_M_destroyEv
	.type	_ZNSt23_Sp_counted_ptr_inplaceIN8asiodnp310MasterScanESaIS1_ELN9__gnu_cxx12_Lock_policyE2EE10_M_destroyEv, %function
_ZNSt23_Sp_counted_ptr_inplaceIN8asiodnp310MasterScanESaIS1_ELN9__gnu_cxx12_Lock_policyE2EE10_M_destroyEv:
.LFB11812:
	.cfi_startproc
	mov	x1, 56
	b	_ZdlPvm
	.cfi_endproc
.LFE11812:
	.size	_ZNSt23_Sp_counted_ptr_inplaceIN8asiodnp310MasterScanESaIS1_ELN9__gnu_cxx12_Lock_policyE2EE10_M_destroyEv, .-_ZNSt23_Sp_counted_ptr_inplaceIN8asiodnp310MasterScanESaIS1_ELN9__gnu_cxx12_Lock_policyE2EE10_M_destroyEv
	.section	.text._ZN7openpal5ArrayIhjED2Ev,"axG",@progbits,_ZN7openpal5ArrayIhjED5Ev,comdat
	.align	2
	.p2align 4,,11
	.weak	_ZN7openpal5ArrayIhjED2Ev
	.type	_ZN7openpal5ArrayIhjED2Ev, %function
_ZN7openpal5ArrayIhjED2Ev:
.LFB8448:
	.cfi_startproc
	adrp	x1, :got:_ZTVN7openpal5ArrayIhjEE
	mov	x2, x0
	ldr	x0, [x0, 16]
	ldr	x1, [x1, #:got_lo12:_ZTVN7openpal5ArrayIhjEE]
	add	x1, x1, 16
	str	x1, [x2]
	cbz	x0, .L53
	b	_ZdaPv
	.p2align 2,,3
.L53:
	ret
	.cfi_endproc
.LFE8448:
	.size	_ZN7openpal5ArrayIhjED2Ev, .-_ZN7openpal5ArrayIhjED2Ev
	.weak	_ZN7openpal5ArrayIhjED1Ev
	.set	_ZN7openpal5ArrayIhjED1Ev,_ZN7openpal5ArrayIhjED2Ev
	.section	.text._ZN7openpal5ArrayIhjED0Ev,"axG",@progbits,_ZN7openpal5ArrayIhjED5Ev,comdat
	.align	2
	.p2align 4,,11
	.weak	_ZN7openpal5ArrayIhjED0Ev
	.type	_ZN7openpal5ArrayIhjED0Ev, %function
_ZN7openpal5ArrayIhjED0Ev:
.LFB8450:
	.cfi_startproc
	stp	x29, x30, [sp, -32]!
	.cfi_def_cfa_offset 32
	.cfi_offset 29, -32
	.cfi_offset 30, -24
	adrp	x1, :got:_ZTVN7openpal5ArrayIhjEE
	mov	x29, sp
	ldr	x1, [x1, #:got_lo12:_ZTVN7openpal5ArrayIhjEE]
	str	x19, [sp, 16]
	.cfi_offset 19, -16
	mov	x19, x0
	ldr	x0, [x0, 16]
	add	x1, x1, 16
	str	x1, [x19]
	cbz	x0, .L56
	bl	_ZdaPv
.L56:
	mov	x0, x19
	mov	x1, 24
	ldr	x19, [sp, 16]
	ldp	x29, x30, [sp], 32
	.cfi_restore 30
	.cfi_restore 29
	.cfi_restore 19
	.cfi_def_cfa_offset 0
	b	_ZdlPvm
	.cfi_endproc
.LFE8450:
	.size	_ZN7openpal5ArrayIhjED0Ev, .-_ZN7openpal5ArrayIhjED0Ev
	.section	.text._ZNSt23_Sp_counted_ptr_inplaceIN8opendnp310CommandSetESaIS1_ELN9__gnu_cxx12_Lock_policyE2EE10_M_disposeEv,"axG",@progbits,_ZNSt23_Sp_counted_ptr_inplaceIN8opendnp310CommandSetESaIS1_ELN9__gnu_cxx12_Lock_policyE2EE10_M_disposeEv,comdat
	.align	2
	.p2align 4,,11
	.weak	_ZNSt23_Sp_counted_ptr_inplaceIN8opendnp310CommandSetESaIS1_ELN9__gnu_cxx12_Lock_policyE2EE10_M_disposeEv
	.type	_ZNSt23_Sp_counted_ptr_inplaceIN8opendnp310CommandSetESaIS1_ELN9__gnu_cxx12_Lock_policyE2EE10_M_disposeEv, %function
_ZNSt23_Sp_counted_ptr_inplaceIN8opendnp310CommandSetESaIS1_ELN9__gnu_cxx12_Lock_policyE2EE10_M_disposeEv:
.LFB11769:
	.cfi_startproc
	add	x0, x0, 16
	b	_ZN8opendnp310CommandSetD1Ev
	.cfi_endproc
.LFE11769:
	.size	_ZNSt23_Sp_counted_ptr_inplaceIN8opendnp310CommandSetESaIS1_ELN9__gnu_cxx12_Lock_policyE2EE10_M_disposeEv, .-_ZNSt23_Sp_counted_ptr_inplaceIN8opendnp310CommandSetESaIS1_ELN9__gnu_cxx12_Lock_policyE2EE10_M_disposeEv
	.section	.text._ZNSt13__future_base7_ResultIN8opendnp315StackStatisticsEED2Ev,"axG",@progbits,_ZNSt13__future_base7_ResultIN8opendnp315StackStatisticsEED5Ev,comdat
	.align	2
	.p2align 4,,11
	.weak	_ZNSt13__future_base7_ResultIN8opendnp315StackStatisticsEED2Ev
	.type	_ZNSt13__future_base7_ResultIN8opendnp315StackStatisticsEED2Ev, %function
_ZNSt13__future_base7_ResultIN8opendnp315StackStatisticsEED2Ev:
.LFB11835:
	.cfi_startproc
	adrp	x1, :got:_ZTVNSt13__future_base7_ResultIN8opendnp315StackStatisticsEEE
	ldr	x1, [x1, #:got_lo12:_ZTVNSt13__future_base7_ResultIN8opendnp315StackStatisticsEEE]
	add	x1, x1, 16
	str	x1, [x0]
	b	_ZNSt13__future_base12_Result_baseD2Ev
	.cfi_endproc
.LFE11835:
	.size	_ZNSt13__future_base7_ResultIN8opendnp315StackStatisticsEED2Ev, .-_ZNSt13__future_base7_ResultIN8opendnp315StackStatisticsEED2Ev
	.weak	_ZNSt13__future_base7_ResultIN8opendnp315StackStatisticsEED1Ev
	.set	_ZNSt13__future_base7_ResultIN8opendnp315StackStatisticsEED1Ev,_ZNSt13__future_base7_ResultIN8opendnp315StackStatisticsEED2Ev
	.section	.text._ZNSt13__future_base7_ResultIN8opendnp315StackStatisticsEED0Ev,"axG",@progbits,_ZNSt13__future_base7_ResultIN8opendnp315StackStatisticsEED5Ev,comdat
	.align	2
	.p2align 4,,11
	.weak	_ZNSt13__future_base7_ResultIN8opendnp315StackStatisticsEED0Ev
	.type	_ZNSt13__future_base7_ResultIN8opendnp315StackStatisticsEED0Ev, %function
_ZNSt13__future_base7_ResultIN8opendnp315StackStatisticsEED0Ev:
.LFB11837:
	.cfi_startproc
	stp	x29, x30, [sp, -32]!
	.cfi_def_cfa_offset 32
	.cfi_offset 29, -32
	.cfi_offset 30, -24
	adrp	x1, :got:_ZTVNSt13__future_base7_ResultIN8opendnp315StackStatisticsEEE
	mov	x29, sp
	ldr	x1, [x1, #:got_lo12:_ZTVNSt13__future_base7_ResultIN8opendnp315StackStatisticsEEE]
	str	x19, [sp, 16]
	.cfi_offset 19, -16
	mov	x19, x0
	add	x1, x1, 16
	str	x1, [x0]
	bl	_ZNSt13__future_base12_Result_baseD2Ev
	mov	x0, x19
	mov	x1, 64
	ldr	x19, [sp, 16]
	ldp	x29, x30, [sp], 32
	.cfi_restore 30
	.cfi_restore 29
	.cfi_restore 19
	.cfi_def_cfa_offset 0
	b	_ZdlPvm
	.cfi_endproc
.LFE11837:
	.size	_ZNSt13__future_base7_ResultIN8opendnp315StackStatisticsEED0Ev, .-_ZNSt13__future_base7_ResultIN8opendnp315StackStatisticsEED0Ev
	.section	.text._ZNSt13__future_base13_State_baseV29_M_do_setEPSt8functionIFSt10unique_ptrINS_12_Result_baseENS3_8_DeleterEEvEEPb,"axG",@progbits,_ZNSt13__future_base13_State_baseV29_M_do_setEPSt8functionIFSt10unique_ptrINS_12_Result_baseENS3_8_DeleterEEvEEPb,comdat
	.align	2
	.p2align 4,,11
	.weak	_ZNSt13__future_base13_State_baseV29_M_do_setEPSt8functionIFSt10unique_ptrINS_12_Result_baseENS3_8_DeleterEEvEEPb
	.type	_ZNSt13__future_base13_State_baseV29_M_do_setEPSt8functionIFSt10unique_ptrINS_12_Result_baseENS3_8_DeleterEEvEEPb, %function
_ZNSt13__future_base13_State_baseV29_M_do_setEPSt8functionIFSt10unique_ptrINS_12_Result_baseENS3_8_DeleterEEvEEPb:
.LFB7500:
	.cfi_startproc
	.cfi_personality 0x9b,DW.ref.__gxx_personality_v0
	.cfi_lsda 0x1b,.LLSDA7500
	stp	x29, x30, [sp, -48]!
	.cfi_def_cfa_offset 48
	.cfi_offset 29, -48
	.cfi_offset 30, -40
	adrp	x3, :got:__stack_chk_guard
	mov	x29, sp
	ldr	x3, [x3, #:got_lo12:__stack_chk_guard]
	stp	x19, x20, [sp, 16]
	.cfi_offset 19, -32
	.cfi_offset 20, -24
	ldr	x4, [x1, 16]
	ldr	x5, [x3]
	str	x5, [sp, 40]
	mov	x5, 0
	cbz	x4, .L73
	mov	x20, x2
	mov	x19, x0
	ldr	x2, [x1, 24]
	mov	x0, x1
	add	x8, sp, 32
.LEHB0:
	blr	x2
.LEHE0:
	mov	w1, 1
	ldr	x0, [x19, 8]
	strb	w1, [x20]
	ldr	x1, [sp, 32]
	str	x1, [x19, 8]
	str	x0, [sp, 32]
	cbz	x0, .L65
	ldr	x1, [x0]
	ldr	x1, [x1]
	blr	x1
.L65:
	adrp	x0, :got:__stack_chk_guard
	ldr	x0, [x0, #:got_lo12:__stack_chk_guard]
	ldr	x2, [sp, 40]
	ldr	x1, [x0]
	subs	x2, x2, x1
	mov	x1, 0
	bne	.L74
	ldp	x19, x20, [sp, 16]
	ldp	x29, x30, [sp], 48
	.cfi_remember_state
	.cfi_restore 30
	.cfi_restore 29
	.cfi_restore 19
	.cfi_restore 20
	.cfi_def_cfa_offset 0
	ret
.L73:
	.cfi_restore_state
.LEHB1:
	bl	_ZSt25__throw_bad_function_callv
.LEHE1:
.L74:
	bl	__stack_chk_fail
	.cfi_endproc
.LFE7500:
	.section	.gcc_except_table._ZNSt13__future_base13_State_baseV29_M_do_setEPSt8functionIFSt10unique_ptrINS_12_Result_baseENS3_8_DeleterEEvEEPb,"aG",@progbits,_ZNSt13__future_base13_State_baseV29_M_do_setEPSt8functionIFSt10unique_ptrINS_12_Result_baseENS3_8_DeleterEEvEEPb,comdat
.LLSDA7500:
	.byte	0xff
	.byte	0xff
	.byte	0x1
	.uleb128 .LLSDACSE7500-.LLSDACSB7500
.LLSDACSB7500:
	.uleb128 .LEHB0-.LFB7500
	.uleb128 .LEHE0-.LEHB0
	.uleb128 0
	.uleb128 0
	.uleb128 .LEHB1-.LFB7500
	.uleb128 .LEHE1-.LEHB1
	.uleb128 0
	.uleb128 0
.LLSDACSE7500:
	.section	.text._ZNSt13__future_base13_State_baseV29_M_do_setEPSt8functionIFSt10unique_ptrINS_12_Result_baseENS3_8_DeleterEEvEEPb,"axG",@progbits,_ZNSt13__future_base13_State_baseV29_M_do_setEPSt8functionIFSt10unique_ptrINS_12_Result_baseENS3_8_DeleterEEvEEPb,comdat
	.size	_ZNSt13__future_base13_State_baseV29_M_do_setEPSt8functionIFSt10unique_ptrINS_12_Result_baseENS3_8_DeleterEEvEEPb, .-_ZNSt13__future_base13_State_baseV29_M_do_setEPSt8functionIFSt10unique_ptrINS_12_Result_baseENS3_8_DeleterEEvEEPb
	.text
	.align	2
	.p2align 4,,11
	.type	_ZNSt17_Function_handlerIFSt10shared_ptrIN8opendnp311IMasterTaskEEvEZN8asiodnp318MasterSessionStack7AddScanEN7openpal12TimeDurationERKSt6vectorINS1_6HeaderESaISA_EERKNS1_10TaskConfigEEUlvE_E9_M_invokeERKSt9_Any_data, %function
_ZNSt17_Function_handlerIFSt10shared_ptrIN8opendnp311IMasterTaskEEvEZN8asiodnp318MasterSessionStack7AddScanEN7openpal12TimeDurationERKSt6vectorINS1_6HeaderESaISA_EERKNS1_10TaskConfigEEUlvE_E9_M_invokeERKSt9_Any_data:
.LFB9721:
	.cfi_startproc
	stp	x29, x30, [sp, -48]!
	.cfi_def_cfa_offset 48
	.cfi_offset 29, -48
	.cfi_offset 30, -40
	adrp	x1, :got:__stack_chk_guard
	mov	x29, sp
	ldr	x4, [x0]
	ldr	x1, [x1, #:got_lo12:__stack_chk_guard]
	add	x2, x4, 24
	ldp	x6, x7, [x4, 56]
	str	x19, [sp, 16]
	.cfi_offset 19, -32
	mov	x19, x8
	ldr	x0, [x1]
	str	x0, [sp, 40]
	mov	x0, 0
	ldr	x1, [x4, 16]
	ldr	x0, [x4]
	mov	x3, x6
	mov	x4, x7
	add	x0, x0, 96
	bl	_ZN8opendnp38MContext7AddScanEN7openpal12TimeDurationERKSt8functionIFbRNS_12HeaderWriterEEENS_10TaskConfigE
	adrp	x1, :got:__stack_chk_guard
	ldr	x1, [x1, #:got_lo12:__stack_chk_guard]
	ldr	x0, [sp, 40]
	ldr	x2, [x1]
	subs	x0, x0, x2
	mov	x2, 0
	bne	.L78
	mov	x0, x19
	ldr	x19, [sp, 16]
	ldp	x29, x30, [sp], 48
	.cfi_remember_state
	.cfi_restore 30
	.cfi_restore 29
	.cfi_restore 19
	.cfi_def_cfa_offset 0
	ret
.L78:
	.cfi_restore_state
	bl	__stack_chk_fail
	.cfi_endproc
.LFE9721:
	.size	_ZNSt17_Function_handlerIFSt10shared_ptrIN8opendnp311IMasterTaskEEvEZN8asiodnp318MasterSessionStack7AddScanEN7openpal12TimeDurationERKSt6vectorINS1_6HeaderESaISA_EERKNS1_10TaskConfigEEUlvE_E9_M_invokeERKSt9_Any_data, .-_ZNSt17_Function_handlerIFSt10shared_ptrIN8opendnp311IMasterTaskEEvEZN8asiodnp318MasterSessionStack7AddScanEN7openpal12TimeDurationERKSt6vectorINS1_6HeaderESaISA_EERKNS1_10TaskConfigEEUlvE_E9_M_invokeERKSt9_Any_data
	.align	2
	.p2align 4,,11
	.type	_ZNSt17_Function_handlerIFSt10shared_ptrIN8opendnp311IMasterTaskEEvEZN8asiodnp318MasterSessionStack17AddAllObjectsScanENS1_16GroupVariationIDEN7openpal12TimeDurationERKNS1_10TaskConfigEEUlvE_E9_M_invokeERKSt9_Any_data, %function
_ZNSt17_Function_handlerIFSt10shared_ptrIN8opendnp311IMasterTaskEEvEZN8asiodnp318MasterSessionStack17AddAllObjectsScanENS1_16GroupVariationIDEN7openpal12TimeDurationERKNS1_10TaskConfigEEUlvE_E9_M_invokeERKSt9_Any_data:
.LFB9752:
	.cfi_startproc
	stp	x29, x30, [sp, -48]!
	.cfi_def_cfa_offset 48
	.cfi_offset 29, -48
	.cfi_offset 30, -40
	adrp	x1, :got:__stack_chk_guard
	mov	x29, sp
	ldr	x4, [x0]
	ldr	x1, [x1, #:got_lo12:__stack_chk_guard]
	ldr	x2, [x4, 24]
	ldp	x6, x7, [x4, 32]
	str	x19, [sp, 16]
	.cfi_offset 19, -32
	mov	x19, x8
	ldr	x0, [x1]
	str	x0, [sp, 40]
	mov	x0, 0
	ldrh	w1, [x4, 16]
	ldr	x0, [x4]
	mov	x3, x6
	mov	x4, x7
	add	x0, x0, 96
	bl	_ZN8opendnp38MContext17AddAllObjectsScanENS_16GroupVariationIDEN7openpal12TimeDurationENS_10TaskConfigE
	adrp	x1, :got:__stack_chk_guard
	ldr	x1, [x1, #:got_lo12:__stack_chk_guard]
	ldr	x0, [sp, 40]
	ldr	x2, [x1]
	subs	x0, x0, x2
	mov	x2, 0
	bne	.L82
	mov	x0, x19
	ldr	x19, [sp, 16]
	ldp	x29, x30, [sp], 48
	.cfi_remember_state
	.cfi_restore 30
	.cfi_restore 29
	.cfi_restore 19
	.cfi_def_cfa_offset 0
	ret
.L82:
	.cfi_restore_state
	bl	__stack_chk_fail
	.cfi_endproc
.LFE9752:
	.size	_ZNSt17_Function_handlerIFSt10shared_ptrIN8opendnp311IMasterTaskEEvEZN8asiodnp318MasterSessionStack17AddAllObjectsScanENS1_16GroupVariationIDEN7openpal12TimeDurationERKNS1_10TaskConfigEEUlvE_E9_M_invokeERKSt9_Any_data, .-_ZNSt17_Function_handlerIFSt10shared_ptrIN8opendnp311IMasterTaskEEvEZN8asiodnp318MasterSessionStack17AddAllObjectsScanENS1_16GroupVariationIDEN7openpal12TimeDurationERKNS1_10TaskConfigEEUlvE_E9_M_invokeERKSt9_Any_data
	.align	2
	.p2align 4,,11
	.type	_ZNSt17_Function_handlerIFSt10shared_ptrIN8opendnp311IMasterTaskEEvEZN8asiodnp318MasterSessionStack12AddClassScanERKNS1_10ClassFieldEN7openpal12TimeDurationERKNS1_10TaskConfigEEUlvE_E9_M_invokeERKSt9_Any_data, %function
_ZNSt17_Function_handlerIFSt10shared_ptrIN8opendnp311IMasterTaskEEvEZN8asiodnp318MasterSessionStack12AddClassScanERKNS1_10ClassFieldEN7openpal12TimeDurationERKNS1_10TaskConfigEEUlvE_E9_M_invokeERKSt9_Any_data:
.LFB9756:
	.cfi_startproc
	stp	x29, x30, [sp, -48]!
	.cfi_def_cfa_offset 48
	.cfi_offset 29, -48
	.cfi_offset 30, -40
	adrp	x2, :got:__stack_chk_guard
	mov	x29, sp
	ldr	x1, [x0]
	ldr	x2, [x2, #:got_lo12:__stack_chk_guard]
	ldp	x4, x5, [x1, 32]
	str	x19, [sp, 16]
	.cfi_offset 19, -32
	mov	x19, x8
	ldr	x0, [x2]
	str	x0, [sp, 40]
	mov	x0, 0
	ldr	x2, [x1, 24]
	ldr	x0, [x1], 16
	mov	x3, x4
	mov	x4, x5
	add	x0, x0, 96
	bl	_ZN8opendnp38MContext12AddClassScanERKNS_10ClassFieldEN7openpal12TimeDurationENS_10TaskConfigE
	adrp	x1, :got:__stack_chk_guard
	ldr	x1, [x1, #:got_lo12:__stack_chk_guard]
	ldr	x0, [sp, 40]
	ldr	x2, [x1]
	subs	x0, x0, x2
	mov	x2, 0
	bne	.L86
	mov	x0, x19
	ldr	x19, [sp, 16]
	ldp	x29, x30, [sp], 48
	.cfi_remember_state
	.cfi_restore 30
	.cfi_restore 29
	.cfi_restore 19
	.cfi_def_cfa_offset 0
	ret
.L86:
	.cfi_restore_state
	bl	__stack_chk_fail
	.cfi_endproc
.LFE9756:
	.size	_ZNSt17_Function_handlerIFSt10shared_ptrIN8opendnp311IMasterTaskEEvEZN8asiodnp318MasterSessionStack12AddClassScanERKNS1_10ClassFieldEN7openpal12TimeDurationERKNS1_10TaskConfigEEUlvE_E9_M_invokeERKSt9_Any_data, .-_ZNSt17_Function_handlerIFSt10shared_ptrIN8opendnp311IMasterTaskEEvEZN8asiodnp318MasterSessionStack12AddClassScanERKNS1_10ClassFieldEN7openpal12TimeDurationERKNS1_10TaskConfigEEUlvE_E9_M_invokeERKSt9_Any_data
	.align	2
	.p2align 4,,11
	.type	_ZNSt17_Function_handlerIFSt10shared_ptrIN8opendnp311IMasterTaskEEvEZN8asiodnp318MasterSessionStack12AddRangeScanENS1_16GroupVariationIDEttN7openpal12TimeDurationERKNS1_10TaskConfigEEUlvE_E9_M_invokeERKSt9_Any_data, %function
_ZNSt17_Function_handlerIFSt10shared_ptrIN8opendnp311IMasterTaskEEvEZN8asiodnp318MasterSessionStack12AddRangeScanENS1_16GroupVariationIDEttN7openpal12TimeDurationERKNS1_10TaskConfigEEUlvE_E9_M_invokeERKSt9_Any_data:
.LFB9760:
	.cfi_startproc
	stp	x29, x30, [sp, -48]!
	.cfi_def_cfa_offset 48
	.cfi_offset 29, -48
	.cfi_offset 30, -40
	adrp	x1, :got:__stack_chk_guard
	mov	x29, sp
	ldr	x7, [x0]
	ldr	x1, [x1, #:got_lo12:__stack_chk_guard]
	ldrh	w2, [x7, 18]
	ldrh	w3, [x7, 20]
	ldr	x4, [x7, 24]
	ldp	x10, x11, [x7, 32]
	str	x19, [sp, 16]
	.cfi_offset 19, -32
	mov	x19, x8
	ldr	x0, [x1]
	str	x0, [sp, 40]
	mov	x0, 0
	ldrh	w1, [x7, 16]
	ldr	x0, [x7]
	mov	x5, x10
	mov	x6, x11
	add	x0, x0, 96
	bl	_ZN8opendnp38MContext12AddRangeScanENS_16GroupVariationIDEttN7openpal12TimeDurationENS_10TaskConfigE
	adrp	x1, :got:__stack_chk_guard
	ldr	x1, [x1, #:got_lo12:__stack_chk_guard]
	ldr	x0, [sp, 40]
	ldr	x2, [x1]
	subs	x0, x0, x2
	mov	x2, 0
	bne	.L90
	mov	x0, x19
	ldr	x19, [sp, 16]
	ldp	x29, x30, [sp], 48
	.cfi_remember_state
	.cfi_restore 30
	.cfi_restore 29
	.cfi_restore 19
	.cfi_def_cfa_offset 0
	ret
.L90:
	.cfi_restore_state
	bl	__stack_chk_fail
	.cfi_endproc
.LFE9760:
	.size	_ZNSt17_Function_handlerIFSt10shared_ptrIN8opendnp311IMasterTaskEEvEZN8asiodnp318MasterSessionStack12AddRangeScanENS1_16GroupVariationIDEttN7openpal12TimeDurationERKNS1_10TaskConfigEEUlvE_E9_M_invokeERKSt9_Any_data, .-_ZNSt17_Function_handlerIFSt10shared_ptrIN8opendnp311IMasterTaskEEvEZN8asiodnp318MasterSessionStack12AddRangeScanENS1_16GroupVariationIDEttN7openpal12TimeDurationERKNS1_10TaskConfigEEUlvE_E9_M_invokeERKSt9_Any_data
	.section	.text._ZN4asio6detail7tss_ptrINS0_10call_stackINS0_15task_io_serviceENS0_27task_io_service_thread_infoEE7contextEED2Ev,"axG",@progbits,_ZN4asio6detail7tss_ptrINS0_10call_stackINS0_15task_io_serviceENS0_27task_io_service_thread_infoEE7contextEED5Ev,comdat
	.align	2
	.p2align 4,,11
	.weak	_ZN4asio6detail7tss_ptrINS0_10call_stackINS0_15task_io_serviceENS0_27task_io_service_thread_infoEE7contextEED2Ev
	.type	_ZN4asio6detail7tss_ptrINS0_10call_stackINS0_15task_io_serviceENS0_27task_io_service_thread_infoEE7contextEED2Ev, %function
_ZN4asio6detail7tss_ptrINS0_10call_stackINS0_15task_io_serviceENS0_27task_io_service_thread_infoEE7contextEED2Ev:
.LFB11687:
	.cfi_startproc
	ldr	w0, [x0]
	b	pthread_key_delete
	.cfi_endproc
.LFE11687:
	.size	_ZN4asio6detail7tss_ptrINS0_10call_stackINS0_15task_io_serviceENS0_27task_io_service_thread_infoEE7contextEED2Ev, .-_ZN4asio6detail7tss_ptrINS0_10call_stackINS0_15task_io_serviceENS0_27task_io_service_thread_infoEE7contextEED2Ev
	.weak	_ZN4asio6detail7tss_ptrINS0_10call_stackINS0_15task_io_serviceENS0_27task_io_service_thread_infoEE7contextEED1Ev
	.set	_ZN4asio6detail7tss_ptrINS0_10call_stackINS0_15task_io_serviceENS0_27task_io_service_thread_infoEE7contextEED1Ev,_ZN4asio6detail7tss_ptrINS0_10call_stackINS0_15task_io_serviceENS0_27task_io_service_thread_infoEE7contextEED2Ev
	.section	.text._ZN4asio6detail7tss_ptrINS0_10call_stackINS0_14strand_service11strand_implEhE7contextEED2Ev,"axG",@progbits,_ZN4asio6detail7tss_ptrINS0_10call_stackINS0_14strand_service11strand_implEhE7contextEED5Ev,comdat
	.align	2
	.p2align 4,,11
	.weak	_ZN4asio6detail7tss_ptrINS0_10call_stackINS0_14strand_service11strand_implEhE7contextEED2Ev
	.type	_ZN4asio6detail7tss_ptrINS0_10call_stackINS0_14strand_service11strand_implEhE7contextEED2Ev, %function
_ZN4asio6detail7tss_ptrINS0_10call_stackINS0_14strand_service11strand_implEhE7contextEED2Ev:
.LFB11696:
	.cfi_startproc
	ldr	w0, [x0]
	b	pthread_key_delete
	.cfi_endproc
.LFE11696:
	.size	_ZN4asio6detail7tss_ptrINS0_10call_stackINS0_14strand_service11strand_implEhE7contextEED2Ev, .-_ZN4asio6detail7tss_ptrINS0_10call_stackINS0_14strand_service11strand_implEhE7contextEED2Ev
	.weak	_ZN4asio6detail7tss_ptrINS0_10call_stackINS0_14strand_service11strand_implEhE7contextEED1Ev
	.set	_ZN4asio6detail7tss_ptrINS0_10call_stackINS0_14strand_service11strand_implEhE7contextEED1Ev,_ZN4asio6detail7tss_ptrINS0_10call_stackINS0_14strand_service11strand_implEhE7contextEED2Ev
	.section	.text._ZN4asio6detail15system_categoryD2Ev,"axG",@progbits,_ZN4asio6detail15system_categoryD5Ev,comdat
	.align	2
	.p2align 4,,11
	.weak	_ZN4asio6detail15system_categoryD2Ev
	.type	_ZN4asio6detail15system_categoryD2Ev, %function
_ZN4asio6detail15system_categoryD2Ev:
.LFB11666:
	.cfi_startproc
	adrp	x1, :got:_ZTVN4asio6detail15system_categoryE
	ldr	x1, [x1, #:got_lo12:_ZTVN4asio6detail15system_categoryE]
	add	x1, x1, 16
	str	x1, [x0]
	b	_ZNSt3_V214error_categoryD2Ev
	.cfi_endproc
.LFE11666:
	.size	_ZN4asio6detail15system_categoryD2Ev, .-_ZN4asio6detail15system_categoryD2Ev
	.weak	_ZN4asio6detail15system_categoryD1Ev
	.set	_ZN4asio6detail15system_categoryD1Ev,_ZN4asio6detail15system_categoryD2Ev
	.section	.text._ZN4asio6detail15system_categoryD0Ev,"axG",@progbits,_ZN4asio6detail15system_categoryD5Ev,comdat
	.align	2
	.p2align 4,,11
	.weak	_ZN4asio6detail15system_categoryD0Ev
	.type	_ZN4asio6detail15system_categoryD0Ev, %function
_ZN4asio6detail15system_categoryD0Ev:
.LFB11668:
	.cfi_startproc
	stp	x29, x30, [sp, -32]!
	.cfi_def_cfa_offset 32
	.cfi_offset 29, -32
	.cfi_offset 30, -24
	adrp	x1, :got:_ZTVN4asio6detail15system_categoryE
	mov	x29, sp
	ldr	x1, [x1, #:got_lo12:_ZTVN4asio6detail15system_categoryE]
	str	x19, [sp, 16]
	.cfi_offset 19, -16
	mov	x19, x0
	add	x1, x1, 16
	str	x1, [x0]
	bl	_ZNSt3_V214error_categoryD2Ev
	mov	x0, x19
	mov	x1, 8
	ldr	x19, [sp, 16]
	ldp	x29, x30, [sp], 32
	.cfi_restore 30
	.cfi_restore 29
	.cfi_restore 19
	.cfi_def_cfa_offset 0
	b	_ZdlPvm
	.cfi_endproc
.LFE11668:
	.size	_ZN4asio6detail15system_categoryD0Ev, .-_ZN4asio6detail15system_categoryD0Ev
	.section	.text._ZN4asio5error6detail14netdb_categoryD2Ev,"axG",@progbits,_ZN4asio5error6detail14netdb_categoryD5Ev,comdat
	.align	2
	.p2align 4,,11
	.weak	_ZN4asio5error6detail14netdb_categoryD2Ev
	.type	_ZN4asio5error6detail14netdb_categoryD2Ev, %function
_ZN4asio5error6detail14netdb_categoryD2Ev:
.LFB11662:
	.cfi_startproc
	adrp	x1, :got:_ZTVN4asio5error6detail14netdb_categoryE
	ldr	x1, [x1, #:got_lo12:_ZTVN4asio5error6detail14netdb_categoryE]
	add	x1, x1, 16
	str	x1, [x0]
	b	_ZNSt3_V214error_categoryD2Ev
	.cfi_endproc
.LFE11662:
	.size	_ZN4asio5error6detail14netdb_categoryD2Ev, .-_ZN4asio5error6detail14netdb_categoryD2Ev
	.weak	_ZN4asio5error6detail14netdb_categoryD1Ev
	.set	_ZN4asio5error6detail14netdb_categoryD1Ev,_ZN4asio5error6detail14netdb_categoryD2Ev
	.section	.text._ZN4asio5error6detail14netdb_categoryD0Ev,"axG",@progbits,_ZN4asio5error6detail14netdb_categoryD5Ev,comdat
	.align	2
	.p2align 4,,11
	.weak	_ZN4asio5error6detail14netdb_categoryD0Ev
	.type	_ZN4asio5error6detail14netdb_categoryD0Ev, %function
_ZN4asio5error6detail14netdb_categoryD0Ev:
.LFB11664:
	.cfi_startproc
	stp	x29, x30, [sp, -32]!
	.cfi_def_cfa_offset 32
	.cfi_offset 29, -32
	.cfi_offset 30, -24
	adrp	x1, :got:_ZTVN4asio5error6detail14netdb_categoryE
	mov	x29, sp
	ldr	x1, [x1, #:got_lo12:_ZTVN4asio5error6detail14netdb_categoryE]
	str	x19, [sp, 16]
	.cfi_offset 19, -16
	mov	x19, x0
	add	x1, x1, 16
	str	x1, [x0]
	bl	_ZNSt3_V214error_categoryD2Ev
	mov	x0, x19
	mov	x1, 8
	ldr	x19, [sp, 16]
	ldp	x29, x30, [sp], 32
	.cfi_restore 30
	.cfi_restore 29
	.cfi_restore 19
	.cfi_def_cfa_offset 0
	b	_ZdlPvm
	.cfi_endproc
.LFE11664:
	.size	_ZN4asio5error6detail14netdb_categoryD0Ev, .-_ZN4asio5error6detail14netdb_categoryD0Ev
	.section	.text._ZN4asio5error6detail17addrinfo_categoryD2Ev,"axG",@progbits,_ZN4asio5error6detail17addrinfo_categoryD5Ev,comdat
	.align	2
	.p2align 4,,11
	.weak	_ZN4asio5error6detail17addrinfo_categoryD2Ev
	.type	_ZN4asio5error6detail17addrinfo_categoryD2Ev, %function
_ZN4asio5error6detail17addrinfo_categoryD2Ev:
.LFB11658:
	.cfi_startproc
	adrp	x1, :got:_ZTVN4asio5error6detail17addrinfo_categoryE
	ldr	x1, [x1, #:got_lo12:_ZTVN4asio5error6detail17addrinfo_categoryE]
	add	x1, x1, 16
	str	x1, [x0]
	b	_ZNSt3_V214error_categoryD2Ev
	.cfi_endproc
.LFE11658:
	.size	_ZN4asio5error6detail17addrinfo_categoryD2Ev, .-_ZN4asio5error6detail17addrinfo_categoryD2Ev
	.weak	_ZN4asio5error6detail17addrinfo_categoryD1Ev
	.set	_ZN4asio5error6detail17addrinfo_categoryD1Ev,_ZN4asio5error6detail17addrinfo_categoryD2Ev
	.section	.text._ZN4asio5error6detail17addrinfo_categoryD0Ev,"axG",@progbits,_ZN4asio5error6detail17addrinfo_categoryD5Ev,comdat
	.align	2
	.p2align 4,,11
	.weak	_ZN4asio5error6detail17addrinfo_categoryD0Ev
	.type	_ZN4asio5error6detail17addrinfo_categoryD0Ev, %function
_ZN4asio5error6detail17addrinfo_categoryD0Ev:
.LFB11660:
	.cfi_startproc
	stp	x29, x30, [sp, -32]!
	.cfi_def_cfa_offset 32
	.cfi_offset 29, -32
	.cfi_offset 30, -24
	adrp	x1, :got:_ZTVN4asio5error6detail17addrinfo_categoryE
	mov	x29, sp
	ldr	x1, [x1, #:got_lo12:_ZTVN4asio5error6detail17addrinfo_categoryE]
	str	x19, [sp, 16]
	.cfi_offset 19, -16
	mov	x19, x0
	add	x1, x1, 16
	str	x1, [x0]
	bl	_ZNSt3_V214error_categoryD2Ev
	mov	x0, x19
	mov	x1, 8
	ldr	x19, [sp, 16]
	ldp	x29, x30, [sp], 32
	.cfi_restore 30
	.cfi_restore 29
	.cfi_restore 19
	.cfi_def_cfa_offset 0
	b	_ZdlPvm
	.cfi_endproc
.LFE11660:
	.size	_ZN4asio5error6detail17addrinfo_categoryD0Ev, .-_ZN4asio5error6detail17addrinfo_categoryD0Ev
	.section	.text._ZN4asio5error6detail13misc_categoryD2Ev,"axG",@progbits,_ZN4asio5error6detail13misc_categoryD5Ev,comdat
	.align	2
	.p2align 4,,11
	.weak	_ZN4asio5error6detail13misc_categoryD2Ev
	.type	_ZN4asio5error6detail13misc_categoryD2Ev, %function
_ZN4asio5error6detail13misc_categoryD2Ev:
.LFB11654:
	.cfi_startproc
	adrp	x1, :got:_ZTVN4asio5error6detail13misc_categoryE
	ldr	x1, [x1, #:got_lo12:_ZTVN4asio5error6detail13misc_categoryE]
	add	x1, x1, 16
	str	x1, [x0]
	b	_ZNSt3_V214error_categoryD2Ev
	.cfi_endproc
.LFE11654:
	.size	_ZN4asio5error6detail13misc_categoryD2Ev, .-_ZN4asio5error6detail13misc_categoryD2Ev
	.weak	_ZN4asio5error6detail13misc_categoryD1Ev
	.set	_ZN4asio5error6detail13misc_categoryD1Ev,_ZN4asio5error6detail13misc_categoryD2Ev
	.section	.text._ZN4asio5error6detail13misc_categoryD0Ev,"axG",@progbits,_ZN4asio5error6detail13misc_categoryD5Ev,comdat
	.align	2
	.p2align 4,,11
	.weak	_ZN4asio5error6detail13misc_categoryD0Ev
	.type	_ZN4asio5error6detail13misc_categoryD0Ev, %function
_ZN4asio5error6detail13misc_categoryD0Ev:
.LFB11656:
	.cfi_startproc
	stp	x29, x30, [sp, -32]!
	.cfi_def_cfa_offset 32
	.cfi_offset 29, -32
	.cfi_offset 30, -24
	adrp	x1, :got:_ZTVN4asio5error6detail13misc_categoryE
	mov	x29, sp
	ldr	x1, [x1, #:got_lo12:_ZTVN4asio5error6detail13misc_categoryE]
	str	x19, [sp, 16]
	.cfi_offset 19, -16
	mov	x19, x0
	add	x1, x1, 16
	str	x1, [x0]
	bl	_ZNSt3_V214error_categoryD2Ev
	mov	x0, x19
	mov	x1, 8
	ldr	x19, [sp, 16]
	ldp	x29, x30, [sp], 32
	.cfi_restore 30
	.cfi_restore 29
	.cfi_restore 19
	.cfi_def_cfa_offset 0
	b	_ZdlPvm
	.cfi_endproc
.LFE11656:
	.size	_ZN4asio5error6detail13misc_categoryD0Ev, .-_ZN4asio5error6detail13misc_categoryD0Ev
	.section	.text._ZNSt17_Function_handlerIFSt10unique_ptrINSt13__future_base12_Result_baseENS2_8_DeleterEEvENS1_13_State_baseV27_SetterIN8opendnp315StackStatisticsEOS9_EEE10_M_managerERSt9_Any_dataRKSD_St18_Manager_operation,"axG",@progbits,_ZNSt17_Function_handlerIFSt10unique_ptrINSt13__future_base12_Result_baseENS2_8_DeleterEEvENS1_13_State_baseV27_SetterIN8opendnp315StackStatisticsEOS9_EEE10_M_managerERSt9_Any_dataRKSD_St18_Manager_operation,comdat
	.align	2
	.p2align 4,,11
	.weak	_ZNSt17_Function_handlerIFSt10unique_ptrINSt13__future_base12_Result_baseENS2_8_DeleterEEvENS1_13_State_baseV27_SetterIN8opendnp315StackStatisticsEOS9_EEE10_M_managerERSt9_Any_dataRKSD_St18_Manager_operation
	.type	_ZNSt17_Function_handlerIFSt10unique_ptrINSt13__future_base12_Result_baseENS2_8_DeleterEEvENS1_13_State_baseV27_SetterIN8opendnp315StackStatisticsEOS9_EEE10_M_managerERSt9_Any_dataRKSD_St18_Manager_operation, %function
_ZNSt17_Function_handlerIFSt10unique_ptrINSt13__future_base12_Result_baseENS2_8_DeleterEEvENS1_13_State_baseV27_SetterIN8opendnp315StackStatisticsEOS9_EEE10_M_managerERSt9_Any_dataRKSD_St18_Manager_operation:
.LFB10629:
	.cfi_startproc
	cbz	w2, .L106
	cmp	w2, 1
	beq	.L107
	cmp	w2, 2
	beq	.L111
.L109:
	mov	w0, 0
	ret
	.p2align 2,,3
.L106:
	adrp	x1, :got:_ZTINSt13__future_base13_State_baseV27_SetterIN8opendnp315StackStatisticsEOS3_EE
	ldr	x1, [x1, #:got_lo12:_ZTINSt13__future_base13_State_baseV27_SetterIN8opendnp315StackStatisticsEOS3_EE]
	str	x1, [x0]
	mov	w0, 0
	ret
	.p2align 2,,3
.L107:
	str	x1, [x0]
	mov	w0, 0
	ret
	.p2align 2,,3
.L111:
	ldp	x2, x3, [x1]
	stp	x2, x3, [x0]
	b	.L109
	.cfi_endproc
.LFE10629:
	.size	_ZNSt17_Function_handlerIFSt10unique_ptrINSt13__future_base12_Result_baseENS2_8_DeleterEEvENS1_13_State_baseV27_SetterIN8opendnp315StackStatisticsEOS9_EEE10_M_managerERSt9_Any_dataRKSD_St18_Manager_operation, .-_ZNSt17_Function_handlerIFSt10unique_ptrINSt13__future_base12_Result_baseENS2_8_DeleterEEvENS1_13_State_baseV27_SetterIN8opendnp315StackStatisticsEOS9_EEE10_M_managerERSt9_Any_dataRKSD_St18_Manager_operation
	.section	.text._ZNSt17_Function_handlerIFSt10unique_ptrINSt13__future_base12_Result_baseENS2_8_DeleterEEvENS1_13_State_baseV27_SetterISt10shared_ptrIN8opendnp311IMasterTaskEEOSB_EEE10_M_managerERSt9_Any_dataRKSF_St18_Manager_operation,"axG",@progbits,_ZNSt17_Function_handlerIFSt10unique_ptrINSt13__future_base12_Result_baseENS2_8_DeleterEEvENS1_13_State_baseV27_SetterISt10shared_ptrIN8opendnp311IMasterTaskEEOSB_EEE10_M_managerERSt9_Any_dataRKSF_St18_Manager_operation,comdat
	.align	2
	.p2align 4,,11
	.weak	_ZNSt17_Function_handlerIFSt10unique_ptrINSt13__future_base12_Result_baseENS2_8_DeleterEEvENS1_13_State_baseV27_SetterISt10shared_ptrIN8opendnp311IMasterTaskEEOSB_EEE10_M_managerERSt9_Any_dataRKSF_St18_Manager_operation
	.type	_ZNSt17_Function_handlerIFSt10unique_ptrINSt13__future_base12_Result_baseENS2_8_DeleterEEvENS1_13_State_baseV27_SetterISt10shared_ptrIN8opendnp311IMasterTaskEEOSB_EEE10_M_managerERSt9_Any_dataRKSF_St18_Manager_operation, %function
_ZNSt17_Function_handlerIFSt10unique_ptrINSt13__future_base12_Result_baseENS2_8_DeleterEEvENS1_13_State_baseV27_SetterISt10shared_ptrIN8opendnp311IMasterTaskEEOSB_EEE10_M_managerERSt9_Any_dataRKSF_St18_Manager_operation:
.LFB10663:
	.cfi_startproc
	cbz	w2, .L113
	cmp	w2, 1
	beq	.L114
	cmp	w2, 2
	beq	.L118
.L116:
	mov	w0, 0
	ret
	.p2align 2,,3
.L113:
	adrp	x1, :got:_ZTINSt13__future_base13_State_baseV27_SetterISt10shared_ptrIN8opendnp311IMasterTaskEEOS5_EE
	ldr	x1, [x1, #:got_lo12:_ZTINSt13__future_base13_State_baseV27_SetterISt10shared_ptrIN8opendnp311IMasterTaskEEOS5_EE]
	str	x1, [x0]
	mov	w0, 0
	ret
	.p2align 2,,3
.L114:
	str	x1, [x0]
	mov	w0, 0
	ret
	.p2align 2,,3
.L118:
	ldp	x2, x3, [x1]
	stp	x2, x3, [x0]
	b	.L116
	.cfi_endproc
.LFE10663:
	.size	_ZNSt17_Function_handlerIFSt10unique_ptrINSt13__future_base12_Result_baseENS2_8_DeleterEEvENS1_13_State_baseV27_SetterISt10shared_ptrIN8opendnp311IMasterTaskEEOSB_EEE10_M_managerERSt9_Any_dataRKSF_St18_Manager_operation, .-_ZNSt17_Function_handlerIFSt10unique_ptrINSt13__future_base12_Result_baseENS2_8_DeleterEEvENS1_13_State_baseV27_SetterISt10shared_ptrIN8opendnp311IMasterTaskEEOSB_EEE10_M_managerERSt9_Any_dataRKSF_St18_Manager_operation
	.section	.text._ZNSt13__future_base7_ResultIN8opendnp315StackStatisticsEE10_M_destroyEv,"axG",@progbits,_ZNSt13__future_base7_ResultIN8opendnp315StackStatisticsEE10_M_destroyEv,comdat
	.align	2
	.p2align 4,,11
	.weak	_ZNSt13__future_base7_ResultIN8opendnp315StackStatisticsEE10_M_destroyEv
	.type	_ZNSt13__future_base7_ResultIN8opendnp315StackStatisticsEE10_M_destroyEv, %function
_ZNSt13__future_base7_ResultIN8opendnp315StackStatisticsEE10_M_destroyEv:
.LFB11833:
	.cfi_startproc
	ldr	x2, [x0]
	adrp	x1, :got:_ZNSt13__future_base7_ResultIN8opendnp315StackStatisticsEED0Ev
	ldr	x1, [x1, #:got_lo12:_ZNSt13__future_base7_ResultIN8opendnp315StackStatisticsEED0Ev]
	ldr	x2, [x2, 16]
	cmp	x2, x1
	bne	.L120
	stp	x29, x30, [sp, -32]!
	.cfi_def_cfa_offset 32
	.cfi_offset 29, -32
	.cfi_offset 30, -24
	adrp	x1, :got:_ZTVNSt13__future_base7_ResultIN8opendnp315StackStatisticsEEE
	mov	x29, sp
	ldr	x1, [x1, #:got_lo12:_ZTVNSt13__future_base7_ResultIN8opendnp315StackStatisticsEEE]
	str	x19, [sp, 16]
	.cfi_offset 19, -16
	mov	x19, x0
	add	x1, x1, 16
	str	x1, [x0]
	bl	_ZNSt13__future_base12_Result_baseD2Ev
	mov	x0, x19
	mov	x1, 64
	ldr	x19, [sp, 16]
	ldp	x29, x30, [sp], 32
	.cfi_restore 30
	.cfi_restore 29
	.cfi_restore 19
	.cfi_def_cfa_offset 0
	b	_ZdlPvm
	.p2align 2,,3
.L120:
	mov	x16, x2
	br	x16
	.cfi_endproc
.LFE11833:
	.size	_ZNSt13__future_base7_ResultIN8opendnp315StackStatisticsEE10_M_destroyEv, .-_ZNSt13__future_base7_ResultIN8opendnp315StackStatisticsEE10_M_destroyEv
	.section	.text._ZNSt23_Sp_counted_ptr_inplaceIN8opendnp310CommandSetESaIS1_ELN9__gnu_cxx12_Lock_policyE2EE14_M_get_deleterERKSt9type_info,"axG",@progbits,_ZNSt23_Sp_counted_ptr_inplaceIN8opendnp310CommandSetESaIS1_ELN9__gnu_cxx12_Lock_policyE2EE14_M_get_deleterERKSt9type_info,comdat
	.align	2
	.p2align 4,,11
	.weak	_ZNSt23_Sp_counted_ptr_inplaceIN8opendnp310CommandSetESaIS1_ELN9__gnu_cxx12_Lock_policyE2EE14_M_get_deleterERKSt9type_info
	.type	_ZNSt23_Sp_counted_ptr_inplaceIN8opendnp310CommandSetESaIS1_ELN9__gnu_cxx12_Lock_policyE2EE14_M_get_deleterERKSt9type_info, %function
_ZNSt23_Sp_counted_ptr_inplaceIN8opendnp310CommandSetESaIS1_ELN9__gnu_cxx12_Lock_policyE2EE14_M_get_deleterERKSt9type_info:
.LFB11771:
	.cfi_startproc
	stp	x29, x30, [sp, -32]!
	.cfi_def_cfa_offset 32
	.cfi_offset 29, -32
	.cfi_offset 30, -24
	adrp	x2, :got:_ZZNSt19_Sp_make_shared_tag5_S_tiEvE5__tag
	mov	x29, sp
	ldr	x2, [x2, #:got_lo12:_ZZNSt19_Sp_make_shared_tag5_S_tiEvE5__tag]
	str	x19, [sp, 16]
	.cfi_offset 19, -16
	add	x19, x0, 16
	cmp	x1, x2
	beq	.L124
	adrp	x2, :got:_ZTSSt19_Sp_make_shared_tag
	ldr	x0, [x1, 8]
	ldr	x1, [x2, #:got_lo12:_ZTSSt19_Sp_make_shared_tag]
	cmp	x0, x1
	beq	.L124
	ldrb	w2, [x0]
	cmp	w2, 42
	beq	.L126
	bl	strcmp
	cmp	w0, 0
	csel	x19, x19, xzr, eq
.L124:
	mov	x0, x19
	ldr	x19, [sp, 16]
	ldp	x29, x30, [sp], 32
	.cfi_remember_state
	.cfi_restore 30
	.cfi_restore 29
	.cfi_restore 19
	.cfi_def_cfa_offset 0
	ret
	.p2align 2,,3
.L126:
	.cfi_restore_state
	mov	x19, 0
	mov	x0, x19
	ldr	x19, [sp, 16]
	ldp	x29, x30, [sp], 32
	.cfi_restore 30
	.cfi_restore 29
	.cfi_restore 19
	.cfi_def_cfa_offset 0
	ret
	.cfi_endproc
.LFE11771:
	.size	_ZNSt23_Sp_counted_ptr_inplaceIN8opendnp310CommandSetESaIS1_ELN9__gnu_cxx12_Lock_policyE2EE14_M_get_deleterERKSt9type_info, .-_ZNSt23_Sp_counted_ptr_inplaceIN8opendnp310CommandSetESaIS1_ELN9__gnu_cxx12_Lock_policyE2EE14_M_get_deleterERKSt9type_info
	.section	.text._ZNSt23_Sp_counted_ptr_inplaceIN8asiodnp318MasterSessionStackESaIS1_ELN9__gnu_cxx12_Lock_policyE2EE14_M_get_deleterERKSt9type_info,"axG",@progbits,_ZNSt23_Sp_counted_ptr_inplaceIN8asiodnp318MasterSessionStackESaIS1_ELN9__gnu_cxx12_Lock_policyE2EE14_M_get_deleterERKSt9type_info,comdat
	.align	2
	.p2align 4,,11
	.weak	_ZNSt23_Sp_counted_ptr_inplaceIN8asiodnp318MasterSessionStackESaIS1_ELN9__gnu_cxx12_Lock_policyE2EE14_M_get_deleterERKSt9type_info
	.type	_ZNSt23_Sp_counted_ptr_inplaceIN8asiodnp318MasterSessionStackESaIS1_ELN9__gnu_cxx12_Lock_policyE2EE14_M_get_deleterERKSt9type_info, %function
_ZNSt23_Sp_counted_ptr_inplaceIN8asiodnp318MasterSessionStackESaIS1_ELN9__gnu_cxx12_Lock_policyE2EE14_M_get_deleterERKSt9type_info:
.LFB11778:
	.cfi_startproc
	stp	x29, x30, [sp, -32]!
	.cfi_def_cfa_offset 32
	.cfi_offset 29, -32
	.cfi_offset 30, -24
	adrp	x2, :got:_ZZNSt19_Sp_make_shared_tag5_S_tiEvE5__tag
	mov	x29, sp
	ldr	x2, [x2, #:got_lo12:_ZZNSt19_Sp_make_shared_tag5_S_tiEvE5__tag]
	str	x19, [sp, 16]
	.cfi_offset 19, -16
	add	x19, x0, 16
	cmp	x1, x2
	beq	.L129
	adrp	x2, :got:_ZTSSt19_Sp_make_shared_tag
	ldr	x0, [x1, 8]
	ldr	x1, [x2, #:got_lo12:_ZTSSt19_Sp_make_shared_tag]
	cmp	x0, x1
	beq	.L129
	ldrb	w2, [x0]
	cmp	w2, 42
	beq	.L131
	bl	strcmp
	cmp	w0, 0
	csel	x19, x19, xzr, eq
.L129:
	mov	x0, x19
	ldr	x19, [sp, 16]
	ldp	x29, x30, [sp], 32
	.cfi_remember_state
	.cfi_restore 30
	.cfi_restore 29
	.cfi_restore 19
	.cfi_def_cfa_offset 0
	ret
	.p2align 2,,3
.L131:
	.cfi_restore_state
	mov	x19, 0
	mov	x0, x19
	ldr	x19, [sp, 16]
	ldp	x29, x30, [sp], 32
	.cfi_restore 30
	.cfi_restore 29
	.cfi_restore 19
	.cfi_def_cfa_offset 0
	ret
	.cfi_endproc
.LFE11778:
	.size	_ZNSt23_Sp_counted_ptr_inplaceIN8asiodnp318MasterSessionStackESaIS1_ELN9__gnu_cxx12_Lock_policyE2EE14_M_get_deleterERKSt9type_info, .-_ZNSt23_Sp_counted_ptr_inplaceIN8asiodnp318MasterSessionStackESaIS1_ELN9__gnu_cxx12_Lock_policyE2EE14_M_get_deleterERKSt9type_info
	.section	.text._ZNSt23_Sp_counted_ptr_inplaceINSt13__future_base13_State_baseV2ESaIS1_ELN9__gnu_cxx12_Lock_policyE2EE14_M_get_deleterERKSt9type_info,"axG",@progbits,_ZNSt23_Sp_counted_ptr_inplaceINSt13__future_base13_State_baseV2ESaIS1_ELN9__gnu_cxx12_Lock_policyE2EE14_M_get_deleterERKSt9type_info,comdat
	.align	2
	.p2align 4,,11
	.weak	_ZNSt23_Sp_counted_ptr_inplaceINSt13__future_base13_State_baseV2ESaIS1_ELN9__gnu_cxx12_Lock_policyE2EE14_M_get_deleterERKSt9type_info
	.type	_ZNSt23_Sp_counted_ptr_inplaceINSt13__future_base13_State_baseV2ESaIS1_ELN9__gnu_cxx12_Lock_policyE2EE14_M_get_deleterERKSt9type_info, %function
_ZNSt23_Sp_counted_ptr_inplaceINSt13__future_base13_State_baseV2ESaIS1_ELN9__gnu_cxx12_Lock_policyE2EE14_M_get_deleterERKSt9type_info:
.LFB11799:
	.cfi_startproc
	stp	x29, x30, [sp, -32]!
	.cfi_def_cfa_offset 32
	.cfi_offset 29, -32
	.cfi_offset 30, -24
	adrp	x2, :got:_ZZNSt19_Sp_make_shared_tag5_S_tiEvE5__tag
	mov	x29, sp
	ldr	x2, [x2, #:got_lo12:_ZZNSt19_Sp_make_shared_tag5_S_tiEvE5__tag]
	str	x19, [sp, 16]
	.cfi_offset 19, -16
	add	x19, x0, 16
	cmp	x1, x2
	beq	.L134
	adrp	x2, :got:_ZTSSt19_Sp_make_shared_tag
	ldr	x0, [x1, 8]
	ldr	x1, [x2, #:got_lo12:_ZTSSt19_Sp_make_shared_tag]
	cmp	x0, x1
	beq	.L134
	ldrb	w2, [x0]
	cmp	w2, 42
	beq	.L136
	bl	strcmp
	cmp	w0, 0
	csel	x19, x19, xzr, eq
.L134:
	mov	x0, x19
	ldr	x19, [sp, 16]
	ldp	x29, x30, [sp], 32
	.cfi_remember_state
	.cfi_restore 30
	.cfi_restore 29
	.cfi_restore 19
	.cfi_def_cfa_offset 0
	ret
	.p2align 2,,3
.L136:
	.cfi_restore_state
	mov	x19, 0
	mov	x0, x19
	ldr	x19, [sp, 16]
	ldp	x29, x30, [sp], 32
	.cfi_restore 30
	.cfi_restore 29
	.cfi_restore 19
	.cfi_def_cfa_offset 0
	ret
	.cfi_endproc
.LFE11799:
	.size	_ZNSt23_Sp_counted_ptr_inplaceINSt13__future_base13_State_baseV2ESaIS1_ELN9__gnu_cxx12_Lock_policyE2EE14_M_get_deleterERKSt9type_info, .-_ZNSt23_Sp_counted_ptr_inplaceINSt13__future_base13_State_baseV2ESaIS1_ELN9__gnu_cxx12_Lock_policyE2EE14_M_get_deleterERKSt9type_info
	.global	__aarch64_swp4_sync
	.text
	.align	2
	.p2align 4,,11
	.type	_ZN4asio6detail18completion_handlerIZN8asiodnp318MasterSessionStack13SetLogFiltersERKN7openpal10LogFiltersEEUlvE_E11do_completeEPNS0_15task_io_serviceEPNS0_25task_io_service_operationERKSt10error_codem, %function
_ZN4asio6detail18completion_handlerIZN8asiodnp318MasterSessionStack13SetLogFiltersERKN7openpal10LogFiltersEEUlvE_E11do_completeEPNS0_15task_io_serviceEPNS0_25task_io_service_operationERKSt10error_codem:
.LFB10600:
	.cfi_startproc
	.cfi_personality 0x9b,DW.ref.__gxx_personality_v0
	.cfi_lsda 0x1b,.LLSDA10600
	stp	x29, x30, [sp, -64]!
	.cfi_def_cfa_offset 64
	.cfi_offset 29, -64
	.cfi_offset 30, -56
	adrp	x3, :got:_ZN4asio6detail10call_stackINS0_15task_io_serviceENS0_27task_io_service_thread_infoEE4top_E
	adrp	x2, :got:__stack_chk_guard
	mov	x29, sp
	ldr	x3, [x3, #:got_lo12:_ZN4asio6detail10call_stackINS0_15task_io_serviceENS0_27task_io_service_thread_infoEE4top_E]
	stp	x19, x20, [sp, 16]
	.cfi_offset 19, -48
	.cfi_offset 20, -40
	mov	x20, x0
	ldr	x2, [x2, #:got_lo12:__stack_chk_guard]
	stp	x21, x22, [sp, 32]
	.cfi_offset 21, -32
	.cfi_offset 22, -24
	ldr	w0, [x3]
	mov	x19, x1
	ldr	x1, [x2]
	str	x1, [sp, 56]
	mov	x1, 0
	ldp	x21, x22, [x19, 24]
	bl	pthread_getspecific
	cbz	x0, .L140
	ldr	x0, [x0, 8]
	cbz	x0, .L140
	ldr	x1, [x0]
	cbz	x1, .L157
.L140:
	mov	x0, x19
	bl	_ZdlPv
.L141:
	cbz	x20, .L142
	add	x19, sp, 48
	mov	w0, 1
	mov	x1, x19
	str	wzr, [sp, 48]
	bl	__aarch64_swp4_sync
	ldr	x0, [x21, 48]
	mov	w1, w22
.LEHB2:
	bl	_ZN8asiodnp311LinkSession13SetLogFiltersEN7openpal10LogFiltersE
.LEHE2:
	stlr	wzr, [x19]
.L142:
	adrp	x0, :got:__stack_chk_guard
	ldr	x0, [x0, #:got_lo12:__stack_chk_guard]
	ldr	x2, [sp, 56]
	ldr	x1, [x0]
	subs	x2, x2, x1
	mov	x1, 0
	bne	.L158
	ldp	x19, x20, [sp, 16]
	ldp	x21, x22, [sp, 32]
	ldp	x29, x30, [sp], 64
	.cfi_remember_state
	.cfi_restore 30
	.cfi_restore 29
	.cfi_restore 21
	.cfi_restore 22
	.cfi_restore 19
	.cfi_restore 20
	.cfi_def_cfa_offset 0
	ret
	.p2align 2,,3
.L157:
	.cfi_restore_state
	ldrb	w1, [x19, 40]
	strb	w1, [x19]
	str	x19, [x0]
	b	.L141
.L158:
	bl	__stack_chk_fail
.L145:
	stlr	wzr, [x19]
.LEHB3:
	bl	_Unwind_Resume
.LEHE3:
	.cfi_endproc
.LFE10600:
	.section	.gcc_except_table,"a",@progbits
.LLSDA10600:
	.byte	0xff
	.byte	0xff
	.byte	0x1
	.uleb128 .LLSDACSE10600-.LLSDACSB10600
.LLSDACSB10600:
	.uleb128 .LEHB2-.LFB10600
	.uleb128 .LEHE2-.LEHB2
	.uleb128 .L145-.LFB10600
	.uleb128 0
	.uleb128 .LEHB3-.LFB10600
	.uleb128 .LEHE3-.LEHB3
	.uleb128 0
	.uleb128 0
.LLSDACSE10600:
	.text
	.size	_ZN4asio6detail18completion_handlerIZN8asiodnp318MasterSessionStack13SetLogFiltersERKN7openpal10LogFiltersEEUlvE_E11do_completeEPNS0_15task_io_serviceEPNS0_25task_io_service_operationERKSt10error_codem, .-_ZN4asio6detail18completion_handlerIZN8asiodnp318MasterSessionStack13SetLogFiltersERKN7openpal10LogFiltersEEUlvE_E11do_completeEPNS0_15task_io_serviceEPNS0_25task_io_service_operationERKSt10error_codem
	.global	__aarch64_swp4_rel
	.section	.text._ZN4asio6detail18completion_handlerIZN7asiopal8Executor10ReturnFromIN8opendnp315StackStatisticsEEET_RKSt8functionIFS7_vEEEUlvE_E11do_completeEPNS0_15task_io_serviceEPNS0_25task_io_service_operationERKSt10error_codem,"axG",@progbits,_ZN4asio6detail18completion_handlerIZN7asiopal8Executor10ReturnFromIN8opendnp315StackStatisticsEEET_RKSt8functionIFS7_vEEEUlvE_E11do_completeEPNS0_15task_io_serviceEPNS0_25task_io_service_operationERKSt10error_codem,comdat
	.align	2
	.p2align 4,,11
	.weak	_ZN4asio6detail18completion_handlerIZN7asiopal8Executor10ReturnFromIN8opendnp315StackStatisticsEEET_RKSt8functionIFS7_vEEEUlvE_E11do_completeEPNS0_15task_io_serviceEPNS0_25task_io_service_operationERKSt10error_codem
	.type	_ZN4asio6detail18completion_handlerIZN7asiopal8Executor10ReturnFromIN8opendnp315StackStatisticsEEET_RKSt8functionIFS7_vEEEUlvE_E11do_completeEPNS0_15task_io_serviceEPNS0_25task_io_service_operationERKSt10error_codem, %function
_ZN4asio6detail18completion_handlerIZN7asiopal8Executor10ReturnFromIN8opendnp315StackStatisticsEEET_RKSt8functionIFS7_vEEEUlvE_E11do_completeEPNS0_15task_io_serviceEPNS0_25task_io_service_operationERKSt10error_codem:
.LFB10895:
	.cfi_startproc
	.cfi_personality 0x9b,DW.ref.__gxx_personality_v0
	.cfi_lsda 0x1b,.LLSDA10895
	stp	x29, x30, [sp, -240]!
	.cfi_def_cfa_offset 240
	.cfi_offset 29, -240
	.cfi_offset 30, -232
	adrp	x3, :got:_ZN4asio6detail10call_stackINS0_15task_io_serviceENS0_27task_io_service_thread_infoEE4top_E
	adrp	x2, :got:__stack_chk_guard
	mov	x29, sp
	ldr	x3, [x3, #:got_lo12:_ZN4asio6detail10call_stackINS0_15task_io_serviceENS0_27task_io_service_thread_infoEE4top_E]
	stp	x19, x20, [sp, 16]
	.cfi_offset 19, -224
	.cfi_offset 20, -216
	mov	x20, x0
	ldr	x2, [x2, #:got_lo12:__stack_chk_guard]
	stp	x21, x22, [sp, 32]
	ldr	w0, [x3]
	stp	x23, x24, [sp, 48]
	.cfi_offset 21, -208
	.cfi_offset 22, -200
	.cfi_offset 23, -192
	.cfi_offset 24, -184
	mov	x19, x1
	ldr	x1, [x2]
	str	x1, [sp, 232]
	mov	x1, 0
	ldp	x21, x24, [x19, 24]
	bl	pthread_getspecific
	cbz	x0, .L160
	ldr	x0, [x0, 8]
	cbz	x0, .L160
	ldr	x1, [x0]
	cbz	x1, .L194
.L160:
	mov	x0, x19
	bl	_ZdlPv
.L161:
	cbz	x20, .L159
	add	x22, sp, 80
	mov	w0, 1
	mov	x1, x22
	str	wzr, [sp, 80]
	bl	__aarch64_swp4_sync
	ldr	x0, [x24, 16]
	cbz	x0, .L195
	ldr	x1, [x24, 24]
	add	x23, sp, 160
	mov	x8, x23
	mov	x0, x24
.LEHB4:
	blr	x1
.LEHE4:
	ldr	x19, [x21]
	cbz	x19, .L196
	adrp	x0, :tlsdesc:_ZSt15__once_callable
	ldr	x6, [x0, #:tlsdesc_lo12:_ZSt15__once_callable]
	add	x0, x0, :tlsdesc_lo12:_ZSt15__once_callable
	.tlsdesccall	_ZSt15__once_callable
	blr	x6
	mrs	x20, tpidr_el0
	add	x6, sp, 128
	adrp	x5, :got:_ZNSt13__future_base13_State_baseV29_M_do_setEPSt8functionIFSt10unique_ptrINS_12_Result_baseENS3_8_DeleterEEvEEPb
	adrp	x1, :got:__once_proxy
	adrp	x2, :got:_ZZNSt9once_flag18_Prepare_executionC4IZSt9call_onceIMNSt13__future_base13_State_baseV2EFvPSt8functionIFSt10unique_ptrINS3_12_Result_baseENS7_8_DeleterEEvEEPbEJPS4_SC_SD_EEvRS_OT_DpOT0_EUlvE_EERSI_ENUlvE_4_FUNEv
	adrp	x3, :got:_ZNSt17_Function_handlerIFSt10unique_ptrINSt13__future_base12_Result_baseENS2_8_DeleterEEvENS1_13_State_baseV27_SetterIN8opendnp315StackStatisticsEOS9_EEE9_M_invokeERKSt9_Any_data
	adrp	x4, :got:_ZNSt17_Function_handlerIFSt10unique_ptrINSt13__future_base12_Result_baseENS2_8_DeleterEEvENS1_13_State_baseV27_SetterIN8opendnp315StackStatisticsEOS9_EEE10_M_managerERSt9_Any_dataRKSD_St18_Manager_operation
	ldr	x9, [x5, #:got_lo12:_ZNSt13__future_base13_State_baseV29_M_do_setEPSt8functionIFSt10unique_ptrINS_12_Result_baseENS3_8_DeleterEEvEEPb]
	str	x6, [x20, x0]
	ldr	x2, [x2, #:got_lo12:_ZZNSt9once_flag18_Prepare_executionC4IZSt9call_onceIMNSt13__future_base13_State_baseV2EFvPSt8functionIFSt10unique_ptrINS3_12_Result_baseENS7_8_DeleterEEvEEPbEJPS4_SC_SD_EEvRS_OT_DpOT0_EUlvE_EERSI_ENUlvE_4_FUNEv]
	adrp	x0, :tlsdesc:_ZSt11__once_call
	ldr	x6, [x0, #:tlsdesc_lo12:_ZSt11__once_call]
	add	x0, x0, :tlsdesc_lo12:_ZSt11__once_call
	.tlsdesccall	_ZSt11__once_call
	blr	x6
	ldr	x3, [x3, #:got_lo12:_ZNSt17_Function_handlerIFSt10unique_ptrINSt13__future_base12_Result_baseENS2_8_DeleterEEvENS1_13_State_baseV27_SetterIN8opendnp315StackStatisticsEOS9_EEE9_M_invokeERKSt9_Any_data]
	add	x10, sp, 79
	ldr	x4, [x4, #:got_lo12:_ZNSt17_Function_handlerIFSt10unique_ptrINSt13__future_base12_Result_baseENS2_8_DeleterEEvENS1_13_State_baseV27_SetterIN8opendnp315StackStatisticsEOS9_EEE10_M_managerERSt9_Any_dataRKSD_St18_Manager_operation]
	add	x8, sp, 112
	ldr	x1, [x1, #:got_lo12:__once_proxy]
	add	x7, sp, 104
	add	x6, sp, 96
	add	x5, sp, 88
	add	x24, sp, 200
	str	x2, [x20, x0]
	add	x0, x19, 24
	strb	wzr, [sp, 79]
	stp	x10, x24, [sp, 88]
	stp	x19, x9, [sp, 104]
	stp	xzr, x8, [sp, 120]
	stp	x7, x6, [sp, 136]
	str	x5, [sp, 152]
	stp	x21, x23, [sp, 200]
	stp	x4, x3, [sp, 216]
.LEHB5:
	bl	pthread_once
.LEHE5:
	cbnz	w0, .L197
	ldrb	w1, [sp, 79]
	adrp	x0, :tlsdesc:_ZSt15__once_callable
	ldr	x2, [x0, #:tlsdesc_lo12:_ZSt15__once_callable]
	add	x0, x0, :tlsdesc_lo12:_ZSt15__once_callable
	.tlsdesccall	_ZSt15__once_callable
	blr	x2
	str	xzr, [x20, x0]
	adrp	x0, :tlsdesc:_ZSt11__once_call
	ldr	x2, [x0, #:tlsdesc_lo12:_ZSt11__once_call]
	add	x0, x0, :tlsdesc_lo12:_ZSt11__once_call
	.tlsdesccall	_ZSt11__once_call
	blr	x2
	str	xzr, [x20, x0]
	cbnz	w1, .L198
	mov	w0, 2
.LEHB6:
	bl	_ZSt20__throw_future_errori
.LEHE6:
	.p2align 2,,3
.L198:
	add	x19, x19, 16
	mov	w0, 1
	mov	x1, x19
	bl	__aarch64_swp4_rel
	tbnz	w0, #31, .L170
.L173:
	ldr	x3, [sp, 216]
	cbz	x3, .L172
	mov	x1, x24
	mov	x0, x24
	mov	w2, 3
	blr	x3
.L172:
	stlr	wzr, [x22]
.L159:
	adrp	x0, :got:__stack_chk_guard
	ldr	x0, [x0, #:got_lo12:__stack_chk_guard]
	ldr	x2, [sp, 232]
	ldr	x1, [x0]
	subs	x2, x2, x1
	mov	x1, 0
	bne	.L199
	ldp	x19, x20, [sp, 16]
	ldp	x21, x22, [sp, 32]
	ldp	x23, x24, [sp, 48]
	ldp	x29, x30, [sp], 240
	.cfi_remember_state
	.cfi_restore 30
	.cfi_restore 29
	.cfi_restore 23
	.cfi_restore 24
	.cfi_restore 21
	.cfi_restore 22
	.cfi_restore 19
	.cfi_restore 20
	.cfi_def_cfa_offset 0
	ret
	.p2align 2,,3
.L170:
	.cfi_restore_state
	mov	x0, x19
.LEHB7:
	bl	_ZNSt28__atomic_futex_unsigned_base19_M_futex_notify_allEPj
.LEHE7:
	b	.L173
	.p2align 2,,3
.L194:
	ldrb	w1, [x19, 40]
	strb	w1, [x19]
	str	x19, [x0]
	b	.L161
.L195:
.LEHB8:
	bl	_ZSt25__throw_bad_function_callv
.LEHE8:
.L197:
.LEHB9:
	bl	_ZSt20__throw_system_errori
.LEHE9:
.L196:
	mov	w0, 3
.LEHB10:
	bl	_ZSt20__throw_future_errori
.LEHE10:
.L199:
	bl	__stack_chk_fail
.L178:
	mov	x19, x0
.L169:
	ldr	x3, [sp, 216]
	cbz	x3, .L174
	mov	x1, x24
	mov	x0, x24
	mov	w2, 3
	blr	x3
.L174:
	mov	x0, x19
.L175:
	stlr	wzr, [x22]
.LEHB11:
	bl	_Unwind_Resume
.LEHE11:
.L179:
	mov	x19, x0
	adrp	x0, :tlsdesc:_ZSt15__once_callable
	ldr	x1, [x0, #:tlsdesc_lo12:_ZSt15__once_callable]
	add	x0, x0, :tlsdesc_lo12:_ZSt15__once_callable
	.tlsdesccall	_ZSt15__once_callable
	blr	x1
	str	xzr, [x20, x0]
	adrp	x0, :tlsdesc:_ZSt11__once_call
	ldr	x1, [x0, #:tlsdesc_lo12:_ZSt11__once_call]
	add	x0, x0, :tlsdesc_lo12:_ZSt11__once_call
	.tlsdesccall	_ZSt11__once_call
	blr	x1
	str	xzr, [x20, x0]
	b	.L169
.L177:
	b	.L175
	.cfi_endproc
.LFE10895:
	.section	.gcc_except_table
.LLSDA10895:
	.byte	0xff
	.byte	0xff
	.byte	0x1
	.uleb128 .LLSDACSE10895-.LLSDACSB10895
.LLSDACSB10895:
	.uleb128 .LEHB4-.LFB10895
	.uleb128 .LEHE4-.LEHB4
	.uleb128 .L177-.LFB10895
	.uleb128 0
	.uleb128 .LEHB5-.LFB10895
	.uleb128 .LEHE5-.LEHB5
	.uleb128 .L179-.LFB10895
	.uleb128 0
	.uleb128 .LEHB6-.LFB10895
	.uleb128 .LEHE6-.LEHB6
	.uleb128 .L178-.LFB10895
	.uleb128 0
	.uleb128 .LEHB7-.LFB10895
	.uleb128 .LEHE7-.LEHB7
	.uleb128 .L178-.LFB10895
	.uleb128 0
	.uleb128 .LEHB8-.LFB10895
	.uleb128 .LEHE8-.LEHB8
	.uleb128 .L177-.LFB10895
	.uleb128 0
	.uleb128 .LEHB9-.LFB10895
	.uleb128 .LEHE9-.LEHB9
	.uleb128 .L179-.LFB10895
	.uleb128 0
	.uleb128 .LEHB10-.LFB10895
	.uleb128 .LEHE10-.LEHB10
	.uleb128 .L177-.LFB10895
	.uleb128 0
	.uleb128 .LEHB11-.LFB10895
	.uleb128 .LEHE11-.LEHB11
	.uleb128 0
	.uleb128 0
.LLSDACSE10895:
	.section	.text._ZN4asio6detail18completion_handlerIZN7asiopal8Executor10ReturnFromIN8opendnp315StackStatisticsEEET_RKSt8functionIFS7_vEEEUlvE_E11do_completeEPNS0_15task_io_serviceEPNS0_25task_io_service_operationERKSt10error_codem,"axG",@progbits,_ZN4asio6detail18completion_handlerIZN7asiopal8Executor10ReturnFromIN8opendnp315StackStatisticsEEET_RKSt8functionIFS7_vEEEUlvE_E11do_completeEPNS0_15task_io_serviceEPNS0_25task_io_service_operationERKSt10error_codem,comdat
	.size	_ZN4asio6detail18completion_handlerIZN7asiopal8Executor10ReturnFromIN8opendnp315StackStatisticsEEET_RKSt8functionIFS7_vEEEUlvE_E11do_completeEPNS0_15task_io_serviceEPNS0_25task_io_service_operationERKSt10error_codem, .-_ZN4asio6detail18completion_handlerIZN7asiopal8Executor10ReturnFromIN8opendnp315StackStatisticsEEET_RKSt8functionIFS7_vEEEUlvE_E11do_completeEPNS0_15task_io_serviceEPNS0_25task_io_service_operationERKSt10error_codem
	.section	.rodata._ZNK4asio6detail15system_category7messageB5cxx11Ei.str1.8,"aMS",@progbits,1
	.align	3
.LC4:
	.string	"Operation aborted."
	.align	3
.LC5:
	.string	"basic_string::_M_construct null not valid"
	.section	.text._ZNK4asio6detail15system_category7messageB5cxx11Ei,"axG",@progbits,_ZNK4asio6detail15system_category7messageB5cxx11Ei,comdat
	.align	2
	.p2align 4,,11
	.weak	_ZNK4asio6detail15system_category7messageB5cxx11Ei
	.type	_ZNK4asio6detail15system_category7messageB5cxx11Ei, %function
_ZNK4asio6detail15system_category7messageB5cxx11Ei:
.LFB3346:
	.cfi_startproc
	stp	x29, x30, [sp, -320]!
	.cfi_def_cfa_offset 320
	.cfi_offset 29, -320
	.cfi_offset 30, -312
	adrp	x0, :got:__stack_chk_guard
	mov	x29, sp
	ldr	x2, [x0, #:got_lo12:__stack_chk_guard]
	stp	x19, x20, [sp, 16]
	mov	w0, w1
	stp	x21, x22, [sp, 32]
	.cfi_offset 19, -304
	.cfi_offset 20, -296
	.cfi_offset 21, -288
	.cfi_offset 22, -280
	mov	x19, x8
	add	x21, x8, 16
	ldr	x1, [x2]
	str	x1, [sp, 312]
	mov	x1, 0
	cmp	w0, 125
	beq	.L215
	movi	v0.4s, 0
	add	x3, sp, 72
	add	x1, sp, 56
	mov	x2, 256
	stp	xzr, xzr, [sp, 56]
	stp	q0, q0, [x3]
	stp	q0, q0, [x3, 32]
	stp	q0, q0, [x3, 64]
	stp	q0, q0, [x3, 96]
	stp	q0, q0, [x3, 128]
	stp	q0, q0, [x3, 160]
	stp	q0, q0, [x3, 192]
	str	q0, [x3, 224]
	bl	strerror_r
	mov	x22, x0
	str	x21, [x19]
	cbz	x0, .L203
	bl	strlen
	str	x0, [sp, 48]
	mov	x20, x0
	cmp	x0, 15
	bhi	.L216
	cmp	x0, 1
	bne	.L207
	ldrb	w0, [x22]
	strb	w0, [x19, 16]
.L208:
	str	x20, [x19, 8]
	strb	wzr, [x21, x20]
.L200:
	adrp	x0, :got:__stack_chk_guard
	ldr	x0, [x0, #:got_lo12:__stack_chk_guard]
	ldr	x2, [sp, 312]
	ldr	x1, [x0]
	subs	x2, x2, x1
	mov	x1, 0
	bne	.L217
	mov	x0, x19
	ldp	x19, x20, [sp, 16]
	ldp	x21, x22, [sp, 32]
	ldp	x29, x30, [sp], 320
	.cfi_remember_state
	.cfi_restore 30
	.cfi_restore 29
	.cfi_restore 21
	.cfi_restore 22
	.cfi_restore 19
	.cfi_restore 20
	.cfi_def_cfa_offset 0
	ret
	.p2align 2,,3
.L216:
	.cfi_restore_state
	add	x1, sp, 48
	mov	x0, x19
	mov	x2, 0
	bl	_ZNSt7__cxx1112basic_stringIcSt11char_traitsIcESaIcEE9_M_createERmm
	mov	x21, x0
	str	x0, [x19]
	ldr	x1, [sp, 48]
	str	x1, [x19, 16]
.L206:
	mov	x2, x20
	mov	x0, x21
	mov	x1, x22
	bl	memcpy
	ldr	x21, [x19]
	ldr	x20, [sp, 48]
	b	.L208
	.p2align 2,,3
.L215:
	mov	x3, 18
	str	x21, [x8]
	add	x1, sp, 48
	mov	x2, 0
	mov	x0, x8
	str	x3, [sp, 48]
	bl	_ZNSt7__cxx1112basic_stringIcSt11char_traitsIcESaIcEE9_M_createERmm
	str	x0, [x19]
	adrp	x1, .LC4
	add	x1, x1, :lo12:.LC4
	ldr	x2, [sp, 48]
	str	x2, [x19, 16]
	ldp	x2, x3, [x1]
	stp	x2, x3, [x0]
	ldrh	w1, [x1, 16]
	strh	w1, [x0, 16]
	ldr	x1, [x19]
	ldr	x0, [sp, 48]
	str	x0, [x19, 8]
	strb	wzr, [x1, x0]
	b	.L200
	.p2align 2,,3
.L207:
	cbz	x0, .L208
	b	.L206
.L203:
	adrp	x0, .LC5
	add	x0, x0, :lo12:.LC5
	bl	_ZSt19__throw_logic_errorPKc
.L217:
	bl	__stack_chk_fail
	.cfi_endproc
.LFE3346:
	.size	_ZNK4asio6detail15system_category7messageB5cxx11Ei, .-_ZNK4asio6detail15system_category7messageB5cxx11Ei
	.section	.rodata._ZNK4asio5error6detail17addrinfo_category7messageB5cxx11Ei.str1.8,"aMS",@progbits,1
	.align	3
.LC6:
	.string	"Service not found"
	.align	3
.LC7:
	.string	"Socket type not supported"
	.align	3
.LC8:
	.string	"asio.addrinfo error"
	.section	.text._ZNK4asio5error6detail17addrinfo_category7messageB5cxx11Ei,"axG",@progbits,_ZNK4asio5error6detail17addrinfo_category7messageB5cxx11Ei,comdat
	.align	2
	.p2align 4,,11
	.weak	_ZNK4asio5error6detail17addrinfo_category7messageB5cxx11Ei
	.type	_ZNK4asio5error6detail17addrinfo_category7messageB5cxx11Ei, %function
_ZNK4asio5error6detail17addrinfo_category7messageB5cxx11Ei:
.LFB3373:
	.cfi_startproc
	stp	x29, x30, [sp, -48]!
	.cfi_def_cfa_offset 48
	.cfi_offset 29, -48
	.cfi_offset 30, -40
	adrp	x0, :got:__stack_chk_guard
	add	x2, x8, 16
	mov	x29, sp
	ldr	x0, [x0, #:got_lo12:__stack_chk_guard]
	str	x19, [sp, 16]
	.cfi_offset 19, -32
	mov	x19, x8
	ldr	x3, [x0]
	str	x3, [sp, 40]
	mov	x3, 0
	str	x2, [x8]
	cmn	w1, #8
	beq	.L224
	cmn	w1, #7
	beq	.L225
	mov	x3, 19
	add	x1, sp, 32
	mov	x2, 0
	mov	x0, x8
	str	x3, [sp, 32]
	bl	_ZNSt7__cxx1112basic_stringIcSt11char_traitsIcESaIcEE9_M_createERmm
	adrp	x1, .LC8
	add	x1, x1, :lo12:.LC8
	ldr	x2, [sp, 32]
	str	x0, [x19]
	str	x2, [x19, 16]
	ldp	x2, x3, [x1]
	stp	x2, x3, [x0]
	ldr	w1, [x1, 15]
	str	w1, [x0, 15]
	ldr	x1, [x19]
	ldr	x0, [sp, 32]
	str	x0, [x19, 8]
	strb	wzr, [x1, x0]
.L218:
	adrp	x0, :got:__stack_chk_guard
	ldr	x0, [x0, #:got_lo12:__stack_chk_guard]
	ldr	x2, [sp, 40]
	ldr	x1, [x0]
	subs	x2, x2, x1
	mov	x1, 0
	bne	.L226
	mov	x0, x19
	ldr	x19, [sp, 16]
	ldp	x29, x30, [sp], 48
	.cfi_remember_state
	.cfi_restore 30
	.cfi_restore 29
	.cfi_restore 19
	.cfi_def_cfa_offset 0
	ret
	.p2align 2,,3
.L225:
	.cfi_restore_state
	mov	x3, 25
	add	x1, sp, 32
	mov	x2, 0
	mov	x0, x8
	str	x3, [sp, 32]
	bl	_ZNSt7__cxx1112basic_stringIcSt11char_traitsIcESaIcEE9_M_createERmm
	adrp	x1, .LC7
	add	x1, x1, :lo12:.LC7
	ldr	x2, [sp, 32]
	str	x0, [x19]
	ldr	q1, [x1]
	str	x2, [x19, 16]
	ldr	q0, [x1, 9]
	str	q1, [x0]
	str	q0, [x0, 9]
	ldr	x1, [x19]
	ldr	x0, [sp, 32]
	str	x0, [x19, 8]
	strb	wzr, [x1, x0]
	b	.L218
	.p2align 2,,3
.L224:
	mov	x3, 17
	add	x1, sp, 32
	mov	x2, 0
	mov	x0, x8
	str	x3, [sp, 32]
	bl	_ZNSt7__cxx1112basic_stringIcSt11char_traitsIcESaIcEE9_M_createERmm
	adrp	x1, .LC6
	add	x1, x1, :lo12:.LC6
	ldr	x2, [sp, 32]
	str	x0, [x19]
	str	x2, [x19, 16]
	ldp	x2, x3, [x1]
	stp	x2, x3, [x0]
	ldrb	w1, [x1, 16]
	strb	w1, [x0, 16]
	ldr	x1, [x19]
	ldr	x0, [sp, 32]
	str	x0, [x19, 8]
	strb	wzr, [x1, x0]
	b	.L218
.L226:
	bl	__stack_chk_fail
	.cfi_endproc
.LFE3373:
	.size	_ZNK4asio5error6detail17addrinfo_category7messageB5cxx11Ei, .-_ZNK4asio5error6detail17addrinfo_category7messageB5cxx11Ei
	.section	.rodata._ZNK4asio5error6detail14netdb_category7messageB5cxx11Ei.str1.8,"aMS",@progbits,1
	.align	3
.LC9:
	.string	"Host not found (authoritative)"
	.align	3
.LC10:
	.string	"Host not found (non-authoritative), try again later"
	.align	3
.LC11:
	.string	"The query is valid, but it does not have associated data"
	.align	3
.LC12:
	.string	"A non-recoverable error occurred during database lookup"
	.align	3
.LC13:
	.string	"asio.netdb error"
	.section	.text._ZNK4asio5error6detail14netdb_category7messageB5cxx11Ei,"axG",@progbits,_ZNK4asio5error6detail14netdb_category7messageB5cxx11Ei,comdat
	.align	2
	.p2align 4,,11
	.weak	_ZNK4asio5error6detail14netdb_category7messageB5cxx11Ei
	.type	_ZNK4asio5error6detail14netdb_category7messageB5cxx11Ei, %function
_ZNK4asio5error6detail14netdb_category7messageB5cxx11Ei:
.LFB3367:
	.cfi_startproc
	stp	x29, x30, [sp, -48]!
	.cfi_def_cfa_offset 48
	.cfi_offset 29, -48
	.cfi_offset 30, -40
	adrp	x0, :got:__stack_chk_guard
	add	x2, x8, 16
	mov	x29, sp
	ldr	x0, [x0, #:got_lo12:__stack_chk_guard]
	str	x19, [sp, 16]
	.cfi_offset 19, -32
	mov	x19, x8
	ldr	x3, [x0]
	str	x3, [sp, 40]
	mov	x3, 0
	str	x2, [x8]
	cmp	w1, 1
	beq	.L236
	cmp	w1, 2
	beq	.L237
	cmp	w1, 4
	beq	.L238
	cmp	w1, 3
	beq	.L239
	mov	x3, 16
	add	x1, sp, 32
	mov	x2, 0
	mov	x0, x8
	str	x3, [sp, 32]
	bl	_ZNSt7__cxx1112basic_stringIcSt11char_traitsIcESaIcEE9_M_createERmm
	adrp	x1, .LC13
	add	x1, x1, :lo12:.LC13
	ldr	x2, [sp, 32]
	str	x0, [x19]
	str	x2, [x19, 16]
	ldp	x2, x3, [x1]
	stp	x2, x3, [x0]
	ldr	x1, [x19]
	ldr	x0, [sp, 32]
	str	x0, [x19, 8]
	strb	wzr, [x1, x0]
.L227:
	adrp	x0, :got:__stack_chk_guard
	ldr	x0, [x0, #:got_lo12:__stack_chk_guard]
	ldr	x2, [sp, 40]
	ldr	x1, [x0]
	subs	x2, x2, x1
	mov	x1, 0
	bne	.L240
	mov	x0, x19
	ldr	x19, [sp, 16]
	ldp	x29, x30, [sp], 48
	.cfi_remember_state
	.cfi_restore 30
	.cfi_restore 29
	.cfi_restore 19
	.cfi_def_cfa_offset 0
	ret
	.p2align 2,,3
.L236:
	.cfi_restore_state
	mov	x3, 30
	add	x1, sp, 32
	mov	x2, 0
	mov	x0, x8
	str	x3, [sp, 32]
	bl	_ZNSt7__cxx1112basic_stringIcSt11char_traitsIcESaIcEE9_M_createERmm
	adrp	x1, .LC9
	add	x1, x1, :lo12:.LC9
	ldr	x2, [sp, 32]
	str	x0, [x19]
	ldr	q1, [x1]
	str	x2, [x19, 16]
	ldr	q0, [x1, 14]
	str	q1, [x0]
	str	q0, [x0, 14]
	ldr	x1, [x19]
	ldr	x0, [sp, 32]
	str	x0, [x19, 8]
	strb	wzr, [x1, x0]
	b	.L227
	.p2align 2,,3
.L239:
	mov	x3, 55
	add	x1, sp, 32
	mov	x2, 0
	mov	x0, x8
	str	x3, [sp, 32]
	bl	_ZNSt7__cxx1112basic_stringIcSt11char_traitsIcESaIcEE9_M_createERmm
	adrp	x1, .LC12
	add	x1, x1, :lo12:.LC12
	ldr	x2, [sp, 32]
	str	x0, [x19]
	ldr	q2, [x1, 32]
	str	x2, [x19, 16]
	ldp	q0, q1, [x1]
	str	q2, [x0, 32]
	ldr	x1, [x1, 47]
	str	x1, [x0, 47]
.L235:
	stp	q0, q1, [x0]
	ldr	x1, [x19]
	ldr	x0, [sp, 32]
	str	x0, [x19, 8]
	strb	wzr, [x1, x0]
	b	.L227
	.p2align 2,,3
.L237:
	mov	x3, 51
	add	x1, sp, 32
	mov	x2, 0
	mov	x0, x8
	str	x3, [sp, 32]
	bl	_ZNSt7__cxx1112basic_stringIcSt11char_traitsIcESaIcEE9_M_createERmm
	adrp	x1, .LC10
	add	x1, x1, :lo12:.LC10
	ldr	x2, [sp, 32]
	str	x0, [x19]
	ldr	q2, [x1, 32]
	str	x2, [x19, 16]
	ldp	q0, q1, [x1]
	ldr	w1, [x1, 47]
	str	q2, [x0, 32]
	str	w1, [x0, 47]
	b	.L235
	.p2align 2,,3
.L238:
	mov	x3, 56
	add	x1, sp, 32
	mov	x2, 0
	mov	x0, x8
	str	x3, [sp, 32]
	bl	_ZNSt7__cxx1112basic_stringIcSt11char_traitsIcESaIcEE9_M_createERmm
	adrp	x1, .LC11
	add	x1, x1, :lo12:.LC11
	ldr	x2, [sp, 32]
	str	x0, [x19]
	ldp	q1, q2, [x1]
	str	x2, [x19, 16]
	ldr	q0, [x1, 32]
	ldr	x1, [x1, 48]
	str	x1, [x0, 48]
	stp	q1, q2, [x0]
	str	q0, [x0, 32]
	ldr	x1, [x19]
	ldr	x0, [sp, 32]
	str	x0, [x19, 8]
	strb	wzr, [x1, x0]
	b	.L227
.L240:
	bl	__stack_chk_fail
	.cfi_endproc
.LFE3367:
	.size	_ZNK4asio5error6detail14netdb_category7messageB5cxx11Ei, .-_ZNK4asio5error6detail14netdb_category7messageB5cxx11Ei
	.section	.rodata._ZNK4asio5error6detail13misc_category7messageB5cxx11Ei.str1.8,"aMS",@progbits,1
	.align	3
.LC14:
	.string	"Already open"
	.align	3
.LC15:
	.string	"End of file"
	.align	3
.LC16:
	.string	"Element not found"
	.align	3
.LC17:
	.string	"The descriptor does not fit into the select call's fd_set"
	.align	3
.LC18:
	.string	"asio.misc error"
	.section	.text._ZNK4asio5error6detail13misc_category7messageB5cxx11Ei,"axG",@progbits,_ZNK4asio5error6detail13misc_category7messageB5cxx11Ei,comdat
	.align	2
	.p2align 4,,11
	.weak	_ZNK4asio5error6detail13misc_category7messageB5cxx11Ei
	.type	_ZNK4asio5error6detail13misc_category7messageB5cxx11Ei, %function
_ZNK4asio5error6detail13misc_category7messageB5cxx11Ei:
.LFB3379:
	.cfi_startproc
	stp	x29, x30, [sp, -48]!
	.cfi_def_cfa_offset 48
	.cfi_offset 29, -48
	.cfi_offset 30, -40
	adrp	x0, :got:__stack_chk_guard
	add	x2, x8, 16
	mov	x29, sp
	ldr	x0, [x0, #:got_lo12:__stack_chk_guard]
	str	x19, [sp, 16]
	.cfi_offset 19, -32
	mov	x19, x8
	ldr	x3, [x0]
	str	x3, [sp, 40]
	mov	x3, 0
	cmp	w1, 1
	beq	.L249
	cmp	w1, 2
	beq	.L250
	cmp	w1, 3
	beq	.L251
	cmp	w1, 4
	beq	.L252
	adrp	x0, .LC18
	add	x0, x0, :lo12:.LC18
	str	x2, [x8]
	mov	x1, 15
	ldr	x3, [x0]
	str	x3, [x8, 16]
	ldr	x0, [x0, 7]
	str	x0, [x2, 7]
	str	x1, [x8, 8]
	strb	wzr, [x8, 31]
.L241:
	adrp	x0, :got:__stack_chk_guard
	ldr	x0, [x0, #:got_lo12:__stack_chk_guard]
	ldr	x2, [sp, 40]
	ldr	x1, [x0]
	subs	x2, x2, x1
	mov	x1, 0
	bne	.L253
	mov	x0, x19
	ldr	x19, [sp, 16]
	ldp	x29, x30, [sp], 48
	.cfi_remember_state
	.cfi_restore 30
	.cfi_restore 29
	.cfi_restore 19
	.cfi_def_cfa_offset 0
	ret
	.p2align 2,,3
.L249:
	.cfi_restore_state
	adrp	x0, .LC14
	add	x0, x0, :lo12:.LC14
	str	x2, [x8]
	mov	x1, 12
	ldr	x3, [x0]
	str	x3, [x8, 16]
	ldr	w0, [x0, 8]
	str	w0, [x2, 8]
	str	x1, [x8, 8]
	strb	wzr, [x8, 28]
	b	.L241
	.p2align 2,,3
.L252:
	mov	x3, 57
	str	x2, [x8]
	add	x1, sp, 32
	mov	x2, 0
	mov	x0, x8
	str	x3, [sp, 32]
	bl	_ZNSt7__cxx1112basic_stringIcSt11char_traitsIcESaIcEE9_M_createERmm
	str	x0, [x19]
	adrp	x1, .LC17
	add	x1, x1, :lo12:.LC17
	ldr	x2, [sp, 32]
	str	x2, [x19, 16]
	ldr	q3, [x1, 32]
	ldp	q1, q2, [x1]
	ldr	q0, [x1, 41]
	str	q3, [x0, 32]
	stp	q1, q2, [x0]
	str	q0, [x0, 41]
	ldr	x1, [x19]
	ldr	x0, [sp, 32]
	str	x0, [x19, 8]
	strb	wzr, [x1, x0]
	b	.L241
	.p2align 2,,3
.L250:
	adrp	x0, .LC15
	add	x0, x0, :lo12:.LC15
	str	x2, [x8]
	mov	x1, 11
	ldr	x3, [x0]
	str	x3, [x8, 16]
	ldr	w0, [x0, 7]
	str	w0, [x2, 7]
	str	x1, [x8, 8]
	strb	wzr, [x8, 27]
	b	.L241
	.p2align 2,,3
.L251:
	mov	x3, 17
	str	x2, [x8]
	add	x1, sp, 32
	mov	x2, 0
	mov	x0, x8
	str	x3, [sp, 32]
	bl	_ZNSt7__cxx1112basic_stringIcSt11char_traitsIcESaIcEE9_M_createERmm
	str	x0, [x19]
	adrp	x1, .LC16
	add	x1, x1, :lo12:.LC16
	ldr	x2, [sp, 32]
	str	x2, [x19, 16]
	ldp	x2, x3, [x1]
	stp	x2, x3, [x0]
	ldrb	w1, [x1, 16]
	strb	w1, [x0, 16]
	ldr	x1, [x19]
	ldr	x0, [sp, 32]
	str	x0, [x19, 8]
	strb	wzr, [x1, x0]
	b	.L241
.L253:
	bl	__stack_chk_fail
	.cfi_endproc
.LFE3379:
	.size	_ZNK4asio5error6detail13misc_category7messageB5cxx11Ei, .-_ZNK4asio5error6detail13misc_category7messageB5cxx11Ei
	.global	__aarch64_ldadd4_acq_rel
	.section	.text.unlikely,"ax",@progbits
	.align	2
	.type	_ZZN8asiodnp318MasterSessionStack7RestartEN8opendnp311RestartTypeERKSt8functionIFvRKNS1_22RestartOperationResultEEENS1_10TaskConfigEENUlvE_D2Ev, %function
_ZZN8asiodnp318MasterSessionStack7RestartEN8opendnp311RestartTypeERKSt8functionIFvRKNS1_22RestartOperationResultEEENS1_10TaskConfigEENUlvE_D2Ev:
.LFB8132:
	.cfi_startproc
	.cfi_personality 0x9b,DW.ref.__gxx_personality_v0
	.cfi_lsda 0x1b,.LLSDA8132
	add	x1, x0, 24
	stp	x29, x30, [sp, -32]!
	.cfi_def_cfa_offset 32
	.cfi_offset 29, -32
	.cfi_offset 30, -24
	mov	x29, sp
	ldr	x3, [x1, 16]
	stp	x19, x20, [sp, 16]
	.cfi_offset 19, -16
	.cfi_offset 20, -8
	mov	x19, x0
	cbz	x3, .L255
	mov	x0, x1
	mov	w2, 3
	blr	x3
.L255:
	ldr	x19, [x19, 8]
	cbz	x19, .L254
	adrp	x0, :got:__libc_single_threaded
	mov	x20, x0
	ldr	x0, [x0, #:got_lo12:__libc_single_threaded]
	ldrb	w0, [x0]
	cbz	w0, .L258
	ldr	w0, [x19, 8]
	sub	w1, w0, #1
	str	w1, [x19, 8]
	b	.L259
.L258:
	add	x1, x19, 8
	mov	w0, -1
	bl	__aarch64_ldadd4_acq_rel
.L259:
	cmp	w0, 1
	bne	.L254
	ldr	x1, [x19]
	mov	x0, x19
	ldr	x1, [x1, 16]
	blr	x1
	ldr	x20, [x20, #:got_lo12:__libc_single_threaded]
	ldrb	w0, [x20]
	cbz	w0, .L261
	ldr	w0, [x19, 12]
	sub	w1, w0, #1
	str	w1, [x19, 12]
	b	.L262
.L261:
	add	x1, x19, 12
	mov	w0, -1
	bl	__aarch64_ldadd4_acq_rel
.L262:
	cmp	w0, 1
	bne	.L254
	ldr	x1, [x19]
	mov	x0, x19
	ldp	x19, x20, [sp, 16]
	ldp	x29, x30, [sp], 32
	.cfi_remember_state
	.cfi_restore 30
	.cfi_restore 29
	.cfi_restore 19
	.cfi_restore 20
	.cfi_def_cfa_offset 0
	ldr	x1, [x1, 24]
	mov	x16, x1
	br	x16
.L254:
	.cfi_restore_state
	ldp	x19, x20, [sp, 16]
	ldp	x29, x30, [sp], 32
	.cfi_restore 30
	.cfi_restore 29
	.cfi_restore 19
	.cfi_restore 20
	.cfi_def_cfa_offset 0
	ret
	.cfi_endproc
.LFE8132:
	.section	.gcc_except_table
.LLSDA8132:
	.byte	0xff
	.byte	0xff
	.byte	0x1
	.uleb128 .LLSDACSE8132-.LLSDACSB8132
.LLSDACSB8132:
.LLSDACSE8132:
	.section	.text.unlikely
	.size	_ZZN8asiodnp318MasterSessionStack7RestartEN8opendnp311RestartTypeERKSt8functionIFvRKNS1_22RestartOperationResultEEENS1_10TaskConfigEENUlvE_D2Ev, .-_ZZN8asiodnp318MasterSessionStack7RestartEN8opendnp311RestartTypeERKSt8functionIFvRKNS1_22RestartOperationResultEEENS1_10TaskConfigEENUlvE_D2Ev
	.set	_ZZN8asiodnp318MasterSessionStack7RestartEN8opendnp311RestartTypeERKSt8functionIFvRKNS1_22RestartOperationResultEEENS1_10TaskConfigEENUlvE_D1Ev,_ZZN8asiodnp318MasterSessionStack7RestartEN8opendnp311RestartTypeERKSt8functionIFvRKNS1_22RestartOperationResultEEENS1_10TaskConfigEENUlvE_D2Ev
	.align	2
	.type	_ZZN8asiodnp318MasterSessionStack4ScanERKSt6vectorIN8opendnp36HeaderESaIS3_EERKNS2_10TaskConfigEENUlvE_D2Ev, %function
_ZZN8asiodnp318MasterSessionStack4ScanERKSt6vectorIN8opendnp36HeaderESaIS3_EERKNS2_10TaskConfigEENUlvE_D2Ev:
.LFB8089:
	.cfi_startproc
	.cfi_personality 0x9b,DW.ref.__gxx_personality_v0
	.cfi_lsda 0x1b,.LLSDA8089
	add	x1, x0, 16
	stp	x29, x30, [sp, -32]!
	.cfi_def_cfa_offset 32
	.cfi_offset 29, -32
	.cfi_offset 30, -24
	mov	x29, sp
	ldr	x3, [x1, 16]
	stp	x19, x20, [sp, 16]
	.cfi_offset 19, -16
	.cfi_offset 20, -8
	mov	x19, x0
	cbz	x3, .L268
	mov	x0, x1
	mov	w2, 3
	blr	x3
.L268:
	ldr	x19, [x19, 8]
	cbz	x19, .L267
	adrp	x0, :got:__libc_single_threaded
	mov	x20, x0
	ldr	x0, [x0, #:got_lo12:__libc_single_threaded]
	ldrb	w0, [x0]
	cbz	w0, .L271
	ldr	w0, [x19, 8]
	sub	w1, w0, #1
	str	w1, [x19, 8]
	b	.L272
.L271:
	add	x1, x19, 8
	mov	w0, -1
	bl	__aarch64_ldadd4_acq_rel
.L272:
	cmp	w0, 1
	bne	.L267
	ldr	x1, [x19]
	mov	x0, x19
	ldr	x1, [x1, 16]
	blr	x1
	ldr	x20, [x20, #:got_lo12:__libc_single_threaded]
	ldrb	w0, [x20]
	cbz	w0, .L274
	ldr	w0, [x19, 12]
	sub	w1, w0, #1
	str	w1, [x19, 12]
	b	.L275
.L274:
	add	x1, x19, 12
	mov	w0, -1
	bl	__aarch64_ldadd4_acq_rel
.L275:
	cmp	w0, 1
	bne	.L267
	ldr	x1, [x19]
	mov	x0, x19
	ldp	x19, x20, [sp, 16]
	ldp	x29, x30, [sp], 32
	.cfi_remember_state
	.cfi_restore 30
	.cfi_restore 29
	.cfi_restore 19
	.cfi_restore 20
	.cfi_def_cfa_offset 0
	ldr	x1, [x1, 24]
	mov	x16, x1
	br	x16
.L267:
	.cfi_restore_state
	ldp	x19, x20, [sp, 16]
	ldp	x29, x30, [sp], 32
	.cfi_restore 30
	.cfi_restore 29
	.cfi_restore 19
	.cfi_restore 20
	.cfi_def_cfa_offset 0
	ret
	.cfi_endproc
.LFE8089:
	.section	.gcc_except_table
.LLSDA8089:
	.byte	0xff
	.byte	0xff
	.byte	0x1
	.uleb128 .LLSDACSE8089-.LLSDACSB8089
.LLSDACSB8089:
.LLSDACSE8089:
	.section	.text.unlikely
	.size	_ZZN8asiodnp318MasterSessionStack4ScanERKSt6vectorIN8opendnp36HeaderESaIS3_EERKNS2_10TaskConfigEENUlvE_D2Ev, .-_ZZN8asiodnp318MasterSessionStack4ScanERKSt6vectorIN8opendnp36HeaderESaIS3_EERKNS2_10TaskConfigEENUlvE_D2Ev
	.set	_ZZN8asiodnp318MasterSessionStack4ScanERKSt6vectorIN8opendnp36HeaderESaIS3_EERKNS2_10TaskConfigEENUlvE_D1Ev,_ZZN8asiodnp318MasterSessionStack4ScanERKSt6vectorIN8opendnp36HeaderESaIS3_EERKNS2_10TaskConfigEENUlvE_D2Ev
	.align	2
	.type	_ZZN8asiodnp318MasterSessionStack15PerformFunctionERKNSt7__cxx1112basic_stringIcSt11char_traitsIcESaIcEEEN8opendnp312FunctionCodeERKSt6vectorINS9_6HeaderESaISC_EERKNS9_10TaskConfigEENUlvE_D2Ev, %function
_ZZN8asiodnp318MasterSessionStack15PerformFunctionERKNSt7__cxx1112basic_stringIcSt11char_traitsIcESaIcEEEN8opendnp312FunctionCodeERKSt6vectorINS9_6HeaderESaISC_EERKNS9_10TaskConfigEENUlvE_D2Ev:
.LFB8140:
	.cfi_startproc
	.cfi_personality 0x9b,DW.ref.__gxx_personality_v0
	.cfi_lsda 0x1b,.LLSDA8140
	add	x1, x0, 56
	stp	x29, x30, [sp, -32]!
	.cfi_def_cfa_offset 32
	.cfi_offset 29, -32
	.cfi_offset 30, -24
	mov	x29, sp
	ldr	x3, [x1, 16]
	stp	x19, x20, [sp, 16]
	.cfi_offset 19, -16
	.cfi_offset 20, -8
	mov	x19, x0
	cbz	x3, .L281
	mov	x0, x1
	mov	w2, 3
	blr	x3
.L281:
	ldr	x0, [x19, 16]
	add	x1, x19, 32
	cmp	x0, x1
	beq	.L282
	ldr	x1, [x19, 32]
	add	x1, x1, 1
	bl	_ZdlPvm
.L282:
	ldr	x19, [x19, 8]
	cbz	x19, .L280
	adrp	x0, :got:__libc_single_threaded
	mov	x20, x0
	ldr	x0, [x0, #:got_lo12:__libc_single_threaded]
	ldrb	w0, [x0]
	cbz	w0, .L285
	ldr	w0, [x19, 8]
	sub	w1, w0, #1
	str	w1, [x19, 8]
	b	.L286
.L285:
	add	x1, x19, 8
	mov	w0, -1
	bl	__aarch64_ldadd4_acq_rel
.L286:
	cmp	w0, 1
	bne	.L280
	ldr	x1, [x19]
	mov	x0, x19
	ldr	x1, [x1, 16]
	blr	x1
	ldr	x20, [x20, #:got_lo12:__libc_single_threaded]
	ldrb	w0, [x20]
	cbz	w0, .L288
	ldr	w0, [x19, 12]
	sub	w1, w0, #1
	str	w1, [x19, 12]
	b	.L289
.L288:
	add	x1, x19, 12
	mov	w0, -1
	bl	__aarch64_ldadd4_acq_rel
.L289:
	cmp	w0, 1
	bne	.L280
	ldr	x1, [x19]
	mov	x0, x19
	ldp	x19, x20, [sp, 16]
	ldp	x29, x30, [sp], 32
	.cfi_remember_state
	.cfi_restore 30
	.cfi_restore 29
	.cfi_restore 19
	.cfi_restore 20
	.cfi_def_cfa_offset 0
	ldr	x1, [x1, 24]
	mov	x16, x1
	br	x16
.L280:
	.cfi_restore_state
	ldp	x19, x20, [sp, 16]
	ldp	x29, x30, [sp], 32
	.cfi_restore 30
	.cfi_restore 29
	.cfi_restore 19
	.cfi_restore 20
	.cfi_def_cfa_offset 0
	ret
	.cfi_endproc
.LFE8140:
	.section	.gcc_except_table
.LLSDA8140:
	.byte	0xff
	.byte	0xff
	.byte	0x1
	.uleb128 .LLSDACSE8140-.LLSDACSB8140
.LLSDACSB8140:
.LLSDACSE8140:
	.section	.text.unlikely
	.size	_ZZN8asiodnp318MasterSessionStack15PerformFunctionERKNSt7__cxx1112basic_stringIcSt11char_traitsIcESaIcEEEN8opendnp312FunctionCodeERKSt6vectorINS9_6HeaderESaISC_EERKNS9_10TaskConfigEENUlvE_D2Ev, .-_ZZN8asiodnp318MasterSessionStack15PerformFunctionERKNSt7__cxx1112basic_stringIcSt11char_traitsIcESaIcEEEN8opendnp312FunctionCodeERKSt6vectorINS9_6HeaderESaISC_EERKNS9_10TaskConfigEENUlvE_D2Ev
	.set	_ZZN8asiodnp318MasterSessionStack15PerformFunctionERKNSt7__cxx1112basic_stringIcSt11char_traitsIcESaIcEEEN8opendnp312FunctionCodeERKSt6vectorINS9_6HeaderESaISC_EERKNS9_10TaskConfigEENUlvE_D1Ev,_ZZN8asiodnp318MasterSessionStack15PerformFunctionERKNSt7__cxx1112basic_stringIcSt11char_traitsIcESaIcEEEN8opendnp312FunctionCodeERKSt6vectorINS9_6HeaderESaISC_EERKNS9_10TaskConfigEENUlvE_D2Ev
	.align	2
	.type	_ZZN8asiodnp318MasterSessionStack6DemandERKSt10shared_ptrIN8opendnp311IMasterTaskEEENUlvE_D2Ev, %function
_ZZN8asiodnp318MasterSessionStack6DemandERKSt10shared_ptrIN8opendnp311IMasterTaskEEENUlvE_D2Ev:
.LFB7998:
	.cfi_startproc
	stp	x29, x30, [sp, -48]!
	.cfi_def_cfa_offset 48
	.cfi_offset 29, -48
	.cfi_offset 30, -40
	mov	x29, sp
	stp	x19, x20, [sp, 16]
	.cfi_offset 19, -32
	.cfi_offset 20, -24
	mov	x20, x0
	ldr	x19, [x0, 24]
	str	x21, [sp, 32]
	.cfi_offset 21, -16
	cbz	x19, .L296
	adrp	x0, :got:__libc_single_threaded
	mov	x21, x0
	ldr	x0, [x0, #:got_lo12:__libc_single_threaded]
	ldrb	w0, [x0]
	cbz	w0, .L297
	ldr	w0, [x19, 8]
	sub	w1, w0, #1
	str	w1, [x19, 8]
	b	.L298
.L297:
	add	x1, x19, 8
	mov	w0, -1
	bl	__aarch64_ldadd4_acq_rel
.L298:
	cmp	w0, 1
	bne	.L296
	ldr	x1, [x19]
	mov	x0, x19
	ldr	x1, [x1, 16]
	blr	x1
	ldr	x21, [x21, #:got_lo12:__libc_single_threaded]
	ldrb	w0, [x21]
	cbz	w0, .L300
	ldr	w0, [x19, 12]
	sub	w1, w0, #1
	str	w1, [x19, 12]
	b	.L301
.L300:
	add	x1, x19, 12
	mov	w0, -1
	bl	__aarch64_ldadd4_acq_rel
.L301:
	cmp	w0, 1
	bne	.L296
	ldr	x1, [x19]
	mov	x0, x19
	ldr	x1, [x1, 24]
	blr	x1
.L296:
	ldr	x19, [x20, 8]
	cbz	x19, .L294
	adrp	x0, :got:__libc_single_threaded
	mov	x20, x0
	ldr	x0, [x0, #:got_lo12:__libc_single_threaded]
	ldrb	w0, [x0]
	cbz	w0, .L304
	ldr	w0, [x19, 8]
	sub	w1, w0, #1
	str	w1, [x19, 8]
	b	.L305
.L304:
	add	x1, x19, 8
	mov	w0, -1
	bl	__aarch64_ldadd4_acq_rel
.L305:
	cmp	w0, 1
	bne	.L294
	ldr	x1, [x19]
	mov	x0, x19
	ldr	x1, [x1, 16]
	blr	x1
	ldr	x20, [x20, #:got_lo12:__libc_single_threaded]
	ldrb	w0, [x20]
	cbz	w0, .L307
	ldr	w0, [x19, 12]
	sub	w1, w0, #1
	str	w1, [x19, 12]
	b	.L308
.L307:
	add	x1, x19, 12
	mov	w0, -1
	bl	__aarch64_ldadd4_acq_rel
.L308:
	cmp	w0, 1
	bne	.L294
	ldr	x1, [x19]
	mov	x0, x19
	ldp	x19, x20, [sp, 16]
	ldr	x21, [sp, 32]
	ldp	x29, x30, [sp], 48
	.cfi_remember_state
	.cfi_restore 30
	.cfi_restore 29
	.cfi_restore 21
	.cfi_restore 19
	.cfi_restore 20
	.cfi_def_cfa_offset 0
	ldr	x1, [x1, 24]
	mov	x16, x1
	br	x16
.L294:
	.cfi_restore_state
	ldp	x19, x20, [sp, 16]
	ldr	x21, [sp, 32]
	ldp	x29, x30, [sp], 48
	.cfi_restore 30
	.cfi_restore 29
	.cfi_restore 21
	.cfi_restore 19
	.cfi_restore 20
	.cfi_def_cfa_offset 0
	ret
	.cfi_endproc
.LFE7998:
	.size	_ZZN8asiodnp318MasterSessionStack6DemandERKSt10shared_ptrIN8opendnp311IMasterTaskEEENUlvE_D2Ev, .-_ZZN8asiodnp318MasterSessionStack6DemandERKSt10shared_ptrIN8opendnp311IMasterTaskEEENUlvE_D2Ev
	.set	_ZZN8asiodnp318MasterSessionStack6DemandERKSt10shared_ptrIN8opendnp311IMasterTaskEEENUlvE_D1Ev,_ZZN8asiodnp318MasterSessionStack6DemandERKSt10shared_ptrIN8opendnp311IMasterTaskEEENUlvE_D2Ev
	.section	.text._ZNSt23_Sp_counted_ptr_inplaceIN8asiodnp310MasterScanESaIS1_ELN9__gnu_cxx12_Lock_policyE2EE10_M_disposeEv,"axG",@progbits,_ZNSt23_Sp_counted_ptr_inplaceIN8asiodnp310MasterScanESaIS1_ELN9__gnu_cxx12_Lock_policyE2EE10_M_disposeEv,comdat
	.align	2
	.p2align 4,,11
	.weak	_ZNSt23_Sp_counted_ptr_inplaceIN8asiodnp310MasterScanESaIS1_ELN9__gnu_cxx12_Lock_policyE2EE10_M_disposeEv
	.type	_ZNSt23_Sp_counted_ptr_inplaceIN8asiodnp310MasterScanESaIS1_ELN9__gnu_cxx12_Lock_policyE2EE10_M_disposeEv, %function
_ZNSt23_Sp_counted_ptr_inplaceIN8asiodnp310MasterScanESaIS1_ELN9__gnu_cxx12_Lock_policyE2EE10_M_disposeEv:
.LFB11811:
	.cfi_startproc
	stp	x29, x30, [sp, -48]!
	.cfi_def_cfa_offset 48
	.cfi_offset 29, -48
	.cfi_offset 30, -40
	adrp	x1, :got:_ZTVN8asiodnp310MasterScanE
	mov	x29, sp
	ldr	x1, [x1, #:got_lo12:_ZTVN8asiodnp310MasterScanE]
	stp	x19, x20, [sp, 16]
	.cfi_offset 19, -32
	.cfi_offset 20, -24
	mov	x19, x0
	ldr	x20, [x0, 48]
	str	x21, [sp, 32]
	.cfi_offset 21, -16
	add	x1, x1, 16
	str	x1, [x0, 16]
	cbz	x20, .L312
	adrp	x21, :got:__libc_single_threaded
	ldr	x0, [x21, #:got_lo12:__libc_single_threaded]
	ldrb	w0, [x0]
	cbz	w0, .L313
	ldr	w0, [x20, 8]
	sub	w1, w0, #1
	str	w1, [x20, 8]
.L314:
	cmp	w0, 1
	beq	.L326
.L312:
	ldr	x19, [x19, 32]
	cbz	x19, .L310
	adrp	x21, :got:__libc_single_threaded
	ldr	x0, [x21, #:got_lo12:__libc_single_threaded]
	ldrb	w0, [x0]
	cbz	w0, .L320
	ldr	w0, [x19, 8]
	sub	w1, w0, #1
	str	w1, [x19, 8]
.L321:
	cmp	w0, 1
	beq	.L327
.L310:
	ldp	x19, x20, [sp, 16]
	ldr	x21, [sp, 32]
	ldp	x29, x30, [sp], 48
	.cfi_remember_state
	.cfi_restore 30
	.cfi_restore 29
	.cfi_restore 21
	.cfi_restore 19
	.cfi_restore 20
	.cfi_def_cfa_offset 0
	ret
	.p2align 2,,3
.L326:
	.cfi_restore_state
	ldr	x1, [x20]
	mov	x0, x20
	ldr	x1, [x1, 16]
	blr	x1
	ldr	x21, [x21, #:got_lo12:__libc_single_threaded]
	ldrb	w0, [x21]
	cbz	w0, .L316
	ldr	w0, [x20, 12]
	sub	w1, w0, #1
	str	w1, [x20, 12]
.L317:
	cmp	w0, 1
	bne	.L312
	ldr	x1, [x20]
	mov	x0, x20
	ldr	x1, [x1, 24]
	blr	x1
	b	.L312
	.p2align 2,,3
.L327:
	ldr	x1, [x19]
	mov	x0, x19
	ldr	x1, [x1, 16]
	blr	x1
	ldr	x21, [x21, #:got_lo12:__libc_single_threaded]
	ldrb	w0, [x21]
	cbz	w0, .L323
	ldr	w0, [x19, 12]
	sub	w1, w0, #1
	str	w1, [x19, 12]
.L324:
	cmp	w0, 1
	bne	.L310
	ldr	x1, [x19]
	mov	x0, x19
	ldp	x19, x20, [sp, 16]
	ldr	x21, [sp, 32]
	ldp	x29, x30, [sp], 48
	.cfi_remember_state
	.cfi_restore 30
	.cfi_restore 29
	.cfi_restore 21
	.cfi_restore 19
	.cfi_restore 20
	.cfi_def_cfa_offset 0
	ldr	x1, [x1, 24]
	mov	x16, x1
	br	x16
	.p2align 2,,3
.L320:
	.cfi_restore_state
	add	x1, x19, 8
	mov	w0, -1
	bl	__aarch64_ldadd4_acq_rel
	b	.L321
	.p2align 2,,3
.L313:
	add	x1, x20, 8
	mov	w0, -1
	bl	__aarch64_ldadd4_acq_rel
	b	.L314
	.p2align 2,,3
.L316:
	add	x1, x20, 12
	mov	w0, -1
	bl	__aarch64_ldadd4_acq_rel
	b	.L317
	.p2align 2,,3
.L323:
	add	x1, x19, 12
	mov	w0, -1
	bl	__aarch64_ldadd4_acq_rel
	b	.L324
	.cfi_endproc
.LFE11811:
	.size	_ZNSt23_Sp_counted_ptr_inplaceIN8asiodnp310MasterScanESaIS1_ELN9__gnu_cxx12_Lock_policyE2EE10_M_disposeEv, .-_ZNSt23_Sp_counted_ptr_inplaceIN8asiodnp310MasterScanESaIS1_ELN9__gnu_cxx12_Lock_policyE2EE10_M_disposeEv
	.section	.text.unlikely
	.align	2
	.type	_ZZN8asiodnp318MasterSessionStack13DirectOperateEON8opendnp310CommandSetERKSt8functionIFvRKNS1_18ICommandTaskResultEEERKNS1_10TaskConfigEENUlvE_D2Ev, %function
_ZZN8asiodnp318MasterSessionStack13DirectOperateEON8opendnp310CommandSetERKSt8functionIFvRKNS1_18ICommandTaskResultEEERKNS1_10TaskConfigEENUlvE_D2Ev:
.LFB8173:
	.cfi_startproc
	.cfi_personality 0x9b,DW.ref.__gxx_personality_v0
	.cfi_lsda 0x1b,.LLSDA8173
	add	x1, x0, 48
	stp	x29, x30, [sp, -48]!
	.cfi_def_cfa_offset 48
	.cfi_offset 29, -48
	.cfi_offset 30, -40
	mov	x29, sp
	ldr	x3, [x1, 16]
	stp	x19, x20, [sp, 16]
	.cfi_offset 19, -32
	.cfi_offset 20, -24
	mov	x20, x0
	str	x21, [sp, 32]
	.cfi_offset 21, -16
	cbz	x3, .L329
	mov	x0, x1
	mov	w2, 3
	blr	x3
.L329:
	ldr	x19, [x20, 24]
	cbz	x19, .L331
	adrp	x0, :got:__libc_single_threaded
	mov	x21, x0
	ldr	x0, [x0, #:got_lo12:__libc_single_threaded]
	ldrb	w0, [x0]
	cbz	w0, .L332
	ldr	w0, [x19, 8]
	sub	w1, w0, #1
	str	w1, [x19, 8]
	b	.L333
.L332:
	add	x1, x19, 8
	mov	w0, -1
	bl	__aarch64_ldadd4_acq_rel
.L333:
	cmp	w0, 1
	bne	.L331
	ldr	x1, [x19]
	mov	x0, x19
	ldr	x1, [x1, 16]
	blr	x1
	ldr	x21, [x21, #:got_lo12:__libc_single_threaded]
	ldrb	w0, [x21]
	cbz	w0, .L335
	ldr	w0, [x19, 12]
	sub	w1, w0, #1
	str	w1, [x19, 12]
	b	.L336
.L335:
	add	x1, x19, 12
	mov	w0, -1
	bl	__aarch64_ldadd4_acq_rel
.L336:
	cmp	w0, 1
	bne	.L331
	ldr	x1, [x19]
	mov	x0, x19
	ldr	x1, [x1, 24]
	blr	x1
.L331:
	ldr	x19, [x20, 8]
	cbz	x19, .L328
	adrp	x0, :got:__libc_single_threaded
	mov	x20, x0
	ldr	x0, [x0, #:got_lo12:__libc_single_threaded]
	ldrb	w0, [x0]
	cbz	w0, .L339
	ldr	w0, [x19, 8]
	sub	w1, w0, #1
	str	w1, [x19, 8]
	b	.L340
.L339:
	add	x1, x19, 8
	mov	w0, -1
	bl	__aarch64_ldadd4_acq_rel
.L340:
	cmp	w0, 1
	bne	.L328
	ldr	x1, [x19]
	mov	x0, x19
	ldr	x1, [x1, 16]
	blr	x1
	ldr	x20, [x20, #:got_lo12:__libc_single_threaded]
	ldrb	w0, [x20]
	cbz	w0, .L342
	ldr	w0, [x19, 12]
	sub	w1, w0, #1
	str	w1, [x19, 12]
	b	.L343
.L342:
	add	x1, x19, 12
	mov	w0, -1
	bl	__aarch64_ldadd4_acq_rel
.L343:
	cmp	w0, 1
	bne	.L328
	ldr	x1, [x19]
	mov	x0, x19
	ldp	x19, x20, [sp, 16]
	ldr	x21, [sp, 32]
	ldp	x29, x30, [sp], 48
	.cfi_remember_state
	.cfi_restore 30
	.cfi_restore 29
	.cfi_restore 21
	.cfi_restore 19
	.cfi_restore 20
	.cfi_def_cfa_offset 0
	ldr	x1, [x1, 24]
	mov	x16, x1
	br	x16
.L328:
	.cfi_restore_state
	ldp	x19, x20, [sp, 16]
	ldr	x21, [sp, 32]
	ldp	x29, x30, [sp], 48
	.cfi_restore 30
	.cfi_restore 29
	.cfi_restore 21
	.cfi_restore 19
	.cfi_restore 20
	.cfi_def_cfa_offset 0
	ret
	.cfi_endproc
.LFE8173:
	.section	.gcc_except_table
.LLSDA8173:
	.byte	0xff
	.byte	0xff
	.byte	0x1
	.uleb128 .LLSDACSE8173-.LLSDACSB8173
.LLSDACSB8173:
.LLSDACSE8173:
	.section	.text.unlikely
	.size	_ZZN8asiodnp318MasterSessionStack13DirectOperateEON8opendnp310CommandSetERKSt8functionIFvRKNS1_18ICommandTaskResultEEERKNS1_10TaskConfigEENUlvE_D2Ev, .-_ZZN8asiodnp318MasterSessionStack13DirectOperateEON8opendnp310CommandSetERKSt8functionIFvRKNS1_18ICommandTaskResultEEERKNS1_10TaskConfigEENUlvE_D2Ev
	.set	_ZZN8asiodnp318MasterSessionStack13DirectOperateEON8opendnp310CommandSetERKSt8functionIFvRKNS1_18ICommandTaskResultEEERKNS1_10TaskConfigEENUlvE_D1Ev,_ZZN8asiodnp318MasterSessionStack13DirectOperateEON8opendnp310CommandSetERKSt8functionIFvRKNS1_18ICommandTaskResultEEERKNS1_10TaskConfigEENUlvE_D2Ev
	.align	2
	.type	_ZZN8asiodnp318MasterSessionStack16SelectAndOperateEON8opendnp310CommandSetERKSt8functionIFvRKNS1_18ICommandTaskResultEEERKNS1_10TaskConfigEENUlvE_D2Ev, %function
_ZZN8asiodnp318MasterSessionStack16SelectAndOperateEON8opendnp310CommandSetERKSt8functionIFvRKNS1_18ICommandTaskResultEEERKNS1_10TaskConfigEENUlvE_D2Ev:
.LFB8165:
	.cfi_startproc
	.cfi_personality 0x9b,DW.ref.__gxx_personality_v0
	.cfi_lsda 0x1b,.LLSDA8165
	add	x1, x0, 48
	stp	x29, x30, [sp, -48]!
	.cfi_def_cfa_offset 48
	.cfi_offset 29, -48
	.cfi_offset 30, -40
	mov	x29, sp
	ldr	x3, [x1, 16]
	stp	x19, x20, [sp, 16]
	.cfi_offset 19, -32
	.cfi_offset 20, -24
	mov	x20, x0
	str	x21, [sp, 32]
	.cfi_offset 21, -16
	cbz	x3, .L349
	mov	x0, x1
	mov	w2, 3
	blr	x3
.L349:
	ldr	x19, [x20, 24]
	cbz	x19, .L351
	adrp	x0, :got:__libc_single_threaded
	mov	x21, x0
	ldr	x0, [x0, #:got_lo12:__libc_single_threaded]
	ldrb	w0, [x0]
	cbz	w0, .L352
	ldr	w0, [x19, 8]
	sub	w1, w0, #1
	str	w1, [x19, 8]
	b	.L353
.L352:
	add	x1, x19, 8
	mov	w0, -1
	bl	__aarch64_ldadd4_acq_rel
.L353:
	cmp	w0, 1
	bne	.L351
	ldr	x1, [x19]
	mov	x0, x19
	ldr	x1, [x1, 16]
	blr	x1
	ldr	x21, [x21, #:got_lo12:__libc_single_threaded]
	ldrb	w0, [x21]
	cbz	w0, .L355
	ldr	w0, [x19, 12]
	sub	w1, w0, #1
	str	w1, [x19, 12]
	b	.L356
.L355:
	add	x1, x19, 12
	mov	w0, -1
	bl	__aarch64_ldadd4_acq_rel
.L356:
	cmp	w0, 1
	bne	.L351
	ldr	x1, [x19]
	mov	x0, x19
	ldr	x1, [x1, 24]
	blr	x1
.L351:
	ldr	x19, [x20, 8]
	cbz	x19, .L348
	adrp	x0, :got:__libc_single_threaded
	mov	x20, x0
	ldr	x0, [x0, #:got_lo12:__libc_single_threaded]
	ldrb	w0, [x0]
	cbz	w0, .L359
	ldr	w0, [x19, 8]
	sub	w1, w0, #1
	str	w1, [x19, 8]
	b	.L360
.L359:
	add	x1, x19, 8
	mov	w0, -1
	bl	__aarch64_ldadd4_acq_rel
.L360:
	cmp	w0, 1
	bne	.L348
	ldr	x1, [x19]
	mov	x0, x19
	ldr	x1, [x1, 16]
	blr	x1
	ldr	x20, [x20, #:got_lo12:__libc_single_threaded]
	ldrb	w0, [x20]
	cbz	w0, .L362
	ldr	w0, [x19, 12]
	sub	w1, w0, #1
	str	w1, [x19, 12]
	b	.L363
.L362:
	add	x1, x19, 12
	mov	w0, -1
	bl	__aarch64_ldadd4_acq_rel
.L363:
	cmp	w0, 1
	bne	.L348
	ldr	x1, [x19]
	mov	x0, x19
	ldp	x19, x20, [sp, 16]
	ldr	x21, [sp, 32]
	ldp	x29, x30, [sp], 48
	.cfi_remember_state
	.cfi_restore 30
	.cfi_restore 29
	.cfi_restore 21
	.cfi_restore 19
	.cfi_restore 20
	.cfi_def_cfa_offset 0
	ldr	x1, [x1, 24]
	mov	x16, x1
	br	x16
.L348:
	.cfi_restore_state
	ldp	x19, x20, [sp, 16]
	ldr	x21, [sp, 32]
	ldp	x29, x30, [sp], 48
	.cfi_restore 30
	.cfi_restore 29
	.cfi_restore 21
	.cfi_restore 19
	.cfi_restore 20
	.cfi_def_cfa_offset 0
	ret
	.cfi_endproc
.LFE8165:
	.section	.gcc_except_table
.LLSDA8165:
	.byte	0xff
	.byte	0xff
	.byte	0x1
	.uleb128 .LLSDACSE8165-.LLSDACSB8165
.LLSDACSB8165:
.LLSDACSE8165:
	.section	.text.unlikely
	.size	_ZZN8asiodnp318MasterSessionStack16SelectAndOperateEON8opendnp310CommandSetERKSt8functionIFvRKNS1_18ICommandTaskResultEEERKNS1_10TaskConfigEENUlvE_D2Ev, .-_ZZN8asiodnp318MasterSessionStack16SelectAndOperateEON8opendnp310CommandSetERKSt8functionIFvRKNS1_18ICommandTaskResultEEERKNS1_10TaskConfigEENUlvE_D2Ev
	.set	_ZZN8asiodnp318MasterSessionStack16SelectAndOperateEON8opendnp310CommandSetERKSt8functionIFvRKNS1_18ICommandTaskResultEEERKNS1_10TaskConfigEENUlvE_D1Ev,_ZZN8asiodnp318MasterSessionStack16SelectAndOperateEON8opendnp310CommandSetERKSt8functionIFvRKNS1_18ICommandTaskResultEEERKNS1_10TaskConfigEENUlvE_D2Ev
	.section	.text._ZNSt13__future_base7_ResultISt10shared_ptrIN8opendnp311IMasterTaskEEED2Ev,"axG",@progbits,_ZNSt13__future_base7_ResultISt10shared_ptrIN8opendnp311IMasterTaskEEED5Ev,comdat
	.align	2
	.p2align 4,,11
	.weak	_ZNSt13__future_base7_ResultISt10shared_ptrIN8opendnp311IMasterTaskEEED2Ev
	.type	_ZNSt13__future_base7_ResultISt10shared_ptrIN8opendnp311IMasterTaskEEED2Ev, %function
_ZNSt13__future_base7_ResultISt10shared_ptrIN8opendnp311IMasterTaskEEED2Ev:
.LFB11830:
	.cfi_startproc
	stp	x29, x30, [sp, -48]!
	.cfi_def_cfa_offset 48
	.cfi_offset 29, -48
	.cfi_offset 30, -40
	adrp	x1, :got:_ZTVNSt13__future_base7_ResultISt10shared_ptrIN8opendnp311IMasterTaskEEEE
	mov	x29, sp
	ldr	x1, [x1, #:got_lo12:_ZTVNSt13__future_base7_ResultISt10shared_ptrIN8opendnp311IMasterTaskEEEE]
	stp	x19, x20, [sp, 16]
	.cfi_offset 19, -32
	.cfi_offset 20, -24
	mov	x19, x0
	ldrb	w0, [x0, 32]
	add	x1, x1, 16
	str	x1, [x19]
	cbz	w0, .L369
	ldr	x20, [x19, 24]
	cbz	x20, .L369
	str	x21, [sp, 32]
	.cfi_offset 21, -16
	adrp	x21, :got:__libc_single_threaded
	ldr	x0, [x21, #:got_lo12:__libc_single_threaded]
	ldrb	w0, [x0]
	cbz	w0, .L372
	ldr	w0, [x20, 8]
	sub	w1, w0, #1
	str	w1, [x20, 8]
.L373:
	cmp	w0, 1
	beq	.L383
.L382:
	ldr	x21, [sp, 32]
	.cfi_restore 21
.L369:
	mov	x0, x19
	ldp	x19, x20, [sp, 16]
	ldp	x29, x30, [sp], 48
	.cfi_restore 30
	.cfi_restore 29
	.cfi_restore 19
	.cfi_restore 20
	.cfi_def_cfa_offset 0
	b	_ZNSt13__future_base12_Result_baseD2Ev
	.p2align 2,,3
.L383:
	.cfi_def_cfa_offset 48
	.cfi_offset 19, -32
	.cfi_offset 20, -24
	.cfi_offset 21, -16
	.cfi_offset 29, -48
	.cfi_offset 30, -40
	ldr	x1, [x20]
	mov	x0, x20
	ldr	x1, [x1, 16]
	blr	x1
	ldr	x21, [x21, #:got_lo12:__libc_single_threaded]
	ldrb	w0, [x21]
	cbz	w0, .L375
	ldr	w0, [x20, 12]
	sub	w1, w0, #1
	str	w1, [x20, 12]
.L376:
	cmp	w0, 1
	bne	.L382
	ldr	x1, [x20]
	mov	x0, x20
	ldr	x1, [x1, 24]
	blr	x1
	ldr	x21, [sp, 32]
	.cfi_remember_state
	.cfi_restore 21
	b	.L369
	.p2align 2,,3
.L372:
	.cfi_restore_state
	add	x1, x20, 8
	mov	w0, -1
	bl	__aarch64_ldadd4_acq_rel
	b	.L373
	.p2align 2,,3
.L375:
	add	x1, x20, 12
	mov	w0, -1
	bl	__aarch64_ldadd4_acq_rel
	b	.L376
	.cfi_endproc
.LFE11830:
	.size	_ZNSt13__future_base7_ResultISt10shared_ptrIN8opendnp311IMasterTaskEEED2Ev, .-_ZNSt13__future_base7_ResultISt10shared_ptrIN8opendnp311IMasterTaskEEED2Ev
	.weak	_ZNSt13__future_base7_ResultISt10shared_ptrIN8opendnp311IMasterTaskEEED1Ev
	.set	_ZNSt13__future_base7_ResultISt10shared_ptrIN8opendnp311IMasterTaskEEED1Ev,_ZNSt13__future_base7_ResultISt10shared_ptrIN8opendnp311IMasterTaskEEED2Ev
	.section	.text._ZNSt13__future_base7_ResultISt10shared_ptrIN8opendnp311IMasterTaskEEED0Ev,"axG",@progbits,_ZNSt13__future_base7_ResultISt10shared_ptrIN8opendnp311IMasterTaskEEED5Ev,comdat
	.align	2
	.p2align 4,,11
	.weak	_ZNSt13__future_base7_ResultISt10shared_ptrIN8opendnp311IMasterTaskEEED0Ev
	.type	_ZNSt13__future_base7_ResultISt10shared_ptrIN8opendnp311IMasterTaskEEED0Ev, %function
_ZNSt13__future_base7_ResultISt10shared_ptrIN8opendnp311IMasterTaskEEED0Ev:
.LFB11832:
	.cfi_startproc
	stp	x29, x30, [sp, -48]!
	.cfi_def_cfa_offset 48
	.cfi_offset 29, -48
	.cfi_offset 30, -40
	adrp	x1, :got:_ZTVNSt13__future_base7_ResultISt10shared_ptrIN8opendnp311IMasterTaskEEEE
	mov	x29, sp
	ldr	x1, [x1, #:got_lo12:_ZTVNSt13__future_base7_ResultISt10shared_ptrIN8opendnp311IMasterTaskEEEE]
	stp	x19, x20, [sp, 16]
	.cfi_offset 19, -32
	.cfi_offset 20, -24
	mov	x19, x0
	ldrb	w0, [x0, 32]
	add	x1, x1, 16
	str	x1, [x19]
	cbz	w0, .L385
	ldr	x20, [x19, 24]
	cbz	x20, .L385
	str	x21, [sp, 32]
	.cfi_offset 21, -16
	adrp	x21, :got:__libc_single_threaded
	ldr	x0, [x21, #:got_lo12:__libc_single_threaded]
	ldrb	w0, [x0]
	cbz	w0, .L388
	ldr	w0, [x20, 8]
	sub	w1, w0, #1
	str	w1, [x20, 8]
.L389:
	cmp	w0, 1
	beq	.L399
.L398:
	ldr	x21, [sp, 32]
	.cfi_restore 21
.L385:
	mov	x0, x19
	bl	_ZNSt13__future_base12_Result_baseD2Ev
	mov	x0, x19
	mov	x1, 40
	ldp	x19, x20, [sp, 16]
	ldp	x29, x30, [sp], 48
	.cfi_restore 30
	.cfi_restore 29
	.cfi_restore 19
	.cfi_restore 20
	.cfi_def_cfa_offset 0
	b	_ZdlPvm
	.p2align 2,,3
.L399:
	.cfi_def_cfa_offset 48
	.cfi_offset 19, -32
	.cfi_offset 20, -24
	.cfi_offset 21, -16
	.cfi_offset 29, -48
	.cfi_offset 30, -40
	ldr	x1, [x20]
	mov	x0, x20
	ldr	x1, [x1, 16]
	blr	x1
	ldr	x21, [x21, #:got_lo12:__libc_single_threaded]
	ldrb	w0, [x21]
	cbz	w0, .L391
	ldr	w0, [x20, 12]
	sub	w1, w0, #1
	str	w1, [x20, 12]
.L392:
	cmp	w0, 1
	bne	.L398
	ldr	x1, [x20]
	mov	x0, x20
	ldr	x1, [x1, 24]
	blr	x1
	ldr	x21, [sp, 32]
	.cfi_remember_state
	.cfi_restore 21
	b	.L385
	.p2align 2,,3
.L388:
	.cfi_restore_state
	add	x1, x20, 8
	mov	w0, -1
	bl	__aarch64_ldadd4_acq_rel
	b	.L389
	.p2align 2,,3
.L391:
	add	x1, x20, 12
	mov	w0, -1
	bl	__aarch64_ldadd4_acq_rel
	b	.L392
	.cfi_endproc
.LFE11832:
	.size	_ZNSt13__future_base7_ResultISt10shared_ptrIN8opendnp311IMasterTaskEEED0Ev, .-_ZNSt13__future_base7_ResultISt10shared_ptrIN8opendnp311IMasterTaskEEED0Ev
	.section	.rodata._ZNSt12system_errorC2ESt10error_codePKc.str1.8,"aMS",@progbits,1
	.align	3
.LC19:
	.string	": "
	.section	.text._ZNSt12system_errorC2ESt10error_codePKc,"axG",@progbits,_ZNSt12system_errorC5ESt10error_codePKc,comdat
	.align	2
	.p2align 4,,11
	.weak	_ZNSt12system_errorC2ESt10error_codePKc
	.type	_ZNSt12system_errorC2ESt10error_codePKc, %function
_ZNSt12system_errorC2ESt10error_codePKc:
.LFB3323:
	.cfi_startproc
	.cfi_personality 0x9b,DW.ref.__gxx_personality_v0
	.cfi_lsda 0x1b,.LLSDA3323
	stp	x29, x30, [sp, -176]!
	.cfi_def_cfa_offset 176
	.cfi_offset 29, -176
	.cfi_offset 30, -168
	adrp	x4, :got:__stack_chk_guard
	mov	x29, sp
	stp	x19, x20, [sp, 16]
	.cfi_offset 19, -160
	.cfi_offset 20, -152
	mov	x20, x2
	mov	x19, x0
	ldr	x2, [x4, #:got_lo12:__stack_chk_guard]
	stp	x21, x22, [sp, 32]
	mov	x0, x20
	ldr	x4, [x20]
	.cfi_offset 21, -144
	.cfi_offset 22, -136
	mov	x21, x1
	mov	x22, x3
	ldr	x4, [x4, 32]
	str	x23, [sp, 48]
	.cfi_offset 23, -128
	add	x23, sp, 136
	mov	x8, x23
	ldr	x3, [x2]
	str	x3, [sp, 168]
	mov	x3, 0
.LEHB12:
	blr	x4
.LEHE12:
	adrp	x3, .LC19
	mov	x0, x23
	add	x3, x3, :lo12:.LC19
	mov	x4, 2
	mov	x2, 0
	mov	x1, 0
.LEHB13:
	bl	_ZNSt7__cxx1112basic_stringIcSt11char_traitsIcESaIcEE10_M_replaceEmmPKcm
.LEHE13:
	add	x23, sp, 120
	str	x23, [sp, 104]
	mov	x4, x0
	ldr	x1, [x0], 16
	cmp	x1, x0
	beq	.L420
	ldr	x2, [x4, 16]
	str	x1, [sp, 104]
	str	x2, [sp, 120]
.L402:
	ldr	x1, [x4, 8]
	str	x1, [sp, 112]
	stp	x0, xzr, [x4]
	mov	x0, x22
	strb	wzr, [x4, 16]
	bl	strlen
	mov	x4, x0
	mov	x3, x22
	add	x0, sp, 104
	mov	x2, 0
	mov	x1, 0
.LEHB14:
	bl	_ZNSt7__cxx1112basic_stringIcSt11char_traitsIcESaIcEE10_M_replaceEmmPKcm
.LEHE14:
	add	x22, sp, 88
	str	x22, [sp, 72]
	mov	x3, x0
	ldr	x1, [x0], 16
	cmp	x1, x0
	beq	.L421
	ldr	x2, [x3, 16]
	str	x1, [sp, 72]
	str	x2, [sp, 88]
.L404:
	ldr	x1, [x3, 8]
	str	x1, [sp, 80]
	stp	x0, xzr, [x3]
	add	x1, sp, 72
	mov	x0, x19
	strb	wzr, [x3, 16]
.LEHB15:
	bl	_ZNSt13runtime_errorC2ERKNSt7__cxx1112basic_stringIcSt11char_traitsIcESaIcEEE
.LEHE15:
	ldr	x0, [sp, 72]
	cmp	x0, x22
	beq	.L405
	ldr	x1, [sp, 88]
	add	x1, x1, 1
	bl	_ZdlPvm
.L405:
	ldr	x0, [sp, 104]
	cmp	x0, x23
	beq	.L406
	ldr	x1, [sp, 120]
	add	x1, x1, 1
	bl	_ZdlPvm
.L406:
	ldr	x0, [sp, 136]
	add	x1, sp, 152
	cmp	x0, x1
	beq	.L407
	ldr	x1, [sp, 152]
	add	x1, x1, 1
	bl	_ZdlPvm
.L407:
	adrp	x0, :got:_ZTVSt12system_error
	adrp	x1, :got:__stack_chk_guard
	stp	x21, x20, [x19, 16]
	ldr	x0, [x0, #:got_lo12:_ZTVSt12system_error]
	ldr	x1, [x1, #:got_lo12:__stack_chk_guard]
	add	x0, x0, 16
	str	x0, [x19]
	ldr	x0, [sp, 168]
	ldr	x2, [x1]
	subs	x0, x0, x2
	mov	x2, 0
	bne	.L422
	ldp	x19, x20, [sp, 16]
	ldp	x21, x22, [sp, 32]
	ldr	x23, [sp, 48]
	ldp	x29, x30, [sp], 176
	.cfi_remember_state
	.cfi_restore 30
	.cfi_restore 29
	.cfi_restore 23
	.cfi_restore 21
	.cfi_restore 22
	.cfi_restore 19
	.cfi_restore 20
	.cfi_def_cfa_offset 0
	ret
	.p2align 2,,3
.L420:
	.cfi_restore_state
	ldp	x2, x3, [x4, 16]
	stp	x2, x3, [sp, 120]
	b	.L402
	.p2align 2,,3
.L421:
	ldp	x4, x5, [x3, 16]
	stp	x4, x5, [sp, 88]
	b	.L404
.L422:
	bl	__stack_chk_fail
.L417:
	ldr	x2, [sp, 72]
	mov	x19, x0
	cmp	x2, x22
	beq	.L410
	ldr	x1, [sp, 88]
	mov	x0, x2
	add	x1, x1, 1
	bl	_ZdlPvm
.L410:
	ldr	x0, [sp, 104]
	cmp	x0, x23
	beq	.L412
	ldr	x1, [sp, 120]
	add	x1, x1, 1
	bl	_ZdlPvm
.L412:
	ldr	x0, [sp, 136]
	add	x1, sp, 152
	cmp	x0, x1
	beq	.L413
	ldr	x1, [sp, 152]
	add	x1, x1, 1
	bl	_ZdlPvm
.L413:
	mov	x0, x19
.LEHB16:
	bl	_Unwind_Resume
.LEHE16:
.L415:
	mov	x19, x0
	b	.L412
.L416:
	mov	x19, x0
	b	.L410
	.cfi_endproc
.LFE3323:
	.section	.gcc_except_table
.LLSDA3323:
	.byte	0xff
	.byte	0xff
	.byte	0x1
	.uleb128 .LLSDACSE3323-.LLSDACSB3323
.LLSDACSB3323:
	.uleb128 .LEHB12-.LFB3323
	.uleb128 .LEHE12-.LEHB12
	.uleb128 0
	.uleb128 0
	.uleb128 .LEHB13-.LFB3323
	.uleb128 .LEHE13-.LEHB13
	.uleb128 .L415-.LFB3323
	.uleb128 0
	.uleb128 .LEHB14-.LFB3323
	.uleb128 .LEHE14-.LEHB14
	.uleb128 .L416-.LFB3323
	.uleb128 0
	.uleb128 .LEHB15-.LFB3323
	.uleb128 .LEHE15-.LEHB15
	.uleb128 .L417-.LFB3323
	.uleb128 0
	.uleb128 .LEHB16-.LFB3323
	.uleb128 .LEHE16-.LEHB16
	.uleb128 0
	.uleb128 0
.LLSDACSE3323:
	.section	.text._ZNSt12system_errorC2ESt10error_codePKc,"axG",@progbits,_ZNSt12system_errorC5ESt10error_codePKc,comdat
	.size	_ZNSt12system_errorC2ESt10error_codePKc, .-_ZNSt12system_errorC2ESt10error_codePKc
	.weak	_ZNSt12system_errorC1ESt10error_codePKc
	.set	_ZNSt12system_errorC1ESt10error_codePKc,_ZNSt12system_errorC2ESt10error_codePKc
	.section	.rodata._ZN4asio6detail20posix_tss_ptr_createERj.str1.8,"aMS",@progbits,1
	.align	3
.LC20:
	.string	"tss"
	.section	.text._ZN4asio6detail20posix_tss_ptr_createERj,"axG",@progbits,_ZN4asio6detail20posix_tss_ptr_createERj,comdat
	.align	2
	.p2align 4,,11
	.weak	_ZN4asio6detail20posix_tss_ptr_createERj
	.type	_ZN4asio6detail20posix_tss_ptr_createERj, %function
_ZN4asio6detail20posix_tss_ptr_createERj:
.LFB3384:
	.cfi_startproc
	.cfi_personality 0x9b,DW.ref.__gxx_personality_v0
	.cfi_lsda 0x1b,.LLSDA3384
	stp	x29, x30, [sp, -96]!
	.cfi_def_cfa_offset 96
	.cfi_offset 29, -96
	.cfi_offset 30, -88
	adrp	x2, :got:__stack_chk_guard
	mov	x1, 0
	mov	x29, sp
	ldr	x2, [x2, #:got_lo12:__stack_chk_guard]
	stp	x19, x20, [sp, 16]
	.cfi_offset 19, -80
	.cfi_offset 20, -72
	adrp	x20, :got:_ZGVZN4asio15system_categoryEvE8instance
	str	x21, [sp, 32]
	.cfi_offset 21, -64
	ldr	x3, [x2]
	str	x3, [sp, 88]
	mov	x3, 0
	bl	pthread_key_create
	mov	w19, w0
	ldr	x20, [x20, #:got_lo12:_ZGVZN4asio15system_categoryEvE8instance]
	ldar	x0, [x20]
	adrp	x21, :got:_ZZN4asio15system_categoryEvE8instance
	tbz	x0, 0, .L435
.L425:
	mov	x1, 0
	ldr	x21, [x21, #:got_lo12:_ZZN4asio15system_categoryEvE8instance]
	bfi	x1, x19, 0, 32
	cbnz	w19, .L436
	adrp	x0, :got:__stack_chk_guard
	ldr	x0, [x0, #:got_lo12:__stack_chk_guard]
	ldr	x2, [sp, 88]
	ldr	x1, [x0]
	subs	x2, x2, x1
	mov	x1, 0
	bne	.L437
	ldp	x19, x20, [sp, 16]
	ldr	x21, [sp, 32]
	ldp	x29, x30, [sp], 96
	.cfi_remember_state
	.cfi_restore 30
	.cfi_restore 29
	.cfi_restore 21
	.cfi_restore 19
	.cfi_restore 20
	.cfi_def_cfa_offset 0
	ret
	.p2align 2,,3
.L435:
	.cfi_restore_state
	mov	x0, x20
	adrp	x21, :got:_ZZN4asio15system_categoryEvE8instance
	bl	__cxa_guard_acquire
	cbz	w0, .L425
	adrp	x0, :got:_ZN4asio6detail15system_categoryD1Ev
	adrp	x2, __dso_handle
	ldr	x1, [x21, #:got_lo12:_ZZN4asio15system_categoryEvE8instance]
	add	x2, x2, :lo12:__dso_handle
	ldr	x0, [x0, #:got_lo12:_ZN4asio6detail15system_categoryD1Ev]
	bl	__cxa_atexit
	mov	x0, x20
	bl	__cxa_guard_release
	b	.L425
.L437:
	bl	__stack_chk_fail
.L436:
	mov	x2, x21
	adrp	x3, .LC20
	add	x3, x3, :lo12:.LC20
	add	x20, sp, 56
	mov	x0, x20
.LEHB17:
	bl	_ZNSt12system_errorC1ESt10error_codePKc
.LEHE17:
	mov	x0, 32
	bl	__cxa_allocate_exception
	mov	x19, x0
	mov	x1, x20
	bl	_ZNSt13runtime_errorC2ERKS_
	adrp	x3, :got:_ZTVSt12system_error
	adrp	x2, :got:_ZNSt12system_errorD1Ev
	adrp	x1, :got:_ZTISt12system_error
	mov	x0, x19
	ldr	x3, [x3, #:got_lo12:_ZTVSt12system_error]
	ldp	x4, x5, [sp, 72]
	add	x3, x3, 16
	ldr	x2, [x2, #:got_lo12:_ZNSt12system_errorD1Ev]
	str	x3, [x19]
	ldr	x1, [x1, #:got_lo12:_ZTISt12system_error]
	stp	x4, x5, [x19, 16]
.LEHB18:
	bl	__cxa_throw
.LEHE18:
.L430:
	mov	x19, x0
	mov	x0, x20
	bl	_ZNSt12system_errorD1Ev
	mov	x0, x19
.LEHB19:
	bl	_Unwind_Resume
.LEHE19:
	.cfi_endproc
.LFE3384:
	.section	.gcc_except_table
.LLSDA3384:
	.byte	0xff
	.byte	0xff
	.byte	0x1
	.uleb128 .LLSDACSE3384-.LLSDACSB3384
.LLSDACSB3384:
	.uleb128 .LEHB17-.LFB3384
	.uleb128 .LEHE17-.LEHB17
	.uleb128 0
	.uleb128 0
	.uleb128 .LEHB18-.LFB3384
	.uleb128 .LEHE18-.LEHB18
	.uleb128 .L430-.LFB3384
	.uleb128 0
	.uleb128 .LEHB19-.LFB3384
	.uleb128 .LEHE19-.LEHB19
	.uleb128 0
	.uleb128 0
.LLSDACSE3384:
	.section	.text._ZN4asio6detail20posix_tss_ptr_createERj,"axG",@progbits,_ZN4asio6detail20posix_tss_ptr_createERj,comdat
	.size	_ZN4asio6detail20posix_tss_ptr_createERj, .-_ZN4asio6detail20posix_tss_ptr_createERj
	.global	__aarch64_ldadd8_acq_rel
	.section	.text._ZN4asio6detail14strand_service7do_postERPNS1_11strand_implEPNS0_25task_io_service_operationEb,"axG",@progbits,_ZN4asio6detail14strand_service7do_postERPNS1_11strand_implEPNS0_25task_io_service_operationEb,comdat
	.align	2
	.p2align 4,,11
	.weak	_ZN4asio6detail14strand_service7do_postERPNS1_11strand_implEPNS0_25task_io_service_operationEb
	.type	_ZN4asio6detail14strand_service7do_postERPNS1_11strand_implEPNS0_25task_io_service_operationEb, %function
_ZN4asio6detail14strand_service7do_postERPNS1_11strand_implEPNS0_25task_io_service_operationEb:
.LFB7196:
	.cfi_startproc
	stp	x29, x30, [sp, -112]!
	.cfi_def_cfa_offset 112
	.cfi_offset 29, -112
	.cfi_offset 30, -104
	adrp	x4, :got:__stack_chk_guard
	mov	x29, sp
	stp	x19, x20, [sp, 16]
	.cfi_offset 19, -96
	.cfi_offset 20, -88
	mov	x20, x1
	mov	x19, x2
	ldr	x1, [x4, #:got_lo12:__stack_chk_guard]
	stp	x21, x22, [sp, 32]
	.cfi_offset 21, -80
	.cfi_offset 22, -72
	mov	x21, x0
	ldr	x4, [x20]
	ldr	x2, [x1]
	str	x2, [sp, 104]
	mov	x2, 0
	and	w22, w3, 255
	add	x0, x4, 24
	bl	pthread_mutex_lock
	ldr	x1, [x20]
	dup	v0.2d, x19
	ldrb	w2, [x1, 72]
	cbz	w2, .L439
	str	xzr, [x19]
	ldr	x3, [x1, 88]
	cbz	x3, .L440
	str	x19, [x3]
	str	x19, [x1, 88]
.L441:
	adrp	x0, :got:__stack_chk_guard
	ldr	x0, [x0, #:got_lo12:__stack_chk_guard]
	ldr	x3, [sp, 104]
	ldr	x2, [x0]
	subs	x3, x3, x2
	mov	x2, 0
	add	x0, x1, 24
	bne	.L470
.L469:
	ldp	x19, x20, [sp, 16]
	ldp	x21, x22, [sp, 32]
	ldp	x29, x30, [sp], 112
	.cfi_remember_state
	.cfi_restore 30
	.cfi_restore 29
	.cfi_restore 21
	.cfi_restore 22
	.cfi_restore 19
	.cfi_restore 20
	.cfi_def_cfa_offset 0
	b	pthread_mutex_unlock
	.p2align 2,,3
.L440:
	.cfi_restore_state
	str	q0, [x1, 80]
	b	.L441
	.p2align 2,,3
.L439:
	mov	w0, 1
	strb	w0, [x1, 72]
	add	x0, x1, 24
	str	q0, [sp, 48]
	bl	pthread_mutex_unlock
	ldr	x20, [x20]
	dup	v0.2d, x20
	ldr	x1, [x20, 104]
	str	xzr, [x19]
	str	q0, [sp, 64]
	ldr	q0, [sp, 48]
	cbz	x1, .L443
	str	x19, [x1]
	str	x19, [x20, 104]
.L444:
	ldr	x19, [x21, 40]
	ldrb	w0, [x19, 40]
	orr	w0, w0, w22
	cbz	w0, .L445
	adrp	x0, :got:_ZN4asio6detail10call_stackINS0_15task_io_serviceENS0_27task_io_service_thread_infoEE4top_E
	ldr	x0, [x0, #:got_lo12:_ZN4asio6detail10call_stackINS0_15task_io_serviceENS0_27task_io_service_thread_infoEE4top_E]
	ldr	w0, [x0]
	bl	pthread_getspecific
	cbnz	x0, .L448
	b	.L445
	.p2align 2,,3
.L446:
	ldr	x0, [x0, 16]
	cbz	x0, .L445
.L448:
	ldr	x1, [x0]
	cmp	x19, x1
	bne	.L446
	ldr	x0, [x0, 8]
	cbz	x0, .L445
	ldp	x3, x1, [x0, 16]
	add	x1, x1, 1
	str	x1, [x0, 24]
	str	xzr, [x20]
	ldr	x1, [x0, 16]
	cbz	x3, .L449
	str	x20, [x1]
	str	x20, [x0, 16]
.L438:
	adrp	x0, :got:__stack_chk_guard
	ldr	x0, [x0, #:got_lo12:__stack_chk_guard]
	ldr	x2, [sp, 104]
	ldr	x1, [x0]
	subs	x2, x2, x1
	mov	x1, 0
	bne	.L470
	ldp	x19, x20, [sp, 16]
	ldp	x21, x22, [sp, 32]
	ldp	x29, x30, [sp], 112
	.cfi_remember_state
	.cfi_restore 30
	.cfi_restore 29
	.cfi_restore 21
	.cfi_restore 22
	.cfi_restore 19
	.cfi_restore 20
	.cfi_def_cfa_offset 0
	ret
	.p2align 2,,3
.L445:
	.cfi_restore_state
	add	x1, x19, 192
	add	x21, x19, 48
	mov	x0, 1
	bl	__aarch64_ldadd8_acq_rel
	mov	x0, x21
	bl	pthread_mutex_lock
	ldr	x1, [x19, 208]
	str	xzr, [x20]
	cbz	x1, .L451
	str	x20, [x1]
	str	x20, [x19, 208]
.L452:
	ldr	x1, [x19, 144]
	add	x20, x19, 96
	orr	x1, x1, 1
	str	x1, [x20, 48]
	cmp	x1, 1
	beq	.L453
	mov	x0, x21
	bl	pthread_mutex_unlock
	adrp	x0, :got:__stack_chk_guard
	ldr	x0, [x0, #:got_lo12:__stack_chk_guard]
	ldr	x2, [sp, 104]
	ldr	x1, [x0]
	subs	x2, x2, x1
	mov	x1, 0
	bne	.L470
	mov	x0, x20
	ldp	x19, x20, [sp, 16]
	ldp	x21, x22, [sp, 32]
	ldp	x29, x30, [sp], 112
	.cfi_remember_state
	.cfi_restore 30
	.cfi_restore 29
	.cfi_restore 21
	.cfi_restore 22
	.cfi_restore 19
	.cfi_restore 20
	.cfi_def_cfa_offset 0
	b	pthread_cond_signal
	.p2align 2,,3
.L451:
	.cfi_restore_state
	ldr	q0, [sp, 64]
	str	q0, [x19, 200]
	b	.L452
	.p2align 2,,3
.L453:
	ldrb	w0, [x19, 184]
	cbnz	w0, .L455
	ldr	x3, [x19, 152]
	cbz	x3, .L455
	ldr	w2, [x3, 96]
	add	x4, x3, 96
	ldr	w0, [x3, 104]
	mov	w5, 9
	movk	w5, 0x8000, lsl 16
	strb	w1, [x19, 184]
	add	x3, sp, 88
	mov	w1, 3
	str	w5, [sp, 88]
	str	x4, [sp, 96]
	bl	epoll_ctl
.L455:
	adrp	x0, :got:__stack_chk_guard
	ldr	x0, [x0, #:got_lo12:__stack_chk_guard]
	ldr	x2, [sp, 104]
	ldr	x1, [x0]
	subs	x2, x2, x1
	mov	x1, 0
	mov	x0, x21
	beq	.L469
.L470:
	bl	__stack_chk_fail
	.p2align 2,,3
.L443:
	str	q0, [x20, 96]
	b	.L444
	.p2align 2,,3
.L449:
	ldr	q0, [sp, 64]
	str	q0, [x0, 8]
	b	.L438
	.cfi_endproc
.LFE7196:
	.size	_ZN4asio6detail14strand_service7do_postERPNS1_11strand_implEPNS0_25task_io_service_operationEb, .-_ZN4asio6detail14strand_service7do_postERPNS1_11strand_implEPNS0_25task_io_service_operationEb
	.text
	.align	2
	.p2align 4,,11
	.global	_ZN8asiodnp318MasterSessionStack13SetLogFiltersERKN7openpal10LogFiltersE
	.type	_ZN8asiodnp318MasterSessionStack13SetLogFiltersERKN7openpal10LogFiltersE, %function
_ZN8asiodnp318MasterSessionStack13SetLogFiltersERKN7openpal10LogFiltersE:
.LFB7981:
	.cfi_startproc
	stp	x29, x30, [sp, -48]!
	.cfi_def_cfa_offset 48
	.cfi_offset 29, -48
	.cfi_offset 30, -40
	adrp	x2, :got:_ZN4asio6detail10call_stackINS0_15task_io_serviceENS0_27task_io_service_thread_infoEE4top_E
	mov	x29, sp
	ldr	x2, [x2, #:got_lo12:_ZN4asio6detail10call_stackINS0_15task_io_serviceENS0_27task_io_service_thread_infoEE4top_E]
	stp	x19, x20, [sp, 16]
	.cfi_offset 19, -32
	.cfi_offset 20, -24
	mov	x19, x0
	ldr	x3, [x0, 32]
	stp	x21, x22, [sp, 32]
	.cfi_offset 21, -16
	.cfi_offset 22, -8
	ldr	w0, [x2]
	ldr	w20, [x1]
	add	x22, x3, 48
	ldr	x21, [x3, 40]
	bl	pthread_getspecific
	cbz	x0, .L472
	ldr	x0, [x0, 8]
	cbz	x0, .L472
	ldr	x2, [x0]
	cbz	x2, .L472
	str	xzr, [x0]
	ldrb	w0, [x2]
	cmp	w0, 39
	bls	.L473
	strb	w0, [x2, 40]
	b	.L474
	.p2align 2,,3
.L473:
	mov	x0, x2
	bl	_ZdlPv
.L472:
	mov	x0, 41
	bl	_Znwm
	mov	x2, x0
	mov	w1, 40
	strb	w1, [x0, 40]
.L474:
	adrp	x0, _ZN4asio6detail18completion_handlerIZN8asiodnp318MasterSessionStack13SetLogFiltersERKN7openpal10LogFiltersEEUlvE_E11do_completeEPNS0_15task_io_serviceEPNS0_25task_io_service_operationERKSt10error_codem
	add	x0, x0, :lo12:_ZN4asio6detail18completion_handlerIZN8asiodnp318MasterSessionStack13SetLogFiltersERKN7openpal10LogFiltersEEUlvE_E11do_completeEPNS0_15task_io_serviceEPNS0_25task_io_service_operationERKSt10error_codem
	stp	xzr, x0, [x2]
	mov	x1, x22
	mov	x0, x21
	str	wzr, [x2, 16]
	mov	w3, 0
	str	x19, [x2, 24]
	str	w20, [x2, 32]
	ldp	x19, x20, [sp, 16]
	ldp	x21, x22, [sp, 32]
	ldp	x29, x30, [sp], 48
	.cfi_restore 30
	.cfi_restore 29
	.cfi_restore 21
	.cfi_restore 22
	.cfi_restore 19
	.cfi_restore 20
	.cfi_def_cfa_offset 0
	b	_ZN4asio6detail14strand_service7do_postERPNS1_11strand_implEPNS0_25task_io_service_operationEb
	.cfi_endproc
.LFE7981:
	.size	_ZN8asiodnp318MasterSessionStack13SetLogFiltersERKN7openpal10LogFiltersE, .-_ZN8asiodnp318MasterSessionStack13SetLogFiltersERKN7openpal10LogFiltersE
	.section	.text._ZN8opendnp314TransportStackD2Ev,"axG",@progbits,_ZN8opendnp314TransportStackD5Ev,comdat
	.align	2
	.p2align 4,,11
	.weak	_ZN8opendnp314TransportStackD2Ev
	.type	_ZN8opendnp314TransportStackD2Ev, %function
_ZN8opendnp314TransportStackD2Ev:
.LFB7952:
	.cfi_startproc
	stp	x29, x30, [sp, -48]!
	.cfi_def_cfa_offset 48
	.cfi_offset 29, -48
	.cfi_offset 30, -40
	mov	x29, sp
	stp	x19, x20, [sp, 16]
	.cfi_offset 19, -32
	.cfi_offset 20, -24
	mov	x19, x0
	ldr	x20, [x0, 24]
	str	x21, [sp, 32]
	.cfi_offset 21, -16
	cbz	x20, .L487
	adrp	x21, :got:__libc_single_threaded
	ldr	x0, [x21, #:got_lo12:__libc_single_threaded]
	ldrb	w0, [x0]
	cbz	w0, .L488
	ldr	w0, [x20, 8]
	sub	w1, w0, #1
	str	w1, [x20, 8]
.L489:
	cmp	w0, 1
	beq	.L501
.L487:
	ldr	x19, [x19, 8]
	cbz	x19, .L485
	adrp	x21, :got:__libc_single_threaded
	ldr	x0, [x21, #:got_lo12:__libc_single_threaded]
	ldrb	w0, [x0]
	cbz	w0, .L495
	ldr	w0, [x19, 8]
	sub	w1, w0, #1
	str	w1, [x19, 8]
.L496:
	cmp	w0, 1
	beq	.L502
.L485:
	ldp	x19, x20, [sp, 16]
	ldr	x21, [sp, 32]
	ldp	x29, x30, [sp], 48
	.cfi_remember_state
	.cfi_restore 30
	.cfi_restore 29
	.cfi_restore 21
	.cfi_restore 19
	.cfi_restore 20
	.cfi_def_cfa_offset 0
	ret
	.p2align 2,,3
.L501:
	.cfi_restore_state
	ldr	x1, [x20]
	mov	x0, x20
	ldr	x1, [x1, 16]
	blr	x1
	ldr	x21, [x21, #:got_lo12:__libc_single_threaded]
	ldrb	w0, [x21]
	cbz	w0, .L491
	ldr	w0, [x20, 12]
	sub	w1, w0, #1
	str	w1, [x20, 12]
.L492:
	cmp	w0, 1
	bne	.L487
	ldr	x1, [x20]
	mov	x0, x20
	ldr	x1, [x1, 24]
	blr	x1
	b	.L487
	.p2align 2,,3
.L502:
	ldr	x1, [x19]
	mov	x0, x19
	ldr	x1, [x1, 16]
	blr	x1
	ldr	x21, [x21, #:got_lo12:__libc_single_threaded]
	ldrb	w0, [x21]
	cbz	w0, .L498
	ldr	w0, [x19, 12]
	sub	w1, w0, #1
	str	w1, [x19, 12]
.L499:
	cmp	w0, 1
	bne	.L485
	ldr	x1, [x19]
	mov	x0, x19
	ldp	x19, x20, [sp, 16]
	ldr	x21, [sp, 32]
	ldp	x29, x30, [sp], 48
	.cfi_remember_state
	.cfi_restore 30
	.cfi_restore 29
	.cfi_restore 21
	.cfi_restore 19
	.cfi_restore 20
	.cfi_def_cfa_offset 0
	ldr	x1, [x1, 24]
	mov	x16, x1
	br	x16
	.p2align 2,,3
.L495:
	.cfi_restore_state
	add	x1, x19, 8
	mov	w0, -1
	bl	__aarch64_ldadd4_acq_rel
	b	.L496
	.p2align 2,,3
.L488:
	add	x1, x20, 8
	mov	w0, -1
	bl	__aarch64_ldadd4_acq_rel
	b	.L489
	.p2align 2,,3
.L491:
	add	x1, x20, 12
	mov	w0, -1
	bl	__aarch64_ldadd4_acq_rel
	b	.L492
	.p2align 2,,3
.L498:
	add	x1, x19, 12
	mov	w0, -1
	bl	__aarch64_ldadd4_acq_rel
	b	.L499
	.cfi_endproc
.LFE7952:
	.size	_ZN8opendnp314TransportStackD2Ev, .-_ZN8opendnp314TransportStackD2Ev
	.weak	_ZN8opendnp314TransportStackD1Ev
	.set	_ZN8opendnp314TransportStackD1Ev,_ZN8opendnp314TransportStackD2Ev
	.text
	.align	2
	.p2align 4,,11
	.global	_ZNK8asiodnp318MasterSessionStack16CreateStatisticsEv
	.type	_ZNK8asiodnp318MasterSessionStack16CreateStatisticsEv, %function
_ZNK8asiodnp318MasterSessionStack16CreateStatisticsEv:
.LFB8178:
	.cfi_startproc
	stp	x29, x30, [sp, -80]!
	.cfi_def_cfa_offset 80
	.cfi_offset 29, -80
	.cfi_offset 30, -72
	adrp	x1, :got:__stack_chk_guard
	mov	x29, sp
	ldr	x1, [x1, #:got_lo12:__stack_chk_guard]
	stp	x19, x20, [sp, 16]
	.cfi_offset 19, -64
	.cfi_offset 20, -56
	mov	x20, x8
	str	x21, [sp, 32]
	.cfi_offset 21, -48
	mov	x21, x0
	ldr	x0, [x0, 80]
	ldr	x2, [x1]
	str	x2, [sp, 72]
	mov	x2, 0
	add	x19, sp, 48
	bl	_ZNK8opendnp39LinkLayer13GetStatisticsEv
	mov	x1, x0
	ldr	x0, [x21, 64]
	mov	x8, x19
	mov	x21, x1
	bl	_ZNK8opendnp314TransportLayer13GetStatisticsEv
	mov	x2, x20
	adrp	x1, :got:__stack_chk_guard
	ldp	x4, x5, [x21]
	stp	x4, x5, [x2], 16
	ldp	x4, x5, [sp, 48]
	stp	x4, x5, [x20, 16]
	ldr	x0, [x1, #:got_lo12:__stack_chk_guard]
	ldr	x1, [sp, 64]
	str	x1, [x2, 16]
	ldr	x2, [sp, 72]
	ldr	x1, [x0]
	subs	x2, x2, x1
	mov	x1, 0
	bne	.L506
	ldp	x19, x20, [sp, 16]
	ldr	x21, [sp, 32]
	ldp	x29, x30, [sp], 80
	.cfi_remember_state
	.cfi_restore 30
	.cfi_restore 29
	.cfi_restore 21
	.cfi_restore 19
	.cfi_restore 20
	.cfi_def_cfa_offset 0
	ret
.L506:
	.cfi_restore_state
	bl	__stack_chk_fail
	.cfi_endproc
.LFE8178:
	.size	_ZNK8asiodnp318MasterSessionStack16CreateStatisticsEv, .-_ZNK8asiodnp318MasterSessionStack16CreateStatisticsEv
	.align	2
	.p2align 4,,11
	.type	_ZNSt17_Function_handlerIFN8opendnp315StackStatisticsEvEZN8asiodnp318MasterSessionStack18GetStackStatisticsEvEUlvE_E9_M_invokeERKSt9_Any_data, %function
_ZNSt17_Function_handlerIFN8opendnp315StackStatisticsEvEZN8asiodnp318MasterSessionStack18GetStackStatisticsEvEUlvE_E9_M_invokeERKSt9_Any_data:
.LFB9694:
	.cfi_startproc
	stp	x29, x30, [sp, -32]!
	.cfi_def_cfa_offset 32
	.cfi_offset 29, -32
	.cfi_offset 30, -24
	adrp	x1, :got:__stack_chk_guard
	mov	x29, sp
	ldr	x0, [x0]
	ldr	x1, [x1, #:got_lo12:__stack_chk_guard]
	ldr	x0, [x0]
	ldr	x2, [x1]
	str	x2, [sp, 24]
	mov	x2, 0
	bl	_ZNK8asiodnp318MasterSessionStack16CreateStatisticsEv
	adrp	x0, :got:__stack_chk_guard
	ldr	x0, [x0, #:got_lo12:__stack_chk_guard]
	ldr	x2, [sp, 24]
	ldr	x1, [x0]
	subs	x2, x2, x1
	mov	x1, 0
	bne	.L510
	ldp	x29, x30, [sp], 32
	.cfi_remember_state
	.cfi_restore 30
	.cfi_restore 29
	.cfi_def_cfa_offset 0
	ret
.L510:
	.cfi_restore_state
	bl	__stack_chk_fail
	.cfi_endproc
.LFE9694:
	.size	_ZNSt17_Function_handlerIFN8opendnp315StackStatisticsEvEZN8asiodnp318MasterSessionStack18GetStackStatisticsEvEUlvE_E9_M_invokeERKSt9_Any_data, .-_ZNSt17_Function_handlerIFN8opendnp315StackStatisticsEvEZN8asiodnp318MasterSessionStack18GetStackStatisticsEvEUlvE_E9_M_invokeERKSt9_Any_data
	.section	.text._ZNSt14__shared_countILN9__gnu_cxx12_Lock_policyE2EEC2ERKS2_,"axG",@progbits,_ZNSt14__shared_countILN9__gnu_cxx12_Lock_policyE2EEC5ERKS2_,comdat
	.align	2
	.p2align 4,,11
	.weak	_ZNSt14__shared_countILN9__gnu_cxx12_Lock_policyE2EEC2ERKS2_
	.type	_ZNSt14__shared_countILN9__gnu_cxx12_Lock_policyE2EEC2ERKS2_, %function
_ZNSt14__shared_countILN9__gnu_cxx12_Lock_policyE2EEC2ERKS2_:
.LFB8438:
	.cfi_startproc
	ldr	x1, [x1]
	str	x1, [x0]
	cbz	x1, .L518
	adrp	x0, :got:__libc_single_threaded
	ldr	x0, [x0, #:got_lo12:__libc_single_threaded]
	ldrb	w0, [x0]
	cbz	w0, .L513
	ldr	w0, [x1, 8]
	add	w0, w0, 1
	str	w0, [x1, 8]
	ret
	.p2align 2,,3
.L518:
	ret
	.p2align 2,,3
.L513:
	stp	x29, x30, [sp, -16]!
	.cfi_def_cfa_offset 16
	.cfi_offset 29, -16
	.cfi_offset 30, -8
	add	x1, x1, 8
	mov	w0, 1
	mov	x29, sp
	bl	__aarch64_ldadd4_acq_rel
	ldp	x29, x30, [sp], 16
	.cfi_restore 30
	.cfi_restore 29
	.cfi_def_cfa_offset 0
	ret
	.cfi_endproc
.LFE8438:
	.size	_ZNSt14__shared_countILN9__gnu_cxx12_Lock_policyE2EEC2ERKS2_, .-_ZNSt14__shared_countILN9__gnu_cxx12_Lock_policyE2EEC2ERKS2_
	.weak	_ZNSt14__shared_countILN9__gnu_cxx12_Lock_policyE2EEC1ERKS2_
	.set	_ZNSt14__shared_countILN9__gnu_cxx12_Lock_policyE2EEC1ERKS2_,_ZNSt14__shared_countILN9__gnu_cxx12_Lock_policyE2EEC2ERKS2_
	.section	.text._ZNSt16_Sp_counted_baseILN9__gnu_cxx12_Lock_policyE2EE10_M_releaseEv,"axG",@progbits,_ZNSt16_Sp_counted_baseILN9__gnu_cxx12_Lock_policyE2EE10_M_releaseEv,comdat
	.align	2
	.p2align 4,,11
	.weak	_ZNSt16_Sp_counted_baseILN9__gnu_cxx12_Lock_policyE2EE10_M_releaseEv
	.type	_ZNSt16_Sp_counted_baseILN9__gnu_cxx12_Lock_policyE2EE10_M_releaseEv, %function
_ZNSt16_Sp_counted_baseILN9__gnu_cxx12_Lock_policyE2EE10_M_releaseEv:
.LFB9318:
	.cfi_startproc
	stp	x29, x30, [sp, -32]!
	.cfi_def_cfa_offset 32
	.cfi_offset 29, -32
	.cfi_offset 30, -24
	mov	x29, sp
	stp	x19, x20, [sp, 16]
	.cfi_offset 19, -16
	.cfi_offset 20, -8
	adrp	x20, :got:__libc_single_threaded
	mov	x19, x0
	ldr	x0, [x20, #:got_lo12:__libc_single_threaded]
	ldrb	w0, [x0]
	cbz	w0, .L521
	ldr	w0, [x19, 8]
	sub	w1, w0, #1
	str	w1, [x19, 8]
.L522:
	cmp	w0, 1
	beq	.L529
.L520:
	ldp	x19, x20, [sp, 16]
	ldp	x29, x30, [sp], 32
	.cfi_remember_state
	.cfi_restore 30
	.cfi_restore 29
	.cfi_restore 19
	.cfi_restore 20
	.cfi_def_cfa_offset 0
	ret
	.p2align 2,,3
.L529:
	.cfi_restore_state
	ldr	x1, [x19]
	mov	x0, x19
	ldr	x1, [x1, 16]
	blr	x1
	ldr	x20, [x20, #:got_lo12:__libc_single_threaded]
	ldrb	w0, [x20]
	cbz	w0, .L525
	ldr	w0, [x19, 12]
	sub	w1, w0, #1
	str	w1, [x19, 12]
.L526:
	cmp	w0, 1
	bne	.L520
	ldr	x1, [x19]
	mov	x0, x19
	ldp	x19, x20, [sp, 16]
	ldp	x29, x30, [sp], 32
	.cfi_remember_state
	.cfi_restore 30
	.cfi_restore 29
	.cfi_restore 19
	.cfi_restore 20
	.cfi_def_cfa_offset 0
	ldr	x1, [x1, 24]
	mov	x16, x1
	br	x16
	.p2align 2,,3
.L521:
	.cfi_restore_state
	add	x1, x19, 8
	mov	w0, -1
	bl	__aarch64_ldadd4_acq_rel
	b	.L522
	.p2align 2,,3
.L525:
	add	x1, x19, 12
	mov	w0, -1
	bl	__aarch64_ldadd4_acq_rel
	b	.L526
	.cfi_endproc
.LFE9318:
	.size	_ZNSt16_Sp_counted_baseILN9__gnu_cxx12_Lock_policyE2EE10_M_releaseEv, .-_ZNSt16_Sp_counted_baseILN9__gnu_cxx12_Lock_policyE2EE10_M_releaseEv
	.text
	.align	2
	.p2align 4,,11
	.global	_ZN8asiodnp318MasterSessionStack13BeginShutdownEv
	.type	_ZN8asiodnp318MasterSessionStack13BeginShutdownEv, %function
_ZN8asiodnp318MasterSessionStack13BeginShutdownEv:
.LFB8004:
	.cfi_startproc
	.cfi_personality 0x9b,DW.ref.__gxx_personality_v0
	.cfi_lsda 0x1b,.LLSDA8004
	stp	x29, x30, [sp, -64]!
	.cfi_def_cfa_offset 64
	.cfi_offset 29, -64
	.cfi_offset 30, -56
	mov	x29, sp
	stp	x19, x20, [sp, 16]
	.cfi_offset 19, -48
	.cfi_offset 20, -40
	mov	x20, x0
	stp	x21, x22, [sp, 32]
	.cfi_offset 21, -32
	.cfi_offset 22, -24
	ldp	x22, x19, [x0, 48]
	str	x23, [sp, 48]
	.cfi_offset 23, -16
	cbz	x19, .L531
	adrp	x21, :got:__libc_single_threaded
	add	x23, x19, 8
	ldr	x21, [x21, #:got_lo12:__libc_single_threaded]
	ldrb	w0, [x21]
	cbz	w0, .L532
	ldr	w0, [x19, 8]
	ldr	x20, [x20, 32]
	add	w0, w0, 1
	str	w0, [x19, 8]
.L533:
	ldr	w0, [x19, 8]
	mov	x21, x19
	add	w0, w0, 1
	str	w0, [x19, 8]
.L535:
	adrp	x0, :got:_ZN4asio6detail10call_stackINS0_15task_io_serviceENS0_27task_io_service_thread_infoEE4top_E
	add	x23, x20, 48
	ldr	x20, [x20, 40]
	ldr	x0, [x0, #:got_lo12:_ZN4asio6detail10call_stackINS0_15task_io_serviceENS0_27task_io_service_thread_infoEE4top_E]
	ldr	w0, [x0]
	bl	pthread_getspecific
	cbz	x0, .L536
.L561:
	ldr	x0, [x0, 8]
	cbz	x0, .L536
	ldr	x2, [x0]
	cbz	x2, .L536
	str	xzr, [x0]
	ldrb	w0, [x2]
	cmp	w0, 39
	bls	.L537
	strb	w0, [x2, 40]
.L538:
	adrp	x0, _ZN4asio6detail18completion_handlerIZN8asiodnp318MasterSessionStack13BeginShutdownEvEUlvE_E11do_completeEPNS0_15task_io_serviceEPNS0_25task_io_service_operationERKSt10error_codem
	add	x0, x0, :lo12:_ZN4asio6detail18completion_handlerIZN8asiodnp318MasterSessionStack13BeginShutdownEvEUlvE_E11do_completeEPNS0_15task_io_serviceEPNS0_25task_io_service_operationERKSt10error_codem
	stp	xzr, x0, [x2]
	mov	x1, x23
	mov	x0, x20
	str	wzr, [x2, 16]
	mov	w3, 0
	stp	x22, x21, [x2, 24]
	bl	_ZN4asio6detail14strand_service7do_postERPNS1_11strand_implEPNS0_25task_io_service_operationEb
	cbz	x19, .L560
	mov	x0, x19
	ldp	x19, x20, [sp, 16]
	ldp	x21, x22, [sp, 32]
	ldr	x23, [sp, 48]
	ldp	x29, x30, [sp], 64
	.cfi_remember_state
	.cfi_restore 30
	.cfi_restore 29
	.cfi_restore 23
	.cfi_restore 21
	.cfi_restore 22
	.cfi_restore 19
	.cfi_restore 20
	.cfi_def_cfa_offset 0
	b	_ZNSt16_Sp_counted_baseILN9__gnu_cxx12_Lock_policyE2EE10_M_releaseEv
	.p2align 2,,3
.L532:
	.cfi_restore_state
	mov	x1, x23
	mov	w0, 1
	bl	__aarch64_ldadd4_acq_rel
	ldrb	w0, [x21]
	ldr	x20, [x20, 32]
	cbnz	w0, .L533
	mov	x1, x23
	mov	w0, 1
	bl	__aarch64_ldadd4_acq_rel
	add	x23, x20, 48
	adrp	x0, :got:_ZN4asio6detail10call_stackINS0_15task_io_serviceENS0_27task_io_service_thread_infoEE4top_E
	mov	x21, x19
	ldr	x20, [x20, 40]
	ldr	x0, [x0, #:got_lo12:_ZN4asio6detail10call_stackINS0_15task_io_serviceENS0_27task_io_service_thread_infoEE4top_E]
	ldr	w0, [x0]
	bl	pthread_getspecific
	cbnz	x0, .L561
	.p2align 3,,7
.L536:
	mov	x0, 41
.LEHB20:
	bl	_Znwm
.LEHE20:
	mov	w1, 40
	mov	x2, x0
	strb	w1, [x0, 40]
	b	.L538
	.p2align 2,,3
.L560:
	ldp	x19, x20, [sp, 16]
	ldp	x21, x22, [sp, 32]
	ldr	x23, [sp, 48]
	ldp	x29, x30, [sp], 64
	.cfi_remember_state
	.cfi_restore 30
	.cfi_restore 29
	.cfi_restore 23
	.cfi_restore 21
	.cfi_restore 22
	.cfi_restore 19
	.cfi_restore 20
	.cfi_def_cfa_offset 0
	ret
	.p2align 2,,3
.L531:
	.cfi_restore_state
	mov	x21, 0
	ldr	x20, [x0, 32]
	b	.L535
	.p2align 2,,3
.L537:
	mov	x0, x2
	bl	_ZdlPv
	b	.L536
.L545:
	mov	x20, x0
	cbz	x21, .L542
	mov	x0, x21
	bl	_ZNSt16_Sp_counted_baseILN9__gnu_cxx12_Lock_policyE2EE10_M_releaseEv
.L542:
	cbz	x19, .L544
	mov	x0, x19
	bl	_ZNSt16_Sp_counted_baseILN9__gnu_cxx12_Lock_policyE2EE10_M_releaseEv
.L544:
	mov	x0, x20
.LEHB21:
	bl	_Unwind_Resume
.LEHE21:
	.cfi_endproc
.LFE8004:
	.section	.gcc_except_table
.LLSDA8004:
	.byte	0xff
	.byte	0xff
	.byte	0x1
	.uleb128 .LLSDACSE8004-.LLSDACSB8004
.LLSDACSB8004:
	.uleb128 .LEHB20-.LFB8004
	.uleb128 .LEHE20-.LEHB20
	.uleb128 .L545-.LFB8004
	.uleb128 0
	.uleb128 .LEHB21-.LFB8004
	.uleb128 .LEHE21-.LEHB21
	.uleb128 0
	.uleb128 0
.LLSDACSE8004:
	.text
	.size	_ZN8asiodnp318MasterSessionStack13BeginShutdownEv, .-_ZN8asiodnp318MasterSessionStack13BeginShutdownEv
	.global	__aarch64_cas4_acq_rel
	.align	2
	.p2align 4,,11
	.global	_ZN8asiodnp318MasterSessionStack14ScanAllObjectsEN8opendnp316GroupVariationIDERKNS1_10TaskConfigE
	.type	_ZN8asiodnp318MasterSessionStack14ScanAllObjectsEN8opendnp316GroupVariationIDERKNS1_10TaskConfigE, %function
_ZN8asiodnp318MasterSessionStack14ScanAllObjectsEN8opendnp316GroupVariationIDERKNS1_10TaskConfigE:
.LFB8094:
	.cfi_startproc
	.cfi_personality 0x9b,DW.ref.__gxx_personality_v0
	.cfi_lsda 0x1b,.LLSDA8094
	stp	x29, x30, [sp, -160]!
	.cfi_def_cfa_offset 160
	.cfi_offset 29, -160
	.cfi_offset 30, -152
	mov	x29, sp
	stp	x19, x20, [sp, 16]
	.cfi_offset 19, -144
	.cfi_offset 20, -136
	ldr	x20, [x0, 24]
	stp	x21, x22, [sp, 32]
	stp	x23, x24, [sp, 48]
	.cfi_offset 21, -128
	.cfi_offset 22, -120
	.cfi_offset 23, -112
	.cfi_offset 24, -104
	cbz	x20, .L563
	mov	x19, x0
	mov	w23, w1
	mov	x22, x2
	add	x24, x20, 8
	ldr	w21, [x24]
.L565:
	cbz	w21, .L563
	add	w1, w21, 1
	mov	w0, w21
	mov	x2, x24
	bl	__aarch64_cas4_acq_rel
	cmp	w0, w21
	mov	w21, w0
	bne	.L565
	adrp	x0, :got:__libc_single_threaded
	strh	w23, [sp, 88]
	ldp	x2, x3, [x22]
	stp	x2, x3, [sp, 96]
	ldr	x0, [x0, #:got_lo12:__libc_single_threaded]
	ldr	x21, [x19, 16]
	ldrb	w0, [x0]
	ldr	x19, [x19, 32]
	cbz	w0, .L591
	ldr	w0, [x20, 8]
	add	w0, w0, 1
	str	w0, [x20, 8]
.L566:
	adrp	x0, :got:_ZN4asio6detail10call_stackINS0_15task_io_serviceENS0_27task_io_service_thread_infoEE4top_E
	ldrh	w1, [sp, 88]
	ldp	x2, x3, [sp, 96]
	add	x22, x19, 48
	ldr	x0, [x0, #:got_lo12:_ZN4asio6detail10call_stackINS0_15task_io_serviceENS0_27task_io_service_thread_infoEE4top_E]
	strh	w1, [sp, 128]
	stp	x2, x3, [sp, 136]
	ldr	w0, [x0]
	ldr	x19, [x19, 40]
	bl	pthread_getspecific
	cbz	x0, .L567
	ldr	x0, [x0, 8]
	cbz	x0, .L567
	ldr	x2, [x0]
	cbz	x2, .L567
	str	xzr, [x0]
	ldrb	w0, [x2]
	cmp	w0, 63
	bls	.L568
	strb	w0, [x2, 64]
	b	.L569
	.p2align 2,,3
.L568:
	mov	x0, x2
	bl	_ZdlPv
.L567:
	mov	x0, 65
.LEHB22:
	bl	_Znwm
.LEHE22:
	mov	x2, x0
	mov	w1, 64
	strb	w1, [x0, 64]
.L569:
	ldp	x4, x5, [sp, 136]
	adrp	x0, _ZN4asio6detail18completion_handlerIZN8asiodnp318MasterSessionStack14ScanAllObjectsEN8opendnp316GroupVariationIDERKNS4_10TaskConfigEEUlvE_E11do_completeEPNS0_15task_io_serviceEPNS0_25task_io_service_operationERKSt10error_codem
	ldrh	w6, [sp, 128]
	add	x0, x0, :lo12:_ZN4asio6detail18completion_handlerIZN8asiodnp318MasterSessionStack14ScanAllObjectsEN8opendnp316GroupVariationIDERKNS4_10TaskConfigEEUlvE_E11do_completeEPNS0_15task_io_serviceEPNS0_25task_io_service_operationERKSt10error_codem
	stp	xzr, x0, [x2]
	mov	x1, x22
	mov	x0, x19
	str	wzr, [x2, 16]
	mov	w3, 0
	stp	x21, x20, [x2, 24]
	strh	w6, [x2, 40]
	stp	x4, x5, [x2, 48]
	bl	_ZN4asio6detail14strand_service7do_postERPNS1_11strand_implEPNS0_25task_io_service_operationEb
	mov	x0, x20
	ldp	x19, x20, [sp, 16]
	ldp	x21, x22, [sp, 32]
	ldp	x23, x24, [sp, 48]
	ldp	x29, x30, [sp], 160
	.cfi_remember_state
	.cfi_restore 30
	.cfi_restore 29
	.cfi_restore 23
	.cfi_restore 24
	.cfi_restore 21
	.cfi_restore 22
	.cfi_restore 19
	.cfi_restore 20
	.cfi_def_cfa_offset 0
	b	_ZNSt16_Sp_counted_baseILN9__gnu_cxx12_Lock_policyE2EE10_M_releaseEv
	.p2align 2,,3
.L591:
	.cfi_restore_state
	mov	x1, x24
	mov	w0, 1
	bl	__aarch64_ldadd4_acq_rel
	b	.L566
.L573:
	mov	x19, x0
	mov	x0, x20
	bl	_ZNSt16_Sp_counted_baseILN9__gnu_cxx12_Lock_policyE2EE10_M_releaseEv
	mov	x0, x20
	bl	_ZNSt16_Sp_counted_baseILN9__gnu_cxx12_Lock_policyE2EE10_M_releaseEv
	mov	x0, x19
.LEHB23:
	bl	_Unwind_Resume
.L563:
	mov	x0, 8
	bl	__cxa_allocate_exception
	adrp	x3, :got:_ZTVSt12bad_weak_ptr
	adrp	x2, :got:_ZNSt12bad_weak_ptrD1Ev
	adrp	x1, :got:_ZTISt12bad_weak_ptr
	ldr	x3, [x3, #:got_lo12:_ZTVSt12bad_weak_ptr]
	ldr	x2, [x2, #:got_lo12:_ZNSt12bad_weak_ptrD1Ev]
	add	x3, x3, 16
	ldr	x1, [x1, #:got_lo12:_ZTISt12bad_weak_ptr]
	str	x3, [x0]
	bl	__cxa_throw
.LEHE23:
	.cfi_endproc
.LFE8094:
	.section	.gcc_except_table
.LLSDA8094:
	.byte	0xff
	.byte	0xff
	.byte	0x1
	.uleb128 .LLSDACSE8094-.LLSDACSB8094
.LLSDACSB8094:
	.uleb128 .LEHB22-.LFB8094
	.uleb128 .LEHE22-.LEHB22
	.uleb128 .L573-.LFB8094
	.uleb128 0
	.uleb128 .LEHB23-.LFB8094
	.uleb128 .LEHE23-.LEHB23
	.uleb128 0
	.uleb128 0
.LLSDACSE8094:
	.text
	.size	_ZN8asiodnp318MasterSessionStack14ScanAllObjectsEN8opendnp316GroupVariationIDERKNS1_10TaskConfigE, .-_ZN8asiodnp318MasterSessionStack14ScanAllObjectsEN8opendnp316GroupVariationIDERKNS1_10TaskConfigE
	.align	2
	.p2align 4,,11
	.global	_ZN8asiodnp318MasterSessionStack11ScanClassesERKN8opendnp310ClassFieldERKNS1_10TaskConfigE
	.type	_ZN8asiodnp318MasterSessionStack11ScanClassesERKN8opendnp310ClassFieldERKNS1_10TaskConfigE, %function
_ZN8asiodnp318MasterSessionStack11ScanClassesERKN8opendnp310ClassFieldERKNS1_10TaskConfigE:
.LFB8102:
	.cfi_startproc
	.cfi_personality 0x9b,DW.ref.__gxx_personality_v0
	.cfi_lsda 0x1b,.LLSDA8102
	stp	x29, x30, [sp, -160]!
	.cfi_def_cfa_offset 160
	.cfi_offset 29, -160
	.cfi_offset 30, -152
	mov	x29, sp
	stp	x19, x20, [sp, 16]
	.cfi_offset 19, -144
	.cfi_offset 20, -136
	ldr	x20, [x0, 24]
	stp	x21, x22, [sp, 32]
	stp	x23, x24, [sp, 48]
	.cfi_offset 21, -128
	.cfi_offset 22, -120
	.cfi_offset 23, -112
	.cfi_offset 24, -104
	cbz	x20, .L593
	mov	x19, x0
	mov	x23, x1
	mov	x22, x2
	add	x24, x20, 8
	ldr	w21, [x24]
.L595:
	cbz	w21, .L593
	add	w1, w21, 1
	mov	w0, w21
	mov	x2, x24
	bl	__aarch64_cas4_acq_rel
	cmp	w0, w21
	mov	w21, w0
	bne	.L595
	adrp	x0, :got:__libc_single_threaded
	ldrb	w1, [x23]
	ldp	x2, x3, [x22]
	strb	w1, [sp, 88]
	ldr	x0, [x0, #:got_lo12:__libc_single_threaded]
	stp	x2, x3, [sp, 96]
	ldr	x21, [x19, 16]
	ldrb	w0, [x0]
	ldr	x19, [x19, 32]
	cbz	w0, .L621
	ldr	w0, [x20, 8]
	add	w0, w0, 1
	str	w0, [x20, 8]
.L596:
	adrp	x0, :got:_ZN4asio6detail10call_stackINS0_15task_io_serviceENS0_27task_io_service_thread_infoEE4top_E
	ldrb	w1, [sp, 88]
	ldp	x2, x3, [sp, 96]
	add	x22, x19, 48
	ldr	x0, [x0, #:got_lo12:_ZN4asio6detail10call_stackINS0_15task_io_serviceENS0_27task_io_service_thread_infoEE4top_E]
	strb	w1, [sp, 128]
	stp	x2, x3, [sp, 136]
	ldr	w0, [x0]
	ldr	x19, [x19, 40]
	bl	pthread_getspecific
	cbz	x0, .L597
	ldr	x0, [x0, 8]
	cbz	x0, .L597
	ldr	x2, [x0]
	cbz	x2, .L597
	str	xzr, [x0]
	ldrb	w0, [x2]
	cmp	w0, 63
	bls	.L598
	strb	w0, [x2, 64]
	b	.L599
	.p2align 2,,3
.L598:
	mov	x0, x2
	bl	_ZdlPv
.L597:
	mov	x0, 65
.LEHB24:
	bl	_Znwm
.LEHE24:
	mov	x2, x0
	mov	w1, 64
	strb	w1, [x0, 64]
.L599:
	ldp	x4, x5, [sp, 136]
	adrp	x0, _ZN4asio6detail18completion_handlerIZN8asiodnp318MasterSessionStack11ScanClassesERKN8opendnp310ClassFieldERKNS4_10TaskConfigEEUlvE_E11do_completeEPNS0_15task_io_serviceEPNS0_25task_io_service_operationERKSt10error_codem
	ldrb	w6, [sp, 128]
	add	x0, x0, :lo12:_ZN4asio6detail18completion_handlerIZN8asiodnp318MasterSessionStack11ScanClassesERKN8opendnp310ClassFieldERKNS4_10TaskConfigEEUlvE_E11do_completeEPNS0_15task_io_serviceEPNS0_25task_io_service_operationERKSt10error_codem
	stp	xzr, x0, [x2]
	mov	x1, x22
	mov	x0, x19
	str	wzr, [x2, 16]
	mov	w3, 0
	stp	x21, x20, [x2, 24]
	strb	w6, [x2, 40]
	stp	x4, x5, [x2, 48]
	bl	_ZN4asio6detail14strand_service7do_postERPNS1_11strand_implEPNS0_25task_io_service_operationEb
	mov	x0, x20
	ldp	x19, x20, [sp, 16]
	ldp	x21, x22, [sp, 32]
	ldp	x23, x24, [sp, 48]
	ldp	x29, x30, [sp], 160
	.cfi_remember_state
	.cfi_restore 30
	.cfi_restore 29
	.cfi_restore 23
	.cfi_restore 24
	.cfi_restore 21
	.cfi_restore 22
	.cfi_restore 19
	.cfi_restore 20
	.cfi_def_cfa_offset 0
	b	_ZNSt16_Sp_counted_baseILN9__gnu_cxx12_Lock_policyE2EE10_M_releaseEv
	.p2align 2,,3
.L621:
	.cfi_restore_state
	mov	x1, x24
	mov	w0, 1
	bl	__aarch64_ldadd4_acq_rel
	b	.L596
.L603:
	mov	x19, x0
	mov	x0, x20
	bl	_ZNSt16_Sp_counted_baseILN9__gnu_cxx12_Lock_policyE2EE10_M_releaseEv
	mov	x0, x20
	bl	_ZNSt16_Sp_counted_baseILN9__gnu_cxx12_Lock_policyE2EE10_M_releaseEv
	mov	x0, x19
.LEHB25:
	bl	_Unwind_Resume
.L593:
	mov	x0, 8
	bl	__cxa_allocate_exception
	adrp	x3, :got:_ZTVSt12bad_weak_ptr
	adrp	x2, :got:_ZNSt12bad_weak_ptrD1Ev
	adrp	x1, :got:_ZTISt12bad_weak_ptr
	ldr	x3, [x3, #:got_lo12:_ZTVSt12bad_weak_ptr]
	ldr	x2, [x2, #:got_lo12:_ZNSt12bad_weak_ptrD1Ev]
	add	x3, x3, 16
	ldr	x1, [x1, #:got_lo12:_ZTISt12bad_weak_ptr]
	str	x3, [x0]
	bl	__cxa_throw
.LEHE25:
	.cfi_endproc
.LFE8102:
	.section	.gcc_except_table
.LLSDA8102:
	.byte	0xff
	.byte	0xff
	.byte	0x1
	.uleb128 .LLSDACSE8102-.LLSDACSB8102
.LLSDACSB8102:
	.uleb128 .LEHB24-.LFB8102
	.uleb128 .LEHE24-.LEHB24
	.uleb128 .L603-.LFB8102
	.uleb128 0
	.uleb128 .LEHB25-.LFB8102
	.uleb128 .LEHE25-.LEHB25
	.uleb128 0
	.uleb128 0
.LLSDACSE8102:
	.text
	.size	_ZN8asiodnp318MasterSessionStack11ScanClassesERKN8opendnp310ClassFieldERKNS1_10TaskConfigE, .-_ZN8asiodnp318MasterSessionStack11ScanClassesERKN8opendnp310ClassFieldERKNS1_10TaskConfigE
	.align	2
	.p2align 4,,11
	.global	_ZN8asiodnp318MasterSessionStack9ScanRangeEN8opendnp316GroupVariationIDEttRKNS1_10TaskConfigE
	.type	_ZN8asiodnp318MasterSessionStack9ScanRangeEN8opendnp316GroupVariationIDEttRKNS1_10TaskConfigE, %function
_ZN8asiodnp318MasterSessionStack9ScanRangeEN8opendnp316GroupVariationIDEttRKNS1_10TaskConfigE:
.LFB8110:
	.cfi_startproc
	.cfi_personality 0x9b,DW.ref.__gxx_personality_v0
	.cfi_lsda 0x1b,.LLSDA8110
	stp	x29, x30, [sp, -176]!
	.cfi_def_cfa_offset 176
	.cfi_offset 29, -176
	.cfi_offset 30, -168
	mov	x29, sp
	stp	x19, x20, [sp, 16]
	.cfi_offset 19, -160
	.cfi_offset 20, -152
	ldr	x20, [x0, 24]
	stp	x21, x22, [sp, 32]
	stp	x23, x24, [sp, 48]
	stp	x25, x26, [sp, 64]
	.cfi_offset 21, -144
	.cfi_offset 22, -136
	.cfi_offset 23, -128
	.cfi_offset 24, -120
	.cfi_offset 25, -112
	.cfi_offset 26, -104
	cbz	x20, .L623
	mov	x19, x0
	mov	w25, w1
	mov	x24, x4
	and	w22, w2, 65535
	and	w23, w3, 65535
	add	x26, x20, 8
	ldr	w21, [x26]
.L625:
	cbz	w21, .L623
	add	w1, w21, 1
	mov	w0, w21
	mov	x2, x26
	bl	__aarch64_cas4_acq_rel
	cmp	w0, w21
	mov	w21, w0
	bne	.L625
	adrp	x0, :got:__libc_single_threaded
	strh	w25, [sp, 104]
	ldp	x2, x3, [x24]
	stp	x2, x3, [sp, 112]
	ldr	x0, [x0, #:got_lo12:__libc_single_threaded]
	ldr	x21, [x19, 16]
	ldrb	w0, [x0]
	ldr	x19, [x19, 32]
	cbz	w0, .L651
	ldr	w0, [x20, 8]
	add	w0, w0, 1
	str	w0, [x20, 8]
.L626:
	adrp	x0, :got:_ZN4asio6detail10call_stackINS0_15task_io_serviceENS0_27task_io_service_thread_infoEE4top_E
	ldrh	w1, [sp, 104]
	ldp	x2, x3, [sp, 112]
	add	x24, x19, 48
	ldr	x0, [x0, #:got_lo12:_ZN4asio6detail10call_stackINS0_15task_io_serviceENS0_27task_io_service_thread_infoEE4top_E]
	strh	w1, [sp, 144]
	stp	x2, x3, [sp, 152]
	ldr	w0, [x0]
	ldr	x19, [x19, 40]
	bl	pthread_getspecific
	cbz	x0, .L627
	ldr	x0, [x0, 8]
	cbz	x0, .L627
	ldr	x2, [x0]
	cbz	x2, .L627
	str	xzr, [x0]
	ldrb	w0, [x2]
	cmp	w0, 63
	bls	.L628
	strb	w0, [x2, 64]
	b	.L629
	.p2align 2,,3
.L628:
	mov	x0, x2
	bl	_ZdlPv
.L627:
	mov	x0, 65
.LEHB26:
	bl	_Znwm
.LEHE26:
	mov	x2, x0
	mov	w1, 64
	strb	w1, [x0, 64]
.L629:
	ldp	x6, x7, [sp, 152]
	adrp	x0, _ZN4asio6detail18completion_handlerIZN8asiodnp318MasterSessionStack9ScanRangeEN8opendnp316GroupVariationIDEttRKNS4_10TaskConfigEEUlvE_E11do_completeEPNS0_15task_io_serviceEPNS0_25task_io_service_operationERKSt10error_codem
	ldrh	w5, [sp, 144]
	add	x0, x0, :lo12:_ZN4asio6detail18completion_handlerIZN8asiodnp318MasterSessionStack9ScanRangeEN8opendnp316GroupVariationIDEttRKNS4_10TaskConfigEEUlvE_E11do_completeEPNS0_15task_io_serviceEPNS0_25task_io_service_operationERKSt10error_codem
	stp	xzr, x0, [x2]
	mov	x1, x24
	mov	x0, x19
	str	wzr, [x2, 16]
	mov	w3, 0
	stp	x21, x20, [x2, 24]
	strh	w5, [x2, 40]
	strh	w22, [x2, 42]
	strh	w23, [x2, 44]
	stp	x6, x7, [x2, 48]
	bl	_ZN4asio6detail14strand_service7do_postERPNS1_11strand_implEPNS0_25task_io_service_operationEb
	mov	x0, x20
	ldp	x19, x20, [sp, 16]
	ldp	x21, x22, [sp, 32]
	ldp	x23, x24, [sp, 48]
	ldp	x25, x26, [sp, 64]
	ldp	x29, x30, [sp], 176
	.cfi_remember_state
	.cfi_restore 30
	.cfi_restore 29
	.cfi_restore 25
	.cfi_restore 26
	.cfi_restore 23
	.cfi_restore 24
	.cfi_restore 21
	.cfi_restore 22
	.cfi_restore 19
	.cfi_restore 20
	.cfi_def_cfa_offset 0
	b	_ZNSt16_Sp_counted_baseILN9__gnu_cxx12_Lock_policyE2EE10_M_releaseEv
	.p2align 2,,3
.L651:
	.cfi_restore_state
	mov	x1, x26
	mov	w0, 1
	bl	__aarch64_ldadd4_acq_rel
	b	.L626
.L633:
	mov	x19, x0
	mov	x0, x20
	bl	_ZNSt16_Sp_counted_baseILN9__gnu_cxx12_Lock_policyE2EE10_M_releaseEv
	mov	x0, x20
	bl	_ZNSt16_Sp_counted_baseILN9__gnu_cxx12_Lock_policyE2EE10_M_releaseEv
	mov	x0, x19
.LEHB27:
	bl	_Unwind_Resume
.L623:
	mov	x0, 8
	bl	__cxa_allocate_exception
	adrp	x3, :got:_ZTVSt12bad_weak_ptr
	adrp	x2, :got:_ZNSt12bad_weak_ptrD1Ev
	adrp	x1, :got:_ZTISt12bad_weak_ptr
	ldr	x3, [x3, #:got_lo12:_ZTVSt12bad_weak_ptr]
	ldr	x2, [x2, #:got_lo12:_ZNSt12bad_weak_ptrD1Ev]
	add	x3, x3, 16
	ldr	x1, [x1, #:got_lo12:_ZTISt12bad_weak_ptr]
	str	x3, [x0]
	bl	__cxa_throw
.LEHE27:
	.cfi_endproc
.LFE8110:
	.section	.gcc_except_table
.LLSDA8110:
	.byte	0xff
	.byte	0xff
	.byte	0x1
	.uleb128 .LLSDACSE8110-.LLSDACSB8110
.LLSDACSB8110:
	.uleb128 .LEHB26-.LFB8110
	.uleb128 .LEHE26-.LEHB26
	.uleb128 .L633-.LFB8110
	.uleb128 0
	.uleb128 .LEHB27-.LFB8110
	.uleb128 .LEHE27-.LEHB27
	.uleb128 0
	.uleb128 0
.LLSDACSE8110:
	.text
	.size	_ZN8asiodnp318MasterSessionStack9ScanRangeEN8opendnp316GroupVariationIDEttRKNS1_10TaskConfigE, .-_ZN8asiodnp318MasterSessionStack9ScanRangeEN8opendnp316GroupVariationIDEttRKNS1_10TaskConfigE
	.align	2
	.p2align 4,,11
	.global	_ZN8asiodnp318MasterSessionStack5WriteERKN8opendnp315TimeAndIntervalEtRKNS1_10TaskConfigE
	.type	_ZN8asiodnp318MasterSessionStack5WriteERKN8opendnp315TimeAndIntervalEtRKNS1_10TaskConfigE, %function
_ZN8asiodnp318MasterSessionStack5WriteERKN8opendnp315TimeAndIntervalEtRKNS1_10TaskConfigE:
.LFB8118:
	.cfi_startproc
	.cfi_personality 0x9b,DW.ref.__gxx_personality_v0
	.cfi_lsda 0x1b,.LLSDA8118
	stp	x29, x30, [sp, -208]!
	.cfi_def_cfa_offset 208
	.cfi_offset 29, -208
	.cfi_offset 30, -200
	mov	x29, sp
	stp	x19, x20, [sp, 16]
	.cfi_offset 19, -192
	.cfi_offset 20, -184
	ldr	x20, [x0, 24]
	stp	x21, x22, [sp, 32]
	stp	x23, x24, [sp, 48]
	str	x25, [sp, 64]
	.cfi_offset 21, -176
	.cfi_offset 22, -168
	.cfi_offset 23, -160
	.cfi_offset 24, -152
	.cfi_offset 25, -144
	cbz	x20, .L653
	mov	x19, x0
	mov	x24, x1
	mov	x23, x3
	and	w22, w2, 65535
	add	x25, x20, 8
	ldr	w21, [x25]
.L655:
	cbz	w21, .L653
	add	w1, w21, 1
	mov	w0, w21
	mov	x2, x25
	bl	__aarch64_cas4_acq_rel
	cmp	w0, w21
	mov	w21, w0
	bne	.L655
	adrp	x0, :got:__libc_single_threaded
	ldp	x2, x3, [x24]
	stp	x2, x3, [sp, 104]
	ldr	x0, [x0, #:got_lo12:__libc_single_threaded]
	ldp	x2, x3, [x23]
	stp	x2, x3, [sp, 128]
	ldrb	w0, [x0]
	ldr	x21, [x19, 16]
	ldr	x19, [x19, 32]
	cbz	w0, .L681
	ldr	w0, [x20, 8]
	add	w0, w0, 1
	str	w0, [x20, 8]
.L656:
	adrp	x0, :got:_ZN4asio6detail10call_stackINS0_15task_io_serviceENS0_27task_io_service_thread_infoEE4top_E
	add	x23, x19, 48
	ldp	x2, x3, [sp, 104]
	stp	x2, x3, [sp, 160]
	ldr	x0, [x0, #:got_lo12:_ZN4asio6detail10call_stackINS0_15task_io_serviceENS0_27task_io_service_thread_infoEE4top_E]
	ldp	x2, x3, [sp, 128]
	stp	x2, x3, [sp, 184]
	ldr	w0, [x0]
	ldr	x19, [x19, 40]
	bl	pthread_getspecific
	cbz	x0, .L657
	ldr	x0, [x0, 8]
	cbz	x0, .L657
	ldr	x2, [x0]
	cbz	x2, .L657
	str	xzr, [x0]
	ldrb	w0, [x2]
	cmp	w0, 79
	bls	.L658
	strb	w0, [x2, 80]
	b	.L659
	.p2align 2,,3
.L658:
	mov	x0, x2
	bl	_ZdlPv
.L657:
	mov	x0, 81
.LEHB28:
	bl	_Znwm
.LEHE28:
	mov	x2, x0
	mov	w1, 80
	strb	w1, [x0, 80]
.L659:
	ldp	x6, x7, [sp, 160]
	adrp	x0, _ZN4asio6detail18completion_handlerIZN8asiodnp318MasterSessionStack5WriteERKN8opendnp315TimeAndIntervalEtRKNS4_10TaskConfigEEUlvE_E11do_completeEPNS0_15task_io_serviceEPNS0_25task_io_service_operationERKSt10error_codem
	ldp	x4, x5, [sp, 184]
	add	x0, x0, :lo12:_ZN4asio6detail18completion_handlerIZN8asiodnp318MasterSessionStack5WriteERKN8opendnp315TimeAndIntervalEtRKNS4_10TaskConfigEEUlvE_E11do_completeEPNS0_15task_io_serviceEPNS0_25task_io_service_operationERKSt10error_codem
	stp	xzr, x0, [x2]
	mov	x1, x23
	mov	x0, x19
	str	wzr, [x2, 16]
	mov	w3, 0
	stp	x21, x20, [x2, 24]
	stp	x6, x7, [x2, 40]
	strh	w22, [x2, 56]
	stp	x4, x5, [x2, 64]
	bl	_ZN4asio6detail14strand_service7do_postERPNS1_11strand_implEPNS0_25task_io_service_operationEb
	mov	x0, x20
	ldp	x19, x20, [sp, 16]
	ldp	x21, x22, [sp, 32]
	ldp	x23, x24, [sp, 48]
	ldr	x25, [sp, 64]
	ldp	x29, x30, [sp], 208
	.cfi_remember_state
	.cfi_restore 30
	.cfi_restore 29
	.cfi_restore 25
	.cfi_restore 23
	.cfi_restore 24
	.cfi_restore 21
	.cfi_restore 22
	.cfi_restore 19
	.cfi_restore 20
	.cfi_def_cfa_offset 0
	b	_ZNSt16_Sp_counted_baseILN9__gnu_cxx12_Lock_policyE2EE10_M_releaseEv
	.p2align 2,,3
.L681:
	.cfi_restore_state
	mov	x1, x25
	mov	w0, 1
	bl	__aarch64_ldadd4_acq_rel
	b	.L656
.L663:
	mov	x19, x0
	mov	x0, x20
	bl	_ZNSt16_Sp_counted_baseILN9__gnu_cxx12_Lock_policyE2EE10_M_releaseEv
	mov	x0, x20
	bl	_ZNSt16_Sp_counted_baseILN9__gnu_cxx12_Lock_policyE2EE10_M_releaseEv
	mov	x0, x19
.LEHB29:
	bl	_Unwind_Resume
.L653:
	mov	x0, 8
	bl	__cxa_allocate_exception
	adrp	x3, :got:_ZTVSt12bad_weak_ptr
	adrp	x2, :got:_ZNSt12bad_weak_ptrD1Ev
	adrp	x1, :got:_ZTISt12bad_weak_ptr
	ldr	x3, [x3, #:got_lo12:_ZTVSt12bad_weak_ptr]
	ldr	x2, [x2, #:got_lo12:_ZNSt12bad_weak_ptrD1Ev]
	add	x3, x3, 16
	ldr	x1, [x1, #:got_lo12:_ZTISt12bad_weak_ptr]
	str	x3, [x0]
	bl	__cxa_throw
.LEHE29:
	.cfi_endproc
.LFE8118:
	.section	.gcc_except_table
.LLSDA8118:
	.byte	0xff
	.byte	0xff
	.byte	0x1
	.uleb128 .LLSDACSE8118-.LLSDACSB8118
.LLSDACSB8118:
	.uleb128 .LEHB28-.LFB8118
	.uleb128 .LEHE28-.LEHB28
	.uleb128 .L663-.LFB8118
	.uleb128 0
	.uleb128 .LEHB29-.LFB8118
	.uleb128 .LEHE29-.LEHB29
	.uleb128 0
	.uleb128 0
.LLSDACSE8118:
	.text
	.size	_ZN8asiodnp318MasterSessionStack5WriteERKN8opendnp315TimeAndIntervalEtRKNS1_10TaskConfigE, .-_ZN8asiodnp318MasterSessionStack5WriteERKN8opendnp315TimeAndIntervalEtRKNS1_10TaskConfigE
	.align	2
	.p2align 4,,11
	.type	_ZNSt17_Function_handlerIFSt10shared_ptrIN8opendnp311IMasterTaskEEvEZN8asiodnp318MasterSessionStack12AddRangeScanENS1_16GroupVariationIDEttN7openpal12TimeDurationERKNS1_10TaskConfigEEUlvE_E10_M_managerERSt9_Any_dataRKSF_St18_Manager_operation, %function
_ZNSt17_Function_handlerIFSt10shared_ptrIN8opendnp311IMasterTaskEEvEZN8asiodnp318MasterSessionStack12AddRangeScanENS1_16GroupVariationIDEttN7openpal12TimeDurationERKNS1_10TaskConfigEEUlvE_E10_M_managerERSt9_Any_dataRKSF_St18_Manager_operation:
.LFB9761:
	.cfi_startproc
	stp	x29, x30, [sp, -48]!
	.cfi_def_cfa_offset 48
	.cfi_offset 29, -48
	.cfi_offset 30, -40
	mov	x29, sp
	stp	x19, x20, [sp, 16]
	.cfi_offset 19, -32
	.cfi_offset 20, -24
	mov	x19, x0
	cbz	w2, .L683
	cmp	w2, 1
	beq	.L684
	cmp	w2, 2
	beq	.L687
	cmp	w2, 3
	bne	.L686
	ldr	x19, [x0]
	cbz	x19, .L686
	ldr	x0, [x19, 8]
	cbz	x0, .L689
	bl	_ZNSt16_Sp_counted_baseILN9__gnu_cxx12_Lock_policyE2EE10_M_releaseEv
.L689:
	mov	x0, x19
	mov	x1, 48
	bl	_ZdlPvm
.L686:
	mov	w0, 0
	ldp	x19, x20, [sp, 16]
	ldp	x29, x30, [sp], 48
	.cfi_remember_state
	.cfi_restore 30
	.cfi_restore 29
	.cfi_restore 19
	.cfi_restore 20
	.cfi_def_cfa_offset 0
	ret
	.p2align 2,,3
.L683:
	.cfi_restore_state
	adrp	x0, .LANCHOR0
	add	x0, x0, :lo12:.LANCHOR0
	str	x0, [x19]
	mov	w0, 0
	ldp	x19, x20, [sp, 16]
	ldp	x29, x30, [sp], 48
	.cfi_remember_state
	.cfi_restore 30
	.cfi_restore 29
	.cfi_restore 19
	.cfi_restore 20
	.cfi_def_cfa_offset 0
	ret
	.p2align 2,,3
.L684:
	.cfi_restore_state
	ldr	x0, [x1]
	str	x0, [x19]
	mov	w0, 0
	ldp	x19, x20, [sp, 16]
	ldp	x29, x30, [sp], 48
	.cfi_remember_state
	.cfi_restore 30
	.cfi_restore 29
	.cfi_restore 19
	.cfi_restore 20
	.cfi_def_cfa_offset 0
	ret
	.p2align 2,,3
.L687:
	.cfi_restore_state
	str	x21, [sp, 32]
	.cfi_offset 21, -16
	mov	x0, 48
	ldr	x21, [x1]
	bl	_Znwm
	mov	x20, x0
	mov	x1, x21
	ldr	x2, [x1], 8
	str	x2, [x0], 8
	bl	_ZNSt14__shared_countILN9__gnu_cxx12_Lock_policyE2EEC1ERKS2_
	ldrh	w0, [x21, 16]
	ldr	w3, [x21, 18]
	strh	w0, [x20, 16]
	ldr	x2, [x21, 24]
	str	w3, [x20, 18]
	ldp	x0, x1, [x21, 32]
	str	x2, [x20, 24]
	stp	x0, x1, [x20, 32]
	ldr	x21, [sp, 32]
	.cfi_restore 21
	str	x20, [x19]
	b	.L686
	.cfi_endproc
.LFE9761:
	.size	_ZNSt17_Function_handlerIFSt10shared_ptrIN8opendnp311IMasterTaskEEvEZN8asiodnp318MasterSessionStack12AddRangeScanENS1_16GroupVariationIDEttN7openpal12TimeDurationERKNS1_10TaskConfigEEUlvE_E10_M_managerERSt9_Any_dataRKSF_St18_Manager_operation, .-_ZNSt17_Function_handlerIFSt10shared_ptrIN8opendnp311IMasterTaskEEvEZN8asiodnp318MasterSessionStack12AddRangeScanENS1_16GroupVariationIDEttN7openpal12TimeDurationERKNS1_10TaskConfigEEUlvE_E10_M_managerERSt9_Any_dataRKSF_St18_Manager_operation
	.align	2
	.p2align 4,,11
	.type	_ZNSt17_Function_handlerIFSt10shared_ptrIN8opendnp311IMasterTaskEEvEZN8asiodnp318MasterSessionStack12AddClassScanERKNS1_10ClassFieldEN7openpal12TimeDurationERKNS1_10TaskConfigEEUlvE_E10_M_managerERSt9_Any_dataRKSH_St18_Manager_operation, %function
_ZNSt17_Function_handlerIFSt10shared_ptrIN8opendnp311IMasterTaskEEvEZN8asiodnp318MasterSessionStack12AddClassScanERKNS1_10ClassFieldEN7openpal12TimeDurationERKNS1_10TaskConfigEEUlvE_E10_M_managerERSt9_Any_dataRKSH_St18_Manager_operation:
.LFB9757:
	.cfi_startproc
	stp	x29, x30, [sp, -48]!
	.cfi_def_cfa_offset 48
	.cfi_offset 29, -48
	.cfi_offset 30, -40
	mov	x29, sp
	stp	x19, x20, [sp, 16]
	.cfi_offset 19, -32
	.cfi_offset 20, -24
	mov	x19, x0
	cbz	w2, .L699
	cmp	w2, 1
	beq	.L700
	cmp	w2, 2
	beq	.L703
	cmp	w2, 3
	bne	.L702
	ldr	x19, [x0]
	cbz	x19, .L702
	ldr	x0, [x19, 8]
	cbz	x0, .L707
	bl	_ZNSt16_Sp_counted_baseILN9__gnu_cxx12_Lock_policyE2EE10_M_releaseEv
.L707:
	mov	x0, x19
	mov	x1, 48
	bl	_ZdlPvm
.L702:
	mov	w0, 0
	ldp	x19, x20, [sp, 16]
	ldp	x29, x30, [sp], 48
	.cfi_remember_state
	.cfi_restore 30
	.cfi_restore 29
	.cfi_restore 19
	.cfi_restore 20
	.cfi_def_cfa_offset 0
	ret
	.p2align 2,,3
.L699:
	.cfi_restore_state
	adrp	x0, .LANCHOR0
	add	x0, x0, :lo12:.LANCHOR0
	add	x0, x0, 16
	str	x0, [x19]
	mov	w0, 0
	ldp	x19, x20, [sp, 16]
	ldp	x29, x30, [sp], 48
	.cfi_remember_state
	.cfi_restore 30
	.cfi_restore 29
	.cfi_restore 19
	.cfi_restore 20
	.cfi_def_cfa_offset 0
	ret
	.p2align 2,,3
.L700:
	.cfi_restore_state
	ldr	x0, [x1]
	str	x0, [x19]
	mov	w0, 0
	ldp	x19, x20, [sp, 16]
	ldp	x29, x30, [sp], 48
	.cfi_remember_state
	.cfi_restore 30
	.cfi_restore 29
	.cfi_restore 19
	.cfi_restore 20
	.cfi_def_cfa_offset 0
	ret
	.p2align 2,,3
.L703:
	.cfi_restore_state
	str	x21, [sp, 32]
	.cfi_offset 21, -16
	mov	x0, 48
	ldr	x21, [x1]
	bl	_Znwm
	mov	x20, x0
	ldr	q0, [x21]
	umov	x1, v0.d[1]
	str	q0, [x0]
	cbz	x1, .L705
	adrp	x0, :got:__libc_single_threaded
	ldr	x0, [x0, #:got_lo12:__libc_single_threaded]
	ldrb	w0, [x0]
	cbz	w0, .L706
	ldr	w0, [x1, 8]
	add	w0, w0, 1
	str	w0, [x1, 8]
.L705:
	ldrb	w0, [x21, 16]
	strb	w0, [x20, 16]
	ldr	x2, [x21, 24]
	str	x2, [x20, 24]
	ldp	x0, x1, [x21, 32]
	stp	x0, x1, [x20, 32]
	ldr	x21, [sp, 32]
	.cfi_remember_state
	.cfi_restore 21
	str	x20, [x19]
	b	.L702
	.p2align 2,,3
.L706:
	.cfi_restore_state
	add	x1, x1, 8
	mov	w0, 1
	bl	__aarch64_ldadd4_acq_rel
	b	.L705
	.cfi_endproc
.LFE9757:
	.size	_ZNSt17_Function_handlerIFSt10shared_ptrIN8opendnp311IMasterTaskEEvEZN8asiodnp318MasterSessionStack12AddClassScanERKNS1_10ClassFieldEN7openpal12TimeDurationERKNS1_10TaskConfigEEUlvE_E10_M_managerERSt9_Any_dataRKSH_St18_Manager_operation, .-_ZNSt17_Function_handlerIFSt10shared_ptrIN8opendnp311IMasterTaskEEvEZN8asiodnp318MasterSessionStack12AddClassScanERKNS1_10ClassFieldEN7openpal12TimeDurationERKNS1_10TaskConfigEEUlvE_E10_M_managerERSt9_Any_dataRKSH_St18_Manager_operation
	.align	2
	.p2align 4,,11
	.type	_ZNSt17_Function_handlerIFSt10shared_ptrIN8opendnp311IMasterTaskEEvEZN8asiodnp318MasterSessionStack17AddAllObjectsScanENS1_16GroupVariationIDEN7openpal12TimeDurationERKNS1_10TaskConfigEEUlvE_E10_M_managerERSt9_Any_dataRKSF_St18_Manager_operation, %function
_ZNSt17_Function_handlerIFSt10shared_ptrIN8opendnp311IMasterTaskEEvEZN8asiodnp318MasterSessionStack17AddAllObjectsScanENS1_16GroupVariationIDEN7openpal12TimeDurationERKNS1_10TaskConfigEEUlvE_E10_M_managerERSt9_Any_dataRKSF_St18_Manager_operation:
.LFB9753:
	.cfi_startproc
	stp	x29, x30, [sp, -48]!
	.cfi_def_cfa_offset 48
	.cfi_offset 29, -48
	.cfi_offset 30, -40
	mov	x29, sp
	stp	x19, x20, [sp, 16]
	.cfi_offset 19, -32
	.cfi_offset 20, -24
	mov	x19, x0
	cbz	w2, .L720
	cmp	w2, 1
	beq	.L721
	cmp	w2, 2
	beq	.L724
	cmp	w2, 3
	bne	.L723
	ldr	x19, [x0]
	cbz	x19, .L723
	ldr	x0, [x19, 8]
	cbz	x0, .L728
	bl	_ZNSt16_Sp_counted_baseILN9__gnu_cxx12_Lock_policyE2EE10_M_releaseEv
.L728:
	mov	x0, x19
	mov	x1, 48
	bl	_ZdlPvm
.L723:
	mov	w0, 0
	ldp	x19, x20, [sp, 16]
	ldp	x29, x30, [sp], 48
	.cfi_remember_state
	.cfi_restore 30
	.cfi_restore 29
	.cfi_restore 19
	.cfi_restore 20
	.cfi_def_cfa_offset 0
	ret
	.p2align 2,,3
.L720:
	.cfi_restore_state
	adrp	x0, .LANCHOR0
	add	x0, x0, :lo12:.LANCHOR0
	add	x0, x0, 32
	str	x0, [x19]
	mov	w0, 0
	ldp	x19, x20, [sp, 16]
	ldp	x29, x30, [sp], 48
	.cfi_remember_state
	.cfi_restore 30
	.cfi_restore 29
	.cfi_restore 19
	.cfi_restore 20
	.cfi_def_cfa_offset 0
	ret
	.p2align 2,,3
.L721:
	.cfi_restore_state
	ldr	x0, [x1]
	str	x0, [x19]
	mov	w0, 0
	ldp	x19, x20, [sp, 16]
	ldp	x29, x30, [sp], 48
	.cfi_remember_state
	.cfi_restore 30
	.cfi_restore 29
	.cfi_restore 19
	.cfi_restore 20
	.cfi_def_cfa_offset 0
	ret
	.p2align 2,,3
.L724:
	.cfi_restore_state
	str	x21, [sp, 32]
	.cfi_offset 21, -16
	mov	x0, 48
	ldr	x21, [x1]
	bl	_Znwm
	mov	x20, x0
	ldr	q0, [x21]
	umov	x1, v0.d[1]
	str	q0, [x0]
	cbz	x1, .L726
	adrp	x0, :got:__libc_single_threaded
	ldr	x0, [x0, #:got_lo12:__libc_single_threaded]
	ldrb	w0, [x0]
	cbz	w0, .L727
	ldr	w0, [x1, 8]
	add	w0, w0, 1
	str	w0, [x1, 8]
.L726:
	ldrh	w0, [x21, 16]
	strh	w0, [x20, 16]
	ldr	x2, [x21, 24]
	str	x2, [x20, 24]
	ldp	x0, x1, [x21, 32]
	stp	x0, x1, [x20, 32]
	ldr	x21, [sp, 32]
	.cfi_remember_state
	.cfi_restore 21
	str	x20, [x19]
	b	.L723
	.p2align 2,,3
.L727:
	.cfi_restore_state
	add	x1, x1, 8
	mov	w0, 1
	bl	__aarch64_ldadd4_acq_rel
	b	.L726
	.cfi_endproc
.LFE9753:
	.size	_ZNSt17_Function_handlerIFSt10shared_ptrIN8opendnp311IMasterTaskEEvEZN8asiodnp318MasterSessionStack17AddAllObjectsScanENS1_16GroupVariationIDEN7openpal12TimeDurationERKNS1_10TaskConfigEEUlvE_E10_M_managerERSt9_Any_dataRKSF_St18_Manager_operation, .-_ZNSt17_Function_handlerIFSt10shared_ptrIN8opendnp311IMasterTaskEEvEZN8asiodnp318MasterSessionStack17AddAllObjectsScanENS1_16GroupVariationIDEN7openpal12TimeDurationERKNS1_10TaskConfigEEUlvE_E10_M_managerERSt9_Any_dataRKSF_St18_Manager_operation
	.align	2
	.p2align 4,,11
	.type	_ZNSt17_Function_handlerIFN8opendnp315StackStatisticsEvEZN8asiodnp318MasterSessionStack18GetStackStatisticsEvEUlvE_E10_M_managerERSt9_Any_dataRKS7_St18_Manager_operation, %function
_ZNSt17_Function_handlerIFN8opendnp315StackStatisticsEvEZN8asiodnp318MasterSessionStack18GetStackStatisticsEvEUlvE_E10_M_managerERSt9_Any_dataRKS7_St18_Manager_operation:
.LFB9695:
	.cfi_startproc
	stp	x29, x30, [sp, -48]!
	.cfi_def_cfa_offset 48
	.cfi_offset 29, -48
	.cfi_offset 30, -40
	mov	x29, sp
	stp	x19, x20, [sp, 16]
	.cfi_offset 19, -32
	.cfi_offset 20, -24
	mov	x19, x0
	cbz	w2, .L741
	cmp	w2, 1
	beq	.L742
	cmp	w2, 2
	beq	.L745
	cmp	w2, 3
	bne	.L744
	ldr	x19, [x0]
	cbz	x19, .L744
	ldr	x0, [x19, 8]
	cbz	x0, .L749
	bl	_ZNSt16_Sp_counted_baseILN9__gnu_cxx12_Lock_policyE2EE10_M_releaseEv
.L749:
	mov	x0, x19
	mov	x1, 16
	bl	_ZdlPvm
.L744:
	mov	w0, 0
	ldp	x19, x20, [sp, 16]
	ldp	x29, x30, [sp], 48
	.cfi_remember_state
	.cfi_restore 30
	.cfi_restore 29
	.cfi_restore 19
	.cfi_restore 20
	.cfi_def_cfa_offset 0
	ret
	.p2align 2,,3
.L741:
	.cfi_restore_state
	adrp	x0, .LANCHOR0
	add	x0, x0, :lo12:.LANCHOR0
	add	x0, x0, 48
	str	x0, [x19]
	mov	w0, 0
	ldp	x19, x20, [sp, 16]
	ldp	x29, x30, [sp], 48
	.cfi_remember_state
	.cfi_restore 30
	.cfi_restore 29
	.cfi_restore 19
	.cfi_restore 20
	.cfi_def_cfa_offset 0
	ret
	.p2align 2,,3
.L742:
	.cfi_restore_state
	ldr	x0, [x1]
	str	x0, [x19]
	mov	w0, 0
	ldp	x19, x20, [sp, 16]
	ldp	x29, x30, [sp], 48
	.cfi_remember_state
	.cfi_restore 30
	.cfi_restore 29
	.cfi_restore 19
	.cfi_restore 20
	.cfi_def_cfa_offset 0
	ret
	.p2align 2,,3
.L745:
	.cfi_restore_state
	str	x21, [sp, 32]
	.cfi_offset 21, -16
	mov	x0, 16
	ldr	x21, [x1]
	bl	_Znwm
	mov	x20, x0
	ldr	q0, [x21]
	umov	x1, v0.d[1]
	str	q0, [x0]
	cbz	x1, .L747
	adrp	x0, :got:__libc_single_threaded
	ldr	x0, [x0, #:got_lo12:__libc_single_threaded]
	ldrb	w0, [x0]
	cbz	w0, .L748
	ldr	w0, [x1, 8]
	add	w0, w0, 1
	str	w0, [x1, 8]
.L747:
	ldr	x21, [sp, 32]
	.cfi_remember_state
	.cfi_restore 21
	str	x20, [x19]
	b	.L744
	.p2align 2,,3
.L748:
	.cfi_restore_state
	add	x1, x1, 8
	mov	w0, 1
	bl	__aarch64_ldadd4_acq_rel
	b	.L747
	.cfi_endproc
.LFE9695:
	.size	_ZNSt17_Function_handlerIFN8opendnp315StackStatisticsEvEZN8asiodnp318MasterSessionStack18GetStackStatisticsEvEUlvE_E10_M_managerERSt9_Any_dataRKS7_St18_Manager_operation, .-_ZNSt17_Function_handlerIFN8opendnp315StackStatisticsEvEZN8asiodnp318MasterSessionStack18GetStackStatisticsEvEUlvE_E10_M_managerERSt9_Any_dataRKS7_St18_Manager_operation
	.section	.text._ZN4asio6detail18completion_handlerIZN7asiopal8Executor10ReturnFromISt10shared_ptrIN8opendnp311IMasterTaskEEEET_RKSt8functionIFS9_vEEEUlvE_E11do_completeEPNS0_15task_io_serviceEPNS0_25task_io_service_operationERKSt10error_codem,"axG",@progbits,_ZN4asio6detail18completion_handlerIZN7asiopal8Executor10ReturnFromISt10shared_ptrIN8opendnp311IMasterTaskEEEET_RKSt8functionIFS9_vEEEUlvE_E11do_completeEPNS0_15task_io_serviceEPNS0_25task_io_service_operationERKSt10error_codem,comdat
	.align	2
	.p2align 4,,11
	.weak	_ZN4asio6detail18completion_handlerIZN7asiopal8Executor10ReturnFromISt10shared_ptrIN8opendnp311IMasterTaskEEEET_RKSt8functionIFS9_vEEEUlvE_E11do_completeEPNS0_15task_io_serviceEPNS0_25task_io_service_operationERKSt10error_codem
	.type	_ZN4asio6detail18completion_handlerIZN7asiopal8Executor10ReturnFromISt10shared_ptrIN8opendnp311IMasterTaskEEEET_RKSt8functionIFS9_vEEEUlvE_E11do_completeEPNS0_15task_io_serviceEPNS0_25task_io_service_operationERKSt10error_codem, %function
_ZN4asio6detail18completion_handlerIZN7asiopal8Executor10ReturnFromISt10shared_ptrIN8opendnp311IMasterTaskEEEET_RKSt8functionIFS9_vEEEUlvE_E11do_completeEPNS0_15task_io_serviceEPNS0_25task_io_service_operationERKSt10error_codem:
.LFB10924:
	.cfi_startproc
	.cfi_personality 0x9b,DW.ref.__gxx_personality_v0
	.cfi_lsda 0x1b,.LLSDA10924
	stp	x29, x30, [sp, -208]!
	.cfi_def_cfa_offset 208
	.cfi_offset 29, -208
	.cfi_offset 30, -200
	adrp	x3, :got:_ZN4asio6detail10call_stackINS0_15task_io_serviceENS0_27task_io_service_thread_infoEE4top_E
	adrp	x2, :got:__stack_chk_guard
	mov	x29, sp
	ldr	x3, [x3, #:got_lo12:_ZN4asio6detail10call_stackINS0_15task_io_serviceENS0_27task_io_service_thread_infoEE4top_E]
	stp	x19, x20, [sp, 16]
	.cfi_offset 19, -192
	.cfi_offset 20, -184
	mov	x20, x0
	ldr	x2, [x2, #:got_lo12:__stack_chk_guard]
	stp	x21, x22, [sp, 32]
	ldr	w0, [x3]
	stp	x23, x24, [sp, 48]
	.cfi_offset 21, -176
	.cfi_offset 22, -168
	.cfi_offset 23, -160
	.cfi_offset 24, -152
	mov	x19, x1
	ldr	x1, [x2]
	str	x1, [sp, 200]
	mov	x1, 0
	ldp	x21, x24, [x19, 24]
	bl	pthread_getspecific
	cbz	x0, .L762
	ldr	x0, [x0, 8]
	cbz	x0, .L762
	ldr	x1, [x0]
	cbz	x1, .L804
.L762:
	mov	x0, x19
	bl	_ZdlPv
.L763:
	cbz	x20, .L761
	add	x22, sp, 72
	mov	w0, 1
	mov	x1, x22
	str	wzr, [sp, 72]
	bl	__aarch64_swp4_sync
	ldr	x0, [x24, 16]
	cbz	x0, .L805
	ldr	x1, [x24, 24]
	add	x23, sp, 104
	mov	x8, x23
	mov	x0, x24
.LEHB30:
	blr	x1
.LEHE30:
	ldr	x19, [x21]
	cbz	x19, .L806
	adrp	x0, :tlsdesc:_ZSt15__once_callable
	ldr	x6, [x0, #:tlsdesc_lo12:_ZSt15__once_callable]
	add	x0, x0, :tlsdesc_lo12:_ZSt15__once_callable
	.tlsdesccall	_ZSt15__once_callable
	blr	x6
	mrs	x20, tpidr_el0
	add	x6, sp, 136
	adrp	x5, :got:_ZNSt13__future_base13_State_baseV29_M_do_setEPSt8functionIFSt10unique_ptrINS_12_Result_baseENS3_8_DeleterEEvEEPb
	adrp	x1, :got:__once_proxy
	adrp	x2, :got:_ZZNSt9once_flag18_Prepare_executionC4IZSt9call_onceIMNSt13__future_base13_State_baseV2EFvPSt8functionIFSt10unique_ptrINS3_12_Result_baseENS7_8_DeleterEEvEEPbEJPS4_SC_SD_EEvRS_OT_DpOT0_EUlvE_EERSI_ENUlvE_4_FUNEv
	adrp	x3, :got:_ZNSt17_Function_handlerIFSt10unique_ptrINSt13__future_base12_Result_baseENS2_8_DeleterEEvENS1_13_State_baseV27_SetterISt10shared_ptrIN8opendnp311IMasterTaskEEOSB_EEE9_M_invokeERKSt9_Any_data
	adrp	x4, :got:_ZNSt17_Function_handlerIFSt10unique_ptrINSt13__future_base12_Result_baseENS2_8_DeleterEEvENS1_13_State_baseV27_SetterISt10shared_ptrIN8opendnp311IMasterTaskEEOSB_EEE10_M_managerERSt9_Any_dataRKSF_St18_Manager_operation
	ldr	x9, [x5, #:got_lo12:_ZNSt13__future_base13_State_baseV29_M_do_setEPSt8functionIFSt10unique_ptrINS_12_Result_baseENS3_8_DeleterEEvEEPb]
	str	x6, [x20, x0]
	ldr	x2, [x2, #:got_lo12:_ZZNSt9once_flag18_Prepare_executionC4IZSt9call_onceIMNSt13__future_base13_State_baseV2EFvPSt8functionIFSt10unique_ptrINS3_12_Result_baseENS7_8_DeleterEEvEEPbEJPS4_SC_SD_EEvRS_OT_DpOT0_EUlvE_EERSI_ENUlvE_4_FUNEv]
	adrp	x0, :tlsdesc:_ZSt11__once_call
	ldr	x6, [x0, #:tlsdesc_lo12:_ZSt11__once_call]
	add	x0, x0, :tlsdesc_lo12:_ZSt11__once_call
	.tlsdesccall	_ZSt11__once_call
	blr	x6
	ldr	x3, [x3, #:got_lo12:_ZNSt17_Function_handlerIFSt10unique_ptrINSt13__future_base12_Result_baseENS2_8_DeleterEEvENS1_13_State_baseV27_SetterISt10shared_ptrIN8opendnp311IMasterTaskEEOSB_EEE9_M_invokeERKSt9_Any_data]
	add	x10, sp, 71
	ldr	x4, [x4, #:got_lo12:_ZNSt17_Function_handlerIFSt10unique_ptrINSt13__future_base12_Result_baseENS2_8_DeleterEEvENS1_13_State_baseV27_SetterISt10shared_ptrIN8opendnp311IMasterTaskEEOSB_EEE10_M_managerERSt9_Any_dataRKSF_St18_Manager_operation]
	add	x8, sp, 120
	ldr	x1, [x1, #:got_lo12:__once_proxy]
	add	x7, sp, 96
	add	x6, sp, 88
	add	x5, sp, 80
	add	x24, sp, 168
	str	x2, [x20, x0]
	add	x0, x19, 24
	strb	wzr, [sp, 71]
	stp	x10, x24, [sp, 80]
	str	x19, [sp, 96]
	stp	x9, xzr, [sp, 120]
	stp	x8, x7, [sp, 136]
	stp	x6, x5, [sp, 152]
	stp	x21, x23, [sp, 168]
	stp	x4, x3, [sp, 184]
.LEHB31:
	bl	pthread_once
.LEHE31:
	cbnz	w0, .L807
	ldrb	w1, [sp, 71]
	adrp	x0, :tlsdesc:_ZSt15__once_callable
	ldr	x2, [x0, #:tlsdesc_lo12:_ZSt15__once_callable]
	add	x0, x0, :tlsdesc_lo12:_ZSt15__once_callable
	.tlsdesccall	_ZSt15__once_callable
	blr	x2
	str	xzr, [x20, x0]
	adrp	x0, :tlsdesc:_ZSt11__once_call
	ldr	x2, [x0, #:tlsdesc_lo12:_ZSt11__once_call]
	add	x0, x0, :tlsdesc_lo12:_ZSt11__once_call
	.tlsdesccall	_ZSt11__once_call
	blr	x2
	str	xzr, [x20, x0]
	cbnz	w1, .L808
	mov	w0, 2
.LEHB32:
	bl	_ZSt20__throw_future_errori
.LEHE32:
	.p2align 2,,3
.L808:
	add	x19, x19, 16
	mov	w0, 1
	mov	x1, x19
	bl	__aarch64_swp4_rel
	tbnz	w0, #31, .L772
.L775:
	ldr	x3, [sp, 184]
	cbz	x3, .L774
	mov	x1, x24
	mov	x0, x24
	mov	w2, 3
	blr	x3
.L774:
	ldr	x0, [sp, 112]
	cbz	x0, .L777
	bl	_ZNSt16_Sp_counted_baseILN9__gnu_cxx12_Lock_policyE2EE10_M_releaseEv
.L777:
	stlr	wzr, [x22]
.L761:
	adrp	x0, :got:__stack_chk_guard
	ldr	x0, [x0, #:got_lo12:__stack_chk_guard]
	ldr	x2, [sp, 200]
	ldr	x1, [x0]
	subs	x2, x2, x1
	mov	x1, 0
	bne	.L809
	ldp	x19, x20, [sp, 16]
	ldp	x21, x22, [sp, 32]
	ldp	x23, x24, [sp, 48]
	ldp	x29, x30, [sp], 208
	.cfi_remember_state
	.cfi_restore 30
	.cfi_restore 29
	.cfi_restore 23
	.cfi_restore 24
	.cfi_restore 21
	.cfi_restore 22
	.cfi_restore 19
	.cfi_restore 20
	.cfi_def_cfa_offset 0
	ret
	.p2align 2,,3
.L772:
	.cfi_restore_state
	mov	x0, x19
.LEHB33:
	bl	_ZNSt28__atomic_futex_unsigned_base19_M_futex_notify_allEPj
.LEHE33:
	b	.L775
	.p2align 2,,3
.L804:
	ldrb	w1, [x19, 40]
	strb	w1, [x19]
	str	x19, [x0]
	b	.L763
.L805:
.LEHB34:
	bl	_ZSt25__throw_bad_function_callv
.LEHE34:
.L806:
	mov	w0, 3
.LEHB35:
	bl	_ZSt20__throw_future_errori
.LEHE35:
.L807:
.LEHB36:
	bl	_ZSt20__throw_system_errori
.LEHE36:
.L809:
	bl	__stack_chk_fail
.L784:
	mov	x19, x0
.L779:
	ldr	x0, [sp, 112]
	cbz	x0, .L780
	bl	_ZNSt16_Sp_counted_baseILN9__gnu_cxx12_Lock_policyE2EE10_M_releaseEv
.L780:
	mov	x0, x19
.L781:
	stlr	wzr, [x22]
.LEHB37:
	bl	_Unwind_Resume
.LEHE37:
.L783:
	b	.L781
.L786:
	mov	x19, x0
	adrp	x0, :tlsdesc:_ZSt15__once_callable
	ldr	x1, [x0, #:tlsdesc_lo12:_ZSt15__once_callable]
	add	x0, x0, :tlsdesc_lo12:_ZSt15__once_callable
	.tlsdesccall	_ZSt15__once_callable
	blr	x1
	str	xzr, [x20, x0]
	adrp	x0, :tlsdesc:_ZSt11__once_call
	ldr	x1, [x0, #:tlsdesc_lo12:_ZSt11__once_call]
	add	x0, x0, :tlsdesc_lo12:_ZSt11__once_call
	.tlsdesccall	_ZSt11__once_call
	blr	x1
	str	xzr, [x20, x0]
.L771:
	ldr	x3, [sp, 184]
	cbz	x3, .L779
	mov	x1, x24
	mov	x0, x24
	mov	w2, 3
	blr	x3
	b	.L779
.L785:
	mov	x19, x0
	b	.L771
	.cfi_endproc
.LFE10924:
	.section	.gcc_except_table
.LLSDA10924:
	.byte	0xff
	.byte	0xff
	.byte	0x1
	.uleb128 .LLSDACSE10924-.LLSDACSB10924
.LLSDACSB10924:
	.uleb128 .LEHB30-.LFB10924
	.uleb128 .LEHE30-.LEHB30
	.uleb128 .L783-.LFB10924
	.uleb128 0
	.uleb128 .LEHB31-.LFB10924
	.uleb128 .LEHE31-.LEHB31
	.uleb128 .L786-.LFB10924
	.uleb128 0
	.uleb128 .LEHB32-.LFB10924
	.uleb128 .LEHE32-.LEHB32
	.uleb128 .L785-.LFB10924
	.uleb128 0
	.uleb128 .LEHB33-.LFB10924
	.uleb128 .LEHE33-.LEHB33
	.uleb128 .L785-.LFB10924
	.uleb128 0
	.uleb128 .LEHB34-.LFB10924
	.uleb128 .LEHE34-.LEHB34
	.uleb128 .L783-.LFB10924
	.uleb128 0
	.uleb128 .LEHB35-.LFB10924
	.uleb128 .LEHE35-.LEHB35
	.uleb128 .L784-.LFB10924
	.uleb128 0
	.uleb128 .LEHB36-.LFB10924
	.uleb128 .LEHE36-.LEHB36
	.uleb128 .L786-.LFB10924
	.uleb128 0
	.uleb128 .LEHB37-.LFB10924
	.uleb128 .LEHE37-.LEHB37
	.uleb128 0
	.uleb128 0
.LLSDACSE10924:
	.section	.text._ZN4asio6detail18completion_handlerIZN7asiopal8Executor10ReturnFromISt10shared_ptrIN8opendnp311IMasterTaskEEEET_RKSt8functionIFS9_vEEEUlvE_E11do_completeEPNS0_15task_io_serviceEPNS0_25task_io_service_operationERKSt10error_codem,"axG",@progbits,_ZN4asio6detail18completion_handlerIZN7asiopal8Executor10ReturnFromISt10shared_ptrIN8opendnp311IMasterTaskEEEET_RKSt8functionIFS9_vEEEUlvE_E11do_completeEPNS0_15task_io_serviceEPNS0_25task_io_service_operationERKSt10error_codem,comdat
	.size	_ZN4asio6detail18completion_handlerIZN7asiopal8Executor10ReturnFromISt10shared_ptrIN8opendnp311IMasterTaskEEEET_RKSt8functionIFS9_vEEEUlvE_E11do_completeEPNS0_15task_io_serviceEPNS0_25task_io_service_operationERKSt10error_codem, .-_ZN4asio6detail18completion_handlerIZN7asiopal8Executor10ReturnFromISt10shared_ptrIN8opendnp311IMasterTaskEEEET_RKSt8functionIFS9_vEEEUlvE_E11do_completeEPNS0_15task_io_serviceEPNS0_25task_io_service_operationERKSt10error_codem
	.section	.text._ZNSt13__future_base7_ResultISt10shared_ptrIN8opendnp311IMasterTaskEEE10_M_destroyEv,"axG",@progbits,_ZNSt13__future_base7_ResultISt10shared_ptrIN8opendnp311IMasterTaskEEE10_M_destroyEv,comdat
	.align	2
	.p2align 4,,11
	.weak	_ZNSt13__future_base7_ResultISt10shared_ptrIN8opendnp311IMasterTaskEEE10_M_destroyEv
	.type	_ZNSt13__future_base7_ResultISt10shared_ptrIN8opendnp311IMasterTaskEEE10_M_destroyEv, %function
_ZNSt13__future_base7_ResultISt10shared_ptrIN8opendnp311IMasterTaskEEE10_M_destroyEv:
.LFB11828:
	.cfi_startproc
	ldr	x2, [x0]
	adrp	x1, :got:_ZNSt13__future_base7_ResultISt10shared_ptrIN8opendnp311IMasterTaskEEED0Ev
	ldr	x1, [x1, #:got_lo12:_ZNSt13__future_base7_ResultISt10shared_ptrIN8opendnp311IMasterTaskEEED0Ev]
	ldr	x2, [x2, 16]
	cmp	x2, x1
	bne	.L811
	stp	x29, x30, [sp, -32]!
	.cfi_def_cfa_offset 32
	.cfi_offset 29, -32
	.cfi_offset 30, -24
	mov	x29, sp
	str	x19, [sp, 16]
	.cfi_offset 19, -16
	mov	x19, x0
	adrp	x0, :got:_ZTVNSt13__future_base7_ResultISt10shared_ptrIN8opendnp311IMasterTaskEEEE
	ldr	x0, [x0, #:got_lo12:_ZTVNSt13__future_base7_ResultISt10shared_ptrIN8opendnp311IMasterTaskEEEE]
	ldrb	w1, [x19, 32]
	add	x0, x0, 16
	str	x0, [x19]
	cbz	w1, .L812
	ldr	x0, [x19, 24]
	cbz	x0, .L812
	bl	_ZNSt16_Sp_counted_baseILN9__gnu_cxx12_Lock_policyE2EE10_M_releaseEv
.L812:
	mov	x0, x19
	bl	_ZNSt13__future_base12_Result_baseD2Ev
	mov	x0, x19
	mov	x1, 40
	ldr	x19, [sp, 16]
	ldp	x29, x30, [sp], 32
	.cfi_restore 30
	.cfi_restore 29
	.cfi_restore 19
	.cfi_def_cfa_offset 0
	b	_ZdlPvm
	.p2align 2,,3
.L811:
	mov	x16, x2
	br	x16
	.cfi_endproc
.LFE11828:
	.size	_ZNSt13__future_base7_ResultISt10shared_ptrIN8opendnp311IMasterTaskEEE10_M_destroyEv, .-_ZNSt13__future_base7_ResultISt10shared_ptrIN8opendnp311IMasterTaskEEE10_M_destroyEv
	.text
	.align	2
	.p2align 4,,11
	.type	_ZN4asio6detail18completion_handlerIZN8asiodnp318MasterSessionStack13BeginShutdownEvEUlvE_E11do_completeEPNS0_15task_io_serviceEPNS0_25task_io_service_operationERKSt10error_codem, %function
_ZN4asio6detail18completion_handlerIZN8asiodnp318MasterSessionStack13BeginShutdownEvEUlvE_E11do_completeEPNS0_15task_io_serviceEPNS0_25task_io_service_operationERKSt10error_codem:
.LFB10610:
	.cfi_startproc
	.cfi_personality 0x9b,DW.ref.__gxx_personality_v0
	.cfi_lsda 0x1b,.LLSDA10610
	stp	x29, x30, [sp, -64]!
	.cfi_def_cfa_offset 64
	.cfi_offset 29, -64
	.cfi_offset 30, -56
	adrp	x3, :got:_ZN4asio6detail10call_stackINS0_15task_io_serviceENS0_27task_io_service_thread_infoEE4top_E
	adrp	x2, :got:__stack_chk_guard
	mov	x29, sp
	ldr	x3, [x3, #:got_lo12:_ZN4asio6detail10call_stackINS0_15task_io_serviceENS0_27task_io_service_thread_infoEE4top_E]
	stp	x19, x20, [sp, 16]
	.cfi_offset 19, -48
	.cfi_offset 20, -40
	mov	x20, x0
	ldr	x2, [x2, #:got_lo12:__stack_chk_guard]
	stp	x21, x22, [sp, 32]
	.cfi_offset 21, -32
	.cfi_offset 22, -24
	ldr	w0, [x3]
	mov	x19, x1
	ldr	x1, [x2]
	str	x1, [sp, 56]
	mov	x1, 0
	ldp	x22, x21, [x19, 24]
	bl	pthread_getspecific
	cbz	x0, .L824
	ldr	x0, [x0, 8]
	cbz	x0, .L824
	ldr	x1, [x0]
	cbz	x1, .L847
.L824:
	mov	x0, x19
	bl	_ZdlPv
.L825:
	cbz	x20, .L826
	add	x19, sp, 48
	mov	w0, 1
	mov	x1, x19
	str	wzr, [sp, 48]
	bl	__aarch64_swp4_sync
	mov	x0, x22
.LEHB38:
	bl	_ZN8asiodnp311LinkSession8ShutdownEv
.LEHE38:
	stlr	wzr, [x19]
.L826:
	adrp	x0, :got:__stack_chk_guard
	ldr	x0, [x0, #:got_lo12:__stack_chk_guard]
	ldr	x2, [sp, 56]
	ldr	x1, [x0]
	subs	x2, x2, x1
	mov	x1, 0
	cbz	x21, .L823
	bne	.L846
	mov	x0, x21
	ldp	x19, x20, [sp, 16]
	ldp	x21, x22, [sp, 32]
	ldp	x29, x30, [sp], 64
	.cfi_remember_state
	.cfi_restore 30
	.cfi_restore 29
	.cfi_restore 21
	.cfi_restore 22
	.cfi_restore 19
	.cfi_restore 20
	.cfi_def_cfa_offset 0
	b	_ZNSt16_Sp_counted_baseILN9__gnu_cxx12_Lock_policyE2EE10_M_releaseEv
	.p2align 2,,3
.L823:
	.cfi_restore_state
	bne	.L846
	ldp	x19, x20, [sp, 16]
	ldp	x21, x22, [sp, 32]
	ldp	x29, x30, [sp], 64
	.cfi_remember_state
	.cfi_restore 30
	.cfi_restore 29
	.cfi_restore 21
	.cfi_restore 22
	.cfi_restore 19
	.cfi_restore 20
	.cfi_def_cfa_offset 0
	ret
	.p2align 2,,3
.L847:
	.cfi_restore_state
	ldrb	w1, [x19, 40]
	strb	w1, [x19]
	str	x19, [x0]
	b	.L825
.L846:
	bl	__stack_chk_fail
.L832:
	mov	x20, x0
	stlr	wzr, [x19]
	cbz	x21, .L830
	mov	x0, x21
	bl	_ZNSt16_Sp_counted_baseILN9__gnu_cxx12_Lock_policyE2EE10_M_releaseEv
.L830:
	mov	x0, x20
.LEHB39:
	bl	_Unwind_Resume
.LEHE39:
	.cfi_endproc
.LFE10610:
	.section	.gcc_except_table
.LLSDA10610:
	.byte	0xff
	.byte	0xff
	.byte	0x1
	.uleb128 .LLSDACSE10610-.LLSDACSB10610
.LLSDACSB10610:
	.uleb128 .LEHB38-.LFB10610
	.uleb128 .LEHE38-.LEHB38
	.uleb128 .L832-.LFB10610
	.uleb128 0
	.uleb128 .LEHB39-.LFB10610
	.uleb128 .LEHE39-.LEHB39
	.uleb128 0
	.uleb128 0
.LLSDACSE10610:
	.text
	.size	_ZN4asio6detail18completion_handlerIZN8asiodnp318MasterSessionStack13BeginShutdownEvEUlvE_E11do_completeEPNS0_15task_io_serviceEPNS0_25task_io_service_operationERKSt10error_codem, .-_ZN4asio6detail18completion_handlerIZN8asiodnp318MasterSessionStack13BeginShutdownEvEUlvE_E11do_completeEPNS0_15task_io_serviceEPNS0_25task_io_service_operationERKSt10error_codem
	.align	2
	.p2align 4,,11
	.type	_ZN4asio6detail18completion_handlerIZN8asiodnp318MasterSessionStack14ScanAllObjectsEN8opendnp316GroupVariationIDERKNS4_10TaskConfigEEUlvE_E11do_completeEPNS0_15task_io_serviceEPNS0_25task_io_service_operationERKSt10error_codem, %function
_ZN4asio6detail18completion_handlerIZN8asiodnp318MasterSessionStack14ScanAllObjectsEN8opendnp316GroupVariationIDERKNS4_10TaskConfigEEUlvE_E11do_completeEPNS0_15task_io_serviceEPNS0_25task_io_service_operationERKSt10error_codem:
.LFB10705:
	.cfi_startproc
	.cfi_personality 0x9b,DW.ref.__gxx_personality_v0
	.cfi_lsda 0x1b,.LLSDA10705
	stp	x29, x30, [sp, -112]!
	.cfi_def_cfa_offset 112
	.cfi_offset 29, -112
	.cfi_offset 30, -104
	adrp	x2, :got:_ZN4asio6detail10call_stackINS0_15task_io_serviceENS0_27task_io_service_thread_infoEE4top_E
	mov	x29, sp
	stp	x19, x20, [sp, 16]
	.cfi_offset 19, -96
	.cfi_offset 20, -88
	mov	x19, x1
	adrp	x1, :got:__stack_chk_guard
	ldr	x2, [x2, #:got_lo12:_ZN4asio6detail10call_stackINS0_15task_io_serviceENS0_27task_io_service_thread_infoEE4top_E]
	stp	x21, x22, [sp, 32]
	.cfi_offset 21, -80
	.cfi_offset 22, -72
	mov	x20, x0
	ldr	x1, [x1, #:got_lo12:__stack_chk_guard]
	ldr	w0, [x2]
	ldr	x2, [x1]
	str	x2, [sp, 104]
	mov	x2, 0
	ldrh	w4, [x19, 40]
	ldp	x2, x3, [x19, 48]
	strh	w4, [sp, 80]
	stp	x2, x3, [sp, 88]
	ldp	x22, x21, [x19, 24]
	bl	pthread_getspecific
	cbz	x0, .L849
	ldr	x0, [x0, 8]
	cbz	x0, .L849
	ldr	x1, [x0]
	cbz	x1, .L872
.L849:
	mov	x0, x19
	bl	_ZdlPv
.L850:
	cbz	x20, .L851
	add	x19, sp, 56
	mov	w0, 1
	mov	x1, x19
	str	wzr, [sp, 56]
	bl	__aarch64_swp4_sync
	ldp	x2, x3, [sp, 88]
	add	x0, x22, 96
	ldrh	w1, [sp, 80]
.LEHB40:
	bl	_ZN8opendnp38MContext14ScanAllObjectsENS_16GroupVariationIDENS_10TaskConfigE
.LEHE40:
	stlr	wzr, [x19]
.L851:
	adrp	x0, :got:__stack_chk_guard
	ldr	x0, [x0, #:got_lo12:__stack_chk_guard]
	ldr	x2, [sp, 104]
	ldr	x1, [x0]
	subs	x2, x2, x1
	mov	x1, 0
	cbz	x21, .L848
	bne	.L871
	mov	x0, x21
	ldp	x19, x20, [sp, 16]
	ldp	x21, x22, [sp, 32]
	ldp	x29, x30, [sp], 112
	.cfi_remember_state
	.cfi_restore 30
	.cfi_restore 29
	.cfi_restore 21
	.cfi_restore 22
	.cfi_restore 19
	.cfi_restore 20
	.cfi_def_cfa_offset 0
	b	_ZNSt16_Sp_counted_baseILN9__gnu_cxx12_Lock_policyE2EE10_M_releaseEv
	.p2align 2,,3
.L848:
	.cfi_restore_state
	bne	.L871
	ldp	x19, x20, [sp, 16]
	ldp	x21, x22, [sp, 32]
	ldp	x29, x30, [sp], 112
	.cfi_remember_state
	.cfi_restore 30
	.cfi_restore 29
	.cfi_restore 21
	.cfi_restore 22
	.cfi_restore 19
	.cfi_restore 20
	.cfi_def_cfa_offset 0
	ret
	.p2align 2,,3
.L872:
	.cfi_restore_state
	ldrb	w1, [x19, 64]
	strb	w1, [x19]
	str	x19, [x0]
	b	.L850
.L871:
	bl	__stack_chk_fail
.L857:
	mov	x20, x0
	stlr	wzr, [x19]
	cbz	x21, .L855
	mov	x0, x21
	bl	_ZNSt16_Sp_counted_baseILN9__gnu_cxx12_Lock_policyE2EE10_M_releaseEv
.L855:
	mov	x0, x20
.LEHB41:
	bl	_Unwind_Resume
.LEHE41:
	.cfi_endproc
.LFE10705:
	.section	.gcc_except_table
.LLSDA10705:
	.byte	0xff
	.byte	0xff
	.byte	0x1
	.uleb128 .LLSDACSE10705-.LLSDACSB10705
.LLSDACSB10705:
	.uleb128 .LEHB40-.LFB10705
	.uleb128 .LEHE40-.LEHB40
	.uleb128 .L857-.LFB10705
	.uleb128 0
	.uleb128 .LEHB41-.LFB10705
	.uleb128 .LEHE41-.LEHB41
	.uleb128 0
	.uleb128 0
.LLSDACSE10705:
	.text
	.size	_ZN4asio6detail18completion_handlerIZN8asiodnp318MasterSessionStack14ScanAllObjectsEN8opendnp316GroupVariationIDERKNS4_10TaskConfigEEUlvE_E11do_completeEPNS0_15task_io_serviceEPNS0_25task_io_service_operationERKSt10error_codem, .-_ZN4asio6detail18completion_handlerIZN8asiodnp318MasterSessionStack14ScanAllObjectsEN8opendnp316GroupVariationIDERKNS4_10TaskConfigEEUlvE_E11do_completeEPNS0_15task_io_serviceEPNS0_25task_io_service_operationERKSt10error_codem
	.align	2
	.p2align 4,,11
	.type	_ZN4asio6detail18completion_handlerIZN8asiodnp318MasterSessionStack11ScanClassesERKN8opendnp310ClassFieldERKNS4_10TaskConfigEEUlvE_E11do_completeEPNS0_15task_io_serviceEPNS0_25task_io_service_operationERKSt10error_codem, %function
_ZN4asio6detail18completion_handlerIZN8asiodnp318MasterSessionStack11ScanClassesERKN8opendnp310ClassFieldERKNS4_10TaskConfigEEUlvE_E11do_completeEPNS0_15task_io_serviceEPNS0_25task_io_service_operationERKSt10error_codem:
.LFB10710:
	.cfi_startproc
	.cfi_personality 0x9b,DW.ref.__gxx_personality_v0
	.cfi_lsda 0x1b,.LLSDA10710
	stp	x29, x30, [sp, -96]!
	.cfi_def_cfa_offset 96
	.cfi_offset 29, -96
	.cfi_offset 30, -88
	adrp	x3, :got:_ZN4asio6detail10call_stackINS0_15task_io_serviceENS0_27task_io_service_thread_infoEE4top_E
	mov	x29, sp
	stp	x19, x20, [sp, 16]
	.cfi_offset 19, -80
	.cfi_offset 20, -72
	mov	x19, x1
	mov	x2, x19
	ldr	x3, [x3, #:got_lo12:_ZN4asio6detail10call_stackINS0_15task_io_serviceENS0_27task_io_service_thread_infoEE4top_E]
	adrp	x1, :got:__stack_chk_guard
	ldr	q0, [x2, 24]!
	mov	x20, x0
	ldr	x1, [x1, #:got_lo12:__stack_chk_guard]
	ldrb	w4, [x2, 16]
	ldr	w0, [x3]
	ldr	x5, [x1]
	str	x5, [sp, 88]
	mov	x5, 0
	ldp	x2, x3, [x2, 24]
	str	q0, [sp, 48]
	strb	w4, [sp, 64]
	stp	x2, x3, [sp, 72]
	bl	pthread_getspecific
	cbz	x0, .L874
	ldr	x0, [x0, 8]
	cbz	x0, .L874
	ldr	x1, [x0]
	cbz	x1, .L898
.L874:
	mov	x0, x19
	bl	_ZdlPv
.L875:
	cbz	x20, .L876
	add	x19, sp, 40
	mov	w0, 1
	mov	x1, x19
	str	wzr, [sp, 40]
	bl	__aarch64_swp4_sync
	ldp	x2, x3, [sp, 72]
	add	x1, sp, 64
	ldr	x0, [sp, 48]
	add	x0, x0, 96
.LEHB42:
	bl	_ZN8opendnp38MContext11ScanClassesERKNS_10ClassFieldENS_10TaskConfigE
.LEHE42:
	stlr	wzr, [x19]
.L876:
	ldr	x0, [sp, 56]
	cbz	x0, .L873
	bl	_ZNSt16_Sp_counted_baseILN9__gnu_cxx12_Lock_policyE2EE10_M_releaseEv
.L873:
	adrp	x0, :got:__stack_chk_guard
	ldr	x0, [x0, #:got_lo12:__stack_chk_guard]
	ldr	x2, [sp, 88]
	ldr	x1, [x0]
	subs	x2, x2, x1
	mov	x1, 0
	bne	.L899
	ldp	x19, x20, [sp, 16]
	ldp	x29, x30, [sp], 96
	.cfi_remember_state
	.cfi_restore 30
	.cfi_restore 29
	.cfi_restore 19
	.cfi_restore 20
	.cfi_def_cfa_offset 0
	ret
	.p2align 2,,3
.L898:
	.cfi_restore_state
	ldrb	w1, [x19, 64]
	strb	w1, [x19]
	str	x19, [x0]
	b	.L875
.L899:
	bl	__stack_chk_fail
.L881:
	mov	x20, x0
	stlr	wzr, [x19]
	ldr	x0, [sp, 56]
	cbz	x0, .L879
	bl	_ZNSt16_Sp_counted_baseILN9__gnu_cxx12_Lock_policyE2EE10_M_releaseEv
.L879:
	mov	x0, x20
.LEHB43:
	bl	_Unwind_Resume
.LEHE43:
	.cfi_endproc
.LFE10710:
	.section	.gcc_except_table
.LLSDA10710:
	.byte	0xff
	.byte	0xff
	.byte	0x1
	.uleb128 .LLSDACSE10710-.LLSDACSB10710
.LLSDACSB10710:
	.uleb128 .LEHB42-.LFB10710
	.uleb128 .LEHE42-.LEHB42
	.uleb128 .L881-.LFB10710
	.uleb128 0
	.uleb128 .LEHB43-.LFB10710
	.uleb128 .LEHE43-.LEHB43
	.uleb128 0
	.uleb128 0
.LLSDACSE10710:
	.text
	.size	_ZN4asio6detail18completion_handlerIZN8asiodnp318MasterSessionStack11ScanClassesERKN8opendnp310ClassFieldERKNS4_10TaskConfigEEUlvE_E11do_completeEPNS0_15task_io_serviceEPNS0_25task_io_service_operationERKSt10error_codem, .-_ZN4asio6detail18completion_handlerIZN8asiodnp318MasterSessionStack11ScanClassesERKN8opendnp310ClassFieldERKNS4_10TaskConfigEEUlvE_E11do_completeEPNS0_15task_io_serviceEPNS0_25task_io_service_operationERKSt10error_codem
	.align	2
	.p2align 4,,11
	.type	_ZN4asio6detail18completion_handlerIZN8asiodnp318MasterSessionStack5WriteERKN8opendnp315TimeAndIntervalEtRKNS4_10TaskConfigEEUlvE_E11do_completeEPNS0_15task_io_serviceEPNS0_25task_io_service_operationERKSt10error_codem, %function
_ZN4asio6detail18completion_handlerIZN8asiodnp318MasterSessionStack5WriteERKN8opendnp315TimeAndIntervalEtRKNS4_10TaskConfigEEUlvE_E11do_completeEPNS0_15task_io_serviceEPNS0_25task_io_service_operationERKSt10error_codem:
.LFB10720:
	.cfi_startproc
	.cfi_personality 0x9b,DW.ref.__gxx_personality_v0
	.cfi_lsda 0x1b,.LLSDA10720
	stp	x29, x30, [sp, -112]!
	.cfi_def_cfa_offset 112
	.cfi_offset 29, -112
	.cfi_offset 30, -104
	adrp	x3, :got:_ZN4asio6detail10call_stackINS0_15task_io_serviceENS0_27task_io_service_thread_infoEE4top_E
	mov	x29, sp
	stp	x19, x20, [sp, 16]
	.cfi_offset 19, -96
	.cfi_offset 20, -88
	mov	x19, x1
	mov	x2, x19
	adrp	x1, :got:__stack_chk_guard
	mov	x20, x0
	ldr	x3, [x3, #:got_lo12:_ZN4asio6detail10call_stackINS0_15task_io_serviceENS0_27task_io_service_thread_infoEE4top_E]
	ldr	x1, [x1, #:got_lo12:__stack_chk_guard]
	ldr	q0, [x2, 24]!
	ldr	w0, [x3]
	ldr	x3, [x1]
	str	x3, [sp, 104]
	mov	x3, 0
	ldrh	w1, [x2, 32]
	ldp	x4, x5, [x2, 16]
	str	q0, [sp, 48]
	ldp	x2, x3, [x2, 40]
	stp	x4, x5, [sp, 64]
	strh	w1, [sp, 80]
	stp	x2, x3, [sp, 88]
	bl	pthread_getspecific
	cbz	x0, .L901
	ldr	x0, [x0, 8]
	cbz	x0, .L901
	ldr	x1, [x0]
	cbz	x1, .L925
.L901:
	mov	x0, x19
	bl	_ZdlPv
.L902:
	cbz	x20, .L903
	add	x19, sp, 40
	mov	w0, 1
	mov	x1, x19
	str	wzr, [sp, 40]
	bl	__aarch64_swp4_sync
	ldp	x4, x5, [sp, 88]
	add	x1, sp, 64
	ldrh	w2, [sp, 80]
	ldr	x0, [sp, 48]
	mov	x3, x4
	add	x0, x0, 96
	mov	x4, x5
.LEHB44:
	bl	_ZN8opendnp38MContext5WriteERKNS_15TimeAndIntervalEtNS_10TaskConfigE
.LEHE44:
	stlr	wzr, [x19]
.L903:
	ldr	x0, [sp, 56]
	cbz	x0, .L900
	bl	_ZNSt16_Sp_counted_baseILN9__gnu_cxx12_Lock_policyE2EE10_M_releaseEv
.L900:
	adrp	x0, :got:__stack_chk_guard
	ldr	x0, [x0, #:got_lo12:__stack_chk_guard]
	ldr	x2, [sp, 104]
	ldr	x1, [x0]
	subs	x2, x2, x1
	mov	x1, 0
	bne	.L926
	ldp	x19, x20, [sp, 16]
	ldp	x29, x30, [sp], 112
	.cfi_remember_state
	.cfi_restore 30
	.cfi_restore 29
	.cfi_restore 19
	.cfi_restore 20
	.cfi_def_cfa_offset 0
	ret
	.p2align 2,,3
.L925:
	.cfi_restore_state
	ldrb	w1, [x19, 80]
	strb	w1, [x19]
	str	x19, [x0]
	b	.L902
.L926:
	bl	__stack_chk_fail
.L908:
	mov	x20, x0
	stlr	wzr, [x19]
	ldr	x0, [sp, 56]
	cbz	x0, .L906
	bl	_ZNSt16_Sp_counted_baseILN9__gnu_cxx12_Lock_policyE2EE10_M_releaseEv
.L906:
	mov	x0, x20
.LEHB45:
	bl	_Unwind_Resume
.LEHE45:
	.cfi_endproc
.LFE10720:
	.section	.gcc_except_table
.LLSDA10720:
	.byte	0xff
	.byte	0xff
	.byte	0x1
	.uleb128 .LLSDACSE10720-.LLSDACSB10720
.LLSDACSB10720:
	.uleb128 .LEHB44-.LFB10720
	.uleb128 .LEHE44-.LEHB44
	.uleb128 .L908-.LFB10720
	.uleb128 0
	.uleb128 .LEHB45-.LFB10720
	.uleb128 .LEHE45-.LEHB45
	.uleb128 0
	.uleb128 0
.LLSDACSE10720:
	.text
	.size	_ZN4asio6detail18completion_handlerIZN8asiodnp318MasterSessionStack5WriteERKN8opendnp315TimeAndIntervalEtRKNS4_10TaskConfigEEUlvE_E11do_completeEPNS0_15task_io_serviceEPNS0_25task_io_service_operationERKSt10error_codem, .-_ZN4asio6detail18completion_handlerIZN8asiodnp318MasterSessionStack5WriteERKN8opendnp315TimeAndIntervalEtRKNS4_10TaskConfigEEUlvE_E11do_completeEPNS0_15task_io_serviceEPNS0_25task_io_service_operationERKSt10error_codem
	.align	2
	.p2align 4,,11
	.type	_ZN4asio6detail18completion_handlerIZN8asiodnp318MasterSessionStack9ScanRangeEN8opendnp316GroupVariationIDEttRKNS4_10TaskConfigEEUlvE_E11do_completeEPNS0_15task_io_serviceEPNS0_25task_io_service_operationERKSt10error_codem, %function
_ZN4asio6detail18completion_handlerIZN8asiodnp318MasterSessionStack9ScanRangeEN8opendnp316GroupVariationIDEttRKNS4_10TaskConfigEEUlvE_E11do_completeEPNS0_15task_io_serviceEPNS0_25task_io_service_operationERKSt10error_codem:
.LFB10715:
	.cfi_startproc
	.cfi_personality 0x9b,DW.ref.__gxx_personality_v0
	.cfi_lsda 0x1b,.LLSDA10715
	stp	x29, x30, [sp, -128]!
	.cfi_def_cfa_offset 128
	.cfi_offset 29, -128
	.cfi_offset 30, -120
	adrp	x3, :got:_ZN4asio6detail10call_stackINS0_15task_io_serviceENS0_27task_io_service_thread_infoEE4top_E
	adrp	x2, :got:__stack_chk_guard
	mov	x29, sp
	ldr	x3, [x3, #:got_lo12:_ZN4asio6detail10call_stackINS0_15task_io_serviceENS0_27task_io_service_thread_infoEE4top_E]
	stp	x19, x20, [sp, 16]
	.cfi_offset 19, -112
	.cfi_offset 20, -104
	mov	x20, x0
	ldr	x2, [x2, #:got_lo12:__stack_chk_guard]
	stp	x21, x22, [sp, 32]
	ldr	w0, [x3]
	stp	x23, x24, [sp, 48]
	.cfi_offset 21, -96
	.cfi_offset 22, -88
	.cfi_offset 23, -80
	.cfi_offset 24, -72
	mov	x19, x1
	ldrh	w4, [x1, 40]
	ldr	x3, [x2]
	str	x3, [sp, 120]
	mov	x3, 0
	ldrh	w22, [x1, 42]
	ldp	x2, x3, [x1, 48]
	strh	w4, [sp, 96]
	ldrh	w23, [x1, 44]
	stp	x2, x3, [sp, 104]
	ldp	x24, x21, [x1, 24]
	bl	pthread_getspecific
	cbz	x0, .L928
	ldr	x0, [x0, 8]
	cbz	x0, .L928
	ldr	x1, [x0]
	cbz	x1, .L951
.L928:
	mov	x0, x19
	bl	_ZdlPv
.L929:
	cbz	x20, .L930
	add	x19, sp, 72
	mov	w0, 1
	mov	x1, x19
	str	wzr, [sp, 72]
	bl	__aarch64_swp4_sync
	ldp	x4, x5, [sp, 104]
	mov	w3, w23
	ldrh	w1, [sp, 96]
	mov	w2, w22
	add	x0, x24, 96
.LEHB46:
	bl	_ZN8opendnp38MContext9ScanRangeENS_16GroupVariationIDEttNS_10TaskConfigE
.LEHE46:
	stlr	wzr, [x19]
.L930:
	adrp	x0, :got:__stack_chk_guard
	ldr	x0, [x0, #:got_lo12:__stack_chk_guard]
	ldr	x2, [sp, 120]
	ldr	x1, [x0]
	subs	x2, x2, x1
	mov	x1, 0
	cbz	x21, .L927
	bne	.L950
	mov	x0, x21
	ldp	x19, x20, [sp, 16]
	ldp	x21, x22, [sp, 32]
	ldp	x23, x24, [sp, 48]
	ldp	x29, x30, [sp], 128
	.cfi_remember_state
	.cfi_restore 30
	.cfi_restore 29
	.cfi_restore 23
	.cfi_restore 24
	.cfi_restore 21
	.cfi_restore 22
	.cfi_restore 19
	.cfi_restore 20
	.cfi_def_cfa_offset 0
	b	_ZNSt16_Sp_counted_baseILN9__gnu_cxx12_Lock_policyE2EE10_M_releaseEv
	.p2align 2,,3
.L927:
	.cfi_restore_state
	bne	.L950
	ldp	x19, x20, [sp, 16]
	ldp	x21, x22, [sp, 32]
	ldp	x23, x24, [sp, 48]
	ldp	x29, x30, [sp], 128
	.cfi_remember_state
	.cfi_restore 30
	.cfi_restore 29
	.cfi_restore 23
	.cfi_restore 24
	.cfi_restore 21
	.cfi_restore 22
	.cfi_restore 19
	.cfi_restore 20
	.cfi_def_cfa_offset 0
	ret
	.p2align 2,,3
.L951:
	.cfi_restore_state
	ldrb	w1, [x19, 64]
	strb	w1, [x19]
	str	x19, [x0]
	b	.L929
.L950:
	bl	__stack_chk_fail
.L936:
	mov	x20, x0
	stlr	wzr, [x19]
	cbz	x21, .L934
	mov	x0, x21
	bl	_ZNSt16_Sp_counted_baseILN9__gnu_cxx12_Lock_policyE2EE10_M_releaseEv
.L934:
	mov	x0, x20
.LEHB47:
	bl	_Unwind_Resume
.LEHE47:
	.cfi_endproc
.LFE10715:
	.section	.gcc_except_table
.LLSDA10715:
	.byte	0xff
	.byte	0xff
	.byte	0x1
	.uleb128 .LLSDACSE10715-.LLSDACSB10715
.LLSDACSB10715:
	.uleb128 .LEHB46-.LFB10715
	.uleb128 .LEHE46-.LEHB46
	.uleb128 .L936-.LFB10715
	.uleb128 0
	.uleb128 .LEHB47-.LFB10715
	.uleb128 .LEHE47-.LEHB47
	.uleb128 0
	.uleb128 0
.LLSDACSE10715:
	.text
	.size	_ZN4asio6detail18completion_handlerIZN8asiodnp318MasterSessionStack9ScanRangeEN8opendnp316GroupVariationIDEttRKNS4_10TaskConfigEEUlvE_E11do_completeEPNS0_15task_io_serviceEPNS0_25task_io_service_operationERKSt10error_codem, .-_ZN4asio6detail18completion_handlerIZN8asiodnp318MasterSessionStack9ScanRangeEN8opendnp316GroupVariationIDEttRKNS4_10TaskConfigEEUlvE_E11do_completeEPNS0_15task_io_serviceEPNS0_25task_io_service_operationERKSt10error_codem
	.align	2
	.p2align 4,,11
	.global	_ZN8asiodnp318MasterSessionStack6DemandERKSt10shared_ptrIN8opendnp311IMasterTaskEE
	.type	_ZN8asiodnp318MasterSessionStack6DemandERKSt10shared_ptrIN8opendnp311IMasterTaskEE, %function
_ZN8asiodnp318MasterSessionStack6DemandERKSt10shared_ptrIN8opendnp311IMasterTaskEE:
.LFB7983:
	.cfi_startproc
	.cfi_personality 0x9b,DW.ref.__gxx_personality_v0
	.cfi_lsda 0x1b,.LLSDA7983
	stp	x29, x30, [sp, -128]!
	.cfi_def_cfa_offset 128
	.cfi_offset 29, -128
	.cfi_offset 30, -120
	adrp	x2, :got:__stack_chk_guard
	mov	x29, sp
	stp	x19, x20, [sp, 16]
	.cfi_offset 19, -112
	.cfi_offset 20, -104
	mov	x20, x0
	stp	x21, x22, [sp, 32]
	.cfi_offset 21, -96
	.cfi_offset 22, -88
	ldr	q0, [x1]
	ldr	x2, [x2, #:got_lo12:__stack_chk_guard]
	umov	x1, v0.d[1]
	ldr	x0, [x2]
	str	x0, [sp, 120]
	mov	x0, 0
	str	q0, [sp, 48]
	cbz	x1, .L953
	adrp	x0, :got:__libc_single_threaded
	ldr	x0, [x0, #:got_lo12:__libc_single_threaded]
	ldrb	w0, [x0]
	cbz	w0, .L954
	ldr	w0, [x1, 8]
	add	w0, w0, 1
	str	w0, [x1, 8]
.L953:
	ldr	x2, [x20, 24]
	str	x2, [sp, 72]
	cbz	x2, .L955
	add	x19, x2, 8
	ldr	w21, [x19]
.L957:
	cbz	w21, .L955
	add	w1, w21, 1
	mov	w0, w21
	mov	x2, x19
	bl	__aarch64_cas4_acq_rel
	cmp	w0, w21
	mov	w21, w0
	bne	.L957
	ldr	q0, [sp, 48]
	ldr	x0, [x20, 16]
	str	x0, [sp, 64]
	umov	x1, v0.d[1]
	str	q0, [sp, 80]
	ldr	x19, [x20, 32]
	cbz	x1, .L959
	adrp	x2, :got:__libc_single_threaded
	ldr	x2, [x2, #:got_lo12:__libc_single_threaded]
	ldrb	w2, [x2]
	cbz	w2, .L958
	ldr	w2, [x1, 8]
	add	w2, w2, 1
	str	w2, [x1, 8]
.L959:
	ldr	x1, [sp, 72]
	stp	x0, x1, [sp, 96]
	cbz	x1, .L960
	adrp	x0, :got:__libc_single_threaded
	ldr	x0, [x0, #:got_lo12:__libc_single_threaded]
	ldrb	w0, [x0]
	cbz	w0, .L961
	ldr	w0, [x1, 8]
	add	w0, w0, 1
	str	w0, [x1, 8]
.L960:
	adrp	x0, :got:_ZN4asio6detail10call_stackINS0_15task_io_serviceENS0_27task_io_service_thread_infoEE4top_E
	add	x22, x19, 48
	ldr	x21, [x19, 40]
	ldr	x0, [x0, #:got_lo12:_ZN4asio6detail10call_stackINS0_15task_io_serviceENS0_27task_io_service_thread_infoEE4top_E]
	ldr	w0, [x0]
	bl	pthread_getspecific
	cbz	x0, .L962
	ldr	x0, [x0, 8]
	cbz	x0, .L962
	ldr	x19, [x0]
	cbz	x19, .L962
	str	xzr, [x0]
	ldrb	w0, [x19]
	cmp	w0, 55
	bls	.L963
	ldr	q0, [sp, 80]
	str	wzr, [x19, 16]
	strb	w0, [x19, 56]
	adrp	x0, _ZN4asio6detail18completion_handlerIZN8asiodnp318MasterSessionStack6DemandERKSt10shared_ptrIN8opendnp311IMasterTaskEEEUlvE_E11do_completeEPNS0_15task_io_serviceEPNS0_25task_io_service_operationERKSt10error_codem
	add	x0, x0, :lo12:_ZN4asio6detail18completion_handlerIZN8asiodnp318MasterSessionStack6DemandERKSt10shared_ptrIN8opendnp311IMasterTaskEEEUlvE_E11do_completeEPNS0_15task_io_serviceEPNS0_25task_io_service_operationERKSt10error_codem
	stp	xzr, x0, [x19]
	umov	x20, v0.d[1]
	str	q0, [x19, 24]
	cbnz	x20, .L1009
.L965:
	ldr	q0, [sp, 96]
	mov	x1, x22
	mov	x0, x21
	mov	x2, x19
	mov	w3, 0
	str	q0, [x19, 40]
	bl	_ZN4asio6detail14strand_service7do_postERPNS1_11strand_implEPNS0_25task_io_service_operationEb
	b	.L968
	.p2align 2,,3
.L963:
	mov	x0, x19
	bl	_ZdlPv
.L962:
	mov	x0, 57
.LEHB48:
	bl	_Znwm
.LEHE48:
	ldr	q0, [sp, 80]
	mov	x19, x0
	mov	w1, 56
	strb	w1, [x0, 56]
	adrp	x0, _ZN4asio6detail18completion_handlerIZN8asiodnp318MasterSessionStack6DemandERKSt10shared_ptrIN8opendnp311IMasterTaskEEEUlvE_E11do_completeEPNS0_15task_io_serviceEPNS0_25task_io_service_operationERKSt10error_codem
	add	x0, x0, :lo12:_ZN4asio6detail18completion_handlerIZN8asiodnp318MasterSessionStack6DemandERKSt10shared_ptrIN8opendnp311IMasterTaskEEEUlvE_E11do_completeEPNS0_15task_io_serviceEPNS0_25task_io_service_operationERKSt10error_codem
	umov	x20, v0.d[1]
	stp	xzr, x0, [x19]
	str	wzr, [x19, 16]
	str	q0, [x19, 24]
	cbz	x20, .L965
.L1009:
	adrp	x0, :got:__libc_single_threaded
	ldr	x0, [x0, #:got_lo12:__libc_single_threaded]
	ldrb	w0, [x0]
	cbz	w0, .L966
	ldr	w3, [x20, 8]
	mov	x1, x22
	mov	x0, x21
	mov	x2, x19
	add	w3, w3, 1
	str	w3, [x20, 8]
	mov	w3, 0
	ldr	q0, [sp, 96]
	str	q0, [x19, 40]
	bl	_ZN4asio6detail14strand_service7do_postERPNS1_11strand_implEPNS0_25task_io_service_operationEb
.L967:
	mov	x0, x20
	bl	_ZNSt16_Sp_counted_baseILN9__gnu_cxx12_Lock_policyE2EE10_M_releaseEv
.L968:
	ldr	x0, [sp, 72]
	cbz	x0, .L970
	bl	_ZNSt16_Sp_counted_baseILN9__gnu_cxx12_Lock_policyE2EE10_M_releaseEv
.L970:
	ldr	x0, [sp, 56]
	cbz	x0, .L952
	adrp	x1, :got:__stack_chk_guard
	ldr	x1, [x1, #:got_lo12:__stack_chk_guard]
	ldr	x3, [sp, 120]
	ldr	x2, [x1]
	subs	x3, x3, x2
	mov	x2, 0
	bne	.L1008
	ldp	x19, x20, [sp, 16]
	ldp	x21, x22, [sp, 32]
	ldp	x29, x30, [sp], 128
	.cfi_remember_state
	.cfi_restore 30
	.cfi_restore 29
	.cfi_restore 21
	.cfi_restore 22
	.cfi_restore 19
	.cfi_restore 20
	.cfi_def_cfa_offset 0
	b	_ZNSt16_Sp_counted_baseILN9__gnu_cxx12_Lock_policyE2EE10_M_releaseEv
	.p2align 2,,3
.L954:
	.cfi_restore_state
	add	x1, x1, 8
	mov	w0, 1
	bl	__aarch64_ldadd4_acq_rel
	b	.L953
	.p2align 2,,3
.L966:
	add	x1, x20, 8
	mov	w0, 1
	bl	__aarch64_ldadd4_acq_rel
	ldr	x20, [sp, 88]
	mov	x1, x22
	ldr	q0, [sp, 96]
	mov	x0, x21
	mov	x2, x19
	mov	w3, 0
	str	q0, [x19, 40]
	bl	_ZN4asio6detail14strand_service7do_postERPNS1_11strand_implEPNS0_25task_io_service_operationEb
	cbz	x20, .L968
	b	.L967
	.p2align 2,,3
.L958:
	add	x1, x1, 8
	mov	w0, 1
	bl	__aarch64_ldadd4_acq_rel
	ldr	x0, [sp, 64]
	b	.L959
	.p2align 2,,3
.L961:
	add	x1, x1, 8
	mov	w0, 1
	bl	__aarch64_ldadd4_acq_rel
	b	.L960
	.p2align 2,,3
.L952:
	adrp	x0, :got:__stack_chk_guard
	ldr	x0, [x0, #:got_lo12:__stack_chk_guard]
	ldr	x2, [sp, 120]
	ldr	x1, [x0]
	subs	x2, x2, x1
	mov	x1, 0
	bne	.L1008
	ldp	x19, x20, [sp, 16]
	ldp	x21, x22, [sp, 32]
	ldp	x29, x30, [sp], 128
	.cfi_remember_state
	.cfi_restore 30
	.cfi_restore 29
	.cfi_restore 21
	.cfi_restore 22
	.cfi_restore 19
	.cfi_restore 20
	.cfi_def_cfa_offset 0
	ret
.L1008:
	.cfi_restore_state
	bl	__stack_chk_fail
.L955:
	mov	x0, 8
	bl	__cxa_allocate_exception
	adrp	x3, :got:_ZTVSt12bad_weak_ptr
	adrp	x2, :got:_ZNSt12bad_weak_ptrD1Ev
	adrp	x1, :got:_ZTISt12bad_weak_ptr
	ldr	x3, [x3, #:got_lo12:_ZTVSt12bad_weak_ptr]
	ldr	x2, [x2, #:got_lo12:_ZNSt12bad_weak_ptrD1Ev]
	add	x3, x3, 16
	ldr	x1, [x1, #:got_lo12:_ZTISt12bad_weak_ptr]
	str	x3, [x0]
.LEHB49:
	bl	__cxa_throw
.LEHE49:
.L979:
	mov	x19, x0
	add	x0, sp, 80
	bl	_ZZN8asiodnp318MasterSessionStack6DemandERKSt10shared_ptrIN8opendnp311IMasterTaskEEENUlvE_D1Ev
	add	x0, sp, 48
	bl	_ZZN8asiodnp318MasterSessionStack6DemandERKSt10shared_ptrIN8opendnp311IMasterTaskEEENUlvE_D1Ev
	mov	x0, x19
.LEHB50:
	bl	_Unwind_Resume
.L978:
	ldr	x1, [sp, 56]
	mov	x19, x0
	cbz	x1, .L975
	mov	x0, x1
	bl	_ZNSt16_Sp_counted_baseILN9__gnu_cxx12_Lock_policyE2EE10_M_releaseEv
.L975:
	mov	x0, x19
	bl	_Unwind_Resume
.LEHE50:
	.cfi_endproc
.LFE7983:
	.section	.gcc_except_table
.LLSDA7983:
	.byte	0xff
	.byte	0xff
	.byte	0x1
	.uleb128 .LLSDACSE7983-.LLSDACSB7983
.LLSDACSB7983:
	.uleb128 .LEHB48-.LFB7983
	.uleb128 .LEHE48-.LEHB48
	.uleb128 .L979-.LFB7983
	.uleb128 0
	.uleb128 .LEHB49-.LFB7983
	.uleb128 .LEHE49-.LEHB49
	.uleb128 .L978-.LFB7983
	.uleb128 0
	.uleb128 .LEHB50-.LFB7983
	.uleb128 .LEHE50-.LEHB50
	.uleb128 0
	.uleb128 0
.LLSDACSE7983:
	.text
	.size	_ZN8asiodnp318MasterSessionStack6DemandERKSt10shared_ptrIN8opendnp311IMasterTaskEE, .-_ZN8asiodnp318MasterSessionStack6DemandERKSt10shared_ptrIN8opendnp311IMasterTaskEE
	.set	.LTHUNK2,_ZN8asiodnp318MasterSessionStack6DemandERKSt10shared_ptrIN8opendnp311IMasterTaskEE
	.align	2
	.p2align 4,,11
	.global	_ZThn8_N8asiodnp318MasterSessionStack6DemandERKSt10shared_ptrIN8opendnp311IMasterTaskEE
	.type	_ZThn8_N8asiodnp318MasterSessionStack6DemandERKSt10shared_ptrIN8opendnp311IMasterTaskEE, %function
_ZThn8_N8asiodnp318MasterSessionStack6DemandERKSt10shared_ptrIN8opendnp311IMasterTaskEE:
.LFB12059:
	.cfi_startproc
	sub	x0, x0, #8
	b	.LTHUNK2
	.cfi_endproc
.LFE12059:
	.size	_ZThn8_N8asiodnp318MasterSessionStack6DemandERKSt10shared_ptrIN8opendnp311IMasterTaskEE, .-_ZThn8_N8asiodnp318MasterSessionStack6DemandERKSt10shared_ptrIN8opendnp311IMasterTaskEE
	.align	2
	.p2align 4,,11
	.type	_ZN4asio6detail18completion_handlerIZN8asiodnp318MasterSessionStack6DemandERKSt10shared_ptrIN8opendnp311IMasterTaskEEEUlvE_E11do_completeEPNS0_15task_io_serviceEPNS0_25task_io_service_operationERKSt10error_codem, %function
_ZN4asio6detail18completion_handlerIZN8asiodnp318MasterSessionStack6DemandERKSt10shared_ptrIN8opendnp311IMasterTaskEEEUlvE_E11do_completeEPNS0_15task_io_serviceEPNS0_25task_io_service_operationERKSt10error_codem:
.LFB10605:
	.cfi_startproc
	.cfi_personality 0x9b,DW.ref.__gxx_personality_v0
	.cfi_lsda 0x1b,.LLSDA10605
	stp	x29, x30, [sp, -112]!
	.cfi_def_cfa_offset 112
	.cfi_offset 29, -112
	.cfi_offset 30, -104
	adrp	x2, :got:__stack_chk_guard
	mov	x29, sp
	stp	x19, x20, [sp, 16]
	.cfi_offset 19, -96
	.cfi_offset 20, -88
	mov	x20, x0
	mov	x19, x1
	str	x21, [sp, 32]
	.cfi_offset 21, -80
	ldr	x2, [x2, #:got_lo12:__stack_chk_guard]
	ldr	q0, [x1, 24]
	ldr	x0, [x2]
	str	x0, [sp, 104]
	mov	x0, 0
	umov	x0, v0.d[1]
	str	q0, [sp, 64]
	cbz	x0, .L1011
	adrp	x1, :got:__libc_single_threaded
	ldr	x1, [x1, #:got_lo12:__libc_single_threaded]
	ldrb	w1, [x1]
	cbz	w1, .L1012
	ldr	w1, [x0, 8]
	add	w1, w1, 1
	str	w1, [x0, 8]
	ldr	q0, [x19, 40]
	umov	x21, v0.d[1]
	str	q0, [sp, 80]
.L1013:
	bl	_ZNSt16_Sp_counted_baseILN9__gnu_cxx12_Lock_policyE2EE10_M_releaseEv
.L1014:
	adrp	x0, :got:_ZN4asio6detail10call_stackINS0_15task_io_serviceENS0_27task_io_service_thread_infoEE4top_E
	ldr	x0, [x0, #:got_lo12:_ZN4asio6detail10call_stackINS0_15task_io_serviceENS0_27task_io_service_thread_infoEE4top_E]
	ldr	w0, [x0]
	bl	pthread_getspecific
	cbz	x0, .L1015
	ldr	x0, [x0, 8]
	cbz	x0, .L1015
	ldr	x1, [x0]
	cbz	x1, .L1041
.L1015:
	mov	x0, x19
	bl	_ZdlPv
.L1016:
	cbz	x20, .L1017
	add	x19, sp, 56
	mov	w0, 1
	mov	x1, x19
	str	wzr, [sp, 56]
	bl	__aarch64_swp4_sync
	ldr	x0, [sp, 64]
.LEHB51:
	bl	_ZN8opendnp311IMasterTask6DemandEv
	ldr	x0, [sp, 80]
	add	x0, x0, 96
	bl	_ZN8opendnp38MContext12CheckForTaskEv
.LEHE51:
	stlr	wzr, [x19]
	ldr	x21, [sp, 88]
.L1017:
	cbz	x21, .L1018
	mov	x0, x21
	bl	_ZNSt16_Sp_counted_baseILN9__gnu_cxx12_Lock_policyE2EE10_M_releaseEv
.L1018:
	ldr	x0, [sp, 72]
	cbz	x0, .L1010
	adrp	x1, :got:__stack_chk_guard
	ldr	x1, [x1, #:got_lo12:__stack_chk_guard]
	ldr	x3, [sp, 104]
	ldr	x2, [x1]
	subs	x3, x3, x2
	mov	x2, 0
	bne	.L1040
	ldp	x19, x20, [sp, 16]
	ldr	x21, [sp, 32]
	ldp	x29, x30, [sp], 112
	.cfi_remember_state
	.cfi_restore 30
	.cfi_restore 29
	.cfi_restore 21
	.cfi_restore 19
	.cfi_restore 20
	.cfi_def_cfa_offset 0
	b	_ZNSt16_Sp_counted_baseILN9__gnu_cxx12_Lock_policyE2EE10_M_releaseEv
	.p2align 2,,3
.L1012:
	.cfi_restore_state
	add	x1, x0, 8
	mov	w0, 1
	bl	__aarch64_ldadd4_acq_rel
	ldr	q0, [x19, 40]
	ldr	x0, [x19, 32]
	str	q0, [sp, 80]
	umov	x21, v0.d[1]
	cbz	x0, .L1014
	b	.L1013
	.p2align 2,,3
.L1010:
	adrp	x0, :got:__stack_chk_guard
	ldr	x0, [x0, #:got_lo12:__stack_chk_guard]
	ldr	x2, [sp, 104]
	ldr	x1, [x0]
	subs	x2, x2, x1
	mov	x1, 0
	bne	.L1040
	ldp	x19, x20, [sp, 16]
	ldr	x21, [sp, 32]
	ldp	x29, x30, [sp], 112
	.cfi_remember_state
	.cfi_restore 30
	.cfi_restore 29
	.cfi_restore 21
	.cfi_restore 19
	.cfi_restore 20
	.cfi_def_cfa_offset 0
	ret
	.p2align 2,,3
.L1011:
	.cfi_restore_state
	ldr	q0, [x1, 40]
	umov	x21, v0.d[1]
	str	q0, [sp, 80]
	b	.L1014
	.p2align 2,,3
.L1041:
	ldrb	w1, [x19, 56]
	strb	w1, [x19]
	str	x19, [x0]
	b	.L1016
.L1040:
	bl	__stack_chk_fail
.L1023:
	mov	x20, x0
	stlr	wzr, [x19]
	add	x0, sp, 64
	bl	_ZZN8asiodnp318MasterSessionStack6DemandERKSt10shared_ptrIN8opendnp311IMasterTaskEEENUlvE_D1Ev
	mov	x0, x20
.LEHB52:
	bl	_Unwind_Resume
.LEHE52:
	.cfi_endproc
.LFE10605:
	.section	.gcc_except_table
.LLSDA10605:
	.byte	0xff
	.byte	0xff
	.byte	0x1
	.uleb128 .LLSDACSE10605-.LLSDACSB10605
.LLSDACSB10605:
	.uleb128 .LEHB51-.LFB10605
	.uleb128 .LEHE51-.LEHB51
	.uleb128 .L1023-.LFB10605
	.uleb128 0
	.uleb128 .LEHB52-.LFB10605
	.uleb128 .LEHE52-.LEHB52
	.uleb128 0
	.uleb128 0
.LLSDACSE10605:
	.text
	.size	_ZN4asio6detail18completion_handlerIZN8asiodnp318MasterSessionStack6DemandERKSt10shared_ptrIN8opendnp311IMasterTaskEEEUlvE_E11do_completeEPNS0_15task_io_serviceEPNS0_25task_io_service_operationERKSt10error_codem, .-_ZN4asio6detail18completion_handlerIZN8asiodnp318MasterSessionStack6DemandERKSt10shared_ptrIN8opendnp311IMasterTaskEEEUlvE_E11do_completeEPNS0_15task_io_serviceEPNS0_25task_io_service_operationERKSt10error_codem
	.section	.text.unlikely
	.align	2
	.type	_ZN4asio6detail18completion_handlerIZN8asiodnp318MasterSessionStack7RestartEN8opendnp311RestartTypeERKSt8functionIFvRKNS4_22RestartOperationResultEEENS4_10TaskConfigEEUlvE_E3ptr5resetEv, %function
_ZN4asio6detail18completion_handlerIZN8asiodnp318MasterSessionStack7RestartEN8opendnp311RestartTypeERKSt8functionIFvRKNS4_22RestartOperationResultEEENS4_10TaskConfigEEUlvE_E3ptr5resetEv:
.LFB10721:
	.cfi_startproc
	.cfi_personality 0x9b,DW.ref.__gxx_personality_v0
	.cfi_lsda 0x1b,.LLSDA10721
	stp	x29, x30, [sp, -32]!
	.cfi_def_cfa_offset 32
	.cfi_offset 29, -32
	.cfi_offset 30, -24
	mov	x29, sp
	stp	x19, x20, [sp, 16]
	.cfi_offset 19, -16
	.cfi_offset 20, -8
	mov	x19, x0
	ldr	x20, [x0, 16]
	cbz	x20, .L1043
	ldr	x3, [x20, 64]
	add	x1, x20, 48
	cbz	x3, .L1044
	mov	x0, x1
	mov	w2, 3
	blr	x3
.L1044:
	ldr	x0, [x20, 32]
	cbz	x0, .L1045
	bl	_ZNSt16_Sp_counted_baseILN9__gnu_cxx12_Lock_policyE2EE10_M_releaseEv
.L1045:
	str	xzr, [x19, 16]
.L1043:
	ldr	x20, [x19, 8]
	cbz	x20, .L1042
	adrp	x0, :got:_ZN4asio6detail10call_stackINS0_15task_io_serviceENS0_27task_io_service_thread_infoEE4top_E
	ldr	x0, [x0, #:got_lo12:_ZN4asio6detail10call_stackINS0_15task_io_serviceENS0_27task_io_service_thread_infoEE4top_E]
	ldr	w0, [x0]
	bl	pthread_getspecific
	cbz	x0, .L1047
	ldr	x0, [x0, 8]
	cbz	x0, .L1047
	ldr	x1, [x0]
	cbnz	x1, .L1047
	ldrb	w1, [x20, 96]
	strb	w1, [x20]
	str	x20, [x0]
	b	.L1048
.L1047:
	mov	x0, x20
	bl	_ZdlPv
.L1048:
	str	xzr, [x19, 8]
.L1042:
	ldp	x19, x20, [sp, 16]
	ldp	x29, x30, [sp], 32
	.cfi_restore 30
	.cfi_restore 29
	.cfi_restore 19
	.cfi_restore 20
	.cfi_def_cfa_offset 0
	ret
	.cfi_endproc
.LFE10721:
	.section	.gcc_except_table
.LLSDA10721:
	.byte	0xff
	.byte	0xff
	.byte	0x1
	.uleb128 .LLSDACSE10721-.LLSDACSB10721
.LLSDACSB10721:
.LLSDACSE10721:
	.section	.text.unlikely
	.size	_ZN4asio6detail18completion_handlerIZN8asiodnp318MasterSessionStack7RestartEN8opendnp311RestartTypeERKSt8functionIFvRKNS4_22RestartOperationResultEEENS4_10TaskConfigEEUlvE_E3ptr5resetEv, .-_ZN4asio6detail18completion_handlerIZN8asiodnp318MasterSessionStack7RestartEN8opendnp311RestartTypeERKSt8functionIFvRKNS4_22RestartOperationResultEEENS4_10TaskConfigEEUlvE_E3ptr5resetEv
	.text
	.align	2
	.p2align 4,,11
	.type	_ZNSt17_Function_handlerIFSt10shared_ptrIN8opendnp311IMasterTaskEEvEZN8asiodnp318MasterSessionStack7AddScanEN7openpal12TimeDurationERKSt6vectorINS1_6HeaderESaISA_EERKNS1_10TaskConfigEEUlvE_E10_M_managerERSt9_Any_dataRKSK_St18_Manager_operation, %function
_ZNSt17_Function_handlerIFSt10shared_ptrIN8opendnp311IMasterTaskEEvEZN8asiodnp318MasterSessionStack7AddScanEN7openpal12TimeDurationERKSt6vectorINS1_6HeaderESaISA_EERKNS1_10TaskConfigEEUlvE_E10_M_managerERSt9_Any_dataRKSK_St18_Manager_operation:
.LFB9722:
	.cfi_startproc
	.cfi_personality 0x9b,DW.ref.__gxx_personality_v0
	.cfi_lsda 0x1b,.LLSDA9722
	stp	x29, x30, [sp, -64]!
	.cfi_def_cfa_offset 64
	.cfi_offset 29, -64
	.cfi_offset 30, -56
	mov	x29, sp
	stp	x19, x20, [sp, 16]
	.cfi_offset 19, -48
	.cfi_offset 20, -40
	mov	x20, x0
	cbz	w2, .L1069
	mov	w19, w2
	cmp	w2, 1
	beq	.L1070
	cmp	w2, 2
	beq	.L1073
	cmp	w2, 3
	bne	.L1072
	ldr	x19, [x0]
	cbz	x19, .L1072
	ldr	x3, [x19, 40]
	add	x1, x19, 24
	cbz	x3, .L1079
	mov	x0, x1
	blr	x3
.L1079:
	ldr	x0, [x19, 8]
	cbz	x0, .L1080
	bl	_ZNSt16_Sp_counted_baseILN9__gnu_cxx12_Lock_policyE2EE10_M_releaseEv
.L1080:
	mov	x0, x19
	mov	x1, 72
	bl	_ZdlPvm
.L1072:
	mov	w0, 0
	ldp	x19, x20, [sp, 16]
	ldp	x29, x30, [sp], 64
	.cfi_remember_state
	.cfi_restore 30
	.cfi_restore 29
	.cfi_restore 19
	.cfi_restore 20
	.cfi_def_cfa_offset 0
	ret
	.p2align 2,,3
.L1069:
	.cfi_restore_state
	adrp	x0, .LANCHOR0
	add	x0, x0, :lo12:.LANCHOR0
	add	x0, x0, 64
	str	x0, [x20]
	mov	w0, 0
	ldp	x19, x20, [sp, 16]
	ldp	x29, x30, [sp], 64
	.cfi_remember_state
	.cfi_restore 30
	.cfi_restore 29
	.cfi_restore 19
	.cfi_restore 20
	.cfi_def_cfa_offset 0
	ret
	.p2align 2,,3
.L1070:
	.cfi_restore_state
	ldr	x0, [x1]
	str	x0, [x20]
	mov	w0, 0
	ldp	x19, x20, [sp, 16]
	ldp	x29, x30, [sp], 64
	.cfi_remember_state
	.cfi_restore 30
	.cfi_restore 29
	.cfi_restore 19
	.cfi_restore 20
	.cfi_def_cfa_offset 0
	ret
	.p2align 2,,3
.L1073:
	.cfi_restore_state
	stp	x21, x22, [sp, 32]
	.cfi_offset 22, -24
	.cfi_offset 21, -32
	mov	x0, 72
	ldr	x22, [x1]
	str	x23, [sp, 48]
	.cfi_offset 23, -16
.LEHB53:
	bl	_Znwm
.LEHE53:
	mov	x21, x0
	mov	x1, x22
	add	x23, x0, 24
	ldr	x2, [x1], 8
	str	x2, [x0], 8
	bl	_ZNSt14__shared_countILN9__gnu_cxx12_Lock_policyE2EEC1ERKS2_
	ldr	x0, [x22, 16]
	stp	xzr, xzr, [x21, 24]
	add	x1, x22, 24
	ldr	x3, [x1, 16]
	str	x0, [x21, 16]
	stp	xzr, xzr, [x23, 16]
	cbz	x3, .L1075
	mov	w2, w19
	mov	x0, x23
.LEHB54:
	blr	x3
.LEHE54:
	ldr	q0, [x22, 40]
	str	q0, [x21, 40]
.L1075:
	ldp	x0, x1, [x22, 56]
	stp	x0, x1, [x21, 56]
	ldr	x23, [sp, 48]
	.cfi_remember_state
	.cfi_restore 23
	str	x21, [x20]
	ldp	x21, x22, [sp, 32]
	.cfi_restore 22
	.cfi_restore 21
	b	.L1072
.L1081:
	.cfi_restore_state
	ldr	x3, [x23, 16]
	mov	x19, x0
	cbz	x3, .L1077
	mov	x1, x23
	mov	x0, x23
	mov	w2, 3
	blr	x3
.L1077:
	ldr	x0, [x21, 8]
	cbz	x0, .L1078
	bl	_ZNSt16_Sp_counted_baseILN9__gnu_cxx12_Lock_policyE2EE10_M_releaseEv
.L1078:
	mov	x1, 72
	mov	x0, x21
	bl	_ZdlPvm
	mov	x0, x19
.LEHB55:
	bl	_Unwind_Resume
.LEHE55:
	.cfi_endproc
.LFE9722:
	.section	.gcc_except_table
.LLSDA9722:
	.byte	0xff
	.byte	0xff
	.byte	0x1
	.uleb128 .LLSDACSE9722-.LLSDACSB9722
.LLSDACSB9722:
	.uleb128 .LEHB53-.LFB9722
	.uleb128 .LEHE53-.LEHB53
	.uleb128 0
	.uleb128 0
	.uleb128 .LEHB54-.LFB9722
	.uleb128 .LEHE54-.LEHB54
	.uleb128 .L1081-.LFB9722
	.uleb128 0
	.uleb128 .LEHB55-.LFB9722
	.uleb128 .LEHE55-.LEHB55
	.uleb128 0
	.uleb128 0
.LLSDACSE9722:
	.text
	.size	_ZNSt17_Function_handlerIFSt10shared_ptrIN8opendnp311IMasterTaskEEvEZN8asiodnp318MasterSessionStack7AddScanEN7openpal12TimeDurationERKSt6vectorINS1_6HeaderESaISA_EERKNS1_10TaskConfigEEUlvE_E10_M_managerERSt9_Any_dataRKSK_St18_Manager_operation, .-_ZNSt17_Function_handlerIFSt10shared_ptrIN8opendnp311IMasterTaskEEvEZN8asiodnp318MasterSessionStack7AddScanEN7openpal12TimeDurationERKSt6vectorINS1_6HeaderESaISA_EERKNS1_10TaskConfigEEUlvE_E10_M_managerERSt9_Any_dataRKSK_St18_Manager_operation
	.align	2
	.p2align 4,,11
	.global	_ZN8asiodnp318MasterSessionStack4ScanERKSt6vectorIN8opendnp36HeaderESaIS3_EERKNS2_10TaskConfigE
	.type	_ZN8asiodnp318MasterSessionStack4ScanERKSt6vectorIN8opendnp36HeaderESaIS3_EERKNS2_10TaskConfigE, %function
_ZN8asiodnp318MasterSessionStack4ScanERKSt6vectorIN8opendnp36HeaderESaIS3_EERKNS2_10TaskConfigE:
.LFB8086:
	.cfi_startproc
	.cfi_personality 0x9b,DW.ref.__gxx_personality_v0
	.cfi_lsda 0x1b,.LLSDA8086
	stp	x29, x30, [sp, -240]!
	.cfi_def_cfa_offset 240
	.cfi_offset 29, -240
	.cfi_offset 30, -232
	adrp	x3, :got:__stack_chk_guard
	mov	x29, sp
	ldr	x3, [x3, #:got_lo12:__stack_chk_guard]
	stp	x19, x20, [sp, 16]
	.cfi_offset 19, -224
	.cfi_offset 20, -216
	mov	x20, x0
	stp	x21, x22, [sp, 32]
	mov	x0, x1
	.cfi_offset 21, -208
	.cfi_offset 22, -200
	add	x22, sp, 64
	str	x23, [sp, 48]
	.cfi_offset 23, -192
	mov	x8, x22
	mov	x23, x2
	ldr	x1, [x3]
	str	x1, [sp, 232]
	mov	x1, 0
.LEHB56:
	bl	_ZN8asiodnp315ConvertToLambdaERKSt6vectorIN8opendnp36HeaderESaIS2_EE
.LEHE56:
	ldr	x1, [x20, 24]
	str	x1, [sp, 104]
	cbz	x1, .L1103
	add	x19, x1, 8
	ldr	w21, [x19]
.L1105:
	cbz	w21, .L1103
	add	w1, w21, 1
	mov	w0, w21
	mov	x2, x19
	bl	__aarch64_cas4_acq_rel
	cmp	w0, w21
	mov	w21, w0
	bne	.L1105
	ldr	x3, [sp, 80]
	stp	xzr, xzr, [sp, 112]
	ldr	x0, [x20, 16]
	str	x0, [sp, 96]
	stp	xzr, xzr, [sp, 128]
	cbz	x3, .L1133
	add	x19, sp, 112
	mov	x1, x22
	mov	x0, x19
	mov	w2, 2
.LEHB57:
	blr	x3
.LEHE57:
	ldr	x0, [sp, 96]
	ldp	x3, x1, [sp, 80]
	stp	x3, x1, [sp, 128]
.L1133:
	ldr	x1, [sp, 104]
	stp	x0, x1, [sp, 160]
	ldp	x4, x5, [x23]
	stp	x4, x5, [sp, 144]
	ldr	x20, [x20, 32]
	cbz	x1, .L1107
	adrp	x0, :got:__libc_single_threaded
	ldr	x0, [x0, #:got_lo12:__libc_single_threaded]
	ldrb	w0, [x0]
	cbz	w0, .L1112
	ldr	w0, [x1, 8]
	ldr	x3, [sp, 128]
	add	w0, w0, 1
	str	w0, [x1, 8]
.L1107:
	stp	xzr, xzr, [sp, 176]
	stp	xzr, xzr, [sp, 192]
	cbz	x3, .L1113
	add	x19, sp, 176
	add	x1, sp, 112
	mov	x0, x19
	mov	w2, 2
.LEHB58:
	blr	x3
.LEHE58:
	ldr	q0, [sp, 128]
	str	q0, [sp, 192]
.L1113:
	adrp	x0, :got:_ZN4asio6detail10call_stackINS0_15task_io_serviceENS0_27task_io_service_thread_infoEE4top_E
	ldp	x2, x3, [sp, 144]
	add	x19, x20, 48
	ldr	x0, [x0, #:got_lo12:_ZN4asio6detail10call_stackINS0_15task_io_serviceENS0_27task_io_service_thread_infoEE4top_E]
	stp	x2, x3, [sp, 208]
	ldr	x20, [x20, 40]
	ldr	w0, [x0]
	bl	pthread_getspecific
	cbz	x0, .L1115
	ldr	x0, [x0, 8]
	cbz	x0, .L1115
	ldr	x2, [x0]
	cbz	x2, .L1115
	str	xzr, [x0]
	ldrb	w0, [x2]
	cmp	w0, 87
	bls	.L1120
	strb	w0, [x2, 88]
	b	.L1121
	.p2align 2,,3
.L1120:
	mov	x0, x2
	bl	_ZdlPv
.L1115:
	mov	x0, 89
.LEHB59:
	bl	_Znwm
.LEHE59:
	mov	x2, x0
	mov	w1, 88
	strb	w1, [x0, 88]
.L1121:
	adrp	x0, _ZN4asio6detail18completion_handlerIZN8asiodnp318MasterSessionStack4ScanERKSt6vectorIN8opendnp36HeaderESaIS6_EERKNS5_10TaskConfigEEUlvE_E11do_completeEPNS0_15task_io_serviceEPNS0_25task_io_service_operationERKSt10error_codem
	add	x0, x0, :lo12:_ZN4asio6detail18completion_handlerIZN8asiodnp318MasterSessionStack4ScanERKSt6vectorIN8opendnp36HeaderESaIS6_EERKNS5_10TaskConfigEEUlvE_E11do_completeEPNS0_15task_io_serviceEPNS0_25task_io_service_operationERKSt10error_codem
	stp	xzr, x0, [x2]
	ldr	q1, [sp, 160]
	stp	xzr, xzr, [x2, 40]
	movi	v0.4s, 0
	str	wzr, [x2, 16]
	str	q1, [x2, 24]
	ldp	x0, x3, [sp, 192]
	str	xzr, [x2, 56]
	str	x3, [x2, 64]
	str	q0, [sp, 160]
	cbz	x0, .L1122
	ldp	x4, x5, [sp, 176]
	stp	x4, x5, [x2, 40]
	str	x0, [x2, 56]
	str	q0, [sp, 192]
.L1122:
	mov	w3, 0
	ldp	x4, x5, [sp, 208]
	stp	x4, x5, [x2, 72]
	mov	x1, x19
	mov	x0, x20
	bl	_ZN4asio6detail14strand_service7do_postERPNS1_11strand_implEPNS0_25task_io_service_operationEb
	ldr	x3, [sp, 192]
	cbz	x3, .L1123
	add	x1, sp, 176
	mov	w2, 3
	mov	x0, x1
	blr	x3
.L1123:
	ldr	x0, [sp, 168]
	cbz	x0, .L1124
	bl	_ZNSt16_Sp_counted_baseILN9__gnu_cxx12_Lock_policyE2EE10_M_releaseEv
.L1124:
	ldr	x3, [sp, 128]
	cbz	x3, .L1126
	add	x1, sp, 112
	mov	w2, 3
	mov	x0, x1
	blr	x3
.L1126:
	ldr	x0, [sp, 104]
	cbz	x0, .L1128
	bl	_ZNSt16_Sp_counted_baseILN9__gnu_cxx12_Lock_policyE2EE10_M_releaseEv
.L1128:
	ldr	x3, [sp, 80]
	cbz	x3, .L1102
	mov	x1, x22
	mov	x0, x22
	mov	w2, 3
	blr	x3
.L1102:
	adrp	x0, :got:__stack_chk_guard
	ldr	x0, [x0, #:got_lo12:__stack_chk_guard]
	ldr	x2, [sp, 232]
	ldr	x1, [x0]
	subs	x2, x2, x1
	mov	x1, 0
	bne	.L1182
	ldp	x19, x20, [sp, 16]
	ldp	x21, x22, [sp, 32]
	ldr	x23, [sp, 48]
	ldp	x29, x30, [sp], 240
	.cfi_remember_state
	.cfi_restore 30
	.cfi_restore 29
	.cfi_restore 23
	.cfi_restore 21
	.cfi_restore 22
	.cfi_restore 19
	.cfi_restore 20
	.cfi_def_cfa_offset 0
	ret
	.p2align 2,,3
.L1112:
	.cfi_restore_state
	add	x1, x1, 8
	mov	w0, 1
	bl	__aarch64_ldadd4_acq_rel
	ldr	x3, [sp, 128]
	b	.L1107
.L1182:
	bl	__stack_chk_fail
.L1138:
	ldr	x3, [sp, 192]
	mov	x20, x0
	cbz	x3, .L1117
	mov	x1, x19
	mov	x0, x19
	mov	w2, 3
	blr	x3
.L1117:
	ldr	x0, [sp, 168]
	cbz	x0, .L1118
	bl	_ZNSt16_Sp_counted_baseILN9__gnu_cxx12_Lock_policyE2EE10_M_releaseEv
.L1118:
	mov	x19, x20
	b	.L1119
.L1137:
	mov	x19, x0
	add	x0, sp, 160
	bl	_ZZN8asiodnp318MasterSessionStack4ScanERKSt6vectorIN8opendnp36HeaderESaIS3_EERKNS2_10TaskConfigEENUlvE_D1Ev
.L1119:
	add	x0, sp, 96
	bl	_ZZN8asiodnp318MasterSessionStack4ScanERKSt6vectorIN8opendnp36HeaderESaIS3_EERKNS2_10TaskConfigEENUlvE_D1Ev
.L1130:
	ldr	x3, [sp, 80]
	cbz	x3, .L1131
	mov	x1, x22
	mov	x0, x22
	mov	w2, 3
	blr	x3
.L1131:
	mov	x0, x19
.LEHB60:
	bl	_Unwind_Resume
.LEHE60:
.L1136:
	ldr	x3, [sp, 128]
	mov	x20, x0
	cbz	x3, .L1109
	mov	x1, x19
	mov	x0, x19
	mov	w2, 3
	blr	x3
.L1109:
	ldr	x0, [sp, 104]
	cbz	x0, .L1111
	bl	_ZNSt16_Sp_counted_baseILN9__gnu_cxx12_Lock_policyE2EE10_M_releaseEv
.L1111:
	mov	x19, x20
	b	.L1130
.L1103:
	mov	x0, 8
	bl	__cxa_allocate_exception
	adrp	x3, :got:_ZTVSt12bad_weak_ptr
	adrp	x2, :got:_ZNSt12bad_weak_ptrD1Ev
	adrp	x1, :got:_ZTISt12bad_weak_ptr
	ldr	x3, [x3, #:got_lo12:_ZTVSt12bad_weak_ptr]
	ldr	x2, [x2, #:got_lo12:_ZNSt12bad_weak_ptrD1Ev]
	add	x3, x3, 16
	ldr	x1, [x1, #:got_lo12:_ZTISt12bad_weak_ptr]
	str	x3, [x0]
.LEHB61:
	bl	__cxa_throw
.LEHE61:
.L1135:
	mov	x19, x0
	b	.L1130
	.cfi_endproc
.LFE8086:
	.section	.gcc_except_table
.LLSDA8086:
	.byte	0xff
	.byte	0xff
	.byte	0x1
	.uleb128 .LLSDACSE8086-.LLSDACSB8086
.LLSDACSB8086:
	.uleb128 .LEHB56-.LFB8086
	.uleb128 .LEHE56-.LEHB56
	.uleb128 0
	.uleb128 0
	.uleb128 .LEHB57-.LFB8086
	.uleb128 .LEHE57-.LEHB57
	.uleb128 .L1136-.LFB8086
	.uleb128 0
	.uleb128 .LEHB58-.LFB8086
	.uleb128 .LEHE58-.LEHB58
	.uleb128 .L1138-.LFB8086
	.uleb128 0
	.uleb128 .LEHB59-.LFB8086
	.uleb128 .LEHE59-.LEHB59
	.uleb128 .L1137-.LFB8086
	.uleb128 0
	.uleb128 .LEHB60-.LFB8086
	.uleb128 .LEHE60-.LEHB60
	.uleb128 0
	.uleb128 0
	.uleb128 .LEHB61-.LFB8086
	.uleb128 .LEHE61-.LEHB61
	.uleb128 .L1135-.LFB8086
	.uleb128 0
.LLSDACSE8086:
	.text
	.size	_ZN8asiodnp318MasterSessionStack4ScanERKSt6vectorIN8opendnp36HeaderESaIS3_EERKNS2_10TaskConfigE, .-_ZN8asiodnp318MasterSessionStack4ScanERKSt6vectorIN8opendnp36HeaderESaIS3_EERKNS2_10TaskConfigE
	.align	2
	.p2align 4,,11
	.global	_ZN8asiodnp318MasterSessionStack7RestartEN8opendnp311RestartTypeERKSt8functionIFvRKNS1_22RestartOperationResultEEENS1_10TaskConfigE
	.type	_ZN8asiodnp318MasterSessionStack7RestartEN8opendnp311RestartTypeERKSt8functionIFvRKNS1_22RestartOperationResultEEENS1_10TaskConfigE, %function
_ZN8asiodnp318MasterSessionStack7RestartEN8opendnp311RestartTypeERKSt8functionIFvRKNS1_22RestartOperationResultEEENS1_10TaskConfigE:
.LFB8126:
	.cfi_startproc
	.cfi_personality 0x9b,DW.ref.__gxx_personality_v0
	.cfi_lsda 0x1b,.LLSDA8126
	stp	x29, x30, [sp, -288]!
	.cfi_def_cfa_offset 288
	.cfi_offset 29, -288
	.cfi_offset 30, -280
	adrp	x5, :got:__stack_chk_guard
	mov	x29, sp
	stp	x21, x22, [sp, 32]
	.cfi_offset 21, -256
	.cfi_offset 22, -248
	mov	x21, x0
	ldr	x0, [x5, #:got_lo12:__stack_chk_guard]
	stp	x19, x20, [sp, 16]
	stp	x23, x24, [sp, 48]
	ldr	x5, [x21, 24]
	str	x25, [sp, 64]
	.cfi_offset 19, -272
	.cfi_offset 20, -264
	.cfi_offset 23, -240
	.cfi_offset 24, -232
	.cfi_offset 25, -224
	ldr	x6, [x0]
	str	x6, [sp, 280]
	mov	x6, 0
	str	x5, [sp, 120]
	cbz	x5, .L1184
	mov	x20, x2
	mov	x23, x3
	mov	x24, x4
	and	w25, w1, 255
	add	x19, x5, 8
	ldr	w22, [x19]
.L1186:
	cbz	w22, .L1184
	add	w1, w22, 1
	mov	w0, w22
	mov	x2, x19
	bl	__aarch64_cas4_acq_rel
	cmp	w0, w22
	mov	w22, w0
	bne	.L1186
	ldr	x5, [x20, 16]
	strb	w25, [sp, 128]
	ldr	x0, [x21, 16]
	str	x0, [sp, 112]
	stp	xzr, xzr, [sp, 136]
	stp	xzr, xzr, [sp, 152]
	cbz	x5, .L1215
	add	x19, sp, 136
	mov	x1, x20
	mov	x0, x19
	mov	w2, 2
.LEHB62:
	blr	x5
.LEHE62:
	ldr	x0, [sp, 112]
	ldp	x5, x1, [x20, 16]
	stp	x5, x1, [sp, 152]
.L1215:
	ldr	x1, [sp, 120]
	stp	x23, x24, [sp, 168]
	stp	x0, x1, [sp, 192]
	ldr	x19, [x21, 32]
	cbz	x1, .L1188
	adrp	x0, :got:__libc_single_threaded
	ldr	x0, [x0, #:got_lo12:__libc_single_threaded]
	ldrb	w0, [x0]
	cbz	w0, .L1193
	ldr	w0, [x1, 8]
	ldr	x5, [sp, 152]
	add	w0, w0, 1
	str	w0, [x1, 8]
.L1188:
	ldrb	w0, [sp, 128]
	strb	w0, [sp, 208]
	stp	xzr, xzr, [sp, 216]
	stp	xzr, xzr, [sp, 232]
	cbz	x5, .L1194
	add	x20, sp, 216
	add	x1, sp, 136
	mov	x0, x20
	mov	w2, 2
.LEHB63:
	blr	x5
.LEHE63:
	ldr	q0, [sp, 152]
	str	q0, [sp, 232]
.L1194:
	adrp	x0, :got:_ZN4asio6detail10call_stackINS0_15task_io_serviceENS0_27task_io_service_thread_infoEE4top_E
	ldp	x2, x3, [sp, 168]
	add	x22, sp, 192
	ldr	x0, [x0, #:got_lo12:_ZN4asio6detail10call_stackINS0_15task_io_serviceENS0_27task_io_service_thread_infoEE4top_E]
	add	x23, x19, 48
	str	x22, [sp, 88]
	stp	xzr, xzr, [sp, 96]
	ldr	w0, [x0]
	stp	x2, x3, [sp, 248]
	ldr	x24, [x19, 40]
	bl	pthread_getspecific
	cbz	x0, .L1196
	ldr	x0, [x0, 8]
	cbz	x0, .L1196
	ldr	x19, [x0]
	cbz	x19, .L1196
	str	xzr, [x0]
	ldrb	w0, [x19]
	cmp	w0, 95
	bls	.L1201
	strb	w0, [x19, 96]
	b	.L1202
	.p2align 2,,3
.L1201:
	mov	x0, x19
	bl	_ZdlPv
.L1196:
	mov	x0, 97
.LEHB64:
	bl	_Znwm
.LEHE64:
	mov	x19, x0
	mov	w1, 96
	strb	w1, [x0, 96]
.L1202:
	adrp	x0, _ZN4asio6detail18completion_handlerIZN8asiodnp318MasterSessionStack7RestartEN8opendnp311RestartTypeERKSt8functionIFvRKNS4_22RestartOperationResultEEENS4_10TaskConfigEEUlvE_E11do_completeEPNS0_15task_io_serviceEPNS0_25task_io_service_operationERKSt10error_codem
	add	x0, x0, :lo12:_ZN4asio6detail18completion_handlerIZN8asiodnp318MasterSessionStack7RestartEN8opendnp311RestartTypeERKSt8functionIFvRKNS4_22RestartOperationResultEEENS4_10TaskConfigEEUlvE_E11do_completeEPNS0_15task_io_serviceEPNS0_25task_io_service_operationERKSt10error_codem
	stp	xzr, x0, [x19]
	mov	x20, x19
	ldrb	w0, [sp, 208]
	ldr	q0, [sp, 192]
	str	wzr, [x19, 16]
	add	x21, x19, 48
	str	x19, [sp, 96]
	stp	xzr, xzr, [sp, 192]
	str	q0, [x20, 24]!
	strb	w0, [x20, 16]
	ldr	x3, [sp, 232]
	stp	xzr, xzr, [x19, 48]
	stp	xzr, xzr, [x21, 16]
	cbz	x3, .L1203
	add	x1, sp, 216
	mov	x0, x21
	mov	w2, 2
.LEHB65:
	blr	x3
.LEHE65:
	ldr	q0, [sp, 232]
	str	q0, [x19, 64]
.L1203:
	mov	w3, 0
	ldp	x0, x1, [sp, 248]
	stp	x0, x1, [x20, 56]
	mov	x2, x19
	mov	x1, x23
	mov	x0, x24
	bl	_ZN4asio6detail14strand_service7do_postERPNS1_11strand_implEPNS0_25task_io_service_operationEb
	ldr	x3, [sp, 232]
	cbz	x3, .L1205
	add	x1, sp, 216
	mov	w2, 3
	mov	x0, x1
	blr	x3
.L1205:
	ldr	x0, [sp, 200]
	cbz	x0, .L1210
	bl	_ZNSt16_Sp_counted_baseILN9__gnu_cxx12_Lock_policyE2EE10_M_releaseEv
.L1210:
	ldr	x3, [sp, 152]
	cbz	x3, .L1212
	add	x1, sp, 136
	mov	w2, 3
	mov	x0, x1
	blr	x3
.L1212:
	ldr	x0, [sp, 120]
	cbz	x0, .L1183
	bl	_ZNSt16_Sp_counted_baseILN9__gnu_cxx12_Lock_policyE2EE10_M_releaseEv
.L1183:
	adrp	x0, :got:__stack_chk_guard
	ldr	x0, [x0, #:got_lo12:__stack_chk_guard]
	ldr	x2, [sp, 280]
	ldr	x1, [x0]
	subs	x2, x2, x1
	mov	x1, 0
	bne	.L1261
	ldp	x19, x20, [sp, 16]
	ldp	x21, x22, [sp, 32]
	ldp	x23, x24, [sp, 48]
	ldr	x25, [sp, 64]
	ldp	x29, x30, [sp], 288
	.cfi_remember_state
	.cfi_restore 30
	.cfi_restore 29
	.cfi_restore 25
	.cfi_restore 23
	.cfi_restore 24
	.cfi_restore 21
	.cfi_restore 22
	.cfi_restore 19
	.cfi_restore 20
	.cfi_def_cfa_offset 0
	ret
	.p2align 2,,3
.L1193:
	.cfi_restore_state
	add	x1, x1, 8
	mov	w0, 1
	bl	__aarch64_ldadd4_acq_rel
	ldr	x5, [sp, 152]
	b	.L1188
.L1261:
	bl	__stack_chk_fail
.L1184:
	mov	x0, 8
	bl	__cxa_allocate_exception
	adrp	x3, :got:_ZTVSt12bad_weak_ptr
	adrp	x2, :got:_ZNSt12bad_weak_ptrD1Ev
	adrp	x1, :got:_ZTISt12bad_weak_ptr
	ldr	x3, [x3, #:got_lo12:_ZTVSt12bad_weak_ptr]
	ldr	x2, [x2, #:got_lo12:_ZNSt12bad_weak_ptrD1Ev]
	add	x3, x3, 16
	ldr	x1, [x1, #:got_lo12:_ZTISt12bad_weak_ptr]
	str	x3, [x0]
.LEHB66:
	bl	__cxa_throw
.LEHE66:
.L1217:
	ldr	x3, [sp, 152]
	mov	x20, x0
	cbz	x3, .L1190
	mov	x1, x19
	mov	x0, x19
	mov	w2, 3
	blr	x3
.L1190:
	ldr	x0, [sp, 120]
	cbz	x0, .L1192
	bl	_ZNSt16_Sp_counted_baseILN9__gnu_cxx12_Lock_policyE2EE10_M_releaseEv
.L1192:
	mov	x0, x20
.LEHB67:
	bl	_Unwind_Resume
.LEHE67:
.L1219:
	ldr	x3, [sp, 232]
	mov	x19, x0
	cbz	x3, .L1198
	mov	x1, x20
	mov	x0, x20
	mov	w2, 3
	blr	x3
.L1198:
	ldr	x0, [sp, 200]
	cbz	x0, .L1200
	bl	_ZNSt16_Sp_counted_baseILN9__gnu_cxx12_Lock_policyE2EE10_M_releaseEv
.L1200:
	add	x0, sp, 112
	bl	_ZZN8asiodnp318MasterSessionStack7RestartEN8opendnp311RestartTypeERKSt8functionIFvRKNS1_22RestartOperationResultEEENS1_10TaskConfigEENUlvE_D1Ev
	mov	x0, x19
.LEHB68:
	bl	_Unwind_Resume
.LEHE68:
.L1220:
	ldr	x3, [x21, 16]
	mov	x20, x0
	cbz	x3, .L1207
	mov	x1, x21
	mov	x0, x21
	mov	w2, 3
	blr	x3
.L1207:
	ldr	x0, [x19, 32]
	cbz	x0, .L1208
	bl	_ZNSt16_Sp_counted_baseILN9__gnu_cxx12_Lock_policyE2EE10_M_releaseEv
.L1208:
	mov	x19, x20
	add	x0, sp, 88
	bl	_ZN4asio6detail18completion_handlerIZN8asiodnp318MasterSessionStack7RestartEN8opendnp311RestartTypeERKSt8functionIFvRKNS4_22RestartOperationResultEEENS4_10TaskConfigEEUlvE_E3ptr5resetEv
.L1209:
	mov	x0, x22
	bl	_ZZN8asiodnp318MasterSessionStack7RestartEN8opendnp311RestartTypeERKSt8functionIFvRKNS1_22RestartOperationResultEEENS1_10TaskConfigEENUlvE_D1Ev
	b	.L1200
.L1218:
	mov	x19, x0
	b	.L1209
	.cfi_endproc
.LFE8126:
	.section	.gcc_except_table
.LLSDA8126:
	.byte	0xff
	.byte	0xff
	.byte	0x1
	.uleb128 .LLSDACSE8126-.LLSDACSB8126
.LLSDACSB8126:
	.uleb128 .LEHB62-.LFB8126
	.uleb128 .LEHE62-.LEHB62
	.uleb128 .L1217-.LFB8126
	.uleb128 0
	.uleb128 .LEHB63-.LFB8126
	.uleb128 .LEHE63-.LEHB63
	.uleb128 .L1219-.LFB8126
	.uleb128 0
	.uleb128 .LEHB64-.LFB8126
	.uleb128 .LEHE64-.LEHB64
	.uleb128 .L1218-.LFB8126
	.uleb128 0
	.uleb128 .LEHB65-.LFB8126
	.uleb128 .LEHE65-.LEHB65
	.uleb128 .L1220-.LFB8126
	.uleb128 0
	.uleb128 .LEHB66-.LFB8126
	.uleb128 .LEHE66-.LEHB66
	.uleb128 0
	.uleb128 0
	.uleb128 .LEHB67-.LFB8126
	.uleb128 .LEHE67-.LEHB67
	.uleb128 0
	.uleb128 0
	.uleb128 .LEHB68-.LFB8126
	.uleb128 .LEHE68-.LEHB68
	.uleb128 0
	.uleb128 0
.LLSDACSE8126:
	.text
	.size	_ZN8asiodnp318MasterSessionStack7RestartEN8opendnp311RestartTypeERKSt8functionIFvRKNS1_22RestartOperationResultEEENS1_10TaskConfigE, .-_ZN8asiodnp318MasterSessionStack7RestartEN8opendnp311RestartTypeERKSt8functionIFvRKNS1_22RestartOperationResultEEENS1_10TaskConfigE
	.align	2
	.p2align 4,,11
	.type	_ZN4asio6detail18completion_handlerIZN8asiodnp318MasterSessionStack4ScanERKSt6vectorIN8opendnp36HeaderESaIS6_EERKNS5_10TaskConfigEEUlvE_E11do_completeEPNS0_15task_io_serviceEPNS0_25task_io_service_operationERKSt10error_codem, %function
_ZN4asio6detail18completion_handlerIZN8asiodnp318MasterSessionStack4ScanERKSt6vectorIN8opendnp36HeaderESaIS6_EERKNS5_10TaskConfigEEUlvE_E11do_completeEPNS0_15task_io_serviceEPNS0_25task_io_service_operationERKSt10error_codem:
.LFB10700:
	.cfi_startproc
	.cfi_personality 0x9b,DW.ref.__gxx_personality_v0
	.cfi_lsda 0x1b,.LLSDA10700
	stp	x29, x30, [sp, -128]!
	.cfi_def_cfa_offset 128
	.cfi_offset 29, -128
	.cfi_offset 30, -120
	adrp	x2, :got:__stack_chk_guard
	movi	v0.4s, 0
	mov	x29, sp
	ldr	x2, [x2, #:got_lo12:__stack_chk_guard]
	stp	x19, x20, [sp, 16]
	.cfi_offset 19, -112
	.cfi_offset 20, -104
	mov	x20, x0
	ldr	x0, [x2]
	str	x0, [sp, 120]
	mov	x0, 0
	mov	x19, x1
	ldr	q1, [x1, 24]
	stp	xzr, xzr, [sp, 64]
	ldp	x0, x1, [x1, 56]
	stp	xzr, x1, [sp, 80]
	str	q0, [x19, 24]
	str	q1, [sp, 48]
	cbz	x0, .L1263
	ldp	x2, x3, [x19, 40]
	stp	x2, x3, [sp, 64]
	ldp	x2, x3, [x19, 72]
	str	x0, [sp, 80]
	stp	x2, x3, [sp, 96]
	str	q0, [x19, 56]
.L1264:
	adrp	x0, :got:_ZN4asio6detail10call_stackINS0_15task_io_serviceENS0_27task_io_service_thread_infoEE4top_E
	ldr	x0, [x0, #:got_lo12:_ZN4asio6detail10call_stackINS0_15task_io_serviceENS0_27task_io_service_thread_infoEE4top_E]
	ldr	w0, [x0]
	bl	pthread_getspecific
	cbz	x0, .L1265
	ldr	x0, [x0, 8]
	cbz	x0, .L1265
	ldr	x1, [x0]
	cbz	x1, .L1287
.L1265:
	mov	x0, x19
	bl	_ZdlPv
.L1266:
	cbz	x20, .L1267
	add	x19, sp, 40
	mov	w0, 1
	mov	x1, x19
	str	wzr, [sp, 40]
	bl	__aarch64_swp4_sync
	ldp	x2, x3, [sp, 96]
	add	x1, sp, 64
	ldr	x0, [sp, 48]
	add	x0, x0, 96
.LEHB69:
	bl	_ZN8opendnp38MContext4ScanERKSt8functionIFbRNS_12HeaderWriterEEENS_10TaskConfigE
.LEHE69:
	stlr	wzr, [x19]
.L1267:
	ldr	x3, [sp, 80]
	cbz	x3, .L1268
	add	x1, sp, 64
	mov	w2, 3
	mov	x0, x1
	blr	x3
.L1268:
	ldr	x0, [sp, 56]
	cbz	x0, .L1262
	bl	_ZNSt16_Sp_counted_baseILN9__gnu_cxx12_Lock_policyE2EE10_M_releaseEv
.L1262:
	adrp	x0, :got:__stack_chk_guard
	ldr	x0, [x0, #:got_lo12:__stack_chk_guard]
	ldr	x2, [sp, 120]
	ldr	x1, [x0]
	subs	x2, x2, x1
	mov	x1, 0
	bne	.L1288
	ldp	x19, x20, [sp, 16]
	ldp	x29, x30, [sp], 128
	.cfi_remember_state
	.cfi_restore 30
	.cfi_restore 29
	.cfi_restore 19
	.cfi_restore 20
	.cfi_def_cfa_offset 0
	ret
	.p2align 2,,3
.L1287:
	.cfi_restore_state
	ldrb	w1, [x19, 88]
	strb	w1, [x19]
	str	x19, [x0]
	b	.L1266
.L1288:
	bl	__stack_chk_fail
.L1263:
	ldp	x0, x1, [x19, 72]
	stp	x0, x1, [sp, 96]
	b	.L1264
.L1273:
	mov	x20, x0
	stlr	wzr, [x19]
	add	x0, sp, 48
	bl	_ZZN8asiodnp318MasterSessionStack4ScanERKSt6vectorIN8opendnp36HeaderESaIS3_EERKNS2_10TaskConfigEENUlvE_D1Ev
	mov	x0, x20
.LEHB70:
	bl	_Unwind_Resume
.LEHE70:
	.cfi_endproc
.LFE10700:
	.section	.gcc_except_table
.LLSDA10700:
	.byte	0xff
	.byte	0xff
	.byte	0x1
	.uleb128 .LLSDACSE10700-.LLSDACSB10700
.LLSDACSB10700:
	.uleb128 .LEHB69-.LFB10700
	.uleb128 .LEHE69-.LEHB69
	.uleb128 .L1273-.LFB10700
	.uleb128 0
	.uleb128 .LEHB70-.LFB10700
	.uleb128 .LEHE70-.LEHB70
	.uleb128 0
	.uleb128 0
.LLSDACSE10700:
	.text
	.size	_ZN4asio6detail18completion_handlerIZN8asiodnp318MasterSessionStack4ScanERKSt6vectorIN8opendnp36HeaderESaIS6_EERKNS5_10TaskConfigEEUlvE_E11do_completeEPNS0_15task_io_serviceEPNS0_25task_io_service_operationERKSt10error_codem, .-_ZN4asio6detail18completion_handlerIZN8asiodnp318MasterSessionStack4ScanERKSt6vectorIN8opendnp36HeaderESaIS6_EERKNS5_10TaskConfigEEUlvE_E11do_completeEPNS0_15task_io_serviceEPNS0_25task_io_service_operationERKSt10error_codem
	.align	2
	.p2align 4,,11
	.type	_ZN4asio6detail18completion_handlerIZN8asiodnp318MasterSessionStack7RestartEN8opendnp311RestartTypeERKSt8functionIFvRKNS4_22RestartOperationResultEEENS4_10TaskConfigEEUlvE_E11do_completeEPNS0_15task_io_serviceEPNS0_25task_io_service_operationERKSt10error_codem, %function
_ZN4asio6detail18completion_handlerIZN8asiodnp318MasterSessionStack7RestartEN8opendnp311RestartTypeERKSt8functionIFvRKNS4_22RestartOperationResultEEENS4_10TaskConfigEEUlvE_E11do_completeEPNS0_15task_io_serviceEPNS0_25task_io_service_operationERKSt10error_codem:
.LFB10725:
	.cfi_startproc
	.cfi_personality 0x9b,DW.ref.__gxx_personality_v0
	.cfi_lsda 0x1b,.LLSDA10725
	stp	x29, x30, [sp, -176]!
	.cfi_def_cfa_offset 176
	.cfi_offset 29, -176
	.cfi_offset 30, -168
	adrp	x2, :got:__stack_chk_guard
	mov	x29, sp
	ldr	x2, [x2, #:got_lo12:__stack_chk_guard]
	stp	x19, x20, [sp, 16]
	.cfi_offset 19, -160
	.cfi_offset 20, -152
	mov	x19, x1
	stp	x21, x22, [sp, 32]
	.cfi_offset 21, -144
	.cfi_offset 22, -136
	add	x21, x1, 48
	add	x22, x1, 24
	str	x23, [sp, 48]
	.cfi_offset 23, -128
	mov	x20, x0
	ldr	q0, [x1, 24]
	ldr	x1, [x2]
	str	x1, [sp, 168]
	mov	x1, 0
	stp	xzr, xzr, [x19, 24]
	ldr	x3, [x21, 16]
	stp	x22, x19, [sp, 72]
	ldrb	w0, [x22, 16]
	str	x19, [sp, 88]
	strb	w0, [sp, 112]
	stp	xzr, xzr, [sp, 120]
	stp	xzr, xzr, [sp, 136]
	str	q0, [sp, 96]
	cbz	x3, .L1290
	add	x23, sp, 120
	mov	x1, x21
	mov	x0, x23
	mov	w2, 2
.LEHB71:
	blr	x3
.LEHE71:
	ldp	x3, x2, [x21, 16]
	add	x23, sp, 96
	ldp	x0, x1, [x22, 56]
	str	x23, [sp, 72]
	stp	x3, x2, [sp, 136]
	stp	x0, x1, [sp, 152]
	cbz	x3, .L1292
	mov	x1, x21
	mov	x0, x21
	mov	w2, 3
	blr	x3
.L1292:
	ldr	x0, [x19, 32]
	cbz	x0, .L1297
	bl	_ZNSt16_Sp_counted_baseILN9__gnu_cxx12_Lock_policyE2EE10_M_releaseEv
.L1297:
	adrp	x21, :got:_ZN4asio6detail10call_stackINS0_15task_io_serviceENS0_27task_io_service_thread_infoEE4top_E
	str	xzr, [sp, 88]
	ldr	x0, [x21, #:got_lo12:_ZN4asio6detail10call_stackINS0_15task_io_serviceENS0_27task_io_service_thread_infoEE4top_E]
	ldr	w0, [x0]
	bl	pthread_getspecific
	cbz	x0, .L1298
	ldr	x0, [x0, 8]
	cbz	x0, .L1298
	ldr	x1, [x0]
	cbz	x1, .L1355
.L1298:
	mov	x0, x19
	bl	_ZdlPv
.L1299:
	str	xzr, [sp, 80]
	cbz	x20, .L1311
	add	x19, sp, 64
	mov	w0, 1
	mov	x1, x19
	str	wzr, [sp, 64]
	bl	__aarch64_swp4_sync
	ldp	x4, x5, [sp, 152]
	add	x2, sp, 120
	ldrb	w1, [sp, 112]
	ldr	x0, [sp, 96]
	mov	x3, x4
	add	x0, x0, 96
	mov	x4, x5
.LEHB72:
	bl	_ZN8opendnp38MContext7RestartENS_11RestartTypeERKSt8functionIFvRKNS_22RestartOperationResultEEENS_10TaskConfigE
.LEHE72:
	stlr	wzr, [x19]
	ldp	x19, x20, [sp, 80]
.L1300:
	ldr	x3, [sp, 136]
	cbz	x3, .L1301
	add	x1, sp, 120
	mov	w2, 3
	mov	x0, x1
	blr	x3
.L1301:
	ldr	x0, [sp, 104]
	cbz	x0, .L1302
	bl	_ZNSt16_Sp_counted_baseILN9__gnu_cxx12_Lock_policyE2EE10_M_releaseEv
.L1302:
	cbz	x20, .L1303
	ldr	x3, [x20, 64]
	add	x1, x20, 48
	cbz	x3, .L1304
	mov	x0, x1
	mov	w2, 3
	blr	x3
.L1304:
	ldr	x0, [x20, 32]
	cbz	x0, .L1305
	bl	_ZNSt16_Sp_counted_baseILN9__gnu_cxx12_Lock_policyE2EE10_M_releaseEv
.L1305:
	str	xzr, [sp, 88]
.L1303:
	cbz	x19, .L1289
	ldr	x21, [x21, #:got_lo12:_ZN4asio6detail10call_stackINS0_15task_io_serviceENS0_27task_io_service_thread_infoEE4top_E]
	ldr	w0, [x21]
	bl	pthread_getspecific
	cbz	x0, .L1307
	ldr	x0, [x0, 8]
	cbz	x0, .L1307
	ldr	x1, [x0]
	cbz	x1, .L1356
.L1307:
	adrp	x0, :got:__stack_chk_guard
	ldr	x0, [x0, #:got_lo12:__stack_chk_guard]
	ldr	x2, [sp, 168]
	ldr	x1, [x0]
	subs	x2, x2, x1
	mov	x1, 0
	bne	.L1354
	mov	x0, x19
	ldp	x19, x20, [sp, 16]
	ldp	x21, x22, [sp, 32]
	ldr	x23, [sp, 48]
	ldp	x29, x30, [sp], 176
	.cfi_remember_state
	.cfi_restore 30
	.cfi_restore 29
	.cfi_restore 23
	.cfi_restore 21
	.cfi_restore 22
	.cfi_restore 19
	.cfi_restore 20
	.cfi_def_cfa_offset 0
	b	_ZdlPv
	.p2align 2,,3
.L1356:
	.cfi_restore_state
	ldrb	w1, [x19, 96]
	strb	w1, [x19]
	str	x19, [x0]
	.p2align 3,,7
.L1289:
	adrp	x0, :got:__stack_chk_guard
	ldr	x0, [x0, #:got_lo12:__stack_chk_guard]
	ldr	x2, [sp, 168]
	ldr	x1, [x0]
	subs	x2, x2, x1
	mov	x1, 0
	bne	.L1354
	ldp	x19, x20, [sp, 16]
	ldp	x21, x22, [sp, 32]
	ldr	x23, [sp, 48]
	ldp	x29, x30, [sp], 176
	.cfi_remember_state
	.cfi_restore 30
	.cfi_restore 29
	.cfi_restore 23
	.cfi_restore 21
	.cfi_restore 22
	.cfi_restore 19
	.cfi_restore 20
	.cfi_def_cfa_offset 0
	ret
	.p2align 2,,3
.L1311:
	.cfi_restore_state
	mov	x19, 0
	b	.L1300
	.p2align 2,,3
.L1290:
	ldp	x0, x1, [x22, 56]
	add	x23, sp, 96
	str	x23, [sp, 72]
	stp	x0, x1, [sp, 152]
	b	.L1292
	.p2align 2,,3
.L1355:
	ldrb	w1, [x19, 96]
	strb	w1, [x19]
	str	x19, [x0]
	b	.L1299
.L1354:
	bl	__stack_chk_fail
.L1312:
	stlr	wzr, [x19]
	mov	x19, x0
	mov	x0, x23
	bl	_ZZN8asiodnp318MasterSessionStack7RestartEN8opendnp311RestartTypeERKSt8functionIFvRKNS1_22RestartOperationResultEEENS1_10TaskConfigEENUlvE_D1Ev
.L1296:
	add	x0, sp, 72
	bl	_ZN4asio6detail18completion_handlerIZN8asiodnp318MasterSessionStack7RestartEN8opendnp311RestartTypeERKSt8functionIFvRKNS4_22RestartOperationResultEEENS4_10TaskConfigEEUlvE_E3ptr5resetEv
	mov	x0, x19
.LEHB73:
	bl	_Unwind_Resume
.LEHE73:
.L1313:
	ldr	x3, [sp, 136]
	mov	x19, x0
	cbz	x3, .L1294
	mov	x1, x23
	mov	x0, x23
	mov	w2, 3
	blr	x3
.L1294:
	ldr	x0, [sp, 104]
	cbz	x0, .L1296
	bl	_ZNSt16_Sp_counted_baseILN9__gnu_cxx12_Lock_policyE2EE10_M_releaseEv
	b	.L1296
	.cfi_endproc
.LFE10725:
	.section	.gcc_except_table
.LLSDA10725:
	.byte	0xff
	.byte	0xff
	.byte	0x1
	.uleb128 .LLSDACSE10725-.LLSDACSB10725
.LLSDACSB10725:
	.uleb128 .LEHB71-.LFB10725
	.uleb128 .LEHE71-.LEHB71
	.uleb128 .L1313-.LFB10725
	.uleb128 0
	.uleb128 .LEHB72-.LFB10725
	.uleb128 .LEHE72-.LEHB72
	.uleb128 .L1312-.LFB10725
	.uleb128 0
	.uleb128 .LEHB73-.LFB10725
	.uleb128 .LEHE73-.LEHB73
	.uleb128 0
	.uleb128 0
.LLSDACSE10725:
	.text
	.size	_ZN4asio6detail18completion_handlerIZN8asiodnp318MasterSessionStack7RestartEN8opendnp311RestartTypeERKSt8functionIFvRKNS4_22RestartOperationResultEEENS4_10TaskConfigEEUlvE_E11do_completeEPNS0_15task_io_serviceEPNS0_25task_io_service_operationERKSt10error_codem, .-_ZN4asio6detail18completion_handlerIZN8asiodnp318MasterSessionStack7RestartEN8opendnp311RestartTypeERKSt8functionIFvRKNS4_22RestartOperationResultEEENS4_10TaskConfigEEUlvE_E11do_completeEPNS0_15task_io_serviceEPNS0_25task_io_service_operationERKSt10error_codem
	.section	.text.unlikely
	.align	2
	.type	_ZN4asio6detail18completion_handlerIZN8asiodnp318MasterSessionStack16SelectAndOperateEON8opendnp310CommandSetERKSt8functionIFvRKNS4_18ICommandTaskResultEEERKNS4_10TaskConfigEEUlvE_E3ptr5resetEv, %function
_ZN4asio6detail18completion_handlerIZN8asiodnp318MasterSessionStack16SelectAndOperateEON8opendnp310CommandSetERKSt8functionIFvRKNS4_18ICommandTaskResultEEERKNS4_10TaskConfigEEUlvE_E3ptr5resetEv:
.LFB10734:
	.cfi_startproc
	.cfi_personality 0x9b,DW.ref.__gxx_personality_v0
	.cfi_lsda 0x1b,.LLSDA10734
	stp	x29, x30, [sp, -32]!
	.cfi_def_cfa_offset 32
	.cfi_offset 29, -32
	.cfi_offset 30, -24
	mov	x29, sp
	stp	x19, x20, [sp, 16]
	.cfi_offset 19, -16
	.cfi_offset 20, -8
	mov	x19, x0
	ldr	x20, [x0, 16]
	cbz	x20, .L1358
	ldr	x3, [x20, 88]
	add	x1, x20, 72
	cbz	x3, .L1359
	mov	x0, x1
	mov	w2, 3
	blr	x3
.L1359:
	ldr	x0, [x20, 48]
	cbz	x0, .L1360
	bl	_ZNSt16_Sp_counted_baseILN9__gnu_cxx12_Lock_policyE2EE10_M_releaseEv
.L1360:
	ldr	x0, [x20, 32]
	cbz	x0, .L1361
	bl	_ZNSt16_Sp_counted_baseILN9__gnu_cxx12_Lock_policyE2EE10_M_releaseEv
.L1361:
	str	xzr, [x19, 16]
.L1358:
	ldr	x20, [x19, 8]
	cbz	x20, .L1357
	adrp	x0, :got:_ZN4asio6detail10call_stackINS0_15task_io_serviceENS0_27task_io_service_thread_infoEE4top_E
	ldr	x0, [x0, #:got_lo12:_ZN4asio6detail10call_stackINS0_15task_io_serviceENS0_27task_io_service_thread_infoEE4top_E]
	ldr	w0, [x0]
	bl	pthread_getspecific
	cbz	x0, .L1363
	ldr	x0, [x0, 8]
	cbz	x0, .L1363
	ldr	x1, [x0]
	cbnz	x1, .L1363
	ldrb	w1, [x20, 104]
	strb	w1, [x20]
	str	x20, [x0]
	b	.L1364
.L1363:
	mov	x0, x20
	bl	_ZdlPv
.L1364:
	str	xzr, [x19, 8]
.L1357:
	ldp	x19, x20, [sp, 16]
	ldp	x29, x30, [sp], 32
	.cfi_restore 30
	.cfi_restore 29
	.cfi_restore 19
	.cfi_restore 20
	.cfi_def_cfa_offset 0
	ret
	.cfi_endproc
.LFE10734:
	.section	.gcc_except_table
.LLSDA10734:
	.byte	0xff
	.byte	0xff
	.byte	0x1
	.uleb128 .LLSDACSE10734-.LLSDACSB10734
.LLSDACSB10734:
.LLSDACSE10734:
	.section	.text.unlikely
	.size	_ZN4asio6detail18completion_handlerIZN8asiodnp318MasterSessionStack16SelectAndOperateEON8opendnp310CommandSetERKSt8functionIFvRKNS4_18ICommandTaskResultEEERKNS4_10TaskConfigEEUlvE_E3ptr5resetEv, .-_ZN4asio6detail18completion_handlerIZN8asiodnp318MasterSessionStack16SelectAndOperateEON8opendnp310CommandSetERKSt8functionIFvRKNS4_18ICommandTaskResultEEERKNS4_10TaskConfigEEUlvE_E3ptr5resetEv
	.align	2
	.type	_ZN4asio6detail18completion_handlerIZN8asiodnp318MasterSessionStack13DirectOperateEON8opendnp310CommandSetERKSt8functionIFvRKNS4_18ICommandTaskResultEEERKNS4_10TaskConfigEEUlvE_E3ptr5resetEv, %function
_ZN4asio6detail18completion_handlerIZN8asiodnp318MasterSessionStack13DirectOperateEON8opendnp310CommandSetERKSt8functionIFvRKNS4_18ICommandTaskResultEEERKNS4_10TaskConfigEEUlvE_E3ptr5resetEv:
.LFB10739:
	.cfi_startproc
	.cfi_personality 0x9b,DW.ref.__gxx_personality_v0
	.cfi_lsda 0x1b,.LLSDA10739
	stp	x29, x30, [sp, -32]!
	.cfi_def_cfa_offset 32
	.cfi_offset 29, -32
	.cfi_offset 30, -24
	mov	x29, sp
	stp	x19, x20, [sp, 16]
	.cfi_offset 19, -16
	.cfi_offset 20, -8
	mov	x19, x0
	ldr	x20, [x0, 16]
	cbz	x20, .L1388
	ldr	x3, [x20, 88]
	add	x1, x20, 72
	cbz	x3, .L1389
	mov	x0, x1
	mov	w2, 3
	blr	x3
.L1389:
	ldr	x0, [x20, 48]
	cbz	x0, .L1390
	bl	_ZNSt16_Sp_counted_baseILN9__gnu_cxx12_Lock_policyE2EE10_M_releaseEv
.L1390:
	ldr	x0, [x20, 32]
	cbz	x0, .L1391
	bl	_ZNSt16_Sp_counted_baseILN9__gnu_cxx12_Lock_policyE2EE10_M_releaseEv
.L1391:
	str	xzr, [x19, 16]
.L1388:
	ldr	x20, [x19, 8]
	cbz	x20, .L1387
	adrp	x0, :got:_ZN4asio6detail10call_stackINS0_15task_io_serviceENS0_27task_io_service_thread_infoEE4top_E
	ldr	x0, [x0, #:got_lo12:_ZN4asio6detail10call_stackINS0_15task_io_serviceENS0_27task_io_service_thread_infoEE4top_E]
	ldr	w0, [x0]
	bl	pthread_getspecific
	cbz	x0, .L1393
	ldr	x0, [x0, 8]
	cbz	x0, .L1393
	ldr	x1, [x0]
	cbnz	x1, .L1393
	ldrb	w1, [x20, 104]
	strb	w1, [x20]
	str	x20, [x0]
	b	.L1394
.L1393:
	mov	x0, x20
	bl	_ZdlPv
.L1394:
	str	xzr, [x19, 8]
.L1387:
	ldp	x19, x20, [sp, 16]
	ldp	x29, x30, [sp], 32
	.cfi_restore 30
	.cfi_restore 29
	.cfi_restore 19
	.cfi_restore 20
	.cfi_def_cfa_offset 0
	ret
	.cfi_endproc
.LFE10739:
	.section	.gcc_except_table
.LLSDA10739:
	.byte	0xff
	.byte	0xff
	.byte	0x1
	.uleb128 .LLSDACSE10739-.LLSDACSB10739
.LLSDACSB10739:
.LLSDACSE10739:
	.section	.text.unlikely
	.size	_ZN4asio6detail18completion_handlerIZN8asiodnp318MasterSessionStack13DirectOperateEON8opendnp310CommandSetERKSt8functionIFvRKNS4_18ICommandTaskResultEEERKNS4_10TaskConfigEEUlvE_E3ptr5resetEv, .-_ZN4asio6detail18completion_handlerIZN8asiodnp318MasterSessionStack13DirectOperateEON8opendnp310CommandSetERKSt8functionIFvRKNS4_18ICommandTaskResultEEERKNS4_10TaskConfigEEUlvE_E3ptr5resetEv
	.align	2
	.type	_ZN4asio6detail18completion_handlerIZN8asiodnp318MasterSessionStack15PerformFunctionERKNSt7__cxx1112basic_stringIcSt11char_traitsIcESaIcEEEN8opendnp312FunctionCodeERKSt6vectorINSC_6HeaderESaISF_EERKNSC_10TaskConfigEEUlvE_E3ptr5resetEv, %function
_ZN4asio6detail18completion_handlerIZN8asiodnp318MasterSessionStack15PerformFunctionERKNSt7__cxx1112basic_stringIcSt11char_traitsIcESaIcEEEN8opendnp312FunctionCodeERKSt6vectorINSC_6HeaderESaISF_EERKNSC_10TaskConfigEEUlvE_E3ptr5resetEv:
.LFB10726:
	.cfi_startproc
	.cfi_personality 0x9b,DW.ref.__gxx_personality_v0
	.cfi_lsda 0x1b,.LLSDA10726
	stp	x29, x30, [sp, -32]!
	.cfi_def_cfa_offset 32
	.cfi_offset 29, -32
	.cfi_offset 30, -24
	mov	x29, sp
	stp	x19, x20, [sp, 16]
	.cfi_offset 19, -16
	.cfi_offset 20, -8
	mov	x19, x0
	ldr	x20, [x0, 16]
	cbz	x20, .L1418
	ldr	x3, [x20, 96]
	add	x1, x20, 80
	cbz	x3, .L1419
	mov	x0, x1
	mov	w2, 3
	blr	x3
.L1419:
	ldr	x0, [x20, 40]
	add	x1, x20, 56
	cmp	x0, x1
	beq	.L1420
	ldr	x1, [x20, 56]
	add	x1, x1, 1
	bl	_ZdlPvm
.L1420:
	ldr	x0, [x20, 32]
	cbz	x0, .L1421
	bl	_ZNSt16_Sp_counted_baseILN9__gnu_cxx12_Lock_policyE2EE10_M_releaseEv
.L1421:
	str	xzr, [x19, 16]
.L1418:
	ldr	x20, [x19, 8]
	cbz	x20, .L1417
	adrp	x0, :got:_ZN4asio6detail10call_stackINS0_15task_io_serviceENS0_27task_io_service_thread_infoEE4top_E
	ldr	x0, [x0, #:got_lo12:_ZN4asio6detail10call_stackINS0_15task_io_serviceENS0_27task_io_service_thread_infoEE4top_E]
	ldr	w0, [x0]
	bl	pthread_getspecific
	cbz	x0, .L1423
	ldr	x0, [x0, 8]
	cbz	x0, .L1423
	ldr	x1, [x0]
	cbnz	x1, .L1423
	ldrb	w1, [x20, 128]
	strb	w1, [x20]
	str	x20, [x0]
	b	.L1424
.L1423:
	mov	x0, x20
	bl	_ZdlPv
.L1424:
	str	xzr, [x19, 8]
.L1417:
	ldp	x19, x20, [sp, 16]
	ldp	x29, x30, [sp], 32
	.cfi_restore 30
	.cfi_restore 29
	.cfi_restore 19
	.cfi_restore 20
	.cfi_def_cfa_offset 0
	ret
	.cfi_endproc
.LFE10726:
	.section	.gcc_except_table
.LLSDA10726:
	.byte	0xff
	.byte	0xff
	.byte	0x1
	.uleb128 .LLSDACSE10726-.LLSDACSB10726
.LLSDACSB10726:
.LLSDACSE10726:
	.section	.text.unlikely
	.size	_ZN4asio6detail18completion_handlerIZN8asiodnp318MasterSessionStack15PerformFunctionERKNSt7__cxx1112basic_stringIcSt11char_traitsIcESaIcEEEN8opendnp312FunctionCodeERKSt6vectorINSC_6HeaderESaISF_EERKNSC_10TaskConfigEEUlvE_E3ptr5resetEv, .-_ZN4asio6detail18completion_handlerIZN8asiodnp318MasterSessionStack15PerformFunctionERKNSt7__cxx1112basic_stringIcSt11char_traitsIcESaIcEEEN8opendnp312FunctionCodeERKSt6vectorINSC_6HeaderESaISF_EERKNSC_10TaskConfigEEUlvE_E3ptr5resetEv
	.text
	.align	2
	.p2align 4,,11
	.global	_ZN8asiodnp318MasterSessionStack13DirectOperateEON8opendnp310CommandSetERKSt8functionIFvRKNS1_18ICommandTaskResultEEERKNS1_10TaskConfigE
	.type	_ZN8asiodnp318MasterSessionStack13DirectOperateEON8opendnp310CommandSetERKSt8functionIFvRKNS1_18ICommandTaskResultEEERKNS1_10TaskConfigE, %function
