	.arch armv8-a
	.file	"MasterTCPServer.cpp"
	.text
	.section	.rodata._ZNK4asio6detail15system_category4nameEv.str1.8,"aMS",@progbits,1
	.align	3
.LC0:
	.string	"asio.system"
	.section	.text._ZNK4asio6detail15system_category4nameEv,"axG",@progbits,_ZNK4asio6detail15system_category4nameEv,comdat
	.align	2
	.p2align 4,,11
	.weak	_ZNK4asio6detail15system_category4nameEv
	.type	_ZNK4asio6detail15system_category4nameEv, %function
_ZNK4asio6detail15system_category4nameEv:
.LFB2338:
	.cfi_startproc
	adrp	x0, .LC0
	add	x0, x0, :lo12:.LC0
	ret
	.cfi_endproc
.LFE2338:
	.size	_ZNK4asio6detail15system_category4nameEv, .-_ZNK4asio6detail15system_category4nameEv
	.section	.rodata._ZNK4asio5error6detail14netdb_category4nameEv.str1.8,"aMS",@progbits,1
	.align	3
.LC1:
	.string	"asio.netdb"
	.section	.text._ZNK4asio5error6detail14netdb_category4nameEv,"axG",@progbits,_ZNK4asio5error6detail14netdb_category4nameEv,comdat
	.align	2
	.p2align 4,,11
	.weak	_ZNK4asio5error6detail14netdb_category4nameEv
	.type	_ZNK4asio5error6detail14netdb_category4nameEv, %function
_ZNK4asio5error6detail14netdb_category4nameEv:
.LFB2359:
	.cfi_startproc
	adrp	x0, .LC1
	add	x0, x0, :lo12:.LC1
	ret
	.cfi_endproc
.LFE2359:
	.size	_ZNK4asio5error6detail14netdb_category4nameEv, .-_ZNK4asio5error6detail14netdb_category4nameEv
	.section	.rodata._ZNK4asio5error6detail17addrinfo_category4nameEv.str1.8,"aMS",@progbits,1
	.align	3
.LC2:
	.string	"asio.addrinfo"
	.section	.text._ZNK4asio5error6detail17addrinfo_category4nameEv,"axG",@progbits,_ZNK4asio5error6detail17addrinfo_category4nameEv,comdat
	.align	2
	.p2align 4,,11
	.weak	_ZNK4asio5error6detail17addrinfo_category4nameEv
	.type	_ZNK4asio5error6detail17addrinfo_category4nameEv, %function
_ZNK4asio5error6detail17addrinfo_category4nameEv:
.LFB2365:
	.cfi_startproc
	adrp	x0, .LC2
	add	x0, x0, :lo12:.LC2
	ret
	.cfi_endproc
.LFE2365:
	.size	_ZNK4asio5error6detail17addrinfo_category4nameEv, .-_ZNK4asio5error6detail17addrinfo_category4nameEv
	.section	.rodata._ZNK4asio5error6detail13misc_category4nameEv.str1.8,"aMS",@progbits,1
	.align	3
.LC3:
	.string	"asio.misc"
	.section	.text._ZNK4asio5error6detail13misc_category4nameEv,"axG",@progbits,_ZNK4asio5error6detail13misc_category4nameEv,comdat
	.align	2
	.p2align 4,,11
	.weak	_ZNK4asio5error6detail13misc_category4nameEv
	.type	_ZNK4asio5error6detail13misc_category4nameEv, %function
_ZNK4asio5error6detail13misc_category4nameEv:
.LFB2371:
	.cfi_startproc
	adrp	x0, .LC3
	add	x0, x0, :lo12:.LC3
	ret
	.cfi_endproc
.LFE2371:
	.size	_ZNK4asio5error6detail13misc_category4nameEv, .-_ZNK4asio5error6detail13misc_category4nameEv
	.section	.text._ZNKSt5ctypeIcE8do_widenEc,"axG",@progbits,_ZNKSt5ctypeIcE8do_widenEc,comdat
	.align	2
	.p2align 4,,11
	.weak	_ZNKSt5ctypeIcE8do_widenEc
	.type	_ZNKSt5ctypeIcE8do_widenEc, %function
_ZNKSt5ctypeIcE8do_widenEc:
.LFB4673:
	.cfi_startproc
	mov	w0, w1
	ret
	.cfi_endproc
.LFE4673:
	.size	_ZNKSt5ctypeIcE8do_widenEc, .-_ZNKSt5ctypeIcE8do_widenEc
	.section	.text._ZN4asio6detail10service_idINS0_13epoll_reactorEED2Ev,"axG",@progbits,_ZN4asio6detail10service_idINS0_13epoll_reactorEED5Ev,comdat
	.align	2
	.p2align 4,,11
	.weak	_ZN4asio6detail10service_idINS0_13epoll_reactorEED2Ev
	.type	_ZN4asio6detail10service_idINS0_13epoll_reactorEED2Ev, %function
_ZN4asio6detail10service_idINS0_13epoll_reactorEED2Ev:
.LFB11215:
	.cfi_startproc
	ret
	.cfi_endproc
.LFE11215:
	.size	_ZN4asio6detail10service_idINS0_13epoll_reactorEED2Ev, .-_ZN4asio6detail10service_idINS0_13epoll_reactorEED2Ev
	.weak	_ZN4asio6detail10service_idINS0_13epoll_reactorEED1Ev
	.set	_ZN4asio6detail10service_idINS0_13epoll_reactorEED1Ev,_ZN4asio6detail10service_idINS0_13epoll_reactorEED2Ev
	.section	.text._ZN4asio6detail10service_idINS0_15task_io_serviceEED2Ev,"axG",@progbits,_ZN4asio6detail10service_idINS0_15task_io_serviceEED5Ev,comdat
	.align	2
	.p2align 4,,11
	.weak	_ZN4asio6detail10service_idINS0_15task_io_serviceEED2Ev
	.type	_ZN4asio6detail10service_idINS0_15task_io_serviceEED2Ev, %function
_ZN4asio6detail10service_idINS0_15task_io_serviceEED2Ev:
.LFB11218:
	.cfi_startproc
	ret
	.cfi_endproc
.LFE11218:
	.size	_ZN4asio6detail10service_idINS0_15task_io_serviceEED2Ev, .-_ZN4asio6detail10service_idINS0_15task_io_serviceEED2Ev
	.weak	_ZN4asio6detail10service_idINS0_15task_io_serviceEED1Ev
	.set	_ZN4asio6detail10service_idINS0_15task_io_serviceEED1Ev,_ZN4asio6detail10service_idINS0_15task_io_serviceEED2Ev
	.section	.text._ZN4asio6detail10service_idINS0_14strand_serviceEED2Ev,"axG",@progbits,_ZN4asio6detail10service_idINS0_14strand_serviceEED5Ev,comdat
	.align	2
	.p2align 4,,11
	.weak	_ZN4asio6detail10service_idINS0_14strand_serviceEED2Ev
	.type	_ZN4asio6detail10service_idINS0_14strand_serviceEED2Ev, %function
_ZN4asio6detail10service_idINS0_14strand_serviceEED2Ev:
.LFB11224:
	.cfi_startproc
	ret
	.cfi_endproc
.LFE11224:
	.size	_ZN4asio6detail10service_idINS0_14strand_serviceEED2Ev, .-_ZN4asio6detail10service_idINS0_14strand_serviceEED2Ev
	.weak	_ZN4asio6detail10service_idINS0_14strand_serviceEED1Ev
	.set	_ZN4asio6detail10service_idINS0_14strand_serviceEED1Ev,_ZN4asio6detail10service_idINS0_14strand_serviceEED2Ev
	.section	.text._ZNSt23_Sp_counted_ptr_inplaceIN7asiopal13SocketChannelESaIS1_ELN9__gnu_cxx12_Lock_policyE2EED2Ev,"axG",@progbits,_ZNSt23_Sp_counted_ptr_inplaceIN7asiopal13SocketChannelESaIS1_ELN9__gnu_cxx12_Lock_policyE2EED5Ev,comdat
	.align	2
	.p2align 4,,11
	.weak	_ZNSt23_Sp_counted_ptr_inplaceIN7asiopal13SocketChannelESaIS1_ELN9__gnu_cxx12_Lock_policyE2EED2Ev
	.type	_ZNSt23_Sp_counted_ptr_inplaceIN7asiopal13SocketChannelESaIS1_ELN9__gnu_cxx12_Lock_policyE2EED2Ev, %function
_ZNSt23_Sp_counted_ptr_inplaceIN7asiopal13SocketChannelESaIS1_ELN9__gnu_cxx12_Lock_policyE2EED2Ev:
.LFB11227:
	.cfi_startproc
	ret
	.cfi_endproc
.LFE11227:
	.size	_ZNSt23_Sp_counted_ptr_inplaceIN7asiopal13SocketChannelESaIS1_ELN9__gnu_cxx12_Lock_policyE2EED2Ev, .-_ZNSt23_Sp_counted_ptr_inplaceIN7asiopal13SocketChannelESaIS1_ELN9__gnu_cxx12_Lock_policyE2EED2Ev
	.weak	_ZNSt23_Sp_counted_ptr_inplaceIN7asiopal13SocketChannelESaIS1_ELN9__gnu_cxx12_Lock_policyE2EED1Ev
	.set	_ZNSt23_Sp_counted_ptr_inplaceIN7asiopal13SocketChannelESaIS1_ELN9__gnu_cxx12_Lock_policyE2EED1Ev,_ZNSt23_Sp_counted_ptr_inplaceIN7asiopal13SocketChannelESaIS1_ELN9__gnu_cxx12_Lock_policyE2EED2Ev
	.section	.text._ZNSt23_Sp_counted_ptr_inplaceIN8asiodnp311LinkSessionESaIS1_ELN9__gnu_cxx12_Lock_policyE2EED2Ev,"axG",@progbits,_ZNSt23_Sp_counted_ptr_inplaceIN8asiodnp311LinkSessionESaIS1_ELN9__gnu_cxx12_Lock_policyE2EED5Ev,comdat
	.align	2
	.p2align 4,,11
	.weak	_ZNSt23_Sp_counted_ptr_inplaceIN8asiodnp311LinkSessionESaIS1_ELN9__gnu_cxx12_Lock_policyE2EED2Ev
	.type	_ZNSt23_Sp_counted_ptr_inplaceIN8asiodnp311LinkSessionESaIS1_ELN9__gnu_cxx12_Lock_policyE2EED2Ev, %function
_ZNSt23_Sp_counted_ptr_inplaceIN8asiodnp311LinkSessionESaIS1_ELN9__gnu_cxx12_Lock_policyE2EED2Ev:
.LFB11234:
	.cfi_startproc
	ret
	.cfi_endproc
.LFE11234:
	.size	_ZNSt23_Sp_counted_ptr_inplaceIN8asiodnp311LinkSessionESaIS1_ELN9__gnu_cxx12_Lock_policyE2EED2Ev, .-_ZNSt23_Sp_counted_ptr_inplaceIN8asiodnp311LinkSessionESaIS1_ELN9__gnu_cxx12_Lock_policyE2EED2Ev
	.weak	_ZNSt23_Sp_counted_ptr_inplaceIN8asiodnp311LinkSessionESaIS1_ELN9__gnu_cxx12_Lock_policyE2EED1Ev
	.set	_ZNSt23_Sp_counted_ptr_inplaceIN8asiodnp311LinkSessionESaIS1_ELN9__gnu_cxx12_Lock_policyE2EED1Ev,_ZNSt23_Sp_counted_ptr_inplaceIN8asiodnp311LinkSessionESaIS1_ELN9__gnu_cxx12_Lock_policyE2EED2Ev
	.section	.text._ZNSt23_Sp_counted_ptr_inplaceIN7asiopal8ExecutorESaIS1_ELN9__gnu_cxx12_Lock_policyE2EED2Ev,"axG",@progbits,_ZNSt23_Sp_counted_ptr_inplaceIN7asiopal8ExecutorESaIS1_ELN9__gnu_cxx12_Lock_policyE2EED5Ev,comdat
	.align	2
	.p2align 4,,11
	.weak	_ZNSt23_Sp_counted_ptr_inplaceIN7asiopal8ExecutorESaIS1_ELN9__gnu_cxx12_Lock_policyE2EED2Ev
	.type	_ZNSt23_Sp_counted_ptr_inplaceIN7asiopal8ExecutorESaIS1_ELN9__gnu_cxx12_Lock_policyE2EED2Ev, %function
_ZNSt23_Sp_counted_ptr_inplaceIN7asiopal8ExecutorESaIS1_ELN9__gnu_cxx12_Lock_policyE2EED2Ev:
.LFB11262:
	.cfi_startproc
	ret
	.cfi_endproc
.LFE11262:
	.size	_ZNSt23_Sp_counted_ptr_inplaceIN7asiopal8ExecutorESaIS1_ELN9__gnu_cxx12_Lock_policyE2EED2Ev, .-_ZNSt23_Sp_counted_ptr_inplaceIN7asiopal8ExecutorESaIS1_ELN9__gnu_cxx12_Lock_policyE2EED2Ev
	.weak	_ZNSt23_Sp_counted_ptr_inplaceIN7asiopal8ExecutorESaIS1_ELN9__gnu_cxx12_Lock_policyE2EED1Ev
	.set	_ZNSt23_Sp_counted_ptr_inplaceIN7asiopal8ExecutorESaIS1_ELN9__gnu_cxx12_Lock_policyE2EED1Ev,_ZNSt23_Sp_counted_ptr_inplaceIN7asiopal8ExecutorESaIS1_ELN9__gnu_cxx12_Lock_policyE2EED2Ev
	.section	.text._ZNSt23_Sp_counted_ptr_inplaceIN7openpal6Logger8SettingsESaIS2_ELN9__gnu_cxx12_Lock_policyE2EED2Ev,"axG",@progbits,_ZNSt23_Sp_counted_ptr_inplaceIN7openpal6Logger8SettingsESaIS2_ELN9__gnu_cxx12_Lock_policyE2EED5Ev,comdat
	.align	2
	.p2align 4,,11
	.weak	_ZNSt23_Sp_counted_ptr_inplaceIN7openpal6Logger8SettingsESaIS2_ELN9__gnu_cxx12_Lock_policyE2EED2Ev
	.type	_ZNSt23_Sp_counted_ptr_inplaceIN7openpal6Logger8SettingsESaIS2_ELN9__gnu_cxx12_Lock_policyE2EED2Ev, %function
_ZNSt23_Sp_counted_ptr_inplaceIN7openpal6Logger8SettingsESaIS2_ELN9__gnu_cxx12_Lock_policyE2EED2Ev:
.LFB11283:
	.cfi_startproc
	ret
	.cfi_endproc
.LFE11283:
	.size	_ZNSt23_Sp_counted_ptr_inplaceIN7openpal6Logger8SettingsESaIS2_ELN9__gnu_cxx12_Lock_policyE2EED2Ev, .-_ZNSt23_Sp_counted_ptr_inplaceIN7openpal6Logger8SettingsESaIS2_ELN9__gnu_cxx12_Lock_policyE2EED2Ev
	.weak	_ZNSt23_Sp_counted_ptr_inplaceIN7openpal6Logger8SettingsESaIS2_ELN9__gnu_cxx12_Lock_policyE2EED1Ev
	.set	_ZNSt23_Sp_counted_ptr_inplaceIN7openpal6Logger8SettingsESaIS2_ELN9__gnu_cxx12_Lock_policyE2EED1Ev,_ZNSt23_Sp_counted_ptr_inplaceIN7openpal6Logger8SettingsESaIS2_ELN9__gnu_cxx12_Lock_policyE2EED2Ev
	.section	.text._ZN4asio6detail15system_categoryD2Ev,"axG",@progbits,_ZN4asio6detail15system_categoryD5Ev,comdat
	.align	2
	.p2align 4,,11
	.weak	_ZN4asio6detail15system_categoryD2Ev
	.type	_ZN4asio6detail15system_categoryD2Ev, %function
_ZN4asio6detail15system_categoryD2Ev:
.LFB11191:
	.cfi_startproc
	adrp	x1, :got:_ZTVN4asio6detail15system_categoryE
	ldr	x1, [x1, #:got_lo12:_ZTVN4asio6detail15system_categoryE]
	add	x1, x1, 16
	str	x1, [x0]
	b	_ZNSt3_V214error_categoryD2Ev
	.cfi_endproc
.LFE11191:
	.size	_ZN4asio6detail15system_categoryD2Ev, .-_ZN4asio6detail15system_categoryD2Ev
	.weak	_ZN4asio6detail15system_categoryD1Ev
	.set	_ZN4asio6detail15system_categoryD1Ev,_ZN4asio6detail15system_categoryD2Ev
	.section	.text._ZN4asio5error6detail14netdb_categoryD2Ev,"axG",@progbits,_ZN4asio5error6detail14netdb_categoryD5Ev,comdat
	.align	2
	.p2align 4,,11
	.weak	_ZN4asio5error6detail14netdb_categoryD2Ev
	.type	_ZN4asio5error6detail14netdb_categoryD2Ev, %function
_ZN4asio5error6detail14netdb_categoryD2Ev:
.LFB11187:
	.cfi_startproc
	adrp	x1, :got:_ZTVN4asio5error6detail14netdb_categoryE
	ldr	x1, [x1, #:got_lo12:_ZTVN4asio5error6detail14netdb_categoryE]
	add	x1, x1, 16
	str	x1, [x0]
	b	_ZNSt3_V214error_categoryD2Ev
	.cfi_endproc
.LFE11187:
	.size	_ZN4asio5error6detail14netdb_categoryD2Ev, .-_ZN4asio5error6detail14netdb_categoryD2Ev
	.weak	_ZN4asio5error6detail14netdb_categoryD1Ev
	.set	_ZN4asio5error6detail14netdb_categoryD1Ev,_ZN4asio5error6detail14netdb_categoryD2Ev
	.section	.text._ZN4asio5error6detail17addrinfo_categoryD2Ev,"axG",@progbits,_ZN4asio5error6detail17addrinfo_categoryD5Ev,comdat
	.align	2
	.p2align 4,,11
	.weak	_ZN4asio5error6detail17addrinfo_categoryD2Ev
	.type	_ZN4asio5error6detail17addrinfo_categoryD2Ev, %function
_ZN4asio5error6detail17addrinfo_categoryD2Ev:
.LFB11183:
	.cfi_startproc
	adrp	x1, :got:_ZTVN4asio5error6detail17addrinfo_categoryE
	ldr	x1, [x1, #:got_lo12:_ZTVN4asio5error6detail17addrinfo_categoryE]
	add	x1, x1, 16
	str	x1, [x0]
	b	_ZNSt3_V214error_categoryD2Ev
	.cfi_endproc
.LFE11183:
	.size	_ZN4asio5error6detail17addrinfo_categoryD2Ev, .-_ZN4asio5error6detail17addrinfo_categoryD2Ev
	.weak	_ZN4asio5error6detail17addrinfo_categoryD1Ev
	.set	_ZN4asio5error6detail17addrinfo_categoryD1Ev,_ZN4asio5error6detail17addrinfo_categoryD2Ev
	.section	.text._ZN4asio5error6detail13misc_categoryD2Ev,"axG",@progbits,_ZN4asio5error6detail13misc_categoryD5Ev,comdat
	.align	2
	.p2align 4,,11
	.weak	_ZN4asio5error6detail13misc_categoryD2Ev
	.type	_ZN4asio5error6detail13misc_categoryD2Ev, %function
_ZN4asio5error6detail13misc_categoryD2Ev:
.LFB11179:
	.cfi_startproc
	adrp	x1, :got:_ZTVN4asio5error6detail13misc_categoryE
	ldr	x1, [x1, #:got_lo12:_ZTVN4asio5error6detail13misc_categoryE]
	add	x1, x1, 16
	str	x1, [x0]
	b	_ZNSt3_V214error_categoryD2Ev
	.cfi_endproc
.LFE11179:
	.size	_ZN4asio5error6detail13misc_categoryD2Ev, .-_ZN4asio5error6detail13misc_categoryD2Ev
	.weak	_ZN4asio5error6detail13misc_categoryD1Ev
	.set	_ZN4asio5error6detail13misc_categoryD1Ev,_ZN4asio5error6detail13misc_categoryD2Ev
	.section	.text._ZN4asio6detail15system_categoryD0Ev,"axG",@progbits,_ZN4asio6detail15system_categoryD5Ev,comdat
	.align	2
	.p2align 4,,11
	.weak	_ZN4asio6detail15system_categoryD0Ev
	.type	_ZN4asio6detail15system_categoryD0Ev, %function
_ZN4asio6detail15system_categoryD0Ev:
.LFB11193:
	.cfi_startproc
	stp	x29, x30, [sp, -32]!
	.cfi_def_cfa_offset 32
	.cfi_offset 29, -32
	.cfi_offset 30, -24
	adrp	x1, :got:_ZTVN4asio6detail15system_categoryE
	mov	x29, sp
	ldr	x1, [x1, #:got_lo12:_ZTVN4asio6detail15system_categoryE]
	str	x19, [sp, 16]
	.cfi_offset 19, -16
	mov	x19, x0
	add	x1, x1, 16
	str	x1, [x0]
	bl	_ZNSt3_V214error_categoryD2Ev
	mov	x0, x19
	mov	x1, 8
	ldr	x19, [sp, 16]
	ldp	x29, x30, [sp], 32
	.cfi_restore 30
	.cfi_restore 29
	.cfi_restore 19
	.cfi_def_cfa_offset 0
	b	_ZdlPvm
	.cfi_endproc
.LFE11193:
	.size	_ZN4asio6detail15system_categoryD0Ev, .-_ZN4asio6detail15system_categoryD0Ev
	.section	.text._ZN4asio5error6detail14netdb_categoryD0Ev,"axG",@progbits,_ZN4asio5error6detail14netdb_categoryD5Ev,comdat
	.align	2
	.p2align 4,,11
	.weak	_ZN4asio5error6detail14netdb_categoryD0Ev
	.type	_ZN4asio5error6detail14netdb_categoryD0Ev, %function
_ZN4asio5error6detail14netdb_categoryD0Ev:
.LFB11189:
	.cfi_startproc
	stp	x29, x30, [sp, -32]!
	.cfi_def_cfa_offset 32
	.cfi_offset 29, -32
	.cfi_offset 30, -24
	adrp	x1, :got:_ZTVN4asio5error6detail14netdb_categoryE
	mov	x29, sp
	ldr	x1, [x1, #:got_lo12:_ZTVN4asio5error6detail14netdb_categoryE]
	str	x19, [sp, 16]
	.cfi_offset 19, -16
	mov	x19, x0
	add	x1, x1, 16
	str	x1, [x0]
	bl	_ZNSt3_V214error_categoryD2Ev
	mov	x0, x19
	mov	x1, 8
	ldr	x19, [sp, 16]
	ldp	x29, x30, [sp], 32
	.cfi_restore 30
	.cfi_restore 29
	.cfi_restore 19
	.cfi_def_cfa_offset 0
	b	_ZdlPvm
	.cfi_endproc
.LFE11189:
	.size	_ZN4asio5error6detail14netdb_categoryD0Ev, .-_ZN4asio5error6detail14netdb_categoryD0Ev
	.section	.text._ZN4asio5error6detail17addrinfo_categoryD0Ev,"axG",@progbits,_ZN4asio5error6detail17addrinfo_categoryD5Ev,comdat
	.align	2
	.p2align 4,,11
	.weak	_ZN4asio5error6detail17addrinfo_categoryD0Ev
	.type	_ZN4asio5error6detail17addrinfo_categoryD0Ev, %function
_ZN4asio5error6detail17addrinfo_categoryD0Ev:
.LFB11185:
	.cfi_startproc
	stp	x29, x30, [sp, -32]!
	.cfi_def_cfa_offset 32
	.cfi_offset 29, -32
	.cfi_offset 30, -24
	adrp	x1, :got:_ZTVN4asio5error6detail17addrinfo_categoryE
	mov	x29, sp
	ldr	x1, [x1, #:got_lo12:_ZTVN4asio5error6detail17addrinfo_categoryE]
	str	x19, [sp, 16]
	.cfi_offset 19, -16
	mov	x19, x0
	add	x1, x1, 16
	str	x1, [x0]
	bl	_ZNSt3_V214error_categoryD2Ev
	mov	x0, x19
	mov	x1, 8
	ldr	x19, [sp, 16]
	ldp	x29, x30, [sp], 32
	.cfi_restore 30
	.cfi_restore 29
	.cfi_restore 19
	.cfi_def_cfa_offset 0
	b	_ZdlPvm
	.cfi_endproc
.LFE11185:
	.size	_ZN4asio5error6detail17addrinfo_categoryD0Ev, .-_ZN4asio5error6detail17addrinfo_categoryD0Ev
	.section	.text._ZN4asio5error6detail13misc_categoryD0Ev,"axG",@progbits,_ZN4asio5error6detail13misc_categoryD5Ev,comdat
	.align	2
	.p2align 4,,11
	.weak	_ZN4asio5error6detail13misc_categoryD0Ev
	.type	_ZN4asio5error6detail13misc_categoryD0Ev, %function
_ZN4asio5error6detail13misc_categoryD0Ev:
.LFB11181:
	.cfi_startproc
	stp	x29, x30, [sp, -32]!
	.cfi_def_cfa_offset 32
	.cfi_offset 29, -32
	.cfi_offset 30, -24
	adrp	x1, :got:_ZTVN4asio5error6detail13misc_categoryE
	mov	x29, sp
	ldr	x1, [x1, #:got_lo12:_ZTVN4asio5error6detail13misc_categoryE]
	str	x19, [sp, 16]
	.cfi_offset 19, -16
	mov	x19, x0
	add	x1, x1, 16
	str	x1, [x0]
	bl	_ZNSt3_V214error_categoryD2Ev
	mov	x0, x19
	mov	x1, 8
	ldr	x19, [sp, 16]
	ldp	x29, x30, [sp], 32
	.cfi_restore 30
	.cfi_restore 29
	.cfi_restore 19
	.cfi_def_cfa_offset 0
	b	_ZdlPvm
	.cfi_endproc
.LFE11181:
	.size	_ZN4asio5error6detail13misc_categoryD0Ev, .-_ZN4asio5error6detail13misc_categoryD0Ev
	.section	.text._ZNSt23_Sp_counted_ptr_inplaceIN7openpal6Logger8SettingsESaIS2_ELN9__gnu_cxx12_Lock_policyE2EED0Ev,"axG",@progbits,_ZNSt23_Sp_counted_ptr_inplaceIN7openpal6Logger8SettingsESaIS2_ELN9__gnu_cxx12_Lock_policyE2EED5Ev,comdat
	.align	2
	.p2align 4,,11
	.weak	_ZNSt23_Sp_counted_ptr_inplaceIN7openpal6Logger8SettingsESaIS2_ELN9__gnu_cxx12_Lock_policyE2EED0Ev
	.type	_ZNSt23_Sp_counted_ptr_inplaceIN7openpal6Logger8SettingsESaIS2_ELN9__gnu_cxx12_Lock_policyE2EED0Ev, %function
_ZNSt23_Sp_counted_ptr_inplaceIN7openpal6Logger8SettingsESaIS2_ELN9__gnu_cxx12_Lock_policyE2EED0Ev:
.LFB11285:
	.cfi_startproc
	mov	x1, 56
	b	_ZdlPvm
	.cfi_endproc
.LFE11285:
	.size	_ZNSt23_Sp_counted_ptr_inplaceIN7openpal6Logger8SettingsESaIS2_ELN9__gnu_cxx12_Lock_policyE2EED0Ev, .-_ZNSt23_Sp_counted_ptr_inplaceIN7openpal6Logger8SettingsESaIS2_ELN9__gnu_cxx12_Lock_policyE2EED0Ev
	.section	.text._ZNSt23_Sp_counted_ptr_inplaceIN7asiopal8ExecutorESaIS1_ELN9__gnu_cxx12_Lock_policyE2EED0Ev,"axG",@progbits,_ZNSt23_Sp_counted_ptr_inplaceIN7asiopal8ExecutorESaIS1_ELN9__gnu_cxx12_Lock_policyE2EED5Ev,comdat
	.align	2
	.p2align 4,,11
	.weak	_ZNSt23_Sp_counted_ptr_inplaceIN7asiopal8ExecutorESaIS1_ELN9__gnu_cxx12_Lock_policyE2EED0Ev
	.type	_ZNSt23_Sp_counted_ptr_inplaceIN7asiopal8ExecutorESaIS1_ELN9__gnu_cxx12_Lock_policyE2EED0Ev, %function
_ZNSt23_Sp_counted_ptr_inplaceIN7asiopal8ExecutorESaIS1_ELN9__gnu_cxx12_Lock_policyE2EED0Ev:
.LFB11264:
	.cfi_startproc
	mov	x1, 72
	b	_ZdlPvm
	.cfi_endproc
.LFE11264:
	.size	_ZNSt23_Sp_counted_ptr_inplaceIN7asiopal8ExecutorESaIS1_ELN9__gnu_cxx12_Lock_policyE2EED0Ev, .-_ZNSt23_Sp_counted_ptr_inplaceIN7asiopal8ExecutorESaIS1_ELN9__gnu_cxx12_Lock_policyE2EED0Ev
	.section	.text._ZNSt23_Sp_counted_ptr_inplaceIN8asiodnp311LinkSessionESaIS1_ELN9__gnu_cxx12_Lock_policyE2EED0Ev,"axG",@progbits,_ZNSt23_Sp_counted_ptr_inplaceIN8asiodnp311LinkSessionESaIS1_ELN9__gnu_cxx12_Lock_policyE2EED5Ev,comdat
	.align	2
	.p2align 4,,11
	.weak	_ZNSt23_Sp_counted_ptr_inplaceIN8asiodnp311LinkSessionESaIS1_ELN9__gnu_cxx12_Lock_policyE2EED0Ev
	.type	_ZNSt23_Sp_counted_ptr_inplaceIN8asiodnp311LinkSessionESaIS1_ELN9__gnu_cxx12_Lock_policyE2EED0Ev, %function
_ZNSt23_Sp_counted_ptr_inplaceIN8asiodnp311LinkSessionESaIS1_ELN9__gnu_cxx12_Lock_policyE2EED0Ev:
.LFB11236:
	.cfi_startproc
	mov	x1, 624
	b	_ZdlPvm
	.cfi_endproc
.LFE11236:
	.size	_ZNSt23_Sp_counted_ptr_inplaceIN8asiodnp311LinkSessionESaIS1_ELN9__gnu_cxx12_Lock_policyE2EED0Ev, .-_ZNSt23_Sp_counted_ptr_inplaceIN8asiodnp311LinkSessionESaIS1_ELN9__gnu_cxx12_Lock_policyE2EED0Ev
	.section	.text._ZNSt23_Sp_counted_ptr_inplaceIN7asiopal13SocketChannelESaIS1_ELN9__gnu_cxx12_Lock_policyE2EED0Ev,"axG",@progbits,_ZNSt23_Sp_counted_ptr_inplaceIN7asiopal13SocketChannelESaIS1_ELN9__gnu_cxx12_Lock_policyE2EED5Ev,comdat
	.align	2
	.p2align 4,,11
	.weak	_ZNSt23_Sp_counted_ptr_inplaceIN7asiopal13SocketChannelESaIS1_ELN9__gnu_cxx12_Lock_policyE2EED0Ev
	.type	_ZNSt23_Sp_counted_ptr_inplaceIN7asiopal13SocketChannelESaIS1_ELN9__gnu_cxx12_Lock_policyE2EED0Ev, %function
_ZNSt23_Sp_counted_ptr_inplaceIN7asiopal13SocketChannelESaIS1_ELN9__gnu_cxx12_Lock_policyE2EED0Ev:
.LFB11229:
	.cfi_startproc
	mov	x1, 112
	b	_ZdlPvm
	.cfi_endproc
.LFE11229:
	.size	_ZNSt23_Sp_counted_ptr_inplaceIN7asiopal13SocketChannelESaIS1_ELN9__gnu_cxx12_Lock_policyE2EED0Ev, .-_ZNSt23_Sp_counted_ptr_inplaceIN7asiopal13SocketChannelESaIS1_ELN9__gnu_cxx12_Lock_policyE2EED0Ev
	.section	.text._ZNSt23_Sp_counted_ptr_inplaceIN7asiopal13SocketChannelESaIS1_ELN9__gnu_cxx12_Lock_policyE2EE10_M_destroyEv,"axG",@progbits,_ZNSt23_Sp_counted_ptr_inplaceIN7asiopal13SocketChannelESaIS1_ELN9__gnu_cxx12_Lock_policyE2EE10_M_destroyEv,comdat
	.align	2
	.p2align 4,,11
	.weak	_ZNSt23_Sp_counted_ptr_inplaceIN7asiopal13SocketChannelESaIS1_ELN9__gnu_cxx12_Lock_policyE2EE10_M_destroyEv
	.type	_ZNSt23_Sp_counted_ptr_inplaceIN7asiopal13SocketChannelESaIS1_ELN9__gnu_cxx12_Lock_policyE2EE10_M_destroyEv, %function
_ZNSt23_Sp_counted_ptr_inplaceIN7asiopal13SocketChannelESaIS1_ELN9__gnu_cxx12_Lock_policyE2EE10_M_destroyEv:
.LFB11231:
	.cfi_startproc
	mov	x1, 112
	b	_ZdlPvm
	.cfi_endproc
.LFE11231:
	.size	_ZNSt23_Sp_counted_ptr_inplaceIN7asiopal13SocketChannelESaIS1_ELN9__gnu_cxx12_Lock_policyE2EE10_M_destroyEv, .-_ZNSt23_Sp_counted_ptr_inplaceIN7asiopal13SocketChannelESaIS1_ELN9__gnu_cxx12_Lock_policyE2EE10_M_destroyEv
	.section	.text._ZNSt23_Sp_counted_ptr_inplaceIN8asiodnp311LinkSessionESaIS1_ELN9__gnu_cxx12_Lock_policyE2EE10_M_destroyEv,"axG",@progbits,_ZNSt23_Sp_counted_ptr_inplaceIN8asiodnp311LinkSessionESaIS1_ELN9__gnu_cxx12_Lock_policyE2EE10_M_destroyEv,comdat
	.align	2
	.p2align 4,,11
	.weak	_ZNSt23_Sp_counted_ptr_inplaceIN8asiodnp311LinkSessionESaIS1_ELN9__gnu_cxx12_Lock_policyE2EE10_M_destroyEv
	.type	_ZNSt23_Sp_counted_ptr_inplaceIN8asiodnp311LinkSessionESaIS1_ELN9__gnu_cxx12_Lock_policyE2EE10_M_destroyEv, %function
_ZNSt23_Sp_counted_ptr_inplaceIN8asiodnp311LinkSessionESaIS1_ELN9__gnu_cxx12_Lock_policyE2EE10_M_destroyEv:
.LFB11238:
	.cfi_startproc
	mov	x1, 624
	b	_ZdlPvm
	.cfi_endproc
.LFE11238:
	.size	_ZNSt23_Sp_counted_ptr_inplaceIN8asiodnp311LinkSessionESaIS1_ELN9__gnu_cxx12_Lock_policyE2EE10_M_destroyEv, .-_ZNSt23_Sp_counted_ptr_inplaceIN8asiodnp311LinkSessionESaIS1_ELN9__gnu_cxx12_Lock_policyE2EE10_M_destroyEv
	.section	.text._ZNSt23_Sp_counted_ptr_inplaceIN7asiopal8ExecutorESaIS1_ELN9__gnu_cxx12_Lock_policyE2EE10_M_destroyEv,"axG",@progbits,_ZNSt23_Sp_counted_ptr_inplaceIN7asiopal8ExecutorESaIS1_ELN9__gnu_cxx12_Lock_policyE2EE10_M_destroyEv,comdat
	.align	2
	.p2align 4,,11
	.weak	_ZNSt23_Sp_counted_ptr_inplaceIN7asiopal8ExecutorESaIS1_ELN9__gnu_cxx12_Lock_policyE2EE10_M_destroyEv
	.type	_ZNSt23_Sp_counted_ptr_inplaceIN7asiopal8ExecutorESaIS1_ELN9__gnu_cxx12_Lock_policyE2EE10_M_destroyEv, %function
_ZNSt23_Sp_counted_ptr_inplaceIN7asiopal8ExecutorESaIS1_ELN9__gnu_cxx12_Lock_policyE2EE10_M_destroyEv:
.LFB11266:
	.cfi_startproc
	mov	x1, 72
	b	_ZdlPvm
	.cfi_endproc
.LFE11266:
	.size	_ZNSt23_Sp_counted_ptr_inplaceIN7asiopal8ExecutorESaIS1_ELN9__gnu_cxx12_Lock_policyE2EE10_M_destroyEv, .-_ZNSt23_Sp_counted_ptr_inplaceIN7asiopal8ExecutorESaIS1_ELN9__gnu_cxx12_Lock_policyE2EE10_M_destroyEv
	.section	.text._ZNSt23_Sp_counted_ptr_inplaceIN7openpal6Logger8SettingsESaIS2_ELN9__gnu_cxx12_Lock_policyE2EE10_M_destroyEv,"axG",@progbits,_ZNSt23_Sp_counted_ptr_inplaceIN7openpal6Logger8SettingsESaIS2_ELN9__gnu_cxx12_Lock_policyE2EE10_M_destroyEv,comdat
	.align	2
	.p2align 4,,11
	.weak	_ZNSt23_Sp_counted_ptr_inplaceIN7openpal6Logger8SettingsESaIS2_ELN9__gnu_cxx12_Lock_policyE2EE10_M_destroyEv
	.type	_ZNSt23_Sp_counted_ptr_inplaceIN7openpal6Logger8SettingsESaIS2_ELN9__gnu_cxx12_Lock_policyE2EE10_M_destroyEv, %function
_ZNSt23_Sp_counted_ptr_inplaceIN7openpal6Logger8SettingsESaIS2_ELN9__gnu_cxx12_Lock_policyE2EE10_M_destroyEv:
.LFB11287:
	.cfi_startproc
	mov	x1, 56
	b	_ZdlPvm
	.cfi_endproc
.LFE11287:
	.size	_ZNSt23_Sp_counted_ptr_inplaceIN7openpal6Logger8SettingsESaIS2_ELN9__gnu_cxx12_Lock_policyE2EE10_M_destroyEv, .-_ZNSt23_Sp_counted_ptr_inplaceIN7openpal6Logger8SettingsESaIS2_ELN9__gnu_cxx12_Lock_policyE2EE10_M_destroyEv
	.section	.text._ZNSt23_Sp_counted_ptr_inplaceIN7openpal6Logger8SettingsESaIS2_ELN9__gnu_cxx12_Lock_policyE2EE10_M_disposeEv,"axG",@progbits,_ZNSt23_Sp_counted_ptr_inplaceIN7openpal6Logger8SettingsESaIS2_ELN9__gnu_cxx12_Lock_policyE2EE10_M_disposeEv,comdat
	.align	2
	.p2align 4,,11
	.weak	_ZNSt23_Sp_counted_ptr_inplaceIN7openpal6Logger8SettingsESaIS2_ELN9__gnu_cxx12_Lock_policyE2EE10_M_disposeEv
	.type	_ZNSt23_Sp_counted_ptr_inplaceIN7openpal6Logger8SettingsESaIS2_ELN9__gnu_cxx12_Lock_policyE2EE10_M_disposeEv, %function
_ZNSt23_Sp_counted_ptr_inplaceIN7openpal6Logger8SettingsESaIS2_ELN9__gnu_cxx12_Lock_policyE2EE10_M_disposeEv:
.LFB11286:
	.cfi_startproc
	add	x1, x0, 32
	add	x2, x0, 16
	ldr	x0, [x0, 16]
	cmp	x0, x1
	beq	.L34
	ldr	x1, [x2, 16]
	add	x1, x1, 1
	b	_ZdlPvm
	.p2align 2,,3
.L34:
	ret
	.cfi_endproc
.LFE11286:
	.size	_ZNSt23_Sp_counted_ptr_inplaceIN7openpal6Logger8SettingsESaIS2_ELN9__gnu_cxx12_Lock_policyE2EE10_M_disposeEv, .-_ZNSt23_Sp_counted_ptr_inplaceIN7openpal6Logger8SettingsESaIS2_ELN9__gnu_cxx12_Lock_policyE2EE10_M_disposeEv
	.section	.text._ZNSt23_Sp_counted_ptr_inplaceIN7asiopal8ExecutorESaIS1_ELN9__gnu_cxx12_Lock_policyE2EE14_M_get_deleterERKSt9type_info,"axG",@progbits,_ZNSt23_Sp_counted_ptr_inplaceIN7asiopal8ExecutorESaIS1_ELN9__gnu_cxx12_Lock_policyE2EE14_M_get_deleterERKSt9type_info,comdat
	.align	2
	.p2align 4,,11
	.weak	_ZNSt23_Sp_counted_ptr_inplaceIN7asiopal8ExecutorESaIS1_ELN9__gnu_cxx12_Lock_policyE2EE14_M_get_deleterERKSt9type_info
	.type	_ZNSt23_Sp_counted_ptr_inplaceIN7asiopal8ExecutorESaIS1_ELN9__gnu_cxx12_Lock_policyE2EE14_M_get_deleterERKSt9type_info, %function
_ZNSt23_Sp_counted_ptr_inplaceIN7asiopal8ExecutorESaIS1_ELN9__gnu_cxx12_Lock_policyE2EE14_M_get_deleterERKSt9type_info:
.LFB11267:
	.cfi_startproc
	stp	x29, x30, [sp, -32]!
	.cfi_def_cfa_offset 32
	.cfi_offset 29, -32
	.cfi_offset 30, -24
	adrp	x2, :got:_ZZNSt19_Sp_make_shared_tag5_S_tiEvE5__tag
	mov	x29, sp
	ldr	x2, [x2, #:got_lo12:_ZZNSt19_Sp_make_shared_tag5_S_tiEvE5__tag]
	str	x19, [sp, 16]
	.cfi_offset 19, -16
	add	x19, x0, 16
	cmp	x1, x2
	beq	.L36
	adrp	x2, :got:_ZTSSt19_Sp_make_shared_tag
	ldr	x0, [x1, 8]
	ldr	x1, [x2, #:got_lo12:_ZTSSt19_Sp_make_shared_tag]
	cmp	x0, x1
	beq	.L36
	ldrb	w2, [x0]
	cmp	w2, 42
	beq	.L38
	bl	strcmp
	cmp	w0, 0
	csel	x19, x19, xzr, eq
.L36:
	mov	x0, x19
	ldr	x19, [sp, 16]
	ldp	x29, x30, [sp], 32
	.cfi_remember_state
	.cfi_restore 30
	.cfi_restore 29
	.cfi_restore 19
	.cfi_def_cfa_offset 0
	ret
	.p2align 2,,3
.L38:
	.cfi_restore_state
	mov	x19, 0
	mov	x0, x19
	ldr	x19, [sp, 16]
	ldp	x29, x30, [sp], 32
	.cfi_restore 30
	.cfi_restore 29
	.cfi_restore 19
	.cfi_def_cfa_offset 0
	ret
	.cfi_endproc
.LFE11267:
	.size	_ZNSt23_Sp_counted_ptr_inplaceIN7asiopal8ExecutorESaIS1_ELN9__gnu_cxx12_Lock_policyE2EE14_M_get_deleterERKSt9type_info, .-_ZNSt23_Sp_counted_ptr_inplaceIN7asiopal8ExecutorESaIS1_ELN9__gnu_cxx12_Lock_policyE2EE14_M_get_deleterERKSt9type_info
	.section	.text._ZN4asio6detail7tss_ptrINS0_10call_stackINS0_15task_io_serviceENS0_27task_io_service_thread_infoEE7contextEED2Ev,"axG",@progbits,_ZN4asio6detail7tss_ptrINS0_10call_stackINS0_15task_io_serviceENS0_27task_io_service_thread_infoEE7contextEED5Ev,comdat
	.align	2
	.p2align 4,,11
	.weak	_ZN4asio6detail7tss_ptrINS0_10call_stackINS0_15task_io_serviceENS0_27task_io_service_thread_infoEE7contextEED2Ev
	.type	_ZN4asio6detail7tss_ptrINS0_10call_stackINS0_15task_io_serviceENS0_27task_io_service_thread_infoEE7contextEED2Ev, %function
_ZN4asio6detail7tss_ptrINS0_10call_stackINS0_15task_io_serviceENS0_27task_io_service_thread_infoEE7contextEED2Ev:
.LFB11212:
	.cfi_startproc
	ldr	w0, [x0]
	b	pthread_key_delete
	.cfi_endproc
.LFE11212:
	.size	_ZN4asio6detail7tss_ptrINS0_10call_stackINS0_15task_io_serviceENS0_27task_io_service_thread_infoEE7contextEED2Ev, .-_ZN4asio6detail7tss_ptrINS0_10call_stackINS0_15task_io_serviceENS0_27task_io_service_thread_infoEE7contextEED2Ev
	.weak	_ZN4asio6detail7tss_ptrINS0_10call_stackINS0_15task_io_serviceENS0_27task_io_service_thread_infoEE7contextEED1Ev
	.set	_ZN4asio6detail7tss_ptrINS0_10call_stackINS0_15task_io_serviceENS0_27task_io_service_thread_infoEE7contextEED1Ev,_ZN4asio6detail7tss_ptrINS0_10call_stackINS0_15task_io_serviceENS0_27task_io_service_thread_infoEE7contextEED2Ev
	.section	.text._ZN4asio6detail7tss_ptrINS0_10call_stackINS0_14strand_service11strand_implEhE7contextEED2Ev,"axG",@progbits,_ZN4asio6detail7tss_ptrINS0_10call_stackINS0_14strand_service11strand_implEhE7contextEED5Ev,comdat
	.align	2
	.p2align 4,,11
	.weak	_ZN4asio6detail7tss_ptrINS0_10call_stackINS0_14strand_service11strand_implEhE7contextEED2Ev
	.type	_ZN4asio6detail7tss_ptrINS0_10call_stackINS0_14strand_service11strand_implEhE7contextEED2Ev, %function
_ZN4asio6detail7tss_ptrINS0_10call_stackINS0_14strand_service11strand_implEhE7contextEED2Ev:
.LFB11221:
	.cfi_startproc
	ldr	w0, [x0]
	b	pthread_key_delete
	.cfi_endproc
.LFE11221:
	.size	_ZN4asio6detail7tss_ptrINS0_10call_stackINS0_14strand_service11strand_implEhE7contextEED2Ev, .-_ZN4asio6detail7tss_ptrINS0_10call_stackINS0_14strand_service11strand_implEhE7contextEED2Ev
	.weak	_ZN4asio6detail7tss_ptrINS0_10call_stackINS0_14strand_service11strand_implEhE7contextEED1Ev
	.set	_ZN4asio6detail7tss_ptrINS0_10call_stackINS0_14strand_service11strand_implEhE7contextEED1Ev,_ZN4asio6detail7tss_ptrINS0_10call_stackINS0_14strand_service11strand_implEhE7contextEED2Ev
	.section	.text.unlikely,"ax",@progbits
	.align	2
	.type	_ZN4asio6detail15throw_exceptionISt8bad_castEEvRKT_.isra.0, %function
_ZN4asio6detail15throw_exceptionISt8bad_castEEvRKT_.isra.0:
.LFB11430:
	.cfi_startproc
	stp	x29, x30, [sp, -16]!
	.cfi_def_cfa_offset 16
	.cfi_offset 29, -16
	.cfi_offset 30, -8
	mov	x0, 8
	mov	x29, sp
	bl	__cxa_allocate_exception
	adrp	x3, :got:_ZTVSt8bad_cast
	adrp	x2, :got:_ZNSt8bad_castD1Ev
	adrp	x1, :got:_ZTISt8bad_cast
	ldr	x3, [x3, #:got_lo12:_ZTVSt8bad_cast]
	ldr	x2, [x2, #:got_lo12:_ZNSt8bad_castD1Ev]
	add	x3, x3, 16
	ldr	x1, [x1, #:got_lo12:_ZTISt8bad_cast]
	str	x3, [x0]
	bl	__cxa_throw
	.cfi_endproc
.LFE11430:
	.size	_ZN4asio6detail15throw_exceptionISt8bad_castEEvRKT_.isra.0, .-_ZN4asio6detail15throw_exceptionISt8bad_castEEvRKT_.isra.0
	.section	.text._ZNSt23_Sp_counted_ptr_inplaceIN7asiopal13SocketChannelESaIS1_ELN9__gnu_cxx12_Lock_policyE2EE14_M_get_deleterERKSt9type_info,"axG",@progbits,_ZNSt23_Sp_counted_ptr_inplaceIN7asiopal13SocketChannelESaIS1_ELN9__gnu_cxx12_Lock_policyE2EE14_M_get_deleterERKSt9type_info,comdat
	.align	2
	.p2align 4,,11
	.weak	_ZNSt23_Sp_counted_ptr_inplaceIN7asiopal13SocketChannelESaIS1_ELN9__gnu_cxx12_Lock_policyE2EE14_M_get_deleterERKSt9type_info
	.type	_ZNSt23_Sp_counted_ptr_inplaceIN7asiopal13SocketChannelESaIS1_ELN9__gnu_cxx12_Lock_policyE2EE14_M_get_deleterERKSt9type_info, %function
_ZNSt23_Sp_counted_ptr_inplaceIN7asiopal13SocketChannelESaIS1_ELN9__gnu_cxx12_Lock_policyE2EE14_M_get_deleterERKSt9type_info:
.LFB11232:
	.cfi_startproc
	stp	x29, x30, [sp, -32]!
	.cfi_def_cfa_offset 32
	.cfi_offset 29, -32
	.cfi_offset 30, -24
	adrp	x2, :got:_ZZNSt19_Sp_make_shared_tag5_S_tiEvE5__tag
	mov	x29, sp
	ldr	x2, [x2, #:got_lo12:_ZZNSt19_Sp_make_shared_tag5_S_tiEvE5__tag]
	str	x19, [sp, 16]
	.cfi_offset 19, -16
	add	x19, x0, 16
	cmp	x1, x2
	beq	.L45
	adrp	x2, :got:_ZTSSt19_Sp_make_shared_tag
	ldr	x0, [x1, 8]
	ldr	x1, [x2, #:got_lo12:_ZTSSt19_Sp_make_shared_tag]
	cmp	x0, x1
	beq	.L45
	ldrb	w2, [x0]
	cmp	w2, 42
	beq	.L47
	bl	strcmp
	cmp	w0, 0
	csel	x19, x19, xzr, eq
.L45:
	mov	x0, x19
	ldr	x19, [sp, 16]
	ldp	x29, x30, [sp], 32
	.cfi_remember_state
	.cfi_restore 30
	.cfi_restore 29
	.cfi_restore 19
	.cfi_def_cfa_offset 0
	ret
	.p2align 2,,3
.L47:
	.cfi_restore_state
	mov	x19, 0
	mov	x0, x19
	ldr	x19, [sp, 16]
	ldp	x29, x30, [sp], 32
	.cfi_restore 30
	.cfi_restore 29
	.cfi_restore 19
	.cfi_def_cfa_offset 0
	ret
	.cfi_endproc
.LFE11232:
	.size	_ZNSt23_Sp_counted_ptr_inplaceIN7asiopal13SocketChannelESaIS1_ELN9__gnu_cxx12_Lock_policyE2EE14_M_get_deleterERKSt9type_info, .-_ZNSt23_Sp_counted_ptr_inplaceIN7asiopal13SocketChannelESaIS1_ELN9__gnu_cxx12_Lock_policyE2EE14_M_get_deleterERKSt9type_info
	.section	.text._ZNSt23_Sp_counted_ptr_inplaceIN7openpal6Logger8SettingsESaIS2_ELN9__gnu_cxx12_Lock_policyE2EE14_M_get_deleterERKSt9type_info,"axG",@progbits,_ZNSt23_Sp_counted_ptr_inplaceIN7openpal6Logger8SettingsESaIS2_ELN9__gnu_cxx12_Lock_policyE2EE14_M_get_deleterERKSt9type_info,comdat
	.align	2
	.p2align 4,,11
	.weak	_ZNSt23_Sp_counted_ptr_inplaceIN7openpal6Logger8SettingsESaIS2_ELN9__gnu_cxx12_Lock_policyE2EE14_M_get_deleterERKSt9type_info
	.type	_ZNSt23_Sp_counted_ptr_inplaceIN7openpal6Logger8SettingsESaIS2_ELN9__gnu_cxx12_Lock_policyE2EE14_M_get_deleterERKSt9type_info, %function
_ZNSt23_Sp_counted_ptr_inplaceIN7openpal6Logger8SettingsESaIS2_ELN9__gnu_cxx12_Lock_policyE2EE14_M_get_deleterERKSt9type_info:
.LFB11288:
	.cfi_startproc
	stp	x29, x30, [sp, -32]!
	.cfi_def_cfa_offset 32
	.cfi_offset 29, -32
	.cfi_offset 30, -24
	adrp	x2, :got:_ZZNSt19_Sp_make_shared_tag5_S_tiEvE5__tag
	mov	x29, sp
	ldr	x2, [x2, #:got_lo12:_ZZNSt19_Sp_make_shared_tag5_S_tiEvE5__tag]
	str	x19, [sp, 16]
	.cfi_offset 19, -16
	add	x19, x0, 16
	cmp	x1, x2
	beq	.L50
	adrp	x2, :got:_ZTSSt19_Sp_make_shared_tag
	ldr	x0, [x1, 8]
	ldr	x1, [x2, #:got_lo12:_ZTSSt19_Sp_make_shared_tag]
	cmp	x0, x1
	beq	.L50
	ldrb	w2, [x0]
	cmp	w2, 42
	beq	.L52
	bl	strcmp
	cmp	w0, 0
	csel	x19, x19, xzr, eq
.L50:
	mov	x0, x19
	ldr	x19, [sp, 16]
	ldp	x29, x30, [sp], 32
	.cfi_remember_state
	.cfi_restore 30
	.cfi_restore 29
	.cfi_restore 19
	.cfi_def_cfa_offset 0
	ret
	.p2align 2,,3
.L52:
	.cfi_restore_state
	mov	x19, 0
	mov	x0, x19
	ldr	x19, [sp, 16]
	ldp	x29, x30, [sp], 32
	.cfi_restore 30
	.cfi_restore 29
	.cfi_restore 19
	.cfi_def_cfa_offset 0
	ret
	.cfi_endproc
.LFE11288:
	.size	_ZNSt23_Sp_counted_ptr_inplaceIN7openpal6Logger8SettingsESaIS2_ELN9__gnu_cxx12_Lock_policyE2EE14_M_get_deleterERKSt9type_info, .-_ZNSt23_Sp_counted_ptr_inplaceIN7openpal6Logger8SettingsESaIS2_ELN9__gnu_cxx12_Lock_policyE2EE14_M_get_deleterERKSt9type_info
	.section	.text._ZNSt23_Sp_counted_ptr_inplaceIN8asiodnp311LinkSessionESaIS1_ELN9__gnu_cxx12_Lock_policyE2EE14_M_get_deleterERKSt9type_info,"axG",@progbits,_ZNSt23_Sp_counted_ptr_inplaceIN8asiodnp311LinkSessionESaIS1_ELN9__gnu_cxx12_Lock_policyE2EE14_M_get_deleterERKSt9type_info,comdat
	.align	2
	.p2align 4,,11
	.weak	_ZNSt23_Sp_counted_ptr_inplaceIN8asiodnp311LinkSessionESaIS1_ELN9__gnu_cxx12_Lock_policyE2EE14_M_get_deleterERKSt9type_info
	.type	_ZNSt23_Sp_counted_ptr_inplaceIN8asiodnp311LinkSessionESaIS1_ELN9__gnu_cxx12_Lock_policyE2EE14_M_get_deleterERKSt9type_info, %function
_ZNSt23_Sp_counted_ptr_inplaceIN8asiodnp311LinkSessionESaIS1_ELN9__gnu_cxx12_Lock_policyE2EE14_M_get_deleterERKSt9type_info:
.LFB11239:
	.cfi_startproc
	stp	x29, x30, [sp, -32]!
	.cfi_def_cfa_offset 32
	.cfi_offset 29, -32
	.cfi_offset 30, -24
	adrp	x2, :got:_ZZNSt19_Sp_make_shared_tag5_S_tiEvE5__tag
	mov	x29, sp
	ldr	x2, [x2, #:got_lo12:_ZZNSt19_Sp_make_shared_tag5_S_tiEvE5__tag]
	str	x19, [sp, 16]
	.cfi_offset 19, -16
	add	x19, x0, 16
	cmp	x1, x2
	beq	.L55
	adrp	x2, :got:_ZTSSt19_Sp_make_shared_tag
	ldr	x0, [x1, 8]
	ldr	x1, [x2, #:got_lo12:_ZTSSt19_Sp_make_shared_tag]
	cmp	x0, x1
	beq	.L55
	ldrb	w2, [x0]
	cmp	w2, 42
	beq	.L57
	bl	strcmp
	cmp	w0, 0
	csel	x19, x19, xzr, eq
.L55:
	mov	x0, x19
	ldr	x19, [sp, 16]
	ldp	x29, x30, [sp], 32
	.cfi_remember_state
	.cfi_restore 30
	.cfi_restore 29
	.cfi_restore 19
	.cfi_def_cfa_offset 0
	ret
	.p2align 2,,3
.L57:
	.cfi_restore_state
	mov	x19, 0
	mov	x0, x19
	ldr	x19, [sp, 16]
	ldp	x29, x30, [sp], 32
	.cfi_restore 30
	.cfi_restore 29
	.cfi_restore 19
	.cfi_def_cfa_offset 0
	ret
	.cfi_endproc
.LFE11239:
	.size	_ZNSt23_Sp_counted_ptr_inplaceIN8asiodnp311LinkSessionESaIS1_ELN9__gnu_cxx12_Lock_policyE2EE14_M_get_deleterERKSt9type_info, .-_ZNSt23_Sp_counted_ptr_inplaceIN8asiodnp311LinkSessionESaIS1_ELN9__gnu_cxx12_Lock_policyE2EE14_M_get_deleterERKSt9type_info
	.section	.rodata._ZNK4asio6detail15system_category7messageB5cxx11Ei.str1.8,"aMS",@progbits,1
	.align	3
.LC4:
	.string	"Operation aborted."
	.align	3
.LC5:
	.string	"basic_string::_M_construct null not valid"
	.section	.text._ZNK4asio6detail15system_category7messageB5cxx11Ei,"axG",@progbits,_ZNK4asio6detail15system_category7messageB5cxx11Ei,comdat
	.align	2
	.p2align 4,,11
	.weak	_ZNK4asio6detail15system_category7messageB5cxx11Ei
	.type	_ZNK4asio6detail15system_category7messageB5cxx11Ei, %function
_ZNK4asio6detail15system_category7messageB5cxx11Ei:
.LFB2339:
	.cfi_startproc
	stp	x29, x30, [sp, -320]!
	.cfi_def_cfa_offset 320
	.cfi_offset 29, -320
	.cfi_offset 30, -312
	adrp	x0, :got:__stack_chk_guard
	mov	x29, sp
	ldr	x2, [x0, #:got_lo12:__stack_chk_guard]
	stp	x19, x20, [sp, 16]
	mov	w0, w1
	stp	x21, x22, [sp, 32]
	.cfi_offset 19, -304
	.cfi_offset 20, -296
	.cfi_offset 21, -288
	.cfi_offset 22, -280
	mov	x19, x8
	add	x21, x8, 16
	ldr	x1, [x2]
	str	x1, [sp, 312]
	mov	x1, 0
	cmp	w0, 125
	beq	.L75
	movi	v0.4s, 0
	add	x3, sp, 72
	add	x1, sp, 56
	mov	x2, 256
	stp	xzr, xzr, [sp, 56]
	stp	q0, q0, [x3]
	stp	q0, q0, [x3, 32]
	stp	q0, q0, [x3, 64]
	stp	q0, q0, [x3, 96]
	stp	q0, q0, [x3, 128]
	stp	q0, q0, [x3, 160]
	stp	q0, q0, [x3, 192]
	str	q0, [x3, 224]
	bl	strerror_r
	mov	x22, x0
	str	x21, [x19]
	cbz	x0, .L63
	bl	strlen
	str	x0, [sp, 48]
	mov	x20, x0
	cmp	x0, 15
	bhi	.L76
	cmp	x0, 1
	bne	.L67
	ldrb	w0, [x22]
	strb	w0, [x19, 16]
.L68:
	str	x20, [x19, 8]
	strb	wzr, [x21, x20]
.L60:
	adrp	x0, :got:__stack_chk_guard
	ldr	x0, [x0, #:got_lo12:__stack_chk_guard]
	ldr	x2, [sp, 312]
	ldr	x1, [x0]
	subs	x2, x2, x1
	mov	x1, 0
	bne	.L77
	mov	x0, x19
	ldp	x19, x20, [sp, 16]
	ldp	x21, x22, [sp, 32]
	ldp	x29, x30, [sp], 320
	.cfi_remember_state
	.cfi_restore 30
	.cfi_restore 29
	.cfi_restore 21
	.cfi_restore 22
	.cfi_restore 19
	.cfi_restore 20
	.cfi_def_cfa_offset 0
	ret
	.p2align 2,,3
.L76:
	.cfi_restore_state
	add	x1, sp, 48
	mov	x0, x19
	mov	x2, 0
	bl	_ZNSt7__cxx1112basic_stringIcSt11char_traitsIcESaIcEE9_M_createERmm
	mov	x21, x0
	str	x0, [x19]
	ldr	x1, [sp, 48]
	str	x1, [x19, 16]
.L66:
	mov	x2, x20
	mov	x0, x21
	mov	x1, x22
	bl	memcpy
	ldr	x21, [x19]
	ldr	x20, [sp, 48]
	b	.L68
	.p2align 2,,3
.L75:
	mov	x3, 18
	str	x21, [x8]
	add	x1, sp, 48
	mov	x2, 0
	mov	x0, x8
	str	x3, [sp, 48]
	bl	_ZNSt7__cxx1112basic_stringIcSt11char_traitsIcESaIcEE9_M_createERmm
	str	x0, [x19]
	adrp	x1, .LC4
	add	x1, x1, :lo12:.LC4
	ldr	x2, [sp, 48]
	str	x2, [x19, 16]
	ldp	x2, x3, [x1]
	stp	x2, x3, [x0]
	ldrh	w1, [x1, 16]
	strh	w1, [x0, 16]
	ldr	x1, [x19]
	ldr	x0, [sp, 48]
	str	x0, [x19, 8]
	strb	wzr, [x1, x0]
	b	.L60
	.p2align 2,,3
.L67:
	cbz	x0, .L68
	b	.L66
.L63:
	adrp	x0, .LC5
	add	x0, x0, :lo12:.LC5
	bl	_ZSt19__throw_logic_errorPKc
.L77:
	bl	__stack_chk_fail
	.cfi_endproc
.LFE2339:
	.size	_ZNK4asio6detail15system_category7messageB5cxx11Ei, .-_ZNK4asio6detail15system_category7messageB5cxx11Ei
	.section	.rodata._ZNK4asio5error6detail17addrinfo_category7messageB5cxx11Ei.str1.8,"aMS",@progbits,1
	.align	3
.LC6:
	.string	"Service not found"
	.align	3
.LC7:
	.string	"Socket type not supported"
	.align	3
.LC8:
	.string	"asio.addrinfo error"
	.section	.text._ZNK4asio5error6detail17addrinfo_category7messageB5cxx11Ei,"axG",@progbits,_ZNK4asio5error6detail17addrinfo_category7messageB5cxx11Ei,comdat
	.align	2
	.p2align 4,,11
	.weak	_ZNK4asio5error6detail17addrinfo_category7messageB5cxx11Ei
	.type	_ZNK4asio5error6detail17addrinfo_category7messageB5cxx11Ei, %function
_ZNK4asio5error6detail17addrinfo_category7messageB5cxx11Ei:
.LFB2366:
	.cfi_startproc
	stp	x29, x30, [sp, -48]!
	.cfi_def_cfa_offset 48
	.cfi_offset 29, -48
	.cfi_offset 30, -40
	adrp	x0, :got:__stack_chk_guard
	add	x2, x8, 16
	mov	x29, sp
	ldr	x0, [x0, #:got_lo12:__stack_chk_guard]
	str	x19, [sp, 16]
	.cfi_offset 19, -32
	mov	x19, x8
	ldr	x3, [x0]
	str	x3, [sp, 40]
	mov	x3, 0
	str	x2, [x8]
	cmn	w1, #8
	beq	.L84
	cmn	w1, #7
	beq	.L85
	mov	x3, 19
	add	x1, sp, 32
	mov	x2, 0
	mov	x0, x8
	str	x3, [sp, 32]
	bl	_ZNSt7__cxx1112basic_stringIcSt11char_traitsIcESaIcEE9_M_createERmm
	adrp	x1, .LC8
	add	x1, x1, :lo12:.LC8
	ldr	x2, [sp, 32]
	str	x0, [x19]
	str	x2, [x19, 16]
	ldp	x2, x3, [x1]
	stp	x2, x3, [x0]
	ldr	w1, [x1, 15]
	str	w1, [x0, 15]
	ldr	x1, [x19]
	ldr	x0, [sp, 32]
	str	x0, [x19, 8]
	strb	wzr, [x1, x0]
.L78:
	adrp	x0, :got:__stack_chk_guard
	ldr	x0, [x0, #:got_lo12:__stack_chk_guard]
	ldr	x2, [sp, 40]
	ldr	x1, [x0]
	subs	x2, x2, x1
	mov	x1, 0
	bne	.L86
	mov	x0, x19
	ldr	x19, [sp, 16]
	ldp	x29, x30, [sp], 48
	.cfi_remember_state
	.cfi_restore 30
	.cfi_restore 29
	.cfi_restore 19
	.cfi_def_cfa_offset 0
	ret
	.p2align 2,,3
.L85:
	.cfi_restore_state
	mov	x3, 25
	add	x1, sp, 32
	mov	x2, 0
	mov	x0, x8
	str	x3, [sp, 32]
	bl	_ZNSt7__cxx1112basic_stringIcSt11char_traitsIcESaIcEE9_M_createERmm
	adrp	x1, .LC7
	add	x1, x1, :lo12:.LC7
	ldr	x2, [sp, 32]
	str	x0, [x19]
	ldr	q1, [x1]
	str	x2, [x19, 16]
	ldr	q0, [x1, 9]
	str	q1, [x0]
	str	q0, [x0, 9]
	ldr	x1, [x19]
	ldr	x0, [sp, 32]
	str	x0, [x19, 8]
	strb	wzr, [x1, x0]
	b	.L78
	.p2align 2,,3
.L84:
	mov	x3, 17
	add	x1, sp, 32
	mov	x2, 0
	mov	x0, x8
	str	x3, [sp, 32]
	bl	_ZNSt7__cxx1112basic_stringIcSt11char_traitsIcESaIcEE9_M_createERmm
	adrp	x1, .LC6
	add	x1, x1, :lo12:.LC6
	ldr	x2, [sp, 32]
	str	x0, [x19]
	str	x2, [x19, 16]
	ldp	x2, x3, [x1]
	stp	x2, x3, [x0]
	ldrb	w1, [x1, 16]
	strb	w1, [x0, 16]
	ldr	x1, [x19]
	ldr	x0, [sp, 32]
	str	x0, [x19, 8]
	strb	wzr, [x1, x0]
	b	.L78
.L86:
	bl	__stack_chk_fail
	.cfi_endproc
.LFE2366:
	.size	_ZNK4asio5error6detail17addrinfo_category7messageB5cxx11Ei, .-_ZNK4asio5error6detail17addrinfo_category7messageB5cxx11Ei
	.section	.rodata._ZNK4asio5error6detail14netdb_category7messageB5cxx11Ei.str1.8,"aMS",@progbits,1
	.align	3
.LC9:
	.string	"Host not found (authoritative)"
	.align	3
.LC10:
	.string	"Host not found (non-authoritative), try again later"
	.align	3
.LC11:
	.string	"The query is valid, but it does not have associated data"
	.align	3
.LC12:
	.string	"A non-recoverable error occurred during database lookup"
	.align	3
.LC13:
	.string	"asio.netdb error"
	.section	.text._ZNK4asio5error6detail14netdb_category7messageB5cxx11Ei,"axG",@progbits,_ZNK4asio5error6detail14netdb_category7messageB5cxx11Ei,comdat
	.align	2
	.p2align 4,,11
	.weak	_ZNK4asio5error6detail14netdb_category7messageB5cxx11Ei
	.type	_ZNK4asio5error6detail14netdb_category7messageB5cxx11Ei, %function
_ZNK4asio5error6detail14netdb_category7messageB5cxx11Ei:
.LFB2360:
	.cfi_startproc
	stp	x29, x30, [sp, -48]!
	.cfi_def_cfa_offset 48
	.cfi_offset 29, -48
	.cfi_offset 30, -40
	adrp	x0, :got:__stack_chk_guard
	add	x2, x8, 16
	mov	x29, sp
	ldr	x0, [x0, #:got_lo12:__stack_chk_guard]
	str	x19, [sp, 16]
	.cfi_offset 19, -32
	mov	x19, x8
	ldr	x3, [x0]
	str	x3, [sp, 40]
	mov	x3, 0
	str	x2, [x8]
	cmp	w1, 1
	beq	.L96
	cmp	w1, 2
	beq	.L97
	cmp	w1, 4
	beq	.L98
	cmp	w1, 3
	beq	.L99
	mov	x3, 16
	add	x1, sp, 32
	mov	x2, 0
	mov	x0, x8
	str	x3, [sp, 32]
	bl	_ZNSt7__cxx1112basic_stringIcSt11char_traitsIcESaIcEE9_M_createERmm
	adrp	x1, .LC13
	add	x1, x1, :lo12:.LC13
	ldr	x2, [sp, 32]
	str	x0, [x19]
	str	x2, [x19, 16]
	ldp	x2, x3, [x1]
	stp	x2, x3, [x0]
	ldr	x1, [x19]
	ldr	x0, [sp, 32]
	str	x0, [x19, 8]
	strb	wzr, [x1, x0]
.L87:
	adrp	x0, :got:__stack_chk_guard
	ldr	x0, [x0, #:got_lo12:__stack_chk_guard]
	ldr	x2, [sp, 40]
	ldr	x1, [x0]
	subs	x2, x2, x1
	mov	x1, 0
	bne	.L100
	mov	x0, x19
	ldr	x19, [sp, 16]
	ldp	x29, x30, [sp], 48
	.cfi_remember_state
	.cfi_restore 30
	.cfi_restore 29
	.cfi_restore 19
	.cfi_def_cfa_offset 0
	ret
	.p2align 2,,3
.L96:
	.cfi_restore_state
	mov	x3, 30
	add	x1, sp, 32
	mov	x2, 0
	mov	x0, x8
	str	x3, [sp, 32]
	bl	_ZNSt7__cxx1112basic_stringIcSt11char_traitsIcESaIcEE9_M_createERmm
	adrp	x1, .LC9
	add	x1, x1, :lo12:.LC9
	ldr	x2, [sp, 32]
	str	x0, [x19]
	ldr	q1, [x1]
	str	x2, [x19, 16]
	ldr	q0, [x1, 14]
	str	q1, [x0]
	str	q0, [x0, 14]
	ldr	x1, [x19]
	ldr	x0, [sp, 32]
	str	x0, [x19, 8]
	strb	wzr, [x1, x0]
	b	.L87
	.p2align 2,,3
.L99:
	mov	x3, 55
	add	x1, sp, 32
	mov	x2, 0
	mov	x0, x8
	str	x3, [sp, 32]
	bl	_ZNSt7__cxx1112basic_stringIcSt11char_traitsIcESaIcEE9_M_createERmm
	adrp	x1, .LC12
	add	x1, x1, :lo12:.LC12
	ldr	x2, [sp, 32]
	str	x0, [x19]
	ldr	q2, [x1, 32]
	str	x2, [x19, 16]
	ldp	q0, q1, [x1]
	str	q2, [x0, 32]
	ldr	x1, [x1, 47]
	str	x1, [x0, 47]
.L95:
	stp	q0, q1, [x0]
	ldr	x1, [x19]
	ldr	x0, [sp, 32]
	str	x0, [x19, 8]
	strb	wzr, [x1, x0]
	b	.L87
	.p2align 2,,3
.L97:
	mov	x3, 51
	add	x1, sp, 32
	mov	x2, 0
	mov	x0, x8
	str	x3, [sp, 32]
	bl	_ZNSt7__cxx1112basic_stringIcSt11char_traitsIcESaIcEE9_M_createERmm
	adrp	x1, .LC10
	add	x1, x1, :lo12:.LC10
	ldr	x2, [sp, 32]
	str	x0, [x19]
	ldr	q2, [x1, 32]
	str	x2, [x19, 16]
	ldp	q0, q1, [x1]
	ldr	w1, [x1, 47]
	str	q2, [x0, 32]
	str	w1, [x0, 47]
	b	.L95
	.p2align 2,,3
.L98:
	mov	x3, 56
	add	x1, sp, 32
	mov	x2, 0
	mov	x0, x8
	str	x3, [sp, 32]
	bl	_ZNSt7__cxx1112basic_stringIcSt11char_traitsIcESaIcEE9_M_createERmm
	adrp	x1, .LC11
	add	x1, x1, :lo12:.LC11
	ldr	x2, [sp, 32]
	str	x0, [x19]
	ldp	q1, q2, [x1]
	str	x2, [x19, 16]
	ldr	q0, [x1, 32]
	ldr	x1, [x1, 48]
	str	x1, [x0, 48]
	stp	q1, q2, [x0]
	str	q0, [x0, 32]
	ldr	x1, [x19]
	ldr	x0, [sp, 32]
	str	x0, [x19, 8]
	strb	wzr, [x1, x0]
	b	.L87
.L100:
	bl	__stack_chk_fail
	.cfi_endproc
.LFE2360:
	.size	_ZNK4asio5error6detail14netdb_category7messageB5cxx11Ei, .-_ZNK4asio5error6detail14netdb_category7messageB5cxx11Ei
	.section	.rodata._ZNK4asio5error6detail13misc_category7messageB5cxx11Ei.str1.8,"aMS",@progbits,1
	.align	3
.LC14:
	.string	"Already open"
	.align	3
.LC15:
	.string	"End of file"
	.align	3
.LC16:
	.string	"Element not found"
	.align	3
.LC17:
	.string	"The descriptor does not fit into the select call's fd_set"
	.align	3
.LC18:
	.string	"asio.misc error"
	.section	.text._ZNK4asio5error6detail13misc_category7messageB5cxx11Ei,"axG",@progbits,_ZNK4asio5error6detail13misc_category7messageB5cxx11Ei,comdat
	.align	2
	.p2align 4,,11
	.weak	_ZNK4asio5error6detail13misc_category7messageB5cxx11Ei
	.type	_ZNK4asio5error6detail13misc_category7messageB5cxx11Ei, %function
_ZNK4asio5error6detail13misc_category7messageB5cxx11Ei:
.LFB2372:
	.cfi_startproc
	stp	x29, x30, [sp, -48]!
	.cfi_def_cfa_offset 48
	.cfi_offset 29, -48
	.cfi_offset 30, -40
	adrp	x0, :got:__stack_chk_guard
	add	x2, x8, 16
	mov	x29, sp
	ldr	x0, [x0, #:got_lo12:__stack_chk_guard]
	str	x19, [sp, 16]
	.cfi_offset 19, -32
	mov	x19, x8
	ldr	x3, [x0]
	str	x3, [sp, 40]
	mov	x3, 0
	cmp	w1, 1
	beq	.L109
	cmp	w1, 2
	beq	.L110
	cmp	w1, 3
	beq	.L111
	cmp	w1, 4
	beq	.L112
	adrp	x0, .LC18
	add	x0, x0, :lo12:.LC18
	str	x2, [x8]
	mov	x1, 15
	ldr	x3, [x0]
	str	x3, [x8, 16]
	ldr	x0, [x0, 7]
	str	x0, [x2, 7]
	str	x1, [x8, 8]
	strb	wzr, [x8, 31]
.L101:
	adrp	x0, :got:__stack_chk_guard
	ldr	x0, [x0, #:got_lo12:__stack_chk_guard]
	ldr	x2, [sp, 40]
	ldr	x1, [x0]
	subs	x2, x2, x1
	mov	x1, 0
	bne	.L113
	mov	x0, x19
	ldr	x19, [sp, 16]
	ldp	x29, x30, [sp], 48
	.cfi_remember_state
	.cfi_restore 30
	.cfi_restore 29
	.cfi_restore 19
	.cfi_def_cfa_offset 0
	ret
	.p2align 2,,3
.L109:
	.cfi_restore_state
	adrp	x0, .LC14
	add	x0, x0, :lo12:.LC14
	str	x2, [x8]
	mov	x1, 12
	ldr	x3, [x0]
	str	x3, [x8, 16]
	ldr	w0, [x0, 8]
	str	w0, [x2, 8]
	str	x1, [x8, 8]
	strb	wzr, [x8, 28]
	b	.L101
	.p2align 2,,3
.L112:
	mov	x3, 57
	str	x2, [x8]
	add	x1, sp, 32
	mov	x2, 0
	mov	x0, x8
	str	x3, [sp, 32]
	bl	_ZNSt7__cxx1112basic_stringIcSt11char_traitsIcESaIcEE9_M_createERmm
	str	x0, [x19]
	adrp	x1, .LC17
	add	x1, x1, :lo12:.LC17
	ldr	x2, [sp, 32]
	str	x2, [x19, 16]
	ldr	q3, [x1, 32]
	ldp	q1, q2, [x1]
	ldr	q0, [x1, 41]
	str	q3, [x0, 32]
	stp	q1, q2, [x0]
	str	q0, [x0, 41]
	ldr	x1, [x19]
	ldr	x0, [sp, 32]
	str	x0, [x19, 8]
	strb	wzr, [x1, x0]
	b	.L101
	.p2align 2,,3
.L110:
	adrp	x0, .LC15
	add	x0, x0, :lo12:.LC15
	str	x2, [x8]
	mov	x1, 11
	ldr	x3, [x0]
	str	x3, [x8, 16]
	ldr	w0, [x0, 7]
	str	w0, [x2, 7]
	str	x1, [x8, 8]
	strb	wzr, [x8, 27]
	b	.L101
	.p2align 2,,3
.L111:
	mov	x3, 17
	str	x2, [x8]
	add	x1, sp, 32
	mov	x2, 0
	mov	x0, x8
	str	x3, [sp, 32]
	bl	_ZNSt7__cxx1112basic_stringIcSt11char_traitsIcESaIcEE9_M_createERmm
	str	x0, [x19]
	adrp	x1, .LC16
	add	x1, x1, :lo12:.LC16
	ldr	x2, [sp, 32]
	str	x2, [x19, 16]
	ldp	x2, x3, [x1]
	stp	x2, x3, [x0]
	ldrb	w1, [x1, 16]
	strb	w1, [x0, 16]
	ldr	x1, [x19]
	ldr	x0, [sp, 32]
	str	x0, [x19, 8]
	strb	wzr, [x1, x0]
	b	.L101
.L113:
	bl	__stack_chk_fail
	.cfi_endproc
.LFE2372:
	.size	_ZNK4asio5error6detail13misc_category7messageB5cxx11Ei, .-_ZNK4asio5error6detail13misc_category7messageB5cxx11Ei
	.global	__aarch64_ldadd4_acq_rel
	.section	.text._ZNSt23_Sp_counted_ptr_inplaceIN7asiopal8ExecutorESaIS1_ELN9__gnu_cxx12_Lock_policyE2EE10_M_disposeEv,"axG",@progbits,_ZNSt23_Sp_counted_ptr_inplaceIN7asiopal8ExecutorESaIS1_ELN9__gnu_cxx12_Lock_policyE2EE10_M_disposeEv,comdat
	.align	2
	.p2align 4,,11
	.weak	_ZNSt23_Sp_counted_ptr_inplaceIN7asiopal8ExecutorESaIS1_ELN9__gnu_cxx12_Lock_policyE2EE10_M_disposeEv
	.type	_ZNSt23_Sp_counted_ptr_inplaceIN7asiopal8ExecutorESaIS1_ELN9__gnu_cxx12_Lock_policyE2EE10_M_disposeEv, %function
_ZNSt23_Sp_counted_ptr_inplaceIN7asiopal8ExecutorESaIS1_ELN9__gnu_cxx12_Lock_policyE2EE10_M_disposeEv:
.LFB11265:
	.cfi_startproc
	stp	x29, x30, [sp, -48]!
	.cfi_def_cfa_offset 48
	.cfi_offset 29, -48
	.cfi_offset 30, -40
	adrp	x1, :got:_ZTVN7asiopal8ExecutorE
	mov	x29, sp
	ldr	x1, [x1, #:got_lo12:_ZTVN7asiopal8ExecutorE]
	stp	x19, x20, [sp, 16]
	.cfi_offset 19, -32
	.cfi_offset 20, -24
	mov	x19, x0
	ldr	x20, [x0, 48]
	add	x1, x1, 16
	str	x1, [x0, 16]
	cbz	x20, .L116
	str	x21, [sp, 32]
	.cfi_offset 21, -16
	adrp	x21, :got:__libc_single_threaded
	ldr	x0, [x21, #:got_lo12:__libc_single_threaded]
	ldrb	w0, [x0]
	cbz	w0, .L117
	ldr	w0, [x20, 8]
	sub	w1, w0, #1
	str	w1, [x20, 8]
.L118:
	cmp	w0, 1
	beq	.L130
.L129:
	ldr	x21, [sp, 32]
	.cfi_restore 21
.L116:
	ldr	x19, [x19, 32]
	cbz	x19, .L114
	adrp	x0, :got:__libc_single_threaded
	ldr	x0, [x0, #:got_lo12:__libc_single_threaded]
	ldrb	w0, [x0]
	cbz	w0, .L124
	ldr	w0, [x19, 12]
	sub	w1, w0, #1
	str	w1, [x19, 12]
.L125:
	cmp	w0, 1
	beq	.L131
.L114:
	ldp	x19, x20, [sp, 16]
	ldp	x29, x30, [sp], 48
	.cfi_restore 30
	.cfi_restore 29
	.cfi_restore 19
	.cfi_restore 20
	.cfi_def_cfa_offset 0
	ret
	.p2align 2,,3
.L130:
	.cfi_def_cfa_offset 48
	.cfi_offset 19, -32
	.cfi_offset 20, -24
	.cfi_offset 21, -16
	.cfi_offset 29, -48
	.cfi_offset 30, -40
	ldr	x1, [x20]
	mov	x0, x20
	ldr	x1, [x1, 16]
	blr	x1
	ldr	x21, [x21, #:got_lo12:__libc_single_threaded]
	ldrb	w0, [x21]
	cbz	w0, .L120
	ldr	w0, [x20, 12]
	sub	w1, w0, #1
	str	w1, [x20, 12]
.L121:
	cmp	w0, 1
	bne	.L129
	ldr	x1, [x20]
	mov	x0, x20
	ldr	x1, [x1, 24]
	blr	x1
	ldr	x21, [sp, 32]
	.cfi_restore 21
	b	.L116
	.p2align 2,,3
.L131:
	ldr	x1, [x19]
	mov	x0, x19
	ldp	x19, x20, [sp, 16]
	ldp	x29, x30, [sp], 48
	.cfi_remember_state
	.cfi_restore 30
	.cfi_restore 29
	.cfi_restore 19
	.cfi_restore 20
	.cfi_def_cfa_offset 0
	ldr	x1, [x1, 24]
	mov	x16, x1
	br	x16
	.p2align 2,,3
.L124:
	.cfi_restore_state
	add	x1, x19, 12
	mov	w0, -1
	bl	__aarch64_ldadd4_acq_rel
	b	.L125
	.p2align 2,,3
.L117:
	.cfi_offset 21, -16
	add	x1, x20, 8
	mov	w0, -1
	bl	__aarch64_ldadd4_acq_rel
	b	.L118
	.p2align 2,,3
.L120:
	add	x1, x20, 12
	mov	w0, -1
	bl	__aarch64_ldadd4_acq_rel
	b	.L121
	.cfi_endproc
.LFE11265:
	.size	_ZNSt23_Sp_counted_ptr_inplaceIN7asiopal8ExecutorESaIS1_ELN9__gnu_cxx12_Lock_policyE2EE10_M_disposeEv, .-_ZNSt23_Sp_counted_ptr_inplaceIN7asiopal8ExecutorESaIS1_ELN9__gnu_cxx12_Lock_policyE2EE10_M_disposeEv
	.section	.text._ZNSt23_Sp_counted_ptr_inplaceIN8asiodnp311LinkSessionESaIS1_ELN9__gnu_cxx12_Lock_policyE2EE10_M_disposeEv,"axG",@progbits,_ZNSt23_Sp_counted_ptr_inplaceIN8asiodnp311LinkSessionESaIS1_ELN9__gnu_cxx12_Lock_policyE2EE10_M_disposeEv,comdat
	.align	2
	.p2align 4,,11
	.weak	_ZNSt23_Sp_counted_ptr_inplaceIN8asiodnp311LinkSessionESaIS1_ELN9__gnu_cxx12_Lock_policyE2EE10_M_disposeEv
	.type	_ZNSt23_Sp_counted_ptr_inplaceIN8asiodnp311LinkSessionESaIS1_ELN9__gnu_cxx12_Lock_policyE2EE10_M_disposeEv, %function
_ZNSt23_Sp_counted_ptr_inplaceIN8asiodnp311LinkSessionESaIS1_ELN9__gnu_cxx12_Lock_policyE2EE10_M_disposeEv:
.LFB11237:
	.cfi_startproc
	stp	x29, x30, [sp, -48]!
	.cfi_def_cfa_offset 48
	.cfi_offset 29, -48
	.cfi_offset 30, -40
	adrp	x1, :got:_ZTVN8asiodnp311LinkSessionE
	mov	x29, sp
	stp	x19, x20, [sp, 16]
	.cfi_offset 19, -32
	.cfi_offset 20, -24
	mov	x19, x0
	ldr	x0, [x1, #:got_lo12:_ZTVN8asiodnp311LinkSessionE]
	str	x21, [sp, 32]
	.cfi_offset 21, -16
	ldr	x21, [x19, 616]
	add	x2, x0, 16
	add	x4, x0, 96
	add	x3, x0, 144
	stp	x2, x4, [x19, 16]
	add	x2, x0, 184
	add	x0, x0, 224
	str	x3, [x19, 32]
	stp	x2, x0, [x19, 56]
	cbz	x21, .L134
	adrp	x20, :got:__libc_single_threaded
	ldr	x0, [x20, #:got_lo12:__libc_single_threaded]
	ldrb	w0, [x0]
	cbz	w0, .L135
	ldr	w0, [x21, 8]
	sub	w1, w0, #1
	str	w1, [x21, 8]
.L136:
	cmp	w0, 1
	beq	.L195
.L134:
	add	x0, x19, 584
	bl	_ZN7openpal8TimerRefD1Ev
	ldr	x21, [x19, 192]
	cbz	x21, .L141
	adrp	x20, :got:__libc_single_threaded
	ldr	x0, [x20, #:got_lo12:__libc_single_threaded]
	ldrb	w0, [x0]
	cbz	w0, .L142
	ldr	w0, [x21, 8]
	sub	w1, w0, #1
	str	w1, [x21, 8]
.L143:
	cmp	w0, 1
	beq	.L196
.L141:
	ldr	x21, [x19, 176]
	cbz	x21, .L148
	adrp	x20, :got:__libc_single_threaded
	ldr	x0, [x20, #:got_lo12:__libc_single_threaded]
	ldrb	w0, [x0]
	cbz	w0, .L149
	ldr	w0, [x21, 8]
	sub	w1, w0, #1
	str	w1, [x21, 8]
.L150:
	cmp	w0, 1
	beq	.L197
.L148:
	ldr	x21, [x19, 160]
	cbz	x21, .L155
	adrp	x20, :got:__libc_single_threaded
	ldr	x0, [x20, #:got_lo12:__libc_single_threaded]
	ldrb	w0, [x0]
	cbz	w0, .L156
	ldr	w0, [x21, 8]
	sub	w1, w0, #1
	str	w1, [x21, 8]
.L157:
	cmp	w0, 1
	beq	.L198
.L155:
	ldr	x21, [x19, 144]
	cbz	x21, .L162
	adrp	x20, :got:__libc_single_threaded
	ldr	x0, [x20, #:got_lo12:__libc_single_threaded]
	ldrb	w0, [x0]
	cbz	w0, .L163
	ldr	w0, [x21, 8]
	sub	w1, w0, #1
	str	w1, [x21, 8]
.L164:
	cmp	w0, 1
	beq	.L199
.L162:
	ldr	x21, [x19, 128]
	cbz	x21, .L169
	adrp	x20, :got:__libc_single_threaded
	ldr	x0, [x20, #:got_lo12:__libc_single_threaded]
	ldrb	w0, [x0]
	cbz	w0, .L170
	ldr	w0, [x21, 8]
	sub	w1, w0, #1
	str	w1, [x21, 8]
.L171:
	cmp	w0, 1
	beq	.L200
.L169:
	ldr	x21, [x19, 104]
	cbz	x21, .L176
	adrp	x20, :got:__libc_single_threaded
	ldr	x0, [x20, #:got_lo12:__libc_single_threaded]
	ldrb	w0, [x0]
	cbz	w0, .L177
	ldr	w0, [x21, 8]
	sub	w1, w0, #1
	str	w1, [x21, 8]
.L178:
	cmp	w0, 1
	beq	.L201
.L176:
	ldr	x21, [x19, 88]
	cbz	x21, .L183
	adrp	x20, :got:__libc_single_threaded
	ldr	x0, [x20, #:got_lo12:__libc_single_threaded]
	ldrb	w0, [x0]
	cbz	w0, .L184
	ldr	w0, [x21, 8]
	sub	w1, w0, #1
	str	w1, [x21, 8]
.L185:
	cmp	w0, 1
	beq	.L202
.L183:
	ldr	x19, [x19, 48]
	cbz	x19, .L132
	adrp	x0, :got:__libc_single_threaded
	ldr	x0, [x0, #:got_lo12:__libc_single_threaded]
	ldrb	w0, [x0]
	cbz	w0, .L191
	ldr	w0, [x19, 12]
	sub	w1, w0, #1
	str	w1, [x19, 12]
.L192:
	cmp	w0, 1
	beq	.L203
.L132:
	ldp	x19, x20, [sp, 16]
	ldr	x21, [sp, 32]
	ldp	x29, x30, [sp], 48
	.cfi_remember_state
	.cfi_restore 30
	.cfi_restore 29
	.cfi_restore 21
	.cfi_restore 19
	.cfi_restore 20
	.cfi_def_cfa_offset 0
	ret
	.p2align 2,,3
.L195:
	.cfi_restore_state
	ldr	x1, [x21]
	mov	x0, x21
	ldr	x1, [x1, 16]
	blr	x1
	ldr	x20, [x20, #:got_lo12:__libc_single_threaded]
	ldrb	w0, [x20]
	cbz	w0, .L138
	ldr	w0, [x21, 12]
	sub	w1, w0, #1
	str	w1, [x21, 12]
.L139:
	cmp	w0, 1
	bne	.L134
	ldr	x1, [x21]
	mov	x0, x21
	ldr	x1, [x1, 24]
	blr	x1
	b	.L134
	.p2align 2,,3
.L196:
	ldr	x1, [x21]
	mov	x0, x21
	ldr	x1, [x1, 16]
	blr	x1
	ldr	x20, [x20, #:got_lo12:__libc_single_threaded]
	ldrb	w0, [x20]
	cbz	w0, .L145
	ldr	w0, [x21, 12]
	sub	w1, w0, #1
	str	w1, [x21, 12]
.L146:
	cmp	w0, 1
	bne	.L141
	ldr	x1, [x21]
	mov	x0, x21
	ldr	x1, [x1, 24]
	blr	x1
	b	.L141
	.p2align 2,,3
.L197:
	ldr	x1, [x21]
	mov	x0, x21
	ldr	x1, [x1, 16]
	blr	x1
	ldr	x20, [x20, #:got_lo12:__libc_single_threaded]
	ldrb	w0, [x20]
	cbz	w0, .L152
	ldr	w0, [x21, 12]
	sub	w1, w0, #1
	str	w1, [x21, 12]
.L153:
	cmp	w0, 1
	bne	.L148
	ldr	x1, [x21]
	mov	x0, x21
	ldr	x1, [x1, 24]
	blr	x1
	b	.L148
	.p2align 2,,3
.L201:
	ldr	x1, [x21]
	mov	x0, x21
	ldr	x1, [x1, 16]
	blr	x1
	ldr	x20, [x20, #:got_lo12:__libc_single_threaded]
	ldrb	w0, [x20]
	cbz	w0, .L180
	ldr	w0, [x21, 12]
	sub	w1, w0, #1
	str	w1, [x21, 12]
.L181:
	cmp	w0, 1
	bne	.L176
	ldr	x1, [x21]
	mov	x0, x21
	ldr	x1, [x1, 24]
	blr	x1
	b	.L176
	.p2align 2,,3
.L199:
	ldr	x1, [x21]
	mov	x0, x21
	ldr	x1, [x1, 16]
	blr	x1
	ldr	x20, [x20, #:got_lo12:__libc_single_threaded]
	ldrb	w0, [x20]
	cbz	w0, .L166
	ldr	w0, [x21, 12]
	sub	w1, w0, #1
	str	w1, [x21, 12]
.L167:
	cmp	w0, 1
	bne	.L162
	ldr	x1, [x21]
	mov	x0, x21
	ldr	x1, [x1, 24]
	blr	x1
	b	.L162
	.p2align 2,,3
.L203:
	ldr	x1, [x19]
	mov	x0, x19
	ldp	x19, x20, [sp, 16]
	ldr	x21, [sp, 32]
	ldp	x29, x30, [sp], 48
	.cfi_remember_state
	.cfi_restore 30
	.cfi_restore 29
	.cfi_restore 21
	.cfi_restore 19
	.cfi_restore 20
	.cfi_def_cfa_offset 0
	ldr	x1, [x1, 24]
	mov	x16, x1
	br	x16
	.p2align 2,,3
.L198:
	.cfi_restore_state
	ldr	x1, [x21]
	mov	x0, x21
	ldr	x1, [x1, 16]
	blr	x1
	ldr	x20, [x20, #:got_lo12:__libc_single_threaded]
	ldrb	w0, [x20]
	cbz	w0, .L159
	ldr	w0, [x21, 12]
	sub	w1, w0, #1
	str	w1, [x21, 12]
.L160:
	cmp	w0, 1
	bne	.L155
	ldr	x1, [x21]
	mov	x0, x21
	ldr	x1, [x1, 24]
	blr	x1
	b	.L155
	.p2align 2,,3
.L200:
	ldr	x1, [x21]
	mov	x0, x21
	ldr	x1, [x1, 16]
	blr	x1
	ldr	x20, [x20, #:got_lo12:__libc_single_threaded]
	ldrb	w0, [x20]
	cbz	w0, .L173
	ldr	w0, [x21, 12]
	sub	w1, w0, #1
	str	w1, [x21, 12]
.L174:
	cmp	w0, 1
	bne	.L169
	ldr	x1, [x21]
	mov	x0, x21
	ldr	x1, [x1, 24]
	blr	x1
	b	.L169
	.p2align 2,,3
.L202:
	ldr	x1, [x21]
	mov	x0, x21
	ldr	x1, [x1, 16]
	blr	x1
	ldr	x20, [x20, #:got_lo12:__libc_single_threaded]
	ldrb	w0, [x20]
	cbz	w0, .L187
	ldr	w0, [x21, 12]
	sub	w1, w0, #1
	str	w1, [x21, 12]
.L188:
	cmp	w0, 1
	bne	.L183
	ldr	x1, [x21]
	mov	x0, x21
	ldr	x1, [x1, 24]
	blr	x1
	b	.L183
	.p2align 2,,3
.L170:
	add	x1, x21, 8
	mov	w0, -1
	bl	__aarch64_ldadd4_acq_rel
	b	.L171
	.p2align 2,,3
.L163:
	add	x1, x21, 8
	mov	w0, -1
	bl	__aarch64_ldadd4_acq_rel
	b	.L164
	.p2align 2,,3
.L142:
	add	x1, x21, 8
	mov	w0, -1
	bl	__aarch64_ldadd4_acq_rel
	b	.L143
	.p2align 2,,3
.L149:
	add	x1, x21, 8
	mov	w0, -1
	bl	__aarch64_ldadd4_acq_rel
	b	.L150
	.p2align 2,,3
.L156:
	add	x1, x21, 8
	mov	w0, -1
	bl	__aarch64_ldadd4_acq_rel
	b	.L157
	.p2align 2,,3
.L191:
	add	x1, x19, 12
	mov	w0, -1
	bl	__aarch64_ldadd4_acq_rel
	b	.L192
	.p2align 2,,3
.L184:
	add	x1, x21, 8
	mov	w0, -1
	bl	__aarch64_ldadd4_acq_rel
	b	.L185
	.p2align 2,,3
.L135:
	add	x1, x21, 8
	mov	w0, -1
	bl	__aarch64_ldadd4_acq_rel
	b	.L136
	.p2align 2,,3
.L177:
	add	x1, x21, 8
	mov	w0, -1
	bl	__aarch64_ldadd4_acq_rel
	b	.L178
	.p2align 2,,3
.L166:
	add	x1, x21, 12
	mov	w0, -1
	bl	__aarch64_ldadd4_acq_rel
	b	.L167
	.p2align 2,,3
.L187:
	add	x1, x21, 12
	mov	w0, -1
	bl	__aarch64_ldadd4_acq_rel
	b	.L188
	.p2align 2,,3
.L152:
	add	x1, x21, 12
	mov	w0, -1
	bl	__aarch64_ldadd4_acq_rel
	b	.L153
	.p2align 2,,3
.L173:
	add	x1, x21, 12
	mov	w0, -1
	bl	__aarch64_ldadd4_acq_rel
	b	.L174
	.p2align 2,,3
.L138:
	add	x1, x21, 12
	mov	w0, -1
	bl	__aarch64_ldadd4_acq_rel
	b	.L139
	.p2align 2,,3
.L145:
	add	x1, x21, 12
	mov	w0, -1
	bl	__aarch64_ldadd4_acq_rel
	b	.L146
	.p2align 2,,3
.L180:
	add	x1, x21, 12
	mov	w0, -1
	bl	__aarch64_ldadd4_acq_rel
	b	.L181
	.p2align 2,,3
.L159:
	add	x1, x21, 12
	mov	w0, -1
	bl	__aarch64_ldadd4_acq_rel
	b	.L160
	.cfi_endproc
.LFE11237:
	.size	_ZNSt23_Sp_counted_ptr_inplaceIN8asiodnp311LinkSessionESaIS1_ELN9__gnu_cxx12_Lock_policyE2EE10_M_disposeEv, .-_ZNSt23_Sp_counted_ptr_inplaceIN8asiodnp311LinkSessionESaIS1_ELN9__gnu_cxx12_Lock_policyE2EE10_M_disposeEv
	.section	.text.unlikely._ZSt20__throw_bad_weak_ptrv,"axG",@progbits,_ZSt20__throw_bad_weak_ptrv,comdat
	.align	2
	.weak	_ZSt20__throw_bad_weak_ptrv
	.type	_ZSt20__throw_bad_weak_ptrv, %function
_ZSt20__throw_bad_weak_ptrv:
.LFB1256:
	.cfi_startproc
	stp	x29, x30, [sp, -16]!
	.cfi_def_cfa_offset 16
	.cfi_offset 29, -16
	.cfi_offset 30, -8
	mov	x0, 8
	mov	x29, sp
	bl	__cxa_allocate_exception
	adrp	x3, :got:_ZTVSt12bad_weak_ptr
	adrp	x2, :got:_ZNSt12bad_weak_ptrD1Ev
	adrp	x1, :got:_ZTISt12bad_weak_ptr
	ldr	x3, [x3, #:got_lo12:_ZTVSt12bad_weak_ptr]
	ldr	x2, [x2, #:got_lo12:_ZNSt12bad_weak_ptrD1Ev]
	add	x3, x3, 16
	ldr	x1, [x1, #:got_lo12:_ZTISt12bad_weak_ptr]
	str	x3, [x0]
	bl	__cxa_throw
	.cfi_endproc
.LFE1256:
	.size	_ZSt20__throw_bad_weak_ptrv, .-_ZSt20__throw_bad_weak_ptrv
	.section	.text._ZN7openpal6LoggerD2Ev,"axG",@progbits,_ZN7openpal6LoggerD5Ev,comdat
	.align	2
	.p2align 4,,11
	.weak	_ZN7openpal6LoggerD2Ev
	.type	_ZN7openpal6LoggerD2Ev, %function
_ZN7openpal6LoggerD2Ev:
.LFB2070:
	.cfi_startproc
	stp	x29, x30, [sp, -48]!
	.cfi_def_cfa_offset 48
	.cfi_offset 29, -48
	.cfi_offset 30, -40
	mov	x29, sp
	stp	x19, x20, [sp, 16]
	.cfi_offset 19, -32
	.cfi_offset 20, -24
	mov	x19, x0
	ldr	x20, [x0, 24]
	str	x21, [sp, 32]
	.cfi_offset 21, -16
	cbz	x20, .L208
	adrp	x21, :got:__libc_single_threaded
	ldr	x0, [x21, #:got_lo12:__libc_single_threaded]
	ldrb	w0, [x0]
	cbz	w0, .L209
	ldr	w0, [x20, 8]
	sub	w1, w0, #1
	str	w1, [x20, 8]
.L210:
	cmp	w0, 1
	beq	.L222
.L208:
	ldr	x19, [x19, 8]
	cbz	x19, .L206
	adrp	x21, :got:__libc_single_threaded
	ldr	x0, [x21, #:got_lo12:__libc_single_threaded]
	ldrb	w0, [x0]
	cbz	w0, .L216
	ldr	w0, [x19, 8]
	sub	w1, w0, #1
	str	w1, [x19, 8]
.L217:
	cmp	w0, 1
	beq	.L223
.L206:
	ldp	x19, x20, [sp, 16]
	ldr	x21, [sp, 32]
	ldp	x29, x30, [sp], 48
	.cfi_remember_state
	.cfi_restore 30
	.cfi_restore 29
	.cfi_restore 21
	.cfi_restore 19
	.cfi_restore 20
	.cfi_def_cfa_offset 0
	ret
	.p2align 2,,3
.L222:
	.cfi_restore_state
	ldr	x1, [x20]
	mov	x0, x20
	ldr	x1, [x1, 16]
	blr	x1
	ldr	x21, [x21, #:got_lo12:__libc_single_threaded]
	ldrb	w0, [x21]
	cbz	w0, .L212
	ldr	w0, [x20, 12]
	sub	w1, w0, #1
	str	w1, [x20, 12]
.L213:
	cmp	w0, 1
	bne	.L208
	ldr	x1, [x20]
	mov	x0, x20
	ldr	x1, [x1, 24]
	blr	x1
	b	.L208
	.p2align 2,,3
.L223:
	ldr	x1, [x19]
	mov	x0, x19
	ldr	x1, [x1, 16]
	blr	x1
	ldr	x21, [x21, #:got_lo12:__libc_single_threaded]
	ldrb	w0, [x21]
	cbz	w0, .L219
	ldr	w0, [x19, 12]
	sub	w1, w0, #1
	str	w1, [x19, 12]
.L220:
	cmp	w0, 1
	bne	.L206
	ldr	x1, [x19]
	mov	x0, x19
	ldp	x19, x20, [sp, 16]
	ldr	x21, [sp, 32]
	ldp	x29, x30, [sp], 48
	.cfi_remember_state
	.cfi_restore 30
	.cfi_restore 29
	.cfi_restore 21
	.cfi_restore 19
	.cfi_restore 20
	.cfi_def_cfa_offset 0
	ldr	x1, [x1, 24]
	mov	x16, x1
	br	x16
	.p2align 2,,3
.L216:
	.cfi_restore_state
	add	x1, x19, 8
	mov	w0, -1
	bl	__aarch64_ldadd4_acq_rel
	b	.L217
	.p2align 2,,3
.L209:
	add	x1, x20, 8
	mov	w0, -1
	bl	__aarch64_ldadd4_acq_rel
	b	.L210
	.p2align 2,,3
.L212:
	add	x1, x20, 12
	mov	w0, -1
	bl	__aarch64_ldadd4_acq_rel
	b	.L213
	.p2align 2,,3
.L219:
	add	x1, x19, 12
	mov	w0, -1
	bl	__aarch64_ldadd4_acq_rel
	b	.L220
	.cfi_endproc
.LFE2070:
	.size	_ZN7openpal6LoggerD2Ev, .-_ZN7openpal6LoggerD2Ev
	.weak	_ZN7openpal6LoggerD1Ev
	.set	_ZN7openpal6LoggerD1Ev,_ZN7openpal6LoggerD2Ev
	.section	.rodata._ZNSt12system_errorC2ESt10error_codePKc.str1.8,"aMS",@progbits,1
	.align	3
.LC19:
	.string	": "
	.section	.text._ZNSt12system_errorC2ESt10error_codePKc,"axG",@progbits,_ZNSt12system_errorC5ESt10error_codePKc,comdat
	.align	2
	.p2align 4,,11
	.weak	_ZNSt12system_errorC2ESt10error_codePKc
	.type	_ZNSt12system_errorC2ESt10error_codePKc, %function
_ZNSt12system_errorC2ESt10error_codePKc:
.LFB2289:
	.cfi_startproc
	.cfi_personality 0x9b,DW.ref.__gxx_personality_v0
	.cfi_lsda 0x1b,.LLSDA2289
	stp	x29, x30, [sp, -176]!
	.cfi_def_cfa_offset 176
	.cfi_offset 29, -176
	.cfi_offset 30, -168
	adrp	x4, :got:__stack_chk_guard
	mov	x29, sp
	stp	x19, x20, [sp, 16]
	.cfi_offset 19, -160
	.cfi_offset 20, -152
	mov	x20, x2
	mov	x19, x0
	ldr	x2, [x4, #:got_lo12:__stack_chk_guard]
	stp	x21, x22, [sp, 32]
	mov	x0, x20
	ldr	x4, [x20]
	.cfi_offset 21, -144
	.cfi_offset 22, -136
	mov	x21, x1
	mov	x22, x3
	ldr	x4, [x4, 32]
	str	x23, [sp, 48]
	.cfi_offset 23, -128
	add	x23, sp, 136
	mov	x8, x23
	ldr	x3, [x2]
	str	x3, [sp, 168]
	mov	x3, 0
.LEHB0:
	blr	x4
.LEHE0:
	adrp	x3, .LC19
	mov	x0, x23
	add	x3, x3, :lo12:.LC19
	mov	x4, 2
	mov	x2, 0
	mov	x1, 0
.LEHB1:
	bl	_ZNSt7__cxx1112basic_stringIcSt11char_traitsIcESaIcEE10_M_replaceEmmPKcm
.LEHE1:
	add	x23, sp, 120
	str	x23, [sp, 104]
	mov	x4, x0
	ldr	x1, [x0], 16
	cmp	x1, x0
	beq	.L244
	ldr	x2, [x4, 16]
	str	x1, [sp, 104]
	str	x2, [sp, 120]
.L226:
	ldr	x1, [x4, 8]
	str	x1, [sp, 112]
	stp	x0, xzr, [x4]
	mov	x0, x22
	strb	wzr, [x4, 16]
	bl	strlen
	mov	x4, x0
	mov	x3, x22
	add	x0, sp, 104
	mov	x2, 0
	mov	x1, 0
.LEHB2:
	bl	_ZNSt7__cxx1112basic_stringIcSt11char_traitsIcESaIcEE10_M_replaceEmmPKcm
.LEHE2:
	add	x22, sp, 88
	str	x22, [sp, 72]
	mov	x3, x0
	ldr	x1, [x0], 16
	cmp	x1, x0
	beq	.L245
	ldr	x2, [x3, 16]
	str	x1, [sp, 72]
	str	x2, [sp, 88]
.L228:
	ldr	x1, [x3, 8]
	str	x1, [sp, 80]
	stp	x0, xzr, [x3]
	add	x1, sp, 72
	mov	x0, x19
	strb	wzr, [x3, 16]
.LEHB3:
	bl	_ZNSt13runtime_errorC2ERKNSt7__cxx1112basic_stringIcSt11char_traitsIcESaIcEEE
.LEHE3:
	ldr	x0, [sp, 72]
	cmp	x0, x22
	beq	.L229
	ldr	x1, [sp, 88]
	add	x1, x1, 1
	bl	_ZdlPvm
.L229:
	ldr	x0, [sp, 104]
	cmp	x0, x23
	beq	.L230
	ldr	x1, [sp, 120]
	add	x1, x1, 1
	bl	_ZdlPvm
.L230:
	ldr	x0, [sp, 136]
	add	x1, sp, 152
	cmp	x0, x1
	beq	.L231
	ldr	x1, [sp, 152]
	add	x1, x1, 1
	bl	_ZdlPvm
.L231:
	adrp	x0, :got:_ZTVSt12system_error
	adrp	x1, :got:__stack_chk_guard
	stp	x21, x20, [x19, 16]
	ldr	x0, [x0, #:got_lo12:_ZTVSt12system_error]
	ldr	x1, [x1, #:got_lo12:__stack_chk_guard]
	add	x0, x0, 16
	str	x0, [x19]
	ldr	x0, [sp, 168]
	ldr	x2, [x1]
	subs	x0, x0, x2
	mov	x2, 0
	bne	.L246
	ldp	x19, x20, [sp, 16]
	ldp	x21, x22, [sp, 32]
	ldr	x23, [sp, 48]
	ldp	x29, x30, [sp], 176
	.cfi_remember_state
	.cfi_restore 30
	.cfi_restore 29
	.cfi_restore 23
	.cfi_restore 21
	.cfi_restore 22
	.cfi_restore 19
	.cfi_restore 20
	.cfi_def_cfa_offset 0
	ret
	.p2align 2,,3
.L244:
	.cfi_restore_state
	ldp	x2, x3, [x4, 16]
	stp	x2, x3, [sp, 120]
	b	.L226
	.p2align 2,,3
.L245:
	ldp	x4, x5, [x3, 16]
	stp	x4, x5, [sp, 88]
	b	.L228
.L246:
	bl	__stack_chk_fail
.L241:
	ldr	x2, [sp, 72]
	mov	x19, x0
	cmp	x2, x22
	beq	.L234
	ldr	x1, [sp, 88]
	mov	x0, x2
	add	x1, x1, 1
	bl	_ZdlPvm
.L234:
	ldr	x0, [sp, 104]
	cmp	x0, x23
	beq	.L236
	ldr	x1, [sp, 120]
	add	x1, x1, 1
	bl	_ZdlPvm
.L236:
	ldr	x0, [sp, 136]
	add	x1, sp, 152
	cmp	x0, x1
	beq	.L237
	ldr	x1, [sp, 152]
	add	x1, x1, 1
	bl	_ZdlPvm
.L237:
	mov	x0, x19
.LEHB4:
	bl	_Unwind_Resume
.LEHE4:
.L239:
	mov	x19, x0
	b	.L236
.L240:
	mov	x19, x0
	b	.L234
	.cfi_endproc
.LFE2289:
	.global	__gxx_personality_v0
	.section	.gcc_except_table._ZNSt12system_errorC2ESt10error_codePKc,"aG",@progbits,_ZNSt12system_errorC5ESt10error_codePKc,comdat
.LLSDA2289:
	.byte	0xff
	.byte	0xff
	.byte	0x1
	.uleb128 .LLSDACSE2289-.LLSDACSB2289
.LLSDACSB2289:
	.uleb128 .LEHB0-.LFB2289
	.uleb128 .LEHE0-.LEHB0
	.uleb128 0
	.uleb128 0
	.uleb128 .LEHB1-.LFB2289
	.uleb128 .LEHE1-.LEHB1
	.uleb128 .L239-.LFB2289
	.uleb128 0
	.uleb128 .LEHB2-.LFB2289
	.uleb128 .LEHE2-.LEHB2
	.uleb128 .L240-.LFB2289
	.uleb128 0
	.uleb128 .LEHB3-.LFB2289
	.uleb128 .LEHE3-.LEHB3
	.uleb128 .L241-.LFB2289
	.uleb128 0
	.uleb128 .LEHB4-.LFB2289
	.uleb128 .LEHE4-.LEHB4
	.uleb128 0
	.uleb128 0
.LLSDACSE2289:
	.section	.text._ZNSt12system_errorC2ESt10error_codePKc,"axG",@progbits,_ZNSt12system_errorC5ESt10error_codePKc,comdat
	.size	_ZNSt12system_errorC2ESt10error_codePKc, .-_ZNSt12system_errorC2ESt10error_codePKc
	.weak	_ZNSt12system_errorC1ESt10error_codePKc
	.set	_ZNSt12system_errorC1ESt10error_codePKc,_ZNSt12system_errorC2ESt10error_codePKc
	.section	.text._ZN4asio15system_categoryEv,"axG",@progbits,_ZN4asio15system_categoryEv,comdat
	.align	2
	.p2align 4,,11
	.weak	_ZN4asio15system_categoryEv
	.type	_ZN4asio15system_categoryEv, %function
_ZN4asio15system_categoryEv:
.LFB2342:
	.cfi_startproc
	stp	x29, x30, [sp, -32]!
	.cfi_def_cfa_offset 32
	.cfi_offset 29, -32
	.cfi_offset 30, -24
	mov	x29, sp
	stp	x19, x20, [sp, 16]
	.cfi_offset 19, -16
	.cfi_offset 20, -8
	adrp	x19, :got:_ZGVZN4asio15system_categoryEvE8instance
	ldr	x19, [x19, #:got_lo12:_ZGVZN4asio15system_categoryEvE8instance]
	ldar	x0, [x19]
	adrp	x20, :got:_ZZN4asio15system_categoryEvE8instance
	tbz	x0, 0, .L255
.L249:
	ldr	x0, [x20, #:got_lo12:_ZZN4asio15system_categoryEvE8instance]
	ldp	x19, x20, [sp, 16]
	ldp	x29, x30, [sp], 32
	.cfi_remember_state
	.cfi_restore 30
	.cfi_restore 29
	.cfi_restore 19
	.cfi_restore 20
	.cfi_def_cfa_offset 0
	ret
	.p2align 2,,3
.L255:
	.cfi_restore_state
	mov	x0, x19
	adrp	x20, :got:_ZZN4asio15system_categoryEvE8instance
	bl	__cxa_guard_acquire
	cbz	w0, .L249
	adrp	x0, :got:_ZN4asio6detail15system_categoryD1Ev
	adrp	x2, __dso_handle
	ldr	x1, [x20, #:got_lo12:_ZZN4asio15system_categoryEvE8instance]
	add	x2, x2, :lo12:__dso_handle
	ldr	x0, [x0, #:got_lo12:_ZN4asio6detail15system_categoryD1Ev]
	bl	__cxa_atexit
	mov	x0, x19
	bl	__cxa_guard_release
	ldr	x0, [x20, #:got_lo12:_ZZN4asio15system_categoryEvE8instance]
	ldp	x19, x20, [sp, 16]
	ldp	x29, x30, [sp], 32
	.cfi_restore 30
	.cfi_restore 29
	.cfi_restore 19
	.cfi_restore 20
	.cfi_def_cfa_offset 0
	ret
	.cfi_endproc
.LFE2342:
	.size	_ZN4asio15system_categoryEv, .-_ZN4asio15system_categoryEv
	.section	.text._ZNSt23_Sp_counted_ptr_inplaceIN7asiopal13SocketChannelESaIS1_ELN9__gnu_cxx12_Lock_policyE2EE10_M_disposeEv,"axG",@progbits,_ZNSt23_Sp_counted_ptr_inplaceIN7asiopal13SocketChannelESaIS1_ELN9__gnu_cxx12_Lock_policyE2EE10_M_disposeEv,comdat
	.align	2
	.p2align 4,,11
	.weak	_ZNSt23_Sp_counted_ptr_inplaceIN7asiopal13SocketChannelESaIS1_ELN9__gnu_cxx12_Lock_policyE2EE10_M_disposeEv
	.type	_ZNSt23_Sp_counted_ptr_inplaceIN7asiopal13SocketChannelESaIS1_ELN9__gnu_cxx12_Lock_policyE2EE10_M_disposeEv, %function
_ZNSt23_Sp_counted_ptr_inplaceIN7asiopal13SocketChannelESaIS1_ELN9__gnu_cxx12_Lock_policyE2EE10_M_disposeEv:
.LFB11230:
	.cfi_startproc
	.cfi_personality 0x9b,DW.ref.__gxx_personality_v0
	.cfi_lsda 0x1b,.LLSDA11230
	stp	x29, x30, [sp, -144]!
	.cfi_def_cfa_offset 144
	.cfi_offset 29, -144
	.cfi_offset 30, -136
	adrp	x2, :got:__stack_chk_guard
	adrp	x1, :got:_ZTVN7asiopal13SocketChannelE
	mov	x29, sp
	stp	x19, x20, [sp, 16]
	.cfi_offset 19, -128
	.cfi_offset 20, -120
	mov	x20, x0
	ldr	x2, [x2, #:got_lo12:__stack_chk_guard]
	stp	x21, x22, [sp, 32]
	ldr	w19, [x20, 80]
	ldr	x1, [x1, #:got_lo12:_ZTVN7asiopal13SocketChannelE]
	ldr	x0, [x2]
	str	x0, [sp, 136]
	mov	x0, 0
	add	x1, x1, 16
	str	x1, [x20, 16]
	cmn	w19, #1
	.cfi_offset 21, -112
	.cfi_offset 22, -104
	bne	.L394
.L257:
	adrp	x0, :got:_ZTVN7asiopal13IAsyncChannelE
	ldr	x19, [x20, 64]
	ldr	x0, [x0, #:got_lo12:_ZTVN7asiopal13IAsyncChannelE]
	add	x0, x0, 16
	str	x0, [x20, 16]
	cbz	x19, .L305
	adrp	x21, :got:__libc_single_threaded
	ldr	x0, [x21, #:got_lo12:__libc_single_threaded]
	ldrb	w0, [x0]
	cbz	w0, .L306
	ldr	w0, [x19, 8]
	sub	w1, w0, #1
	str	w1, [x19, 8]
.L307:
	cmp	w0, 1
	beq	.L395
.L305:
	ldr	x19, [x20, 48]
	cbz	x19, .L312
	adrp	x21, :got:__libc_single_threaded
	ldr	x0, [x21, #:got_lo12:__libc_single_threaded]
	ldrb	w0, [x0]
	cbz	w0, .L313
	ldr	w0, [x19, 8]
	sub	w1, w0, #1
	str	w1, [x19, 8]
.L314:
	cmp	w0, 1
	beq	.L396
.L312:
	ldr	x19, [x20, 32]
	cbz	x19, .L256
	adrp	x0, :got:__libc_single_threaded
	ldr	x0, [x0, #:got_lo12:__libc_single_threaded]
	ldrb	w0, [x0]
	cbz	w0, .L320
	ldr	w0, [x19, 12]
	sub	w1, w0, #1
	str	w1, [x19, 12]
.L321:
	cmp	w0, 1
	beq	.L397
.L256:
	adrp	x0, :got:__stack_chk_guard
	ldr	x0, [x0, #:got_lo12:__stack_chk_guard]
	ldr	x2, [sp, 136]
	ldr	x1, [x0]
	subs	x2, x2, x1
	mov	x1, 0
	bne	.L389
	ldp	x19, x20, [sp, 16]
	ldp	x21, x22, [sp, 32]
	ldp	x29, x30, [sp], 144
	.cfi_remember_state
	.cfi_restore 30
	.cfi_restore 29
	.cfi_restore 21
	.cfi_restore 22
	.cfi_restore 19
	.cfi_restore 20
	.cfi_def_cfa_offset 0
	ret
	.p2align 2,,3
.L394:
	.cfi_restore_state
	ldr	x22, [x20, 88]
	stp	x23, x24, [sp, 48]
	.cfi_offset 24, -88
	.cfi_offset 23, -96
	stp	x25, x26, [sp, 64]
	.cfi_offset 26, -72
	.cfi_offset 25, -80
	cbz	x22, .L287
	ldr	x1, [x20, 104]
	add	x22, x22, 40
	ldrb	w21, [x20, 84]
	mov	x0, x22
	ldr	x1, [x1, 40]
	str	x1, [sp, 96]
	bl	pthread_mutex_lock
	ldr	x3, [x20, 88]
	ldrb	w0, [x3, 152]
	cbnz	w0, .L259
	stp	x27, x28, [sp, 80]
	.cfi_offset 28, -56
	.cfi_offset 27, -64
	tbnz	x21, 6, .L398
.L260:
	adrp	x28, :got:_ZGVZN4asio15system_categoryEvE8instance
	adrp	x26, __dso_handle
	mov	x27, 0
	add	x0, x26, :lo12:__dso_handle
	ldr	x28, [x28, #:got_lo12:_ZGVZN4asio15system_categoryEvE8instance]
	mov	x24, 0
	mov	w21, 0
	str	x0, [sp, 104]
.L261:
	add	x0, x3, w21, sxtw 4
	sxtw	x25, w21
	ldr	x19, [x0, 104]
	cbz	x19, .L327
	adrp	x23, :got:_ZN4asio6detail15system_categoryD1Ev
	adrp	x26, :got:_ZZN4asio15system_categoryEvE8instance
	ldr	x23, [x23, #:got_lo12:_ZN4asio6detail15system_categoryD1Ev]
	ldar	x0, [x28]
	tbz	x0, 0, .L399
	.p2align 3,,7
.L263:
	ldr	x3, [x20, 88]
	mov	w0, 125
	str	w0, [x19, 24]
	ldr	x1, [x26, #:got_lo12:_ZZN4asio15system_categoryEvE8instance]
	add	x2, x3, x25, lsl 4
	str	x1, [x19, 32]
	ldr	x0, [x2, 104]
	cbz	x0, .L265
.L402:
	ldr	x1, [x0]
	str	x1, [x2, 104]
	cbz	x1, .L400
	str	xzr, [x0]
	str	xzr, [x19]
	cbz	x27, .L401
.L324:
	str	x19, [x27]
	cbz	x1, .L267
.L268:
	mov	x27, x19
	mov	x19, x1
	ldar	x0, [x28]
	tbnz	x0, 0, .L263
.L399:
	mov	x0, x28
	bl	__cxa_guard_acquire
	cbz	w0, .L263
	ldr	x1, [x26, #:got_lo12:_ZZN4asio15system_categoryEvE8instance]
	mov	x0, x23
	ldr	x2, [sp, 104]
	bl	__cxa_atexit
	mov	x0, x28
	bl	__cxa_guard_release
	ldr	x3, [x20, 88]
	mov	w0, 125
	str	w0, [x19, 24]
	ldr	x1, [x26, #:got_lo12:_ZZN4asio15system_categoryEvE8instance]
	add	x2, x3, x25, lsl 4
	str	x1, [x19, 32]
	ldr	x0, [x2, 104]
	cbnz	x0, .L402
	.p2align 3,,7
.L265:
	str	xzr, [x19]
	cbz	x27, .L328
	str	x19, [x27]
.L267:
	add	w21, w21, 1
	cmp	w21, 3
	beq	.L269
.L407:
	mov	x27, x19
	b	.L261
	.p2align 2,,3
.L259:
	.cfi_restore 27
	.cfi_restore 28
	mov	x0, x22
	bl	pthread_mutex_unlock
	ldr	w19, [x20, 80]
.L281:
	cmn	w19, #1
	beq	.L387
.L287:
	ldrb	w22, [x20, 84]
	bl	__errno_location
	adrp	x23, :got:_ZGVZN4asio15system_categoryEvE8instance
	mov	x21, x0
	tbnz	x22, 3, .L403
.L289:
	str	wzr, [x21]
	mov	w0, w19
	bl	close
	ldr	w25, [x21]
	ldr	x24, [x23, #:got_lo12:_ZGVZN4asio15system_categoryEvE8instance]
	mov	w22, w0
	ldar	x0, [x24]
	tbz	x0, 0, .L404
.L294:
	cbnz	w22, .L405
.L387:
	ldp	x23, x24, [sp, 48]
	.cfi_restore 24
	.cfi_restore 23
	ldp	x25, x26, [sp, 64]
	.cfi_restore 26
	.cfi_restore 25
	b	.L257
	.p2align 2,,3
.L395:
	ldr	x1, [x19]
	mov	x0, x19
	ldr	x1, [x1, 16]
	blr	x1
	ldr	x21, [x21, #:got_lo12:__libc_single_threaded]
	ldrb	w0, [x21]
	cbz	w0, .L309
	ldr	w0, [x19, 12]
	sub	w1, w0, #1
	str	w1, [x19, 12]
.L310:
	cmp	w0, 1
	bne	.L305
	ldr	x1, [x19]
	mov	x0, x19
	ldr	x1, [x1, 24]
	blr	x1
	b	.L305
	.p2align 2,,3
.L396:
	ldr	x1, [x19]
	mov	x0, x19
	ldr	x1, [x1, 16]
	blr	x1
	ldr	x21, [x21, #:got_lo12:__libc_single_threaded]
	ldrb	w0, [x21]
	cbz	w0, .L316
	ldr	w0, [x19, 12]
	sub	w1, w0, #1
	str	w1, [x19, 12]
.L317:
	cmp	w0, 1
	bne	.L312
	ldr	x1, [x19]
	mov	x0, x19
	ldr	x1, [x1, 24]
	blr	x1
	b	.L312
	.p2align 2,,3
.L397:
	adrp	x0, :got:__stack_chk_guard
	ldr	x0, [x0, #:got_lo12:__stack_chk_guard]
	ldr	x2, [sp, 136]
	ldr	x1, [x0]
	subs	x2, x2, x1
	mov	x1, 0
	bne	.L389
	ldr	x1, [x19]
	mov	x0, x19
	ldp	x19, x20, [sp, 16]
	ldr	x1, [x1, 24]
	ldp	x21, x22, [sp, 32]
	mov	x16, x1
	ldp	x29, x30, [sp], 144
	.cfi_remember_state
	.cfi_restore 30
	.cfi_restore 29
	.cfi_restore 21
	.cfi_restore 22
	.cfi_restore 19
	.cfi_restore 20
	.cfi_def_cfa_offset 0
	br	x16
	.p2align 2,,3
.L320:
	.cfi_restore_state
	add	x1, x19, 12
	mov	w0, -1
	bl	__aarch64_ldadd4_acq_rel
	b	.L321
	.p2align 2,,3
.L306:
	add	x1, x19, 8
	mov	w0, -1
	bl	__aarch64_ldadd4_acq_rel
	b	.L307
	.p2align 2,,3
.L313:
	add	x1, x19, 8
	mov	w0, -1
	bl	__aarch64_ldadd4_acq_rel
	b	.L314
	.p2align 2,,3
.L404:
	.cfi_offset 23, -96
	.cfi_offset 24, -88
	.cfi_offset 25, -80
	.cfi_offset 26, -72
	mov	x0, x24
	bl	__cxa_guard_acquire
	cbz	w0, .L294
	adrp	x1, :got:_ZZN4asio15system_categoryEvE8instance
	adrp	x0, :got:_ZN4asio6detail15system_categoryD1Ev
	adrp	x2, __dso_handle
	add	x2, x2, :lo12:__dso_handle
	ldr	x1, [x1, #:got_lo12:_ZZN4asio15system_categoryEvE8instance]
	ldr	x0, [x0, #:got_lo12:_ZN4asio6detail15system_categoryD1Ev]
	bl	__cxa_atexit
	mov	x0, x24
	bl	__cxa_guard_release
	cbz	w22, .L387
	.p2align 3,,7
.L405:
	ldr	x22, [x23, #:got_lo12:_ZGVZN4asio15system_categoryEvE8instance]
	ldar	x0, [x22]
	tbz	x0, 0, .L406
.L298:
	cmp	w25, 11
	beq	.L300
.L393:
	ldr	x23, [x23, #:got_lo12:_ZGVZN4asio15system_categoryEvE8instance]
	ldar	x0, [x23]
	tbnz	x0, 0, .L387
	mov	x0, x23
	bl	__cxa_guard_acquire
	cbz	w0, .L387
	adrp	x1, :got:_ZZN4asio15system_categoryEvE8instance
	adrp	x0, :got:_ZN4asio6detail15system_categoryD1Ev
	adrp	x2, __dso_handle
	add	x2, x2, :lo12:__dso_handle
	ldr	x1, [x1, #:got_lo12:_ZZN4asio15system_categoryEvE8instance]
	ldr	x0, [x0, #:got_lo12:_ZN4asio6detail15system_categoryD1Ev]
	bl	__cxa_atexit
	mov	x0, x23
	bl	__cxa_guard_release
	ldp	x23, x24, [sp, 48]
	.cfi_restore 24
	.cfi_restore 23
	ldp	x25, x26, [sp, 64]
	.cfi_restore 26
	.cfi_restore 25
	b	.L257
	.p2align 2,,3
.L400:
	.cfi_offset 23, -96
	.cfi_offset 24, -88
	.cfi_offset 25, -80
	.cfi_offset 26, -72
	.cfi_offset 27, -64
	.cfi_offset 28, -56
	str	xzr, [x2, 112]
	str	xzr, [x0]
	str	xzr, [x19]
	cbnz	x27, .L324
	.p2align 3,,7
.L328:
	add	w21, w21, 1
	mov	x24, x19
	cmp	w21, 3
	bne	.L407
.L269:
	ldr	x23, [sp, 96]
	mov	w1, 1
	mov	w0, -1
	str	w0, [x3, 96]
	strb	w1, [x3, 152]
	mov	x0, x22
	add	x22, x23, 128
	bl	pthread_mutex_unlock
	mov	x0, x22
	ldr	x21, [x20, 88]
	bl	pthread_mutex_lock
	ldr	x0, [x23, 176]
	cmp	x21, x0
	beq	.L408
.L271:
	ldr	x0, [x21, 32]
	cbz	x0, .L272
	ldr	x1, [x21, 24]
	str	x1, [x0, 24]
.L272:
	ldr	x0, [x21, 24]
	cbz	x0, .L273
	ldr	x1, [x21, 32]
	str	x1, [x0, 32]
.L273:
	ldr	x23, [sp, 96]
	mov	x0, x22
	ldr	x2, [x23, 184]
	stp	x2, xzr, [x21, 24]
	str	x21, [x23, 184]
	bl	pthread_mutex_unlock
	str	xzr, [x20, 88]
	cbz	x24, .L274
	ldr	x21, [x23, 40]
	ldrb	w0, [x21, 40]
	cbz	w0, .L275
	adrp	x0, :got:_ZN4asio6detail10call_stackINS0_15task_io_serviceENS0_27task_io_service_thread_infoEE4top_E
	ldr	x0, [x0, #:got_lo12:_ZN4asio6detail10call_stackINS0_15task_io_serviceENS0_27task_io_service_thread_infoEE4top_E]
	ldr	w0, [x0]
	bl	pthread_getspecific
	cbnz	x0, .L278
	b	.L275
	.p2align 2,,3
.L276:
	ldr	x0, [x0, 16]
	cbz	x0, .L275
.L278:
	ldr	x1, [x0]
	cmp	x21, x1
	bne	.L276
	ldr	x0, [x0, 8]
	cbz	x0, .L275
	ldr	x2, [x0, 16]
	add	x1, x0, 8
	cbz	x2, .L279
	str	x24, [x2]
	str	x19, [x1, 8]
	.p2align 3,,7
.L274:
	ldr	w19, [x20, 80]
	ldp	x27, x28, [sp, 80]
	.cfi_remember_state
	.cfi_restore 28
	.cfi_restore 27
	b	.L281
	.p2align 2,,3
.L401:
	.cfi_restore_state
	mov	x24, x19
	b	.L268
	.p2align 2,,3
.L403:
	.cfi_restore 27
	.cfi_restore 28
	orr	w22, w22, 8
	strb	w22, [x20, 84]
	str	wzr, [x21]
	add	x3, sp, 120
	mov	w0, w19
	mov	w4, 8
	mov	w2, 13
	mov	w1, 1
	str	xzr, [sp, 120]
	bl	setsockopt
	ldr	x22, [x23, #:got_lo12:_ZGVZN4asio15system_categoryEvE8instance]
	ldar	x0, [x22]
	tbnz	x0, 0, .L289
	mov	x0, x22
	bl	__cxa_guard_acquire
	cbz	w0, .L289
	adrp	x1, :got:_ZZN4asio15system_categoryEvE8instance
	adrp	x0, :got:_ZN4asio6detail15system_categoryD1Ev
	adrp	x2, __dso_handle
	add	x2, x2, :lo12:__dso_handle
	ldr	x1, [x1, #:got_lo12:_ZZN4asio15system_categoryEvE8instance]
	ldr	x0, [x0, #:got_lo12:_ZN4asio6detail15system_categoryD1Ev]
	bl	__cxa_atexit
	mov	x0, x22
	bl	__cxa_guard_release
	b	.L289
	.p2align 2,,3
.L275:
	.cfi_offset 27, -64
	.cfi_offset 28, -56
	add	x23, x21, 48
	mov	x0, x23
	bl	pthread_mutex_lock
	ldr	x1, [x21, 208]
	add	x0, x21, 200
	cbz	x1, .L282
	str	x24, [x1]
.L283:
	str	x19, [x0, 8]
	add	x22, x21, 96
	ldr	x0, [x21, 144]
	orr	x0, x0, 1
	str	x0, [x21, 144]
	cmp	x0, 1
	beq	.L284
	mov	x0, x23
	bl	pthread_mutex_unlock
	mov	x0, x22
	bl	pthread_cond_signal
	b	.L274
.L284:
	ldrb	w1, [x21, 184]
	cbnz	w1, .L286
	ldr	x4, [x21, 152]
	cbz	x4, .L286
	mov	w1, 9
	strb	w0, [x21, 184]
	ldr	w2, [x4, 96]
	add	x0, x4, 96
	movk	w1, 0x8000, lsl 16
	str	w1, [sp, 120]
	str	x0, [sp, 128]
	add	x3, sp, 120
	mov	w1, 3
	ldr	w0, [x4, 104]
	bl	epoll_ctl
.L286:
	mov	x0, x23
	bl	pthread_mutex_unlock
	b	.L274
	.p2align 2,,3
.L309:
	.cfi_restore 23
	.cfi_restore 24
	.cfi_restore 25
	.cfi_restore 26
	.cfi_restore 27
	.cfi_restore 28
	add	x1, x19, 12
	mov	w0, -1
	bl	__aarch64_ldadd4_acq_rel
	b	.L310
	.p2align 2,,3
.L316:
	add	x1, x19, 12
	mov	w0, -1
	bl	__aarch64_ldadd4_acq_rel
	b	.L317
	.p2align 2,,3
.L398:
	.cfi_offset 23, -96
	.cfi_offset 24, -88
	.cfi_offset 25, -80
	.cfi_offset 26, -72
	.cfi_offset 27, -64
	.cfi_offset 28, -56
	ldr	x0, [sp, 96]
	str	wzr, [sp, 120]
	str	xzr, [sp, 128]
	add	x3, sp, 120
	mov	w2, w19
	mov	w1, 2
	ldr	w0, [x0, 104]
	bl	epoll_ctl
	ldr	x3, [x20, 88]
	b	.L260
	.p2align 2,,3
.L327:
	mov	x19, x27
	b	.L267
	.p2align 2,,3
.L408:
	ldr	x1, [sp, 96]
	ldr	x0, [x21, 24]
	str	x0, [x1, 176]
	b	.L271
.L406:
	.cfi_restore 27
	.cfi_restore 28
	mov	x0, x22
	bl	__cxa_guard_acquire
	cbz	w0, .L298
	adrp	x1, :got:_ZZN4asio15system_categoryEvE8instance
	adrp	x0, :got:_ZN4asio6detail15system_categoryD1Ev
	adrp	x2, __dso_handle
	add	x2, x2, :lo12:__dso_handle
	ldr	x1, [x1, #:got_lo12:_ZZN4asio15system_categoryEvE8instance]
	ldr	x0, [x0, #:got_lo12:_ZN4asio6detail15system_categoryD1Ev]
	bl	__cxa_atexit
	mov	x0, x22
	bl	__cxa_guard_release
	b	.L298
.L300:
	add	x2, sp, 120
	mov	w0, w19
	mov	x1, 21537
	str	wzr, [sp, 120]
	bl	ioctl
	ldrb	w1, [x20, 84]
	mov	w0, w19
	and	w1, w1, -4
	strb	w1, [x20, 84]
	str	wzr, [x21]
	bl	close
	b	.L393
.L282:
	.cfi_offset 27, -64
	.cfi_offset 28, -56
	str	x24, [x21, 200]
	b	.L283
.L279:
	str	x24, [x0, 8]
	str	x19, [x1, 8]
	b	.L274
.L389:
	.cfi_restore 23
	.cfi_restore 24
	.cfi_restore 25
	.cfi_restore 26
	.cfi_restore 27
	.cfi_restore 28
	stp	x23, x24, [sp, 48]
	.cfi_offset 24, -88
	.cfi_offset 23, -96
	stp	x25, x26, [sp, 64]
	.cfi_offset 26, -72
	.cfi_offset 25, -80
	stp	x27, x28, [sp, 80]
	.cfi_offset 28, -56
	.cfi_offset 27, -64
	bl	__stack_chk_fail
	.cfi_endproc
.LFE11230:
	.section	.gcc_except_table._ZNSt23_Sp_counted_ptr_inplaceIN7asiopal13SocketChannelESaIS1_ELN9__gnu_cxx12_Lock_policyE2EE10_M_disposeEv,"aG",@progbits,_ZNSt23_Sp_counted_ptr_inplaceIN7asiopal13SocketChannelESaIS1_ELN9__gnu_cxx12_Lock_policyE2EE10_M_disposeEv,comdat
.LLSDA11230:
	.byte	0xff
	.byte	0xff
	.byte	0x1
	.uleb128 .LLSDACSE11230-.LLSDACSB11230
.LLSDACSB11230:
.LLSDACSE11230:
	.section	.text._ZNSt23_Sp_counted_ptr_inplaceIN7asiopal13SocketChannelESaIS1_ELN9__gnu_cxx12_Lock_policyE2EE10_M_disposeEv,"axG",@progbits,_ZNSt23_Sp_counted_ptr_inplaceIN7asiopal13SocketChannelESaIS1_ELN9__gnu_cxx12_Lock_policyE2EE10_M_disposeEv,comdat
	.size	_ZNSt23_Sp_counted_ptr_inplaceIN7asiopal13SocketChannelESaIS1_ELN9__gnu_cxx12_Lock_policyE2EE10_M_disposeEv, .-_ZNSt23_Sp_counted_ptr_inplaceIN7asiopal13SocketChannelESaIS1_ELN9__gnu_cxx12_Lock_policyE2EE10_M_disposeEv
	.section	.text._ZN4asio6detail28reactive_socket_service_base7destroyERNS1_24base_implementation_typeE,"axG",@progbits,_ZN4asio6detail28reactive_socket_service_base7destroyERNS1_24base_implementation_typeE,comdat
	.align	2
	.p2align 4,,11
	.weak	_ZN4asio6detail28reactive_socket_service_base7destroyERNS1_24base_implementation_typeE
	.type	_ZN4asio6detail28reactive_socket_service_base7destroyERNS1_24base_implementation_typeE, %function
_ZN4asio6detail28reactive_socket_service_base7destroyERNS1_24base_implementation_typeE:
.LFB3930:
	.cfi_startproc
	stp	x29, x30, [sp, -144]!
	.cfi_def_cfa_offset 144
	.cfi_offset 29, -144
	.cfi_offset 30, -136
	adrp	x2, :got:__stack_chk_guard
	mov	x29, sp
	stp	x25, x26, [sp, 64]
	.cfi_offset 25, -80
	.cfi_offset 26, -72
	mov	x26, x1
	mov	x1, x0
	ldr	x2, [x2, #:got_lo12:__stack_chk_guard]
	stp	x19, x20, [sp, 16]
	.cfi_offset 19, -128
	.cfi_offset 20, -120
	ldr	w19, [x26]
	ldr	x0, [x2]
	str	x0, [sp, 136]
	mov	x0, 0
	cmn	w19, #1
	bne	.L523
.L409:
	adrp	x0, :got:__stack_chk_guard
	ldr	x0, [x0, #:got_lo12:__stack_chk_guard]
	ldr	x2, [sp, 136]
	ldr	x1, [x0]
	subs	x2, x2, x1
	mov	x1, 0
	bne	.L524
	ldp	x19, x20, [sp, 16]
	ldp	x25, x26, [sp, 64]
	ldp	x29, x30, [sp], 144
	.cfi_remember_state
	.cfi_restore 30
	.cfi_restore 29
	.cfi_restore 25
	.cfi_restore 26
	.cfi_restore 19
	.cfi_restore 20
	.cfi_def_cfa_offset 0
	ret
	.p2align 2,,3
.L523:
	.cfi_restore_state
	stp	x21, x22, [sp, 32]
	.cfi_offset 22, -104
	.cfi_offset 21, -112
	ldr	x21, [x26, 8]
	stp	x23, x24, [sp, 48]
	.cfi_offset 24, -88
	.cfi_offset 23, -96
	cbz	x21, .L440
	ldr	x1, [x1]
	add	x21, x21, 40
	ldrb	w20, [x26, 4]
	mov	x0, x21
	str	x1, [sp, 96]
	bl	pthread_mutex_lock
	ldr	x1, [x26, 8]
	ldrb	w0, [x1, 152]
	cbnz	w0, .L412
	stp	x27, x28, [sp, 80]
	.cfi_offset 28, -56
	.cfi_offset 27, -64
	tbnz	x20, 6, .L525
.L413:
	adrp	x28, :got:_ZGVZN4asio15system_categoryEvE8instance
	adrp	x25, __dso_handle
	mov	x27, 0
	add	x0, x25, :lo12:__dso_handle
	ldr	x28, [x28, #:got_lo12:_ZGVZN4asio15system_categoryEvE8instance]
	mov	x23, 0
	mov	w20, 0
	str	x0, [sp, 104]
.L414:
	add	x0, x1, w20, sxtw 4
	sxtw	x24, w20
	ldr	x19, [x0, 104]
	cbz	x19, .L461
	adrp	x22, :got:_ZN4asio6detail15system_categoryD1Ev
	adrp	x25, :got:_ZZN4asio15system_categoryEvE8instance
	ldr	x22, [x22, #:got_lo12:_ZN4asio6detail15system_categoryD1Ev]
	ldar	x0, [x28]
	tbz	x0, 0, .L526
	.p2align 3,,7
.L416:
	ldr	x1, [x26, 8]
	mov	w2, 125
	ldr	x0, [x25, #:got_lo12:_ZZN4asio15system_categoryEvE8instance]
	str	x0, [x19, 32]
	add	x3, x1, x24, lsl 4
	str	w2, [x19, 24]
	ldr	x0, [x3, 104]
	cbz	x0, .L418
.L529:
	ldr	x2, [x0]
	str	x2, [x3, 104]
	cbz	x2, .L527
	str	xzr, [x0]
	str	xzr, [x19]
	cbz	x27, .L528
.L458:
	str	x19, [x27]
	cbz	x2, .L420
.L421:
	mov	x27, x19
	mov	x19, x2
	ldar	x0, [x28]
	tbnz	x0, 0, .L416
.L526:
	mov	x0, x28
	bl	__cxa_guard_acquire
	cbz	w0, .L416
	ldr	x1, [x25, #:got_lo12:_ZZN4asio15system_categoryEvE8instance]
	mov	x0, x22
	ldr	x2, [sp, 104]
	bl	__cxa_atexit
	mov	x0, x28
	bl	__cxa_guard_release
	ldr	x1, [x26, 8]
	mov	w2, 125
	ldr	x0, [x25, #:got_lo12:_ZZN4asio15system_categoryEvE8instance]
	str	x0, [x19, 32]
	add	x3, x1, x24, lsl 4
	str	w2, [x19, 24]
	ldr	x0, [x3, 104]
	cbnz	x0, .L529
	.p2align 3,,7
.L418:
	str	xzr, [x19]
	cbz	x27, .L462
	str	x19, [x27]
.L420:
	add	w20, w20, 1
	cmp	w20, 3
	beq	.L422
.L534:
	mov	x27, x19
	b	.L414
	.p2align 2,,3
.L412:
	.cfi_restore 27
	.cfi_restore 28
	mov	x0, x21
	bl	pthread_mutex_unlock
	ldr	w19, [x26]
.L434:
	cmn	w19, #1
	beq	.L521
.L440:
	ldrb	w21, [x26, 4]
	bl	__errno_location
	adrp	x22, :got:_ZGVZN4asio15system_categoryEvE8instance
	mov	x20, x0
	tbnz	x21, 3, .L530
.L442:
	str	wzr, [x20]
	mov	w0, w19
	bl	close
	ldr	w24, [x20]
	ldr	x23, [x22, #:got_lo12:_ZGVZN4asio15system_categoryEvE8instance]
	mov	w21, w0
	ldar	x0, [x23]
	tbz	x0, 0, .L531
.L447:
	cbnz	w21, .L532
.L521:
	ldp	x21, x22, [sp, 32]
	.cfi_remember_state
	.cfi_restore 22
	.cfi_restore 21
	ldp	x23, x24, [sp, 48]
	.cfi_restore 24
	.cfi_restore 23
	b	.L409
	.p2align 2,,3
.L531:
	.cfi_restore_state
	mov	x0, x23
	bl	__cxa_guard_acquire
	cbz	w0, .L447
	adrp	x1, :got:_ZZN4asio15system_categoryEvE8instance
	adrp	x0, :got:_ZN4asio6detail15system_categoryD1Ev
	adrp	x2, __dso_handle
	add	x2, x2, :lo12:__dso_handle
	ldr	x1, [x1, #:got_lo12:_ZZN4asio15system_categoryEvE8instance]
	ldr	x0, [x0, #:got_lo12:_ZN4asio6detail15system_categoryD1Ev]
	bl	__cxa_atexit
	mov	x0, x23
	bl	__cxa_guard_release
	cbz	w21, .L521
	.p2align 3,,7
.L532:
	ldr	x21, [x22, #:got_lo12:_ZGVZN4asio15system_categoryEvE8instance]
	ldar	x0, [x21]
	tbz	x0, 0, .L533
.L451:
	cmp	w24, 11
	beq	.L453
	ldr	x22, [x22, #:got_lo12:_ZGVZN4asio15system_categoryEvE8instance]
	ldar	x0, [x22]
	tbnz	x0, 0, .L521
	mov	x0, x22
	bl	__cxa_guard_acquire
	cbz	w0, .L521
	adrp	x1, :got:_ZZN4asio15system_categoryEvE8instance
	adrp	x0, :got:_ZN4asio6detail15system_categoryD1Ev
	adrp	x2, __dso_handle
	add	x2, x2, :lo12:__dso_handle
	ldr	x1, [x1, #:got_lo12:_ZZN4asio15system_categoryEvE8instance]
	ldr	x0, [x0, #:got_lo12:_ZN4asio6detail15system_categoryD1Ev]
	bl	__cxa_atexit
	adrp	x0, :got:__stack_chk_guard
	ldr	x0, [x0, #:got_lo12:__stack_chk_guard]
	ldr	x2, [sp, 136]
	ldr	x1, [x0]
	subs	x2, x2, x1
	mov	x1, 0
	bne	.L522
	mov	x0, x22
	ldp	x19, x20, [sp, 16]
	ldp	x21, x22, [sp, 32]
	.cfi_restore 22
	.cfi_restore 21
	ldp	x23, x24, [sp, 48]
	.cfi_restore 24
	.cfi_restore 23
	ldp	x25, x26, [sp, 64]
	ldp	x29, x30, [sp], 144
	.cfi_restore 30
	.cfi_restore 29
	.cfi_restore 25
	.cfi_restore 26
	.cfi_restore 19
	.cfi_restore 20
	.cfi_def_cfa_offset 0
	b	__cxa_guard_release
	.p2align 2,,3
.L527:
	.cfi_def_cfa_offset 144
	.cfi_offset 19, -128
	.cfi_offset 20, -120
	.cfi_offset 21, -112
	.cfi_offset 22, -104
	.cfi_offset 23, -96
	.cfi_offset 24, -88
	.cfi_offset 25, -80
	.cfi_offset 26, -72
	.cfi_offset 27, -64
	.cfi_offset 28, -56
	.cfi_offset 29, -144
	.cfi_offset 30, -136
	str	xzr, [x3, 112]
	str	xzr, [x0]
	str	xzr, [x19]
	cbnz	x27, .L458
	.p2align 3,,7
.L462:
	add	w20, w20, 1
	mov	x23, x19
	cmp	w20, 3
	bne	.L534
.L422:
	ldr	x22, [sp, 96]
	mov	w2, 1
	mov	w0, -1
	str	w0, [x1, 96]
	strb	w2, [x1, 152]
	mov	x0, x21
	add	x21, x22, 128
	bl	pthread_mutex_unlock
	mov	x0, x21
	ldr	x20, [x26, 8]
	bl	pthread_mutex_lock
	ldr	x0, [x22, 176]
	cmp	x20, x0
	beq	.L535
.L424:
	ldr	x0, [x20, 32]
	cbz	x0, .L425
	ldr	x1, [x20, 24]
	str	x1, [x0, 24]
.L425:
	ldr	x0, [x20, 24]
	cbz	x0, .L426
	ldr	x1, [x20, 32]
	str	x1, [x0, 32]
.L426:
	ldr	x22, [sp, 96]
	mov	x0, x21
	ldr	x2, [x22, 184]
	stp	x2, xzr, [x20, 24]
	str	x20, [x22, 184]
	bl	pthread_mutex_unlock
	str	xzr, [x26, 8]
	cbz	x23, .L427
	ldr	x20, [x22, 40]
	ldrb	w0, [x20, 40]
	cbz	w0, .L428
	adrp	x0, :got:_ZN4asio6detail10call_stackINS0_15task_io_serviceENS0_27task_io_service_thread_infoEE4top_E
	ldr	x0, [x0, #:got_lo12:_ZN4asio6detail10call_stackINS0_15task_io_serviceENS0_27task_io_service_thread_infoEE4top_E]
	ldr	w0, [x0]
	bl	pthread_getspecific
	cbnz	x0, .L431
	b	.L428
	.p2align 2,,3
.L429:
	ldr	x0, [x0, 16]
	cbz	x0, .L428
.L431:
	ldr	x1, [x0]
	cmp	x20, x1
	bne	.L429
	ldr	x0, [x0, 8]
	cbz	x0, .L428
	ldr	x2, [x0, 16]
	add	x1, x0, 8
	cbz	x2, .L432
	str	x23, [x2]
	str	x19, [x1, 8]
	.p2align 3,,7
.L427:
	ldr	w19, [x26]
	ldp	x27, x28, [sp, 80]
	.cfi_remember_state
	.cfi_restore 28
	.cfi_restore 27
	b	.L434
	.p2align 2,,3
.L528:
	.cfi_restore_state
	mov	x23, x19
	b	.L421
	.p2align 2,,3
.L530:
	.cfi_restore 27
	.cfi_restore 28
	orr	w21, w21, 8
	strb	w21, [x26, 4]
	str	wzr, [x20]
	add	x3, sp, 120
	mov	w0, w19
	mov	w4, 8
	mov	w2, 13
	mov	w1, 1
	str	xzr, [sp, 120]
	bl	setsockopt
	ldr	x21, [x22, #:got_lo12:_ZGVZN4asio15system_categoryEvE8instance]
	ldar	x0, [x21]
	tbnz	x0, 0, .L442
	mov	x0, x21
	bl	__cxa_guard_acquire
	cbz	w0, .L442
	adrp	x1, :got:_ZZN4asio15system_categoryEvE8instance
	adrp	x0, :got:_ZN4asio6detail15system_categoryD1Ev
	adrp	x2, __dso_handle
	add	x2, x2, :lo12:__dso_handle
	ldr	x1, [x1, #:got_lo12:_ZZN4asio15system_categoryEvE8instance]
	ldr	x0, [x0, #:got_lo12:_ZN4asio6detail15system_categoryD1Ev]
	bl	__cxa_atexit
	mov	x0, x21
	bl	__cxa_guard_release
	b	.L442
	.p2align 2,,3
.L428:
	.cfi_offset 27, -64
	.cfi_offset 28, -56
	add	x22, x20, 48
	mov	x0, x22
	bl	pthread_mutex_lock
	ldr	x1, [x20, 208]
	add	x0, x20, 200
	cbz	x1, .L435
	str	x23, [x1]
.L436:
	str	x19, [x0, 8]
	add	x21, x20, 96
	ldr	x0, [x20, 144]
	orr	x0, x0, 1
	str	x0, [x20, 144]
	cmp	x0, 1
	beq	.L437
	mov	x0, x22
	bl	pthread_mutex_unlock
	mov	x0, x21
	bl	pthread_cond_signal
	b	.L427
.L437:
	ldrb	w1, [x20, 184]
	cbnz	w1, .L439
	ldr	x4, [x20, 152]
	cbz	x4, .L439
	mov	w1, 9
	strb	w0, [x20, 184]
	ldr	w2, [x4, 96]
	add	x0, x4, 96
	movk	w1, 0x8000, lsl 16
	str	w1, [sp, 120]
	str	x0, [sp, 128]
	add	x3, sp, 120
	mov	w1, 3
	ldr	w0, [x4, 104]
	bl	epoll_ctl
.L439:
	mov	x0, x22
	bl	pthread_mutex_unlock
	b	.L427
	.p2align 2,,3
.L461:
	mov	x19, x27
	b	.L420
	.p2align 2,,3
.L525:
	ldr	x0, [sp, 96]
	str	wzr, [sp, 120]
	str	xzr, [sp, 128]
	mov	w1, 2
	mov	w2, w19
	add	x3, sp, 120
	ldr	w0, [x0, 104]
	bl	epoll_ctl
	ldr	x1, [x26, 8]
	b	.L413
	.p2align 2,,3
.L535:
	ldr	x1, [sp, 96]
	ldr	x0, [x20, 24]
	str	x0, [x1, 176]
	b	.L424
.L533:
	.cfi_restore 27
	.cfi_restore 28
	mov	x0, x21
	bl	__cxa_guard_acquire
	cbz	w0, .L451
	adrp	x1, :got:_ZZN4asio15system_categoryEvE8instance
	adrp	x0, :got:_ZN4asio6detail15system_categoryD1Ev
	adrp	x2, __dso_handle
	add	x2, x2, :lo12:__dso_handle
	ldr	x1, [x1, #:got_lo12:_ZZN4asio15system_categoryEvE8instance]
	ldr	x0, [x0, #:got_lo12:_ZN4asio6detail15system_categoryD1Ev]
	bl	__cxa_atexit
	mov	x0, x21
	bl	__cxa_guard_release
	b	.L451
.L453:
	add	x2, sp, 120
	mov	w0, w19
	mov	x1, 21537
	str	wzr, [sp, 120]
	bl	ioctl
	ldrb	w1, [x26, 4]
	mov	w0, w19
	and	w1, w1, -4
	strb	w1, [x26, 4]
	str	wzr, [x20]
	bl	close
	ldr	x22, [x22, #:got_lo12:_ZGVZN4asio15system_categoryEvE8instance]
	ldar	x0, [x22]
	tbnz	x0, 0, .L521
	mov	x0, x22
	bl	__cxa_guard_acquire
	cbz	w0, .L521
	adrp	x1, :got:_ZZN4asio15system_categoryEvE8instance
	adrp	x0, :got:_ZN4asio6detail15system_categoryD1Ev
	adrp	x2, __dso_handle
	add	x2, x2, :lo12:__dso_handle
	ldr	x1, [x1, #:got_lo12:_ZZN4asio15system_categoryEvE8instance]
	ldr	x0, [x0, #:got_lo12:_ZN4asio6detail15system_categoryD1Ev]
	bl	__cxa_atexit
	mov	x0, x22
	bl	__cxa_guard_release
	ldp	x21, x22, [sp, 32]
	.cfi_restore 22
	.cfi_restore 21
	ldp	x23, x24, [sp, 48]
	.cfi_restore 24
	.cfi_restore 23
	b	.L409
.L435:
	.cfi_offset 21, -112
	.cfi_offset 22, -104
	.cfi_offset 23, -96
	.cfi_offset 24, -88
	.cfi_offset 27, -64
	.cfi_offset 28, -56
	str	x23, [x20, 200]
	b	.L436
.L432:
	str	x23, [x0, 8]
	str	x19, [x1, 8]
	b	.L427
.L524:
	.cfi_restore 21
	.cfi_restore 22
	.cfi_restore 23
	.cfi_restore 24
	.cfi_restore 27
	.cfi_restore 28
	stp	x21, x22, [sp, 32]
	.cfi_offset 22, -104
	.cfi_offset 21, -112
	stp	x23, x24, [sp, 48]
	.cfi_offset 24, -88
	.cfi_offset 23, -96
.L522:
	stp	x27, x28, [sp, 80]
	.cfi_offset 28, -56
	.cfi_offset 27, -64
	bl	__stack_chk_fail
	.cfi_endproc
.LFE3930:
	.size	_ZN4asio6detail28reactive_socket_service_base7destroyERNS1_24base_implementation_typeE, .-_ZN4asio6detail28reactive_socket_service_base7destroyERNS1_24base_implementation_typeE
	.section	.text._ZN8asiodnp315MasterTCPServerD2Ev,"axG",@progbits,_ZN8asiodnp315MasterTCPServerD5Ev,comdat
	.align	2
	.p2align 4,,11
	.weak	_ZN8asiodnp315MasterTCPServerD2Ev
	.type	_ZN8asiodnp315MasterTCPServerD2Ev, %function
_ZN8asiodnp315MasterTCPServerD2Ev:
.LFB11139:
	.cfi_startproc
	.cfi_personality 0x9b,DW.ref.__gxx_personality_v0
	.cfi_lsda 0x1b,.LLSDA11139
	stp	x29, x30, [sp, -144]!
	.cfi_def_cfa_offset 144
	.cfi_offset 29, -144
	.cfi_offset 30, -136
	adrp	x1, :got:__stack_chk_guard
	mov	x29, sp
	stp	x19, x20, [sp, 16]
	.cfi_offset 19, -128
	.cfi_offset 20, -120
	mov	x20, x0
	adrp	x0, :got:_ZTVN8asiodnp315MasterTCPServerE
	ldr	x1, [x1, #:got_lo12:__stack_chk_guard]
	stp	x21, x22, [sp, 32]
	ldr	x0, [x0, #:got_lo12:_ZTVN8asiodnp315MasterTCPServerE]
	ldr	x2, [x1]
	str	x2, [sp, 136]
	mov	x2, 0
	.cfi_offset 21, -112
	.cfi_offset 22, -104
	ldr	x21, [x20, 232]
	add	x0, x0, 16
	str	x0, [x20]
	cbz	x21, .L538
	adrp	x19, :got:__libc_single_threaded
	ldr	x0, [x19, #:got_lo12:__libc_single_threaded]
	ldrb	w0, [x0]
	cbz	w0, .L539
	ldr	w0, [x21, 8]
	sub	w1, w0, #1
	str	w1, [x21, 8]
.L540:
	cmp	w0, 1
	beq	.L695
.L538:
	ldr	x21, [x20, 216]
	cbz	x21, .L545
	adrp	x19, :got:__libc_single_threaded
	ldr	x0, [x19, #:got_lo12:__libc_single_threaded]
	ldrb	w0, [x0]
	cbz	w0, .L546
	ldr	w0, [x21, 8]
	sub	w1, w0, #1
	str	w1, [x21, 8]
.L547:
	cmp	w0, 1
	beq	.L696
.L545:
	adrp	x0, :got:_ZTVN7asiopal9TCPServerE
	mov	x1, x20
	ldr	x0, [x0, #:got_lo12:_ZTVN7asiopal9TCPServerE]
	add	x0, x0, 16
	str	x0, [x1], 136
	ldr	x0, [x1, 24]
	add	x0, x0, 40
	bl	_ZN4asio6detail28reactive_socket_service_base7destroyERNS1_24base_implementation_typeE
	ldr	w19, [x20, 104]
	cmn	w19, #1
	bne	.L697
.L551:
	ldr	x21, [x20, 64]
	cbz	x21, .L599
	adrp	x19, :got:__libc_single_threaded
	ldr	x0, [x19, #:got_lo12:__libc_single_threaded]
	ldrb	w0, [x0]
	cbz	w0, .L600
	ldr	w0, [x21, 8]
	sub	w1, w0, #1
	str	w1, [x21, 8]
.L601:
	cmp	w0, 1
	beq	.L698
.L599:
	ldr	x21, [x20, 48]
	cbz	x21, .L606
	adrp	x19, :got:__libc_single_threaded
	ldr	x0, [x19, #:got_lo12:__libc_single_threaded]
	ldrb	w0, [x0]
	cbz	w0, .L607
	ldr	w0, [x21, 8]
	sub	w1, w0, #1
	str	w1, [x21, 8]
.L608:
	cmp	w0, 1
	beq	.L699
.L606:
	ldr	x21, [x20, 32]
	cbz	x21, .L613
	adrp	x19, :got:__libc_single_threaded
	ldr	x0, [x19, #:got_lo12:__libc_single_threaded]
	ldrb	w0, [x0]
	cbz	w0, .L614
	ldr	w0, [x21, 8]
	sub	w1, w0, #1
	str	w1, [x21, 8]
.L615:
	cmp	w0, 1
	beq	.L700
.L613:
	ldr	x19, [x20, 16]
	cbz	x19, .L536
	adrp	x0, :got:__libc_single_threaded
	ldr	x0, [x0, #:got_lo12:__libc_single_threaded]
	ldrb	w0, [x0]
	cbz	w0, .L621
	ldr	w0, [x19, 12]
	sub	w1, w0, #1
	str	w1, [x19, 12]
.L622:
	cmp	w0, 1
	beq	.L701
.L536:
	adrp	x0, :got:__stack_chk_guard
	ldr	x0, [x0, #:got_lo12:__stack_chk_guard]
	ldr	x2, [sp, 136]
	ldr	x1, [x0]
	subs	x2, x2, x1
	mov	x1, 0
	bne	.L690
	ldp	x19, x20, [sp, 16]
	ldp	x21, x22, [sp, 32]
	ldp	x29, x30, [sp], 144
	.cfi_remember_state
	.cfi_restore 30
	.cfi_restore 29
	.cfi_restore 21
	.cfi_restore 22
	.cfi_restore 19
	.cfi_restore 20
	.cfi_def_cfa_offset 0
	ret
	.p2align 2,,3
.L697:
	.cfi_restore_state
	ldr	x22, [x20, 112]
	stp	x23, x24, [sp, 48]
	.cfi_offset 24, -88
	.cfi_offset 23, -96
	stp	x25, x26, [sp, 64]
	.cfi_offset 26, -72
	.cfi_offset 25, -80
	cbz	x22, .L581
	ldr	x1, [x20, 128]
	add	x22, x22, 40
	ldrb	w21, [x20, 108]
	mov	x0, x22
	ldr	x1, [x1, 40]
	str	x1, [sp, 96]
	bl	pthread_mutex_lock
	ldr	x3, [x20, 112]
	ldrb	w0, [x3, 152]
	cbnz	w0, .L553
	stp	x27, x28, [sp, 80]
	.cfi_offset 28, -56
	.cfi_offset 27, -64
	tbnz	x21, 6, .L702
.L554:
	adrp	x28, :got:_ZGVZN4asio15system_categoryEvE8instance
	adrp	x26, __dso_handle
	mov	x27, 0
	add	x0, x26, :lo12:__dso_handle
	ldr	x28, [x28, #:got_lo12:_ZGVZN4asio15system_categoryEvE8instance]
	mov	x24, 0
	mov	w21, 0
	str	x0, [sp, 104]
.L555:
	add	x0, x3, w21, sxtw 4
	sxtw	x25, w21
	ldr	x19, [x0, 104]
	cbz	x19, .L628
	adrp	x23, :got:_ZN4asio6detail15system_categoryD1Ev
	adrp	x26, :got:_ZZN4asio15system_categoryEvE8instance
	ldr	x23, [x23, #:got_lo12:_ZN4asio6detail15system_categoryD1Ev]
	ldar	x0, [x28]
	tbz	x0, 0, .L703
	.p2align 3,,7
.L557:
	ldr	x3, [x20, 112]
	mov	w1, 125
	ldr	x0, [x26, #:got_lo12:_ZZN4asio15system_categoryEvE8instance]
	str	x0, [x19, 32]
	add	x2, x3, x25, lsl 4
	str	w1, [x19, 24]
	ldr	x0, [x2, 104]
	cbz	x0, .L559
.L706:
	ldr	x1, [x0]
	str	x1, [x2, 104]
	cbz	x1, .L704
	str	xzr, [x0]
	str	xzr, [x19]
	cbz	x27, .L705
.L625:
	str	x19, [x27]
	cbz	x1, .L561
.L562:
	mov	x27, x19
	mov	x19, x1
	ldar	x0, [x28]
	tbnz	x0, 0, .L557
.L703:
	mov	x0, x28
	bl	__cxa_guard_acquire
	cbz	w0, .L557
	ldr	x1, [x26, #:got_lo12:_ZZN4asio15system_categoryEvE8instance]
	mov	x0, x23
	ldr	x2, [sp, 104]
	bl	__cxa_atexit
	mov	x0, x28
	bl	__cxa_guard_release
	ldr	x3, [x20, 112]
	mov	w1, 125
	ldr	x0, [x26, #:got_lo12:_ZZN4asio15system_categoryEvE8instance]
	str	x0, [x19, 32]
	add	x2, x3, x25, lsl 4
	str	w1, [x19, 24]
	ldr	x0, [x2, 104]
	cbnz	x0, .L706
	.p2align 3,,7
.L559:
	str	xzr, [x19]
	cbz	x27, .L629
	str	x19, [x27]
.L561:
	add	w21, w21, 1
	cmp	w21, 3
	beq	.L563
.L711:
	mov	x27, x19
	b	.L555
	.p2align 2,,3
.L553:
	.cfi_restore 27
	.cfi_restore 28
	mov	x0, x22
	bl	pthread_mutex_unlock
	ldr	w19, [x20, 104]
.L575:
	cmn	w19, #1
	beq	.L688
.L581:
	ldrb	w22, [x20, 108]
	bl	__errno_location
	adrp	x23, :got:_ZGVZN4asio15system_categoryEvE8instance
	mov	x21, x0
	tbnz	x22, 3, .L707
.L583:
	str	wzr, [x21]
	mov	w0, w19
	bl	close
	ldr	w25, [x21]
	ldr	x24, [x23, #:got_lo12:_ZGVZN4asio15system_categoryEvE8instance]
	mov	w22, w0
	ldar	x0, [x24]
	tbz	x0, 0, .L708
.L588:
	cbnz	w22, .L709
.L688:
	ldp	x23, x24, [sp, 48]
	.cfi_restore 24
	.cfi_restore 23
	ldp	x25, x26, [sp, 64]
	.cfi_restore 26
	.cfi_restore 25
	b	.L551
	.p2align 2,,3
.L695:
	ldr	x1, [x21]
	mov	x0, x21
	ldr	x1, [x1, 16]
	blr	x1
	ldr	x19, [x19, #:got_lo12:__libc_single_threaded]
	ldrb	w0, [x19]
	cbz	w0, .L542
	ldr	w0, [x21, 12]
	sub	w1, w0, #1
	str	w1, [x21, 12]
.L543:
	cmp	w0, 1
	bne	.L538
	ldr	x1, [x21]
	mov	x0, x21
	ldr	x1, [x1, 24]
	blr	x1
	b	.L538
	.p2align 2,,3
.L696:
	ldr	x1, [x21]
	mov	x0, x21
	ldr	x1, [x1, 16]
	blr	x1
	ldr	x19, [x19, #:got_lo12:__libc_single_threaded]
	ldrb	w0, [x19]
	cbz	w0, .L549
	ldr	w0, [x21, 12]
	sub	w1, w0, #1
	str	w1, [x21, 12]
.L550:
	cmp	w0, 1
	bne	.L545
	ldr	x1, [x21]
	mov	x0, x21
	ldr	x1, [x1, 24]
	blr	x1
	b	.L545
	.p2align 2,,3
.L698:
	ldr	x1, [x21]
	mov	x0, x21
	ldr	x1, [x1, 16]
	blr	x1
	ldr	x19, [x19, #:got_lo12:__libc_single_threaded]
	ldrb	w0, [x19]
	cbz	w0, .L603
	ldr	w0, [x21, 12]
	sub	w1, w0, #1
	str	w1, [x21, 12]
.L604:
	cmp	w0, 1
	bne	.L599
	ldr	x1, [x21]
	mov	x0, x21
	ldr	x1, [x1, 24]
	blr	x1
	b	.L599
	.p2align 2,,3
.L700:
	ldr	x1, [x21]
	mov	x0, x21
	ldr	x1, [x1, 16]
	blr	x1
	ldr	x19, [x19, #:got_lo12:__libc_single_threaded]
	ldrb	w0, [x19]
	cbz	w0, .L617
	ldr	w0, [x21, 12]
	sub	w1, w0, #1
	str	w1, [x21, 12]
.L618:
	cmp	w0, 1
	bne	.L613
	ldr	x1, [x21]
	mov	x0, x21
	ldr	x1, [x1, 24]
	blr	x1
	b	.L613
	.p2align 2,,3
.L699:
	ldr	x1, [x21]
	mov	x0, x21
	ldr	x1, [x1, 16]
	blr	x1
	ldr	x19, [x19, #:got_lo12:__libc_single_threaded]
	ldrb	w0, [x19]
	cbz	w0, .L610
	ldr	w0, [x21, 12]
	sub	w1, w0, #1
	str	w1, [x21, 12]
.L611:
	cmp	w0, 1
	bne	.L606
	ldr	x1, [x21]
	mov	x0, x21
	ldr	x1, [x1, 24]
	blr	x1
	b	.L606
	.p2align 2,,3
.L701:
	adrp	x0, :got:__stack_chk_guard
	ldr	x0, [x0, #:got_lo12:__stack_chk_guard]
	ldr	x2, [sp, 136]
	ldr	x1, [x0]
	subs	x2, x2, x1
	mov	x1, 0
	bne	.L690
	ldr	x1, [x19]
	mov	x0, x19
	ldp	x19, x20, [sp, 16]
	ldr	x1, [x1, 24]
	ldp	x21, x22, [sp, 32]
	mov	x16, x1
	ldp	x29, x30, [sp], 144
	.cfi_remember_state
	.cfi_restore 30
	.cfi_restore 29
	.cfi_restore 21
	.cfi_restore 22
	.cfi_restore 19
	.cfi_restore 20
	.cfi_def_cfa_offset 0
	br	x16
	.p2align 2,,3
.L600:
	.cfi_restore_state
	add	x1, x21, 8
	mov	w0, -1
	bl	__aarch64_ldadd4_acq_rel
	b	.L601
	.p2align 2,,3
.L607:
	add	x1, x21, 8
	mov	w0, -1
	bl	__aarch64_ldadd4_acq_rel
	b	.L608
	.p2align 2,,3
.L614:
	add	x1, x21, 8
	mov	w0, -1
	bl	__aarch64_ldadd4_acq_rel
	b	.L615
	.p2align 2,,3
.L621:
	add	x1, x19, 12
	mov	w0, -1
	bl	__aarch64_ldadd4_acq_rel
	b	.L622
	.p2align 2,,3
.L539:
	add	x1, x21, 8
	mov	w0, -1
	bl	__aarch64_ldadd4_acq_rel
	b	.L540
	.p2align 2,,3
.L546:
	add	x1, x21, 8
	mov	w0, -1
	bl	__aarch64_ldadd4_acq_rel
	b	.L547
	.p2align 2,,3
.L708:
	.cfi_offset 23, -96
	.cfi_offset 24, -88
	.cfi_offset 25, -80
	.cfi_offset 26, -72
	mov	x0, x24
	bl	__cxa_guard_acquire
	cbz	w0, .L588
	adrp	x1, :got:_ZZN4asio15system_categoryEvE8instance
	adrp	x0, :got:_ZN4asio6detail15system_categoryD1Ev
	adrp	x2, __dso_handle
	add	x2, x2, :lo12:__dso_handle
	ldr	x1, [x1, #:got_lo12:_ZZN4asio15system_categoryEvE8instance]
	ldr	x0, [x0, #:got_lo12:_ZN4asio6detail15system_categoryD1Ev]
	bl	__cxa_atexit
	mov	x0, x24
	bl	__cxa_guard_release
	cbz	w22, .L688
	.p2align 3,,7
.L709:
	ldr	x22, [x23, #:got_lo12:_ZGVZN4asio15system_categoryEvE8instance]
	ldar	x0, [x22]
	tbz	x0, 0, .L710
.L592:
	cmp	w25, 11
	beq	.L594
.L694:
	ldr	x23, [x23, #:got_lo12:_ZGVZN4asio15system_categoryEvE8instance]
	ldar	x0, [x23]
	tbnz	x0, 0, .L688
	mov	x0, x23
	bl	__cxa_guard_acquire
	cbz	w0, .L688
	adrp	x1, :got:_ZZN4asio15system_categoryEvE8instance
	adrp	x0, :got:_ZN4asio6detail15system_categoryD1Ev
	adrp	x2, __dso_handle
	add	x2, x2, :lo12:__dso_handle
	ldr	x1, [x1, #:got_lo12:_ZZN4asio15system_categoryEvE8instance]
	ldr	x0, [x0, #:got_lo12:_ZN4asio6detail15system_categoryD1Ev]
	bl	__cxa_atexit
	mov	x0, x23
	bl	__cxa_guard_release
	ldp	x23, x24, [sp, 48]
	.cfi_restore 24
	.cfi_restore 23
	ldp	x25, x26, [sp, 64]
	.cfi_restore 26
	.cfi_restore 25
	b	.L551
	.p2align 2,,3
.L704:
	.cfi_offset 23, -96
	.cfi_offset 24, -88
	.cfi_offset 25, -80
	.cfi_offset 26, -72
	.cfi_offset 27, -64
	.cfi_offset 28, -56
	str	xzr, [x2, 112]
	str	xzr, [x0]
	str	xzr, [x19]
	cbnz	x27, .L625
	.p2align 3,,7
.L629:
	add	w21, w21, 1
	mov	x24, x19
	cmp	w21, 3
	bne	.L711
.L563:
	ldr	x23, [sp, 96]
	mov	w1, 1
	mov	w0, -1
	str	w0, [x3, 96]
	strb	w1, [x3, 152]
	mov	x0, x22
	add	x22, x23, 128
	bl	pthread_mutex_unlock
	mov	x0, x22
	ldr	x21, [x20, 112]
	bl	pthread_mutex_lock
	ldr	x0, [x23, 176]
	cmp	x21, x0
	beq	.L712
.L565:
	ldr	x0, [x21, 32]
	cbz	x0, .L566
	ldr	x1, [x21, 24]
	str	x1, [x0, 24]
.L566:
	ldr	x0, [x21, 24]
	cbz	x0, .L567
	ldr	x1, [x21, 32]
	str	x1, [x0, 32]
.L567:
	ldr	x23, [sp, 96]
	mov	x0, x22
	ldr	x2, [x23, 184]
	stp	x2, xzr, [x21, 24]
	str	x21, [x23, 184]
	bl	pthread_mutex_unlock
	str	xzr, [x20, 112]
	cbz	x24, .L568
	ldr	x21, [x23, 40]
	ldrb	w0, [x21, 40]
	cbz	w0, .L569
	adrp	x0, :got:_ZN4asio6detail10call_stackINS0_15task_io_serviceENS0_27task_io_service_thread_infoEE4top_E
	ldr	x0, [x0, #:got_lo12:_ZN4asio6detail10call_stackINS0_15task_io_serviceENS0_27task_io_service_thread_infoEE4top_E]
	ldr	w0, [x0]
	bl	pthread_getspecific
	cbnz	x0, .L572
	b	.L569
	.p2align 2,,3
.L570:
	ldr	x0, [x0, 16]
	cbz	x0, .L569
.L572:
	ldr	x1, [x0]
	cmp	x21, x1
	bne	.L570
	ldr	x0, [x0, 8]
	cbz	x0, .L569
	ldr	x2, [x0, 16]
	add	x1, x0, 8
	cbz	x2, .L573
	str	x24, [x2]
	str	x19, [x1, 8]
	.p2align 3,,7
.L568:
	ldr	w19, [x20, 104]
	ldp	x27, x28, [sp, 80]
	.cfi_remember_state
	.cfi_restore 28
	.cfi_restore 27
	b	.L575
	.p2align 2,,3
.L705:
	.cfi_restore_state
	mov	x24, x19
	b	.L562
	.p2align 2,,3
.L707:
	.cfi_restore 27
	.cfi_restore 28
	orr	w22, w22, 8
	strb	w22, [x20, 108]
	str	wzr, [x21]
	add	x3, sp, 120
	mov	w0, w19
	mov	w4, 8
	mov	w2, 13
	mov	w1, 1
	str	xzr, [sp, 120]
	bl	setsockopt
	ldr	x22, [x23, #:got_lo12:_ZGVZN4asio15system_categoryEvE8instance]
	ldar	x0, [x22]
	tbnz	x0, 0, .L583
	mov	x0, x22
	bl	__cxa_guard_acquire
	cbz	w0, .L583
	adrp	x1, :got:_ZZN4asio15system_categoryEvE8instance
	adrp	x0, :got:_ZN4asio6detail15system_categoryD1Ev
	adrp	x2, __dso_handle
	add	x2, x2, :lo12:__dso_handle
	ldr	x1, [x1, #:got_lo12:_ZZN4asio15system_categoryEvE8instance]
	ldr	x0, [x0, #:got_lo12:_ZN4asio6detail15system_categoryD1Ev]
	bl	__cxa_atexit
	mov	x0, x22
	bl	__cxa_guard_release
	b	.L583
	.p2align 2,,3
.L569:
	.cfi_offset 27, -64
	.cfi_offset 28, -56
	add	x23, x21, 48
	mov	x0, x23
	bl	pthread_mutex_lock
	ldr	x1, [x21, 208]
	add	x0, x21, 200
	cbz	x1, .L576
	str	x24, [x1]
.L577:
	str	x19, [x0, 8]
	add	x22, x21, 96
	ldr	x0, [x21, 144]
	orr	x0, x0, 1
	str	x0, [x21, 144]
	cmp	x0, 1
	beq	.L578
	mov	x0, x23
	bl	pthread_mutex_unlock
	mov	x0, x22
	bl	pthread_cond_signal
	b	.L568
.L578:
	ldrb	w1, [x21, 184]
	cbnz	w1, .L580
	ldr	x4, [x21, 152]
	cbz	x4, .L580
	mov	w1, 9
	strb	w0, [x21, 184]
	ldr	w2, [x4, 96]
	add	x0, x4, 96
	movk	w1, 0x8000, lsl 16
	str	w1, [sp, 120]
	str	x0, [sp, 128]
	add	x3, sp, 120
	mov	w1, 3
	ldr	w0, [x4, 104]
	bl	epoll_ctl
.L580:
	mov	x0, x23
	bl	pthread_mutex_unlock
	b	.L568
	.p2align 2,,3
.L542:
	.cfi_restore 23
	.cfi_restore 24
	.cfi_restore 25
	.cfi_restore 26
	.cfi_restore 27
	.cfi_restore 28
	add	x1, x21, 12
	mov	w0, -1
	bl	__aarch64_ldadd4_acq_rel
	b	.L543
	.p2align 2,,3
.L549:
	add	x1, x21, 12
	mov	w0, -1
	bl	__aarch64_ldadd4_acq_rel
	b	.L550
	.p2align 2,,3
.L617:
	add	x1, x21, 12
	mov	w0, -1
	bl	__aarch64_ldadd4_acq_rel
	b	.L618
	.p2align 2,,3
.L603:
	add	x1, x21, 12
	mov	w0, -1
	bl	__aarch64_ldadd4_acq_rel
	b	.L604
	.p2align 2,,3
.L610:
	add	x1, x21, 12
	mov	w0, -1
	bl	__aarch64_ldadd4_acq_rel
	b	.L611
	.p2align 2,,3
.L628:
	.cfi_offset 23, -96
	.cfi_offset 24, -88
	.cfi_offset 25, -80
	.cfi_offset 26, -72
	.cfi_offset 27, -64
	.cfi_offset 28, -56
	mov	x19, x27
	b	.L561
	.p2align 2,,3
.L702:
	ldr	x0, [sp, 96]
	str	wzr, [sp, 120]
	str	xzr, [sp, 128]
	add	x3, sp, 120
	mov	w2, w19
	mov	w1, 2
	ldr	w0, [x0, 104]
	bl	epoll_ctl
	ldr	x3, [x20, 112]
	b	.L554
	.p2align 2,,3
.L712:
	ldr	x1, [sp, 96]
	ldr	x0, [x21, 24]
	str	x0, [x1, 176]
	b	.L565
.L710:
	.cfi_restore 27
	.cfi_restore 28
	mov	x0, x22
	bl	__cxa_guard_acquire
	cbz	w0, .L592
	adrp	x1, :got:_ZZN4asio15system_categoryEvE8instance
	adrp	x0, :got:_ZN4asio6detail15system_categoryD1Ev
	adrp	x2, __dso_handle
	add	x2, x2, :lo12:__dso_handle
	ldr	x1, [x1, #:got_lo12:_ZZN4asio15system_categoryEvE8instance]
	ldr	x0, [x0, #:got_lo12:_ZN4asio6detail15system_categoryD1Ev]
	bl	__cxa_atexit
	mov	x0, x22
	bl	__cxa_guard_release
	b	.L592
.L594:
	add	x2, sp, 120
	mov	w0, w19
	mov	x1, 21537
	str	wzr, [sp, 120]
	bl	ioctl
	ldrb	w1, [x20, 108]
	mov	w0, w19
	and	w1, w1, -4
	strb	w1, [x20, 108]
	str	wzr, [x21]
	bl	close
	b	.L694
.L576:
	.cfi_offset 27, -64
	.cfi_offset 28, -56
	str	x24, [x21, 200]
	b	.L577
.L573:
	str	x24, [x0, 8]
	str	x19, [x1, 8]
	b	.L568
.L690:
	.cfi_restore 23
	.cfi_restore 24
	.cfi_restore 25
	.cfi_restore 26
	.cfi_restore 27
	.cfi_restore 28
	stp	x23, x24, [sp, 48]
	.cfi_offset 24, -88
	.cfi_offset 23, -96
	stp	x25, x26, [sp, 64]
	.cfi_offset 26, -72
	.cfi_offset 25, -80
	stp	x27, x28, [sp, 80]
	.cfi_offset 28, -56
	.cfi_offset 27, -64
	bl	__stack_chk_fail
	.cfi_endproc
.LFE11139:
	.section	.gcc_except_table._ZN8asiodnp315MasterTCPServerD2Ev,"aG",@progbits,_ZN8asiodnp315MasterTCPServerD5Ev,comdat
.LLSDA11139:
	.byte	0xff
	.byte	0xff
	.byte	0x1
	.uleb128 .LLSDACSE11139-.LLSDACSB11139
.LLSDACSB11139:
.LLSDACSE11139:
	.section	.text._ZN8asiodnp315MasterTCPServerD2Ev,"axG",@progbits,_ZN8asiodnp315MasterTCPServerD5Ev,comdat
	.size	_ZN8asiodnp315MasterTCPServerD2Ev, .-_ZN8asiodnp315MasterTCPServerD2Ev
	.weak	_ZN8asiodnp315MasterTCPServerD1Ev
	.set	_ZN8asiodnp315MasterTCPServerD1Ev,_ZN8asiodnp315MasterTCPServerD2Ev
	.section	.text._ZN8asiodnp315MasterTCPServerD0Ev,"axG",@progbits,_ZN8asiodnp315MasterTCPServerD5Ev,comdat
	.align	2
	.p2align 4,,11
	.weak	_ZN8asiodnp315MasterTCPServerD0Ev
	.type	_ZN8asiodnp315MasterTCPServerD0Ev, %function
_ZN8asiodnp315MasterTCPServerD0Ev:
.LFB11141:
	.cfi_startproc
	.cfi_personality 0x9b,DW.ref.__gxx_personality_v0
	.cfi_lsda 0x1b,.LLSDA11141
	stp	x29, x30, [sp, -144]!
	.cfi_def_cfa_offset 144
	.cfi_offset 29, -144
	.cfi_offset 30, -136
	adrp	x1, :got:__stack_chk_guard
	mov	x29, sp
	stp	x19, x20, [sp, 16]
	.cfi_offset 19, -128
	.cfi_offset 20, -120
	mov	x20, x0
	adrp	x0, :got:_ZTVN8asiodnp315MasterTCPServerE
	ldr	x1, [x1, #:got_lo12:__stack_chk_guard]
	stp	x21, x22, [sp, 32]
	ldr	x0, [x0, #:got_lo12:_ZTVN8asiodnp315MasterTCPServerE]
	ldr	x2, [x1]
	str	x2, [sp, 136]
	mov	x2, 0
	.cfi_offset 21, -112
	.cfi_offset 22, -104
	ldr	x21, [x20, 232]
	add	x0, x0, 16
	str	x0, [x20]
	cbz	x21, .L715
	adrp	x19, :got:__libc_single_threaded
	ldr	x0, [x19, #:got_lo12:__libc_single_threaded]
	ldrb	w0, [x0]
	cbz	w0, .L716
	ldr	w0, [x21, 8]
	sub	w1, w0, #1
	str	w1, [x21, 8]
.L717:
	cmp	w0, 1
	beq	.L871
.L715:
	ldr	x21, [x20, 216]
	cbz	x21, .L722
	adrp	x19, :got:__libc_single_threaded
	ldr	x0, [x19, #:got_lo12:__libc_single_threaded]
	ldrb	w0, [x0]
	cbz	w0, .L723
	ldr	w0, [x21, 8]
	sub	w1, w0, #1
	str	w1, [x21, 8]
.L724:
	cmp	w0, 1
	beq	.L872
.L722:
	adrp	x0, :got:_ZTVN7asiopal9TCPServerE
	ldr	w19, [x20, 136]
	ldr	x0, [x0, #:got_lo12:_ZTVN7asiopal9TCPServerE]
	add	x0, x0, 16
	str	x0, [x20]
	cmn	w19, #1
	bne	.L873
.L728:
	ldr	x0, [x20, 128]
	add	x1, x20, 104
	add	x0, x0, 40
	bl	_ZN4asio6detail28reactive_socket_service_base7destroyERNS1_24base_implementation_typeE
	ldr	x21, [x20, 64]
	cbz	x21, .L776
	adrp	x19, :got:__libc_single_threaded
	ldr	x0, [x19, #:got_lo12:__libc_single_threaded]
	ldrb	w0, [x0]
	cbz	w0, .L777
	ldr	w0, [x21, 8]
	sub	w1, w0, #1
	str	w1, [x21, 8]
.L778:
	cmp	w0, 1
	beq	.L874
.L776:
	ldr	x21, [x20, 48]
	cbz	x21, .L783
	adrp	x19, :got:__libc_single_threaded
	ldr	x0, [x19, #:got_lo12:__libc_single_threaded]
	ldrb	w0, [x0]
	cbz	w0, .L784
	ldr	w0, [x21, 8]
	sub	w1, w0, #1
	str	w1, [x21, 8]
.L785:
	cmp	w0, 1
	beq	.L875
.L783:
	ldr	x21, [x20, 32]
	cbz	x21, .L790
	adrp	x19, :got:__libc_single_threaded
	ldr	x0, [x19, #:got_lo12:__libc_single_threaded]
	ldrb	w0, [x0]
	cbz	w0, .L791
	ldr	w0, [x21, 8]
	sub	w1, w0, #1
	str	w1, [x21, 8]
.L792:
	cmp	w0, 1
	beq	.L876
.L790:
	ldr	x19, [x20, 16]
	cbz	x19, .L797
	adrp	x0, :got:__libc_single_threaded
	ldr	x0, [x0, #:got_lo12:__libc_single_threaded]
	ldrb	w0, [x0]
	cbz	w0, .L798
	ldr	w0, [x19, 12]
	sub	w1, w0, #1
	str	w1, [x19, 12]
.L799:
	cmp	w0, 1
	beq	.L877
.L797:
	adrp	x0, :got:__stack_chk_guard
	ldr	x0, [x0, #:got_lo12:__stack_chk_guard]
	ldr	x2, [sp, 136]
	ldr	x1, [x0]
	subs	x2, x2, x1
	mov	x1, 0
	bne	.L878
	mov	x0, x20
	mov	x1, 240
	ldp	x19, x20, [sp, 16]
	ldp	x21, x22, [sp, 32]
	ldp	x29, x30, [sp], 144
	.cfi_remember_state
	.cfi_restore 30
	.cfi_restore 29
	.cfi_restore 21
	.cfi_restore 22
	.cfi_restore 19
	.cfi_restore 20
	.cfi_def_cfa_offset 0
	b	_ZdlPvm
	.p2align 2,,3
.L873:
	.cfi_restore_state
	ldr	x22, [x20, 144]
	stp	x23, x24, [sp, 48]
	.cfi_offset 24, -88
	.cfi_offset 23, -96
	stp	x25, x26, [sp, 64]
	.cfi_offset 26, -72
	.cfi_offset 25, -80
	cbz	x22, .L758
	ldr	x1, [x20, 160]
	add	x22, x22, 40
	ldrb	w21, [x20, 140]
	mov	x0, x22
	ldr	x1, [x1, 40]
	str	x1, [sp, 96]
	bl	pthread_mutex_lock
	ldr	x3, [x20, 144]
	ldrb	w0, [x3, 152]
	cbnz	w0, .L730
	stp	x27, x28, [sp, 80]
	.cfi_offset 28, -56
	.cfi_offset 27, -64
	tbnz	x21, 6, .L879
.L731:
	adrp	x28, :got:_ZGVZN4asio15system_categoryEvE8instance
	adrp	x26, __dso_handle
	mov	x27, 0
	add	x0, x26, :lo12:__dso_handle
	ldr	x28, [x28, #:got_lo12:_ZGVZN4asio15system_categoryEvE8instance]
	mov	x24, 0
	mov	w21, 0
	str	x0, [sp, 104]
.L732:
	add	x0, x3, w21, sxtw 4
	sxtw	x25, w21
	ldr	x19, [x0, 104]
	cbz	x19, .L805
	adrp	x23, :got:_ZN4asio6detail15system_categoryD1Ev
	adrp	x26, :got:_ZZN4asio15system_categoryEvE8instance
	ldr	x23, [x23, #:got_lo12:_ZN4asio6detail15system_categoryD1Ev]
	ldar	x0, [x28]
	tbz	x0, 0, .L880
	.p2align 3,,7
.L734:
	ldr	x3, [x20, 144]
	mov	w1, 125
	ldr	x0, [x26, #:got_lo12:_ZZN4asio15system_categoryEvE8instance]
	str	x0, [x19, 32]
	add	x2, x3, x25, lsl 4
	str	w1, [x19, 24]
	ldr	x0, [x2, 104]
	cbz	x0, .L736
.L883:
	ldr	x1, [x0]
	str	x1, [x2, 104]
	cbz	x1, .L881
	str	xzr, [x0]
	str	xzr, [x19]
	cbz	x27, .L882
.L802:
	str	x19, [x27]
	cbz	x1, .L738
.L739:
	mov	x27, x19
	mov	x19, x1
	ldar	x0, [x28]
	tbnz	x0, 0, .L734
.L880:
	mov	x0, x28
	bl	__cxa_guard_acquire
	cbz	w0, .L734
	ldr	x1, [x26, #:got_lo12:_ZZN4asio15system_categoryEvE8instance]
	mov	x0, x23
	ldr	x2, [sp, 104]
	bl	__cxa_atexit
	mov	x0, x28
	bl	__cxa_guard_release
	ldr	x3, [x20, 144]
	mov	w1, 125
	ldr	x0, [x26, #:got_lo12:_ZZN4asio15system_categoryEvE8instance]
	str	x0, [x19, 32]
	add	x2, x3, x25, lsl 4
	str	w1, [x19, 24]
	ldr	x0, [x2, 104]
	cbnz	x0, .L883
	.p2align 3,,7
.L736:
	str	xzr, [x19]
	cbz	x27, .L806
	str	x19, [x27]
.L738:
	add	w21, w21, 1
	cmp	w21, 3
	beq	.L740
.L888:
	mov	x27, x19
	b	.L732
	.p2align 2,,3
.L730:
	.cfi_restore 27
	.cfi_restore 28
	mov	x0, x22
	bl	pthread_mutex_unlock
	ldr	w19, [x20, 136]
.L752:
	cmn	w19, #1
	beq	.L865
.L758:
	ldrb	w22, [x20, 140]
	bl	__errno_location
	adrp	x23, :got:_ZGVZN4asio15system_categoryEvE8instance
	mov	x21, x0
	tbnz	x22, 3, .L884
.L760:
	str	wzr, [x21]
	mov	w0, w19
	bl	close
	ldr	w25, [x21]
	ldr	x24, [x23, #:got_lo12:_ZGVZN4asio15system_categoryEvE8instance]
	mov	w22, w0
	ldar	x0, [x24]
	tbz	x0, 0, .L885
.L765:
	cbnz	w22, .L886
.L865:
	ldp	x23, x24, [sp, 48]
	.cfi_restore 24
	.cfi_restore 23
	ldp	x25, x26, [sp, 64]
	.cfi_restore 26
	.cfi_restore 25
	b	.L728
	.p2align 2,,3
.L871:
	ldr	x1, [x21]
	mov	x0, x21
	ldr	x1, [x1, 16]
	blr	x1
	ldr	x19, [x19, #:got_lo12:__libc_single_threaded]
	ldrb	w0, [x19]
	cbz	w0, .L719
	ldr	w0, [x21, 12]
	sub	w1, w0, #1
	str	w1, [x21, 12]
.L720:
	cmp	w0, 1
	bne	.L715
	ldr	x1, [x21]
	mov	x0, x21
	ldr	x1, [x1, 24]
	blr	x1
	b	.L715
	.p2align 2,,3
.L872:
	ldr	x1, [x21]
	mov	x0, x21
	ldr	x1, [x1, 16]
	blr	x1
	ldr	x19, [x19, #:got_lo12:__libc_single_threaded]
	ldrb	w0, [x19]
	cbz	w0, .L726
	ldr	w0, [x21, 12]
	sub	w1, w0, #1
	str	w1, [x21, 12]
.L727:
	cmp	w0, 1
	bne	.L722
	ldr	x1, [x21]
	mov	x0, x21
	ldr	x1, [x1, 24]
	blr	x1
	b	.L722
	.p2align 2,,3
.L874:
	ldr	x1, [x21]
	mov	x0, x21
	ldr	x1, [x1, 16]
	blr	x1
	ldr	x19, [x19, #:got_lo12:__libc_single_threaded]
	ldrb	w0, [x19]
	cbz	w0, .L780
	ldr	w0, [x21, 12]
	sub	w1, w0, #1
	str	w1, [x21, 12]
.L781:
	cmp	w0, 1
	bne	.L776
	ldr	x1, [x21]
	mov	x0, x21
	ldr	x1, [x1, 24]
	blr	x1
	b	.L776
	.p2align 2,,3
.L876:
	ldr	x1, [x21]
	mov	x0, x21
	ldr	x1, [x1, 16]
	blr	x1
	ldr	x19, [x19, #:got_lo12:__libc_single_threaded]
	ldrb	w0, [x19]
	cbz	w0, .L794
	ldr	w0, [x21, 12]
	sub	w1, w0, #1
	str	w1, [x21, 12]
.L795:
	cmp	w0, 1
	bne	.L790
	ldr	x1, [x21]
	mov	x0, x21
	ldr	x1, [x1, 24]
	blr	x1
	b	.L790
	.p2align 2,,3
.L875:
	ldr	x1, [x21]
	mov	x0, x21
	ldr	x1, [x1, 16]
	blr	x1
	ldr	x19, [x19, #:got_lo12:__libc_single_threaded]
	ldrb	w0, [x19]
	cbz	w0, .L787
	ldr	w0, [x21, 12]
	sub	w1, w0, #1
	str	w1, [x21, 12]
.L788:
	cmp	w0, 1
	bne	.L783
	ldr	x1, [x21]
	mov	x0, x21
	ldr	x1, [x1, 24]
	blr	x1
	b	.L783
	.p2align 2,,3
.L877:
	ldr	x1, [x19]
	mov	x0, x19
	ldr	x1, [x1, 24]
	blr	x1
	b	.L797
	.p2align 2,,3
.L777:
	add	x1, x21, 8
	mov	w0, -1
	bl	__aarch64_ldadd4_acq_rel
	b	.L778
	.p2align 2,,3
.L784:
	add	x1, x21, 8
	mov	w0, -1
	bl	__aarch64_ldadd4_acq_rel
	b	.L785
	.p2align 2,,3
.L791:
	add	x1, x21, 8
	mov	w0, -1
	bl	__aarch64_ldadd4_acq_rel
	b	.L792
	.p2align 2,,3
.L798:
	add	x1, x19, 12
	mov	w0, -1
	bl	__aarch64_ldadd4_acq_rel
	b	.L799
	.p2align 2,,3
.L716:
	add	x1, x21, 8
	mov	w0, -1
	bl	__aarch64_ldadd4_acq_rel
	b	.L717
	.p2align 2,,3
.L723:
	add	x1, x21, 8
	mov	w0, -1
	bl	__aarch64_ldadd4_acq_rel
	b	.L724
	.p2align 2,,3
.L885:
	.cfi_offset 23, -96
	.cfi_offset 24, -88
	.cfi_offset 25, -80
	.cfi_offset 26, -72
	mov	x0, x24
	bl	__cxa_guard_acquire
	cbz	w0, .L765
	adrp	x1, :got:_ZZN4asio15system_categoryEvE8instance
	adrp	x0, :got:_ZN4asio6detail15system_categoryD1Ev
	adrp	x2, __dso_handle
	add	x2, x2, :lo12:__dso_handle
	ldr	x1, [x1, #:got_lo12:_ZZN4asio15system_categoryEvE8instance]
	ldr	x0, [x0, #:got_lo12:_ZN4asio6detail15system_categoryD1Ev]
	bl	__cxa_atexit
	mov	x0, x24
	bl	__cxa_guard_release
	cbz	w22, .L865
	.p2align 3,,7
.L886:
	ldr	x22, [x23, #:got_lo12:_ZGVZN4asio15system_categoryEvE8instance]
	ldar	x0, [x22]
	tbz	x0, 0, .L887
.L769:
	cmp	w25, 11
	beq	.L771
.L870:
	ldr	x23, [x23, #:got_lo12:_ZGVZN4asio15system_categoryEvE8instance]
	ldar	x0, [x23]
	tbnz	x0, 0, .L865
	mov	x0, x23
	bl	__cxa_guard_acquire
	cbz	w0, .L865
	adrp	x1, :got:_ZZN4asio15system_categoryEvE8instance
	adrp	x0, :got:_ZN4asio6detail15system_categoryD1Ev
	adrp	x2, __dso_handle
	add	x2, x2, :lo12:__dso_handle
	ldr	x1, [x1, #:got_lo12:_ZZN4asio15system_categoryEvE8instance]
	ldr	x0, [x0, #:got_lo12:_ZN4asio6detail15system_categoryD1Ev]
	bl	__cxa_atexit
	mov	x0, x23
	bl	__cxa_guard_release
	ldp	x23, x24, [sp, 48]
	.cfi_restore 24
	.cfi_restore 23
	ldp	x25, x26, [sp, 64]
	.cfi_restore 26
	.cfi_restore 25
	b	.L728
	.p2align 2,,3
.L881:
	.cfi_offset 23, -96
	.cfi_offset 24, -88
	.cfi_offset 25, -80
	.cfi_offset 26, -72
	.cfi_offset 27, -64
	.cfi_offset 28, -56
	str	xzr, [x2, 112]
	str	xzr, [x0]
	str	xzr, [x19]
	cbnz	x27, .L802
	.p2align 3,,7
.L806:
	add	w21, w21, 1
	mov	x24, x19
	cmp	w21, 3
	bne	.L888
.L740:
	ldr	x23, [sp, 96]
	mov	w1, 1
	mov	w0, -1
	str	w0, [x3, 96]
	strb	w1, [x3, 152]
	mov	x0, x22
	add	x22, x23, 128
	bl	pthread_mutex_unlock
	mov	x0, x22
	ldr	x21, [x20, 144]
	bl	pthread_mutex_lock
	ldr	x0, [x23, 176]
	cmp	x21, x0
	beq	.L889
.L742:
	ldr	x0, [x21, 32]
	cbz	x0, .L743
	ldr	x1, [x21, 24]
	str	x1, [x0, 24]
.L743:
	ldr	x0, [x21, 24]
	cbz	x0, .L744
	ldr	x1, [x21, 32]
	str	x1, [x0, 32]
.L744:
	ldr	x23, [sp, 96]
	mov	x0, x22
	ldr	x2, [x23, 184]
	stp	x2, xzr, [x21, 24]
	str	x21, [x23, 184]
	bl	pthread_mutex_unlock
	str	xzr, [x20, 144]
	cbz	x24, .L745
	ldr	x21, [x23, 40]
	ldrb	w0, [x21, 40]
	cbz	w0, .L746
	adrp	x0, :got:_ZN4asio6detail10call_stackINS0_15task_io_serviceENS0_27task_io_service_thread_infoEE4top_E
	ldr	x0, [x0, #:got_lo12:_ZN4asio6detail10call_stackINS0_15task_io_serviceENS0_27task_io_service_thread_infoEE4top_E]
	ldr	w0, [x0]
	bl	pthread_getspecific
	cbnz	x0, .L749
	b	.L746
	.p2align 2,,3
.L747:
	ldr	x0, [x0, 16]
	cbz	x0, .L746
.L749:
	ldr	x1, [x0]
	cmp	x21, x1
	bne	.L747
	ldr	x0, [x0, 8]
	cbz	x0, .L746
	ldr	x2, [x0, 16]
	add	x1, x0, 8
	cbz	x2, .L750
	str	x24, [x2]
	str	x19, [x1, 8]
	.p2align 3,,7
.L745:
	ldr	w19, [x20, 136]
	ldp	x27, x28, [sp, 80]
	.cfi_remember_state
	.cfi_restore 28
	.cfi_restore 27
	b	.L752
	.p2align 2,,3
.L882:
	.cfi_restore_state
	mov	x24, x19
	b	.L739
	.p2align 2,,3
.L884:
	.cfi_restore 27
	.cfi_restore 28
	orr	w22, w22, 8
	strb	w22, [x20, 140]
	str	wzr, [x21]
	add	x3, sp, 120
	mov	w0, w19
	mov	w4, 8
	mov	w2, 13
	mov	w1, 1
	str	xzr, [sp, 120]
	bl	setsockopt
	ldr	x22, [x23, #:got_lo12:_ZGVZN4asio15system_categoryEvE8instance]
	ldar	x0, [x22]
	tbnz	x0, 0, .L760
	mov	x0, x22
	bl	__cxa_guard_acquire
	cbz	w0, .L760
	adrp	x1, :got:_ZZN4asio15system_categoryEvE8instance
	adrp	x0, :got:_ZN4asio6detail15system_categoryD1Ev
	adrp	x2, __dso_handle
	add	x2, x2, :lo12:__dso_handle
	ldr	x1, [x1, #:got_lo12:_ZZN4asio15system_categoryEvE8instance]
	ldr	x0, [x0, #:got_lo12:_ZN4asio6detail15system_categoryD1Ev]
	bl	__cxa_atexit
	mov	x0, x22
	bl	__cxa_guard_release
	b	.L760
	.p2align 2,,3
.L746:
	.cfi_offset 27, -64
	.cfi_offset 28, -56
	add	x23, x21, 48
	mov	x0, x23
	bl	pthread_mutex_lock
	ldr	x1, [x21, 208]
	add	x0, x21, 200
	cbz	x1, .L753
	str	x24, [x1]
.L754:
	str	x19, [x0, 8]
	add	x22, x21, 96
	ldr	x0, [x21, 144]
	orr	x0, x0, 1
	str	x0, [x21, 144]
	cmp	x0, 1
	beq	.L755
	mov	x0, x23
	bl	pthread_mutex_unlock
	mov	x0, x22
	bl	pthread_cond_signal
	b	.L745
.L755:
	ldrb	w1, [x21, 184]
	cbnz	w1, .L757
	ldr	x4, [x21, 152]
	cbz	x4, .L757
	mov	w1, 9
	strb	w0, [x21, 184]
	ldr	w2, [x4, 96]
	add	x0, x4, 96
	movk	w1, 0x8000, lsl 16
	str	w1, [sp, 120]
	str	x0, [sp, 128]
	add	x3, sp, 120
	mov	w1, 3
	ldr	w0, [x4, 104]
	bl	epoll_ctl
.L757:
	mov	x0, x23
	bl	pthread_mutex_unlock
	b	.L745
	.p2align 2,,3
.L719:
	.cfi_restore 23
	.cfi_restore 24
	.cfi_restore 25
	.cfi_restore 26
	.cfi_restore 27
	.cfi_restore 28
	add	x1, x21, 12
	mov	w0, -1
	bl	__aarch64_ldadd4_acq_rel
	b	.L720
	.p2align 2,,3
.L726:
	add	x1, x21, 12
	mov	w0, -1
	bl	__aarch64_ldadd4_acq_rel
	b	.L727
	.p2align 2,,3
.L794:
	add	x1, x21, 12
	mov	w0, -1
	bl	__aarch64_ldadd4_acq_rel
	b	.L795
	.p2align 2,,3
.L780:
	add	x1, x21, 12
	mov	w0, -1
	bl	__aarch64_ldadd4_acq_rel
	b	.L781
	.p2align 2,,3
.L787:
	add	x1, x21, 12
	mov	w0, -1
	bl	__aarch64_ldadd4_acq_rel
	b	.L788
	.p2align 2,,3
.L805:
	.cfi_offset 23, -96
	.cfi_offset 24, -88
	.cfi_offset 25, -80
	.cfi_offset 26, -72
	.cfi_offset 27, -64
	.cfi_offset 28, -56
	mov	x19, x27
	b	.L738
	.p2align 2,,3
.L879:
	ldr	x0, [sp, 96]
	str	wzr, [sp, 120]
	str	xzr, [sp, 128]
	add	x3, sp, 120
	mov	w2, w19
	mov	w1, 2
	ldr	w0, [x0, 104]
	bl	epoll_ctl
	ldr	x3, [x20, 144]
	b	.L731
	.p2align 2,,3
.L889:
	ldr	x1, [sp, 96]
	ldr	x0, [x21, 24]
	str	x0, [x1, 176]
	b	.L742
.L887:
	.cfi_restore 27
	.cfi_restore 28
	mov	x0, x22
	bl	__cxa_guard_acquire
	cbz	w0, .L769
	adrp	x1, :got:_ZZN4asio15system_categoryEvE8instance
	adrp	x0, :got:_ZN4asio6detail15system_categoryD1Ev
	adrp	x2, __dso_handle
	add	x2, x2, :lo12:__dso_handle
	ldr	x1, [x1, #:got_lo12:_ZZN4asio15system_categoryEvE8instance]
	ldr	x0, [x0, #:got_lo12:_ZN4asio6detail15system_categoryD1Ev]
	bl	__cxa_atexit
	mov	x0, x22
	bl	__cxa_guard_release
	b	.L769
.L771:
	add	x2, sp, 120
	mov	w0, w19
	mov	x1, 21537
	str	wzr, [sp, 120]
	bl	ioctl
	ldrb	w1, [x20, 140]
	mov	w0, w19
	and	w1, w1, -4
	strb	w1, [x20, 140]
	str	wzr, [x21]
	bl	close
	b	.L870
.L753:
	.cfi_offset 27, -64
	.cfi_offset 28, -56
	str	x24, [x21, 200]
	b	.L754
.L750:
	str	x24, [x0, 8]
	str	x19, [x1, 8]
	b	.L745
.L878:
	.cfi_restore 23
	.cfi_restore 24
	.cfi_restore 25
	.cfi_restore 26
	.cfi_restore 27
	.cfi_restore 28
	stp	x23, x24, [sp, 48]
	.cfi_offset 24, -88
	.cfi_offset 23, -96
	stp	x25, x26, [sp, 64]
	.cfi_offset 26, -72
	.cfi_offset 25, -80
	stp	x27, x28, [sp, 80]
	.cfi_offset 28, -56
	.cfi_offset 27, -64
	bl	__stack_chk_fail
	.cfi_endproc
.LFE11141:
	.section	.gcc_except_table._ZN8asiodnp315MasterTCPServerD0Ev,"aG",@progbits,_ZN8asiodnp315MasterTCPServerD5Ev,comdat
.LLSDA11141:
	.byte	0xff
	.byte	0xff
	.byte	0x1
	.uleb128 .LLSDACSE11141-.LLSDACSB11141
.LLSDACSB11141:
.LLSDACSE11141:
	.section	.text._ZN8asiodnp315MasterTCPServerD0Ev,"axG",@progbits,_ZN8asiodnp315MasterTCPServerD5Ev,comdat
	.size	_ZN8asiodnp315MasterTCPServerD0Ev, .-_ZN8asiodnp315MasterTCPServerD0Ev
	.text
	.align	2
	.p2align 4,,11
	.global	_ZN8asiodnp315MasterTCPServerC2ERKN7openpal6LoggerERKSt10shared_ptrIN7asiopal8ExecutorEERKNS6_10IPEndpointERKS5_INS_16IListenCallbacksEERKS5_INS6_15ResourceManagerEERSt10error_code
	.type	_ZN8asiodnp315MasterTCPServerC2ERKN7openpal6LoggerERKSt10shared_ptrIN7asiopal8ExecutorEERKNS6_10IPEndpointERKS5_INS_16IListenCallbacksEERKS5_INS6_15ResourceManagerEERSt10error_code, %function
_ZN8asiodnp315MasterTCPServerC2ERKN7openpal6LoggerERKSt10shared_ptrIN7asiopal8ExecutorEERKNS6_10IPEndpointERKS5_INS_16IListenCallbacksEERKS5_INS6_15ResourceManagerEERSt10error_code:
.LFB8254:
	.cfi_startproc
	stp	x29, x30, [sp, -48]!
	.cfi_def_cfa_offset 48
	.cfi_offset 29, -48
	.cfi_offset 30, -40
	mov	x29, sp
	stp	x19, x20, [sp, 16]
	.cfi_offset 19, -32
	.cfi_offset 20, -24
	mov	x19, x0
	mov	x20, x5
	str	x21, [sp, 32]
	.cfi_offset 21, -16
	mov	x21, x4
	mov	x4, x6
	bl	_ZN7asiopal9TCPServerC2ERKN7openpal6LoggerERKSt10shared_ptrINS_8ExecutorEERKNS_10IPEndpointERSt10error_code
	adrp	x0, :got:_ZTVN8asiodnp315MasterTCPServerE
	ldr	x0, [x0, #:got_lo12:_ZTVN8asiodnp315MasterTCPServerE]
	add	x0, x0, 16
	str	x0, [x19]
	ldr	q0, [x21]
	umov	x1, v0.d[1]
	str	q0, [x19, 208]
	cbz	x1, .L891
	adrp	x0, :got:__libc_single_threaded
	ldr	x0, [x0, #:got_lo12:__libc_single_threaded]
	ldrb	w0, [x0]
	cbz	w0, .L892
	ldr	w0, [x1, 8]
	add	w0, w0, 1
	str	w0, [x1, 8]
.L891:
	ldr	q0, [x20]
	umov	x1, v0.d[1]
	str	q0, [x19, 224]
	cbz	x1, .L890
	adrp	x0, :got:__libc_single_threaded
	ldr	x0, [x0, #:got_lo12:__libc_single_threaded]
	ldrb	w0, [x0]
	cbz	w0, .L894
	ldr	w0, [x1, 8]
	add	w0, w0, 1
	str	w0, [x1, 8]
.L890:
	ldp	x19, x20, [sp, 16]
	ldr	x21, [sp, 32]
	ldp	x29, x30, [sp], 48
	.cfi_remember_state
	.cfi_restore 30
	.cfi_restore 29
	.cfi_restore 21
	.cfi_restore 19
	.cfi_restore 20
	.cfi_def_cfa_offset 0
	ret
	.p2align 2,,3
.L892:
	.cfi_restore_state
	add	x1, x1, 8
	mov	w0, 1
	bl	__aarch64_ldadd4_acq_rel
	b	.L891
	.p2align 2,,3
.L894:
	add	x1, x1, 8
	mov	w0, 1
	bl	__aarch64_ldadd4_acq_rel
	ldp	x19, x20, [sp, 16]
	ldr	x21, [sp, 32]
	ldp	x29, x30, [sp], 48
	.cfi_restore 30
	.cfi_restore 29
	.cfi_restore 21
	.cfi_restore 19
	.cfi_restore 20
	.cfi_def_cfa_offset 0
	ret
	.cfi_endproc
.LFE8254:
	.size	_ZN8asiodnp315MasterTCPServerC2ERKN7openpal6LoggerERKSt10shared_ptrIN7asiopal8ExecutorEERKNS6_10IPEndpointERKS5_INS_16IListenCallbacksEERKS5_INS6_15ResourceManagerEERSt10error_code, .-_ZN8asiodnp315MasterTCPServerC2ERKN7openpal6LoggerERKSt10shared_ptrIN7asiopal8ExecutorEERKNS6_10IPEndpointERKS5_INS_16IListenCallbacksEERKS5_INS6_15ResourceManagerEERSt10error_code
	.global	_ZN8asiodnp315MasterTCPServerC1ERKN7openpal6LoggerERKSt10shared_ptrIN7asiopal8ExecutorEERKNS6_10IPEndpointERKS5_INS_16IListenCallbacksEERKS5_INS6_15ResourceManagerEERSt10error_code
	.set	_ZN8asiodnp315MasterTCPServerC1ERKN7openpal6LoggerERKSt10shared_ptrIN7asiopal8ExecutorEERKNS6_10IPEndpointERKS5_INS_16IListenCallbacksEERKS5_INS6_15ResourceManagerEERSt10error_code,_ZN8asiodnp315MasterTCPServerC2ERKN7openpal6LoggerERKSt10shared_ptrIN7asiopal8ExecutorEERKNS6_10IPEndpointERKS5_INS_16IListenCallbacksEERKS5_INS6_15ResourceManagerEERSt10error_code
	.section	.text.unlikely._ZN4asio6detail15throw_exceptionISt12system_errorEEvRKT_,"axG",@progbits,_ZN4asio6detail15throw_exceptionISt12system_errorEEvRKT_,comdat
	.align	2
	.weak	_ZN4asio6detail15throw_exceptionISt12system_errorEEvRKT_
	.type	_ZN4asio6detail15throw_exceptionISt12system_errorEEvRKT_, %function
_ZN4asio6detail15throw_exceptionISt12system_errorEEvRKT_:
.LFB8553:
	.cfi_startproc
	stp	x29, x30, [sp, -32]!
	.cfi_def_cfa_offset 32
	.cfi_offset 29, -32
	.cfi_offset 30, -24
	mov	x29, sp
	stp	x19, x20, [sp, 16]
	.cfi_offset 19, -16
	.cfi_offset 20, -8
	mov	x20, x0
	mov	x0, 32
	bl	__cxa_allocate_exception
	mov	x19, x0
	mov	x1, x20
	bl	_ZNSt13runtime_errorC2ERKS_
	adrp	x3, :got:_ZTVSt12system_error
	adrp	x2, :got:_ZNSt12system_errorD1Ev
	adrp	x1, :got:_ZTISt12system_error
	mov	x0, x19
	ldr	x3, [x3, #:got_lo12:_ZTVSt12system_error]
	ldp	x4, x5, [x20, 16]
	add	x3, x3, 16
	ldr	x2, [x2, #:got_lo12:_ZNSt12system_errorD1Ev]
	str	x3, [x19]
	ldr	x1, [x1, #:got_lo12:_ZTISt12system_error]
	stp	x4, x5, [x19, 16]
	bl	__cxa_throw
	.cfi_endproc
.LFE8553:
	.size	_ZN4asio6detail15throw_exceptionISt12system_errorEEvRKT_, .-_ZN4asio6detail15throw_exceptionISt12system_errorEEvRKT_
	.section	.text._ZN4asio6detail14do_throw_errorERKSt10error_code,"axG",@progbits,_ZN4asio6detail14do_throw_errorERKSt10error_code,comdat
	.align	2
	.p2align 4,,11
	.weak	_ZN4asio6detail14do_throw_errorERKSt10error_code
	.type	_ZN4asio6detail14do_throw_errorERKSt10error_code, %function
_ZN4asio6detail14do_throw_errorERKSt10error_code:
.LFB2352:
	.cfi_startproc
	.cfi_personality 0x9b,DW.ref.__gxx_personality_v0
	.cfi_lsda 0x1b,.LLSDA2352
	stp	x29, x30, [sp, -128]!
	.cfi_def_cfa_offset 128
	.cfi_offset 29, -128
	.cfi_offset 30, -120
	adrp	x1, :got:__stack_chk_guard
	mov	x29, sp
	ldr	x1, [x1, #:got_lo12:__stack_chk_guard]
	stp	x19, x20, [sp, 16]
	.cfi_offset 19, -112
	.cfi_offset 20, -104
	add	x19, sp, 88
	ldr	x20, [x0, 8]
	stp	x21, x22, [sp, 32]
	.cfi_offset 21, -96
	.cfi_offset 22, -88
	mov	x8, x19
	ldr	x2, [x1]
	str	x2, [sp, 120]
	mov	x2, 0
	ldr	w22, [x0]
	ldr	x2, [x20]
	mov	w1, w22
	mov	x0, x20
	add	x21, sp, 56
	ldr	x2, [x2, 32]
.LEHB5:
	blr	x2
.LEHE5:
	mov	x1, x19
	mov	x0, x21
.LEHB6:
	bl	_ZNSt13runtime_errorC2ERKNSt7__cxx1112basic_stringIcSt11char_traitsIcESaIcEEE
.LEHE6:
	ldr	x0, [sp, 88]
	add	x1, sp, 104
	cmp	x0, x1
	beq	.L905
	ldr	x1, [sp, 104]
	add	x1, x1, 1
	bl	_ZdlPvm
.L905:
	adrp	x1, :got:_ZTVSt12system_error
	mov	x0, x21
	str	w22, [sp, 72]
	ldr	x1, [x1, #:got_lo12:_ZTVSt12system_error]
	str	x20, [sp, 80]
	add	x1, x1, 16
	str	x1, [sp, 56]
.LEHB7:
	bl	_ZN4asio6detail15throw_exceptionISt12system_errorEEvRKT_
.LEHE7:
.L911:
	ldr	x2, [sp, 88]
	add	x1, sp, 104
	mov	x19, x0
	cmp	x2, x1
	beq	.L913
	ldr	x1, [sp, 104]
	mov	x0, x2
	add	x1, x1, 1
	bl	_ZdlPvm
	b	.L913
.L910:
	mov	x19, x0
	mov	x0, x21
	bl	_ZNSt12system_errorD1Ev
.L913:
	mov	x0, x19
.LEHB8:
	bl	_Unwind_Resume
.LEHE8:
	.cfi_endproc
.LFE2352:
	.section	.gcc_except_table._ZN4asio6detail14do_throw_errorERKSt10error_code,"aG",@progbits,_ZN4asio6detail14do_throw_errorERKSt10error_code,comdat
.LLSDA2352:
	.byte	0xff
	.byte	0xff
	.byte	0x1
	.uleb128 .LLSDACSE2352-.LLSDACSB2352
.LLSDACSB2352:
	.uleb128 .LEHB5-.LFB2352
	.uleb128 .LEHE5-.LEHB5
	.uleb128 0
	.uleb128 0
	.uleb128 .LEHB6-.LFB2352
	.uleb128 .LEHE6-.LEHB6
	.uleb128 .L911-.LFB2352
	.uleb128 0
	.uleb128 .LEHB7-.LFB2352
	.uleb128 .LEHE7-.LEHB7
	.uleb128 .L910-.LFB2352
	.uleb128 0
	.uleb128 .LEHB8-.LFB2352
	.uleb128 .LEHE8-.LEHB8
	.uleb128 0
	.uleb128 0
.LLSDACSE2352:
	.section	.text._ZN4asio6detail14do_throw_errorERKSt10error_code,"axG",@progbits,_ZN4asio6detail14do_throw_errorERKSt10error_code,comdat
	.size	_ZN4asio6detail14do_throw_errorERKSt10error_code, .-_ZN4asio6detail14do_throw_errorERKSt10error_code
	.section	.text._ZN4asio6detail14do_throw_errorERKSt10error_codePKc,"axG",@progbits,_ZN4asio6detail14do_throw_errorERKSt10error_codePKc,comdat
	.align	2
	.p2align 4,,11
	.weak	_ZN4asio6detail14do_throw_errorERKSt10error_codePKc
	.type	_ZN4asio6detail14do_throw_errorERKSt10error_codePKc, %function
_ZN4asio6detail14do_throw_errorERKSt10error_codePKc:
.LFB2353:
	.cfi_startproc
	.cfi_personality 0x9b,DW.ref.__gxx_personality_v0
	.cfi_lsda 0x1b,.LLSDA2353
	stp	x29, x30, [sp, -80]!
	.cfi_def_cfa_offset 80
	.cfi_offset 29, -80
	.cfi_offset 30, -72
	adrp	x2, :got:__stack_chk_guard
	mov	x3, x1
	mov	x29, sp
	ldp	x4, x5, [x0]
	str	x19, [sp, 16]
	.cfi_offset 19, -64
	ldr	x2, [x2, #:got_lo12:__stack_chk_guard]
	add	x19, sp, 40
	mov	x0, x19
	ldr	x1, [x2]
	str	x1, [sp, 72]
	mov	x1, 0
	mov	x1, x4
	mov	x2, x5
.LEHB9:
	bl	_ZNSt12system_errorC1ESt10error_codePKc
.LEHE9:
	mov	x0, x19
.LEHB10:
	bl	_ZN4asio6detail15throw_exceptionISt12system_errorEEvRKT_
.LEHE10:
.L917:
	mov	x1, x0
	mov	x0, x19
	mov	x19, x1
	bl	_ZNSt12system_errorD1Ev
	mov	x0, x19
.LEHB11:
	bl	_Unwind_Resume
.LEHE11:
	.cfi_endproc
.LFE2353:
	.section	.gcc_except_table._ZN4asio6detail14do_throw_errorERKSt10error_codePKc,"aG",@progbits,_ZN4asio6detail14do_throw_errorERKSt10error_codePKc,comdat
.LLSDA2353:
	.byte	0xff
	.byte	0xff
	.byte	0x1
	.uleb128 .LLSDACSE2353-.LLSDACSB2353
.LLSDACSB2353:
	.uleb128 .LEHB9-.LFB2353
	.uleb128 .LEHE9-.LEHB9
	.uleb128 0
	.uleb128 0
	.uleb128 .LEHB10-.LFB2353
	.uleb128 .LEHE10-.LEHB10
	.uleb128 .L917-.LFB2353
	.uleb128 0
	.uleb128 .LEHB11-.LFB2353
	.uleb128 .LEHE11-.LEHB11
	.uleb128 0
	.uleb128 0
.LLSDACSE2353:
	.section	.text._ZN4asio6detail14do_throw_errorERKSt10error_codePKc,"axG",@progbits,_ZN4asio6detail14do_throw_errorERKSt10error_codePKc,comdat
	.size	_ZN4asio6detail14do_throw_errorERKSt10error_codePKc, .-_ZN4asio6detail14do_throw_errorERKSt10error_codePKc
	.section	.rodata._ZN4asio6detail20posix_tss_ptr_createERj.str1.8,"aMS",@progbits,1
	.align	3
.LC20:
	.string	"tss"
	.section	.text._ZN4asio6detail20posix_tss_ptr_createERj,"axG",@progbits,_ZN4asio6detail20posix_tss_ptr_createERj,comdat
	.align	2
	.p2align 4,,11
	.weak	_ZN4asio6detail20posix_tss_ptr_createERj
	.type	_ZN4asio6detail20posix_tss_ptr_createERj, %function
_ZN4asio6detail20posix_tss_ptr_createERj:
.LFB2377:
	.cfi_startproc
	stp	x29, x30, [sp, -80]!
	.cfi_def_cfa_offset 80
	.cfi_offset 29, -80
	.cfi_offset 30, -72
	adrp	x2, :got:__stack_chk_guard
	mov	x1, 0
	mov	x29, sp
	ldr	x2, [x2, #:got_lo12:__stack_chk_guard]
	stp	x19, x20, [sp, 16]
	.cfi_offset 19, -64
	.cfi_offset 20, -56
	adrp	x20, :got:_ZGVZN4asio15system_categoryEvE8instance
	str	x21, [sp, 32]
	.cfi_offset 21, -48
	ldr	x3, [x2]
	str	x3, [sp, 72]
	mov	x3, 0
	bl	pthread_key_create
	mov	w19, w0
	ldr	x20, [x20, #:got_lo12:_ZGVZN4asio15system_categoryEvE8instance]
	ldar	x0, [x20]
	adrp	x21, :got:_ZZN4asio15system_categoryEvE8instance
	tbz	x0, 0, .L929
.L921:
	ldr	x21, [x21, #:got_lo12:_ZZN4asio15system_categoryEvE8instance]
	str	w19, [sp, 56]
	str	x21, [sp, 64]
	cbnz	w19, .L930
	adrp	x0, :got:__stack_chk_guard
	ldr	x0, [x0, #:got_lo12:__stack_chk_guard]
	ldr	x2, [sp, 72]
	ldr	x1, [x0]
	subs	x2, x2, x1
	mov	x1, 0
	bne	.L931
	ldp	x19, x20, [sp, 16]
	ldr	x21, [sp, 32]
	ldp	x29, x30, [sp], 80
	.cfi_remember_state
	.cfi_restore 30
	.cfi_restore 29
	.cfi_restore 21
	.cfi_restore 19
	.cfi_restore 20
	.cfi_def_cfa_offset 0
	ret
	.p2align 2,,3
.L929:
	.cfi_restore_state
	mov	x0, x20
	adrp	x21, :got:_ZZN4asio15system_categoryEvE8instance
	bl	__cxa_guard_acquire
	cbz	w0, .L921
	adrp	x0, :got:_ZN4asio6detail15system_categoryD1Ev
	adrp	x2, __dso_handle
	ldr	x1, [x21, #:got_lo12:_ZZN4asio15system_categoryEvE8instance]
	add	x2, x2, :lo12:__dso_handle
	ldr	x0, [x0, #:got_lo12:_ZN4asio6detail15system_categoryD1Ev]
	bl	__cxa_atexit
	mov	x0, x20
	bl	__cxa_guard_release
	b	.L921
.L930:
	adrp	x1, .LC20
	add	x0, sp, 56
	add	x1, x1, :lo12:.LC20
	bl	_ZN4asio6detail14do_throw_errorERKSt10error_codePKc
.L931:
	bl	__stack_chk_fail
	.cfi_endproc
.LFE2377:
	.size	_ZN4asio6detail20posix_tss_ptr_createERj, .-_ZN4asio6detail20posix_tss_ptr_createERj
	.section	.text.unlikely._ZN4asio6detail15throw_exceptionISt12out_of_rangeEEvRKT_,"axG",@progbits,_ZN4asio6detail15throw_exceptionISt12out_of_rangeEEvRKT_,comdat
	.align	2
	.weak	_ZN4asio6detail15throw_exceptionISt12out_of_rangeEEvRKT_
	.type	_ZN4asio6detail15throw_exceptionISt12out_of_rangeEEvRKT_, %function
_ZN4asio6detail15throw_exceptionISt12out_of_rangeEEvRKT_:
.LFB8708:
	.cfi_startproc
	stp	x29, x30, [sp, -32]!
	.cfi_def_cfa_offset 32
	.cfi_offset 29, -32
	.cfi_offset 30, -24
	mov	x29, sp
	str	x19, [sp, 16]
	.cfi_offset 19, -16
	mov	x19, x0
	mov	x0, 16
	bl	__cxa_allocate_exception
	mov	x1, x19
	mov	x19, x0
	bl	_ZNSt11logic_errorC2ERKS_
	adrp	x3, :got:_ZTVSt12out_of_range
	adrp	x2, :got:_ZNSt12out_of_rangeD1Ev
	adrp	x1, :got:_ZTISt12out_of_range
	mov	x0, x19
	ldr	x3, [x3, #:got_lo12:_ZTVSt12out_of_range]
	ldr	x2, [x2, #:got_lo12:_ZNSt12out_of_rangeD1Ev]
	add	x3, x3, 16
	ldr	x1, [x1, #:got_lo12:_ZTISt12out_of_range]
	str	x3, [x19]
	bl	__cxa_throw
	.cfi_endproc
.LFE8708:
	.size	_ZN4asio6detail15throw_exceptionISt12out_of_rangeEEvRKT_, .-_ZN4asio6detail15throw_exceptionISt12out_of_rangeEEvRKT_
	.section	.text._ZNSt7__cxx1115basic_stringbufIcSt11char_traitsIcESaIcEED2Ev,"axG",@progbits,_ZNSt7__cxx1115basic_stringbufIcSt11char_traitsIcESaIcEED5Ev,comdat
	.align	2
	.p2align 4,,11
	.weak	_ZNSt7__cxx1115basic_stringbufIcSt11char_traitsIcESaIcEED2Ev
	.type	_ZNSt7__cxx1115basic_stringbufIcSt11char_traitsIcESaIcEED2Ev, %function
_ZNSt7__cxx1115basic_stringbufIcSt11char_traitsIcESaIcEED2Ev:
.LFB8791:
	.cfi_startproc
	stp	x29, x30, [sp, -32]!
	.cfi_def_cfa_offset 32
	.cfi_offset 29, -32
	.cfi_offset 30, -24
	adrp	x1, :got:_ZTVNSt7__cxx1115basic_stringbufIcSt11char_traitsIcESaIcEEE
	mov	x2, x0
	mov	x29, sp
	ldr	x1, [x1, #:got_lo12:_ZTVNSt7__cxx1115basic_stringbufIcSt11char_traitsIcESaIcEEE]
	add	x3, x0, 88
	str	x19, [sp, 16]
	.cfi_offset 19, -16
	mov	x19, x0
	ldr	x0, [x0, 72]
	add	x1, x1, 16
	str	x1, [x2], 72
	cmp	x0, x3
	beq	.L935
	ldr	x1, [x2, 16]
	add	x1, x1, 1
	bl	_ZdlPvm
.L935:
	adrp	x1, :got:_ZTVSt15basic_streambufIcSt11char_traitsIcEE
	mov	x0, x19
	ldr	x19, [sp, 16]
	ldr	x1, [x1, #:got_lo12:_ZTVSt15basic_streambufIcSt11char_traitsIcEE]
	add	x1, x1, 16
	str	x1, [x0], 56
	ldp	x29, x30, [sp], 32
	.cfi_restore 30
	.cfi_restore 29
	.cfi_restore 19
	.cfi_def_cfa_offset 0
	b	_ZNSt6localeD1Ev
	.cfi_endproc
.LFE8791:
	.size	_ZNSt7__cxx1115basic_stringbufIcSt11char_traitsIcESaIcEED2Ev, .-_ZNSt7__cxx1115basic_stringbufIcSt11char_traitsIcESaIcEED2Ev
	.weak	_ZNSt7__cxx1115basic_stringbufIcSt11char_traitsIcESaIcEED1Ev
	.set	_ZNSt7__cxx1115basic_stringbufIcSt11char_traitsIcESaIcEED1Ev,_ZNSt7__cxx1115basic_stringbufIcSt11char_traitsIcESaIcEED2Ev
	.section	.text._ZNSt7__cxx1115basic_stringbufIcSt11char_traitsIcESaIcEED0Ev,"axG",@progbits,_ZNSt7__cxx1115basic_stringbufIcSt11char_traitsIcESaIcEED5Ev,comdat
	.align	2
	.p2align 4,,11
	.weak	_ZNSt7__cxx1115basic_stringbufIcSt11char_traitsIcESaIcEED0Ev
	.type	_ZNSt7__cxx1115basic_stringbufIcSt11char_traitsIcESaIcEED0Ev, %function
_ZNSt7__cxx1115basic_stringbufIcSt11char_traitsIcESaIcEED0Ev:
.LFB8793:
	.cfi_startproc
	stp	x29, x30, [sp, -32]!
	.cfi_def_cfa_offset 32
	.cfi_offset 29, -32
	.cfi_offset 30, -24
	adrp	x1, :got:_ZTVNSt7__cxx1115basic_stringbufIcSt11char_traitsIcESaIcEEE
	mov	x2, x0
	mov	x29, sp
	ldr	x1, [x1, #:got_lo12:_ZTVNSt7__cxx1115basic_stringbufIcSt11char_traitsIcESaIcEEE]
	add	x3, x0, 88
	str	x19, [sp, 16]
	.cfi_offset 19, -16
	mov	x19, x0
	ldr	x0, [x0, 72]
	add	x1, x1, 16
	str	x1, [x2], 72
	cmp	x0, x3
	beq	.L938
	ldr	x1, [x2, 16]
	add	x1, x1, 1
	bl	_ZdlPvm
.L938:
	adrp	x1, :got:_ZTVSt15basic_streambufIcSt11char_traitsIcEE
	mov	x0, x19
	ldr	x1, [x1, #:got_lo12:_ZTVSt15basic_streambufIcSt11char_traitsIcEE]
	add	x1, x1, 16
	str	x1, [x0], 56
	bl	_ZNSt6localeD1Ev
	mov	x0, x19
	mov	x1, 104
	ldr	x19, [sp, 16]
	ldp	x29, x30, [sp], 32
	.cfi_restore 30
	.cfi_restore 29
	.cfi_restore 19
	.cfi_def_cfa_offset 0
	b	_ZdlPvm
	.cfi_endproc
.LFE8793:
	.size	_ZNSt7__cxx1115basic_stringbufIcSt11char_traitsIcESaIcEED0Ev, .-_ZNSt7__cxx1115basic_stringbufIcSt11char_traitsIcESaIcEED0Ev
	.section	.rodata._ZNK4asio2ip6detail8endpoint9to_stringB5cxx11ERSt10error_code.str1.8,"aMS",@progbits,1
	.align	3
.LC21:
	.string	"%lu"
	.section	.text._ZNK4asio2ip6detail8endpoint9to_stringB5cxx11ERSt10error_code,"axG",@progbits,_ZNK4asio2ip6detail8endpoint9to_stringB5cxx11ERSt10error_code,comdat
	.align	2
	.p2align 4,,11
	.weak	_ZNK4asio2ip6detail8endpoint9to_stringB5cxx11ERSt10error_code
	.type	_ZNK4asio2ip6detail8endpoint9to_stringB5cxx11ERSt10error_code, %function
_ZNK4asio2ip6detail8endpoint9to_stringB5cxx11ERSt10error_code:
.LFB6014:
	.cfi_startproc
	.cfi_personality 0x9b,DW.ref.__gxx_personality_v0
	.cfi_lsda 0x1b,.LLSDA6014
	sub	sp, sp, #640
	.cfi_def_cfa_offset 640
	adrp	x2, :got:__stack_chk_guard
	stp	x29, x30, [sp]
	.cfi_offset 29, -640
	.cfi_offset 30, -632
	mov	x29, sp
	ldr	x2, [x2, #:got_lo12:__stack_chk_guard]
	stp	x19, x20, [sp, 16]
	.cfi_offset 19, -624
	.cfi_offset 20, -616
	mov	x20, x0
	stp	x21, x22, [sp, 32]
	mov	x19, x8
	.cfi_offset 21, -608
	.cfi_offset 22, -600
	mov	x22, x1
	stp	x23, x24, [sp, 48]
	stp	x25, x26, [sp, 64]
	stp	x27, x28, [sp, 80]
	.cfi_offset 23, -592
	.cfi_offset 24, -584
	.cfi_offset 25, -576
	.cfi_offset 26, -568
	.cfi_offset 27, -560
	.cfi_offset 28, -552
	ldr	x0, [x2]
	str	x0, [sp, 632]
	mov	x0, 0
	bl	__errno_location
	mov	x21, x0
	ldrh	w0, [x20]
	cmp	w0, 2
	beq	.L1039
	ldp	x4, x5, [x20, 8]
	adrp	x0, .LC22
	add	x28, sp, 568
	ldr	w27, [x20, 24]
	ldr	d0, [x0, #:lo12:.LC22]
	mov	x2, x28
	adrp	x24, :got:_ZGVZN4asio15system_categoryEvE8instance
	str	wzr, [x21]
	add	x1, sp, 168
	uxtw	x25, w27
	mov	w3, 63
	mov	w0, 10
	str	d0, [sp, 160]
	stp	x4, x5, [sp, 168]
	str	x25, [sp, 184]
	bl	inet_ntop
	ldr	x26, [x24, #:got_lo12:_ZGVZN4asio15system_categoryEvE8instance]
	mov	x5, x0
	ldr	w23, [x21]
	ldar	x2, [x26]
	adrp	x21, :got:_ZZN4asio15system_categoryEvE8instance
	tbz	x2, 0, .L1040
.L945:
	ldr	x26, [x21, #:got_lo12:_ZZN4asio15system_categoryEvE8instance]
	str	w23, [x22]
	str	x26, [x22, 8]
	cbz	x5, .L1038
	cbz	x25, .L957
	add	x1, sp, 528
	ldrb	w0, [sp, 168]
	mov	x2, 37
	mov	x3, 0
	strb	wzr, [sp, 560]
	stp	x2, x3, [x1, 16]
	cmp	w0, 254
	beq	.L1041
	cmp	w0, 255
	bne	.L1031
	ldrb	w0, [sp, 169]
	add	x21, sp, 545
	and	w0, w0, 15
	cmp	w0, 2
	beq	.L954
.L956:
	mov	x4, x25
	mov	x0, x21
	adrp	x3, .LC21
	mov	x2, 16
	add	x3, x3, :lo12:.LC21
	mov	w1, 1
	str	x5, [sp, 104]
	bl	__sprintf_chk
	ldr	x5, [sp, 104]
.L955:
	mov	x0, x28
	add	x1, sp, 544
	mov	x2, 63
	str	x5, [sp, 104]
	bl	__strcat_chk
	ldr	x5, [sp, 104]
.L957:
	mov	x0, x5
	add	x21, sp, 144
	str	x5, [sp, 104]
	str	x21, [sp, 128]
	bl	strlen
	str	x0, [sp, 120]
	add	x1, sp, 128
	mov	x23, x0
	cmp	x0, 15
	ldr	x5, [sp, 104]
	bhi	.L1042
	cmp	x23, 1
	bne	.L959
	ldrb	w1, [x5]
	mov	x0, x21
	strb	w1, [sp, 144]
	b	.L970
	.p2align 2,,3
.L1039:
	ldr	w4, [x20, 4]
	adrp	x24, :got:_ZGVZN4asio15system_categoryEvE8instance
	str	wzr, [x21]
	add	x2, sp, 568
	add	x1, sp, 164
	mov	w3, 16
	stp	wzr, w4, [sp, 160]
	stp	xzr, xzr, [sp, 168]
	str	xzr, [sp, 184]
	bl	inet_ntop
	ldr	x26, [x24, #:got_lo12:_ZGVZN4asio15system_categoryEvE8instance]
	mov	x25, x0
	ldr	w23, [x21]
	ldar	x0, [x26]
	adrp	x21, :got:_ZZN4asio15system_categoryEvE8instance
	tbz	x0, 0, .L1043
.L943:
	ldr	x26, [x21, #:got_lo12:_ZZN4asio15system_categoryEvE8instance]
	str	w23, [x22]
	str	x26, [x22, 8]
	cbz	x25, .L1038
	add	x21, sp, 144
	mov	x0, x25
	str	x21, [sp, 128]
	bl	strlen
	str	x0, [sp, 120]
	add	x1, sp, 128
	mov	x23, x0
	cmp	x0, 15
	bhi	.L1044
	cmp	x23, 1
	bne	.L969
	ldrb	w1, [x25]
	mov	x0, x21
	strb	w1, [sp, 144]
.L970:
	str	x23, [sp, 136]
	strb	wzr, [x0, x23]
	ldr	w23, [x22]
	cbz	w23, .L971
.L952:
	add	x0, x19, 16
	stp	x0, xzr, [x19]
	strb	wzr, [x19, 16]
.L972:
	ldr	x0, [sp, 128]
	cmp	x0, x21
	beq	.L940
	ldr	x1, [sp, 144]
	add	x1, x1, 1
	bl	_ZdlPvm
.L940:
	adrp	x0, :got:__stack_chk_guard
	ldr	x0, [x0, #:got_lo12:__stack_chk_guard]
	ldr	x2, [sp, 632]
	ldr	x1, [x0]
	subs	x2, x2, x1
	mov	x1, 0
	bne	.L1045
	mov	x0, x19
	ldp	x29, x30, [sp]
	ldp	x19, x20, [sp, 16]
	ldp	x21, x22, [sp, 32]
	ldp	x23, x24, [sp, 48]
	ldp	x25, x26, [sp, 64]
	ldp	x27, x28, [sp, 80]
	add	sp, sp, 640
	.cfi_remember_state
	.cfi_restore 29
	.cfi_restore 30
	.cfi_restore 27
	.cfi_restore 28
	.cfi_restore 25
	.cfi_restore 26
	.cfi_restore 23
	.cfi_restore 24
	.cfi_restore 21
	.cfi_restore 22
	.cfi_restore 19
	.cfi_restore 20
	.cfi_def_cfa_offset 0
	ret
	.p2align 2,,3
.L1043:
	.cfi_restore_state
	mov	x0, x26
	adrp	x21, :got:_ZZN4asio15system_categoryEvE8instance
	bl	__cxa_guard_acquire
	cbz	w0, .L943
	adrp	x0, :got:_ZN4asio6detail15system_categoryD1Ev
	adrp	x2, __dso_handle
	ldr	x1, [x21, #:got_lo12:_ZZN4asio15system_categoryEvE8instance]
	add	x2, x2, :lo12:__dso_handle
	ldr	x0, [x0, #:got_lo12:_ZN4asio6detail15system_categoryD1Ev]
	bl	__cxa_atexit
	mov	x0, x26
	bl	__cxa_guard_release
	b	.L943
	.p2align 2,,3
.L1038:
	cbz	w23, .L1046
	add	x21, sp, 144
	stp	x21, xzr, [sp, 128]
	strb	wzr, [sp, 144]
	cbnz	w23, .L952
.L971:
	add	x25, sp, 272
	adrp	x22, :got:_ZTVSt9basic_iosIcSt11char_traitsIcEE
	mov	x0, x25
	bl	_ZNSt8ios_baseC2Ev
	adrp	x0, :got:_ZTTNSt7__cxx1119basic_ostringstreamIcSt11char_traitsIcESaIcEEE
	add	x1, sp, 528
	movi	v0.4s, 0
	add	x3, sp, 528
	ldr	x0, [x0, #:got_lo12:_ZTTNSt7__cxx1119basic_ostringstreamIcSt11char_traitsIcESaIcEEE]
	str	xzr, [sp, 488]
	strh	wzr, [sp, 496]
	add	x23, sp, 160
	ldr	x2, [x22, #:got_lo12:_ZTVSt9basic_iosIcSt11char_traitsIcEE]
	str	q0, [x1, -24]
	mov	x1, 0
	ldp	x24, x26, [x0, 8]
	str	q0, [x3, -8]
	add	x2, x2, 16
	ldr	x3, [x24, -24]
	str	x24, [sp, 160]
	str	x2, [sp, 272]
	add	x0, x23, x3
	str	x26, [x23, x3]
.LEHB12:
	bl	_ZNSt9basic_iosIcSt11char_traitsIcEE4initEPSt15basic_streambufIcS1_E
.LEHE12:
	adrp	x1, :got:_ZTVSt15basic_streambufIcSt11char_traitsIcEE
	adrp	x0, :got:_ZTVNSt7__cxx1119basic_ostringstreamIcSt11char_traitsIcESaIcEEE
	movi	v0.4s, 0
	add	x27, sp, 224
	ldr	x2, [x1, #:got_lo12:_ZTVSt15basic_streambufIcSt11char_traitsIcEE]
	add	x28, sp, 168
	ldr	x0, [x0, #:got_lo12:_ZTVNSt7__cxx1119basic_ostringstreamIcSt11char_traitsIcESaIcEEE]
	add	x2, x2, 16
	stp	q0, q0, [sp, 176]
	add	x3, x0, 24
	add	x1, x0, 64
	stp	x3, x2, [sp, 160]
	add	x2, sp, 256
	mov	x0, x27
	str	x2, [sp, 104]
	str	q0, [sp, 208]
	str	x1, [sp, 272]
	bl	_ZNSt6localeC1Ev
	adrp	x0, :got:_ZTVNSt7__cxx1115basic_stringbufIcSt11char_traitsIcESaIcEEE
	mov	w3, 16
	mov	x1, x28
	str	w3, [sp, 232]
	ldr	x2, [x0, #:got_lo12:_ZTVNSt7__cxx1115basic_stringbufIcSt11char_traitsIcESaIcEEE]
	mov	x0, x25
	str	xzr, [sp, 248]
	add	x2, x2, 16
	str	x2, [sp, 168]
	ldr	x2, [sp, 104]
	str	x2, [sp, 240]
	strb	wzr, [sp, 256]
.LEHB13:
	bl	_ZNSt9basic_iosIcSt11char_traitsIcEE4initEPSt15basic_streambufIcS1_E
.LEHE13:
.LEHB14:
	bl	_ZNSt6locale7classicEv
	add	x28, sp, 120
	mov	x1, x0
	mov	x8, x28
	mov	x0, x25
	bl	_ZNSt9basic_iosIcSt11char_traitsIcEE5imbueERKSt6locale
	mov	x0, x28
	bl	_ZNSt6localeD1Ev
	ldrh	w0, [x20]
	cmp	w0, 2
	beq	.L1047
	mov	w3, 91
	add	x1, sp, 117
	mov	x0, x23
	mov	x2, 1
	strb	w3, [sp, 117]
	bl	_ZSt16__ostream_insertIcSt11char_traitsIcEERSt13basic_ostreamIT_T0_ES6_PKS3_l
	ldp	x1, x2, [sp, 128]
	bl	_ZSt16__ostream_insertIcSt11char_traitsIcEERSt13basic_ostreamIT_T0_ES6_PKS3_l
	mov	w3, 93
	add	x1, sp, 118
	mov	x2, 1
	strb	w3, [sp, 118]
	bl	_ZSt16__ostream_insertIcSt11char_traitsIcEERSt13basic_ostreamIT_T0_ES6_PKS3_l
.L978:
	mov	w3, 58
	add	x1, sp, 119
	mov	x0, x23
	mov	x2, 1
	strb	w3, [sp, 119]
	bl	_ZSt16__ostream_insertIcSt11char_traitsIcEERSt13basic_ostreamIT_T0_ES6_PKS3_l
	ldrh	w1, [x20, 2]
	rev16	w1, w1
	and	x1, x1, 65535
	bl	_ZNSo9_M_insertImEERSoT_
.LEHE14:
	ldr	x5, [sp, 208]
	add	x20, x19, 16
	stp	x20, xzr, [x19]
	strb	wzr, [x19, 16]
	cbz	x5, .L979
	ldp	x4, x3, [sp, 192]
	mov	x0, x19
	mov	x2, 0
	mov	x1, 0
	cmp	x4, 0
	ccmp	x5, x4, 2, ne
	csel	x4, x5, x4, hi
	sub	x4, x4, x3
.LEHB15:
	bl	_ZNSt7__cxx1112basic_stringIcSt11char_traitsIcESaIcEE10_M_replaceEmmPKcm
.LEHE15:
.L981:
	adrp	x0, :got:_ZTVNSt7__cxx1119basic_ostringstreamIcSt11char_traitsIcESaIcEEE
	ldr	x1, [x0, #:got_lo12:_ZTVNSt7__cxx1119basic_ostringstreamIcSt11char_traitsIcESaIcEEE]
	adrp	x0, :got:_ZTVNSt7__cxx1115basic_stringbufIcSt11char_traitsIcESaIcEEE
	add	x3, x1, 24
	add	x1, x1, 64
	ldr	x2, [x0, #:got_lo12:_ZTVNSt7__cxx1115basic_stringbufIcSt11char_traitsIcESaIcEEE]
	str	x1, [sp, 272]
	ldr	x1, [sp, 104]
	add	x2, x2, 16
	ldr	x0, [sp, 240]
	stp	x3, x2, [sp, 160]
	cmp	x0, x1
	beq	.L983
	ldr	x1, [sp, 256]
	add	x1, x1, 1
	bl	_ZdlPvm
.L983:
	adrp	x0, :got:_ZTVSt15basic_streambufIcSt11char_traitsIcEE
	ldr	x1, [x0, #:got_lo12:_ZTVSt15basic_streambufIcSt11char_traitsIcEE]
	mov	x0, x27
	add	x1, x1, 16
	str	x1, [sp, 168]
	bl	_ZNSt6localeD1Ev
	ldr	x1, [x24, -24]
	str	x24, [sp, 160]
	ldr	x22, [x22, #:got_lo12:_ZTVSt9basic_iosIcSt11char_traitsIcEE]
	mov	x0, x25
	str	x26, [x23, x1]
	add	x22, x22, 16
	str	x22, [sp, 272]
	bl	_ZNSt8ios_baseD2Ev
	b	.L972
	.p2align 2,,3
.L969:
	mov	x0, x21
	cbz	x23, .L970
	b	.L968
	.p2align 2,,3
.L1044:
	mov	x0, x1
	mov	x2, 0
	add	x1, sp, 120
.LEHB16:
	bl	_ZNSt7__cxx1112basic_stringIcSt11char_traitsIcESaIcEE9_M_createERmm
.LEHE16:
	ldr	x1, [sp, 120]
	str	x0, [sp, 128]
	str	x1, [sp, 144]
.L968:
	mov	x2, x23
	mov	x1, x25
	bl	memcpy
	ldp	x23, x0, [sp, 120]
	b	.L970
	.p2align 2,,3
.L1040:
	mov	x0, x26
	str	x5, [sp, 104]
	bl	__cxa_guard_acquire
	adrp	x21, :got:_ZZN4asio15system_categoryEvE8instance
	ldr	x5, [sp, 104]
	cbz	w0, .L945
	adrp	x0, :got:_ZN4asio6detail15system_categoryD1Ev
	adrp	x2, __dso_handle
	ldr	x1, [x21, #:got_lo12:_ZZN4asio15system_categoryEvE8instance]
	add	x2, x2, :lo12:__dso_handle
	ldr	x0, [x0, #:got_lo12:_ZN4asio6detail15system_categoryD1Ev]
	bl	__cxa_atexit
	mov	x0, x26
	bl	__cxa_guard_release
	ldr	x5, [sp, 104]
	b	.L945
	.p2align 2,,3
.L1047:
	ldp	x1, x2, [sp, 128]
	mov	x0, x23
.LEHB17:
	bl	_ZSt16__ostream_insertIcSt11char_traitsIcEERSt13basic_ostreamIT_T0_ES6_PKS3_l
.LEHE17:
	b	.L978
	.p2align 2,,3
.L1046:
	ldr	x24, [x24, #:got_lo12:_ZGVZN4asio15system_categoryEvE8instance]
	ldar	x0, [x24]
	tbz	x0, 0, .L1048
.L966:
	ldr	x0, [x21, #:got_lo12:_ZZN4asio15system_categoryEvE8instance]
	add	x21, sp, 144
	stp	x21, xzr, [sp, 128]
	mov	w1, 22
	str	w1, [x22]
	str	x0, [x22, 8]
	strb	wzr, [sp, 144]
	b	.L952
	.p2align 2,,3
.L979:
	add	x1, sp, 240
	mov	x0, x19
.LEHB18:
	bl	_ZNSt7__cxx1112basic_stringIcSt11char_traitsIcESaIcEE9_M_assignERKS4_
.LEHE18:
	b	.L981
	.p2align 2,,3
.L959:
	mov	x0, x21
	cbz	x23, .L970
	b	.L958
	.p2align 2,,3
.L1042:
	mov	x0, x1
	mov	x2, 0
	add	x1, sp, 120
	str	x5, [sp, 104]
.LEHB19:
	bl	_ZNSt7__cxx1112basic_stringIcSt11char_traitsIcESaIcEE9_M_createERmm
	str	x0, [sp, 128]
	ldr	x5, [sp, 104]
	ldr	x1, [sp, 120]
	str	x1, [sp, 144]
.L958:
	mov	x2, x23
	mov	x1, x5
	bl	memcpy
	ldp	x23, x0, [sp, 120]
	b	.L970
	.p2align 2,,3
.L1041:
	ldrb	w0, [sp, 169]
	and	w0, w0, 192
	cmp	w0, 128
	beq	.L954
.L1031:
	add	x21, sp, 545
	b	.L956
	.p2align 2,,3
.L954:
	add	x21, sp, 545
	mov	w0, w27
	mov	x1, x21
	str	x5, [sp, 104]
	bl	if_indextoname
	ldr	x5, [sp, 104]
	cbnz	x0, .L955
	b	.L956
	.p2align 2,,3
.L1048:
	mov	x0, x24
	bl	__cxa_guard_acquire
	cbz	w0, .L966
	adrp	x0, :got:_ZN4asio6detail15system_categoryD1Ev
	mov	x1, x26
	adrp	x2, __dso_handle
	add	x2, x2, :lo12:__dso_handle
	ldr	x0, [x0, #:got_lo12:_ZN4asio6detail15system_categoryD1Ev]
	bl	__cxa_atexit
	mov	x0, x24
	bl	__cxa_guard_release
	b	.L966
.L1045:
	bl	__stack_chk_fail
.L1002:
	mov	x19, x0
	mov	x0, x28
	bl	_ZNSt7__cxx1115basic_stringbufIcSt11char_traitsIcESaIcEED1Ev
	ldr	x0, [x24, -24]
	str	x24, [sp, 160]
	str	x26, [x23, x0]
.L975:
	ldr	x1, [x22, #:got_lo12:_ZTVSt9basic_iosIcSt11char_traitsIcEE]
	mov	x0, x25
	add	x1, x1, 16
	str	x1, [sp, 272]
	bl	_ZNSt8ios_baseD2Ev
.L976:
	ldr	x0, [sp, 128]
	cmp	x0, x21
	beq	.L988
	ldr	x1, [sp, 144]
	add	x1, x1, 1
	bl	_ZdlPvm
.L988:
	mov	x0, x19
	bl	_Unwind_Resume
.LEHE19:
.L1000:
	mov	x19, x0
.L986:
	mov	x0, x23
	bl	_ZNSt7__cxx1119basic_ostringstreamIcSt11char_traitsIcESaIcEED1Ev
	b	.L976
.L1001:
	mov	x19, x0
	b	.L975
.L1003:
	ldr	x2, [x19]
	mov	x22, x0
	cmp	x20, x2
	beq	.L985
	ldr	x1, [x19, 16]
	mov	x0, x2
	add	x1, x1, 1
	bl	_ZdlPvm
.L985:
	mov	x19, x22
	b	.L986
	.cfi_endproc
.LFE6014:
	.section	.gcc_except_table._ZNK4asio2ip6detail8endpoint9to_stringB5cxx11ERSt10error_code,"aG",@progbits,_ZNK4asio2ip6detail8endpoint9to_stringB5cxx11ERSt10error_code,comdat
.LLSDA6014:
	.byte	0xff
	.byte	0xff
	.byte	0x1
	.uleb128 .LLSDACSE6014-.LLSDACSB6014
.LLSDACSB6014:
	.uleb128 .LEHB12-.LFB6014
	.uleb128 .LEHE12-.LEHB12
	.uleb128 .L1001-.LFB6014
	.uleb128 0
	.uleb128 .LEHB13-.LFB6014
	.uleb128 .LEHE13-.LEHB13
	.uleb128 .L1002-.LFB6014
	.uleb128 0
	.uleb128 .LEHB14-.LFB6014
	.uleb128 .LEHE14-.LEHB14
	.uleb128 .L1000-.LFB6014
	.uleb128 0
	.uleb128 .LEHB15-.LFB6014
	.uleb128 .LEHE15-.LEHB15
	.uleb128 .L1003-.LFB6014
	.uleb128 0
	.uleb128 .LEHB16-.LFB6014
	.uleb128 .LEHE16-.LEHB16
	.uleb128 0
	.uleb128 0
	.uleb128 .LEHB17-.LFB6014
	.uleb128 .LEHE17-.LEHB17
	.uleb128 .L1000-.LFB6014
	.uleb128 0
	.uleb128 .LEHB18-.LFB6014
	.uleb128 .LEHE18-.LEHB18
	.uleb128 .L1003-.LFB6014
	.uleb128 0
	.uleb128 .LEHB19-.LFB6014
	.uleb128 .LEHE19-.LEHB19
	.uleb128 0
	.uleb128 0
.LLSDACSE6014:
	.section	.text._ZNK4asio2ip6detail8endpoint9to_stringB5cxx11ERSt10error_code,"axG",@progbits,_ZNK4asio2ip6detail8endpoint9to_stringB5cxx11ERSt10error_code,comdat
	.size	_ZNK4asio2ip6detail8endpoint9to_stringB5cxx11ERSt10error_code, .-_ZNK4asio2ip6detail8endpoint9to_stringB5cxx11ERSt10error_code
	.section	.rodata.str1.8,"aMS",@progbits,1
	.align	3
.LC23:
	.string	"session-"
	.text
	.align	2
	.p2align 4,,11
	.global	_ZN8asiodnp315MasterTCPServer17SessionIdToStringB5cxx11Em
	.type	_ZN8asiodnp315MasterTCPServer17SessionIdToStringB5cxx11Em, %function
_ZN8asiodnp315MasterTCPServer17SessionIdToStringB5cxx11Em:
.LFB8279:
	.cfi_startproc
	.cfi_personality 0x9b,DW.ref.__gxx_personality_v0
	.cfi_lsda 0x1b,.LLSDA8279
	stp	x29, x30, [sp, -496]!
	.cfi_def_cfa_offset 496
	.cfi_offset 29, -496
	.cfi_offset 30, -488
	adrp	x1, :got:__stack_chk_guard
	mov	x29, sp
	ldr	x1, [x1, #:got_lo12:__stack_chk_guard]
	stp	x19, x20, [sp, 16]
	.cfi_offset 19, -480
	.cfi_offset 20, -472
	mov	x19, x8
	stp	x21, x22, [sp, 32]
	.cfi_offset 21, -464
	.cfi_offset 22, -456
	adrp	x21, :got:_ZTVSt9basic_iosIcSt11char_traitsIcEE
	add	x22, sp, 112
	stp	x23, x24, [sp, 48]
	.cfi_offset 23, -448
	.cfi_offset 24, -440
	add	x24, sp, 224
	stp	x25, x26, [sp, 64]
	stp	x27, x28, [sp, 80]
	.cfi_offset 25, -432
	.cfi_offset 26, -424
	.cfi_offset 27, -416
	.cfi_offset 28, -408
	str	x0, [sp, 104]
	mov	x0, x24
	ldr	x2, [x1]
	str	x2, [sp, 488]
	mov	x2, 0
	bl	_ZNSt8ios_baseC2Ev
	strh	wzr, [sp, 448]
	adrp	x0, :got:_ZTTNSt7__cxx1119basic_ostringstreamIcSt11char_traitsIcESaIcEEE
	add	x1, sp, 528
	movi	v0.4s, 0
	add	x3, sp, 528
	ldr	x0, [x0, #:got_lo12:_ZTTNSt7__cxx1119basic_ostringstreamIcSt11char_traitsIcESaIcEEE]
	ldr	x2, [x21, #:got_lo12:_ZTVSt9basic_iosIcSt11char_traitsIcEE]
	str	q0, [x1, -72]
	mov	x1, 0
	ldp	x23, x26, [x0, 8]
	str	q0, [x3, -56]
	add	x2, x2, 16
	ldr	x3, [x23, -24]
	str	x23, [sp, 112]
	str	x2, [sp, 224]
	str	xzr, [sp, 440]
	add	x0, x22, x3
	str	x26, [x22, x3]
.LEHB20:
	bl	_ZNSt9basic_iosIcSt11char_traitsIcEE4initEPSt15basic_streambufIcS1_E
.LEHE20:
	adrp	x1, :got:_ZTVSt15basic_streambufIcSt11char_traitsIcEE
	adrp	x20, :got:_ZTVNSt7__cxx1119basic_ostringstreamIcSt11char_traitsIcESaIcEEE
	movi	v0.4s, 0
	add	x27, sp, 176
	ldr	x0, [x20, #:got_lo12:_ZTVNSt7__cxx1119basic_ostringstreamIcSt11char_traitsIcESaIcEEE]
	add	x25, sp, 120
	ldr	x2, [x1, #:got_lo12:_ZTVSt15basic_streambufIcSt11char_traitsIcEE]
	add	x3, x0, 24
	add	x1, x0, 64
	mov	x0, x27
	add	x2, x2, 16
	stp	x3, x2, [sp, 112]
	add	x28, sp, 208
	stp	q0, q0, [sp, 128]
	str	q0, [sp, 160]
	str	x1, [sp, 224]
	bl	_ZNSt6localeC1Ev
	adrp	x0, :got:_ZTVNSt7__cxx1115basic_stringbufIcSt11char_traitsIcESaIcEEE
	mov	w3, 16
	mov	x1, x25
	str	w3, [sp, 184]
	ldr	x2, [x0, #:got_lo12:_ZTVNSt7__cxx1115basic_stringbufIcSt11char_traitsIcESaIcEEE]
	mov	x0, x24
	stp	x28, xzr, [sp, 192]
	add	x2, x2, 16
	str	x2, [sp, 120]
	strb	wzr, [sp, 208]
.LEHB21:
	bl	_ZNSt9basic_iosIcSt11char_traitsIcEE4initEPSt15basic_streambufIcS1_E
.LEHE21:
	adrp	x1, .LC23
	mov	x0, x22
	add	x1, x1, :lo12:.LC23
	mov	x2, 8
.LEHB22:
	bl	_ZSt16__ostream_insertIcSt11char_traitsIcEERSt13basic_ostreamIT_T0_ES6_PKS3_l
	ldr	x1, [sp, 104]
	mov	x0, x22
	bl	_ZNSo9_M_insertImEERSoT_
.LEHE22:
	ldr	x5, [sp, 160]
	add	x25, x19, 16
	stp	x25, xzr, [x19]
	strb	wzr, [x19, 16]
	cbz	x5, .L1053
	ldp	x4, x3, [sp, 144]
	mov	x0, x19
	mov	x2, 0
	mov	x1, 0
	cmp	x4, 0
	ccmp	x5, x4, 2, ne
	csel	x4, x5, x4, hi
	sub	x4, x4, x3
.LEHB23:
	bl	_ZNSt7__cxx1112basic_stringIcSt11char_traitsIcESaIcEE10_M_replaceEmmPKcm
.L1057:
	adrp	x0, :got:_ZTVNSt7__cxx1115basic_stringbufIcSt11char_traitsIcESaIcEEE
	ldr	x20, [x20, #:got_lo12:_ZTVNSt7__cxx1119basic_ostringstreamIcSt11char_traitsIcESaIcEEE]
	ldr	x1, [x0, #:got_lo12:_ZTVNSt7__cxx1115basic_stringbufIcSt11char_traitsIcESaIcEEE]
	add	x2, x20, 24
	ldr	x0, [sp, 192]
	add	x1, x1, 16
	add	x20, x20, 64
	stp	x2, x1, [sp, 112]
	str	x20, [sp, 224]
	cmp	x0, x28
	beq	.L1056
	ldr	x1, [sp, 208]
	add	x1, x1, 1
	bl	_ZdlPvm
.L1056:
	adrp	x0, :got:_ZTVSt15basic_streambufIcSt11char_traitsIcEE
	ldr	x1, [x0, #:got_lo12:_ZTVSt15basic_streambufIcSt11char_traitsIcEE]
	mov	x0, x27
	add	x1, x1, 16
	str	x1, [sp, 120]
	bl	_ZNSt6localeD1Ev
	ldr	x1, [x23, -24]
	str	x23, [sp, 112]
	ldr	x21, [x21, #:got_lo12:_ZTVSt9basic_iosIcSt11char_traitsIcEE]
	mov	x0, x24
	str	x26, [x22, x1]
	add	x21, x21, 16
	str	x21, [sp, 224]
	bl	_ZNSt8ios_baseD2Ev
	adrp	x0, :got:__stack_chk_guard
	ldr	x0, [x0, #:got_lo12:__stack_chk_guard]
	ldr	x2, [sp, 488]
	ldr	x1, [x0]
	subs	x2, x2, x1
	mov	x1, 0
	bne	.L1071
	mov	x0, x19
	ldp	x19, x20, [sp, 16]
	ldp	x21, x22, [sp, 32]
	ldp	x23, x24, [sp, 48]
	ldp	x25, x26, [sp, 64]
	ldp	x27, x28, [sp, 80]
	ldp	x29, x30, [sp], 496
	.cfi_remember_state
	.cfi_restore 30
	.cfi_restore 29
	.cfi_restore 27
	.cfi_restore 28
	.cfi_restore 25
	.cfi_restore 26
	.cfi_restore 23
	.cfi_restore 24
	.cfi_restore 21
	.cfi_restore 22
	.cfi_restore 19
	.cfi_restore 20
	.cfi_def_cfa_offset 0
	ret
	.p2align 2,,3
.L1053:
	.cfi_restore_state
	add	x1, sp, 192
	mov	x0, x19
	bl	_ZNSt7__cxx1112basic_stringIcSt11char_traitsIcESaIcEE9_M_assignERKS4_
.LEHE23:
	b	.L1057
.L1071:
	bl	__stack_chk_fail
.L1062:
	mov	x20, x0
.L1060:
	mov	x0, x22
	bl	_ZNSt7__cxx1119basic_ostringstreamIcSt11char_traitsIcESaIcEED1Ev
	mov	x0, x20
.LEHB24:
	bl	_Unwind_Resume
.L1065:
	ldr	x2, [x19]
	mov	x20, x0
	cmp	x25, x2
	beq	.L1060
	ldr	x1, [x19, 16]
	mov	x0, x2
	add	x1, x1, 1
	bl	_ZdlPvm
	b	.L1060
.L1064:
	mov	x19, x0
	mov	x0, x25
	bl	_ZNSt7__cxx1115basic_stringbufIcSt11char_traitsIcESaIcEED1Ev
	ldr	x0, [x23, -24]
	str	x23, [sp, 112]
	str	x26, [x22, x0]
.L1052:
	ldr	x1, [x21, #:got_lo12:_ZTVSt9basic_iosIcSt11char_traitsIcEE]
	mov	x0, x24
	add	x1, x1, 16
	str	x1, [sp, 224]
	bl	_ZNSt8ios_baseD2Ev
	mov	x0, x19
	bl	_Unwind_Resume
.LEHE24:
.L1063:
	mov	x19, x0
	b	.L1052
	.cfi_endproc
.LFE8279:
	.section	.gcc_except_table,"a",@progbits
.LLSDA8279:
	.byte	0xff
	.byte	0xff
	.byte	0x1
	.uleb128 .LLSDACSE8279-.LLSDACSB8279
.LLSDACSB8279:
	.uleb128 .LEHB20-.LFB8279
	.uleb128 .LEHE20-.LEHB20
	.uleb128 .L1063-.LFB8279
	.uleb128 0
	.uleb128 .LEHB21-.LFB8279
	.uleb128 .LEHE21-.LEHB21
	.uleb128 .L1064-.LFB8279
	.uleb128 0
	.uleb128 .LEHB22-.LFB8279
	.uleb128 .LEHE22-.LEHB22
	.uleb128 .L1062-.LFB8279
	.uleb128 0
	.uleb128 .LEHB23-.LFB8279
	.uleb128 .LEHE23-.LEHB23
	.uleb128 .L1065-.LFB8279
	.uleb128 0
	.uleb128 .LEHB24-.LFB8279
	.uleb128 .LEHE24-.LEHB24
	.uleb128 0
	.uleb128 0
.LLSDACSE8279:
	.text
	.size	_ZN8asiodnp315MasterTCPServer17SessionIdToStringB5cxx11Em, .-_ZN8asiodnp315MasterTCPServer17SessionIdToStringB5cxx11Em
	.section	.text._ZN4asio2iplsIcSt11char_traitsIcENS0_3tcpEEERSt13basic_ostreamIT_T0_ES9_RKNS0_14basic_endpointIT1_EE,"axG",@progbits,_ZN4asio2iplsIcSt11char_traitsIcENS0_3tcpEEERSt13basic_ostreamIT_T0_ES9_RKNS0_14basic_endpointIT1_EE,comdat
	.align	2
	.p2align 4,,11
	.weak	_ZN4asio2iplsIcSt11char_traitsIcENS0_3tcpEEERSt13basic_ostreamIT_T0_ES9_RKNS0_14basic_endpointIT1_EE
	.type	_ZN4asio2iplsIcSt11char_traitsIcENS0_3tcpEEERSt13basic_ostreamIT_T0_ES9_RKNS0_14basic_endpointIT1_EE, %function
_ZN4asio2iplsIcSt11char_traitsIcENS0_3tcpEEERSt13basic_ostreamIT_T0_ES9_RKNS0_14basic_endpointIT1_EE:
.LFB9197:
	.cfi_startproc
	.cfi_personality 0x9b,DW.ref.__gxx_personality_v0
	.cfi_lsda 0x1b,.LLSDA9197
	stp	x29, x30, [sp, -160]!
	.cfi_def_cfa_offset 160
	.cfi_offset 29, -160
	.cfi_offset 30, -152
	adrp	x2, :got:__stack_chk_guard
	mov	x29, sp
	ldr	x2, [x2, #:got_lo12:__stack_chk_guard]
	stp	x19, x20, [sp, 16]
	.cfi_offset 19, -144
	.cfi_offset 20, -136
	mov	x20, x0
	stp	x21, x22, [sp, 32]
	stp	x23, x24, [sp, 48]
	.cfi_offset 21, -128
	.cfi_offset 22, -120
	.cfi_offset 23, -112
	.cfi_offset 24, -104
	ldrh	w3, [x1]
	ldr	x0, [x2]
	str	x0, [sp, 152]
	mov	x0, 0
	ldrh	w0, [x1, 2]
	cmp	w3, 2
	beq	.L1095
	mov	x2, 10
	str	x2, [sp, 88]
	strh	w0, [sp, 90]
	ldr	w0, [x1, 24]
	ldp	x2, x3, [x1, 8]
	stp	x2, x3, [sp, 96]
	str	w0, [sp, 112]
.L1074:
	str	wzr, [sp, 72]
	bl	_ZNSt3_V215system_categoryEv
	mov	x2, x0
	add	x19, sp, 72
	add	x0, sp, 88
	mov	x1, x19
	add	x8, sp, 120
	str	x2, [sp, 80]
.LEHB25:
	bl	_ZNK4asio2ip6detail8endpoint9to_stringB5cxx11ERSt10error_code
.LEHE25:
	ldr	w0, [sp, 72]
	cbz	w0, .L1075
	ldr	x0, [x20]
	ldr	x0, [x0, -24]
	add	x0, x20, x0
	ldr	w1, [x0, 28]
	tbnz	x1, 2, .L1096
	ldr	w1, [x0, 32]
	orr	w1, w1, 4
.LEHB26:
	bl	_ZNSt9basic_iosIcSt11char_traitsIcEE5clearESt12_Ios_Iostate
	ldr	x0, [sp, 120]
.L1078:
	add	x1, sp, 136
	cmp	x0, x1
	beq	.L1083
	ldr	x1, [sp, 136]
	add	x1, x1, 1
	bl	_ZdlPvm
.L1083:
	adrp	x0, :got:__stack_chk_guard
	ldr	x0, [x0, #:got_lo12:__stack_chk_guard]
	ldr	x2, [sp, 152]
	ldr	x1, [x0]
	subs	x2, x2, x1
	mov	x1, 0
	bne	.L1097
	mov	x0, x20
	ldp	x19, x20, [sp, 16]
	ldp	x21, x22, [sp, 32]
	ldp	x23, x24, [sp, 48]
	ldp	x29, x30, [sp], 160
	.cfi_remember_state
	.cfi_restore 30
	.cfi_restore 29
	.cfi_restore 23
	.cfi_restore 24
	.cfi_restore 21
	.cfi_restore 22
	.cfi_restore 19
	.cfi_restore 20
	.cfi_def_cfa_offset 0
	ret
	.p2align 2,,3
.L1075:
	.cfi_restore_state
	ldp	x0, x1, [sp, 120]
	cbz	x1, .L1078
	adrp	x23, :got:_ZNKSt5ctypeIcE8do_widenEc
	mov	x21, x0
	add	x22, sp, 71
	ldr	x23, [x23, #:got_lo12:_ZNKSt5ctypeIcE8do_widenEc]
	b	.L1082
	.p2align 2,,3
.L1099:
	add	x19, x19, w24, sxtw
	ldrb	w24, [x19, 57]
.L1081:
	mov	x1, x22
	mov	x0, x20
	mov	x2, 1
	strb	w24, [sp, 71]
	bl	_ZSt16__ostream_insertIcSt11char_traitsIcEERSt13basic_ostreamIT_T0_ES6_PKS3_l
	ldp	x0, x1, [sp, 120]
	add	x21, x21, 1
	add	x1, x0, x1
	cmp	x1, x21
	beq	.L1078
.L1082:
	ldr	x0, [x20]
	ldrb	w24, [x21]
	ldr	x1, [x0, -24]
	add	x1, x20, x1
	ldr	x19, [x1, 240]
	cbz	x19, .L1098
	ldrb	w0, [x19, 56]
	cbnz	w0, .L1099
	mov	x0, x19
	bl	_ZNKSt5ctypeIcE13_M_widen_initEv
	ldr	x0, [x19]
	ldr	x2, [x0, 48]
	cmp	x2, x23
	beq	.L1081
	mov	w1, w24
	mov	x0, x19
	blr	x2
	and	w24, w0, 255
	b	.L1081
	.p2align 2,,3
.L1095:
	ldr	w1, [x1, 4]
	mov	x2, 2
	str	x2, [sp, 88]
	strh	w0, [sp, 90]
	str	w1, [sp, 92]
	stp	xzr, xzr, [sp, 96]
	str	wzr, [sp, 112]
	b	.L1074
.L1098:
	bl	_ZSt16__throw_bad_castv
.L1097:
	bl	__stack_chk_fail
.L1096:
	mov	x0, x19
	bl	_ZN4asio6detail14do_throw_errorERKSt10error_code
.LEHE26:
.L1087:
	ldr	x2, [sp, 120]
	add	x1, sp, 136
	mov	x19, x0
	cmp	x2, x1
	beq	.L1085
	ldr	x1, [sp, 136]
	mov	x0, x2
	add	x1, x1, 1
	bl	_ZdlPvm
.L1085:
	mov	x0, x19
.LEHB27:
	bl	_Unwind_Resume
.LEHE27:
	.cfi_endproc
.LFE9197:
	.section	.gcc_except_table
.LLSDA9197:
	.byte	0xff
	.byte	0xff
	.byte	0x1
	.uleb128 .LLSDACSE9197-.LLSDACSB9197
.LLSDACSB9197:
	.uleb128 .LEHB25-.LFB9197
	.uleb128 .LEHE25-.LEHB25
	.uleb128 0
	.uleb128 0
	.uleb128 .LEHB26-.LFB9197
	.uleb128 .LEHE26-.LEHB26
	.uleb128 .L1087-.LFB9197
	.uleb128 0
	.uleb128 .LEHB27-.LFB9197
	.uleb128 .LEHE27-.LEHB27
	.uleb128 0
	.uleb128 0
.LLSDACSE9197:
	.section	.text._ZN4asio2iplsIcSt11char_traitsIcENS0_3tcpEEERSt13basic_ostreamIT_T0_ES9_RKNS0_14basic_endpointIT1_EE,"axG",@progbits,_ZN4asio2iplsIcSt11char_traitsIcENS0_3tcpEEERSt13basic_ostreamIT_T0_ES9_RKNS0_14basic_endpointIT1_EE,comdat
	.size	_ZN4asio2iplsIcSt11char_traitsIcENS0_3tcpEEERSt13basic_ostreamIT_T0_ES9_RKNS0_14basic_endpointIT1_EE, .-_ZN4asio2iplsIcSt11char_traitsIcENS0_3tcpEEERSt13basic_ostreamIT_T0_ES9_RKNS0_14basic_endpointIT1_EE
	.section	.text._ZNSt16_Sp_counted_baseILN9__gnu_cxx12_Lock_policyE2EE10_M_releaseEv,"axG",@progbits,_ZNSt16_Sp_counted_baseILN9__gnu_cxx12_Lock_policyE2EE10_M_releaseEv,comdat
	.align	2
	.p2align 4,,11
	.weak	_ZNSt16_Sp_counted_baseILN9__gnu_cxx12_Lock_policyE2EE10_M_releaseEv
	.type	_ZNSt16_Sp_counted_baseILN9__gnu_cxx12_Lock_policyE2EE10_M_releaseEv, %function
_ZNSt16_Sp_counted_baseILN9__gnu_cxx12_Lock_policyE2EE10_M_releaseEv:
.LFB9320:
	.cfi_startproc
	stp	x29, x30, [sp, -32]!
	.cfi_def_cfa_offset 32
	.cfi_offset 29, -32
	.cfi_offset 30, -24
	mov	x29, sp
	stp	x19, x20, [sp, 16]
	.cfi_offset 19, -16
	.cfi_offset 20, -8
	adrp	x20, :got:__libc_single_threaded
	mov	x19, x0
	ldr	x0, [x20, #:got_lo12:__libc_single_threaded]
	ldrb	w0, [x0]
	cbz	w0, .L1101
	ldr	w0, [x19, 8]
	sub	w1, w0, #1
	str	w1, [x19, 8]
.L1102:
	cmp	w0, 1
	beq	.L1109
.L1100:
	ldp	x19, x20, [sp, 16]
	ldp	x29, x30, [sp], 32
	.cfi_remember_state
	.cfi_restore 30
	.cfi_restore 29
	.cfi_restore 19
	.cfi_restore 20
	.cfi_def_cfa_offset 0
	ret
	.p2align 2,,3
.L1109:
	.cfi_restore_state
	ldr	x1, [x19]
	mov	x0, x19
	ldr	x1, [x1, 16]
	blr	x1
	ldr	x20, [x20, #:got_lo12:__libc_single_threaded]
	ldrb	w0, [x20]
	cbz	w0, .L1105
	ldr	w0, [x19, 12]
	sub	w1, w0, #1
	str	w1, [x19, 12]
.L1106:
	cmp	w0, 1
	bne	.L1100
	ldr	x1, [x19]
	mov	x0, x19
	ldp	x19, x20, [sp, 16]
	ldp	x29, x30, [sp], 32
	.cfi_remember_state
	.cfi_restore 30
	.cfi_restore 29
	.cfi_restore 19
	.cfi_restore 20
	.cfi_def_cfa_offset 0
	ldr	x1, [x1, 24]
	mov	x16, x1
	br	x16
	.p2align 2,,3
.L1101:
	.cfi_restore_state
	add	x1, x19, 8
	mov	w0, -1
	bl	__aarch64_ldadd4_acq_rel
	b	.L1102
	.p2align 2,,3
.L1105:
	add	x1, x19, 12
	mov	w0, -1
	bl	__aarch64_ldadd4_acq_rel
	b	.L1106
	.cfi_endproc
.LFE9320:
	.size	_ZNSt16_Sp_counted_baseILN9__gnu_cxx12_Lock_policyE2EE10_M_releaseEv, .-_ZNSt16_Sp_counted_baseILN9__gnu_cxx12_Lock_policyE2EE10_M_releaseEv
	.global	__aarch64_cas4_acq_rel
	.text
	.align	2
	.p2align 4,,11
	.global	_ZN8asiodnp315MasterTCPServer10OnShutdownEv
	.type	_ZN8asiodnp315MasterTCPServer10OnShutdownEv, %function
_ZN8asiodnp315MasterTCPServer10OnShutdownEv:
.LFB8256:
	.cfi_startproc
	.cfi_personality 0x9b,DW.ref.__gxx_personality_v0
	.cfi_lsda 0x1b,.LLSDA8256
	stp	x29, x30, [sp, -96]!
	.cfi_def_cfa_offset 96
	.cfi_offset 29, -96
	.cfi_offset 30, -88
	adrp	x1, :got:__stack_chk_guard
	mov	x29, sp
	ldr	x1, [x1, #:got_lo12:__stack_chk_guard]
	stp	x19, x20, [sp, 16]
	.cfi_offset 19, -80
	.cfi_offset 20, -72
	mov	x19, x0
	stp	x21, x22, [sp, 32]
	.cfi_offset 21, -64
	.cfi_offset 22, -56
	ldr	x21, [x0, 16]
	str	x23, [sp, 48]
	.cfi_offset 23, -48
	ldr	x23, [x19, 224]
	ldr	x0, [x1]
	str	x0, [sp, 88]
	mov	x0, 0
	cbz	x21, .L1111
	add	x22, x21, 8
	ldr	w20, [x22]
.L1113:
	cbz	w20, .L1111
	add	w1, w20, 1
	mov	w0, w20
	mov	x2, x22
	bl	__aarch64_cas4_acq_rel
	cmp	w0, w20
	mov	w20, w0
	bne	.L1113
	ldr	x2, [x19, 8]
	mov	x0, x23
	add	x1, sp, 72
	stp	x2, x21, [sp, 72]
.LEHB28:
	bl	_ZN7asiopal15ResourceManager6DetachERKSt10shared_ptrINS_9IResourceEE
.LEHE28:
	ldr	x19, [sp, 80]
	cbz	x19, .L1110
	adrp	x20, :got:__libc_single_threaded
	ldr	x0, [x20, #:got_lo12:__libc_single_threaded]
	ldrb	w0, [x0]
	cbz	w0, .L1116
	ldr	w0, [x19, 8]
	sub	w1, w0, #1
	str	w1, [x19, 8]
.L1117:
	cmp	w0, 1
	beq	.L1137
.L1110:
	adrp	x0, :got:__stack_chk_guard
	ldr	x0, [x0, #:got_lo12:__stack_chk_guard]
	ldr	x2, [sp, 88]
	ldr	x1, [x0]
	subs	x2, x2, x1
	mov	x1, 0
	bne	.L1138
	ldp	x19, x20, [sp, 16]
	ldp	x21, x22, [sp, 32]
	ldr	x23, [sp, 48]
	ldp	x29, x30, [sp], 96
	.cfi_remember_state
	.cfi_restore 30
	.cfi_restore 29
	.cfi_restore 23
	.cfi_restore 21
	.cfi_restore 22
	.cfi_restore 19
	.cfi_restore 20
	.cfi_def_cfa_offset 0
	ret
	.p2align 2,,3
.L1137:
	.cfi_restore_state
	ldr	x1, [x19]
	mov	x0, x19
	ldr	x1, [x1, 16]
	blr	x1
	ldr	x20, [x20, #:got_lo12:__libc_single_threaded]
	ldrb	w0, [x20]
	cbz	w0, .L1119
	ldr	w0, [x19, 12]
	sub	w1, w0, #1
	str	w1, [x19, 12]
.L1120:
	cmp	w0, 1
	bne	.L1110
	ldr	x1, [x19]
	mov	x0, x19
	ldr	x1, [x1, 24]
	blr	x1
	b	.L1110
	.p2align 2,,3
.L1116:
	add	x1, x19, 8
	mov	w0, -1
	bl	__aarch64_ldadd4_acq_rel
	b	.L1117
	.p2align 2,,3
.L1119:
	add	x1, x19, 12
	mov	w0, -1
	bl	__aarch64_ldadd4_acq_rel
	b	.L1120
.L1138:
	bl	__stack_chk_fail
.L1125:
	ldr	x1, [sp, 80]
	mov	x19, x0
	cbz	x1, .L1122
	mov	x0, x1
	bl	_ZNSt16_Sp_counted_baseILN9__gnu_cxx12_Lock_policyE2EE10_M_releaseEv
.L1122:
	mov	x0, x19
.LEHB29:
	bl	_Unwind_Resume
.L1111:
	bl	_ZSt20__throw_bad_weak_ptrv
.LEHE29:
	.cfi_endproc
.LFE8256:
	.section	.gcc_except_table
.LLSDA8256:
	.byte	0xff
	.byte	0xff
	.byte	0x1
	.uleb128 .LLSDACSE8256-.LLSDACSB8256
.LLSDACSB8256:
	.uleb128 .LEHB28-.LFB8256
	.uleb128 .LEHE28-.LEHB28
	.uleb128 .L1125-.LFB8256
	.uleb128 0
	.uleb128 .LEHB29-.LFB8256
	.uleb128 .LEHE29-.LEHB29
	.uleb128 0
	.uleb128 0
.LLSDACSE8256:
	.text
	.size	_ZN8asiodnp315MasterTCPServer10OnShutdownEv, .-_ZN8asiodnp315MasterTCPServer10OnShutdownEv
	.global	__aarch64_ldadd8_acq_rel
	.align	2
	.p2align 4,,11
	.type	_ZN7asiopal13IAsyncChannel16CheckForShutdownESt10shared_ptrIS0_E.isra.0, %function
_ZN7asiopal13IAsyncChannel16CheckForShutdownESt10shared_ptrIS0_E.isra.0:
.LFB11443:
	.cfi_startproc
	.cfi_personality 0x9b,DW.ref.__gxx_personality_v0
	.cfi_lsda 0x1b,.LLSDA11443
	stp	x29, x30, [sp, -144]!
	.cfi_def_cfa_offset 144
	.cfi_offset 29, -144
	.cfi_offset 30, -136
	adrp	x1, :got:__stack_chk_guard
	mov	x29, sp
	ldr	x1, [x1, #:got_lo12:__stack_chk_guard]
	stp	x21, x22, [sp, 32]
	.cfi_offset 21, -112
	.cfi_offset 22, -104
	ldr	x21, [x0]
	stp	x19, x20, [sp, 16]
	.cfi_offset 19, -128
	.cfi_offset 20, -120
	mov	x19, x0
	ldr	x0, [x1]
	str	x0, [sp, 136]
	mov	x0, 0
	ldrb	w0, [x21, 57]
	cbnz	w0, .L1140
	ldrb	w0, [x21, 58]
	cbz	w0, .L1141
.L1140:
	ldr	x20, [x19, 8]
	stp	x23, x24, [sp, 48]
	.cfi_offset 24, -88
	.cfi_offset 23, -96
	str	x25, [sp, 64]
	.cfi_offset 25, -80
	cbz	x20, .L1142
	adrp	x22, :got:__libc_single_threaded
	add	x23, x20, 8
	ldr	x22, [x22, #:got_lo12:__libc_single_threaded]
	ldrb	w0, [x22]
	cbz	w0, .L1143
	ldr	w0, [x20, 8]
	ldr	x22, [x21, 24]
	add	w0, w0, 1
	str	w0, [x20, 8]
.L1144:
	ldr	w0, [x20, 8]
	mov	x25, x20
	add	w0, w0, 1
	str	w0, [x20, 8]
.L1146:
	adrp	x23, :got:_ZN4asio6detail10call_stackINS0_15task_io_serviceENS0_27task_io_service_thread_infoEE4top_E
	ldr	x24, [x22, 40]
	ldr	x0, [x23, #:got_lo12:_ZN4asio6detail10call_stackINS0_15task_io_serviceENS0_27task_io_service_thread_infoEE4top_E]
	ldr	w0, [x0]
	bl	pthread_getspecific
	cbz	x0, .L1147
	ldr	x0, [x0, 8]
	cbz	x0, .L1147
	ldr	x19, [x0]
	cbz	x19, .L1147
	str	xzr, [x0]
	ldrb	w0, [x19]
	cmp	w0, 39
	bls	.L1148
	strb	w0, [x19, 40]
	b	.L1149
	.p2align 2,,3
.L1141:
	.cfi_restore 23
	.cfi_restore 24
	.cfi_restore 25
	ldr	x20, [x21, 48]
	stp	xzr, xzr, [x21, 40]
	cbz	x20, .L1139
	adrp	x19, :got:__libc_single_threaded
	ldr	x0, [x19, #:got_lo12:__libc_single_threaded]
	ldrb	w0, [x0]
	cbz	w0, .L1180
	ldr	w0, [x20, 8]
	sub	w1, w0, #1
	str	w1, [x20, 8]
.L1181:
	cmp	w0, 1
	bne	.L1139
	ldr	x1, [x20]
	mov	x0, x20
	ldr	x1, [x1, 16]
	blr	x1
	ldr	x19, [x19, #:got_lo12:__libc_single_threaded]
	ldrb	w0, [x19]
	cbz	w0, .L1183
	ldr	w0, [x20, 12]
	sub	w1, w0, #1
	str	w1, [x20, 12]
.L1184:
	cmp	w0, 1
	bne	.L1139
	adrp	x0, :got:__stack_chk_guard
	ldr	x0, [x0, #:got_lo12:__stack_chk_guard]
	ldr	x2, [sp, 136]
	ldr	x1, [x0]
	subs	x2, x2, x1
	mov	x1, 0
	bne	.L1215
	ldr	x1, [x20]
	mov	x0, x20
	ldr	x1, [x1, 24]
	mov	x16, x1
	b	.L1213
	.p2align 2,,3
.L1148:
	.cfi_offset 23, -96
	.cfi_offset 24, -88
	.cfi_offset 25, -80
	mov	x0, x19
	bl	_ZdlPv
.L1147:
	mov	x0, 41
.LEHB30:
	bl	_Znwm
.LEHE30:
	mov	x19, x0
	mov	w1, 40
	strb	w1, [x0, 40]
.L1149:
	adrp	x1, :got:_ZN4asio6detail18completion_handlerIZN7asiopal13IAsyncChannel16CheckForShutdownESt10shared_ptrIS3_EEUlvE_E11do_completeEPNS0_15task_io_serviceEPNS0_25task_io_service_operationERKSt10error_codem
	dup	v0.2d, x19
	ldr	x0, [x22, 48]
	str	wzr, [x19, 16]
	ldr	x1, [x1, #:got_lo12:_ZN4asio6detail18completion_handlerIZN7asiopal13IAsyncChannel16CheckForShutdownESt10shared_ptrIS3_EEUlvE_E11do_completeEPNS0_15task_io_serviceEPNS0_25task_io_service_operationERKSt10error_codem]
	stp	xzr, x1, [x19]
	add	x0, x0, 24
	stp	x21, x25, [x19, 24]
	str	q0, [sp, 80]
	bl	pthread_mutex_lock
	ldr	x0, [x22, 48]
	ldrb	w1, [x0, 72]
	cbz	w1, .L1150
	str	xzr, [x19]
	ldr	x3, [x0, 88]
	cbz	x3, .L1151
	str	x19, [x3]
	str	x19, [x0, 88]
.L1152:
	add	x0, x0, 24
	bl	pthread_mutex_unlock
.L1153:
	cbz	x20, .L1212
	adrp	x19, :got:__libc_single_threaded
	ldr	x0, [x19, #:got_lo12:__libc_single_threaded]
	ldrb	w0, [x0]
	cbz	w0, .L1174
	ldr	w0, [x20, 8]
	sub	w1, w0, #1
	str	w1, [x20, 8]
.L1175:
	cmp	w0, 1
	beq	.L1216
.L1212:
	ldp	x23, x24, [sp, 48]
	.cfi_restore 24
	.cfi_restore 23
	ldr	x25, [sp, 64]
	.cfi_restore 25
.L1139:
	adrp	x0, :got:__stack_chk_guard
	ldr	x0, [x0, #:got_lo12:__stack_chk_guard]
	ldr	x2, [sp, 136]
	ldr	x1, [x0]
	subs	x2, x2, x1
	mov	x1, 0
	bne	.L1215
	ldp	x19, x20, [sp, 16]
	ldp	x21, x22, [sp, 32]
	ldp	x29, x30, [sp], 144
	.cfi_restore 30
	.cfi_restore 29
	.cfi_restore 21
	.cfi_restore 22
	.cfi_restore 19
	.cfi_restore 20
	.cfi_def_cfa_offset 0
	ret
	.p2align 2,,3
.L1150:
	.cfi_def_cfa_offset 144
	.cfi_offset 19, -128
	.cfi_offset 20, -120
	.cfi_offset 21, -112
	.cfi_offset 22, -104
	.cfi_offset 23, -96
	.cfi_offset 24, -88
	.cfi_offset 25, -80
	.cfi_offset 29, -144
	.cfi_offset 30, -136
	mov	w1, 1
	strb	w1, [x0, 72]
	add	x0, x0, 24
	bl	pthread_mutex_unlock
	ldr	x21, [x22, 48]
	dup	v0.2d, x21
	ldr	x1, [x21, 104]
	str	xzr, [x19]
	str	q0, [sp, 96]
	cbz	x1, .L1154
	str	x19, [x1]
	str	x19, [x21, 104]
.L1155:
	ldr	x19, [x24, 40]
	ldrb	w0, [x19, 40]
	cbnz	w0, .L1217
.L1156:
	add	x1, x19, 192
	add	x22, x19, 48
	mov	x0, 1
	bl	__aarch64_ldadd8_acq_rel
	mov	x0, x22
	bl	pthread_mutex_lock
	ldr	x1, [x19, 208]
	str	xzr, [x21]
	cbz	x1, .L1161
	str	x21, [x1]
	str	x21, [x19, 208]
.L1162:
	ldr	x1, [x19, 144]
	add	x21, x19, 96
	orr	x1, x1, 1
	str	x1, [x19, 144]
	cmp	x1, 1
	beq	.L1163
	mov	x0, x22
	bl	pthread_mutex_unlock
	mov	x0, x21
	bl	pthread_cond_signal
	b	.L1153
	.p2align 2,,3
.L1142:
	mov	x25, 0
	ldr	x22, [x21, 24]
	b	.L1146
	.p2align 2,,3
.L1154:
	ldr	q0, [sp, 80]
	str	q0, [x21, 96]
	b	.L1155
	.p2align 2,,3
.L1143:
	mov	x1, x23
	mov	w0, 1
	bl	__aarch64_ldadd4_acq_rel
	ldrb	w0, [x22]
	ldr	x1, [x19]
	ldr	x22, [x1, 24]
	cbnz	w0, .L1144
	mov	x25, x20
	mov	x1, x23
	mov	w0, 1
	bl	__aarch64_ldadd4_acq_rel
	b	.L1146
	.p2align 2,,3
.L1163:
	ldrb	w0, [x19, 184]
	cbnz	w0, .L1165
	ldr	x3, [x19, 152]
	cbz	x3, .L1165
	ldr	w2, [x3, 96]
	add	x4, x3, 96
	ldr	w0, [x3, 104]
	mov	w5, 9
	movk	w5, 0x8000, lsl 16
	strb	w1, [x19, 184]
	add	x3, sp, 120
	mov	w1, 3
	str	w5, [sp, 120]
	str	x4, [sp, 128]
	bl	epoll_ctl
.L1165:
	mov	x0, x22
	bl	pthread_mutex_unlock
	b	.L1153
	.p2align 2,,3
.L1151:
	ldr	q0, [sp, 80]
	str	q0, [x0, 80]
	b	.L1152
	.p2align 2,,3
.L1216:
	ldr	x1, [x20]
	mov	x0, x20
	ldr	x1, [x1, 16]
	blr	x1
	ldr	x19, [x19, #:got_lo12:__libc_single_threaded]
	ldrb	w0, [x19]
	cbz	w0, .L1177
	ldr	w0, [x20, 12]
	sub	w1, w0, #1
	str	w1, [x20, 12]
.L1178:
	cmp	w0, 1
	bne	.L1212
	adrp	x0, :got:__stack_chk_guard
	ldr	x0, [x0, #:got_lo12:__stack_chk_guard]
	ldr	x2, [sp, 136]
	ldr	x1, [x0]
	subs	x2, x2, x1
	mov	x1, 0
	bne	.L1214
	ldr	x1, [x20]
	mov	x0, x20
	ldp	x23, x24, [sp, 48]
	.cfi_restore 24
	.cfi_restore 23
	ldr	x1, [x1, 24]
	ldr	x25, [sp, 64]
	.cfi_restore 25
	mov	x16, x1
.L1213:
	ldp	x19, x20, [sp, 16]
	ldp	x21, x22, [sp, 32]
	ldp	x29, x30, [sp], 144
	.cfi_restore 30
	.cfi_restore 29
	.cfi_restore 21
	.cfi_restore 22
	.cfi_restore 19
	.cfi_restore 20
	.cfi_def_cfa_offset 0
	br	x16
	.p2align 2,,3
.L1174:
	.cfi_def_cfa_offset 144
	.cfi_offset 19, -128
	.cfi_offset 20, -120
	.cfi_offset 21, -112
	.cfi_offset 22, -104
	.cfi_offset 23, -96
	.cfi_offset 24, -88
	.cfi_offset 25, -80
	.cfi_offset 29, -144
	.cfi_offset 30, -136
	add	x1, x20, 8
	mov	w0, -1
	bl	__aarch64_ldadd4_acq_rel
	b	.L1175
	.p2align 2,,3
.L1217:
	ldr	x23, [x23, #:got_lo12:_ZN4asio6detail10call_stackINS0_15task_io_serviceENS0_27task_io_service_thread_infoEE4top_E]
	ldr	w0, [x23]
	bl	pthread_getspecific
	cbnz	x0, .L1159
	b	.L1156
	.p2align 2,,3
.L1157:
	ldr	x0, [x0, 16]
	cbz	x0, .L1156
.L1159:
	ldr	x1, [x0]
	cmp	x19, x1
	bne	.L1157
	ldr	x0, [x0, 8]
	cbz	x0, .L1156
	ldp	x3, x1, [x0, 16]
	add	x1, x1, 1
	str	x1, [x0, 24]
	str	xzr, [x21]
	ldr	x1, [x0, 16]
	cbz	x3, .L1160
	str	x21, [x1]
	str	x21, [x0, 16]
	b	.L1153
	.p2align 2,,3
.L1180:
	.cfi_restore 23
	.cfi_restore 24
	.cfi_restore 25
	add	x1, x20, 8
	mov	w0, -1
	bl	__aarch64_ldadd4_acq_rel
	b	.L1181
	.p2align 2,,3
.L1161:
	.cfi_offset 23, -96
	.cfi_offset 24, -88
	.cfi_offset 25, -80
	ldr	q0, [sp, 96]
	str	q0, [x19, 200]
	b	.L1162
	.p2align 2,,3
.L1183:
	.cfi_restore 23
	.cfi_restore 24
	.cfi_restore 25
	add	x1, x20, 12
	mov	w0, -1
	bl	__aarch64_ldadd4_acq_rel
	b	.L1184
	.p2align 2,,3
.L1177:
	.cfi_offset 23, -96
	.cfi_offset 24, -88
	.cfi_offset 25, -80
	add	x1, x20, 12
	mov	w0, -1
	bl	__aarch64_ldadd4_acq_rel
	b	.L1178
	.p2align 2,,3
.L1160:
	ldr	q0, [sp, 96]
	str	q0, [x0, 8]
	b	.L1153
.L1215:
	.cfi_restore 23
	.cfi_restore 24
	.cfi_restore 25
	stp	x23, x24, [sp, 48]
	.cfi_offset 24, -88
	.cfi_offset 23, -96
	str	x25, [sp, 64]
	.cfi_offset 25, -80
.L1214:
	bl	__stack_chk_fail
.L1187:
	mov	x19, x0
	cbz	x25, .L1169
	mov	x0, x25
	bl	_ZNSt16_Sp_counted_baseILN9__gnu_cxx12_Lock_policyE2EE10_M_releaseEv
.L1169:
	cbz	x20, .L1171
	mov	x0, x20
	bl	_ZNSt16_Sp_counted_baseILN9__gnu_cxx12_Lock_policyE2EE10_M_releaseEv
.L1171:
	mov	x0, x19
.LEHB31:
	bl	_Unwind_Resume
.LEHE31:
	.cfi_endproc
.LFE11443:
	.section	.gcc_except_table
.LLSDA11443:
	.byte	0xff
	.byte	0xff
	.byte	0x1
	.uleb128 .LLSDACSE11443-.LLSDACSB11443
.LLSDACSB11443:
	.uleb128 .LEHB30-.LFB11443
	.uleb128 .LEHE30-.LEHB30
	.uleb128 .L1187-.LFB11443
	.uleb128 0
	.uleb128 .LEHB31-.LFB11443
	.uleb128 .LEHE31-.LEHB31
	.uleb128 0
	.uleb128 0
.LLSDACSE11443:
	.text
	.size	_ZN7asiopal13IAsyncChannel16CheckForShutdownESt10shared_ptrIS0_E.isra.0, .-_ZN7asiopal13IAsyncChannel16CheckForShutdownESt10shared_ptrIS0_E.isra.0
	.section	.text._ZNSt8_Rb_treeISt10shared_ptrIN7asiopal9IResourceEES3_St9_IdentityIS3_ESt4lessIS3_ESaIS3_EE16_M_insert_uniqueIS3_EESt4pairISt17_Rb_tree_iteratorIS3_EbEOT_,"axG",@progbits,_ZNSt8_Rb_treeISt10shared_ptrIN7asiopal9IResourceEES3_St9_IdentityIS3_ESt4lessIS3_ESaIS3_EE16_M_insert_uniqueIS3_EESt4pairISt17_Rb_tree_iteratorIS3_EbEOT_,comdat
	.align	2
	.p2align 4,,11
	.weak	_ZNSt8_Rb_treeISt10shared_ptrIN7asiopal9IResourceEES3_St9_IdentityIS3_ESt4lessIS3_ESaIS3_EE16_M_insert_uniqueIS3_EESt4pairISt17_Rb_tree_iteratorIS3_EbEOT_
	.type	_ZNSt8_Rb_treeISt10shared_ptrIN7asiopal9IResourceEES3_St9_IdentityIS3_ESt4lessIS3_ESaIS3_EE16_M_insert_uniqueIS3_EESt4pairISt17_Rb_tree_iteratorIS3_EbEOT_, %function
_ZNSt8_Rb_treeISt10shared_ptrIN7asiopal9IResourceEES3_St9_IdentityIS3_ESt4lessIS3_ESaIS3_EE16_M_insert_uniqueIS3_EESt4pairISt17_Rb_tree_iteratorIS3_EbEOT_:
.LFB10072:
	.cfi_startproc
	stp	x29, x30, [sp, -64]!
	.cfi_def_cfa_offset 64
	.cfi_offset 29, -64
	.cfi_offset 30, -56
	mov	x29, sp
	stp	x19, x20, [sp, 16]
	.cfi_offset 19, -48
	.cfi_offset 20, -40
	ldr	x19, [x0, 16]
	stp	x21, x22, [sp, 32]
	.cfi_offset 21, -32
	.cfi_offset 22, -24
	mov	x21, x0
	stp	x23, x24, [sp, 48]
	.cfi_offset 23, -16
	.cfi_offset 24, -8
	mov	x22, x1
	add	x23, x0, 8
	cbz	x19, .L1219
	mov	w7, 1
	ldr	x20, [x1]
	b	.L1221
	.p2align 2,,3
.L1230:
	mov	x19, x4
.L1221:
	ldp	x5, x4, [x19, 16]
	ldr	x2, [x19, 32]
	cmp	x20, x2
	csel	w6, wzr, w7, cs
	csel	x4, x4, x5, cs
	cbnz	x4, .L1230
	cbnz	w6, .L1236
	cmp	x2, x20
	bcs	.L1227
.L1226:
	mov	w24, 1
	cmp	x23, x19
	bne	.L1237
.L1224:
	mov	x0, 48
	bl	_Znwm
	ldr	q0, [x22]
	mov	x20, x0
	stp	xzr, xzr, [x22]
	mov	x3, x23
	mov	x2, x19
	mov	w0, w24
	mov	x1, x20
	str	q0, [x20, 32]
	bl	_ZSt29_Rb_tree_insert_and_rebalancebPSt18_Rb_tree_node_baseS0_RS_
	mov	x3, 1
	ldr	x2, [x21, 40]
	mov	x1, 0
	mov	x0, x20
	bfi	x1, x3, 0, 8
	add	x2, x2, x3
	str	x2, [x21, 40]
	ldp	x19, x20, [sp, 16]
	ldp	x21, x22, [sp, 32]
	ldp	x23, x24, [sp, 48]
	ldp	x29, x30, [sp], 64
	.cfi_remember_state
	.cfi_restore 30
	.cfi_restore 29
	.cfi_restore 23
	.cfi_restore 24
	.cfi_restore 21
	.cfi_restore 22
	.cfi_restore 19
	.cfi_restore 20
	.cfi_def_cfa_offset 0
	ret
	.p2align 2,,3
.L1236:
	.cfi_restore_state
	ldr	x0, [x21, 24]
	cmp	x19, x0
	beq	.L1226
.L1228:
	mov	x0, x19
	bl	_ZSt18_Rb_tree_decrementPSt18_Rb_tree_node_base
	ldr	x1, [x0, 32]
	cmp	x20, x1
	bhi	.L1226
	mov	x19, x0
.L1227:
	mov	x0, x19
	mov	x1, 0
	ldp	x19, x20, [sp, 16]
	ldp	x21, x22, [sp, 32]
	ldp	x23, x24, [sp, 48]
	ldp	x29, x30, [sp], 64
	.cfi_remember_state
	.cfi_restore 30
	.cfi_restore 29
	.cfi_restore 23
	.cfi_restore 24
	.cfi_restore 21
	.cfi_restore 22
	.cfi_restore 19
	.cfi_restore 20
	.cfi_def_cfa_offset 0
	ret
	.p2align 2,,3
.L1237:
	.cfi_restore_state
	ldr	x0, [x19, 32]
	cmp	x20, x0
	cset	w24, cc
	b	.L1224
	.p2align 2,,3
.L1219:
	ldr	x0, [x0, 24]
	mov	x19, x23
	cmp	x23, x0
	beq	.L1232
	ldr	x20, [x1]
	b	.L1228
.L1232:
	mov	w24, 1
	b	.L1224
	.cfi_endproc
.LFE10072:
	.size	_ZNSt8_Rb_treeISt10shared_ptrIN7asiopal9IResourceEES3_St9_IdentityIS3_ESt4lessIS3_ESaIS3_EE16_M_insert_uniqueIS3_EESt4pairISt17_Rb_tree_iteratorIS3_EbEOT_, .-_ZNSt8_Rb_treeISt10shared_ptrIN7asiopal9IResourceEES3_St9_IdentityIS3_ESt4lessIS3_ESaIS3_EE16_M_insert_uniqueIS3_EESt4pairISt17_Rb_tree_iteratorIS3_EbEOT_
	.section	.rodata.str1.8
	.align	3
.LC24:
	.string	"remote_endpoint"
	.align	3
.LC25:
	.string	"Accepted connection from: %s"
	.align	3
.LC26:
	.string	"/home/jaehyun/OpenPLC_v3/utils/dnp3_src/cpp/libs/src/asiodnp3/MasterTCPServer.cpp(67)"
	.align	3
.LC27:
	.string	"close"
	.align	3
.LC28:
	.string	"Rejected connection from: %s"
	.align	3
.LC29:
	.string	"/home/jaehyun/OpenPLC_v3/utils/dnp3_src/cpp/libs/src/asiodnp3/MasterTCPServer.cpp(90)"
	.text
	.align	2
	.p2align 4,,11
	.global	_ZN8asiodnp315MasterTCPServer16AcceptConnectionEmRKSt10shared_ptrIN7asiopal8ExecutorEEN4asio19basic_stream_socketINS7_2ip3tcpENS7_21stream_socket_serviceISA_EEEE
	.type	_ZN8asiodnp315MasterTCPServer16AcceptConnectionEmRKSt10shared_ptrIN7asiopal8ExecutorEEN4asio19basic_stream_socketINS7_2ip3tcpENS7_21stream_socket_serviceISA_EEEE, %function
_ZN8asiodnp315MasterTCPServer16AcceptConnectionEmRKSt10shared_ptrIN7asiopal8ExecutorEEN4asio19basic_stream_socketINS7_2ip3tcpENS7_21stream_socket_serviceISA_EEEE:
.LFB8270:
	.cfi_startproc
	.cfi_personality 0x9b,DW.ref.__gxx_personality_v0
	.cfi_lsda 0x1b,.LLSDA8270
	sub	sp, sp, #912
	.cfi_def_cfa_offset 912
	adrp	x4, :got:__stack_chk_guard
	stp	x29, x30, [sp]
	.cfi_offset 29, -912
	.cfi_offset 30, -904
	mov	x29, sp
	ldr	x4, [x4, #:got_lo12:__stack_chk_guard]
	stp	x19, x20, [sp, 16]
	.cfi_offset 19, -896
	.cfi_offset 20, -888
	mov	x19, x3
	stp	x21, x22, [sp, 32]
	.cfi_offset 21, -880
	.cfi_offset 22, -872
	add	x21, sp, 496
	stp	x23, x24, [sp, 48]
	stp	x25, x26, [sp, 64]
	stp	x27, x28, [sp, 80]
	.cfi_offset 23, -864
	.cfi_offset 24, -856
	.cfi_offset 25, -848
	.cfi_offset 26, -840
	.cfi_offset 27, -832
	.cfi_offset 28, -824
	str	x0, [sp, 96]
	str	x1, [sp, 152]
	str	x21, [sp, 192]
	str	x2, [sp, 224]
	ldr	x0, [x4]
	str	x0, [sp, 904]
	mov	x0, 0
	mov	x0, x21
	bl	_ZNSt8ios_baseC2Ev
	adrp	x0, :got:_ZTTNSt7__cxx1119basic_ostringstreamIcSt11char_traitsIcESaIcEEE
	adrp	x1, :got:_ZTVSt9basic_iosIcSt11char_traitsIcEE
	movi	v0.4s, 0
	add	x5, sp, 656
	ldr	x0, [x0, #:got_lo12:_ZTTNSt7__cxx1119basic_ostringstreamIcSt11char_traitsIcESaIcEEE]
	strh	wzr, [sp, 720]
	ldr	x2, [x1, #:got_lo12:_ZTVSt9basic_iosIcSt11char_traitsIcEE]
	add	x1, sp, 656
	ldr	x3, [x0, 8]
	str	q0, [x5, 88]
	add	x4, sp, 384
	str	q0, [x1, 72]
	add	x2, x2, 16
	mov	x1, 0
	str	x3, [sp, 176]
	str	x3, [sp, 384]
	ldr	x3, [x3, -24]
	str	x2, [sp, 496]
	ldr	x2, [x0, 16]
	str	xzr, [sp, 712]
	str	x2, [x4, x3]
	add	x0, x4, x3
	str	x4, [sp, 136]
	str	x2, [sp, 184]
.LEHB32:
	bl	_ZNSt9basic_iosIcSt11char_traitsIcEE4initEPSt15basic_streambufIcS1_E
.LEHE32:
	adrp	x1, :got:_ZTVSt15basic_streambufIcSt11char_traitsIcEE
	adrp	x0, :got:_ZTVNSt7__cxx1119basic_ostringstreamIcSt11char_traitsIcESaIcEEE
	movi	v0.4s, 0
	add	x4, sp, 448
	ldr	x0, [x0, #:got_lo12:_ZTVNSt7__cxx1119basic_ostringstreamIcSt11char_traitsIcESaIcEEE]
	add	x22, sp, 480
	ldr	x2, [x1, #:got_lo12:_ZTVSt15basic_streambufIcSt11char_traitsIcEE]
	add	x3, x0, 24
	add	x1, x0, 64
	mov	x0, x4
	add	x2, x2, 16
	stp	x4, x22, [sp, 200]
	add	x20, sp, 392
	stp	x3, x2, [sp, 384]
	stp	q0, q0, [sp, 400]
	str	q0, [sp, 432]
	str	x1, [sp, 496]
	bl	_ZNSt6localeC1Ev
	adrp	x0, :got:_ZTVNSt7__cxx1115basic_stringbufIcSt11char_traitsIcESaIcEEE
	mov	w3, 16
	mov	x1, x20
	str	w3, [sp, 456]
	ldr	x2, [x0, #:got_lo12:_ZTVNSt7__cxx1115basic_stringbufIcSt11char_traitsIcESaIcEEE]
	mov	x0, x21
	stp	x22, xzr, [sp, 464]
	add	x2, x2, 16
	str	x2, [sp, 392]
	strb	wzr, [sp, 480]
.LEHB33:
	bl	_ZNSt9basic_iosIcSt11char_traitsIcEE4initEPSt15basic_streambufIcS1_E
.LEHE33:
	str	wzr, [sp, 256]
	bl	_ZNSt3_V215system_categoryEv
	ldr	w22, [x19]
	mov	x21, x0
	stp	xzr, xzr, [sp, 352]
	mov	w0, 2
	str	x21, [sp, 264]
	strh	w0, [sp, 352]
	str	xzr, [sp, 368]
	str	wzr, [sp, 376]
	cmn	w22, #1
	beq	.L1777
	bl	__errno_location
	mov	x20, x0
	mov	w3, 28
	add	x0, sp, 352
	add	x27, sp, 288
	mov	x1, x0
	str	wzr, [x20]
	mov	w0, w22
	mov	x2, x27
	str	x1, [sp, 112]
	str	w3, [sp, 288]
	bl	getpeername
	mov	w23, w0
	adrp	x0, :got:_ZGVZN4asio15system_categoryEvE8instance
	ldr	w24, [x20]
	ldr	x25, [x0, #:got_lo12:_ZGVZN4asio15system_categoryEvE8instance]
	ldr	w26, [sp, 288]
	ldar	x0, [x25]
	adrp	x22, :got:_ZZN4asio15system_categoryEvE8instance
	tbz	x0, 0, .L1778
.L1248:
	ldr	x0, [x22, #:got_lo12:_ZZN4asio15system_categoryEvE8instance]
	str	w24, [sp, 256]
	str	x0, [sp, 264]
	cbz	w23, .L1779
	stp	xzr, xzr, [sp, 320]
	mov	w0, 2
	strh	w0, [sp, 320]
	str	xzr, [sp, 336]
	str	wzr, [sp, 344]
	cbnz	w24, .L1246
	add	x0, sp, 320
	str	x0, [sp, 160]
	mov	x1, x0
.L1253:
	ldr	x0, [sp, 136]
.LEHB34:
	bl	_ZN4asio2iplsIcSt11char_traitsIcENS0_3tcpEEERSt13basic_ostreamIT_T0_ES9_RKNS0_14basic_endpointIT1_EE
.LEHE34:
	ldr	x0, [sp, 96]
	mov	w1, 2
	ldr	x25, [x0, 208]
	ldr	w0, [x19]
	ldr	x2, [x25]
	ldr	x2, [x2, 16]
	stp	xzr, xzr, [sp, 352]
	str	x2, [sp, 168]
	str	wzr, [sp, 256]
	str	x21, [sp, 264]
	strh	w1, [sp, 352]
	str	xzr, [sp, 368]
	str	wzr, [sp, 376]
	cmn	w0, #1
	beq	.L1780
	ldr	x1, [sp, 112]
	mov	w3, 28
	str	wzr, [x20]
	mov	x2, x27
	str	w3, [sp, 288]
	bl	getpeername
	mov	w23, w0
	adrp	x0, :got:_ZGVZN4asio15system_categoryEvE8instance
	ldr	w24, [x20]
	ldr	w28, [sp, 288]
	ldr	x26, [x0, #:got_lo12:_ZGVZN4asio15system_categoryEvE8instance]
	ldar	x0, [x26]
	tbz	x0, 0, .L1781
.L1260:
	ldr	x26, [x22, #:got_lo12:_ZZN4asio15system_categoryEvE8instance]
	str	w24, [sp, 256]
	str	x26, [sp, 264]
	cbnz	w23, .L1262
	str	wzr, [sp, 256]
	str	x21, [sp, 264]
	cmp	w28, 128
	bhi	.L1782
	add	x1, sp, 512
	ldrh	w0, [sp, 352]
	ldr	w5, [sp, 356]
	ldp	x6, x7, [x1, -152]
	ldr	w1, [sp, 376]
	str	w1, [sp, 144]
	cmp	w0, 2
	beq	.L1265
	adrp	x0, .LC22
	str	wzr, [x20]
	ldr	w23, [sp, 144]
	add	x28, sp, 784
	ldr	d0, [x0, #:lo12:.LC22]
	add	x0, sp, 512
	add	x1, sp, 328
	mov	x2, x28
	mov	w3, 63
	str	wzr, [sp, 288]
	str	d0, [sp, 320]
	stp	x6, x7, [x0, -184]
	mov	w0, 10
	str	x21, [sp, 296]
	str	x23, [sp, 344]
	bl	inet_ntop
	mov	x24, x0
	adrp	x0, :got:_ZGVZN4asio15system_categoryEvE8instance
	ldr	w1, [x20]
	ldr	x3, [x0, #:got_lo12:_ZGVZN4asio15system_categoryEvE8instance]
	str	w1, [sp, 216]
	ldar	x0, [x3]
	tbz	x0, 0, .L1783
.L1270:
	ldr	x1, [x22, #:got_lo12:_ZZN4asio15system_categoryEvE8instance]
	str	x1, [sp, 296]
	ldr	w0, [sp, 216]
	str	w0, [sp, 288]
	cbz	x24, .L1784
	cbnz	x23, .L1544
.L1282:
	add	x0, sp, 368
	mov	x1, x0
	mov	x0, x24
	str	x1, [sp, 144]
	str	x1, [sp, 352]
	bl	strlen
	str	x0, [sp, 256]
	mov	x23, x0
	cmp	x0, 15
	bhi	.L1785
	cmp	x23, 1
	bne	.L1284
	ldr	x0, [sp, 144]
	ldrb	w1, [x24]
	strb	w1, [sp, 368]
.L1285:
	str	x23, [sp, 360]
	strb	wzr, [x0, x23]
	ldr	w0, [sp, 216]
	cbz	w0, .L1287
	b	.L1277
	.p2align 2,,3
.L1262:
	cbnz	w24, .L1258
	mov	w5, 0
.L1265:
	add	x4, sp, 512
	str	wzr, [sp, 320]
	str	w5, [sp, 324]
	add	x28, sp, 784
	str	wzr, [x20]
	mov	x2, x28
	stp	xzr, xzr, [x4, -184]
	add	x1, sp, 324
	mov	w3, 16
	mov	w0, 2
	str	wzr, [sp, 288]
	str	x21, [sp, 296]
	str	xzr, [sp, 344]
	bl	inet_ntop
	mov	x24, x0
	adrp	x0, :got:_ZGVZN4asio15system_categoryEvE8instance
	ldr	w26, [x20]
	ldr	x23, [x0, #:got_lo12:_ZGVZN4asio15system_categoryEvE8instance]
	ldar	x0, [x23]
	tbz	x0, 0, .L1786
.L1268:
	ldr	x23, [x22, #:got_lo12:_ZZN4asio15system_categoryEvE8instance]
	str	w26, [sp, 288]
	str	x23, [sp, 296]
	cbz	x24, .L1787
	add	x0, sp, 368
	mov	x1, x0
	mov	x0, x24
	str	x1, [sp, 144]
	str	x1, [sp, 352]
	bl	strlen
	str	x0, [sp, 256]
	mov	x23, x0
	cmp	x0, 15
	bhi	.L1788
	cmp	x23, 1
	bne	.L1299
	ldr	x0, [sp, 144]
	ldrb	w1, [x24]
	strb	w1, [sp, 368]
.L1300:
	str	x23, [sp, 360]
	strb	wzr, [x0, x23]
	cbnz	w26, .L1297
.L1287:
	ldr	x2, [sp, 112]
	mov	x0, x25
	ldr	x1, [sp, 152]
	ldr	x3, [sp, 168]
.LEHB35:
	blr	x3
.LEHE35:
	and	w23, w0, 255
	ldr	x0, [sp, 144]
	ldr	x2, [sp, 352]
	cmp	x2, x0
	beq	.L1304
	ldr	x1, [sp, 368]
	mov	x0, x2
	add	x1, x1, 1
	bl	_ZdlPvm
.L1304:
	cbz	w23, .L1305
	ldr	x0, [sp, 96]
	mov	w1, 8
	str	w1, [sp, 288]
	mov	x1, x27
	add	x20, x0, 24
	mov	x0, x20
.LEHB36:
	bl	_ZNK7openpal6Logger9IsEnabledERKNS_10LogFiltersE
.LEHE36:
	tst	w0, 255
	beq	.L1306
	ldr	x5, [sp, 432]
	add	x21, sp, 336
	stp	x21, xzr, [sp, 320]
	strb	wzr, [sp, 336]
	cbz	x5, .L1307
	ldp	x4, x3, [sp, 416]
	mov	x2, 0
	ldr	x0, [sp, 160]
	mov	x1, 0
	cmp	x4, 0
	ccmp	x5, x4, 2, ne
	csel	x4, x5, x4, hi
	sub	x4, x4, x3
.LEHB37:
	bl	_ZNSt7__cxx1112basic_stringIcSt11char_traitsIcESaIcEE10_M_replaceEmmPKcm
.LEHE37:
.L1309:
	ldr	x5, [sp, 320]
	mov	x3, 120
	mov	x0, x28
	mov	x1, x3
	adrp	x4, .LC25
	mov	w2, 1
	add	x4, x4, :lo12:.LC25
	bl	__snprintf_chk
	ldr	x0, [sp, 320]
	cmp	x0, x21
	beq	.L1311
	ldr	x1, [sp, 336]
	add	x1, x1, 1
	bl	_ZdlPvm
.L1311:
	mov	w1, 8
	adrp	x2, .LC26
	mov	x3, x28
	mov	x0, x20
	add	x2, x2, :lo12:.LC26
	str	w1, [sp, 288]
	mov	x1, x27
.LEHB38:
	bl	_ZN7openpal6Logger3LogERKNS_10LogFiltersEPKcS5_
.L1306:
	ldr	x0, [sp, 224]
	ldr	x21, [x0]
	mov	x0, 72
	add	x21, x21, 24
	bl	_Znwm
.LEHE38:
	adrp	x2, :got:_ZTVSt23_Sp_counted_ptr_inplaceIN7asiopal8ExecutorESaIS1_ELN9__gnu_cxx12_Lock_policyE2EE
	movi	v0.2s, 0x1
	mov	x20, x0
	mov	x25, x0
	ldr	x2, [x2, #:got_lo12:_ZTVSt23_Sp_counted_ptr_inplaceIN7asiopal8ExecutorESaIS1_ELN9__gnu_cxx12_Lock_policyE2EE]
	add	x0, x0, 8
	str	d0, [x20, 8]
	mov	x1, x21
	add	x2, x2, 16
	str	x2, [x25], 16
	str	x0, [sp, 160]
	mov	x0, x25
.LEHB39:
	bl	_ZN7asiopal8ExecutorC1ERKSt10shared_ptrINS_2IOEE
.LEHE39:
	ldr	x0, [x20, 32]
	cbz	x0, .L1315
	add	x1, x0, 8
	ldr	w1, [x1]
	cbnz	w1, .L1317
.L1315:
	adrp	x22, :got:__libc_single_threaded
	str	x25, [x20, 24]
	ldr	x22, [x22, #:got_lo12:__libc_single_threaded]
	ldrb	w1, [x22]
	cbz	w1, .L1789
	ldr	w1, [x20, 12]
	mov	x21, x0
	add	w0, w1, 1
	str	w0, [x20, 12]
	cbz	x21, .L1319
.L1318:
	ldr	w0, [x21, 12]
	sub	w1, w0, #1
	str	w1, [x21, 12]
.L1322:
	cmp	w0, 1
	beq	.L1790
.L1319:
	str	x20, [x20, 32]
.L1317:
	mov	w1, -1
	ldr	w28, [x19]
	str	w1, [x19]
	mov	w0, 2
	ldr	w1, [x19, 16]
	ldrb	w26, [x19, 4]
	strb	wzr, [x19, 4]
	str	w0, [x19, 16]
	mov	x0, 112
	ldr	x24, [x19, 8]
	str	xzr, [x19, 8]
	ldr	x23, [x19, 24]
	str	w28, [sp, 256]
	strb	w26, [sp, 260]
	str	x24, [sp, 264]
	str	w1, [sp, 272]
	str	x23, [sp, 280]
.LEHB40:
	bl	_Znwm
.LEHE40:
	adrp	x19, :got:__libc_single_threaded
	movi	v0.2s, 0x1
	adrp	x1, :got:_ZTVSt23_Sp_counted_ptr_inplaceIN7asiopal13SocketChannelESaIS1_ELN9__gnu_cxx12_Lock_policyE2EE
	mov	x21, x0
	ldr	x2, [x19, #:got_lo12:__libc_single_threaded]
	mov	x22, x0
	ldr	x1, [x1, #:got_lo12:_ZTVSt23_Sp_counted_ptr_inplaceIN7asiopal13SocketChannelESaIS1_ELN9__gnu_cxx12_Lock_policyE2EE]
	str	d0, [x21, 8]
	ldrb	w0, [x2]
	add	x1, x1, 16
	str	x1, [x22], 16
	stp	x25, x20, [sp, 240]
	cbz	w0, .L1323
	ldr	w0, [x20, 8]
	add	w0, w0, 1
	str	w0, [x20, 8]
.L1324:
	ldr	w3, [sp, 272]
	mov	w0, -1
	add	x25, sp, 240
	str	w0, [sp, 256]
	mov	w0, 2
	mov	x1, x25
	mov	x2, x27
	strb	wzr, [sp, 260]
	str	xzr, [sp, 264]
	str	w0, [sp, 272]
	mov	x0, x22
	str	w28, [sp, 288]
	strb	w26, [sp, 292]
	str	x24, [sp, 296]
	str	w3, [sp, 304]
	str	x23, [sp, 312]
.LEHB41:
	bl	_ZN7asiopal13SocketChannelC1ESt10shared_ptrINS_8ExecutorEEN4asio19basic_stream_socketINS4_2ip3tcpENS4_21stream_socket_serviceIS7_EEEE
.LEHE41:
	ldr	x0, [sp, 312]
	mov	x1, x27
	add	x0, x0, 40
	bl	_ZN4asio6detail28reactive_socket_service_base7destroyERNS1_24base_implementation_typeE
	ldr	x23, [sp, 248]
	cbz	x23, .L1330
	ldr	x0, [x19, #:got_lo12:__libc_single_threaded]
	ldrb	w0, [x0]
	cbz	w0, .L1326
	ldr	w0, [x23, 8]
	sub	w1, w0, #1
	str	w1, [x23, 8]
.L1327:
	cmp	w0, 1
	beq	.L1791
.L1330:
	ldr	x0, [x21, 32]
	cbz	x0, .L1334
	add	x1, x0, 8
	ldr	w1, [x1]
	cbnz	w1, .L1335
.L1334:
	ldr	x24, [x19, #:got_lo12:__libc_single_threaded]
	str	x22, [x21, 24]
	ldrb	w1, [x24]
	cbz	w1, .L1792
	ldr	w1, [x21, 12]
	mov	x23, x0
	add	w0, w1, 1
	str	w0, [x21, 12]
	cbz	x23, .L1337
.L1336:
	ldr	w0, [x23, 12]
	sub	w1, w0, #1
	str	w1, [x23, 12]
.L1340:
	cmp	w0, 1
	beq	.L1793
.L1337:
	str	x21, [x21, 32]
.L1335:
	ldr	x0, [sp, 280]
	add	x26, sp, 256
	mov	x1, x26
	stp	x22, x21, [sp, 240]
	add	x0, x0, 40
	bl	_ZN4asio6detail28reactive_socket_service_base7destroyERNS1_24base_implementation_typeE
	ldr	x0, [x19, #:got_lo12:__libc_single_threaded]
	ldrb	w0, [x0]
	cbz	w0, .L1794
	ldr	w0, [x20, 8]
	sub	w1, w0, #1
	str	w1, [x20, 8]
.L1341:
	cmp	w0, 1
	beq	.L1795
.L1343:
	ldr	x0, [sp, 96]
	ldr	x22, [x0, 224]
	add	x21, x22, 8
	mov	x0, x21
	bl	pthread_mutex_lock
	cbnz	w0, .L1796
	ldrb	w0, [x22, 56]
	cbz	w0, .L1348
	mov	x0, x21
	bl	pthread_mutex_unlock
	ldr	x21, [sp, 240]
	ldrb	w0, [x21, 56]
	cbnz	w0, .L1431
	ldr	x1, [x21]
	mov	w0, 1
	strb	w0, [x21, 56]
	mov	x0, x21
	ldr	x1, [x1, 32]
.LEHB42:
	blr	x1
.LEHE42:
	ldr	x20, [x21, 16]
	cbz	x20, .L1432
	add	x22, x20, 8
	ldr	w23, [x22]
.L1434:
	cbz	w23, .L1432
	add	w1, w23, 1
	mov	w0, w23
	mov	x2, x22
	bl	__aarch64_cas4_acq_rel
	cmp	w0, w23
	mov	w23, w0
	bne	.L1434
	ldr	x0, [x19, #:got_lo12:__libc_single_threaded]
	ldr	x24, [x21, 8]
	ldrb	w0, [x0]
	ldr	x21, [x21, 24]
	cbz	w0, .L1797
	ldr	w0, [x20, 8]
	add	w0, w0, 1
	str	w0, [x20, 8]
.L1435:
	adrp	x23, :got:_ZN4asio6detail10call_stackINS0_15task_io_serviceENS0_27task_io_service_thread_infoEE4top_E
	ldr	x25, [x21, 40]
	ldr	x0, [x23, #:got_lo12:_ZN4asio6detail10call_stackINS0_15task_io_serviceENS0_27task_io_service_thread_infoEE4top_E]
	ldr	w0, [x0]
	bl	pthread_getspecific
	cbz	x0, .L1436
	ldr	x0, [x0, 8]
	cbz	x0, .L1436
	ldr	x26, [x0]
	cbz	x26, .L1436
	str	xzr, [x0]
	ldrb	w0, [x26]
	cmp	w0, 39
	bls	.L1437
	strb	w0, [x26, 40]
.L1438:
	adrp	x1, :got:_ZN4asio6detail18completion_handlerIZN7asiopal13IAsyncChannel8ShutdownEvEUlvE_E11do_completeEPNS0_15task_io_serviceEPNS0_25task_io_service_operationERKSt10error_codem
	dup	v0.2d, x26
	ldr	x0, [x21, 48]
	str	wzr, [x26, 16]
	ldr	x1, [x1, #:got_lo12:_ZN4asio6detail18completion_handlerIZN7asiopal13IAsyncChannel8ShutdownEvEUlvE_E11do_completeEPNS0_15task_io_serviceEPNS0_25task_io_service_operationERKSt10error_codem]
	stp	xzr, x1, [x26]
	add	x0, x0, 24
	stp	x24, x20, [x26, 24]
	str	q0, [sp, 96]
	bl	pthread_mutex_lock
	ldr	x0, [x21, 48]
	ldrb	w1, [x0, 72]
	cbz	w1, .L1439
	str	xzr, [x26]
	ldr	x3, [x0, 88]
	cbz	x3, .L1440
	str	x26, [x3]
	str	x26, [x0, 88]
.L1441:
	add	x0, x0, 24
	bl	pthread_mutex_unlock
.L1442:
	ldr	x0, [x19, #:got_lo12:__libc_single_threaded]
	ldrb	w0, [x0]
	cbz	w0, .L1798
	.p2align 3,,7
.L1455:
	ldr	w0, [x20, 8]
	sub	w1, w0, #1
	str	w1, [x20, 8]
.L1458:
	cmp	w0, 1
	bne	.L1431
	ldr	x1, [x20]
	mov	x0, x20
	ldr	x1, [x1, 16]
	blr	x1
	ldr	x0, [x19, #:got_lo12:__libc_single_threaded]
	ldrb	w0, [x0]
	cbz	w0, .L1461
	ldr	w0, [x20, 12]
	sub	w1, w0, #1
	str	w1, [x20, 12]
.L1462:
	cmp	w0, 1
	bne	.L1431
	ldr	x1, [x20]
	mov	x0, x20
	ldr	x1, [x1, 24]
	blr	x1
	.p2align 3,,7
.L1431:
	ldr	x20, [sp, 248]
	cbz	x20, .L1471
	ldr	x0, [x19, #:got_lo12:__libc_single_threaded]
	ldrb	w0, [x0]
	cbz	w0, .L1466
	ldr	w0, [x20, 8]
	sub	w1, w0, #1
	str	w1, [x20, 8]
.L1467:
	cmp	w0, 1
	bne	.L1471
	ldr	x1, [x20]
	mov	x0, x20
	ldr	x1, [x1, 16]
	blr	x1
	ldr	x19, [x19, #:got_lo12:__libc_single_threaded]
	ldrb	w0, [x19]
	cbz	w0, .L1469
	ldr	w0, [x20, 12]
	sub	w1, w0, #1
	str	w1, [x20, 12]
.L1470:
	cmp	w0, 1
	bne	.L1471
	ldr	x1, [x20]
	mov	x0, x20
	ldr	x1, [x1, 24]
	blr	x1
	b	.L1471
	.p2align 2,,3
.L1779:
	str	wzr, [sp, 256]
	str	x21, [sp, 264]
	cmp	w26, 128
	bhi	.L1799
	ldr	x1, [sp, 112]
	add	x0, sp, 320
	ldr	q1, [sp, 352]
	str	x0, [sp, 160]
	ldr	q0, [x1, 12]
	mov	x1, x0
	str	q1, [sp, 320]
	str	q0, [x0, 12]
	b	.L1253
	.p2align 2,,3
.L1786:
	mov	x0, x23
	bl	__cxa_guard_acquire
	cbz	w0, .L1268
	adrp	x0, :got:_ZN4asio6detail15system_categoryD1Ev
	adrp	x2, __dso_handle
	ldr	x1, [x22, #:got_lo12:_ZZN4asio15system_categoryEvE8instance]
	add	x2, x2, :lo12:__dso_handle
	ldr	x0, [x0, #:got_lo12:_ZN4asio6detail15system_categoryD1Ev]
	bl	__cxa_atexit
	mov	x0, x23
	bl	__cxa_guard_release
	b	.L1268
	.p2align 2,,3
.L1778:
	mov	x0, x25
	adrp	x22, :got:_ZZN4asio15system_categoryEvE8instance
	bl	__cxa_guard_acquire
	cbz	w0, .L1248
	adrp	x0, :got:_ZN4asio6detail15system_categoryD1Ev
	adrp	x2, __dso_handle
	ldr	x1, [x22, #:got_lo12:_ZZN4asio15system_categoryEvE8instance]
	add	x2, x2, :lo12:__dso_handle
	ldr	x0, [x0, #:got_lo12:_ZN4asio6detail15system_categoryD1Ev]
	bl	__cxa_atexit
	mov	x0, x25
	bl	__cxa_guard_release
	b	.L1248
	.p2align 2,,3
.L1781:
	mov	x0, x26
	bl	__cxa_guard_acquire
	cbz	w0, .L1260
	adrp	x0, :got:_ZN4asio6detail15system_categoryD1Ev
	adrp	x2, __dso_handle
	ldr	x1, [x22, #:got_lo12:_ZZN4asio15system_categoryEvE8instance]
	add	x2, x2, :lo12:__dso_handle
	ldr	x0, [x0, #:got_lo12:_ZN4asio6detail15system_categoryD1Ev]
	bl	__cxa_atexit
	mov	x0, x26
	bl	__cxa_guard_release
	b	.L1260
	.p2align 2,,3
.L1787:
	cbz	w26, .L1800
	add	x0, sp, 368
	str	x0, [sp, 144]
	stp	x0, xzr, [sp, 352]
	strb	wzr, [sp, 368]
.L1297:
	mov	x0, x27
.LEHB43:
	bl	_ZN4asio6detail14do_throw_errorERKSt10error_code
.LEHE43:
	.p2align 2,,3
.L1299:
	ldr	x0, [sp, 144]
	cbz	x23, .L1300
	b	.L1298
	.p2align 2,,3
.L1544:
	add	x1, sp, 656
	ldrb	w0, [sp, 328]
	mov	x2, 37
	mov	x3, 0
	strb	wzr, [sp, 776]
	stp	x2, x3, [x1, 104]
	cmp	w0, 254
	beq	.L1801
	cmp	w0, 255
	bne	.L1765
	ldrb	w0, [sp, 329]
	add	x1, sp, 761
	and	w0, w0, 15
	cmp	w0, 2
	beq	.L1279
.L1281:
	mov	x0, x1
	adrp	x3, .LC21
	mov	x4, x23
	add	x3, x3, :lo12:.LC21
	mov	x2, 16
	mov	w1, 1
	bl	__sprintf_chk
.L1280:
	add	x1, sp, 760
	mov	x0, x28
	mov	x2, 63
	bl	__strcat_chk
	b	.L1282
	.p2align 2,,3
.L1305:
	ldr	w23, [x19]
	str	wzr, [sp, 256]
	str	x21, [sp, 264]
	ldr	x0, [x19, 24]
	cmn	w23, #1
	beq	.L1503
	ldr	x1, [x19, 8]
	ldr	x0, [x0, 40]
	str	x0, [sp, 152]
	ldrb	w21, [x19, 4]
	cbz	x1, .L1474
	add	x0, x1, 40
	str	x0, [sp, 160]
	bl	pthread_mutex_lock
	ldr	x5, [x19, 8]
	ldrb	w0, [x5, 152]
	cbz	w0, .L1802
	ldr	x0, [sp, 160]
	bl	pthread_mutex_unlock
.L1497:
	ldr	w23, [x19]
	cmn	w23, #1
	beq	.L1503
.L1474:
	str	wzr, [x20]
	mov	w0, w23
.LEHB44:
	bl	close
	mov	w21, w0
	adrp	x0, :got:_ZGVZN4asio15system_categoryEvE8instance
	ldr	w25, [x20]
	ldr	x24, [x0, #:got_lo12:_ZGVZN4asio15system_categoryEvE8instance]
	ldar	x0, [x24]
	tbz	x0, 0, .L1803
.L1505:
	ldr	x24, [x22, #:got_lo12:_ZZN4asio15system_categoryEvE8instance]
	str	w25, [sp, 256]
	str	x24, [sp, 264]
	cbnz	w21, .L1804
.L1503:
	mov	w0, -1
	str	w0, [x19]
	strb	wzr, [x19, 4]
.L1473:
	ldr	x0, [sp, 96]
	mov	w2, 8
	mov	x1, x27
	str	w2, [sp, 288]
	add	x19, x0, 24
	mov	x0, x19
	bl	_ZNK7openpal6Logger9IsEnabledERKNS_10LogFiltersE
.LEHE44:
	tst	w0, 255
	bne	.L1805
.L1471:
	adrp	x0, :got:_ZTVNSt7__cxx1119basic_ostringstreamIcSt11char_traitsIcESaIcEEE
	ldr	x1, [x0, #:got_lo12:_ZTVNSt7__cxx1119basic_ostringstreamIcSt11char_traitsIcESaIcEEE]
	adrp	x0, :got:_ZTVNSt7__cxx1115basic_stringbufIcSt11char_traitsIcESaIcEEE
	add	x3, x1, 24
	add	x1, x1, 64
	ldr	x2, [x0, #:got_lo12:_ZTVNSt7__cxx1115basic_stringbufIcSt11char_traitsIcESaIcEEE]
	str	x1, [sp, 496]
	ldr	x1, [sp, 208]
	add	x2, x2, 16
	ldr	x0, [sp, 464]
	stp	x3, x2, [sp, 384]
	cmp	x0, x1
	beq	.L1527
	ldr	x1, [sp, 480]
	add	x1, x1, 1
	bl	_ZdlPvm
.L1527:
	adrp	x0, :got:_ZTVSt15basic_streambufIcSt11char_traitsIcEE
	ldr	x1, [x0, #:got_lo12:_ZTVSt15basic_streambufIcSt11char_traitsIcEE]
	ldr	x0, [sp, 200]
	add	x1, x1, 16
	str	x1, [sp, 392]
	bl	_ZNSt6localeD1Ev
	ldp	x0, x4, [sp, 176]
	adrp	x1, :got:_ZTVSt9basic_iosIcSt11char_traitsIcEE
	ldr	x3, [sp, 136]
	ldr	x1, [x1, #:got_lo12:_ZTVSt9basic_iosIcSt11char_traitsIcEE]
	ldr	x2, [x0, -24]
	str	x0, [sp, 384]
	ldr	x0, [sp, 192]
	add	x1, x1, 16
	str	x4, [x3, x2]
	str	x1, [sp, 496]
	bl	_ZNSt8ios_baseD2Ev
	adrp	x0, :got:__stack_chk_guard
	ldr	x0, [x0, #:got_lo12:__stack_chk_guard]
	ldr	x2, [sp, 904]
	ldr	x1, [x0]
	subs	x2, x2, x1
	mov	x1, 0
	bne	.L1806
	ldp	x29, x30, [sp]
	ldp	x19, x20, [sp, 16]
	ldp	x21, x22, [sp, 32]
	ldp	x23, x24, [sp, 48]
	ldp	x25, x26, [sp, 64]
	ldp	x27, x28, [sp, 80]
	add	sp, sp, 912
	.cfi_remember_state
	.cfi_restore 29
	.cfi_restore 30
	.cfi_restore 27
	.cfi_restore 28
	.cfi_restore 25
	.cfi_restore 26
	.cfi_restore 23
	.cfi_restore 24
	.cfi_restore 21
	.cfi_restore 22
	.cfi_restore 19
	.cfi_restore 20
	.cfi_def_cfa_offset 0
	ret
	.p2align 2,,3
.L1805:
	.cfi_restore_state
	ldr	x5, [sp, 432]
	strb	wzr, [sp, 368]
	ldr	x0, [sp, 144]
	stp	x0, xzr, [sp, 352]
	cbz	x5, .L1520
	ldp	x4, x3, [sp, 416]
	mov	x2, 0
	ldr	x0, [sp, 112]
	mov	x1, 0
	cmp	x4, 0
	ccmp	x5, x4, 2, ne
	csel	x4, x5, x4, hi
	sub	x4, x4, x3
.LEHB45:
	bl	_ZNSt7__cxx1112basic_stringIcSt11char_traitsIcESaIcEE10_M_replaceEmmPKcm
.LEHE45:
.L1522:
	ldr	x5, [sp, 352]
	mov	x3, 120
	mov	x0, x28
	mov	x1, x3
	adrp	x4, .LC28
	mov	w2, 1
	add	x4, x4, :lo12:.LC28
	bl	__snprintf_chk
	ldr	x1, [sp, 144]
	ldr	x0, [sp, 352]
	cmp	x0, x1
	beq	.L1524
	ldr	x1, [sp, 368]
	add	x1, x1, 1
	bl	_ZdlPvm
.L1524:
	mov	w4, 8
	adrp	x2, .LC29
	mov	x3, x28
	mov	x1, x27
	mov	x0, x19
	add	x2, x2, :lo12:.LC29
	str	w4, [sp, 288]
.LEHB46:
	bl	_ZN7openpal6Logger3LogERKNS_10LogFiltersEPKcS5_
.LEHE46:
	b	.L1471
	.p2align 2,,3
.L1348:
	ldr	x8, [sp, 112]
	ldr	x0, [sp, 152]
.LEHB47:
	bl	_ZN8asiodnp315MasterTCPServer17SessionIdToStringB5cxx11Em
.LEHE47:
	ldr	x1, [sp, 96]
	mov	x0, 56
	ldr	x28, [x1, 40]
.LEHB48:
	bl	_Znwm
.LEHE48:
	movi	v0.2s, 0x1
	adrp	x1, :got:_ZTVSt23_Sp_counted_ptr_inplaceIN7openpal6Logger8SettingsESaIS2_ELN9__gnu_cxx12_Lock_policyE2EE
	mov	x24, x0
	mov	x20, x0
	ldr	x1, [x1, #:got_lo12:_ZTVSt23_Sp_counted_ptr_inplaceIN7openpal6Logger8SettingsESaIS2_ELN9__gnu_cxx12_Lock_policyE2EE]
	ldp	x2, x23, [sp, 352]
	str	d0, [x0, 8]
	add	x1, x1, 16
	str	x1, [x24], 16
	ldr	w28, [x28, 32]
	add	x0, x24, 16
	str	x0, [x20, 16]
	str	x2, [sp, 112]
	cmn	x2, x23
	ccmp	x2, 0, 0, ne
	beq	.L1807
	str	x23, [sp, 288]
	cmp	x23, 15
	bhi	.L1808
	cmp	x23, 1
	bne	.L1354
	ldrb	w1, [x2]
	strb	w1, [x20, 32]
.L1355:
	str	x23, [x24, 8]
	strb	wzr, [x0, x23]
	ldr	x0, [sp, 96]
	str	w28, [x24, 32]
	ldr	q0, [x0, 24]
	umov	x1, v0.d[1]
	str	q0, [sp, 288]
	cbz	x1, .L1809
	ldr	x23, [x19, #:got_lo12:__libc_single_threaded]
	ldrb	w0, [x23]
	cbz	w0, .L1360
	ldr	w0, [x1, 8]
	add	w0, w0, 1
	str	w0, [x1, 8]
	stp	x24, x20, [sp, 304]
.L1361:
	ldr	w1, [x20, 8]
	add	w0, w1, 1
.L1363:
	str	w1, [x20, 8]
.L1365:
	cmp	w0, 1
	beq	.L1810
.L1367:
	ldr	x0, [sp, 96]
	ldr	q0, [x0, 224]
	umov	x1, v0.d[1]
	str	q0, [sp, 256]
	cbz	x1, .L1371
	ldr	x0, [x19, #:got_lo12:__libc_single_threaded]
	ldrb	w0, [x0]
	cbz	w0, .L1372
	ldr	w0, [x1, 8]
	add	w0, w0, 1
	str	w0, [x1, 8]
.L1371:
	ldr	x0, [sp, 96]
	add	x24, x0, 208
	mov	x0, 624
.LEHB49:
	bl	_Znwm
.LEHE49:
	adrp	x1, :got:_ZTVSt23_Sp_counted_ptr_inplaceIN8asiodnp311LinkSessionESaIS1_ELN9__gnu_cxx12_Lock_policyE2EE
	movi	v0.2s, 0x1
	mov	x20, x0
	mov	x23, x0
	ldr	x0, [x1, #:got_lo12:_ZTVSt23_Sp_counted_ptr_inplaceIN8asiodnp311LinkSessionESaIS1_ELN9__gnu_cxx12_Lock_policyE2EE]
	mov	x4, x24
	ldr	x2, [sp, 152]
	str	d0, [x20, 8]
	add	x0, x0, 16
	str	x0, [x23], 16
	mov	x5, x25
	mov	x3, x26
	add	x24, x20, 8
	mov	x1, x27
	mov	x0, x23
.LEHB50:
	bl	_ZN8asiodnp311LinkSessionC1ERKN7openpal6LoggerEmRKSt10shared_ptrIN7asiopal16IResourceManagerEERKS5_INS_16IListenCallbacksEERKS5_INS6_13IAsyncChannelEE
.LEHE50:
	ldr	x0, [x20, 48]
	cbz	x0, .L1378
	add	x1, x0, 8
	ldr	w1, [x1]
	cbnz	w1, .L1379
.L1378:
	ldr	x26, [x19, #:got_lo12:__libc_single_threaded]
	str	x23, [x20, 40]
	ldrb	w1, [x26]
	cbz	w1, .L1811
	ldr	w1, [x20, 12]
	mov	x25, x0
	add	w0, w1, 1
	str	w0, [x20, 12]
	cbz	x25, .L1381
.L1380:
	ldr	w0, [x25, 12]
	sub	w1, w0, #1
	str	w1, [x25, 12]
.L1384:
	cmp	w0, 1
	beq	.L1812
.L1381:
	str	x20, [x20, 48]
.L1379:
	mov	x0, x23
.LEHB51:
	bl	_ZN8asiodnp311LinkSession5StartEv
.LEHE51:
	ldr	x23, [sp, 264]
	cbz	x23, .L1388
	ldr	x0, [x19, #:got_lo12:__libc_single_threaded]
	ldrb	w0, [x0]
	cbz	w0, .L1389
	ldr	w0, [x23, 8]
	sub	w1, w0, #1
	str	w1, [x23, 8]
.L1390:
	cmp	w0, 1
	beq	.L1813
.L1388:
	ldr	x23, [sp, 312]
	cbz	x23, .L1395
	ldr	x0, [x19, #:got_lo12:__libc_single_threaded]
	ldrb	w0, [x0]
	cbz	w0, .L1396
	ldr	w0, [x23, 8]
	sub	w1, w0, #1
	str	w1, [x23, 8]
.L1397:
	cmp	w0, 1
	beq	.L1814
.L1395:
	ldr	x23, [sp, 296]
	cbz	x23, .L1402
	ldr	x0, [x19, #:got_lo12:__libc_single_threaded]
	ldrb	w0, [x0]
	cbz	w0, .L1403
	ldr	w0, [x23, 8]
	sub	w1, w0, #1
	str	w1, [x23, 8]
.L1404:
	cmp	w0, 1
	beq	.L1815
.L1402:
	ldr	x1, [sp, 144]
	ldr	x0, [sp, 352]
	cmp	x0, x1
	beq	.L1408
	ldr	x1, [sp, 368]
	add	x1, x1, 1
	bl	_ZdlPvm
.L1408:
	ldr	x0, [x19, #:got_lo12:__libc_single_threaded]
	add	x1, x20, 56
	stp	x1, x20, [sp, 288]
	ldrb	w0, [x0]
	cbz	w0, .L1816
	ldr	w0, [x20, 8]
	add	w0, w0, 1
	str	w0, [x20, 8]
.L1414:
	mov	x1, x27
	add	x0, x22, 64
.LEHB52:
	bl	_ZNSt8_Rb_treeISt10shared_ptrIN7asiopal9IResourceEES3_St9_IdentityIS3_ESt4lessIS3_ESaIS3_EE16_M_insert_uniqueIS3_EESt4pairISt17_Rb_tree_iteratorIS3_EbEOT_
.LEHE52:
	ldr	x22, [sp, 296]
	cbz	x22, .L1416
	ldr	x0, [x19, #:got_lo12:__libc_single_threaded]
	ldrb	w0, [x0]
	cbz	w0, .L1417
	ldr	w0, [x22, 8]
	sub	w1, w0, #1
	str	w1, [x22, 8]
.L1418:
	cmp	w0, 1
	beq	.L1817
.L1416:
	mov	x0, x21
	bl	pthread_mutex_unlock
	ldr	x0, [x19, #:got_lo12:__libc_single_threaded]
	ldrb	w0, [x0]
	cbnz	w0, .L1455
	mov	x1, x24
	mov	w0, -1
	bl	__aarch64_ldadd4_acq_rel
	b	.L1458
	.p2align 2,,3
.L1788:
	ldr	x0, [sp, 112]
	add	x1, sp, 256
	mov	x2, 0
.LEHB53:
	bl	_ZNSt7__cxx1112basic_stringIcSt11char_traitsIcESaIcEE9_M_createERmm
	ldr	x1, [sp, 256]
	str	x0, [sp, 352]
	str	x1, [sp, 368]
.L1298:
	mov	x2, x23
	mov	x1, x24
	bl	memcpy
	ldr	x23, [sp, 256]
	ldr	x0, [sp, 352]
	b	.L1300
	.p2align 2,,3
.L1783:
	mov	x0, x3
	str	x3, [sp, 232]
	bl	__cxa_guard_acquire
	cbz	w0, .L1270
	adrp	x0, :got:_ZN4asio6detail15system_categoryD1Ev
	mov	x1, x26
	adrp	x2, __dso_handle
	add	x2, x2, :lo12:__dso_handle
	ldr	x0, [x0, #:got_lo12:_ZN4asio6detail15system_categoryD1Ev]
	bl	__cxa_atexit
	ldr	x3, [sp, 232]
	mov	x0, x3
	bl	__cxa_guard_release
	b	.L1270
	.p2align 2,,3
.L1804:
	adrp	x0, :got:_ZGVZN4asio15system_categoryEvE8instance
	ldr	x21, [x0, #:got_lo12:_ZGVZN4asio15system_categoryEvE8instance]
	ldar	x0, [x21]
	tbz	x0, 0, .L1818
.L1508:
	ldr	x0, [x22, #:got_lo12:_ZZN4asio15system_categoryEvE8instance]
	ldr	x1, [sp, 264]
	cmp	x1, x0
	beq	.L1819
.L1510:
	adrp	x0, :got:_ZGVZN4asio15system_categoryEvE8instance
	ldr	x21, [x0, #:got_lo12:_ZGVZN4asio15system_categoryEvE8instance]
	ldar	x0, [x21]
	tbz	x0, 0, .L1820
.L1513:
	ldr	x0, [x22, #:got_lo12:_ZZN4asio15system_categoryEvE8instance]
	ldr	x1, [sp, 264]
	ldr	w21, [sp, 256]
	cmp	x1, x0
	beq	.L1821
.L1515:
	mov	w0, -1
	str	w0, [x19]
	strb	wzr, [x19, 4]
	cbz	w21, .L1473
	adrp	x1, .LC27
	add	x0, sp, 256
	add	x1, x1, :lo12:.LC27
	bl	_ZN4asio6detail14do_throw_errorERKSt10error_codePKc
.LEHE53:
	.p2align 2,,3
.L1803:
	mov	x0, x24
	bl	__cxa_guard_acquire
	cbz	w0, .L1505
	adrp	x0, :got:_ZN4asio6detail15system_categoryD1Ev
	adrp	x2, __dso_handle
	ldr	x1, [x22, #:got_lo12:_ZZN4asio15system_categoryEvE8instance]
	add	x2, x2, :lo12:__dso_handle
	ldr	x0, [x0, #:got_lo12:_ZN4asio6detail15system_categoryD1Ev]
	bl	__cxa_atexit
	mov	x0, x24
	bl	__cxa_guard_release
	b	.L1505
	.p2align 2,,3
.L1784:
	cbz	w0, .L1822
	add	x0, sp, 368
	str	x0, [sp, 144]
	stp	x0, xzr, [sp, 352]
	strb	wzr, [sp, 368]
.L1277:
	mov	x0, x27
.LEHB54:
	bl	_ZN4asio6detail14do_throw_errorERKSt10error_code
.LEHE54:
	.p2align 2,,3
.L1323:
	add	x1, x20, 8
	mov	w0, 1
	bl	__aarch64_ldadd4_acq_rel
	ldrb	w26, [sp, 260]
	ldr	w28, [sp, 256]
	ldr	x24, [sp, 264]
	ldr	x23, [sp, 280]
	b	.L1324
	.p2align 2,,3
.L1789:
	add	x1, x20, 12
	mov	w0, 1
	bl	__aarch64_ldadd4_acq_rel
	ldr	x21, [x20, 32]
	cbz	x21, .L1319
	ldrb	w0, [x22]
	cbnz	w0, .L1318
	add	x1, x21, 12
	mov	w0, -1
	bl	__aarch64_ldadd4_acq_rel
	b	.L1322
	.p2align 2,,3
.L1802:
	tbnz	x21, 6, .L1823
.L1476:
	adrp	x1, :got:_ZN4asio6detail15system_categoryD1Ev
	mov	x25, 0
	adrp	x0, __dso_handle
	add	x24, x0, :lo12:__dso_handle
	ldr	x1, [x1, #:got_lo12:_ZN4asio6detail15system_categoryD1Ev]
	stp	x20, x28, [sp, 216]
	mov	x20, x19
	mov	x19, x25
	mov	x25, x1
	str	x27, [sp, 232]
	mov	x27, x22
	mov	x23, 0
	mov	w21, 0
.L1477:
	add	x0, x5, w21, sxtw 4
	sxtw	x28, w21
	ldr	x26, [x0, 104]
	cbz	x26, .L1552
	adrp	x0, :got:_ZGVZN4asio15system_categoryEvE8instance
	ldr	x22, [x0, #:got_lo12:_ZGVZN4asio15system_categoryEvE8instance]
	ldar	x0, [x22]
	tbz	x0, 0, .L1824
	.p2align 3,,7
.L1479:
	ldr	x5, [x20, 8]
	mov	w1, 125
	ldr	x0, [x27, #:got_lo12:_ZZN4asio15system_categoryEvE8instance]
	str	x0, [x26, 32]
	add	x2, x5, x28, lsl 4
	str	w1, [x26, 24]
	ldr	x0, [x2, 104]
	cbz	x0, .L1481
.L1827:
	ldr	x1, [x0]
	str	x1, [x2, 104]
	cbz	x1, .L1825
	str	xzr, [x0]
	str	xzr, [x26]
	cbz	x19, .L1826
.L1547:
	str	x26, [x19]
	cbz	x1, .L1483
.L1484:
	mov	x19, x26
	mov	x26, x1
	ldar	x0, [x22]
	tbnz	x0, 0, .L1479
.L1824:
	mov	x0, x22
	bl	__cxa_guard_acquire
	cbz	w0, .L1479
	ldr	x1, [x27, #:got_lo12:_ZZN4asio15system_categoryEvE8instance]
	mov	x2, x24
	mov	x0, x25
	bl	__cxa_atexit
	mov	x0, x22
	bl	__cxa_guard_release
	ldr	x5, [x20, 8]
	mov	w1, 125
	ldr	x0, [x27, #:got_lo12:_ZZN4asio15system_categoryEvE8instance]
	str	x0, [x26, 32]
	add	x2, x5, x28, lsl 4
	str	w1, [x26, 24]
	ldr	x0, [x2, 104]
	cbnz	x0, .L1827
	.p2align 3,,7
.L1481:
	str	xzr, [x26]
	cbz	x19, .L1553
	str	x26, [x19]
.L1483:
	add	w21, w21, 1
	cmp	w21, 3
	beq	.L1485
	mov	x19, x26
	b	.L1477
	.p2align 2,,3
.L1825:
	str	xzr, [x2, 112]
	str	xzr, [x0]
	str	xzr, [x26]
	cbnz	x19, .L1547
	.p2align 3,,7
.L1553:
	mov	x23, x26
	b	.L1483
	.p2align 2,,3
.L1826:
	mov	x23, x26
	b	.L1484
	.p2align 2,,3
.L1485:
	mov	w0, -1
	str	w0, [x5, 96]
	mov	w0, 1
	strb	w0, [x5, 152]
	ldr	x0, [sp, 160]
	str	x23, [sp, 168]
	ldr	x23, [sp, 152]
	mov	x19, x20
	mov	x22, x27
	add	x24, x23, 128
	ldp	x20, x28, [sp, 216]
	ldr	x27, [sp, 232]
	bl	pthread_mutex_unlock
	mov	x0, x24
	ldr	x21, [x19, 8]
	bl	pthread_mutex_lock
	ldr	x0, [x23, 176]
	cmp	x21, x0
	beq	.L1828
.L1487:
	ldr	x0, [x21, 32]
	cbz	x0, .L1488
	ldr	x1, [x21, 24]
	str	x1, [x0, 24]
.L1488:
	ldr	x0, [x21, 24]
	cbz	x0, .L1489
	ldr	x1, [x21, 32]
	str	x1, [x0, 32]
.L1489:
	ldr	x23, [sp, 152]
	mov	x0, x24
	ldr	x2, [x23, 184]
	stp	x2, xzr, [x21, 24]
	str	x21, [x23, 184]
	bl	pthread_mutex_unlock
	str	xzr, [x19, 8]
	ldr	x0, [sp, 168]
	cbz	x0, .L1497
	ldr	x25, [x23, 40]
	ldrb	w0, [x25, 40]
	cbnz	w0, .L1829
.L1491:
	add	x24, x25, 48
	mov	x0, x24
	bl	pthread_mutex_lock
	ldr	x1, [x25, 208]
	add	x0, x25, 200
	cbz	x1, .L1498
	ldr	x2, [sp, 168]
	str	x2, [x1]
.L1499:
	str	x26, [x0, 8]
	add	x21, x25, 96
	ldr	x0, [x25, 144]
	orr	x0, x0, 1
	str	x0, [x25, 144]
	cmp	x0, 1
	beq	.L1500
	mov	x0, x24
	bl	pthread_mutex_unlock
	mov	x0, x21
	bl	pthread_cond_signal
	b	.L1497
	.p2align 2,,3
.L1792:
	add	x1, x21, 12
	mov	w0, 1
	bl	__aarch64_ldadd4_acq_rel
	ldr	x23, [x21, 32]
	cbz	x23, .L1337
	ldrb	w0, [x24]
	cbnz	w0, .L1336
	add	x1, x23, 12
	mov	w0, -1
	bl	__aarch64_ldadd4_acq_rel
	b	.L1340
	.p2align 2,,3
.L1795:
	ldr	x1, [x20]
	mov	x0, x20
	ldr	x1, [x1, 16]
	blr	x1
	ldr	x0, [x19, #:got_lo12:__libc_single_threaded]
	ldrb	w0, [x0]
	cbz	w0, .L1344
	ldr	w0, [x20, 12]
	sub	w1, w0, #1
	str	w1, [x20, 12]
.L1345:
	cmp	w0, 1
	bne	.L1343
	ldr	x1, [x20]
	mov	x0, x20
	ldr	x1, [x1, 24]
	blr	x1
	b	.L1343
	.p2align 2,,3
.L1791:
	ldr	x1, [x23]
	mov	x0, x23
	ldr	x1, [x1, 16]
	blr	x1
	ldr	x0, [x19, #:got_lo12:__libc_single_threaded]
	ldrb	w0, [x0]
	cbz	w0, .L1328
	ldr	w0, [x23, 12]
	sub	w1, w0, #1
	str	w1, [x23, 12]
.L1329:
	cmp	w0, 1
	bne	.L1330
	ldr	x1, [x23]
	mov	x0, x23
	ldr	x1, [x1, 24]
	blr	x1
	b	.L1330
	.p2align 2,,3
.L1794:
	add	x1, x20, 8
	mov	w0, -1
	bl	__aarch64_ldadd4_acq_rel
	b	.L1341
	.p2align 2,,3
.L1326:
	add	x1, x23, 8
	mov	w0, -1
	bl	__aarch64_ldadd4_acq_rel
	b	.L1327
	.p2align 2,,3
.L1466:
	add	x1, x20, 8
	mov	w0, -1
	bl	__aarch64_ldadd4_acq_rel
	b	.L1467
	.p2align 2,,3
.L1307:
	ldr	x0, [sp, 160]
	add	x1, sp, 464
.LEHB55:
	bl	_ZNSt7__cxx1112basic_stringIcSt11char_traitsIcESaIcEE9_M_assignERKS4_
.LEHE55:
	b	.L1309
	.p2align 2,,3
.L1800:
	adrp	x0, :got:_ZGVZN4asio15system_categoryEvE8instance
	ldr	x19, [x0, #:got_lo12:_ZGVZN4asio15system_categoryEvE8instance]
	ldar	x0, [x19]
	tbz	x0, 0, .L1830
.L1295:
	ldr	x22, [x22, #:got_lo12:_ZZN4asio15system_categoryEvE8instance]
	add	x1, sp, 368
	mov	w0, 22
	str	x1, [sp, 144]
	str	w0, [sp, 288]
	str	x22, [sp, 296]
	stp	x1, xzr, [sp, 352]
	strb	wzr, [sp, 368]
	b	.L1297
	.p2align 2,,3
.L1284:
	ldr	x0, [sp, 144]
	cbz	x23, .L1285
	b	.L1283
	.p2align 2,,3
.L1785:
	ldr	x0, [sp, 112]
	add	x1, sp, 256
	mov	x2, 0
.LEHB56:
	bl	_ZNSt7__cxx1112basic_stringIcSt11char_traitsIcESaIcEE9_M_createERmm
.LEHE56:
	ldr	x1, [sp, 256]
	str	x0, [sp, 352]
	str	x1, [sp, 368]
.L1283:
	mov	x2, x23
	mov	x1, x24
	bl	memcpy
	ldr	x23, [sp, 256]
	ldr	x0, [sp, 352]
	b	.L1285
	.p2align 2,,3
.L1354:
	cbz	x23, .L1355
	.p2align 3,,7
.L1353:
	ldr	x1, [sp, 112]
	mov	x2, x23
	bl	memcpy
	ldr	x0, [x20, 16]
	ldr	x23, [sp, 288]
	b	.L1355
	.p2align 2,,3
.L1790:
	ldr	x1, [x21]
	mov	x0, x21
	ldr	x1, [x1, 24]
	blr	x1
	b	.L1319
	.p2align 2,,3
.L1829:
	adrp	x0, :got:_ZN4asio6detail10call_stackINS0_15task_io_serviceENS0_27task_io_service_thread_infoEE4top_E
	ldr	x0, [x0, #:got_lo12:_ZN4asio6detail10call_stackINS0_15task_io_serviceENS0_27task_io_service_thread_infoEE4top_E]
	ldr	w0, [x0]
	bl	pthread_getspecific
	cbnz	x0, .L1494
	b	.L1491
	.p2align 2,,3
.L1492:
	ldr	x0, [x0, 16]
	cbz	x0, .L1491
.L1494:
	ldr	x1, [x0]
	cmp	x25, x1
	bne	.L1492
	ldr	x0, [x0, 8]
	cbz	x0, .L1491
	ldr	x2, [x0, 16]
	add	x1, x0, 8
	cbz	x2, .L1495
	ldr	x0, [sp, 168]
	str	x0, [x2]
	str	x26, [x1, 8]
	b	.L1497
	.p2align 2,,3
.L1793:
	ldr	x1, [x23]
	mov	x0, x23
	ldr	x1, [x1, 24]
	blr	x1
	b	.L1337
	.p2align 2,,3
.L1344:
	add	x1, x20, 12
	mov	w0, -1
	bl	__aarch64_ldadd4_acq_rel
	b	.L1345
	.p2align 2,,3
.L1328:
	add	x1, x23, 12
	mov	w0, -1
	bl	__aarch64_ldadd4_acq_rel
	b	.L1329
	.p2align 2,,3
.L1801:
	ldrb	w0, [sp, 329]
	and	w0, w0, 192
	cmp	w0, 128
	beq	.L1279
.L1765:
	add	x1, sp, 761
	b	.L1281
.L1469:
	add	x1, x20, 12
	mov	w0, -1
	bl	__aarch64_ldadd4_acq_rel
	b	.L1470
.L1830:
	mov	x0, x19
	bl	__cxa_guard_acquire
	cbz	w0, .L1295
	adrp	x0, :got:_ZN4asio6detail15system_categoryD1Ev
	mov	x1, x23
	adrp	x2, __dso_handle
	add	x2, x2, :lo12:__dso_handle
	ldr	x0, [x0, #:got_lo12:_ZN4asio6detail15system_categoryD1Ev]
	bl	__cxa_atexit
	mov	x0, x19
	bl	__cxa_guard_release
	b	.L1295
.L1812:
	ldr	x1, [x25]
	mov	x0, x25
	ldr	x1, [x1, 24]
	blr	x1
	b	.L1381
	.p2align 2,,3
.L1520:
	ldr	x0, [sp, 112]
	add	x1, sp, 464
.LEHB57:
	bl	_ZNSt7__cxx1112basic_stringIcSt11char_traitsIcESaIcEE9_M_assignERKS4_
.LEHE57:
	b	.L1522
.L1279:
	ldr	w0, [sp, 144]
	add	x1, sp, 761
	str	x1, [sp, 144]
	bl	if_indextoname
	ldr	x1, [sp, 144]
	cbnz	x0, .L1280
	b	.L1281
	.p2align 2,,3
.L1808:
	mov	x1, x27
	mov	x0, x24
	mov	x2, 0
.LEHB58:
	bl	_ZNSt7__cxx1112basic_stringIcSt11char_traitsIcESaIcEE9_M_createERmm
.LEHE58:
	str	x0, [x20, 16]
	ldr	x1, [sp, 288]
	str	x1, [x24, 16]
	b	.L1353
	.p2align 2,,3
.L1809:
	ldr	x0, [x19, #:got_lo12:__libc_single_threaded]
	ldrb	w0, [x0]
.L1362:
	stp	x24, x20, [sp, 304]
	cbnz	w0, .L1361
	add	x1, x20, 8
	mov	w0, 1
	bl	__aarch64_ldadd4_acq_rel
	ldr	x0, [x19, #:got_lo12:__libc_single_threaded]
	ldrb	w0, [x0]
	cbnz	w0, .L1831
	add	x1, x20, 8
	mov	w0, -1
	bl	__aarch64_ldadd4_acq_rel
	b	.L1365
	.p2align 2,,3
.L1818:
	mov	x0, x21
	bl	__cxa_guard_acquire
	cbz	w0, .L1508
	adrp	x0, :got:_ZN4asio6detail15system_categoryD1Ev
	mov	x1, x24
	adrp	x2, __dso_handle
	add	x2, x2, :lo12:__dso_handle
	ldr	x0, [x0, #:got_lo12:_ZN4asio6detail15system_categoryD1Ev]
	bl	__cxa_atexit
	mov	x0, x21
	bl	__cxa_guard_release
	b	.L1508
	.p2align 2,,3
.L1822:
	adrp	x0, :got:_ZGVZN4asio15system_categoryEvE8instance
	ldr	x19, [x0, #:got_lo12:_ZGVZN4asio15system_categoryEvE8instance]
	ldar	x0, [x19]
	tbz	x0, 0, .L1832
.L1275:
	ldr	x22, [x22, #:got_lo12:_ZZN4asio15system_categoryEvE8instance]
	add	x1, sp, 368
	mov	w0, 22
	str	x1, [sp, 144]
	str	w0, [sp, 288]
	str	x22, [sp, 296]
	stp	x1, xzr, [sp, 352]
	strb	wzr, [sp, 368]
	b	.L1277
	.p2align 2,,3
.L1819:
	ldr	w0, [sp, 256]
	cmp	w0, 11
	bne	.L1510
.L1516:
	mov	x1, 21537
	mov	x2, x27
	mov	w0, w23
	str	wzr, [sp, 288]
	bl	ioctl
	ldrb	w1, [x19, 4]
	mov	w0, w23
	and	w1, w1, -4
	strb	w1, [x19, 4]
	str	wzr, [x20]
.LEHB59:
	bl	close
.LEHE59:
	ldr	w21, [x20]
	mov	w20, w0
	adrp	x0, :got:_ZGVZN4asio15system_categoryEvE8instance
	ldr	x23, [x0, #:got_lo12:_ZGVZN4asio15system_categoryEvE8instance]
	ldar	x0, [x23]
	tbz	x0, 0, .L1833
.L1518:
	ldr	x22, [x22, #:got_lo12:_ZZN4asio15system_categoryEvE8instance]
	str	w21, [sp, 256]
	str	x22, [sp, 264]
	cbnz	w20, .L1515
	b	.L1503
	.p2align 2,,3
.L1500:
	ldrb	w1, [x25, 184]
	cbnz	w1, .L1502
	ldr	x4, [x25, 152]
	cbz	x4, .L1502
	mov	w1, 9
	strb	w0, [x25, 184]
	ldr	w2, [x4, 96]
	add	x0, x4, 96
	movk	w1, 0x8000, lsl 16
	str	w1, [sp, 288]
	str	x0, [sp, 296]
	mov	x3, x27
	mov	w1, 3
	ldr	w0, [x4, 104]
	bl	epoll_ctl
.L1502:
	mov	x0, x24
	bl	pthread_mutex_unlock
	b	.L1497
	.p2align 2,,3
.L1820:
	mov	x0, x21
	bl	__cxa_guard_acquire
	cbz	w0, .L1513
	adrp	x0, :got:_ZN4asio6detail15system_categoryD1Ev
	adrp	x2, __dso_handle
	ldr	x1, [x22, #:got_lo12:_ZZN4asio15system_categoryEvE8instance]
	add	x2, x2, :lo12:__dso_handle
	ldr	x0, [x0, #:got_lo12:_ZN4asio6detail15system_categoryD1Ev]
	bl	__cxa_atexit
	mov	x0, x21
	bl	__cxa_guard_release
	b	.L1513
.L1437:
	mov	x0, x26
	bl	_ZdlPv
.L1436:
	mov	x0, 41
.LEHB60:
	bl	_Znwm
.LEHE60:
	mov	w1, 40
	mov	x26, x0
	strb	w1, [x0, 40]
	b	.L1438
	.p2align 2,,3
.L1821:
	cmp	w21, 11
	bne	.L1515
	b	.L1516
	.p2align 2,,3
.L1552:
	mov	x26, x19
	b	.L1483
	.p2align 2,,3
.L1823:
	ldr	x0, [sp, 152]
	str	wzr, [sp, 288]
	str	xzr, [sp, 296]
	mov	w2, w23
	mov	x3, x27
	mov	w1, 2
	ldr	w0, [x0, 104]
	bl	epoll_ctl
	ldr	x5, [x19, 8]
	b	.L1476
	.p2align 2,,3
.L1372:
	add	x1, x1, 8
	mov	w0, 1
	bl	__aarch64_ldadd4_acq_rel
	b	.L1371
	.p2align 2,,3
.L1360:
	add	x1, x1, 8
	mov	w0, 1
	bl	__aarch64_ldadd4_acq_rel
	ldrb	w0, [x23]
	b	.L1362
	.p2align 2,,3
.L1461:
	add	x1, x20, 12
	mov	w0, -1
	bl	__aarch64_ldadd4_acq_rel
	b	.L1462
	.p2align 2,,3
.L1828:
	ldr	x1, [sp, 152]
	ldr	x0, [x21, 24]
	str	x0, [x1, 176]
	b	.L1487
.L1811:
	add	x1, x20, 12
	mov	w0, 1
	bl	__aarch64_ldadd4_acq_rel
	ldr	x25, [x20, 48]
	cbz	x25, .L1381
	ldrb	w0, [x26]
	cbnz	w0, .L1380
	add	x1, x25, 12
	mov	w0, -1
	bl	__aarch64_ldadd4_acq_rel
	b	.L1384
.L1810:
	ldr	x1, [x20]
	mov	x0, x20
	ldr	x1, [x1, 16]
	blr	x1
	ldr	x0, [x19, #:got_lo12:__libc_single_threaded]
	ldrb	w0, [x0]
	cbz	w0, .L1368
	ldr	w0, [x20, 12]
	sub	w1, w0, #1
	str	w1, [x20, 12]
.L1369:
	cmp	w0, 1
	bne	.L1367
	ldr	x1, [x20]
	mov	x0, x20
	ldr	x1, [x1, 24]
	blr	x1
	b	.L1367
.L1813:
	ldr	x1, [x23]
	mov	x0, x23
	ldr	x1, [x1, 16]
	blr	x1
	ldr	x0, [x19, #:got_lo12:__libc_single_threaded]
	ldrb	w0, [x0]
	cbz	w0, .L1392
	ldr	w0, [x23, 12]
	sub	w1, w0, #1
	str	w1, [x23, 12]
.L1393:
	cmp	w0, 1
	bne	.L1388
	ldr	x1, [x23]
	mov	x0, x23
	ldr	x1, [x1, 24]
	blr	x1
	b	.L1388
.L1814:
	ldr	x1, [x23]
	mov	x0, x23
	ldr	x1, [x1, 16]
	blr	x1
	ldr	x0, [x19, #:got_lo12:__libc_single_threaded]
	ldrb	w0, [x0]
	cbz	w0, .L1399
	ldr	w0, [x23, 12]
	sub	w1, w0, #1
	str	w1, [x23, 12]
.L1400:
	cmp	w0, 1
	bne	.L1395
	ldr	x1, [x23]
	mov	x0, x23
	ldr	x1, [x1, 24]
	blr	x1
	b	.L1395
.L1815:
	ldr	x1, [x23]
	mov	x0, x23
	ldr	x1, [x1, 16]
	blr	x1
	ldr	x0, [x19, #:got_lo12:__libc_single_threaded]
	ldrb	w0, [x0]
	cbz	w0, .L1406
	ldr	w0, [x23, 12]
	sub	w1, w0, #1
	str	w1, [x23, 12]
.L1407:
	cmp	w0, 1
	bne	.L1402
	ldr	x1, [x23]
	mov	x0, x23
	ldr	x1, [x1, 24]
	blr	x1
	b	.L1402
.L1389:
	add	x1, x23, 8
	mov	w0, -1
	bl	__aarch64_ldadd4_acq_rel
	b	.L1390
.L1396:
	add	x1, x23, 8
	mov	w0, -1
	bl	__aarch64_ldadd4_acq_rel
	b	.L1397
.L1403:
	add	x1, x23, 8
	mov	w0, -1
	bl	__aarch64_ldadd4_acq_rel
	b	.L1404
.L1439:
	mov	w1, 1
	strb	w1, [x0, 72]
	add	x0, x0, 24
	bl	pthread_mutex_unlock
	ldr	x24, [x21, 48]
	dup	v0.2d, x24
	ldr	x1, [x24, 104]
	str	xzr, [x26]
	str	q0, [sp, 112]
	cbz	x1, .L1443
	str	x26, [x1]
	str	x26, [x24, 104]
.L1444:
	ldr	x21, [x25, 40]
	ldrb	w0, [x21, 40]
	cbnz	w0, .L1834
.L1445:
	add	x1, x21, 192
	add	x25, x21, 48
	mov	x0, 1
	bl	__aarch64_ldadd8_acq_rel
	mov	x0, x25
	bl	pthread_mutex_lock
	ldr	x1, [x21, 208]
	str	xzr, [x24]
	cbz	x1, .L1450
	str	x24, [x1]
	str	x24, [x21, 208]
.L1451:
	ldr	x0, [x21, 144]
	add	x23, x21, 96
	orr	x0, x0, 1
	str	x0, [x21, 144]
	cmp	x0, 1
	beq	.L1452
	mov	x0, x25
	bl	pthread_mutex_unlock
	mov	x0, x23
	bl	pthread_cond_signal
	b	.L1442
	.p2align 2,,3
.L1816:
	mov	x1, x24
	mov	w0, 1
	bl	__aarch64_ldadd4_acq_rel
	b	.L1414
.L1832:
	mov	x0, x19
	str	x1, [sp, 96]
	bl	__cxa_guard_acquire
	ldr	x1, [sp, 96]
	cbz	w0, .L1275
	adrp	x0, :got:_ZN4asio6detail15system_categoryD1Ev
	adrp	x2, __dso_handle
	add	x2, x2, :lo12:__dso_handle
	ldr	x0, [x0, #:got_lo12:_ZN4asio6detail15system_categoryD1Ev]
	bl	__cxa_atexit
	mov	x0, x19
	bl	__cxa_guard_release
	b	.L1275
.L1817:
	ldr	x1, [x22]
	mov	x0, x22
	ldr	x1, [x1, 16]
	blr	x1
	ldr	x0, [x19, #:got_lo12:__libc_single_threaded]
	ldrb	w0, [x0]
	cbz	w0, .L1420
	ldr	w0, [x22, 12]
	sub	w1, w0, #1
	str	w1, [x22, 12]
.L1421:
	cmp	w0, 1
	bne	.L1416
	ldr	x1, [x22]
	mov	x0, x22
	ldr	x1, [x1, 24]
	blr	x1
	b	.L1416
.L1417:
	add	x1, x22, 8
	mov	w0, -1
	bl	__aarch64_ldadd4_acq_rel
	b	.L1418
.L1797:
	mov	x1, x22
	mov	w0, 1
	bl	__aarch64_ldadd4_acq_rel
	b	.L1435
.L1498:
	ldr	x1, [sp, 168]
	str	x1, [x25, 200]
	b	.L1499
.L1452:
	ldrb	w1, [x21, 184]
	cbnz	w1, .L1454
	ldr	x4, [x21, 152]
	cbz	x4, .L1454
	mov	w1, 9
	strb	w0, [x21, 184]
	ldr	w2, [x4, 96]
	add	x0, x4, 96
	movk	w1, 0x8000, lsl 16
	str	w1, [sp, 288]
	str	x0, [sp, 296]
	mov	x3, x27
	mov	w1, 3
	ldr	w0, [x4, 104]
	bl	epoll_ctl
.L1454:
	mov	x0, x25
	bl	pthread_mutex_unlock
	b	.L1442
.L1440:
	ldr	q0, [sp, 96]
	str	q0, [x0, 80]
	b	.L1441
.L1798:
	mov	x1, x22
	mov	w0, -1
	bl	__aarch64_ldadd4_acq_rel
	b	.L1458
.L1368:
	add	x1, x20, 12
	mov	w0, -1
	bl	__aarch64_ldadd4_acq_rel
	b	.L1369
.L1833:
	mov	x0, x23
	bl	__cxa_guard_acquire
	cbz	w0, .L1518
	adrp	x0, :got:_ZN4asio6detail15system_categoryD1Ev
	adrp	x2, __dso_handle
	ldr	x1, [x22, #:got_lo12:_ZZN4asio15system_categoryEvE8instance]
	add	x2, x2, :lo12:__dso_handle
	ldr	x0, [x0, #:got_lo12:_ZN4asio6detail15system_categoryD1Ev]
	bl	__cxa_atexit
	mov	x0, x23
	bl	__cxa_guard_release
	b	.L1518
.L1392:
	add	x1, x23, 12
	mov	w0, -1
	bl	__aarch64_ldadd4_acq_rel
	b	.L1393
.L1399:
	add	x1, x23, 12
	mov	w0, -1
	bl	__aarch64_ldadd4_acq_rel
	b	.L1400
.L1406:
	add	x1, x23, 12
	mov	w0, -1
	bl	__aarch64_ldadd4_acq_rel
	b	.L1407
.L1777:
	adrp	x19, :got:_ZGVZN4asio15system_categoryEvE8instance
	ldr	x19, [x19, #:got_lo12:_ZGVZN4asio15system_categoryEvE8instance]
	ldar	x0, [x19]
	adrp	x22, :got:_ZZN4asio15system_categoryEvE8instance
	tbz	x0, 0, .L1835
.L1244:
	ldr	x22, [x22, #:got_lo12:_ZZN4asio15system_categoryEvE8instance]
	mov	w0, 9
	str	w0, [sp, 256]
	str	x22, [sp, 264]
.L1246:
	adrp	x1, .LC24
	add	x0, sp, 256
	add	x1, x1, :lo12:.LC24
.LEHB61:
	bl	_ZN4asio6detail14do_throw_errorERKSt10error_codePKc
	.p2align 2,,3
.L1780:
	adrp	x0, :got:_ZGVZN4asio15system_categoryEvE8instance
	ldr	x19, [x0, #:got_lo12:_ZGVZN4asio15system_categoryEvE8instance]
	ldar	x0, [x19]
	tbz	x0, 0, .L1836
.L1256:
	ldr	x22, [x22, #:got_lo12:_ZZN4asio15system_categoryEvE8instance]
	mov	w0, 9
	str	w0, [sp, 256]
	str	x22, [sp, 264]
.L1258:
	adrp	x1, .LC24
	add	x0, sp, 256
	add	x1, x1, :lo12:.LC24
	bl	_ZN4asio6detail14do_throw_errorERKSt10error_codePKc
.LEHE61:
	.p2align 2,,3
.L1834:
	ldr	x23, [x23, #:got_lo12:_ZN4asio6detail10call_stackINS0_15task_io_serviceENS0_27task_io_service_thread_infoEE4top_E]
	ldr	w0, [x23]
	bl	pthread_getspecific
	cbnz	x0, .L1448
	b	.L1445
	.p2align 2,,3
.L1446:
	ldr	x0, [x0, 16]
	cbz	x0, .L1445
.L1448:
	ldr	x1, [x0]
	cmp	x21, x1
	bne	.L1446
	ldr	x0, [x0, 8]
	cbz	x0, .L1445
	ldp	x3, x1, [x0, 16]
	add	x1, x1, 1
	str	x1, [x0, 24]
	str	xzr, [x24]
	ldr	x1, [x0, 16]
	cbz	x3, .L1449
	str	x24, [x1]
	str	x24, [x0, 16]
	b	.L1442
.L1443:
	ldr	q0, [sp, 96]
	str	q0, [x24, 96]
	b	.L1444
.L1495:
	ldr	x2, [sp, 168]
	str	x2, [x0, 8]
	str	x26, [x1, 8]
	b	.L1497
.L1450:
	ldr	q0, [sp, 112]
	str	q0, [x21, 200]
	b	.L1451
.L1420:
	add	x1, x22, 12
	mov	w0, -1
	bl	__aarch64_ldadd4_acq_rel
	b	.L1421
.L1836:
	mov	x0, x19
	bl	__cxa_guard_acquire
	cbz	w0, .L1256
	adrp	x0, :got:_ZN4asio6detail15system_categoryD1Ev
	adrp	x2, __dso_handle
	ldr	x1, [x22, #:got_lo12:_ZZN4asio15system_categoryEvE8instance]
	add	x2, x2, :lo12:__dso_handle
	ldr	x0, [x0, #:got_lo12:_ZN4asio6detail15system_categoryD1Ev]
	bl	__cxa_atexit
	mov	x0, x19
	bl	__cxa_guard_release
	b	.L1256
.L1835:
	mov	x0, x19
	adrp	x22, :got:_ZZN4asio15system_categoryEvE8instance
	bl	__cxa_guard_acquire
	cbz	w0, .L1244
	adrp	x0, :got:_ZN4asio6detail15system_categoryD1Ev
	adrp	x2, __dso_handle
	ldr	x1, [x22, #:got_lo12:_ZZN4asio15system_categoryEvE8instance]
	add	x2, x2, :lo12:__dso_handle
	ldr	x0, [x0, #:got_lo12:_ZN4asio6detail15system_categoryD1Ev]
	bl	__cxa_atexit
	mov	x0, x19
	bl	__cxa_guard_release
	b	.L1244
.L1449:
	ldr	q0, [sp, 112]
	str	q0, [x0, 8]
	b	.L1442
.L1806:
	bl	__stack_chk_fail
.L1796:
.LEHB62:
	bl	_ZSt20__throw_system_errori
.LEHE62:
.L1782:
	bl	_ZN4asio15system_categoryEv
	mov	x1, x0
	mov	w2, 22
	mov	x0, x27
	str	w2, [sp, 288]
	str	x1, [sp, 296]
.LEHB63:
	bl	_ZN4asio6detail14do_throw_errorERKSt10error_code
.L1799:
	bl	_ZN4asio15system_categoryEv
	mov	x1, x0
	mov	w2, 22
	mov	x0, x27
	str	w2, [sp, 288]
	str	x1, [sp, 296]
	bl	_ZN4asio6detail14do_throw_errorERKSt10error_code
.LEHE63:
.L1807:
	adrp	x0, .LC5
	add	x0, x0, :lo12:.LC5
.LEHB64:
	bl	_ZSt19__throw_logic_errorPKc
.LEHE64:
.L1831:
	ldr	w0, [x20, 8]
	sub	w1, w0, #1
	b	.L1363
.L1571:
	mov	x19, x0
	mov	x1, 624
	mov	x0, x20
	bl	_ZdlPvm
.L1377:
	ldr	x0, [sp, 264]
	cbnz	x0, .L1837
.L1411:
	mov	x0, x27
	bl	_ZN7openpal6LoggerD1Ev
.L1359:
	ldr	x1, [sp, 144]
	ldr	x0, [sp, 352]
	cmp	x0, x1
	beq	.L1413
	ldr	x1, [sp, 368]
	add	x1, x1, 1
	bl	_ZdlPvm
	b	.L1413
.L1566:
	ldr	x1, [sp, 296]
	mov	x19, x0
	cbnz	x1, .L1838
.L1425:
	mov	x0, x20
	bl	_ZNSt16_Sp_counted_baseILN9__gnu_cxx12_Lock_policyE2EE10_M_releaseEv
.L1413:
	mov	x0, x21
	bl	pthread_mutex_unlock
	b	.L1426
.L1572:
	mov	x19, x0
	mov	x0, x20
	bl	_ZNSt16_Sp_counted_baseILN9__gnu_cxx12_Lock_policyE2EE10_M_releaseEv
	mov	x0, x20
	bl	_ZNSt16_Sp_counted_baseILN9__gnu_cxx12_Lock_policyE2EE10_M_releaseEv
.L1426:
	ldr	x0, [sp, 248]
	cbz	x0, .L1290
	bl	_ZNSt16_Sp_counted_baseILN9__gnu_cxx12_Lock_policyE2EE10_M_releaseEv
.L1290:
	ldr	x0, [sp, 136]
	bl	_ZNSt7__cxx1119basic_ostringstreamIcSt11char_traitsIcESaIcEED1Ev
	mov	x0, x19
.LEHB65:
	bl	_Unwind_Resume
.L1838:
	mov	x0, x1
	bl	_ZNSt16_Sp_counted_baseILN9__gnu_cxx12_Lock_policyE2EE10_M_releaseEv
	b	.L1425
.L1570:
	mov	x19, x0
	mov	x0, x20
	bl	_ZNSt16_Sp_counted_baseILN9__gnu_cxx12_Lock_policyE2EE10_M_releaseEv
	b	.L1377
.L1568:
	mov	x19, x0
	b	.L1377
.L1837:
	bl	_ZNSt16_Sp_counted_baseILN9__gnu_cxx12_Lock_policyE2EE10_M_releaseEv
	b	.L1411
.L1558:
	mov	x19, x0
.L1241:
	adrp	x0, :got:_ZTVSt9basic_iosIcSt11char_traitsIcEE
	ldr	x1, [x0, #:got_lo12:_ZTVSt9basic_iosIcSt11char_traitsIcEE]
	ldr	x0, [sp, 192]
	add	x1, x1, 16
	str	x1, [sp, 496]
	bl	_ZNSt8ios_baseD2Ev
	mov	x0, x19
	bl	_Unwind_Resume
.LEHE65:
.L1559:
	mov	x19, x0
	mov	x0, x20
	bl	_ZNSt7__cxx1115basic_stringbufIcSt11char_traitsIcESaIcEED1Ev
	ldp	x1, x2, [sp, 176]
	ldr	x0, [x1, -24]
	str	x1, [sp, 384]
	ldr	x1, [sp, 136]
	str	x2, [x1, x0]
	b	.L1241
.L1563:
	mov	x19, x0
	mov	x1, 72
	mov	x0, x20
	bl	_ZdlPvm
	b	.L1290
.L1562:
	ldr	x2, [sp, 320]
	mov	x19, x0
	cmp	x2, x21
	beq	.L1290
	ldr	x1, [sp, 336]
	mov	x0, x2
	add	x1, x1, 1
	bl	_ZdlPvm
	b	.L1290
.L1554:
	mov	x19, x0
	b	.L1290
.L1567:
	mov	x19, x0
	b	.L1359
.L1565:
	mov	x19, x0
	b	.L1413
.L1560:
.L1770:
	mov	x19, x0
	ldr	x0, [sp, 144]
	ldr	x2, [sp, 352]
	cmp	x2, x0
	beq	.L1290
	ldr	x1, [sp, 368]
	mov	x0, x2
	add	x1, x1, 1
	bl	_ZdlPvm
	b	.L1290
.L1573:
	b	.L1770
.L1555:
	b	.L1770
.L1561:
	b	.L1770
.L1432:
.LEHB66:
	bl	_ZSt20__throw_bad_weak_ptrv
.LEHE66:
.L1557:
	mov	x19, x0
	b	.L1426
.L1564:
	ldr	x2, [sp, 312]
	mov	x19, x0
	mov	x1, x27
	add	x0, x2, 40
	bl	_ZN4asio6detail28reactive_socket_service_base7destroyERNS1_24base_implementation_typeE
	ldr	x0, [sp, 248]
	cbnz	x0, .L1839
.L1332:
	mov	x0, x21
	mov	x1, 112
	bl	_ZdlPvm
.L1333:
	ldr	x0, [sp, 280]
	add	x1, sp, 256
	add	x0, x0, 40
	bl	_ZN4asio6detail28reactive_socket_service_base7destroyERNS1_24base_implementation_typeE
	mov	x0, x20
	bl	_ZNSt16_Sp_counted_baseILN9__gnu_cxx12_Lock_policyE2EE10_M_releaseEv
	b	.L1290
.L1556:
	mov	x19, x0
	b	.L1333
.L1569:
	mov	x19, x0
	mov	x1, 56
	mov	x0, x20
	bl	_ZdlPvm
	b	.L1359
.L1839:
	bl	_ZNSt16_Sp_counted_baseILN9__gnu_cxx12_Lock_policyE2EE10_M_releaseEv
	b	.L1332
	.cfi_endproc
.LFE8270:
	.section	.gcc_except_table
.LLSDA8270:
	.byte	0xff
	.byte	0xff
	.byte	0x1
	.uleb128 .LLSDACSE8270-.LLSDACSB8270
.LLSDACSB8270:
	.uleb128 .LEHB32-.LFB8270
	.uleb128 .LEHE32-.LEHB32
	.uleb128 .L1558-.LFB8270
	.uleb128 0
	.uleb128 .LEHB33-.LFB8270
	.uleb128 .LEHE33-.LEHB33
	.uleb128 .L1559-.LFB8270
	.uleb128 0
	.uleb128 .LEHB34-.LFB8270
	.uleb128 .LEHE34-.LEHB34
	.uleb128 .L1554-.LFB8270
	.uleb128 0
	.uleb128 .LEHB35-.LFB8270
	.uleb128 .LEHE35-.LEHB35
	.uleb128 .L1555-.LFB8270
	.uleb128 0
	.uleb128 .LEHB36-.LFB8270
	.uleb128 .LEHE36-.LEHB36
	.uleb128 .L1554-.LFB8270
	.uleb128 0
	.uleb128 .LEHB37-.LFB8270
	.uleb128 .LEHE37-.LEHB37
	.uleb128 .L1562-.LFB8270
	.uleb128 0
	.uleb128 .LEHB38-.LFB8270
	.uleb128 .LEHE38-.LEHB38
	.uleb128 .L1554-.LFB8270
	.uleb128 0
	.uleb128 .LEHB39-.LFB8270
	.uleb128 .LEHE39-.LEHB39
	.uleb128 .L1563-.LFB8270
	.uleb128 0
	.uleb128 .LEHB40-.LFB8270
	.uleb128 .LEHE40-.LEHB40
	.uleb128 .L1556-.LFB8270
	.uleb128 0
	.uleb128 .LEHB41-.LFB8270
	.uleb128 .LEHE41-.LEHB41
	.uleb128 .L1564-.LFB8270
	.uleb128 0
	.uleb128 .LEHB42-.LFB8270
	.uleb128 .LEHE42-.LEHB42
	.uleb128 .L1557-.LFB8270
	.uleb128 0
	.uleb128 .LEHB43-.LFB8270
	.uleb128 .LEHE43-.LEHB43
	.uleb128 .L1561-.LFB8270
	.uleb128 0
	.uleb128 .LEHB44-.LFB8270
	.uleb128 .LEHE44-.LEHB44
	.uleb128 .L1554-.LFB8270
	.uleb128 0
	.uleb128 .LEHB45-.LFB8270
	.uleb128 .LEHE45-.LEHB45
	.uleb128 .L1573-.LFB8270
	.uleb128 0
	.uleb128 .LEHB46-.LFB8270
	.uleb128 .LEHE46-.LEHB46
	.uleb128 .L1554-.LFB8270
	.uleb128 0
	.uleb128 .LEHB47-.LFB8270
	.uleb128 .LEHE47-.LEHB47
	.uleb128 .L1565-.LFB8270
	.uleb128 0
	.uleb128 .LEHB48-.LFB8270
	.uleb128 .LEHE48-.LEHB48
	.uleb128 .L1567-.LFB8270
	.uleb128 0
	.uleb128 .LEHB49-.LFB8270
	.uleb128 .LEHE49-.LEHB49
	.uleb128 .L1568-.LFB8270
	.uleb128 0
	.uleb128 .LEHB50-.LFB8270
	.uleb128 .LEHE50-.LEHB50
	.uleb128 .L1571-.LFB8270
	.uleb128 0
	.uleb128 .LEHB51-.LFB8270
	.uleb128 .LEHE51-.LEHB51
	.uleb128 .L1570-.LFB8270
	.uleb128 0
	.uleb128 .LEHB52-.LFB8270
	.uleb128 .LEHE52-.LEHB52
	.uleb128 .L1566-.LFB8270
	.uleb128 0
	.uleb128 .LEHB53-.LFB8270
	.uleb128 .LEHE53-.LEHB53
	.uleb128 .L1554-.LFB8270
	.uleb128 0
	.uleb128 .LEHB54-.LFB8270
	.uleb128 .LEHE54-.LEHB54
	.uleb128 .L1560-.LFB8270
	.uleb128 0
	.uleb128 .LEHB55-.LFB8270
	.uleb128 .LEHE55-.LEHB55
	.uleb128 .L1562-.LFB8270
	.uleb128 0
	.uleb128 .LEHB56-.LFB8270
	.uleb128 .LEHE56-.LEHB56
	.uleb128 .L1554-.LFB8270
	.uleb128 0
	.uleb128 .LEHB57-.LFB8270
	.uleb128 .LEHE57-.LEHB57
	.uleb128 .L1573-.LFB8270
	.uleb128 0
	.uleb128 .LEHB58-.LFB8270
	.uleb128 .LEHE58-.LEHB58
	.uleb128 .L1569-.LFB8270
	.uleb128 0
	.uleb128 .LEHB59-.LFB8270
	.uleb128 .LEHE59-.LEHB59
	.uleb128 .L1554-.LFB8270
	.uleb128 0
	.uleb128 .LEHB60-.LFB8270
	.uleb128 .LEHE60-.LEHB60
	.uleb128 .L1572-.LFB8270
	.uleb128 0
	.uleb128 .LEHB61-.LFB8270
	.uleb128 .LEHE61-.LEHB61
	.uleb128 .L1554-.LFB8270
	.uleb128 0
	.uleb128 .LEHB62-.LFB8270
	.uleb128 .LEHE62-.LEHB62
	.uleb128 .L1557-.LFB8270
	.uleb128 0
	.uleb128 .LEHB63-.LFB8270
	.uleb128 .LEHE63-.LEHB63
	.uleb128 .L1554-.LFB8270
	.uleb128 0
	.uleb128 .LEHB64-.LFB8270
	.uleb128 .LEHE64-.LEHB64
	.uleb128 .L1569-.LFB8270
	.uleb128 0
	.uleb128 .LEHB65-.LFB8270
	.uleb128 .LEHE65-.LEHB65
	.uleb128 0
	.uleb128 0
	.uleb128 .LEHB66-.LFB8270
	.uleb128 .LEHE66-.LEHB66
	.uleb128 .L1557-.LFB8270
	.uleb128 0
.LLSDACSE8270:
	.text
	.size	_ZN8asiodnp315MasterTCPServer16AcceptConnectionEmRKSt10shared_ptrIN7asiopal8ExecutorEEN4asio19basic_stream_socketINS7_2ip3tcpENS7_21stream_socket_serviceISA_EEEE, .-_ZN8asiodnp315MasterTCPServer16AcceptConnectionEmRKSt10shared_ptrIN7asiopal8ExecutorEEN4asio19basic_stream_socketINS7_2ip3tcpENS7_21stream_socket_serviceISA_EEEE
	.section	.text._ZN4asio6detail18completion_handlerIZN7asiopal13IAsyncChannel8ShutdownEvEUlvE_E3ptr5resetEv,"axG",@progbits,_ZN4asio6detail18completion_handlerIZN7asiopal13IAsyncChannel8ShutdownEvEUlvE_E3ptr5resetEv,comdat
	.align	2
	.p2align 4,,11
	.weak	_ZN4asio6detail18completion_handlerIZN7asiopal13IAsyncChannel8ShutdownEvEUlvE_E3ptr5resetEv
	.type	_ZN4asio6detail18completion_handlerIZN7asiopal13IAsyncChannel8ShutdownEvEUlvE_E3ptr5resetEv, %function
_ZN4asio6detail18completion_handlerIZN7asiopal13IAsyncChannel8ShutdownEvEUlvE_E3ptr5resetEv:
.LFB10218:
	.cfi_startproc
	stp	x29, x30, [sp, -48]!
	.cfi_def_cfa_offset 48
	.cfi_offset 29, -48
	.cfi_offset 30, -40
	mov	x29, sp
	stp	x19, x20, [sp, 16]
	.cfi_offset 19, -32
	.cfi_offset 20, -24
	mov	x19, x0
	ldr	x0, [x0, 16]
	cbz	x0, .L1841
	ldr	x20, [x0, 32]
	cbz	x20, .L1843
	str	x21, [sp, 32]
	.cfi_offset 21, -16
	adrp	x21, :got:__libc_single_threaded
	ldr	x0, [x21, #:got_lo12:__libc_single_threaded]
	ldrb	w0, [x0]
	cbz	w0, .L1844
	ldr	w0, [x20, 8]
	sub	w1, w0, #1
	str	w1, [x20, 8]
.L1845:
	cmp	w0, 1
	beq	.L1867
.L1866:
	ldr	x21, [sp, 32]
	.cfi_restore 21
.L1843:
	str	xzr, [x19, 16]
.L1841:
	ldr	x20, [x19, 8]
	cbz	x20, .L1840
	adrp	x0, :got:_ZN4asio6detail10call_stackINS0_15task_io_serviceENS0_27task_io_service_thread_infoEE4top_E
	ldr	x0, [x0, #:got_lo12:_ZN4asio6detail10call_stackINS0_15task_io_serviceENS0_27task_io_service_thread_infoEE4top_E]
	ldr	w0, [x0]
	bl	pthread_getspecific
	cbz	x0, .L1850
	ldr	x0, [x0, 8]
	cbz	x0, .L1850
	ldr	x1, [x0]
	cbz	x1, .L1868
.L1850:
	mov	x0, x20
	bl	_ZdlPv
	str	xzr, [x19, 8]
.L1840:
	ldp	x19, x20, [sp, 16]
	ldp	x29, x30, [sp], 48
	.cfi_restore 30
	.cfi_restore 29
	.cfi_restore 19
	.cfi_restore 20
	.cfi_def_cfa_offset 0
	ret
	.p2align 2,,3
.L1867:
	.cfi_def_cfa_offset 48
	.cfi_offset 19, -32
	.cfi_offset 20, -24
	.cfi_offset 21, -16
	.cfi_offset 29, -48
	.cfi_offset 30, -40
	ldr	x1, [x20]
	mov	x0, x20
	ldr	x1, [x1, 16]
	blr	x1
	ldr	x21, [x21, #:got_lo12:__libc_single_threaded]
	ldrb	w0, [x21]
	cbz	w0, .L1847
	ldr	w0, [x20, 12]
	sub	w1, w0, #1
	str	w1, [x20, 12]
.L1848:
	cmp	w0, 1
	bne	.L1866
	ldr	x1, [x20]
	mov	x0, x20
	ldr	x1, [x1, 24]
	blr	x1
	ldr	x21, [sp, 32]
	.cfi_remember_state
	.cfi_restore 21
	b	.L1843
	.p2align 2,,3
.L1844:
	.cfi_restore_state
	add	x1, x20, 8
	mov	w0, -1
	bl	__aarch64_ldadd4_acq_rel
	b	.L1845
	.p2align 2,,3
.L1868:
	.cfi_restore 21
	ldrb	w1, [x20, 40]
	strb	w1, [x20]
	str	x20, [x0]
	str	xzr, [x19, 8]
	b	.L1840
	.p2align 2,,3
.L1847:
	.cfi_offset 21, -16
	add	x1, x20, 12
	mov	w0, -1
	bl	__aarch64_ldadd4_acq_rel
	b	.L1848
	.cfi_endproc
.LFE10218:
	.size	_ZN4asio6detail18completion_handlerIZN7asiopal13IAsyncChannel8ShutdownEvEUlvE_E3ptr5resetEv, .-_ZN4asio6detail18completion_handlerIZN7asiopal13IAsyncChannel8ShutdownEvEUlvE_E3ptr5resetEv
	.global	__aarch64_swp4_sync
	.section	.text._ZN4asio6detail18completion_handlerIZN7asiopal13IAsyncChannel8ShutdownEvEUlvE_E11do_completeEPNS0_15task_io_serviceEPNS0_25task_io_service_operationERKSt10error_codem,"axG",@progbits,_ZN4asio6detail18completion_handlerIZN7asiopal13IAsyncChannel8ShutdownEvEUlvE_E11do_completeEPNS0_15task_io_serviceEPNS0_25task_io_service_operationERKSt10error_codem,comdat
	.align	2
	.p2align 4,,11
	.weak	_ZN4asio6detail18completion_handlerIZN7asiopal13IAsyncChannel8ShutdownEvEUlvE_E11do_completeEPNS0_15task_io_serviceEPNS0_25task_io_service_operationERKSt10error_codem
	.type	_ZN4asio6detail18completion_handlerIZN7asiopal13IAsyncChannel8ShutdownEvEUlvE_E11do_completeEPNS0_15task_io_serviceEPNS0_25task_io_service_operationERKSt10error_codem, %function
_ZN4asio6detail18completion_handlerIZN7asiopal13IAsyncChannel8ShutdownEvEUlvE_E11do_completeEPNS0_15task_io_serviceEPNS0_25task_io_service_operationERKSt10error_codem:
.LFB10222:
	.cfi_startproc
	.cfi_personality 0x9b,DW.ref.__gxx_personality_v0
	.cfi_lsda 0x1b,.LLSDA10222
	stp	x29, x30, [sp, -128]!
	.cfi_def_cfa_offset 128
	.cfi_offset 29, -128
	.cfi_offset 30, -120
	adrp	x2, :got:__stack_chk_guard
	mov	x29, sp
	stp	x21, x22, [sp, 32]
	.cfi_offset 21, -96
	.cfi_offset 22, -88
	adrp	x21, :got:_ZN4asio6detail10call_stackINS0_15task_io_serviceENS0_27task_io_service_thread_infoEE4top_E
	stp	x19, x20, [sp, 16]
	.cfi_offset 19, -112
	.cfi_offset 20, -104
	mov	x19, x1
	mov	x20, x0
	ldr	x1, [x21, #:got_lo12:_ZN4asio6detail10call_stackINS0_15task_io_serviceENS0_27task_io_service_thread_infoEE4top_E]
	ldr	x2, [x2, #:got_lo12:__stack_chk_guard]
	ldr	w0, [x1]
	add	x1, sp, 64
	ldr	q0, [x19, 24]
	ldr	x3, [x2]
	str	x3, [sp, 120]
	mov	x3, 0
	stp	x1, x19, [sp, 96]
	str	q0, [sp, 64]
	str	xzr, [sp, 112]
	bl	pthread_getspecific
	cbz	x0, .L1870
	ldr	x0, [x0, 8]
	cbz	x0, .L1870
	ldr	x1, [x0]
	cbz	x1, .L1935
.L1870:
	mov	x0, x19
	bl	_ZdlPv
.L1871:
	str	xzr, [sp, 104]
	cbz	x20, .L1872
	add	x22, sp, 56
	mov	w0, 1
	mov	x1, x22
	str	wzr, [sp, 56]
	bl	__aarch64_swp4_sync
	ldr	q0, [sp, 64]
	umov	x1, v0.d[1]
	str	q0, [sp, 80]
	cbz	x1, .L1873
	adrp	x0, :got:__libc_single_threaded
	ldr	x0, [x0, #:got_lo12:__libc_single_threaded]
	ldrb	w0, [x0]
	cbz	w0, .L1874
	ldr	w0, [x1, 8]
	add	w0, w0, 1
	str	w0, [x1, 8]
.L1873:
	add	x0, sp, 80
.LEHB67:
	bl	_ZN7asiopal13IAsyncChannel16CheckForShutdownESt10shared_ptrIS0_E.isra.0
.LEHE67:
	ldr	x19, [sp, 88]
	cbz	x19, .L1876
	adrp	x20, :got:__libc_single_threaded
	ldr	x0, [x20, #:got_lo12:__libc_single_threaded]
	ldrb	w0, [x0]
	cbz	w0, .L1877
	ldr	w0, [x19, 8]
	sub	w1, w0, #1
	str	w1, [x19, 8]
.L1878:
	cmp	w0, 1
	bne	.L1876
	ldr	x1, [x19]
	mov	x0, x19
	ldr	x1, [x1, 16]
	blr	x1
	ldr	x20, [x20, #:got_lo12:__libc_single_threaded]
	ldrb	w0, [x20]
	cbz	w0, .L1880
	ldr	w0, [x19, 12]
	sub	w1, w0, #1
	str	w1, [x19, 12]
.L1881:
	cmp	w0, 1
	beq	.L1936
	.p2align 3,,7
.L1876:
	stlr	wzr, [x22]
.L1872:
	ldr	x19, [sp, 72]
	cbz	x19, .L1887
	adrp	x20, :got:__libc_single_threaded
	ldr	x0, [x20, #:got_lo12:__libc_single_threaded]
	ldrb	w0, [x0]
	cbz	w0, .L1888
	ldr	w0, [x19, 8]
	sub	w1, w0, #1
	str	w1, [x19, 8]
.L1889:
	cmp	w0, 1
	beq	.L1937
.L1887:
	ldr	x0, [sp, 112]
	cbz	x0, .L1893
	ldr	x19, [x0, 32]
	cbz	x19, .L1895
	adrp	x20, :got:__libc_single_threaded
	ldr	x0, [x20, #:got_lo12:__libc_single_threaded]
	ldrb	w0, [x0]
	cbz	w0, .L1896
	ldr	w0, [x19, 8]
	sub	w1, w0, #1
	str	w1, [x19, 8]
.L1897:
	cmp	w0, 1
	beq	.L1938
.L1895:
	str	xzr, [sp, 112]
.L1893:
	ldr	x19, [sp, 104]
	cbz	x19, .L1869
	ldr	x21, [x21, #:got_lo12:_ZN4asio6detail10call_stackINS0_15task_io_serviceENS0_27task_io_service_thread_infoEE4top_E]
	ldr	w0, [x21]
	bl	pthread_getspecific
	cbz	x0, .L1902
	ldr	x0, [x0, 8]
	cbz	x0, .L1902
	ldr	x1, [x0]
	cbz	x1, .L1939
.L1902:
	adrp	x0, :got:__stack_chk_guard
	ldr	x0, [x0, #:got_lo12:__stack_chk_guard]
	ldr	x2, [sp, 120]
	ldr	x1, [x0]
	subs	x2, x2, x1
	mov	x1, 0
	bne	.L1934
	mov	x0, x19
	ldp	x19, x20, [sp, 16]
	ldp	x21, x22, [sp, 32]
	ldp	x29, x30, [sp], 128
	.cfi_remember_state
	.cfi_restore 30
	.cfi_restore 29
	.cfi_restore 21
	.cfi_restore 22
	.cfi_restore 19
	.cfi_restore 20
	.cfi_def_cfa_offset 0
	b	_ZdlPv
	.p2align 2,,3
.L1939:
	.cfi_restore_state
	ldrb	w1, [x19, 40]
	strb	w1, [x19]
	str	x19, [x0]
	.p2align 3,,7
.L1869:
	adrp	x0, :got:__stack_chk_guard
	ldr	x0, [x0, #:got_lo12:__stack_chk_guard]
	ldr	x2, [sp, 120]
	ldr	x1, [x0]
	subs	x2, x2, x1
	mov	x1, 0
	bne	.L1934
	ldp	x19, x20, [sp, 16]
	ldp	x21, x22, [sp, 32]
	ldp	x29, x30, [sp], 128
	.cfi_remember_state
	.cfi_restore 30
	.cfi_restore 29
	.cfi_restore 21
	.cfi_restore 22
	.cfi_restore 19
	.cfi_restore 20
	.cfi_def_cfa_offset 0
	ret
	.p2align 2,,3
.L1938:
	.cfi_restore_state
	ldr	x1, [x19]
	mov	x0, x19
	ldr	x1, [x1, 16]
	blr	x1
	ldr	x20, [x20, #:got_lo12:__libc_single_threaded]
	ldrb	w0, [x20]
	cbz	w0, .L1899
	ldr	w0, [x19, 12]
	sub	w1, w0, #1
	str	w1, [x19, 12]
.L1900:
	cmp	w0, 1
	bne	.L1895
	ldr	x1, [x19]
	mov	x0, x19
	ldr	x1, [x1, 24]
	blr	x1
	b	.L1895
	.p2align 2,,3
.L1877:
	add	x1, x19, 8
	mov	w0, -1
	bl	__aarch64_ldadd4_acq_rel
	b	.L1878
	.p2align 2,,3
.L1937:
	ldr	x1, [x19]
	mov	x0, x19
	ldr	x1, [x1, 16]
	blr	x1
	ldr	x20, [x20, #:got_lo12:__libc_single_threaded]
	ldrb	w0, [x20]
	cbz	w0, .L1891
	ldr	w0, [x19, 12]
	sub	w1, w0, #1
	str	w1, [x19, 12]
.L1892:
	cmp	w0, 1
	bne	.L1887
	ldr	x1, [x19]
	mov	x0, x19
	ldr	x1, [x1, 24]
	blr	x1
	b	.L1887
	.p2align 2,,3
.L1888:
	add	x1, x19, 8
	mov	w0, -1
	bl	__aarch64_ldadd4_acq_rel
	b	.L1889
	.p2align 2,,3
.L1896:
	add	x1, x19, 8
	mov	w0, -1
	bl	__aarch64_ldadd4_acq_rel
	b	.L1897
	.p2align 2,,3
.L1874:
	add	x1, x1, 8
	mov	w0, 1
	bl	__aarch64_ldadd4_acq_rel
	b	.L1873
	.p2align 2,,3
.L1935:
	ldrb	w1, [x19, 40]
	strb	w1, [x19]
	str	x19, [x0]
	b	.L1871
	.p2align 2,,3
.L1891:
	add	x1, x19, 12
	mov	w0, -1
	bl	__aarch64_ldadd4_acq_rel
	b	.L1892
	.p2align 2,,3
.L1936:
	ldr	x1, [x19]
	mov	x0, x19
	ldr	x1, [x1, 24]
	blr	x1
	stlr	wzr, [x22]
	b	.L1872
	.p2align 2,,3
.L1899:
	add	x1, x19, 12
	mov	w0, -1
	bl	__aarch64_ldadd4_acq_rel
	b	.L1900
	.p2align 2,,3
.L1880:
	add	x1, x19, 12
	mov	w0, -1
	bl	__aarch64_ldadd4_acq_rel
	b	.L1881
.L1934:
	bl	__stack_chk_fail
.L1905:
	ldr	x1, [sp, 88]
	mov	x19, x0
	cbz	x1, .L1883
	mov	x0, x1
	bl	_ZNSt16_Sp_counted_baseILN9__gnu_cxx12_Lock_policyE2EE10_M_releaseEv
.L1883:
	stlr	wzr, [x22]
	ldr	x0, [sp, 72]
	cbz	x0, .L1885
	bl	_ZNSt16_Sp_counted_baseILN9__gnu_cxx12_Lock_policyE2EE10_M_releaseEv
.L1885:
	add	x0, sp, 96
	bl	_ZN4asio6detail18completion_handlerIZN7asiopal13IAsyncChannel8ShutdownEvEUlvE_E3ptr5resetEv
	mov	x0, x19
.LEHB68:
	bl	_Unwind_Resume
.LEHE68:
	.cfi_endproc
.LFE10222:
	.section	.gcc_except_table
.LLSDA10222:
	.byte	0xff
	.byte	0xff
	.byte	0x1
	.uleb128 .LLSDACSE10222-.LLSDACSB10222
.LLSDACSB10222:
	.uleb128 .LEHB67-.LFB10222
	.uleb128 .LEHE67-.LEHB67
	.uleb128 .L1905-.LFB10222
	.uleb128 0
	.uleb128 .LEHB68-.LFB10222
	.uleb128 .LEHE68-.LEHB68
	.uleb128 0
	.uleb128 0
.LLSDACSE10222:
	.section	.text._ZN4asio6detail18completion_handlerIZN7asiopal13IAsyncChannel8ShutdownEvEUlvE_E11do_completeEPNS0_15task_io_serviceEPNS0_25task_io_service_operationERKSt10error_codem,"axG",@progbits,_ZN4asio6detail18completion_handlerIZN7asiopal13IAsyncChannel8ShutdownEvEUlvE_E11do_completeEPNS0_15task_io_serviceEPNS0_25task_io_service_operationERKSt10error_codem,comdat
	.size	_ZN4asio6detail18completion_handlerIZN7asiopal13IAsyncChannel8ShutdownEvEUlvE_E11do_completeEPNS0_15task_io_serviceEPNS0_25task_io_service_operationERKSt10error_codem, .-_ZN4asio6detail18completion_handlerIZN7asiopal13IAsyncChannel8ShutdownEvEUlvE_E11do_completeEPNS0_15task_io_serviceEPNS0_25task_io_service_operationERKSt10error_codem
	.section	.text._ZN4asio6detail18completion_handlerIZN7asiopal13IAsyncChannel16CheckForShutdownESt10shared_ptrIS3_EEUlvE_E3ptr5resetEv,"axG",@progbits,_ZN4asio6detail18completion_handlerIZN7asiopal13IAsyncChannel16CheckForShutdownESt10shared_ptrIS3_EEUlvE_E3ptr5resetEv,comdat
	.align	2
	.p2align 4,,11
	.weak	_ZN4asio6detail18completion_handlerIZN7asiopal13IAsyncChannel16CheckForShutdownESt10shared_ptrIS3_EEUlvE_E3ptr5resetEv
	.type	_ZN4asio6detail18completion_handlerIZN7asiopal13IAsyncChannel16CheckForShutdownESt10shared_ptrIS3_EEUlvE_E3ptr5resetEv, %function
_ZN4asio6detail18completion_handlerIZN7asiopal13IAsyncChannel16CheckForShutdownESt10shared_ptrIS3_EEUlvE_E3ptr5resetEv:
.LFB10223:
	.cfi_startproc
	stp	x29, x30, [sp, -48]!
	.cfi_def_cfa_offset 48
	.cfi_offset 29, -48
	.cfi_offset 30, -40
	mov	x29, sp
	stp	x19, x20, [sp, 16]
	.cfi_offset 19, -32
	.cfi_offset 20, -24
	mov	x19, x0
	ldr	x0, [x0, 16]
	cbz	x0, .L1941
	ldr	x20, [x0, 32]
	cbz	x20, .L1943
	str	x21, [sp, 32]
	.cfi_offset 21, -16
	adrp	x21, :got:__libc_single_threaded
	ldr	x0, [x21, #:got_lo12:__libc_single_threaded]
	ldrb	w0, [x0]
	cbz	w0, .L1944
	ldr	w0, [x20, 8]
	sub	w1, w0, #1
	str	w1, [x20, 8]
.L1945:
	cmp	w0, 1
	beq	.L1967
.L1966:
	ldr	x21, [sp, 32]
	.cfi_restore 21
.L1943:
	str	xzr, [x19, 16]
.L1941:
	ldr	x20, [x19, 8]
	cbz	x20, .L1940
	adrp	x0, :got:_ZN4asio6detail10call_stackINS0_15task_io_serviceENS0_27task_io_service_thread_infoEE4top_E
	ldr	x0, [x0, #:got_lo12:_ZN4asio6detail10call_stackINS0_15task_io_serviceENS0_27task_io_service_thread_infoEE4top_E]
	ldr	w0, [x0]
	bl	pthread_getspecific
	cbz	x0, .L1950
	ldr	x0, [x0, 8]
	cbz	x0, .L1950
	ldr	x1, [x0]
	cbz	x1, .L1968
.L1950:
	mov	x0, x20
	bl	_ZdlPv
	str	xzr, [x19, 8]
.L1940:
	ldp	x19, x20, [sp, 16]
	ldp	x29, x30, [sp], 48
	.cfi_restore 30
	.cfi_restore 29
	.cfi_restore 19
	.cfi_restore 20
	.cfi_def_cfa_offset 0
	ret
	.p2align 2,,3
.L1967:
	.cfi_def_cfa_offset 48
	.cfi_offset 19, -32
	.cfi_offset 20, -24
	.cfi_offset 21, -16
	.cfi_offset 29, -48
	.cfi_offset 30, -40
	ldr	x1, [x20]
	mov	x0, x20
	ldr	x1, [x1, 16]
	blr	x1
	ldr	x21, [x21, #:got_lo12:__libc_single_threaded]
	ldrb	w0, [x21]
	cbz	w0, .L1947
	ldr	w0, [x20, 12]
	sub	w1, w0, #1
	str	w1, [x20, 12]
.L1948:
	cmp	w0, 1
	bne	.L1966
	ldr	x1, [x20]
	mov	x0, x20
	ldr	x1, [x1, 24]
	blr	x1
	ldr	x21, [sp, 32]
	.cfi_remember_state
	.cfi_restore 21
	b	.L1943
	.p2align 2,,3
.L1944:
	.cfi_restore_state
	add	x1, x20, 8
	mov	w0, -1
	bl	__aarch64_ldadd4_acq_rel
	b	.L1945
	.p2align 2,,3
.L1968:
	.cfi_restore 21
	ldrb	w1, [x20, 40]
	strb	w1, [x20]
	str	x20, [x0]
	str	xzr, [x19, 8]
	b	.L1940
	.p2align 2,,3
.L1947:
	.cfi_offset 21, -16
	add	x1, x20, 12
	mov	w0, -1
	bl	__aarch64_ldadd4_acq_rel
	b	.L1948
	.cfi_endproc
.LFE10223:
	.size	_ZN4asio6detail18completion_handlerIZN7asiopal13IAsyncChannel16CheckForShutdownESt10shared_ptrIS3_EEUlvE_E3ptr5resetEv, .-_ZN4asio6detail18completion_handlerIZN7asiopal13IAsyncChannel16CheckForShutdownESt10shared_ptrIS3_EEUlvE_E3ptr5resetEv
	.section	.text._ZN4asio6detail18completion_handlerIZN7asiopal13IAsyncChannel16CheckForShutdownESt10shared_ptrIS3_EEUlvE_E11do_completeEPNS0_15task_io_serviceEPNS0_25task_io_service_operationERKSt10error_codem,"axG",@progbits,_ZN4asio6detail18completion_handlerIZN7asiopal13IAsyncChannel16CheckForShutdownESt10shared_ptrIS3_EEUlvE_E11do_completeEPNS0_15task_io_serviceEPNS0_25task_io_service_operationERKSt10error_codem,comdat
	.align	2
	.p2align 4,,11
	.weak	_ZN4asio6detail18completion_handlerIZN7asiopal13IAsyncChannel16CheckForShutdownESt10shared_ptrIS3_EEUlvE_E11do_completeEPNS0_15task_io_serviceEPNS0_25task_io_service_operationERKSt10error_codem
	.type	_ZN4asio6detail18completion_handlerIZN7asiopal13IAsyncChannel16CheckForShutdownESt10shared_ptrIS3_EEUlvE_E11do_completeEPNS0_15task_io_serviceEPNS0_25task_io_service_operationERKSt10error_codem, %function
_ZN4asio6detail18completion_handlerIZN7asiopal13IAsyncChannel16CheckForShutdownESt10shared_ptrIS3_EEUlvE_E11do_completeEPNS0_15task_io_serviceEPNS0_25task_io_service_operationERKSt10error_codem:
.LFB10227:
	.cfi_startproc
	.cfi_personality 0x9b,DW.ref.__gxx_personality_v0
	.cfi_lsda 0x1b,.LLSDA10227
	stp	x29, x30, [sp, -128]!
	.cfi_def_cfa_offset 128
	.cfi_offset 29, -128
	.cfi_offset 30, -120
	adrp	x2, :got:__stack_chk_guard
	mov	x29, sp
	stp	x21, x22, [sp, 32]
	.cfi_offset 21, -96
	.cfi_offset 22, -88
	adrp	x21, :got:_ZN4asio6detail10call_stackINS0_15task_io_serviceENS0_27task_io_service_thread_infoEE4top_E
	stp	x19, x20, [sp, 16]
	.cfi_offset 19, -112
	.cfi_offset 20, -104
	mov	x19, x1
	mov	x20, x0
	ldr	x1, [x21, #:got_lo12:_ZN4asio6detail10call_stackINS0_15task_io_serviceENS0_27task_io_service_thread_infoEE4top_E]
	ldr	x2, [x2, #:got_lo12:__stack_chk_guard]
	ldr	w0, [x1]
	add	x1, sp, 64
	ldr	q0, [x19, 24]
	ldr	x3, [x2]
	str	x3, [sp, 120]
	mov	x3, 0
	stp	x1, x19, [sp, 96]
	str	q0, [sp, 64]
	str	xzr, [sp, 112]
	bl	pthread_getspecific
	cbz	x0, .L1970
	ldr	x0, [x0, 8]
	cbz	x0, .L1970
	ldr	x1, [x0]
	cbz	x1, .L2035
.L1970:
	mov	x0, x19
	bl	_ZdlPv
.L1971:
	str	xzr, [sp, 104]
	cbz	x20, .L1972
	add	x22, sp, 56
	mov	w0, 1
	mov	x1, x22
	str	wzr, [sp, 56]
	bl	__aarch64_swp4_sync
	ldr	q0, [sp, 64]
	umov	x1, v0.d[1]
	str	q0, [sp, 80]
	cbz	x1, .L1973
	adrp	x0, :got:__libc_single_threaded
	ldr	x0, [x0, #:got_lo12:__libc_single_threaded]
	ldrb	w0, [x0]
	cbz	w0, .L1974
	ldr	w0, [x1, 8]
	add	w0, w0, 1
	str	w0, [x1, 8]
.L1973:
	add	x0, sp, 80
.LEHB69:
	bl	_ZN7asiopal13IAsyncChannel16CheckForShutdownESt10shared_ptrIS0_E.isra.0
.LEHE69:
	ldr	x19, [sp, 88]
	cbz	x19, .L1976
	adrp	x20, :got:__libc_single_threaded
	ldr	x0, [x20, #:got_lo12:__libc_single_threaded]
	ldrb	w0, [x0]
	cbz	w0, .L1977
	ldr	w0, [x19, 8]
	sub	w1, w0, #1
	str	w1, [x19, 8]
.L1978:
	cmp	w0, 1
	bne	.L1976
	ldr	x1, [x19]
	mov	x0, x19
	ldr	x1, [x1, 16]
	blr	x1
	ldr	x20, [x20, #:got_lo12:__libc_single_threaded]
	ldrb	w0, [x20]
	cbz	w0, .L1980
	ldr	w0, [x19, 12]
	sub	w1, w0, #1
	str	w1, [x19, 12]
.L1981:
	cmp	w0, 1
	beq	.L2036
	.p2align 3,,7
.L1976:
	stlr	wzr, [x22]
.L1972:
	ldr	x19, [sp, 72]
	cbz	x19, .L1987
	adrp	x20, :got:__libc_single_threaded
	ldr	x0, [x20, #:got_lo12:__libc_single_threaded]
	ldrb	w0, [x0]
	cbz	w0, .L1988
	ldr	w0, [x19, 8]
	sub	w1, w0, #1
	str	w1, [x19, 8]
.L1989:
	cmp	w0, 1
	beq	.L2037
.L1987:
	ldr	x0, [sp, 112]
	cbz	x0, .L1993
	ldr	x19, [x0, 32]
	cbz	x19, .L1995
	adrp	x20, :got:__libc_single_threaded
	ldr	x0, [x20, #:got_lo12:__libc_single_threaded]
	ldrb	w0, [x0]
	cbz	w0, .L1996
	ldr	w0, [x19, 8]
	sub	w1, w0, #1
	str	w1, [x19, 8]
.L1997:
	cmp	w0, 1
	beq	.L2038
.L1995:
	str	xzr, [sp, 112]
.L1993:
	ldr	x19, [sp, 104]
	cbz	x19, .L1969
	ldr	x21, [x21, #:got_lo12:_ZN4asio6detail10call_stackINS0_15task_io_serviceENS0_27task_io_service_thread_infoEE4top_E]
	ldr	w0, [x21]
	bl	pthread_getspecific
	cbz	x0, .L2002
	ldr	x0, [x0, 8]
	cbz	x0, .L2002
	ldr	x1, [x0]
	cbz	x1, .L2039
.L2002:
	adrp	x0, :got:__stack_chk_guard
	ldr	x0, [x0, #:got_lo12:__stack_chk_guard]
	ldr	x2, [sp, 120]
	ldr	x1, [x0]
	subs	x2, x2, x1
	mov	x1, 0
	bne	.L2034
	mov	x0, x19
	ldp	x19, x20, [sp, 16]
	ldp	x21, x22, [sp, 32]
	ldp	x29, x30, [sp], 128
	.cfi_remember_state
	.cfi_restore 30
	.cfi_restore 29
	.cfi_restore 21
	.cfi_restore 22
	.cfi_restore 19
	.cfi_restore 20
	.cfi_def_cfa_offset 0
	b	_ZdlPv
	.p2align 2,,3
.L2039:
	.cfi_restore_state
	ldrb	w1, [x19, 40]
	strb	w1, [x19]
	str	x19, [x0]
	.p2align 3,,7
.L1969:
	adrp	x0, :got:__stack_chk_guard
	ldr	x0, [x0, #:got_lo12:__stack_chk_guard]
	ldr	x2, [sp, 120]
	ldr	x1, [x0]
	subs	x2, x2, x1
	mov	x1, 0
	bne	.L2034
	ldp	x19, x20, [sp, 16]
	ldp	x21, x22, [sp, 32]
	ldp	x29, x30, [sp], 128
	.cfi_remember_state
	.cfi_restore 30
	.cfi_restore 29
	.cfi_restore 21
	.cfi_restore 22
	.cfi_restore 19
	.cfi_restore 20
	.cfi_def_cfa_offset 0
	ret
	.p2align 2,,3
.L2038:
	.cfi_restore_state
	ldr	x1, [x19]
	mov	x0, x19
	ldr	x1, [x1, 16]
	blr	x1
	ldr	x20, [x20, #:got_lo12:__libc_single_threaded]
	ldrb	w0, [x20]
	cbz	w0, .L1999
	ldr	w0, [x19, 12]
	sub	w1, w0, #1
	str	w1, [x19, 12]
.L2000:
	cmp	w0, 1
	bne	.L1995
	ldr	x1, [x19]
	mov	x0, x19
	ldr	x1, [x1, 24]
	blr	x1
	b	.L1995
	.p2align 2,,3
.L1977:
	add	x1, x19, 8
	mov	w0, -1
	bl	__aarch64_ldadd4_acq_rel
	b	.L1978
	.p2align 2,,3
.L2037:
	ldr	x1, [x19]
	mov	x0, x19
	ldr	x1, [x1, 16]
	blr	x1
	ldr	x20, [x20, #:got_lo12:__libc_single_threaded]
	ldrb	w0, [x20]
	cbz	w0, .L1991
	ldr	w0, [x19, 12]
	sub	w1, w0, #1
	str	w1, [x19, 12]
.L1992:
	cmp	w0, 1
	bne	.L1987
	ldr	x1, [x19]
	mov	x0, x19
	ldr	x1, [x1, 24]
	blr	x1
	b	.L1987
	.p2align 2,,3
.L1988:
	add	x1, x19, 8
	mov	w0, -1
	bl	__aarch64_ldadd4_acq_rel
	b	.L1989
	.p2align 2,,3
.L1996:
	add	x1, x19, 8
	mov	w0, -1
	bl	__aarch64_ldadd4_acq_rel
	b	.L1997
	.p2align 2,,3
.L1974:
	add	x1, x1, 8
	mov	w0, 1
	bl	__aarch64_ldadd4_acq_rel
	b	.L1973
	.p2align 2,,3
.L2035:
	ldrb	w1, [x19, 40]
	strb	w1, [x19]
	str	x19, [x0]
	b	.L1971
	.p2align 2,,3
.L1991:
	add	x1, x19, 12
	mov	w0, -1
	bl	__aarch64_ldadd4_acq_rel
	b	.L1992
	.p2align 2,,3
.L2036:
	ldr	x1, [x19]
	mov	x0, x19
	ldr	x1, [x1, 24]
	blr	x1
	stlr	wzr, [x22]
	b	.L1972
	.p2align 2,,3
.L1999:
	add	x1, x19, 12
	mov	w0, -1
	bl	__aarch64_ldadd4_acq_rel
	b	.L2000
	.p2align 2,,3
.L1980:
	add	x1, x19, 12
	mov	w0, -1
