	.arch armv8-a
	.file	"OutstationStack.cpp"
	.text
	.section	.rodata._ZNK4asio6detail15system_category4nameEv.str1.8,"aMS",@progbits,1
	.align	3
.LC0:
	.string	"asio.system"
	.section	.text._ZNK4asio6detail15system_category4nameEv,"axG",@progbits,_ZNK4asio6detail15system_category4nameEv,comdat
	.align	2
	.p2align 4,,11
	.weak	_ZNK4asio6detail15system_category4nameEv
	.type	_ZNK4asio6detail15system_category4nameEv, %function
_ZNK4asio6detail15system_category4nameEv:
.LFB2663:
	.cfi_startproc
	adrp	x0, .LC0
	add	x0, x0, :lo12:.LC0
	ret
	.cfi_endproc
.LFE2663:
	.size	_ZNK4asio6detail15system_category4nameEv, .-_ZNK4asio6detail15system_category4nameEv
	.section	.rodata._ZNK4asio5error6detail14netdb_category4nameEv.str1.8,"aMS",@progbits,1
	.align	3
.LC1:
	.string	"asio.netdb"
	.section	.text._ZNK4asio5error6detail14netdb_category4nameEv,"axG",@progbits,_ZNK4asio5error6detail14netdb_category4nameEv,comdat
	.align	2
	.p2align 4,,11
	.weak	_ZNK4asio5error6detail14netdb_category4nameEv
	.type	_ZNK4asio5error6detail14netdb_category4nameEv, %function
_ZNK4asio5error6detail14netdb_category4nameEv:
.LFB2684:
	.cfi_startproc
	adrp	x0, .LC1
	add	x0, x0, :lo12:.LC1
	ret
	.cfi_endproc
.LFE2684:
	.size	_ZNK4asio5error6detail14netdb_category4nameEv, .-_ZNK4asio5error6detail14netdb_category4nameEv
	.section	.rodata._ZNK4asio5error6detail17addrinfo_category4nameEv.str1.8,"aMS",@progbits,1
	.align	3
.LC2:
	.string	"asio.addrinfo"
	.section	.text._ZNK4asio5error6detail17addrinfo_category4nameEv,"axG",@progbits,_ZNK4asio5error6detail17addrinfo_category4nameEv,comdat
	.align	2
	.p2align 4,,11
	.weak	_ZNK4asio5error6detail17addrinfo_category4nameEv
	.type	_ZNK4asio5error6detail17addrinfo_category4nameEv, %function
_ZNK4asio5error6detail17addrinfo_category4nameEv:
.LFB2690:
	.cfi_startproc
	adrp	x0, .LC2
	add	x0, x0, :lo12:.LC2
	ret
	.cfi_endproc
.LFE2690:
	.size	_ZNK4asio5error6detail17addrinfo_category4nameEv, .-_ZNK4asio5error6detail17addrinfo_category4nameEv
	.section	.rodata._ZNK4asio5error6detail13misc_category4nameEv.str1.8,"aMS",@progbits,1
	.align	3
.LC3:
	.string	"asio.misc"
	.section	.text._ZNK4asio5error6detail13misc_category4nameEv,"axG",@progbits,_ZNK4asio5error6detail13misc_category4nameEv,comdat
	.align	2
	.p2align 4,,11
	.weak	_ZNK4asio5error6detail13misc_category4nameEv
	.type	_ZNK4asio5error6detail13misc_category4nameEv, %function
_ZNK4asio5error6detail13misc_category4nameEv:
.LFB2696:
	.cfi_startproc
	adrp	x0, .LC3
	add	x0, x0, :lo12:.LC3
	ret
	.cfi_endproc
.LFE2696:
	.size	_ZNK4asio5error6detail13misc_category4nameEv, .-_ZNK4asio5error6detail13misc_category4nameEv
	.section	.text._ZNSt13__future_base13_State_baseV217_M_complete_asyncEv,"axG",@progbits,_ZNSt13__future_base13_State_baseV217_M_complete_asyncEv,comdat
	.align	2
	.p2align 4,,11
	.weak	_ZNSt13__future_base13_State_baseV217_M_complete_asyncEv
	.type	_ZNSt13__future_base13_State_baseV217_M_complete_asyncEv, %function
_ZNSt13__future_base13_State_baseV217_M_complete_asyncEv:
.LFB6825:
	.cfi_startproc
	ret
	.cfi_endproc
.LFE6825:
	.size	_ZNSt13__future_base13_State_baseV217_M_complete_asyncEv, .-_ZNSt13__future_base13_State_baseV217_M_complete_asyncEv
	.section	.text._ZNKSt13__future_base13_State_baseV221_M_is_deferred_futureEv,"axG",@progbits,_ZNKSt13__future_base13_State_baseV221_M_is_deferred_futureEv,comdat
	.align	2
	.p2align 4,,11
	.weak	_ZNKSt13__future_base13_State_baseV221_M_is_deferred_futureEv
	.type	_ZNKSt13__future_base13_State_baseV221_M_is_deferred_futureEv, %function
_ZNKSt13__future_base13_State_baseV221_M_is_deferred_futureEv:
.LFB6826:
	.cfi_startproc
	mov	w0, 0
	ret
	.cfi_endproc
.LFE6826:
	.size	_ZNKSt13__future_base13_State_baseV221_M_is_deferred_futureEv, .-_ZNKSt13__future_base13_State_baseV221_M_is_deferred_futureEv
	.section	.text._ZZNSt9once_flag18_Prepare_executionC4IZSt9call_onceIMNSt13__future_base13_State_baseV2EFvPSt8functionIFSt10unique_ptrINS3_12_Result_baseENS7_8_DeleterEEvEEPbEJPS4_SC_SD_EEvRS_OT_DpOT0_EUlvE_EERSI_ENUlvE_4_FUNEv,"axG",@progbits,_ZZNSt9once_flag18_Prepare_executionC4IZSt9call_onceIMNSt13__future_base13_State_baseV2EFvPSt8functionIFSt10unique_ptrINS3_12_Result_baseENS7_8_DeleterEEvEEPbEJPS4_SC_SD_EEvRS_OT_DpOT0_EUlvE_EERSI_ENUlvE_4_FUNEv,comdat
	.align	2
	.p2align 4,,11
	.weak	_ZZNSt9once_flag18_Prepare_executionC4IZSt9call_onceIMNSt13__future_base13_State_baseV2EFvPSt8functionIFSt10unique_ptrINS3_12_Result_baseENS7_8_DeleterEEvEEPbEJPS4_SC_SD_EEvRS_OT_DpOT0_EUlvE_EERSI_ENUlvE_4_FUNEv
	.type	_ZZNSt9once_flag18_Prepare_executionC4IZSt9call_onceIMNSt13__future_base13_State_baseV2EFvPSt8functionIFSt10unique_ptrINS3_12_Result_baseENS7_8_DeleterEEvEEPbEJPS4_SC_SD_EEvRS_OT_DpOT0_EUlvE_EERSI_ENUlvE_4_FUNEv, %function
_ZZNSt9once_flag18_Prepare_executionC4IZSt9call_onceIMNSt13__future_base13_State_baseV2EFvPSt8functionIFSt10unique_ptrINS3_12_Result_baseENS7_8_DeleterEEvEEPbEJPS4_SC_SD_EEvRS_OT_DpOT0_EUlvE_EERSI_ENUlvE_4_FUNEv:
.LFB9920:
	.cfi_startproc
	mrs	x1, tpidr_el0
	stp	x29, x30, [sp, -16]!
	.cfi_def_cfa_offset 16
	.cfi_offset 29, -16
	.cfi_offset 30, -8
	mov	x29, sp
	adrp	x0, :tlsdesc:_ZSt15__once_callable
	ldr	x2, [x0, #:tlsdesc_lo12:_ZSt15__once_callable]
	add	x0, x0, :tlsdesc_lo12:_ZSt15__once_callable
	.tlsdesccall	_ZSt15__once_callable
	blr	x2
	ldr	x1, [x1, x0]
	ldp	x3, x0, [x1]
	ldp	x6, x1, [x1, 16]
	ldr	x2, [x3, 8]
	ldr	x5, [x0]
	asr	x4, x2, 1
	add	x0, x5, x4
	ldr	x3, [x3]
	tbz	x2, 0, .L9
	ldr	x2, [x5, x4]
	ldr	x3, [x2, x3]
.L9:
	mov	x16, x3
	ldp	x29, x30, [sp], 16
	.cfi_restore 30
	.cfi_restore 29
	.cfi_def_cfa_offset 0
	ldr	x2, [x1]
	ldr	x1, [x6]
	br	x16
	.cfi_endproc
.LFE9920:
	.size	_ZZNSt9once_flag18_Prepare_executionC4IZSt9call_onceIMNSt13__future_base13_State_baseV2EFvPSt8functionIFSt10unique_ptrINS3_12_Result_baseENS7_8_DeleterEEvEEPbEJPS4_SC_SD_EEvRS_OT_DpOT0_EUlvE_EERSI_ENUlvE_4_FUNEv, .-_ZZNSt9once_flag18_Prepare_executionC4IZSt9call_onceIMNSt13__future_base13_State_baseV2EFvPSt8functionIFSt10unique_ptrINS3_12_Result_baseENS7_8_DeleterEEvEEPbEJPS4_SC_SD_EEvRS_OT_DpOT0_EUlvE_EERSI_ENUlvE_4_FUNEv
	.section	.text._ZNSt15__exception_ptr12__dest_thunkISt12future_errorEEvPv,"axG",@progbits,_ZNSt15__exception_ptr12__dest_thunkISt12future_errorEEvPv,comdat
	.align	2
	.p2align 4,,11
	.weak	_ZNSt15__exception_ptr12__dest_thunkISt12future_errorEEvPv
	.type	_ZNSt15__exception_ptr12__dest_thunkISt12future_errorEEvPv, %function
_ZNSt15__exception_ptr12__dest_thunkISt12future_errorEEvPv:
.LFB9940:
	.cfi_startproc
	ldr	x1, [x0]
	ldr	x1, [x1]
	mov	x16, x1
	br	x16
	.cfi_endproc
.LFE9940:
	.size	_ZNSt15__exception_ptr12__dest_thunkISt12future_errorEEvPv, .-_ZNSt15__exception_ptr12__dest_thunkISt12future_errorEEvPv
	.section	.text._ZNSt17_Function_handlerIFSt10unique_ptrINSt13__future_base12_Result_baseENS2_8_DeleterEEvENS1_13_State_baseV27_SetterIbObEEE9_M_invokeERKSt9_Any_data,"axG",@progbits,_ZNSt17_Function_handlerIFSt10unique_ptrINSt13__future_base12_Result_baseENS2_8_DeleterEEvENS1_13_State_baseV27_SetterIbObEEE9_M_invokeERKSt9_Any_data,comdat
	.align	2
	.p2align 4,,11
	.weak	_ZNSt17_Function_handlerIFSt10unique_ptrINSt13__future_base12_Result_baseENS2_8_DeleterEEvENS1_13_State_baseV27_SetterIbObEEE9_M_invokeERKSt9_Any_data
	.type	_ZNSt17_Function_handlerIFSt10unique_ptrINSt13__future_base12_Result_baseENS2_8_DeleterEEvENS1_13_State_baseV27_SetterIbObEEE9_M_invokeERKSt9_Any_data, %function
_ZNSt17_Function_handlerIFSt10unique_ptrINSt13__future_base12_Result_baseENS2_8_DeleterEEvENS1_13_State_baseV27_SetterIbObEEE9_M_invokeERKSt9_Any_data:
.LFB10956:
	.cfi_startproc
	mov	x1, x0
	mov	w3, 1
	mov	x0, x8
	ldp	x2, x4, [x1]
	ldr	x1, [x2, 16]
	ldrb	w4, [x4]
	strb	w4, [x1, 16]
	strb	w3, [x1, 17]
	str	xzr, [x2, 16]
	str	x1, [x8]
	ret
	.cfi_endproc
.LFE10956:
	.size	_ZNSt17_Function_handlerIFSt10unique_ptrINSt13__future_base12_Result_baseENS2_8_DeleterEEvENS1_13_State_baseV27_SetterIbObEEE9_M_invokeERKSt9_Any_data, .-_ZNSt17_Function_handlerIFSt10unique_ptrINSt13__future_base12_Result_baseENS2_8_DeleterEEvENS1_13_State_baseV27_SetterIbObEEE9_M_invokeERKSt9_Any_data
	.section	.text._ZNSt17_Function_handlerIFSt10unique_ptrINSt13__future_base12_Result_baseENS2_8_DeleterEEvENS1_13_State_baseV27_SetterIN8opendnp315StackStatisticsEOS9_EEE9_M_invokeERKSt9_Any_data,"axG",@progbits,_ZNSt17_Function_handlerIFSt10unique_ptrINSt13__future_base12_Result_baseENS2_8_DeleterEEvENS1_13_State_baseV27_SetterIN8opendnp315StackStatisticsEOS9_EEE9_M_invokeERKSt9_Any_data,comdat
	.align	2
	.p2align 4,,11
	.weak	_ZNSt17_Function_handlerIFSt10unique_ptrINSt13__future_base12_Result_baseENS2_8_DeleterEEvENS1_13_State_baseV27_SetterIN8opendnp315StackStatisticsEOS9_EEE9_M_invokeERKSt9_Any_data
	.type	_ZNSt17_Function_handlerIFSt10unique_ptrINSt13__future_base12_Result_baseENS2_8_DeleterEEvENS1_13_State_baseV27_SetterIN8opendnp315StackStatisticsEOS9_EEE9_M_invokeERKSt9_Any_data, %function
_ZNSt17_Function_handlerIFSt10unique_ptrINSt13__future_base12_Result_baseENS2_8_DeleterEEvENS1_13_State_baseV27_SetterIN8opendnp315StackStatisticsEOS9_EEE9_M_invokeERKSt9_Any_data:
.LFB11017:
	.cfi_startproc
	mov	x1, x0
	mov	w5, 1
	mov	x0, x8
	ldp	x4, x3, [x1]
	ldr	x1, [x4, 16]
	ldp	q0, q1, [x3]
	add	x2, x1, 16
	stp	q0, q1, [x2]
	ldr	x3, [x3, 32]
	str	x3, [x2, 32]
	strb	w5, [x1, 56]
	str	xzr, [x4, 16]
	str	x1, [x8]
	ret
	.cfi_endproc
.LFE11017:
	.size	_ZNSt17_Function_handlerIFSt10unique_ptrINSt13__future_base12_Result_baseENS2_8_DeleterEEvENS1_13_State_baseV27_SetterIN8opendnp315StackStatisticsEOS9_EEE9_M_invokeERKSt9_Any_data, .-_ZNSt17_Function_handlerIFSt10unique_ptrINSt13__future_base12_Result_baseENS2_8_DeleterEEvENS1_13_State_baseV27_SetterIN8opendnp315StackStatisticsEOS9_EEE9_M_invokeERKSt9_Any_data
	.section	.text._ZNSt13__future_base13_State_baseV2D2Ev,"axG",@progbits,_ZNSt13__future_base13_State_baseV2D5Ev,comdat
	.align	2
	.p2align 4,,11
	.weak	_ZNSt13__future_base13_State_baseV2D2Ev
	.type	_ZNSt13__future_base13_State_baseV2D2Ev, %function
_ZNSt13__future_base13_State_baseV2D2Ev:
.LFB11850:
	.cfi_startproc
	.cfi_personality 0x9b,DW.ref.__gxx_personality_v0
	.cfi_lsda 0x1b,.LLSDA11850
	adrp	x1, :got:_ZTVNSt13__future_base13_State_baseV2E
	mov	x2, x0
	ldr	x0, [x0, 8]
	ldr	x1, [x1, #:got_lo12:_ZTVNSt13__future_base13_State_baseV2E]
	add	x1, x1, 16
	str	x1, [x2]
	cbz	x0, .L23
	stp	x29, x30, [sp, -16]!
	.cfi_def_cfa_offset 16
	.cfi_offset 29, -16
	.cfi_offset 30, -8
	mov	x29, sp
	ldr	x1, [x0]
	ldr	x1, [x1]
	blr	x1
	ldp	x29, x30, [sp], 16
	.cfi_restore 30
	.cfi_restore 29
	.cfi_def_cfa_offset 0
	ret
	.p2align 2,,3
.L23:
	ret
	.cfi_endproc
.LFE11850:
	.global	__gxx_personality_v0
	.section	.gcc_except_table._ZNSt13__future_base13_State_baseV2D2Ev,"aG",@progbits,_ZNSt13__future_base13_State_baseV2D5Ev,comdat
.LLSDA11850:
	.byte	0xff
	.byte	0xff
	.byte	0x1
	.uleb128 .LLSDACSE11850-.LLSDACSB11850
.LLSDACSB11850:
.LLSDACSE11850:
	.section	.text._ZNSt13__future_base13_State_baseV2D2Ev,"axG",@progbits,_ZNSt13__future_base13_State_baseV2D5Ev,comdat
	.size	_ZNSt13__future_base13_State_baseV2D2Ev, .-_ZNSt13__future_base13_State_baseV2D2Ev
	.weak	_ZNSt13__future_base13_State_baseV2D1Ev
	.set	_ZNSt13__future_base13_State_baseV2D1Ev,_ZNSt13__future_base13_State_baseV2D2Ev
	.section	.text._ZN4asio6detail10service_idINS0_13epoll_reactorEED2Ev,"axG",@progbits,_ZN4asio6detail10service_idINS0_13epoll_reactorEED5Ev,comdat
	.align	2
	.p2align 4,,11
	.weak	_ZN4asio6detail10service_idINS0_13epoll_reactorEED2Ev
	.type	_ZN4asio6detail10service_idINS0_13epoll_reactorEED2Ev, %function
_ZN4asio6detail10service_idINS0_13epoll_reactorEED2Ev:
.LFB11918:
	.cfi_startproc
	ret
	.cfi_endproc
.LFE11918:
	.size	_ZN4asio6detail10service_idINS0_13epoll_reactorEED2Ev, .-_ZN4asio6detail10service_idINS0_13epoll_reactorEED2Ev
	.weak	_ZN4asio6detail10service_idINS0_13epoll_reactorEED1Ev
	.set	_ZN4asio6detail10service_idINS0_13epoll_reactorEED1Ev,_ZN4asio6detail10service_idINS0_13epoll_reactorEED2Ev
	.section	.text._ZN4asio6detail10service_idINS0_15task_io_serviceEED2Ev,"axG",@progbits,_ZN4asio6detail10service_idINS0_15task_io_serviceEED5Ev,comdat
	.align	2
	.p2align 4,,11
	.weak	_ZN4asio6detail10service_idINS0_15task_io_serviceEED2Ev
	.type	_ZN4asio6detail10service_idINS0_15task_io_serviceEED2Ev, %function
_ZN4asio6detail10service_idINS0_15task_io_serviceEED2Ev:
.LFB11921:
	.cfi_startproc
	ret
	.cfi_endproc
.LFE11921:
	.size	_ZN4asio6detail10service_idINS0_15task_io_serviceEED2Ev, .-_ZN4asio6detail10service_idINS0_15task_io_serviceEED2Ev
	.weak	_ZN4asio6detail10service_idINS0_15task_io_serviceEED1Ev
	.set	_ZN4asio6detail10service_idINS0_15task_io_serviceEED1Ev,_ZN4asio6detail10service_idINS0_15task_io_serviceEED2Ev
	.section	.text._ZN4asio6detail10service_idINS0_14strand_serviceEED2Ev,"axG",@progbits,_ZN4asio6detail10service_idINS0_14strand_serviceEED5Ev,comdat
	.align	2
	.p2align 4,,11
	.weak	_ZN4asio6detail10service_idINS0_14strand_serviceEED2Ev
	.type	_ZN4asio6detail10service_idINS0_14strand_serviceEED2Ev, %function
_ZN4asio6detail10service_idINS0_14strand_serviceEED2Ev:
.LFB11927:
	.cfi_startproc
	ret
	.cfi_endproc
.LFE11927:
	.size	_ZN4asio6detail10service_idINS0_14strand_serviceEED2Ev, .-_ZN4asio6detail10service_idINS0_14strand_serviceEED2Ev
	.weak	_ZN4asio6detail10service_idINS0_14strand_serviceEED1Ev
	.set	_ZN4asio6detail10service_idINS0_14strand_serviceEED1Ev,_ZN4asio6detail10service_idINS0_14strand_serviceEED2Ev
	.section	.text._ZNSt23_Sp_counted_ptr_inplaceINSt13__future_base13_State_baseV2ESaIS1_ELN9__gnu_cxx12_Lock_policyE2EED2Ev,"axG",@progbits,_ZNSt23_Sp_counted_ptr_inplaceINSt13__future_base13_State_baseV2ESaIS1_ELN9__gnu_cxx12_Lock_policyE2EED5Ev,comdat
	.align	2
	.p2align 4,,11
	.weak	_ZNSt23_Sp_counted_ptr_inplaceINSt13__future_base13_State_baseV2ESaIS1_ELN9__gnu_cxx12_Lock_policyE2EED2Ev
	.type	_ZNSt23_Sp_counted_ptr_inplaceINSt13__future_base13_State_baseV2ESaIS1_ELN9__gnu_cxx12_Lock_policyE2EED2Ev, %function
_ZNSt23_Sp_counted_ptr_inplaceINSt13__future_base13_State_baseV2ESaIS1_ELN9__gnu_cxx12_Lock_policyE2EED2Ev:
.LFB12000:
	.cfi_startproc
	ret
	.cfi_endproc
.LFE12000:
	.size	_ZNSt23_Sp_counted_ptr_inplaceINSt13__future_base13_State_baseV2ESaIS1_ELN9__gnu_cxx12_Lock_policyE2EED2Ev, .-_ZNSt23_Sp_counted_ptr_inplaceINSt13__future_base13_State_baseV2ESaIS1_ELN9__gnu_cxx12_Lock_policyE2EED2Ev
	.weak	_ZNSt23_Sp_counted_ptr_inplaceINSt13__future_base13_State_baseV2ESaIS1_ELN9__gnu_cxx12_Lock_policyE2EED1Ev
	.set	_ZNSt23_Sp_counted_ptr_inplaceINSt13__future_base13_State_baseV2ESaIS1_ELN9__gnu_cxx12_Lock_policyE2EED1Ev,_ZNSt23_Sp_counted_ptr_inplaceINSt13__future_base13_State_baseV2ESaIS1_ELN9__gnu_cxx12_Lock_policyE2EED2Ev
	.section	.text._ZNSt23_Sp_counted_ptr_inplaceINSt13__future_base13_State_baseV2ESaIS1_ELN9__gnu_cxx12_Lock_policyE2EE10_M_disposeEv,"axG",@progbits,_ZNSt23_Sp_counted_ptr_inplaceINSt13__future_base13_State_baseV2ESaIS1_ELN9__gnu_cxx12_Lock_policyE2EE10_M_disposeEv,comdat
	.align	2
	.p2align 4,,11
	.weak	_ZNSt23_Sp_counted_ptr_inplaceINSt13__future_base13_State_baseV2ESaIS1_ELN9__gnu_cxx12_Lock_policyE2EE10_M_disposeEv
	.type	_ZNSt23_Sp_counted_ptr_inplaceINSt13__future_base13_State_baseV2ESaIS1_ELN9__gnu_cxx12_Lock_policyE2EE10_M_disposeEv, %function
_ZNSt23_Sp_counted_ptr_inplaceINSt13__future_base13_State_baseV2ESaIS1_ELN9__gnu_cxx12_Lock_policyE2EE10_M_disposeEv:
.LFB12003:
	.cfi_startproc
	mov	x1, x0
	add	x0, x0, 16
	ldr	x1, [x1, 16]
	ldr	x1, [x1]
	mov	x16, x1
	br	x16
	.cfi_endproc
.LFE12003:
	.size	_ZNSt23_Sp_counted_ptr_inplaceINSt13__future_base13_State_baseV2ESaIS1_ELN9__gnu_cxx12_Lock_policyE2EE10_M_disposeEv, .-_ZNSt23_Sp_counted_ptr_inplaceINSt13__future_base13_State_baseV2ESaIS1_ELN9__gnu_cxx12_Lock_policyE2EE10_M_disposeEv
	.section	.text._ZNSt13__future_base13_State_baseV2D0Ev,"axG",@progbits,_ZNSt13__future_base13_State_baseV2D5Ev,comdat
	.align	2
	.p2align 4,,11
	.weak	_ZNSt13__future_base13_State_baseV2D0Ev
	.type	_ZNSt13__future_base13_State_baseV2D0Ev, %function
_ZNSt13__future_base13_State_baseV2D0Ev:
.LFB11852:
	.cfi_startproc
	.cfi_personality 0x9b,DW.ref.__gxx_personality_v0
	.cfi_lsda 0x1b,.LLSDA11852
	stp	x29, x30, [sp, -32]!
	.cfi_def_cfa_offset 32
	.cfi_offset 29, -32
	.cfi_offset 30, -24
	adrp	x1, :got:_ZTVNSt13__future_base13_State_baseV2E
	mov	x29, sp
	ldr	x1, [x1, #:got_lo12:_ZTVNSt13__future_base13_State_baseV2E]
	str	x19, [sp, 16]
	.cfi_offset 19, -16
	mov	x19, x0
	ldr	x0, [x0, 8]
	add	x1, x1, 16
	str	x1, [x19]
	cbz	x0, .L32
	ldr	x1, [x0]
	ldr	x1, [x1]
	blr	x1
.L32:
	mov	x0, x19
	mov	x1, 32
	ldr	x19, [sp, 16]
	ldp	x29, x30, [sp], 32
	.cfi_restore 30
	.cfi_restore 29
	.cfi_restore 19
	.cfi_def_cfa_offset 0
	b	_ZdlPvm
	.cfi_endproc
.LFE11852:
	.section	.gcc_except_table._ZNSt13__future_base13_State_baseV2D0Ev,"aG",@progbits,_ZNSt13__future_base13_State_baseV2D5Ev,comdat
.LLSDA11852:
	.byte	0xff
	.byte	0xff
	.byte	0x1
	.uleb128 .LLSDACSE11852-.LLSDACSB11852
.LLSDACSB11852:
.LLSDACSE11852:
	.section	.text._ZNSt13__future_base13_State_baseV2D0Ev,"axG",@progbits,_ZNSt13__future_base13_State_baseV2D5Ev,comdat
	.size	_ZNSt13__future_base13_State_baseV2D0Ev, .-_ZNSt13__future_base13_State_baseV2D0Ev
	.section	.text._ZNSt23_Sp_counted_ptr_inplaceINSt13__future_base13_State_baseV2ESaIS1_ELN9__gnu_cxx12_Lock_policyE2EED0Ev,"axG",@progbits,_ZNSt23_Sp_counted_ptr_inplaceINSt13__future_base13_State_baseV2ESaIS1_ELN9__gnu_cxx12_Lock_policyE2EED5Ev,comdat
	.align	2
	.p2align 4,,11
	.weak	_ZNSt23_Sp_counted_ptr_inplaceINSt13__future_base13_State_baseV2ESaIS1_ELN9__gnu_cxx12_Lock_policyE2EED0Ev
	.type	_ZNSt23_Sp_counted_ptr_inplaceINSt13__future_base13_State_baseV2ESaIS1_ELN9__gnu_cxx12_Lock_policyE2EED0Ev, %function
_ZNSt23_Sp_counted_ptr_inplaceINSt13__future_base13_State_baseV2ESaIS1_ELN9__gnu_cxx12_Lock_policyE2EED0Ev:
.LFB12002:
	.cfi_startproc
	mov	x1, 48
	b	_ZdlPvm
	.cfi_endproc
.LFE12002:
	.size	_ZNSt23_Sp_counted_ptr_inplaceINSt13__future_base13_State_baseV2ESaIS1_ELN9__gnu_cxx12_Lock_policyE2EED0Ev, .-_ZNSt23_Sp_counted_ptr_inplaceINSt13__future_base13_State_baseV2ESaIS1_ELN9__gnu_cxx12_Lock_policyE2EED0Ev
	.section	.text._ZNSt23_Sp_counted_ptr_inplaceINSt13__future_base13_State_baseV2ESaIS1_ELN9__gnu_cxx12_Lock_policyE2EE10_M_destroyEv,"axG",@progbits,_ZNSt23_Sp_counted_ptr_inplaceINSt13__future_base13_State_baseV2ESaIS1_ELN9__gnu_cxx12_Lock_policyE2EE10_M_destroyEv,comdat
	.align	2
	.p2align 4,,11
	.weak	_ZNSt23_Sp_counted_ptr_inplaceINSt13__future_base13_State_baseV2ESaIS1_ELN9__gnu_cxx12_Lock_policyE2EE10_M_destroyEv
	.type	_ZNSt23_Sp_counted_ptr_inplaceINSt13__future_base13_State_baseV2ESaIS1_ELN9__gnu_cxx12_Lock_policyE2EE10_M_destroyEv, %function
_ZNSt23_Sp_counted_ptr_inplaceINSt13__future_base13_State_baseV2ESaIS1_ELN9__gnu_cxx12_Lock_policyE2EE10_M_destroyEv:
.LFB12004:
	.cfi_startproc
	mov	x1, 48
	b	_ZdlPvm
	.cfi_endproc
.LFE12004:
	.size	_ZNSt23_Sp_counted_ptr_inplaceINSt13__future_base13_State_baseV2ESaIS1_ELN9__gnu_cxx12_Lock_policyE2EE10_M_destroyEv, .-_ZNSt23_Sp_counted_ptr_inplaceINSt13__future_base13_State_baseV2ESaIS1_ELN9__gnu_cxx12_Lock_policyE2EE10_M_destroyEv
	.section	.text._ZNSt13__future_base7_ResultIbED2Ev,"axG",@progbits,_ZNSt13__future_base7_ResultIbED5Ev,comdat
	.align	2
	.p2align 4,,11
	.weak	_ZNSt13__future_base7_ResultIbED2Ev
	.type	_ZNSt13__future_base7_ResultIbED2Ev, %function
_ZNSt13__future_base7_ResultIbED2Ev:
.LFB12027:
	.cfi_startproc
	adrp	x1, :got:_ZTVNSt13__future_base7_ResultIbEE
	ldr	x1, [x1, #:got_lo12:_ZTVNSt13__future_base7_ResultIbEE]
	add	x1, x1, 16
	str	x1, [x0]
	b	_ZNSt13__future_base12_Result_baseD2Ev
	.cfi_endproc
.LFE12027:
	.size	_ZNSt13__future_base7_ResultIbED2Ev, .-_ZNSt13__future_base7_ResultIbED2Ev
	.weak	_ZNSt13__future_base7_ResultIbED1Ev
	.set	_ZNSt13__future_base7_ResultIbED1Ev,_ZNSt13__future_base7_ResultIbED2Ev
	.section	.text._ZNSt13__future_base7_ResultIbED0Ev,"axG",@progbits,_ZNSt13__future_base7_ResultIbED5Ev,comdat
	.align	2
	.p2align 4,,11
	.weak	_ZNSt13__future_base7_ResultIbED0Ev
	.type	_ZNSt13__future_base7_ResultIbED0Ev, %function
_ZNSt13__future_base7_ResultIbED0Ev:
.LFB12029:
	.cfi_startproc
	stp	x29, x30, [sp, -32]!
	.cfi_def_cfa_offset 32
	.cfi_offset 29, -32
	.cfi_offset 30, -24
	adrp	x1, :got:_ZTVNSt13__future_base7_ResultIbEE
	mov	x29, sp
	ldr	x1, [x1, #:got_lo12:_ZTVNSt13__future_base7_ResultIbEE]
	str	x19, [sp, 16]
	.cfi_offset 19, -16
	mov	x19, x0
	add	x1, x1, 16
	str	x1, [x0]
	bl	_ZNSt13__future_base12_Result_baseD2Ev
	mov	x0, x19
	mov	x1, 24
	ldr	x19, [sp, 16]
	ldp	x29, x30, [sp], 32
	.cfi_restore 30
	.cfi_restore 29
	.cfi_restore 19
	.cfi_def_cfa_offset 0
	b	_ZdlPvm
	.cfi_endproc
.LFE12029:
	.size	_ZNSt13__future_base7_ResultIbED0Ev, .-_ZNSt13__future_base7_ResultIbED0Ev
	.section	.text._ZNSt13__future_base7_ResultIN8opendnp315StackStatisticsEED2Ev,"axG",@progbits,_ZNSt13__future_base7_ResultIN8opendnp315StackStatisticsEED5Ev,comdat
	.align	2
	.p2align 4,,11
	.weak	_ZNSt13__future_base7_ResultIN8opendnp315StackStatisticsEED2Ev
	.type	_ZNSt13__future_base7_ResultIN8opendnp315StackStatisticsEED2Ev, %function
_ZNSt13__future_base7_ResultIN8opendnp315StackStatisticsEED2Ev:
.LFB12022:
	.cfi_startproc
	adrp	x1, :got:_ZTVNSt13__future_base7_ResultIN8opendnp315StackStatisticsEEE
	ldr	x1, [x1, #:got_lo12:_ZTVNSt13__future_base7_ResultIN8opendnp315StackStatisticsEEE]
	add	x1, x1, 16
	str	x1, [x0]
	b	_ZNSt13__future_base12_Result_baseD2Ev
	.cfi_endproc
.LFE12022:
	.size	_ZNSt13__future_base7_ResultIN8opendnp315StackStatisticsEED2Ev, .-_ZNSt13__future_base7_ResultIN8opendnp315StackStatisticsEED2Ev
	.weak	_ZNSt13__future_base7_ResultIN8opendnp315StackStatisticsEED1Ev
	.set	_ZNSt13__future_base7_ResultIN8opendnp315StackStatisticsEED1Ev,_ZNSt13__future_base7_ResultIN8opendnp315StackStatisticsEED2Ev
	.section	.text._ZNSt13__future_base7_ResultIN8opendnp315StackStatisticsEED0Ev,"axG",@progbits,_ZNSt13__future_base7_ResultIN8opendnp315StackStatisticsEED5Ev,comdat
	.align	2
	.p2align 4,,11
	.weak	_ZNSt13__future_base7_ResultIN8opendnp315StackStatisticsEED0Ev
	.type	_ZNSt13__future_base7_ResultIN8opendnp315StackStatisticsEED0Ev, %function
_ZNSt13__future_base7_ResultIN8opendnp315StackStatisticsEED0Ev:
.LFB12024:
	.cfi_startproc
	stp	x29, x30, [sp, -32]!
	.cfi_def_cfa_offset 32
	.cfi_offset 29, -32
	.cfi_offset 30, -24
	adrp	x1, :got:_ZTVNSt13__future_base7_ResultIN8opendnp315StackStatisticsEEE
	mov	x29, sp
	ldr	x1, [x1, #:got_lo12:_ZTVNSt13__future_base7_ResultIN8opendnp315StackStatisticsEEE]
	str	x19, [sp, 16]
	.cfi_offset 19, -16
	mov	x19, x0
	add	x1, x1, 16
	str	x1, [x0]
	bl	_ZNSt13__future_base12_Result_baseD2Ev
	mov	x0, x19
	mov	x1, 64
	ldr	x19, [sp, 16]
	ldp	x29, x30, [sp], 32
	.cfi_restore 30
	.cfi_restore 29
	.cfi_restore 19
	.cfi_def_cfa_offset 0
	b	_ZdlPvm
	.cfi_endproc
.LFE12024:
	.size	_ZNSt13__future_base7_ResultIN8opendnp315StackStatisticsEED0Ev, .-_ZNSt13__future_base7_ResultIN8opendnp315StackStatisticsEED0Ev
	.section	.text._ZNSt23_Sp_counted_ptr_inplaceINSt13__future_base13_State_baseV2ESaIS1_ELN9__gnu_cxx12_Lock_policyE2EE14_M_get_deleterERKSt9type_info,"axG",@progbits,_ZNSt23_Sp_counted_ptr_inplaceINSt13__future_base13_State_baseV2ESaIS1_ELN9__gnu_cxx12_Lock_policyE2EE14_M_get_deleterERKSt9type_info,comdat
	.align	2
	.p2align 4,,11
	.weak	_ZNSt23_Sp_counted_ptr_inplaceINSt13__future_base13_State_baseV2ESaIS1_ELN9__gnu_cxx12_Lock_policyE2EE14_M_get_deleterERKSt9type_info
	.type	_ZNSt23_Sp_counted_ptr_inplaceINSt13__future_base13_State_baseV2ESaIS1_ELN9__gnu_cxx12_Lock_policyE2EE14_M_get_deleterERKSt9type_info, %function
_ZNSt23_Sp_counted_ptr_inplaceINSt13__future_base13_State_baseV2ESaIS1_ELN9__gnu_cxx12_Lock_policyE2EE14_M_get_deleterERKSt9type_info:
.LFB12005:
	.cfi_startproc
	stp	x29, x30, [sp, -32]!
	.cfi_def_cfa_offset 32
	.cfi_offset 29, -32
	.cfi_offset 30, -24
	adrp	x2, :got:_ZZNSt19_Sp_make_shared_tag5_S_tiEvE5__tag
	mov	x29, sp
	ldr	x2, [x2, #:got_lo12:_ZZNSt19_Sp_make_shared_tag5_S_tiEvE5__tag]
	str	x19, [sp, 16]
	.cfi_offset 19, -16
	add	x19, x0, 16
	cmp	x1, x2
	beq	.L45
	adrp	x2, :got:_ZTSSt19_Sp_make_shared_tag
	ldr	x0, [x1, 8]
	ldr	x1, [x2, #:got_lo12:_ZTSSt19_Sp_make_shared_tag]
	cmp	x0, x1
	beq	.L45
	ldrb	w2, [x0]
	cmp	w2, 42
	beq	.L47
	bl	strcmp
	cmp	w0, 0
	csel	x19, x19, xzr, eq
.L45:
	mov	x0, x19
	ldr	x19, [sp, 16]
	ldp	x29, x30, [sp], 32
	.cfi_remember_state
	.cfi_restore 30
	.cfi_restore 29
	.cfi_restore 19
	.cfi_def_cfa_offset 0
	ret
	.p2align 2,,3
.L47:
	.cfi_restore_state
	mov	x19, 0
	mov	x0, x19
	ldr	x19, [sp, 16]
	ldp	x29, x30, [sp], 32
	.cfi_restore 30
	.cfi_restore 29
	.cfi_restore 19
	.cfi_def_cfa_offset 0
	ret
	.cfi_endproc
.LFE12005:
	.size	_ZNSt23_Sp_counted_ptr_inplaceINSt13__future_base13_State_baseV2ESaIS1_ELN9__gnu_cxx12_Lock_policyE2EE14_M_get_deleterERKSt9type_info, .-_ZNSt23_Sp_counted_ptr_inplaceINSt13__future_base13_State_baseV2ESaIS1_ELN9__gnu_cxx12_Lock_policyE2EE14_M_get_deleterERKSt9type_info
	.section	.text._ZN7openpal5ArrayIhjED2Ev,"axG",@progbits,_ZN7openpal5ArrayIhjED5Ev,comdat
	.align	2
	.p2align 4,,11
	.weak	_ZN7openpal5ArrayIhjED2Ev
	.type	_ZN7openpal5ArrayIhjED2Ev, %function
_ZN7openpal5ArrayIhjED2Ev:
.LFB9274:
	.cfi_startproc
	adrp	x1, :got:_ZTVN7openpal5ArrayIhjEE
	mov	x2, x0
	ldr	x0, [x0, 16]
	ldr	x1, [x1, #:got_lo12:_ZTVN7openpal5ArrayIhjEE]
	add	x1, x1, 16
	str	x1, [x2]
	cbz	x0, .L50
	b	_ZdaPv
	.p2align 2,,3
.L50:
	ret
	.cfi_endproc
.LFE9274:
	.size	_ZN7openpal5ArrayIhjED2Ev, .-_ZN7openpal5ArrayIhjED2Ev
	.weak	_ZN7openpal5ArrayIhjED1Ev
	.set	_ZN7openpal5ArrayIhjED1Ev,_ZN7openpal5ArrayIhjED2Ev
	.section	.text._ZN7openpal5ArrayIhjED0Ev,"axG",@progbits,_ZN7openpal5ArrayIhjED5Ev,comdat
	.align	2
	.p2align 4,,11
	.weak	_ZN7openpal5ArrayIhjED0Ev
	.type	_ZN7openpal5ArrayIhjED0Ev, %function
_ZN7openpal5ArrayIhjED0Ev:
.LFB9276:
	.cfi_startproc
	stp	x29, x30, [sp, -32]!
	.cfi_def_cfa_offset 32
	.cfi_offset 29, -32
	.cfi_offset 30, -24
	adrp	x1, :got:_ZTVN7openpal5ArrayIhjEE
	mov	x29, sp
	ldr	x1, [x1, #:got_lo12:_ZTVN7openpal5ArrayIhjEE]
	str	x19, [sp, 16]
	.cfi_offset 19, -16
	mov	x19, x0
	ldr	x0, [x0, 16]
	add	x1, x1, 16
	str	x1, [x19]
	cbz	x0, .L53
	bl	_ZdaPv
.L53:
	mov	x0, x19
	mov	x1, 24
	ldr	x19, [sp, 16]
	ldp	x29, x30, [sp], 32
	.cfi_restore 30
	.cfi_restore 29
	.cfi_restore 19
	.cfi_def_cfa_offset 0
	b	_ZdlPvm
	.cfi_endproc
.LFE9276:
	.size	_ZN7openpal5ArrayIhjED0Ev, .-_ZN7openpal5ArrayIhjED0Ev
	.section	.text._ZN7openpal5ArrayIN8opendnp34CellINS1_19TimeAndIntervalSpecEEEtED2Ev,"axG",@progbits,_ZN7openpal5ArrayIN8opendnp34CellINS1_19TimeAndIntervalSpecEEEtED5Ev,comdat
	.align	2
	.p2align 4,,11
	.weak	_ZN7openpal5ArrayIN8opendnp34CellINS1_19TimeAndIntervalSpecEEEtED2Ev
	.type	_ZN7openpal5ArrayIN8opendnp34CellINS1_19TimeAndIntervalSpecEEEtED2Ev, %function
_ZN7openpal5ArrayIN8opendnp34CellINS1_19TimeAndIntervalSpecEEEtED2Ev:
.LFB12064:
	.cfi_startproc
	adrp	x1, :got:_ZTVN7openpal5ArrayIN8opendnp34CellINS1_19TimeAndIntervalSpecEEEtEE
	mov	x2, x0
	ldr	x0, [x0, 16]
	ldr	x1, [x1, #:got_lo12:_ZTVN7openpal5ArrayIN8opendnp34CellINS1_19TimeAndIntervalSpecEEEtEE]
	add	x1, x1, 16
	str	x1, [x2]
	cbz	x0, .L58
	b	_ZdaPv
	.p2align 2,,3
.L58:
	ret
	.cfi_endproc
.LFE12064:
	.size	_ZN7openpal5ArrayIN8opendnp34CellINS1_19TimeAndIntervalSpecEEEtED2Ev, .-_ZN7openpal5ArrayIN8opendnp34CellINS1_19TimeAndIntervalSpecEEEtED2Ev
	.weak	_ZN7openpal5ArrayIN8opendnp34CellINS1_19TimeAndIntervalSpecEEEtED1Ev
	.set	_ZN7openpal5ArrayIN8opendnp34CellINS1_19TimeAndIntervalSpecEEEtED1Ev,_ZN7openpal5ArrayIN8opendnp34CellINS1_19TimeAndIntervalSpecEEEtED2Ev
	.section	.text._ZN7openpal5ArrayIN8opendnp34CellINS1_19TimeAndIntervalSpecEEEtED0Ev,"axG",@progbits,_ZN7openpal5ArrayIN8opendnp34CellINS1_19TimeAndIntervalSpecEEEtED5Ev,comdat
	.align	2
	.p2align 4,,11
	.weak	_ZN7openpal5ArrayIN8opendnp34CellINS1_19TimeAndIntervalSpecEEEtED0Ev
	.type	_ZN7openpal5ArrayIN8opendnp34CellINS1_19TimeAndIntervalSpecEEEtED0Ev, %function
_ZN7openpal5ArrayIN8opendnp34CellINS1_19TimeAndIntervalSpecEEEtED0Ev:
.LFB12066:
	.cfi_startproc
	stp	x29, x30, [sp, -32]!
	.cfi_def_cfa_offset 32
	.cfi_offset 29, -32
	.cfi_offset 30, -24
	adrp	x1, :got:_ZTVN7openpal5ArrayIN8opendnp34CellINS1_19TimeAndIntervalSpecEEEtEE
	mov	x29, sp
	ldr	x1, [x1, #:got_lo12:_ZTVN7openpal5ArrayIN8opendnp34CellINS1_19TimeAndIntervalSpecEEEtEE]
	str	x19, [sp, 16]
	.cfi_offset 19, -16
	mov	x19, x0
	ldr	x0, [x0, 16]
	add	x1, x1, 16
	str	x1, [x19]
	cbz	x0, .L61
	bl	_ZdaPv
.L61:
	mov	x0, x19
	mov	x1, 24
	ldr	x19, [sp, 16]
	ldp	x29, x30, [sp], 32
	.cfi_restore 30
	.cfi_restore 29
	.cfi_restore 19
	.cfi_def_cfa_offset 0
	b	_ZdlPvm
	.cfi_endproc
.LFE12066:
	.size	_ZN7openpal5ArrayIN8opendnp34CellINS1_19TimeAndIntervalSpecEEEtED0Ev, .-_ZN7openpal5ArrayIN8opendnp34CellINS1_19TimeAndIntervalSpecEEEtED0Ev
	.section	.text._ZN7openpal5ArrayIN8opendnp34CellINS1_22AnalogOutputStatusSpecEEEtED2Ev,"axG",@progbits,_ZN7openpal5ArrayIN8opendnp34CellINS1_22AnalogOutputStatusSpecEEEtED5Ev,comdat
	.align	2
	.p2align 4,,11
	.weak	_ZN7openpal5ArrayIN8opendnp34CellINS1_22AnalogOutputStatusSpecEEEtED2Ev
	.type	_ZN7openpal5ArrayIN8opendnp34CellINS1_22AnalogOutputStatusSpecEEEtED2Ev, %function
_ZN7openpal5ArrayIN8opendnp34CellINS1_22AnalogOutputStatusSpecEEEtED2Ev:
.LFB12060:
	.cfi_startproc
	adrp	x1, :got:_ZTVN7openpal5ArrayIN8opendnp34CellINS1_22AnalogOutputStatusSpecEEEtEE
	mov	x2, x0
	ldr	x0, [x0, 16]
	ldr	x1, [x1, #:got_lo12:_ZTVN7openpal5ArrayIN8opendnp34CellINS1_22AnalogOutputStatusSpecEEEtEE]
	add	x1, x1, 16
	str	x1, [x2]
	cbz	x0, .L66
	b	_ZdaPv
	.p2align 2,,3
.L66:
	ret
	.cfi_endproc
.LFE12060:
	.size	_ZN7openpal5ArrayIN8opendnp34CellINS1_22AnalogOutputStatusSpecEEEtED2Ev, .-_ZN7openpal5ArrayIN8opendnp34CellINS1_22AnalogOutputStatusSpecEEEtED2Ev
	.weak	_ZN7openpal5ArrayIN8opendnp34CellINS1_22AnalogOutputStatusSpecEEEtED1Ev
	.set	_ZN7openpal5ArrayIN8opendnp34CellINS1_22AnalogOutputStatusSpecEEEtED1Ev,_ZN7openpal5ArrayIN8opendnp34CellINS1_22AnalogOutputStatusSpecEEEtED2Ev
	.section	.text._ZN7openpal5ArrayIN8opendnp34CellINS1_22AnalogOutputStatusSpecEEEtED0Ev,"axG",@progbits,_ZN7openpal5ArrayIN8opendnp34CellINS1_22AnalogOutputStatusSpecEEEtED5Ev,comdat
	.align	2
	.p2align 4,,11
	.weak	_ZN7openpal5ArrayIN8opendnp34CellINS1_22AnalogOutputStatusSpecEEEtED0Ev
	.type	_ZN7openpal5ArrayIN8opendnp34CellINS1_22AnalogOutputStatusSpecEEEtED0Ev, %function
_ZN7openpal5ArrayIN8opendnp34CellINS1_22AnalogOutputStatusSpecEEEtED0Ev:
.LFB12062:
	.cfi_startproc
	stp	x29, x30, [sp, -32]!
	.cfi_def_cfa_offset 32
	.cfi_offset 29, -32
	.cfi_offset 30, -24
	adrp	x1, :got:_ZTVN7openpal5ArrayIN8opendnp34CellINS1_22AnalogOutputStatusSpecEEEtEE
	mov	x29, sp
	ldr	x1, [x1, #:got_lo12:_ZTVN7openpal5ArrayIN8opendnp34CellINS1_22AnalogOutputStatusSpecEEEtEE]
	str	x19, [sp, 16]
	.cfi_offset 19, -16
	mov	x19, x0
	ldr	x0, [x0, 16]
	add	x1, x1, 16
	str	x1, [x19]
	cbz	x0, .L69
	bl	_ZdaPv
.L69:
	mov	x0, x19
	mov	x1, 24
	ldr	x19, [sp, 16]
	ldp	x29, x30, [sp], 32
	.cfi_restore 30
	.cfi_restore 29
	.cfi_restore 19
	.cfi_def_cfa_offset 0
	b	_ZdlPvm
	.cfi_endproc
.LFE12062:
	.size	_ZN7openpal5ArrayIN8opendnp34CellINS1_22AnalogOutputStatusSpecEEEtED0Ev, .-_ZN7openpal5ArrayIN8opendnp34CellINS1_22AnalogOutputStatusSpecEEEtED0Ev
	.section	.text._ZN7openpal5ArrayIN8opendnp34CellINS1_22BinaryOutputStatusSpecEEEtED2Ev,"axG",@progbits,_ZN7openpal5ArrayIN8opendnp34CellINS1_22BinaryOutputStatusSpecEEEtED5Ev,comdat
	.align	2
	.p2align 4,,11
	.weak	_ZN7openpal5ArrayIN8opendnp34CellINS1_22BinaryOutputStatusSpecEEEtED2Ev
	.type	_ZN7openpal5ArrayIN8opendnp34CellINS1_22BinaryOutputStatusSpecEEEtED2Ev, %function
_ZN7openpal5ArrayIN8opendnp34CellINS1_22BinaryOutputStatusSpecEEEtED2Ev:
.LFB12056:
	.cfi_startproc
	adrp	x1, :got:_ZTVN7openpal5ArrayIN8opendnp34CellINS1_22BinaryOutputStatusSpecEEEtEE
	mov	x2, x0
	ldr	x0, [x0, 16]
	ldr	x1, [x1, #:got_lo12:_ZTVN7openpal5ArrayIN8opendnp34CellINS1_22BinaryOutputStatusSpecEEEtEE]
	add	x1, x1, 16
	str	x1, [x2]
	cbz	x0, .L74
	b	_ZdaPv
	.p2align 2,,3
.L74:
	ret
	.cfi_endproc
.LFE12056:
	.size	_ZN7openpal5ArrayIN8opendnp34CellINS1_22BinaryOutputStatusSpecEEEtED2Ev, .-_ZN7openpal5ArrayIN8opendnp34CellINS1_22BinaryOutputStatusSpecEEEtED2Ev
	.weak	_ZN7openpal5ArrayIN8opendnp34CellINS1_22BinaryOutputStatusSpecEEEtED1Ev
	.set	_ZN7openpal5ArrayIN8opendnp34CellINS1_22BinaryOutputStatusSpecEEEtED1Ev,_ZN7openpal5ArrayIN8opendnp34CellINS1_22BinaryOutputStatusSpecEEEtED2Ev
	.section	.text._ZN7openpal5ArrayIN8opendnp34CellINS1_22BinaryOutputStatusSpecEEEtED0Ev,"axG",@progbits,_ZN7openpal5ArrayIN8opendnp34CellINS1_22BinaryOutputStatusSpecEEEtED5Ev,comdat
	.align	2
	.p2align 4,,11
	.weak	_ZN7openpal5ArrayIN8opendnp34CellINS1_22BinaryOutputStatusSpecEEEtED0Ev
	.type	_ZN7openpal5ArrayIN8opendnp34CellINS1_22BinaryOutputStatusSpecEEEtED0Ev, %function
_ZN7openpal5ArrayIN8opendnp34CellINS1_22BinaryOutputStatusSpecEEEtED0Ev:
.LFB12058:
	.cfi_startproc
	stp	x29, x30, [sp, -32]!
	.cfi_def_cfa_offset 32
	.cfi_offset 29, -32
	.cfi_offset 30, -24
	adrp	x1, :got:_ZTVN7openpal5ArrayIN8opendnp34CellINS1_22BinaryOutputStatusSpecEEEtEE
	mov	x29, sp
	ldr	x1, [x1, #:got_lo12:_ZTVN7openpal5ArrayIN8opendnp34CellINS1_22BinaryOutputStatusSpecEEEtEE]
	str	x19, [sp, 16]
	.cfi_offset 19, -16
	mov	x19, x0
	ldr	x0, [x0, 16]
	add	x1, x1, 16
	str	x1, [x19]
	cbz	x0, .L77
	bl	_ZdaPv
.L77:
	mov	x0, x19
	mov	x1, 24
	ldr	x19, [sp, 16]
	ldp	x29, x30, [sp], 32
	.cfi_restore 30
	.cfi_restore 29
	.cfi_restore 19
	.cfi_def_cfa_offset 0
	b	_ZdlPvm
	.cfi_endproc
.LFE12058:
	.size	_ZN7openpal5ArrayIN8opendnp34CellINS1_22BinaryOutputStatusSpecEEEtED0Ev, .-_ZN7openpal5ArrayIN8opendnp34CellINS1_22BinaryOutputStatusSpecEEEtED0Ev
	.section	.text._ZN7openpal5ArrayIN8opendnp34CellINS1_17FrozenCounterSpecEEEtED2Ev,"axG",@progbits,_ZN7openpal5ArrayIN8opendnp34CellINS1_17FrozenCounterSpecEEEtED5Ev,comdat
	.align	2
	.p2align 4,,11
	.weak	_ZN7openpal5ArrayIN8opendnp34CellINS1_17FrozenCounterSpecEEEtED2Ev
	.type	_ZN7openpal5ArrayIN8opendnp34CellINS1_17FrozenCounterSpecEEEtED2Ev, %function
_ZN7openpal5ArrayIN8opendnp34CellINS1_17FrozenCounterSpecEEEtED2Ev:
.LFB12052:
	.cfi_startproc
	adrp	x1, :got:_ZTVN7openpal5ArrayIN8opendnp34CellINS1_17FrozenCounterSpecEEEtEE
	mov	x2, x0
	ldr	x0, [x0, 16]
	ldr	x1, [x1, #:got_lo12:_ZTVN7openpal5ArrayIN8opendnp34CellINS1_17FrozenCounterSpecEEEtEE]
	add	x1, x1, 16
	str	x1, [x2]
	cbz	x0, .L82
	b	_ZdaPv
	.p2align 2,,3
.L82:
	ret
	.cfi_endproc
.LFE12052:
	.size	_ZN7openpal5ArrayIN8opendnp34CellINS1_17FrozenCounterSpecEEEtED2Ev, .-_ZN7openpal5ArrayIN8opendnp34CellINS1_17FrozenCounterSpecEEEtED2Ev
	.weak	_ZN7openpal5ArrayIN8opendnp34CellINS1_17FrozenCounterSpecEEEtED1Ev
	.set	_ZN7openpal5ArrayIN8opendnp34CellINS1_17FrozenCounterSpecEEEtED1Ev,_ZN7openpal5ArrayIN8opendnp34CellINS1_17FrozenCounterSpecEEEtED2Ev
	.section	.text._ZN7openpal5ArrayIN8opendnp34CellINS1_17FrozenCounterSpecEEEtED0Ev,"axG",@progbits,_ZN7openpal5ArrayIN8opendnp34CellINS1_17FrozenCounterSpecEEEtED5Ev,comdat
	.align	2
	.p2align 4,,11
	.weak	_ZN7openpal5ArrayIN8opendnp34CellINS1_17FrozenCounterSpecEEEtED0Ev
	.type	_ZN7openpal5ArrayIN8opendnp34CellINS1_17FrozenCounterSpecEEEtED0Ev, %function
_ZN7openpal5ArrayIN8opendnp34CellINS1_17FrozenCounterSpecEEEtED0Ev:
.LFB12054:
	.cfi_startproc
	stp	x29, x30, [sp, -32]!
	.cfi_def_cfa_offset 32
	.cfi_offset 29, -32
	.cfi_offset 30, -24
	adrp	x1, :got:_ZTVN7openpal5ArrayIN8opendnp34CellINS1_17FrozenCounterSpecEEEtEE
	mov	x29, sp
	ldr	x1, [x1, #:got_lo12:_ZTVN7openpal5ArrayIN8opendnp34CellINS1_17FrozenCounterSpecEEEtEE]
	str	x19, [sp, 16]
	.cfi_offset 19, -16
	mov	x19, x0
	ldr	x0, [x0, 16]
	add	x1, x1, 16
	str	x1, [x19]
	cbz	x0, .L85
	bl	_ZdaPv
.L85:
	mov	x0, x19
	mov	x1, 24
	ldr	x19, [sp, 16]
	ldp	x29, x30, [sp], 32
	.cfi_restore 30
	.cfi_restore 29
	.cfi_restore 19
	.cfi_def_cfa_offset 0
	b	_ZdlPvm
	.cfi_endproc
.LFE12054:
	.size	_ZN7openpal5ArrayIN8opendnp34CellINS1_17FrozenCounterSpecEEEtED0Ev, .-_ZN7openpal5ArrayIN8opendnp34CellINS1_17FrozenCounterSpecEEEtED0Ev
	.section	.text._ZN7openpal5ArrayIN8opendnp34CellINS1_11CounterSpecEEEtED2Ev,"axG",@progbits,_ZN7openpal5ArrayIN8opendnp34CellINS1_11CounterSpecEEEtED5Ev,comdat
	.align	2
	.p2align 4,,11
	.weak	_ZN7openpal5ArrayIN8opendnp34CellINS1_11CounterSpecEEEtED2Ev
	.type	_ZN7openpal5ArrayIN8opendnp34CellINS1_11CounterSpecEEEtED2Ev, %function
_ZN7openpal5ArrayIN8opendnp34CellINS1_11CounterSpecEEEtED2Ev:
.LFB12048:
	.cfi_startproc
	adrp	x1, :got:_ZTVN7openpal5ArrayIN8opendnp34CellINS1_11CounterSpecEEEtEE
	mov	x2, x0
	ldr	x0, [x0, 16]
	ldr	x1, [x1, #:got_lo12:_ZTVN7openpal5ArrayIN8opendnp34CellINS1_11CounterSpecEEEtEE]
	add	x1, x1, 16
	str	x1, [x2]
	cbz	x0, .L90
	b	_ZdaPv
	.p2align 2,,3
.L90:
	ret
	.cfi_endproc
.LFE12048:
	.size	_ZN7openpal5ArrayIN8opendnp34CellINS1_11CounterSpecEEEtED2Ev, .-_ZN7openpal5ArrayIN8opendnp34CellINS1_11CounterSpecEEEtED2Ev
	.weak	_ZN7openpal5ArrayIN8opendnp34CellINS1_11CounterSpecEEEtED1Ev
	.set	_ZN7openpal5ArrayIN8opendnp34CellINS1_11CounterSpecEEEtED1Ev,_ZN7openpal5ArrayIN8opendnp34CellINS1_11CounterSpecEEEtED2Ev
	.section	.text._ZN7openpal5ArrayIN8opendnp34CellINS1_11CounterSpecEEEtED0Ev,"axG",@progbits,_ZN7openpal5ArrayIN8opendnp34CellINS1_11CounterSpecEEEtED5Ev,comdat
	.align	2
	.p2align 4,,11
	.weak	_ZN7openpal5ArrayIN8opendnp34CellINS1_11CounterSpecEEEtED0Ev
	.type	_ZN7openpal5ArrayIN8opendnp34CellINS1_11CounterSpecEEEtED0Ev, %function
_ZN7openpal5ArrayIN8opendnp34CellINS1_11CounterSpecEEEtED0Ev:
.LFB12050:
	.cfi_startproc
	stp	x29, x30, [sp, -32]!
	.cfi_def_cfa_offset 32
	.cfi_offset 29, -32
	.cfi_offset 30, -24
	adrp	x1, :got:_ZTVN7openpal5ArrayIN8opendnp34CellINS1_11CounterSpecEEEtEE
	mov	x29, sp
	ldr	x1, [x1, #:got_lo12:_ZTVN7openpal5ArrayIN8opendnp34CellINS1_11CounterSpecEEEtEE]
	str	x19, [sp, 16]
	.cfi_offset 19, -16
	mov	x19, x0
	ldr	x0, [x0, 16]
	add	x1, x1, 16
	str	x1, [x19]
	cbz	x0, .L93
	bl	_ZdaPv
.L93:
	mov	x0, x19
	mov	x1, 24
	ldr	x19, [sp, 16]
	ldp	x29, x30, [sp], 32
	.cfi_restore 30
	.cfi_restore 29
	.cfi_restore 19
	.cfi_def_cfa_offset 0
	b	_ZdlPvm
	.cfi_endproc
.LFE12050:
	.size	_ZN7openpal5ArrayIN8opendnp34CellINS1_11CounterSpecEEEtED0Ev, .-_ZN7openpal5ArrayIN8opendnp34CellINS1_11CounterSpecEEEtED0Ev
	.section	.text._ZN7openpal5ArrayIN8opendnp34CellINS1_10AnalogSpecEEEtED2Ev,"axG",@progbits,_ZN7openpal5ArrayIN8opendnp34CellINS1_10AnalogSpecEEEtED5Ev,comdat
	.align	2
	.p2align 4,,11
	.weak	_ZN7openpal5ArrayIN8opendnp34CellINS1_10AnalogSpecEEEtED2Ev
	.type	_ZN7openpal5ArrayIN8opendnp34CellINS1_10AnalogSpecEEEtED2Ev, %function
_ZN7openpal5ArrayIN8opendnp34CellINS1_10AnalogSpecEEEtED2Ev:
.LFB12044:
	.cfi_startproc
	adrp	x1, :got:_ZTVN7openpal5ArrayIN8opendnp34CellINS1_10AnalogSpecEEEtEE
	mov	x2, x0
	ldr	x0, [x0, 16]
	ldr	x1, [x1, #:got_lo12:_ZTVN7openpal5ArrayIN8opendnp34CellINS1_10AnalogSpecEEEtEE]
	add	x1, x1, 16
	str	x1, [x2]
	cbz	x0, .L98
	b	_ZdaPv
	.p2align 2,,3
.L98:
	ret
	.cfi_endproc
.LFE12044:
	.size	_ZN7openpal5ArrayIN8opendnp34CellINS1_10AnalogSpecEEEtED2Ev, .-_ZN7openpal5ArrayIN8opendnp34CellINS1_10AnalogSpecEEEtED2Ev
	.weak	_ZN7openpal5ArrayIN8opendnp34CellINS1_10AnalogSpecEEEtED1Ev
	.set	_ZN7openpal5ArrayIN8opendnp34CellINS1_10AnalogSpecEEEtED1Ev,_ZN7openpal5ArrayIN8opendnp34CellINS1_10AnalogSpecEEEtED2Ev
	.section	.text._ZN7openpal5ArrayIN8opendnp34CellINS1_10AnalogSpecEEEtED0Ev,"axG",@progbits,_ZN7openpal5ArrayIN8opendnp34CellINS1_10AnalogSpecEEEtED5Ev,comdat
	.align	2
	.p2align 4,,11
	.weak	_ZN7openpal5ArrayIN8opendnp34CellINS1_10AnalogSpecEEEtED0Ev
	.type	_ZN7openpal5ArrayIN8opendnp34CellINS1_10AnalogSpecEEEtED0Ev, %function
_ZN7openpal5ArrayIN8opendnp34CellINS1_10AnalogSpecEEEtED0Ev:
.LFB12046:
	.cfi_startproc
	stp	x29, x30, [sp, -32]!
	.cfi_def_cfa_offset 32
	.cfi_offset 29, -32
	.cfi_offset 30, -24
	adrp	x1, :got:_ZTVN7openpal5ArrayIN8opendnp34CellINS1_10AnalogSpecEEEtEE
	mov	x29, sp
	ldr	x1, [x1, #:got_lo12:_ZTVN7openpal5ArrayIN8opendnp34CellINS1_10AnalogSpecEEEtEE]
	str	x19, [sp, 16]
	.cfi_offset 19, -16
	mov	x19, x0
	ldr	x0, [x0, 16]
	add	x1, x1, 16
	str	x1, [x19]
	cbz	x0, .L101
	bl	_ZdaPv
.L101:
	mov	x0, x19
	mov	x1, 24
	ldr	x19, [sp, 16]
	ldp	x29, x30, [sp], 32
	.cfi_restore 30
	.cfi_restore 29
	.cfi_restore 19
	.cfi_def_cfa_offset 0
	b	_ZdlPvm
	.cfi_endproc
.LFE12046:
	.size	_ZN7openpal5ArrayIN8opendnp34CellINS1_10AnalogSpecEEEtED0Ev, .-_ZN7openpal5ArrayIN8opendnp34CellINS1_10AnalogSpecEEEtED0Ev
	.section	.text._ZN7openpal5ArrayIN8opendnp34CellINS1_19DoubleBitBinarySpecEEEtED2Ev,"axG",@progbits,_ZN7openpal5ArrayIN8opendnp34CellINS1_19DoubleBitBinarySpecEEEtED5Ev,comdat
	.align	2
	.p2align 4,,11
	.weak	_ZN7openpal5ArrayIN8opendnp34CellINS1_19DoubleBitBinarySpecEEEtED2Ev
	.type	_ZN7openpal5ArrayIN8opendnp34CellINS1_19DoubleBitBinarySpecEEEtED2Ev, %function
_ZN7openpal5ArrayIN8opendnp34CellINS1_19DoubleBitBinarySpecEEEtED2Ev:
.LFB12040:
	.cfi_startproc
	adrp	x1, :got:_ZTVN7openpal5ArrayIN8opendnp34CellINS1_19DoubleBitBinarySpecEEEtEE
	mov	x2, x0
	ldr	x0, [x0, 16]
	ldr	x1, [x1, #:got_lo12:_ZTVN7openpal5ArrayIN8opendnp34CellINS1_19DoubleBitBinarySpecEEEtEE]
	add	x1, x1, 16
	str	x1, [x2]
	cbz	x0, .L106
	b	_ZdaPv
	.p2align 2,,3
.L106:
	ret
	.cfi_endproc
.LFE12040:
	.size	_ZN7openpal5ArrayIN8opendnp34CellINS1_19DoubleBitBinarySpecEEEtED2Ev, .-_ZN7openpal5ArrayIN8opendnp34CellINS1_19DoubleBitBinarySpecEEEtED2Ev
	.weak	_ZN7openpal5ArrayIN8opendnp34CellINS1_19DoubleBitBinarySpecEEEtED1Ev
	.set	_ZN7openpal5ArrayIN8opendnp34CellINS1_19DoubleBitBinarySpecEEEtED1Ev,_ZN7openpal5ArrayIN8opendnp34CellINS1_19DoubleBitBinarySpecEEEtED2Ev
	.section	.text._ZN7openpal5ArrayIN8opendnp34CellINS1_19DoubleBitBinarySpecEEEtED0Ev,"axG",@progbits,_ZN7openpal5ArrayIN8opendnp34CellINS1_19DoubleBitBinarySpecEEEtED5Ev,comdat
	.align	2
	.p2align 4,,11
	.weak	_ZN7openpal5ArrayIN8opendnp34CellINS1_19DoubleBitBinarySpecEEEtED0Ev
	.type	_ZN7openpal5ArrayIN8opendnp34CellINS1_19DoubleBitBinarySpecEEEtED0Ev, %function
_ZN7openpal5ArrayIN8opendnp34CellINS1_19DoubleBitBinarySpecEEEtED0Ev:
.LFB12042:
	.cfi_startproc
	stp	x29, x30, [sp, -32]!
	.cfi_def_cfa_offset 32
	.cfi_offset 29, -32
	.cfi_offset 30, -24
	adrp	x1, :got:_ZTVN7openpal5ArrayIN8opendnp34CellINS1_19DoubleBitBinarySpecEEEtEE
	mov	x29, sp
	ldr	x1, [x1, #:got_lo12:_ZTVN7openpal5ArrayIN8opendnp34CellINS1_19DoubleBitBinarySpecEEEtEE]
	str	x19, [sp, 16]
	.cfi_offset 19, -16
	mov	x19, x0
	ldr	x0, [x0, 16]
	add	x1, x1, 16
	str	x1, [x19]
	cbz	x0, .L109
	bl	_ZdaPv
.L109:
	mov	x0, x19
	mov	x1, 24
	ldr	x19, [sp, 16]
	ldp	x29, x30, [sp], 32
	.cfi_restore 30
	.cfi_restore 29
	.cfi_restore 19
	.cfi_def_cfa_offset 0
	b	_ZdlPvm
	.cfi_endproc
.LFE12042:
	.size	_ZN7openpal5ArrayIN8opendnp34CellINS1_19DoubleBitBinarySpecEEEtED0Ev, .-_ZN7openpal5ArrayIN8opendnp34CellINS1_19DoubleBitBinarySpecEEEtED0Ev
	.section	.text._ZN7openpal5ArrayIN8opendnp34CellINS1_10BinarySpecEEEtED2Ev,"axG",@progbits,_ZN7openpal5ArrayIN8opendnp34CellINS1_10BinarySpecEEEtED5Ev,comdat
	.align	2
	.p2align 4,,11
	.weak	_ZN7openpal5ArrayIN8opendnp34CellINS1_10BinarySpecEEEtED2Ev
	.type	_ZN7openpal5ArrayIN8opendnp34CellINS1_10BinarySpecEEEtED2Ev, %function
_ZN7openpal5ArrayIN8opendnp34CellINS1_10BinarySpecEEEtED2Ev:
.LFB12036:
	.cfi_startproc
	adrp	x1, :got:_ZTVN7openpal5ArrayIN8opendnp34CellINS1_10BinarySpecEEEtEE
	mov	x2, x0
	ldr	x0, [x0, 16]
	ldr	x1, [x1, #:got_lo12:_ZTVN7openpal5ArrayIN8opendnp34CellINS1_10BinarySpecEEEtEE]
	add	x1, x1, 16
	str	x1, [x2]
	cbz	x0, .L114
	b	_ZdaPv
	.p2align 2,,3
.L114:
	ret
	.cfi_endproc
.LFE12036:
	.size	_ZN7openpal5ArrayIN8opendnp34CellINS1_10BinarySpecEEEtED2Ev, .-_ZN7openpal5ArrayIN8opendnp34CellINS1_10BinarySpecEEEtED2Ev
	.weak	_ZN7openpal5ArrayIN8opendnp34CellINS1_10BinarySpecEEEtED1Ev
	.set	_ZN7openpal5ArrayIN8opendnp34CellINS1_10BinarySpecEEEtED1Ev,_ZN7openpal5ArrayIN8opendnp34CellINS1_10BinarySpecEEEtED2Ev
	.section	.text._ZN7openpal5ArrayIN8opendnp34CellINS1_10BinarySpecEEEtED0Ev,"axG",@progbits,_ZN7openpal5ArrayIN8opendnp34CellINS1_10BinarySpecEEEtED5Ev,comdat
	.align	2
	.p2align 4,,11
	.weak	_ZN7openpal5ArrayIN8opendnp34CellINS1_10BinarySpecEEEtED0Ev
	.type	_ZN7openpal5ArrayIN8opendnp34CellINS1_10BinarySpecEEEtED0Ev, %function
_ZN7openpal5ArrayIN8opendnp34CellINS1_10BinarySpecEEEtED0Ev:
.LFB12038:
	.cfi_startproc
	stp	x29, x30, [sp, -32]!
	.cfi_def_cfa_offset 32
	.cfi_offset 29, -32
	.cfi_offset 30, -24
	adrp	x1, :got:_ZTVN7openpal5ArrayIN8opendnp34CellINS1_10BinarySpecEEEtEE
	mov	x29, sp
	ldr	x1, [x1, #:got_lo12:_ZTVN7openpal5ArrayIN8opendnp34CellINS1_10BinarySpecEEEtEE]
	str	x19, [sp, 16]
	.cfi_offset 19, -16
	mov	x19, x0
	ldr	x0, [x0, 16]
	add	x1, x1, 16
	str	x1, [x19]
	cbz	x0, .L117
	bl	_ZdaPv
.L117:
	mov	x0, x19
	mov	x1, 24
	ldr	x19, [sp, 16]
	ldp	x29, x30, [sp], 32
	.cfi_restore 30
	.cfi_restore 29
	.cfi_restore 19
	.cfi_def_cfa_offset 0
	b	_ZdlPvm
	.cfi_endproc
.LFE12038:
	.size	_ZN7openpal5ArrayIN8opendnp34CellINS1_10BinarySpecEEEtED0Ev, .-_ZN7openpal5ArrayIN8opendnp34CellINS1_10BinarySpecEEEtED0Ev
	.section	.text._ZN7openpal5ArrayINS_8ListNodeIN8opendnp39SOERecordEEEjED2Ev,"axG",@progbits,_ZN7openpal5ArrayINS_8ListNodeIN8opendnp39SOERecordEEEjED5Ev,comdat
	.align	2
	.p2align 4,,11
	.weak	_ZN7openpal5ArrayINS_8ListNodeIN8opendnp39SOERecordEEEjED2Ev
	.type	_ZN7openpal5ArrayINS_8ListNodeIN8opendnp39SOERecordEEEjED2Ev, %function
_ZN7openpal5ArrayINS_8ListNodeIN8opendnp39SOERecordEEEjED2Ev:
.LFB12032:
	.cfi_startproc
	adrp	x1, :got:_ZTVN7openpal5ArrayINS_8ListNodeIN8opendnp39SOERecordEEEjEE
	mov	x2, x0
	ldr	x0, [x0, 16]
	ldr	x1, [x1, #:got_lo12:_ZTVN7openpal5ArrayINS_8ListNodeIN8opendnp39SOERecordEEEjEE]
	add	x1, x1, 16
	str	x1, [x2]
	cbz	x0, .L122
	b	_ZdaPv
	.p2align 2,,3
.L122:
	ret
	.cfi_endproc
.LFE12032:
	.size	_ZN7openpal5ArrayINS_8ListNodeIN8opendnp39SOERecordEEEjED2Ev, .-_ZN7openpal5ArrayINS_8ListNodeIN8opendnp39SOERecordEEEjED2Ev
	.weak	_ZN7openpal5ArrayINS_8ListNodeIN8opendnp39SOERecordEEEjED1Ev
	.set	_ZN7openpal5ArrayINS_8ListNodeIN8opendnp39SOERecordEEEjED1Ev,_ZN7openpal5ArrayINS_8ListNodeIN8opendnp39SOERecordEEEjED2Ev
	.section	.text._ZN7openpal5ArrayINS_8ListNodeIN8opendnp39SOERecordEEEjED0Ev,"axG",@progbits,_ZN7openpal5ArrayINS_8ListNodeIN8opendnp39SOERecordEEEjED5Ev,comdat
	.align	2
	.p2align 4,,11
	.weak	_ZN7openpal5ArrayINS_8ListNodeIN8opendnp39SOERecordEEEjED0Ev
	.type	_ZN7openpal5ArrayINS_8ListNodeIN8opendnp39SOERecordEEEjED0Ev, %function
_ZN7openpal5ArrayINS_8ListNodeIN8opendnp39SOERecordEEEjED0Ev:
.LFB12034:
	.cfi_startproc
	stp	x29, x30, [sp, -32]!
	.cfi_def_cfa_offset 32
	.cfi_offset 29, -32
	.cfi_offset 30, -24
	adrp	x1, :got:_ZTVN7openpal5ArrayINS_8ListNodeIN8opendnp39SOERecordEEEjEE
	mov	x29, sp
	ldr	x1, [x1, #:got_lo12:_ZTVN7openpal5ArrayINS_8ListNodeIN8opendnp39SOERecordEEEjEE]
	str	x19, [sp, 16]
	.cfi_offset 19, -16
	mov	x19, x0
	ldr	x0, [x0, 16]
	add	x1, x1, 16
	str	x1, [x19]
	cbz	x0, .L125
	bl	_ZdaPv
.L125:
	mov	x0, x19
	mov	x1, 24
	ldr	x19, [sp, 16]
	ldp	x29, x30, [sp], 32
	.cfi_restore 30
	.cfi_restore 29
	.cfi_restore 19
	.cfi_def_cfa_offset 0
	b	_ZdlPvm
	.cfi_endproc
.LFE12034:
	.size	_ZN7openpal5ArrayINS_8ListNodeIN8opendnp39SOERecordEEEjED0Ev, .-_ZN7openpal5ArrayINS_8ListNodeIN8opendnp39SOERecordEEEjED0Ev
	.section	.text._ZNSt13__future_base13_State_baseV29_M_do_setEPSt8functionIFSt10unique_ptrINS_12_Result_baseENS3_8_DeleterEEvEEPb,"axG",@progbits,_ZNSt13__future_base13_State_baseV29_M_do_setEPSt8functionIFSt10unique_ptrINS_12_Result_baseENS3_8_DeleterEEvEEPb,comdat
	.align	2
	.p2align 4,,11
	.weak	_ZNSt13__future_base13_State_baseV29_M_do_setEPSt8functionIFSt10unique_ptrINS_12_Result_baseENS3_8_DeleterEEvEEPb
	.type	_ZNSt13__future_base13_State_baseV29_M_do_setEPSt8functionIFSt10unique_ptrINS_12_Result_baseENS3_8_DeleterEEvEEPb, %function
_ZNSt13__future_base13_State_baseV29_M_do_setEPSt8functionIFSt10unique_ptrINS_12_Result_baseENS3_8_DeleterEEvEEPb:
.LFB6818:
	.cfi_startproc
	.cfi_personality 0x9b,DW.ref.__gxx_personality_v0
	.cfi_lsda 0x1b,.LLSDA6818
	stp	x29, x30, [sp, -48]!
	.cfi_def_cfa_offset 48
	.cfi_offset 29, -48
	.cfi_offset 30, -40
	adrp	x3, :got:__stack_chk_guard
	mov	x29, sp
	ldr	x3, [x3, #:got_lo12:__stack_chk_guard]
	stp	x19, x20, [sp, 16]
	.cfi_offset 19, -32
	.cfi_offset 20, -24
	ldr	x4, [x1, 16]
	ldr	x5, [x3]
	str	x5, [sp, 40]
	mov	x5, 0
	cbz	x4, .L138
	mov	x20, x2
	mov	x19, x0
	ldr	x2, [x1, 24]
	mov	x0, x1
	add	x8, sp, 32
.LEHB0:
	blr	x2
.LEHE0:
	mov	w1, 1
	ldr	x0, [x19, 8]
	strb	w1, [x20]
	ldr	x1, [sp, 32]
	str	x1, [x19, 8]
	str	x0, [sp, 32]
	cbz	x0, .L130
	ldr	x1, [x0]
	ldr	x1, [x1]
	blr	x1
.L130:
	adrp	x0, :got:__stack_chk_guard
	ldr	x0, [x0, #:got_lo12:__stack_chk_guard]
	ldr	x2, [sp, 40]
	ldr	x1, [x0]
	subs	x2, x2, x1
	mov	x1, 0
	bne	.L139
	ldp	x19, x20, [sp, 16]
	ldp	x29, x30, [sp], 48
	.cfi_remember_state
	.cfi_restore 30
	.cfi_restore 29
	.cfi_restore 19
	.cfi_restore 20
	.cfi_def_cfa_offset 0
	ret
.L138:
	.cfi_restore_state
.LEHB1:
	bl	_ZSt25__throw_bad_function_callv
.LEHE1:
.L139:
	bl	__stack_chk_fail
	.cfi_endproc
.LFE6818:
	.section	.gcc_except_table._ZNSt13__future_base13_State_baseV29_M_do_setEPSt8functionIFSt10unique_ptrINS_12_Result_baseENS3_8_DeleterEEvEEPb,"aG",@progbits,_ZNSt13__future_base13_State_baseV29_M_do_setEPSt8functionIFSt10unique_ptrINS_12_Result_baseENS3_8_DeleterEEvEEPb,comdat
.LLSDA6818:
	.byte	0xff
	.byte	0xff
	.byte	0x1
	.uleb128 .LLSDACSE6818-.LLSDACSB6818
.LLSDACSB6818:
	.uleb128 .LEHB0-.LFB6818
	.uleb128 .LEHE0-.LEHB0
	.uleb128 0
	.uleb128 0
	.uleb128 .LEHB1-.LFB6818
	.uleb128 .LEHE1-.LEHB1
	.uleb128 0
	.uleb128 0
.LLSDACSE6818:
	.section	.text._ZNSt13__future_base13_State_baseV29_M_do_setEPSt8functionIFSt10unique_ptrINS_12_Result_baseENS3_8_DeleterEEvEEPb,"axG",@progbits,_ZNSt13__future_base13_State_baseV29_M_do_setEPSt8functionIFSt10unique_ptrINS_12_Result_baseENS3_8_DeleterEEvEEPb,comdat
	.size	_ZNSt13__future_base13_State_baseV29_M_do_setEPSt8functionIFSt10unique_ptrINS_12_Result_baseENS3_8_DeleterEEvEEPb, .-_ZNSt13__future_base13_State_baseV29_M_do_setEPSt8functionIFSt10unique_ptrINS_12_Result_baseENS3_8_DeleterEEvEEPb
	.text
	.align	2
	.p2align 4,,11
	.type	_ZNSt17_Function_handlerIFN8opendnp315StackStatisticsEvEZN8asiodnp315OutstationStack18GetStackStatisticsEvEUlvE_E9_M_invokeERKSt9_Any_data, %function
_ZNSt17_Function_handlerIFN8opendnp315StackStatisticsEvEZN8asiodnp315OutstationStack18GetStackStatisticsEvEUlvE_E9_M_invokeERKSt9_Any_data:
.LFB10223:
	.cfi_startproc
	stp	x29, x30, [sp, -80]!
	.cfi_def_cfa_offset 80
	.cfi_offset 29, -80
	.cfi_offset 30, -72
	adrp	x1, :got:__stack_chk_guard
	mov	x29, sp
	ldr	x0, [x0]
	stp	x21, x22, [sp, 32]
	ldr	x1, [x1, #:got_lo12:__stack_chk_guard]
	stp	x19, x20, [sp, 16]
	.cfi_offset 21, -48
	.cfi_offset 22, -40
	.cfi_offset 19, -64
	.cfi_offset 20, -56
	mov	x20, x8
	ldr	x22, [x0]
	ldr	x2, [x1]
	str	x2, [sp, 72]
	mov	x2, 0
	add	x19, sp, 48
	ldr	x0, [x22, 136]
	bl	_ZNK8opendnp39LinkLayer13GetStatisticsEv
	mov	x21, x0
	ldr	x0, [x22, 120]
	mov	x8, x19
	bl	_ZNK8opendnp314TransportLayer13GetStatisticsEv
	mov	x2, x20
	adrp	x1, :got:__stack_chk_guard
	ldp	x4, x5, [x21]
	stp	x4, x5, [x2], 16
	ldp	x4, x5, [sp, 48]
	stp	x4, x5, [x20, 16]
	ldr	x0, [x1, #:got_lo12:__stack_chk_guard]
	ldr	x1, [sp, 64]
	str	x1, [x2, 16]
	ldr	x2, [sp, 72]
	ldr	x1, [x0]
	subs	x2, x2, x1
	mov	x1, 0
	bne	.L143
	ldp	x19, x20, [sp, 16]
	ldp	x21, x22, [sp, 32]
	ldp	x29, x30, [sp], 80
	.cfi_remember_state
	.cfi_restore 30
	.cfi_restore 29
	.cfi_restore 21
	.cfi_restore 22
	.cfi_restore 19
	.cfi_restore 20
	.cfi_def_cfa_offset 0
	ret
.L143:
	.cfi_restore_state
	bl	__stack_chk_fail
	.cfi_endproc
.LFE10223:
	.size	_ZNSt17_Function_handlerIFN8opendnp315StackStatisticsEvEZN8asiodnp315OutstationStack18GetStackStatisticsEvEUlvE_E9_M_invokeERKSt9_Any_data, .-_ZNSt17_Function_handlerIFN8opendnp315StackStatisticsEvEZN8asiodnp315OutstationStack18GetStackStatisticsEvEUlvE_E9_M_invokeERKSt9_Any_data
	.section	.text._ZN4asio6detail7tss_ptrINS0_10call_stackINS0_15task_io_serviceENS0_27task_io_service_thread_infoEE7contextEED2Ev,"axG",@progbits,_ZN4asio6detail7tss_ptrINS0_10call_stackINS0_15task_io_serviceENS0_27task_io_service_thread_infoEE7contextEED5Ev,comdat
	.align	2
	.p2align 4,,11
	.weak	_ZN4asio6detail7tss_ptrINS0_10call_stackINS0_15task_io_serviceENS0_27task_io_service_thread_infoEE7contextEED2Ev
	.type	_ZN4asio6detail7tss_ptrINS0_10call_stackINS0_15task_io_serviceENS0_27task_io_service_thread_infoEE7contextEED2Ev, %function
_ZN4asio6detail7tss_ptrINS0_10call_stackINS0_15task_io_serviceENS0_27task_io_service_thread_infoEE7contextEED2Ev:
.LFB11915:
	.cfi_startproc
	ldr	w0, [x0]
	b	pthread_key_delete
	.cfi_endproc
.LFE11915:
	.size	_ZN4asio6detail7tss_ptrINS0_10call_stackINS0_15task_io_serviceENS0_27task_io_service_thread_infoEE7contextEED2Ev, .-_ZN4asio6detail7tss_ptrINS0_10call_stackINS0_15task_io_serviceENS0_27task_io_service_thread_infoEE7contextEED2Ev
	.weak	_ZN4asio6detail7tss_ptrINS0_10call_stackINS0_15task_io_serviceENS0_27task_io_service_thread_infoEE7contextEED1Ev
	.set	_ZN4asio6detail7tss_ptrINS0_10call_stackINS0_15task_io_serviceENS0_27task_io_service_thread_infoEE7contextEED1Ev,_ZN4asio6detail7tss_ptrINS0_10call_stackINS0_15task_io_serviceENS0_27task_io_service_thread_infoEE7contextEED2Ev
	.section	.text._ZN4asio6detail7tss_ptrINS0_10call_stackINS0_14strand_service11strand_implEhE7contextEED2Ev,"axG",@progbits,_ZN4asio6detail7tss_ptrINS0_10call_stackINS0_14strand_service11strand_implEhE7contextEED5Ev,comdat
	.align	2
	.p2align 4,,11
	.weak	_ZN4asio6detail7tss_ptrINS0_10call_stackINS0_14strand_service11strand_implEhE7contextEED2Ev
	.type	_ZN4asio6detail7tss_ptrINS0_10call_stackINS0_14strand_service11strand_implEhE7contextEED2Ev, %function
_ZN4asio6detail7tss_ptrINS0_10call_stackINS0_14strand_service11strand_implEhE7contextEED2Ev:
.LFB11924:
	.cfi_startproc
	ldr	w0, [x0]
	b	pthread_key_delete
	.cfi_endproc
.LFE11924:
	.size	_ZN4asio6detail7tss_ptrINS0_10call_stackINS0_14strand_service11strand_implEhE7contextEED2Ev, .-_ZN4asio6detail7tss_ptrINS0_10call_stackINS0_14strand_service11strand_implEhE7contextEED2Ev
	.weak	_ZN4asio6detail7tss_ptrINS0_10call_stackINS0_14strand_service11strand_implEhE7contextEED1Ev
	.set	_ZN4asio6detail7tss_ptrINS0_10call_stackINS0_14strand_service11strand_implEhE7contextEED1Ev,_ZN4asio6detail7tss_ptrINS0_10call_stackINS0_14strand_service11strand_implEhE7contextEED2Ev
	.section	.text._ZN4asio6detail15system_categoryD2Ev,"axG",@progbits,_ZN4asio6detail15system_categoryD5Ev,comdat
	.align	2
	.p2align 4,,11
	.weak	_ZN4asio6detail15system_categoryD2Ev
	.type	_ZN4asio6detail15system_categoryD2Ev, %function
_ZN4asio6detail15system_categoryD2Ev:
.LFB11894:
	.cfi_startproc
	adrp	x1, :got:_ZTVN4asio6detail15system_categoryE
	ldr	x1, [x1, #:got_lo12:_ZTVN4asio6detail15system_categoryE]
	add	x1, x1, 16
	str	x1, [x0]
	b	_ZNSt3_V214error_categoryD2Ev
	.cfi_endproc
.LFE11894:
	.size	_ZN4asio6detail15system_categoryD2Ev, .-_ZN4asio6detail15system_categoryD2Ev
	.weak	_ZN4asio6detail15system_categoryD1Ev
	.set	_ZN4asio6detail15system_categoryD1Ev,_ZN4asio6detail15system_categoryD2Ev
	.section	.text._ZN4asio6detail15system_categoryD0Ev,"axG",@progbits,_ZN4asio6detail15system_categoryD5Ev,comdat
	.align	2
	.p2align 4,,11
	.weak	_ZN4asio6detail15system_categoryD0Ev
	.type	_ZN4asio6detail15system_categoryD0Ev, %function
_ZN4asio6detail15system_categoryD0Ev:
.LFB11896:
	.cfi_startproc
	stp	x29, x30, [sp, -32]!
	.cfi_def_cfa_offset 32
	.cfi_offset 29, -32
	.cfi_offset 30, -24
	adrp	x1, :got:_ZTVN4asio6detail15system_categoryE
	mov	x29, sp
	ldr	x1, [x1, #:got_lo12:_ZTVN4asio6detail15system_categoryE]
	str	x19, [sp, 16]
	.cfi_offset 19, -16
	mov	x19, x0
	add	x1, x1, 16
	str	x1, [x0]
	bl	_ZNSt3_V214error_categoryD2Ev
	mov	x0, x19
	mov	x1, 8
	ldr	x19, [sp, 16]
	ldp	x29, x30, [sp], 32
	.cfi_restore 30
	.cfi_restore 29
	.cfi_restore 19
	.cfi_def_cfa_offset 0
	b	_ZdlPvm
	.cfi_endproc
.LFE11896:
	.size	_ZN4asio6detail15system_categoryD0Ev, .-_ZN4asio6detail15system_categoryD0Ev
	.section	.text._ZN4asio5error6detail14netdb_categoryD2Ev,"axG",@progbits,_ZN4asio5error6detail14netdb_categoryD5Ev,comdat
	.align	2
	.p2align 4,,11
	.weak	_ZN4asio5error6detail14netdb_categoryD2Ev
	.type	_ZN4asio5error6detail14netdb_categoryD2Ev, %function
_ZN4asio5error6detail14netdb_categoryD2Ev:
.LFB11890:
	.cfi_startproc
	adrp	x1, :got:_ZTVN4asio5error6detail14netdb_categoryE
	ldr	x1, [x1, #:got_lo12:_ZTVN4asio5error6detail14netdb_categoryE]
	add	x1, x1, 16
	str	x1, [x0]
	b	_ZNSt3_V214error_categoryD2Ev
	.cfi_endproc
.LFE11890:
	.size	_ZN4asio5error6detail14netdb_categoryD2Ev, .-_ZN4asio5error6detail14netdb_categoryD2Ev
	.weak	_ZN4asio5error6detail14netdb_categoryD1Ev
	.set	_ZN4asio5error6detail14netdb_categoryD1Ev,_ZN4asio5error6detail14netdb_categoryD2Ev
	.section	.text._ZN4asio5error6detail14netdb_categoryD0Ev,"axG",@progbits,_ZN4asio5error6detail14netdb_categoryD5Ev,comdat
	.align	2
	.p2align 4,,11
	.weak	_ZN4asio5error6detail14netdb_categoryD0Ev
	.type	_ZN4asio5error6detail14netdb_categoryD0Ev, %function
_ZN4asio5error6detail14netdb_categoryD0Ev:
.LFB11892:
	.cfi_startproc
	stp	x29, x30, [sp, -32]!
	.cfi_def_cfa_offset 32
	.cfi_offset 29, -32
	.cfi_offset 30, -24
	adrp	x1, :got:_ZTVN4asio5error6detail14netdb_categoryE
	mov	x29, sp
	ldr	x1, [x1, #:got_lo12:_ZTVN4asio5error6detail14netdb_categoryE]
	str	x19, [sp, 16]
	.cfi_offset 19, -16
	mov	x19, x0
	add	x1, x1, 16
	str	x1, [x0]
	bl	_ZNSt3_V214error_categoryD2Ev
	mov	x0, x19
	mov	x1, 8
	ldr	x19, [sp, 16]
	ldp	x29, x30, [sp], 32
	.cfi_restore 30
	.cfi_restore 29
	.cfi_restore 19
	.cfi_def_cfa_offset 0
	b	_ZdlPvm
	.cfi_endproc
.LFE11892:
	.size	_ZN4asio5error6detail14netdb_categoryD0Ev, .-_ZN4asio5error6detail14netdb_categoryD0Ev
	.section	.text._ZN4asio5error6detail17addrinfo_categoryD2Ev,"axG",@progbits,_ZN4asio5error6detail17addrinfo_categoryD5Ev,comdat
	.align	2
	.p2align 4,,11
	.weak	_ZN4asio5error6detail17addrinfo_categoryD2Ev
	.type	_ZN4asio5error6detail17addrinfo_categoryD2Ev, %function
_ZN4asio5error6detail17addrinfo_categoryD2Ev:
.LFB11886:
	.cfi_startproc
	adrp	x1, :got:_ZTVN4asio5error6detail17addrinfo_categoryE
	ldr	x1, [x1, #:got_lo12:_ZTVN4asio5error6detail17addrinfo_categoryE]
	add	x1, x1, 16
	str	x1, [x0]
	b	_ZNSt3_V214error_categoryD2Ev
	.cfi_endproc
.LFE11886:
	.size	_ZN4asio5error6detail17addrinfo_categoryD2Ev, .-_ZN4asio5error6detail17addrinfo_categoryD2Ev
	.weak	_ZN4asio5error6detail17addrinfo_categoryD1Ev
	.set	_ZN4asio5error6detail17addrinfo_categoryD1Ev,_ZN4asio5error6detail17addrinfo_categoryD2Ev
	.section	.text._ZN4asio5error6detail17addrinfo_categoryD0Ev,"axG",@progbits,_ZN4asio5error6detail17addrinfo_categoryD5Ev,comdat
	.align	2
	.p2align 4,,11
	.weak	_ZN4asio5error6detail17addrinfo_categoryD0Ev
	.type	_ZN4asio5error6detail17addrinfo_categoryD0Ev, %function
_ZN4asio5error6detail17addrinfo_categoryD0Ev:
.LFB11888:
	.cfi_startproc
	stp	x29, x30, [sp, -32]!
	.cfi_def_cfa_offset 32
	.cfi_offset 29, -32
	.cfi_offset 30, -24
	adrp	x1, :got:_ZTVN4asio5error6detail17addrinfo_categoryE
	mov	x29, sp
	ldr	x1, [x1, #:got_lo12:_ZTVN4asio5error6detail17addrinfo_categoryE]
	str	x19, [sp, 16]
	.cfi_offset 19, -16
	mov	x19, x0
	add	x1, x1, 16
	str	x1, [x0]
	bl	_ZNSt3_V214error_categoryD2Ev
	mov	x0, x19
	mov	x1, 8
	ldr	x19, [sp, 16]
	ldp	x29, x30, [sp], 32
	.cfi_restore 30
	.cfi_restore 29
	.cfi_restore 19
	.cfi_def_cfa_offset 0
	b	_ZdlPvm
	.cfi_endproc
.LFE11888:
	.size	_ZN4asio5error6detail17addrinfo_categoryD0Ev, .-_ZN4asio5error6detail17addrinfo_categoryD0Ev
	.section	.text._ZN4asio5error6detail13misc_categoryD2Ev,"axG",@progbits,_ZN4asio5error6detail13misc_categoryD5Ev,comdat
	.align	2
	.p2align 4,,11
	.weak	_ZN4asio5error6detail13misc_categoryD2Ev
	.type	_ZN4asio5error6detail13misc_categoryD2Ev, %function
_ZN4asio5error6detail13misc_categoryD2Ev:
.LFB11882:
	.cfi_startproc
	adrp	x1, :got:_ZTVN4asio5error6detail13misc_categoryE
	ldr	x1, [x1, #:got_lo12:_ZTVN4asio5error6detail13misc_categoryE]
	add	x1, x1, 16
	str	x1, [x0]
	b	_ZNSt3_V214error_categoryD2Ev
	.cfi_endproc
.LFE11882:
	.size	_ZN4asio5error6detail13misc_categoryD2Ev, .-_ZN4asio5error6detail13misc_categoryD2Ev
	.weak	_ZN4asio5error6detail13misc_categoryD1Ev
	.set	_ZN4asio5error6detail13misc_categoryD1Ev,_ZN4asio5error6detail13misc_categoryD2Ev
	.section	.text._ZN4asio5error6detail13misc_categoryD0Ev,"axG",@progbits,_ZN4asio5error6detail13misc_categoryD5Ev,comdat
	.align	2
	.p2align 4,,11
	.weak	_ZN4asio5error6detail13misc_categoryD0Ev
	.type	_ZN4asio5error6detail13misc_categoryD0Ev, %function
_ZN4asio5error6detail13misc_categoryD0Ev:
.LFB11884:
	.cfi_startproc
	stp	x29, x30, [sp, -32]!
	.cfi_def_cfa_offset 32
	.cfi_offset 29, -32
	.cfi_offset 30, -24
	adrp	x1, :got:_ZTVN4asio5error6detail13misc_categoryE
	mov	x29, sp
	ldr	x1, [x1, #:got_lo12:_ZTVN4asio5error6detail13misc_categoryE]
	str	x19, [sp, 16]
	.cfi_offset 19, -16
	mov	x19, x0
	add	x1, x1, 16
	str	x1, [x0]
	bl	_ZNSt3_V214error_categoryD2Ev
	mov	x0, x19
	mov	x1, 8
	ldr	x19, [sp, 16]
	ldp	x29, x30, [sp], 32
	.cfi_restore 30
	.cfi_restore 29
	.cfi_restore 19
	.cfi_def_cfa_offset 0
	b	_ZdlPvm
	.cfi_endproc
.LFE11884:
	.size	_ZN4asio5error6detail13misc_categoryD0Ev, .-_ZN4asio5error6detail13misc_categoryD0Ev
	.section	.text._ZNSt17_Function_handlerIFSt10unique_ptrINSt13__future_base12_Result_baseENS2_8_DeleterEEvENS1_13_State_baseV27_SetterIbObEEE10_M_managerERSt9_Any_dataRKSB_St18_Manager_operation,"axG",@progbits,_ZNSt17_Function_handlerIFSt10unique_ptrINSt13__future_base12_Result_baseENS2_8_DeleterEEvENS1_13_State_baseV27_SetterIbObEEE10_M_managerERSt9_Any_dataRKSB_St18_Manager_operation,comdat
	.align	2
	.p2align 4,,11
	.weak	_ZNSt17_Function_handlerIFSt10unique_ptrINSt13__future_base12_Result_baseENS2_8_DeleterEEvENS1_13_State_baseV27_SetterIbObEEE10_M_managerERSt9_Any_dataRKSB_St18_Manager_operation
	.type	_ZNSt17_Function_handlerIFSt10unique_ptrINSt13__future_base12_Result_baseENS2_8_DeleterEEvENS1_13_State_baseV27_SetterIbObEEE10_M_managerERSt9_Any_dataRKSB_St18_Manager_operation, %function
_ZNSt17_Function_handlerIFSt10unique_ptrINSt13__future_base12_Result_baseENS2_8_DeleterEEvENS1_13_State_baseV27_SetterIbObEEE10_M_managerERSt9_Any_dataRKSB_St18_Manager_operation:
.LFB10957:
	.cfi_startproc
	cbz	w2, .L159
	cmp	w2, 1
	beq	.L160
	cmp	w2, 2
	beq	.L164
.L162:
	mov	w0, 0
	ret
	.p2align 2,,3
.L159:
	adrp	x1, :got:_ZTINSt13__future_base13_State_baseV27_SetterIbObEE
	ldr	x1, [x1, #:got_lo12:_ZTINSt13__future_base13_State_baseV27_SetterIbObEE]
	str	x1, [x0]
	mov	w0, 0
	ret
	.p2align 2,,3
.L160:
	str	x1, [x0]
	mov	w0, 0
	ret
	.p2align 2,,3
.L164:
	ldp	x2, x3, [x1]
	stp	x2, x3, [x0]
	b	.L162
	.cfi_endproc
.LFE10957:
	.size	_ZNSt17_Function_handlerIFSt10unique_ptrINSt13__future_base12_Result_baseENS2_8_DeleterEEvENS1_13_State_baseV27_SetterIbObEEE10_M_managerERSt9_Any_dataRKSB_St18_Manager_operation, .-_ZNSt17_Function_handlerIFSt10unique_ptrINSt13__future_base12_Result_baseENS2_8_DeleterEEvENS1_13_State_baseV27_SetterIbObEEE10_M_managerERSt9_Any_dataRKSB_St18_Manager_operation
	.section	.text._ZNSt17_Function_handlerIFSt10unique_ptrINSt13__future_base12_Result_baseENS2_8_DeleterEEvENS1_13_State_baseV27_SetterIN8opendnp315StackStatisticsEOS9_EEE10_M_managerERSt9_Any_dataRKSD_St18_Manager_operation,"axG",@progbits,_ZNSt17_Function_handlerIFSt10unique_ptrINSt13__future_base12_Result_baseENS2_8_DeleterEEvENS1_13_State_baseV27_SetterIN8opendnp315StackStatisticsEOS9_EEE10_M_managerERSt9_Any_dataRKSD_St18_Manager_operation,comdat
	.align	2
	.p2align 4,,11
	.weak	_ZNSt17_Function_handlerIFSt10unique_ptrINSt13__future_base12_Result_baseENS2_8_DeleterEEvENS1_13_State_baseV27_SetterIN8opendnp315StackStatisticsEOS9_EEE10_M_managerERSt9_Any_dataRKSD_St18_Manager_operation
	.type	_ZNSt17_Function_handlerIFSt10unique_ptrINSt13__future_base12_Result_baseENS2_8_DeleterEEvENS1_13_State_baseV27_SetterIN8opendnp315StackStatisticsEOS9_EEE10_M_managerERSt9_Any_dataRKSD_St18_Manager_operation, %function
_ZNSt17_Function_handlerIFSt10unique_ptrINSt13__future_base12_Result_baseENS2_8_DeleterEEvENS1_13_State_baseV27_SetterIN8opendnp315StackStatisticsEOS9_EEE10_M_managerERSt9_Any_dataRKSD_St18_Manager_operation:
.LFB11018:
	.cfi_startproc
	cbz	w2, .L166
	cmp	w2, 1
	beq	.L167
	cmp	w2, 2
	beq	.L171
.L169:
	mov	w0, 0
	ret
	.p2align 2,,3
.L166:
	adrp	x1, :got:_ZTINSt13__future_base13_State_baseV27_SetterIN8opendnp315StackStatisticsEOS3_EE
	ldr	x1, [x1, #:got_lo12:_ZTINSt13__future_base13_State_baseV27_SetterIN8opendnp315StackStatisticsEOS3_EE]
	str	x1, [x0]
	mov	w0, 0
	ret
	.p2align 2,,3
.L167:
	str	x1, [x0]
	mov	w0, 0
	ret
	.p2align 2,,3
.L171:
	ldp	x2, x3, [x1]
	stp	x2, x3, [x0]
	b	.L169
	.cfi_endproc
.LFE11018:
	.size	_ZNSt17_Function_handlerIFSt10unique_ptrINSt13__future_base12_Result_baseENS2_8_DeleterEEvENS1_13_State_baseV27_SetterIN8opendnp315StackStatisticsEOS9_EEE10_M_managerERSt9_Any_dataRKSD_St18_Manager_operation, .-_ZNSt17_Function_handlerIFSt10unique_ptrINSt13__future_base12_Result_baseENS2_8_DeleterEEvENS1_13_State_baseV27_SetterIN8opendnp315StackStatisticsEOS9_EEE10_M_managerERSt9_Any_dataRKSD_St18_Manager_operation
	.section	.text._ZNSt13__future_base7_ResultIbE10_M_destroyEv,"axG",@progbits,_ZNSt13__future_base7_ResultIbE10_M_destroyEv,comdat
	.align	2
	.p2align 4,,11
	.weak	_ZNSt13__future_base7_ResultIbE10_M_destroyEv
	.type	_ZNSt13__future_base7_ResultIbE10_M_destroyEv, %function
_ZNSt13__future_base7_ResultIbE10_M_destroyEv:
.LFB12025:
	.cfi_startproc
	ldr	x2, [x0]
	adrp	x1, :got:_ZNSt13__future_base7_ResultIbED0Ev
	ldr	x1, [x1, #:got_lo12:_ZNSt13__future_base7_ResultIbED0Ev]
	ldr	x2, [x2, 16]
	cmp	x2, x1
	bne	.L173
	stp	x29, x30, [sp, -32]!
	.cfi_def_cfa_offset 32
	.cfi_offset 29, -32
	.cfi_offset 30, -24
	adrp	x1, :got:_ZTVNSt13__future_base7_ResultIbEE
	mov	x29, sp
	ldr	x1, [x1, #:got_lo12:_ZTVNSt13__future_base7_ResultIbEE]
	str	x19, [sp, 16]
	.cfi_offset 19, -16
	mov	x19, x0
	add	x1, x1, 16
	str	x1, [x0]
	bl	_ZNSt13__future_base12_Result_baseD2Ev
	mov	x0, x19
	mov	x1, 24
	ldr	x19, [sp, 16]
	ldp	x29, x30, [sp], 32
	.cfi_restore 30
	.cfi_restore 29
	.cfi_restore 19
	.cfi_def_cfa_offset 0
	b	_ZdlPvm
	.p2align 2,,3
.L173:
	mov	x16, x2
	br	x16
	.cfi_endproc
.LFE12025:
	.size	_ZNSt13__future_base7_ResultIbE10_M_destroyEv, .-_ZNSt13__future_base7_ResultIbE10_M_destroyEv
	.section	.text._ZNSt13__future_base7_ResultIN8opendnp315StackStatisticsEE10_M_destroyEv,"axG",@progbits,_ZNSt13__future_base7_ResultIN8opendnp315StackStatisticsEE10_M_destroyEv,comdat
	.align	2
	.p2align 4,,11
	.weak	_ZNSt13__future_base7_ResultIN8opendnp315StackStatisticsEE10_M_destroyEv
	.type	_ZNSt13__future_base7_ResultIN8opendnp315StackStatisticsEE10_M_destroyEv, %function
_ZNSt13__future_base7_ResultIN8opendnp315StackStatisticsEE10_M_destroyEv:
.LFB12020:
	.cfi_startproc
	ldr	x2, [x0]
	adrp	x1, :got:_ZNSt13__future_base7_ResultIN8opendnp315StackStatisticsEED0Ev
	ldr	x1, [x1, #:got_lo12:_ZNSt13__future_base7_ResultIN8opendnp315StackStatisticsEED0Ev]
	ldr	x2, [x2, 16]
	cmp	x2, x1
	bne	.L178
	stp	x29, x30, [sp, -32]!
	.cfi_def_cfa_offset 32
	.cfi_offset 29, -32
	.cfi_offset 30, -24
	adrp	x1, :got:_ZTVNSt13__future_base7_ResultIN8opendnp315StackStatisticsEEE
	mov	x29, sp
	ldr	x1, [x1, #:got_lo12:_ZTVNSt13__future_base7_ResultIN8opendnp315StackStatisticsEEE]
	str	x19, [sp, 16]
	.cfi_offset 19, -16
	mov	x19, x0
	add	x1, x1, 16
	str	x1, [x0]
	bl	_ZNSt13__future_base12_Result_baseD2Ev
	mov	x0, x19
	mov	x1, 64
	ldr	x19, [sp, 16]
	ldp	x29, x30, [sp], 32
	.cfi_restore 30
	.cfi_restore 29
	.cfi_restore 19
	.cfi_def_cfa_offset 0
	b	_ZdlPvm
	.p2align 2,,3
.L178:
	mov	x16, x2
	br	x16
	.cfi_endproc
.LFE12020:
	.size	_ZNSt13__future_base7_ResultIN8opendnp315StackStatisticsEE10_M_destroyEv, .-_ZNSt13__future_base7_ResultIN8opendnp315StackStatisticsEE10_M_destroyEv
	.global	__aarch64_swp4_sync
	.global	__aarch64_swp4_rel
	.section	.text._ZN4asio6detail18completion_handlerIZN7asiopal8Executor10ReturnFromIbEET_RKSt8functionIFS5_vEEEUlvE_E11do_completeEPNS0_15task_io_serviceEPNS0_25task_io_service_operationERKSt10error_codem,"axG",@progbits,_ZN4asio6detail18completion_handlerIZN7asiopal8Executor10ReturnFromIbEET_RKSt8functionIFS5_vEEEUlvE_E11do_completeEPNS0_15task_io_serviceEPNS0_25task_io_service_operationERKSt10error_codem,comdat
	.align	2
	.p2align 4,,11
	.weak	_ZN4asio6detail18completion_handlerIZN7asiopal8Executor10ReturnFromIbEET_RKSt8functionIFS5_vEEEUlvE_E11do_completeEPNS0_15task_io_serviceEPNS0_25task_io_service_operationERKSt10error_codem
	.type	_ZN4asio6detail18completion_handlerIZN7asiopal8Executor10ReturnFromIbEET_RKSt8functionIFS5_vEEEUlvE_E11do_completeEPNS0_15task_io_serviceEPNS0_25task_io_service_operationERKSt10error_codem, %function
_ZN4asio6detail18completion_handlerIZN7asiopal8Executor10ReturnFromIbEET_RKSt8functionIFS5_vEEEUlvE_E11do_completeEPNS0_15task_io_serviceEPNS0_25task_io_service_operationERKSt10error_codem:
.LFB11225:
	.cfi_startproc
	.cfi_personality 0x9b,DW.ref.__gxx_personality_v0
	.cfi_lsda 0x1b,.LLSDA11225
	stp	x29, x30, [sp, -192]!
	.cfi_def_cfa_offset 192
	.cfi_offset 29, -192
	.cfi_offset 30, -184
	adrp	x3, :got:_ZN4asio6detail10call_stackINS0_15task_io_serviceENS0_27task_io_service_thread_infoEE4top_E
	adrp	x2, :got:__stack_chk_guard
	mov	x29, sp
	ldr	x3, [x3, #:got_lo12:_ZN4asio6detail10call_stackINS0_15task_io_serviceENS0_27task_io_service_thread_infoEE4top_E]
	stp	x19, x20, [sp, 16]
	.cfi_offset 19, -176
	.cfi_offset 20, -168
	mov	x20, x0
	ldr	x2, [x2, #:got_lo12:__stack_chk_guard]
	stp	x21, x22, [sp, 32]
	ldr	w0, [x3]
	mov	x19, x1
	ldr	x1, [x2]
	str	x1, [sp, 184]
	mov	x1, 0
	.cfi_offset 21, -160
	.cfi_offset 22, -152
	ldp	x22, x21, [x19, 24]
	bl	pthread_getspecific
	cbz	x0, .L183
	ldr	x0, [x0, 8]
	cbz	x0, .L183
	ldr	x1, [x0]
	cbz	x1, .L217
.L183:
	mov	x0, x19
	bl	_ZdlPv
.L184:
	cbz	x20, .L182
	str	x23, [sp, 48]
	.cfi_offset 23, -144
	add	x23, sp, 72
	mov	x1, x23
	mov	w0, 1
	str	wzr, [sp, 72]
	bl	__aarch64_swp4_sync
	ldr	x0, [x21, 16]
	cbz	x0, .L218
	ldr	x1, [x21, 24]
	mov	x0, x21
.LEHB2:
	blr	x1
.LEHE2:
	ldr	x19, [x22]
	strb	w0, [sp, 70]
	cbz	x19, .L219
	adrp	x0, :tlsdesc:_ZSt15__once_callable
	ldr	x5, [x0, #:tlsdesc_lo12:_ZSt15__once_callable]
	add	x0, x0, :tlsdesc_lo12:_ZSt15__once_callable
	.tlsdesccall	_ZSt15__once_callable
	blr	x5
	mrs	x20, tpidr_el0
	add	x5, sp, 120
	adrp	x6, :got:_ZNSt13__future_base13_State_baseV29_M_do_setEPSt8functionIFSt10unique_ptrINS_12_Result_baseENS3_8_DeleterEEvEEPb
	adrp	x1, :got:__once_proxy
	adrp	x2, :got:_ZZNSt9once_flag18_Prepare_executionC4IZSt9call_onceIMNSt13__future_base13_State_baseV2EFvPSt8functionIFSt10unique_ptrINS3_12_Result_baseENS7_8_DeleterEEvEEPbEJPS4_SC_SD_EEvRS_OT_DpOT0_EUlvE_EERSI_ENUlvE_4_FUNEv
	adrp	x3, :got:_ZNSt17_Function_handlerIFSt10unique_ptrINSt13__future_base12_Result_baseENS2_8_DeleterEEvENS1_13_State_baseV27_SetterIbObEEE9_M_invokeERKSt9_Any_data
	adrp	x4, :got:_ZNSt17_Function_handlerIFSt10unique_ptrINSt13__future_base12_Result_baseENS2_8_DeleterEEvENS1_13_State_baseV27_SetterIbObEEE10_M_managerERSt9_Any_dataRKSB_St18_Manager_operation
	ldr	x10, [x6, #:got_lo12:_ZNSt13__future_base13_State_baseV29_M_do_setEPSt8functionIFSt10unique_ptrINS_12_Result_baseENS3_8_DeleterEEvEEPb]
	str	x5, [x20, x0]
	ldr	x2, [x2, #:got_lo12:_ZZNSt9once_flag18_Prepare_executionC4IZSt9call_onceIMNSt13__future_base13_State_baseV2EFvPSt8functionIFSt10unique_ptrINS3_12_Result_baseENS7_8_DeleterEEvEEPbEJPS4_SC_SD_EEvRS_OT_DpOT0_EUlvE_EERSI_ENUlvE_4_FUNEv]
	adrp	x0, :tlsdesc:_ZSt11__once_call
	ldr	x5, [x0, #:tlsdesc_lo12:_ZSt11__once_call]
	add	x0, x0, :tlsdesc_lo12:_ZSt11__once_call
	.tlsdesccall	_ZSt11__once_call
	blr	x5
	ldr	x3, [x3, #:got_lo12:_ZNSt17_Function_handlerIFSt10unique_ptrINSt13__future_base12_Result_baseENS2_8_DeleterEEvENS1_13_State_baseV27_SetterIbObEEE9_M_invokeERKSt9_Any_data]
	add	x5, sp, 70
	ldr	x4, [x4, #:got_lo12:_ZNSt17_Function_handlerIFSt10unique_ptrINSt13__future_base12_Result_baseENS2_8_DeleterEEvENS1_13_State_baseV27_SetterIbObEEE10_M_managerERSt9_Any_dataRKSB_St18_Manager_operation]
	add	x11, sp, 71
	ldr	x1, [x1, #:got_lo12:__once_proxy]
	add	x9, sp, 104
	add	x8, sp, 96
	add	x7, sp, 88
	add	x6, sp, 80
	add	x21, sp, 152
	str	x2, [x20, x0]
	add	x0, x19, 24
	strb	wzr, [sp, 71]
	stp	x11, x21, [sp, 80]
	stp	x19, x10, [sp, 96]
	stp	xzr, x9, [sp, 112]
	stp	x8, x7, [sp, 128]
	stp	x6, x22, [sp, 144]
	stp	x5, x4, [sp, 160]
	str	x3, [sp, 176]
.LEHB3:
	bl	pthread_once
.LEHE3:
	cbnz	w0, .L220
	ldrb	w1, [sp, 71]
	adrp	x0, :tlsdesc:_ZSt15__once_callable
	ldr	x2, [x0, #:tlsdesc_lo12:_ZSt15__once_callable]
	add	x0, x0, :tlsdesc_lo12:_ZSt15__once_callable
	.tlsdesccall	_ZSt15__once_callable
	blr	x2
	str	xzr, [x20, x0]
	adrp	x0, :tlsdesc:_ZSt11__once_call
	ldr	x2, [x0, #:tlsdesc_lo12:_ZSt11__once_call]
	add	x0, x0, :tlsdesc_lo12:_ZSt11__once_call
	.tlsdesccall	_ZSt11__once_call
	blr	x2
	str	xzr, [x20, x0]
	cbnz	w1, .L221
	mov	w0, 2
.LEHB4:
	bl	_ZSt20__throw_future_errori
.LEHE4:
	.p2align 2,,3
.L221:
	add	x19, x19, 16
	mov	w0, 1
	mov	x1, x19
	bl	__aarch64_swp4_rel
	tbnz	w0, #31, .L193
.L196:
	ldr	x3, [sp, 168]
	cbz	x3, .L195
	mov	x1, x21
	mov	x0, x21
	mov	w2, 3
	blr	x3
.L195:
	stlr	wzr, [x23]
	ldr	x23, [sp, 48]
	.cfi_restore 23
.L182:
	adrp	x0, :got:__stack_chk_guard
	ldr	x0, [x0, #:got_lo12:__stack_chk_guard]
	ldr	x2, [sp, 184]
	ldr	x1, [x0]
	subs	x2, x2, x1
	mov	x1, 0
	bne	.L222
	ldp	x19, x20, [sp, 16]
	ldp	x21, x22, [sp, 32]
	ldp	x29, x30, [sp], 192
	.cfi_restore 30
	.cfi_restore 29
	.cfi_restore 21
	.cfi_restore 22
	.cfi_restore 19
	.cfi_restore 20
	.cfi_def_cfa_offset 0
	ret
	.p2align 2,,3
.L193:
	.cfi_def_cfa_offset 192
	.cfi_offset 19, -176
	.cfi_offset 20, -168
	.cfi_offset 21, -160
	.cfi_offset 22, -152
	.cfi_offset 23, -144
	.cfi_offset 29, -192
	.cfi_offset 30, -184
	mov	x0, x19
.LEHB5:
	bl	_ZNSt28__atomic_futex_unsigned_base19_M_futex_notify_allEPj
.LEHE5:
	b	.L196
	.p2align 2,,3
.L217:
	.cfi_restore 23
	ldrb	w1, [x19, 40]
	strb	w1, [x19]
	str	x19, [x0]
	b	.L184
.L218:
	.cfi_offset 23, -144
.LEHB6:
	bl	_ZSt25__throw_bad_function_callv
.LEHE6:
.L220:
.LEHB7:
	bl	_ZSt20__throw_system_errori
.LEHE7:
.L219:
	mov	w0, 3
.LEHB8:
	bl	_ZSt20__throw_future_errori
.LEHE8:
.L222:
	.cfi_restore 23
	str	x23, [sp, 48]
	.cfi_offset 23, -144
	bl	__stack_chk_fail
.L201:
	mov	x19, x0
.L192:
	ldr	x3, [sp, 168]
	cbz	x3, .L197
	mov	x1, x21
	mov	x0, x21
	mov	w2, 3
	blr	x3
.L197:
	mov	x0, x19
.L198:
	stlr	wzr, [x23]
.LEHB9:
	bl	_Unwind_Resume
.LEHE9:
.L202:
	mov	x19, x0
	adrp	x0, :tlsdesc:_ZSt15__once_callable
	ldr	x1, [x0, #:tlsdesc_lo12:_ZSt15__once_callable]
	add	x0, x0, :tlsdesc_lo12:_ZSt15__once_callable
	.tlsdesccall	_ZSt15__once_callable
	blr	x1
	str	xzr, [x20, x0]
	adrp	x0, :tlsdesc:_ZSt11__once_call
	ldr	x1, [x0, #:tlsdesc_lo12:_ZSt11__once_call]
	add	x0, x0, :tlsdesc_lo12:_ZSt11__once_call
	.tlsdesccall	_ZSt11__once_call
	blr	x1
	str	xzr, [x20, x0]
	b	.L192
.L200:
	b	.L198
	.cfi_endproc
.LFE11225:
	.section	.gcc_except_table._ZN4asio6detail18completion_handlerIZN7asiopal8Executor10ReturnFromIbEET_RKSt8functionIFS5_vEEEUlvE_E11do_completeEPNS0_15task_io_serviceEPNS0_25task_io_service_operationERKSt10error_codem,"aG",@progbits,_ZN4asio6detail18completion_handlerIZN7asiopal8Executor10ReturnFromIbEET_RKSt8functionIFS5_vEEEUlvE_E11do_completeEPNS0_15task_io_serviceEPNS0_25task_io_service_operationERKSt10error_codem,comdat
.LLSDA11225:
	.byte	0xff
	.byte	0xff
	.byte	0x1
	.uleb128 .LLSDACSE11225-.LLSDACSB11225
.LLSDACSB11225:
	.uleb128 .LEHB2-.LFB11225
	.uleb128 .LEHE2-.LEHB2
	.uleb128 .L200-.LFB11225
	.uleb128 0
	.uleb128 .LEHB3-.LFB11225
	.uleb128 .LEHE3-.LEHB3
	.uleb128 .L202-.LFB11225
	.uleb128 0
	.uleb128 .LEHB4-.LFB11225
	.uleb128 .LEHE4-.LEHB4
	.uleb128 .L201-.LFB11225
	.uleb128 0
	.uleb128 .LEHB5-.LFB11225
	.uleb128 .LEHE5-.LEHB5
	.uleb128 .L201-.LFB11225
	.uleb128 0
	.uleb128 .LEHB6-.LFB11225
	.uleb128 .LEHE6-.LEHB6
	.uleb128 .L200-.LFB11225
	.uleb128 0
	.uleb128 .LEHB7-.LFB11225
	.uleb128 .LEHE7-.LEHB7
	.uleb128 .L202-.LFB11225
	.uleb128 0
	.uleb128 .LEHB8-.LFB11225
	.uleb128 .LEHE8-.LEHB8
	.uleb128 .L200-.LFB11225
	.uleb128 0
	.uleb128 .LEHB9-.LFB11225
	.uleb128 .LEHE9-.LEHB9
	.uleb128 0
	.uleb128 0
.LLSDACSE11225:
	.section	.text._ZN4asio6detail18completion_handlerIZN7asiopal8Executor10ReturnFromIbEET_RKSt8functionIFS5_vEEEUlvE_E11do_completeEPNS0_15task_io_serviceEPNS0_25task_io_service_operationERKSt10error_codem,"axG",@progbits,_ZN4asio6detail18completion_handlerIZN7asiopal8Executor10ReturnFromIbEET_RKSt8functionIFS5_vEEEUlvE_E11do_completeEPNS0_15task_io_serviceEPNS0_25task_io_service_operationERKSt10error_codem,comdat
	.size	_ZN4asio6detail18completion_handlerIZN7asiopal8Executor10ReturnFromIbEET_RKSt8functionIFS5_vEEEUlvE_E11do_completeEPNS0_15task_io_serviceEPNS0_25task_io_service_operationERKSt10error_codem, .-_ZN4asio6detail18completion_handlerIZN7asiopal8Executor10ReturnFromIbEET_RKSt8functionIFS5_vEEEUlvE_E11do_completeEPNS0_15task_io_serviceEPNS0_25task_io_service_operationERKSt10error_codem
	.section	.text._ZN4asio6detail18completion_handlerIZN7asiopal8Executor10ReturnFromIN8opendnp315StackStatisticsEEET_RKSt8functionIFS7_vEEEUlvE_E11do_completeEPNS0_15task_io_serviceEPNS0_25task_io_service_operationERKSt10error_codem,"axG",@progbits,_ZN4asio6detail18completion_handlerIZN7asiopal8Executor10ReturnFromIN8opendnp315StackStatisticsEEET_RKSt8functionIFS7_vEEEUlvE_E11do_completeEPNS0_15task_io_serviceEPNS0_25task_io_service_operationERKSt10error_codem,comdat
	.align	2
	.p2align 4,,11
	.weak	_ZN4asio6detail18completion_handlerIZN7asiopal8Executor10ReturnFromIN8opendnp315StackStatisticsEEET_RKSt8functionIFS7_vEEEUlvE_E11do_completeEPNS0_15task_io_serviceEPNS0_25task_io_service_operationERKSt10error_codem
	.type	_ZN4asio6detail18completion_handlerIZN7asiopal8Executor10ReturnFromIN8opendnp315StackStatisticsEEET_RKSt8functionIFS7_vEEEUlvE_E11do_completeEPNS0_15task_io_serviceEPNS0_25task_io_service_operationERKSt10error_codem, %function
_ZN4asio6detail18completion_handlerIZN7asiopal8Executor10ReturnFromIN8opendnp315StackStatisticsEEET_RKSt8functionIFS7_vEEEUlvE_E11do_completeEPNS0_15task_io_serviceEPNS0_25task_io_service_operationERKSt10error_codem:
.LFB11266:
	.cfi_startproc
	.cfi_personality 0x9b,DW.ref.__gxx_personality_v0
	.cfi_lsda 0x1b,.LLSDA11266
	stp	x29, x30, [sp, -240]!
	.cfi_def_cfa_offset 240
	.cfi_offset 29, -240
	.cfi_offset 30, -232
	adrp	x3, :got:_ZN4asio6detail10call_stackINS0_15task_io_serviceENS0_27task_io_service_thread_infoEE4top_E
	adrp	x2, :got:__stack_chk_guard
	mov	x29, sp
	ldr	x3, [x3, #:got_lo12:_ZN4asio6detail10call_stackINS0_15task_io_serviceENS0_27task_io_service_thread_infoEE4top_E]
	stp	x19, x20, [sp, 16]
	.cfi_offset 19, -224
	.cfi_offset 20, -216
	mov	x20, x0
	ldr	x2, [x2, #:got_lo12:__stack_chk_guard]
	stp	x21, x22, [sp, 32]
	ldr	w0, [x3]
	stp	x23, x24, [sp, 48]
	.cfi_offset 21, -208
	.cfi_offset 22, -200
	.cfi_offset 23, -192
	.cfi_offset 24, -184
	mov	x19, x1
	ldr	x1, [x2]
	str	x1, [sp, 232]
	mov	x1, 0
	ldp	x21, x24, [x19, 24]
	bl	pthread_getspecific
	cbz	x0, .L224
	ldr	x0, [x0, 8]
	cbz	x0, .L224
	ldr	x1, [x0]
	cbz	x1, .L258
.L224:
	mov	x0, x19
	bl	_ZdlPv
.L225:
	cbz	x20, .L223
	add	x22, sp, 80
	mov	w0, 1
	mov	x1, x22
	str	wzr, [sp, 80]
	bl	__aarch64_swp4_sync
	ldr	x0, [x24, 16]
	cbz	x0, .L259
	ldr	x1, [x24, 24]
	add	x23, sp, 160
	mov	x8, x23
	mov	x0, x24
.LEHB10:
	blr	x1
.LEHE10:
	ldr	x19, [x21]
	cbz	x19, .L260
	adrp	x0, :tlsdesc:_ZSt15__once_callable
	ldr	x6, [x0, #:tlsdesc_lo12:_ZSt15__once_callable]
	add	x0, x0, :tlsdesc_lo12:_ZSt15__once_callable
	.tlsdesccall	_ZSt15__once_callable
	blr	x6
	mrs	x20, tpidr_el0
	add	x6, sp, 128
	adrp	x5, :got:_ZNSt13__future_base13_State_baseV29_M_do_setEPSt8functionIFSt10unique_ptrINS_12_Result_baseENS3_8_DeleterEEvEEPb
	adrp	x1, :got:__once_proxy
	adrp	x2, :got:_ZZNSt9once_flag18_Prepare_executionC4IZSt9call_onceIMNSt13__future_base13_State_baseV2EFvPSt8functionIFSt10unique_ptrINS3_12_Result_baseENS7_8_DeleterEEvEEPbEJPS4_SC_SD_EEvRS_OT_DpOT0_EUlvE_EERSI_ENUlvE_4_FUNEv
	adrp	x3, :got:_ZNSt17_Function_handlerIFSt10unique_ptrINSt13__future_base12_Result_baseENS2_8_DeleterEEvENS1_13_State_baseV27_SetterIN8opendnp315StackStatisticsEOS9_EEE9_M_invokeERKSt9_Any_data
	adrp	x4, :got:_ZNSt17_Function_handlerIFSt10unique_ptrINSt13__future_base12_Result_baseENS2_8_DeleterEEvENS1_13_State_baseV27_SetterIN8opendnp315StackStatisticsEOS9_EEE10_M_managerERSt9_Any_dataRKSD_St18_Manager_operation
	ldr	x9, [x5, #:got_lo12:_ZNSt13__future_base13_State_baseV29_M_do_setEPSt8functionIFSt10unique_ptrINS_12_Result_baseENS3_8_DeleterEEvEEPb]
	str	x6, [x20, x0]
	ldr	x2, [x2, #:got_lo12:_ZZNSt9once_flag18_Prepare_executionC4IZSt9call_onceIMNSt13__future_base13_State_baseV2EFvPSt8functionIFSt10unique_ptrINS3_12_Result_baseENS7_8_DeleterEEvEEPbEJPS4_SC_SD_EEvRS_OT_DpOT0_EUlvE_EERSI_ENUlvE_4_FUNEv]
	adrp	x0, :tlsdesc:_ZSt11__once_call
	ldr	x6, [x0, #:tlsdesc_lo12:_ZSt11__once_call]
	add	x0, x0, :tlsdesc_lo12:_ZSt11__once_call
	.tlsdesccall	_ZSt11__once_call
	blr	x6
	ldr	x3, [x3, #:got_lo12:_ZNSt17_Function_handlerIFSt10unique_ptrINSt13__future_base12_Result_baseENS2_8_DeleterEEvENS1_13_State_baseV27_SetterIN8opendnp315StackStatisticsEOS9_EEE9_M_invokeERKSt9_Any_data]
	add	x10, sp, 79
	ldr	x4, [x4, #:got_lo12:_ZNSt17_Function_handlerIFSt10unique_ptrINSt13__future_base12_Result_baseENS2_8_DeleterEEvENS1_13_State_baseV27_SetterIN8opendnp315StackStatisticsEOS9_EEE10_M_managerERSt9_Any_dataRKSD_St18_Manager_operation]
	add	x8, sp, 112
	ldr	x1, [x1, #:got_lo12:__once_proxy]
	add	x7, sp, 104
	add	x6, sp, 96
	add	x5, sp, 88
	add	x24, sp, 200
	str	x2, [x20, x0]
	add	x0, x19, 24
	strb	wzr, [sp, 79]
	stp	x10, x24, [sp, 88]
	stp	x19, x9, [sp, 104]
	stp	xzr, x8, [sp, 120]
	stp	x7, x6, [sp, 136]
	str	x5, [sp, 152]
	stp	x21, x23, [sp, 200]
	stp	x4, x3, [sp, 216]
.LEHB11:
	bl	pthread_once
.LEHE11:
	cbnz	w0, .L261
	ldrb	w1, [sp, 79]
	adrp	x0, :tlsdesc:_ZSt15__once_callable
	ldr	x2, [x0, #:tlsdesc_lo12:_ZSt15__once_callable]
	add	x0, x0, :tlsdesc_lo12:_ZSt15__once_callable
	.tlsdesccall	_ZSt15__once_callable
	blr	x2
	str	xzr, [x20, x0]
	adrp	x0, :tlsdesc:_ZSt11__once_call
	ldr	x2, [x0, #:tlsdesc_lo12:_ZSt11__once_call]
	add	x0, x0, :tlsdesc_lo12:_ZSt11__once_call
	.tlsdesccall	_ZSt11__once_call
	blr	x2
	str	xzr, [x20, x0]
	cbnz	w1, .L262
	mov	w0, 2
.LEHB12:
	bl	_ZSt20__throw_future_errori
.LEHE12:
	.p2align 2,,3
.L262:
	add	x19, x19, 16
	mov	w0, 1
	mov	x1, x19
	bl	__aarch64_swp4_rel
	tbnz	w0, #31, .L234
.L237:
	ldr	x3, [sp, 216]
	cbz	x3, .L236
	mov	x1, x24
	mov	x0, x24
	mov	w2, 3
	blr	x3
.L236:
	stlr	wzr, [x22]
.L223:
	adrp	x0, :got:__stack_chk_guard
	ldr	x0, [x0, #:got_lo12:__stack_chk_guard]
	ldr	x2, [sp, 232]
	ldr	x1, [x0]
	subs	x2, x2, x1
	mov	x1, 0
	bne	.L263
	ldp	x19, x20, [sp, 16]
	ldp	x21, x22, [sp, 32]
	ldp	x23, x24, [sp, 48]
	ldp	x29, x30, [sp], 240
	.cfi_remember_state
	.cfi_restore 30
	.cfi_restore 29
	.cfi_restore 23
	.cfi_restore 24
	.cfi_restore 21
	.cfi_restore 22
	.cfi_restore 19
	.cfi_restore 20
	.cfi_def_cfa_offset 0
	ret
	.p2align 2,,3
.L234:
	.cfi_restore_state
	mov	x0, x19
.LEHB13:
	bl	_ZNSt28__atomic_futex_unsigned_base19_M_futex_notify_allEPj
.LEHE13:
	b	.L237
	.p2align 2,,3
.L258:
	ldrb	w1, [x19, 40]
	strb	w1, [x19]
	str	x19, [x0]
	b	.L225
.L259:
.LEHB14:
	bl	_ZSt25__throw_bad_function_callv
.LEHE14:
.L261:
.LEHB15:
	bl	_ZSt20__throw_system_errori
.LEHE15:
.L260:
	mov	w0, 3
.LEHB16:
	bl	_ZSt20__throw_future_errori
.LEHE16:
.L263:
	bl	__stack_chk_fail
.L242:
	mov	x19, x0
.L233:
	ldr	x3, [sp, 216]
	cbz	x3, .L238
	mov	x1, x24
	mov	x0, x24
	mov	w2, 3
	blr	x3
.L238:
	mov	x0, x19
.L239:
	stlr	wzr, [x22]
.LEHB17:
	bl	_Unwind_Resume
.LEHE17:
.L243:
	mov	x19, x0
	adrp	x0, :tlsdesc:_ZSt15__once_callable
	ldr	x1, [x0, #:tlsdesc_lo12:_ZSt15__once_callable]
	add	x0, x0, :tlsdesc_lo12:_ZSt15__once_callable
	.tlsdesccall	_ZSt15__once_callable
	blr	x1
	str	xzr, [x20, x0]
	adrp	x0, :tlsdesc:_ZSt11__once_call
	ldr	x1, [x0, #:tlsdesc_lo12:_ZSt11__once_call]
	add	x0, x0, :tlsdesc_lo12:_ZSt11__once_call
	.tlsdesccall	_ZSt11__once_call
	blr	x1
	str	xzr, [x20, x0]
	b	.L233
.L241:
	b	.L239
	.cfi_endproc
.LFE11266:
	.section	.gcc_except_table._ZN4asio6detail18completion_handlerIZN7asiopal8Executor10ReturnFromIN8opendnp315StackStatisticsEEET_RKSt8functionIFS7_vEEEUlvE_E11do_completeEPNS0_15task_io_serviceEPNS0_25task_io_service_operationERKSt10error_codem,"aG",@progbits,_ZN4asio6detail18completion_handlerIZN7asiopal8Executor10ReturnFromIN8opendnp315StackStatisticsEEET_RKSt8functionIFS7_vEEEUlvE_E11do_completeEPNS0_15task_io_serviceEPNS0_25task_io_service_operationERKSt10error_codem,comdat
.LLSDA11266:
	.byte	0xff
	.byte	0xff
	.byte	0x1
	.uleb128 .LLSDACSE11266-.LLSDACSB11266
.LLSDACSB11266:
	.uleb128 .LEHB10-.LFB11266
	.uleb128 .LEHE10-.LEHB10
	.uleb128 .L241-.LFB11266
	.uleb128 0
	.uleb128 .LEHB11-.LFB11266
	.uleb128 .LEHE11-.LEHB11
	.uleb128 .L243-.LFB11266
	.uleb128 0
	.uleb128 .LEHB12-.LFB11266
	.uleb128 .LEHE12-.LEHB12
	.uleb128 .L242-.LFB11266
	.uleb128 0
	.uleb128 .LEHB13-.LFB11266
	.uleb128 .LEHE13-.LEHB13
	.uleb128 .L242-.LFB11266
	.uleb128 0
	.uleb128 .LEHB14-.LFB11266
	.uleb128 .LEHE14-.LEHB14
	.uleb128 .L241-.LFB11266
	.uleb128 0
	.uleb128 .LEHB15-.LFB11266
	.uleb128 .LEHE15-.LEHB15
	.uleb128 .L243-.LFB11266
	.uleb128 0
	.uleb128 .LEHB16-.LFB11266
	.uleb128 .LEHE16-.LEHB16
	.uleb128 .L241-.LFB11266
	.uleb128 0
	.uleb128 .LEHB17-.LFB11266
	.uleb128 .LEHE17-.LEHB17
	.uleb128 0
	.uleb128 0
.LLSDACSE11266:
	.section	.text._ZN4asio6detail18completion_handlerIZN7asiopal8Executor10ReturnFromIN8opendnp315StackStatisticsEEET_RKSt8functionIFS7_vEEEUlvE_E11do_completeEPNS0_15task_io_serviceEPNS0_25task_io_service_operationERKSt10error_codem,"axG",@progbits,_ZN4asio6detail18completion_handlerIZN7asiopal8Executor10ReturnFromIN8opendnp315StackStatisticsEEET_RKSt8functionIFS7_vEEEUlvE_E11do_completeEPNS0_15task_io_serviceEPNS0_25task_io_service_operationERKSt10error_codem,comdat
	.size	_ZN4asio6detail18completion_handlerIZN7asiopal8Executor10ReturnFromIN8opendnp315StackStatisticsEEET_RKSt8functionIFS7_vEEEUlvE_E11do_completeEPNS0_15task_io_serviceEPNS0_25task_io_service_operationERKSt10error_codem, .-_ZN4asio6detail18completion_handlerIZN7asiopal8Executor10ReturnFromIN8opendnp315StackStatisticsEEET_RKSt8functionIFS7_vEEEUlvE_E11do_completeEPNS0_15task_io_serviceEPNS0_25task_io_service_operationERKSt10error_codem
	.section	.rodata._ZNK4asio6detail15system_category7messageB5cxx11Ei.str1.8,"aMS",@progbits,1
	.align	3
.LC4:
	.string	"Operation aborted."
	.align	3
.LC5:
	.string	"basic_string::_M_construct null not valid"
	.section	.text._ZNK4asio6detail15system_category7messageB5cxx11Ei,"axG",@progbits,_ZNK4asio6detail15system_category7messageB5cxx11Ei,comdat
	.align	2
	.p2align 4,,11
	.weak	_ZNK4asio6detail15system_category7messageB5cxx11Ei
	.type	_ZNK4asio6detail15system_category7messageB5cxx11Ei, %function
_ZNK4asio6detail15system_category7messageB5cxx11Ei:
.LFB2664:
	.cfi_startproc
	stp	x29, x30, [sp, -320]!
	.cfi_def_cfa_offset 320
	.cfi_offset 29, -320
	.cfi_offset 30, -312
	adrp	x0, :got:__stack_chk_guard
	mov	x29, sp
	ldr	x2, [x0, #:got_lo12:__stack_chk_guard]
	stp	x19, x20, [sp, 16]
	mov	w0, w1
	stp	x21, x22, [sp, 32]
	.cfi_offset 19, -304
	.cfi_offset 20, -296
	.cfi_offset 21, -288
	.cfi_offset 22, -280
	mov	x19, x8
	add	x21, x8, 16
	ldr	x1, [x2]
	str	x1, [sp, 312]
	mov	x1, 0
	cmp	w0, 125
	beq	.L279
	movi	v0.4s, 0
	add	x3, sp, 72
	add	x1, sp, 56
	mov	x2, 256
	stp	xzr, xzr, [sp, 56]
	stp	q0, q0, [x3]
	stp	q0, q0, [x3, 32]
	stp	q0, q0, [x3, 64]
	stp	q0, q0, [x3, 96]
	stp	q0, q0, [x3, 128]
	stp	q0, q0, [x3, 160]
	stp	q0, q0, [x3, 192]
	str	q0, [x3, 224]
	bl	strerror_r
	mov	x22, x0
	str	x21, [x19]
	cbz	x0, .L267
	bl	strlen
	str	x0, [sp, 48]
	mov	x20, x0
	cmp	x0, 15
	bhi	.L280
	cmp	x0, 1
	bne	.L271
	ldrb	w0, [x22]
	strb	w0, [x19, 16]
.L272:
	str	x20, [x19, 8]
	strb	wzr, [x21, x20]
.L264:
	adrp	x0, :got:__stack_chk_guard
	ldr	x0, [x0, #:got_lo12:__stack_chk_guard]
	ldr	x2, [sp, 312]
	ldr	x1, [x0]
	subs	x2, x2, x1
	mov	x1, 0
	bne	.L281
	mov	x0, x19
	ldp	x19, x20, [sp, 16]
	ldp	x21, x22, [sp, 32]
	ldp	x29, x30, [sp], 320
	.cfi_remember_state
	.cfi_restore 30
	.cfi_restore 29
	.cfi_restore 21
	.cfi_restore 22
	.cfi_restore 19
	.cfi_restore 20
	.cfi_def_cfa_offset 0
	ret
	.p2align 2,,3
.L280:
	.cfi_restore_state
	add	x1, sp, 48
	mov	x0, x19
	mov	x2, 0
	bl	_ZNSt7__cxx1112basic_stringIcSt11char_traitsIcESaIcEE9_M_createERmm
	mov	x21, x0
	str	x0, [x19]
	ldr	x1, [sp, 48]
	str	x1, [x19, 16]
.L270:
	mov	x2, x20
	mov	x0, x21
	mov	x1, x22
	bl	memcpy
	ldr	x21, [x19]
	ldr	x20, [sp, 48]
	b	.L272
	.p2align 2,,3
.L279:
	mov	x3, 18
	str	x21, [x8]
	add	x1, sp, 48
	mov	x2, 0
	mov	x0, x8
	str	x3, [sp, 48]
	bl	_ZNSt7__cxx1112basic_stringIcSt11char_traitsIcESaIcEE9_M_createERmm
	str	x0, [x19]
	adrp	x1, .LC4
	add	x1, x1, :lo12:.LC4
	ldr	x2, [sp, 48]
	str	x2, [x19, 16]
	ldp	x2, x3, [x1]
	stp	x2, x3, [x0]
	ldrh	w1, [x1, 16]
	strh	w1, [x0, 16]
	ldr	x1, [x19]
	ldr	x0, [sp, 48]
	str	x0, [x19, 8]
	strb	wzr, [x1, x0]
	b	.L264
	.p2align 2,,3
.L271:
	cbz	x0, .L272
	b	.L270
.L267:
	adrp	x0, .LC5
	add	x0, x0, :lo12:.LC5
	bl	_ZSt19__throw_logic_errorPKc
.L281:
	bl	__stack_chk_fail
	.cfi_endproc
.LFE2664:
	.size	_ZNK4asio6detail15system_category7messageB5cxx11Ei, .-_ZNK4asio6detail15system_category7messageB5cxx11Ei
	.section	.rodata._ZNK4asio5error6detail17addrinfo_category7messageB5cxx11Ei.str1.8,"aMS",@progbits,1
	.align	3
.LC6:
	.string	"Service not found"
	.align	3
.LC7:
	.string	"Socket type not supported"
	.align	3
.LC8:
	.string	"asio.addrinfo error"
	.section	.text._ZNK4asio5error6detail17addrinfo_category7messageB5cxx11Ei,"axG",@progbits,_ZNK4asio5error6detail17addrinfo_category7messageB5cxx11Ei,comdat
	.align	2
	.p2align 4,,11
	.weak	_ZNK4asio5error6detail17addrinfo_category7messageB5cxx11Ei
	.type	_ZNK4asio5error6detail17addrinfo_category7messageB5cxx11Ei, %function
_ZNK4asio5error6detail17addrinfo_category7messageB5cxx11Ei:
.LFB2691:
	.cfi_startproc
	stp	x29, x30, [sp, -48]!
	.cfi_def_cfa_offset 48
	.cfi_offset 29, -48
	.cfi_offset 30, -40
	adrp	x0, :got:__stack_chk_guard
	add	x2, x8, 16
	mov	x29, sp
	ldr	x0, [x0, #:got_lo12:__stack_chk_guard]
	str	x19, [sp, 16]
	.cfi_offset 19, -32
	mov	x19, x8
	ldr	x3, [x0]
	str	x3, [sp, 40]
	mov	x3, 0
	str	x2, [x8]
	cmn	w1, #8
	beq	.L288
	cmn	w1, #7
	beq	.L289
	mov	x3, 19
	add	x1, sp, 32
	mov	x2, 0
	mov	x0, x8
	str	x3, [sp, 32]
	bl	_ZNSt7__cxx1112basic_stringIcSt11char_traitsIcESaIcEE9_M_createERmm
	adrp	x1, .LC8
	add	x1, x1, :lo12:.LC8
	ldr	x2, [sp, 32]
	str	x0, [x19]
	str	x2, [x19, 16]
	ldp	x2, x3, [x1]
	stp	x2, x3, [x0]
	ldr	w1, [x1, 15]
	str	w1, [x0, 15]
	ldr	x1, [x19]
	ldr	x0, [sp, 32]
	str	x0, [x19, 8]
	strb	wzr, [x1, x0]
.L282:
	adrp	x0, :got:__stack_chk_guard
	ldr	x0, [x0, #:got_lo12:__stack_chk_guard]
	ldr	x2, [sp, 40]
	ldr	x1, [x0]
	subs	x2, x2, x1
	mov	x1, 0
	bne	.L290
	mov	x0, x19
	ldr	x19, [sp, 16]
	ldp	x29, x30, [sp], 48
	.cfi_remember_state
	.cfi_restore 30
	.cfi_restore 29
	.cfi_restore 19
	.cfi_def_cfa_offset 0
	ret
	.p2align 2,,3
.L289:
	.cfi_restore_state
	mov	x3, 25
	add	x1, sp, 32
	mov	x2, 0
	mov	x0, x8
	str	x3, [sp, 32]
	bl	_ZNSt7__cxx1112basic_stringIcSt11char_traitsIcESaIcEE9_M_createERmm
	adrp	x1, .LC7
	add	x1, x1, :lo12:.LC7
	ldr	x2, [sp, 32]
	str	x0, [x19]
	ldr	q1, [x1]
	str	x2, [x19, 16]
	ldr	q0, [x1, 9]
	str	q1, [x0]
	str	q0, [x0, 9]
	ldr	x1, [x19]
	ldr	x0, [sp, 32]
	str	x0, [x19, 8]
	strb	wzr, [x1, x0]
	b	.L282
	.p2align 2,,3
.L288:
	mov	x3, 17
	add	x1, sp, 32
	mov	x2, 0
	mov	x0, x8
	str	x3, [sp, 32]
	bl	_ZNSt7__cxx1112basic_stringIcSt11char_traitsIcESaIcEE9_M_createERmm
	adrp	x1, .LC6
	add	x1, x1, :lo12:.LC6
	ldr	x2, [sp, 32]
	str	x0, [x19]
	str	x2, [x19, 16]
	ldp	x2, x3, [x1]
	stp	x2, x3, [x0]
	ldrb	w1, [x1, 16]
	strb	w1, [x0, 16]
	ldr	x1, [x19]
	ldr	x0, [sp, 32]
	str	x0, [x19, 8]
	strb	wzr, [x1, x0]
	b	.L282
.L290:
	bl	__stack_chk_fail
	.cfi_endproc
.LFE2691:
	.size	_ZNK4asio5error6detail17addrinfo_category7messageB5cxx11Ei, .-_ZNK4asio5error6detail17addrinfo_category7messageB5cxx11Ei
	.section	.rodata._ZNK4asio5error6detail14netdb_category7messageB5cxx11Ei.str1.8,"aMS",@progbits,1
	.align	3
.LC9:
	.string	"Host not found (authoritative)"
	.align	3
.LC10:
	.string	"Host not found (non-authoritative), try again later"
	.align	3
.LC11:
	.string	"The query is valid, but it does not have associated data"
	.align	3
.LC12:
	.string	"A non-recoverable error occurred during database lookup"
	.align	3
.LC13:
	.string	"asio.netdb error"
	.section	.text._ZNK4asio5error6detail14netdb_category7messageB5cxx11Ei,"axG",@progbits,_ZNK4asio5error6detail14netdb_category7messageB5cxx11Ei,comdat
	.align	2
	.p2align 4,,11
	.weak	_ZNK4asio5error6detail14netdb_category7messageB5cxx11Ei
	.type	_ZNK4asio5error6detail14netdb_category7messageB5cxx11Ei, %function
_ZNK4asio5error6detail14netdb_category7messageB5cxx11Ei:
.LFB2685:
	.cfi_startproc
	stp	x29, x30, [sp, -48]!
	.cfi_def_cfa_offset 48
	.cfi_offset 29, -48
	.cfi_offset 30, -40
	adrp	x0, :got:__stack_chk_guard
	add	x2, x8, 16
	mov	x29, sp
	ldr	x0, [x0, #:got_lo12:__stack_chk_guard]
	str	x19, [sp, 16]
	.cfi_offset 19, -32
	mov	x19, x8
	ldr	x3, [x0]
	str	x3, [sp, 40]
	mov	x3, 0
	str	x2, [x8]
	cmp	w1, 1
	beq	.L300
	cmp	w1, 2
	beq	.L301
	cmp	w1, 4
	beq	.L302
	cmp	w1, 3
	beq	.L303
	mov	x3, 16
	add	x1, sp, 32
	mov	x2, 0
	mov	x0, x8
	str	x3, [sp, 32]
	bl	_ZNSt7__cxx1112basic_stringIcSt11char_traitsIcESaIcEE9_M_createERmm
	adrp	x1, .LC13
	add	x1, x1, :lo12:.LC13
	ldr	x2, [sp, 32]
	str	x0, [x19]
	str	x2, [x19, 16]
	ldp	x2, x3, [x1]
	stp	x2, x3, [x0]
	ldr	x1, [x19]
	ldr	x0, [sp, 32]
	str	x0, [x19, 8]
	strb	wzr, [x1, x0]
.L291:
	adrp	x0, :got:__stack_chk_guard
	ldr	x0, [x0, #:got_lo12:__stack_chk_guard]
	ldr	x2, [sp, 40]
	ldr	x1, [x0]
	subs	x2, x2, x1
	mov	x1, 0
	bne	.L304
	mov	x0, x19
	ldr	x19, [sp, 16]
	ldp	x29, x30, [sp], 48
	.cfi_remember_state
	.cfi_restore 30
	.cfi_restore 29
	.cfi_restore 19
	.cfi_def_cfa_offset 0
	ret
	.p2align 2,,3
.L300:
	.cfi_restore_state
	mov	x3, 30
	add	x1, sp, 32
	mov	x2, 0
	mov	x0, x8
	str	x3, [sp, 32]
	bl	_ZNSt7__cxx1112basic_stringIcSt11char_traitsIcESaIcEE9_M_createERmm
	adrp	x1, .LC9
	add	x1, x1, :lo12:.LC9
	ldr	x2, [sp, 32]
	str	x0, [x19]
	ldr	q1, [x1]
	str	x2, [x19, 16]
	ldr	q0, [x1, 14]
	str	q1, [x0]
	str	q0, [x0, 14]
	ldr	x1, [x19]
	ldr	x0, [sp, 32]
	str	x0, [x19, 8]
	strb	wzr, [x1, x0]
	b	.L291
	.p2align 2,,3
.L303:
	mov	x3, 55
	add	x1, sp, 32
	mov	x2, 0
	mov	x0, x8
	str	x3, [sp, 32]
	bl	_ZNSt7__cxx1112basic_stringIcSt11char_traitsIcESaIcEE9_M_createERmm
	adrp	x1, .LC12
	add	x1, x1, :lo12:.LC12
	ldr	x2, [sp, 32]
	str	x0, [x19]
	ldr	q2, [x1, 32]
	str	x2, [x19, 16]
	ldp	q0, q1, [x1]
	str	q2, [x0, 32]
	ldr	x1, [x1, 47]
	str	x1, [x0, 47]
.L299:
	stp	q0, q1, [x0]
	ldr	x1, [x19]
	ldr	x0, [sp, 32]
	str	x0, [x19, 8]
	strb	wzr, [x1, x0]
	b	.L291
	.p2align 2,,3
.L301:
	mov	x3, 51
	add	x1, sp, 32
	mov	x2, 0
	mov	x0, x8
	str	x3, [sp, 32]
	bl	_ZNSt7__cxx1112basic_stringIcSt11char_traitsIcESaIcEE9_M_createERmm
	adrp	x1, .LC10
	add	x1, x1, :lo12:.LC10
	ldr	x2, [sp, 32]
	str	x0, [x19]
	ldr	q2, [x1, 32]
	str	x2, [x19, 16]
	ldp	q0, q1, [x1]
	ldr	w1, [x1, 47]
	str	q2, [x0, 32]
	str	w1, [x0, 47]
	b	.L299
	.p2align 2,,3
.L302:
	mov	x3, 56
	add	x1, sp, 32
	mov	x2, 0
	mov	x0, x8
	str	x3, [sp, 32]
	bl	_ZNSt7__cxx1112basic_stringIcSt11char_traitsIcESaIcEE9_M_createERmm
	adrp	x1, .LC11
	add	x1, x1, :lo12:.LC11
	ldr	x2, [sp, 32]
	str	x0, [x19]
	ldp	q1, q2, [x1]
	str	x2, [x19, 16]
	ldr	q0, [x1, 32]
	ldr	x1, [x1, 48]
	str	x1, [x0, 48]
	stp	q1, q2, [x0]
	str	q0, [x0, 32]
	ldr	x1, [x19]
	ldr	x0, [sp, 32]
	str	x0, [x19, 8]
	strb	wzr, [x1, x0]
	b	.L291
.L304:
	bl	__stack_chk_fail
	.cfi_endproc
.LFE2685:
	.size	_ZNK4asio5error6detail14netdb_category7messageB5cxx11Ei, .-_ZNK4asio5error6detail14netdb_category7messageB5cxx11Ei
	.section	.rodata._ZNK4asio5error6detail13misc_category7messageB5cxx11Ei.str1.8,"aMS",@progbits,1
	.align	3
.LC14:
	.string	"Already open"
	.align	3
.LC15:
	.string	"End of file"
	.align	3
.LC16:
	.string	"Element not found"
	.align	3
.LC17:
	.string	"The descriptor does not fit into the select call's fd_set"
	.align	3
.LC18:
	.string	"asio.misc error"
	.section	.text._ZNK4asio5error6detail13misc_category7messageB5cxx11Ei,"axG",@progbits,_ZNK4asio5error6detail13misc_category7messageB5cxx11Ei,comdat
	.align	2
	.p2align 4,,11
	.weak	_ZNK4asio5error6detail13misc_category7messageB5cxx11Ei
	.type	_ZNK4asio5error6detail13misc_category7messageB5cxx11Ei, %function
_ZNK4asio5error6detail13misc_category7messageB5cxx11Ei:
.LFB2697:
	.cfi_startproc
	stp	x29, x30, [sp, -48]!
	.cfi_def_cfa_offset 48
	.cfi_offset 29, -48
	.cfi_offset 30, -40
	adrp	x0, :got:__stack_chk_guard
	add	x2, x8, 16
	mov	x29, sp
	ldr	x0, [x0, #:got_lo12:__stack_chk_guard]
	str	x19, [sp, 16]
	.cfi_offset 19, -32
	mov	x19, x8
	ldr	x3, [x0]
	str	x3, [sp, 40]
	mov	x3, 0
	cmp	w1, 1
	beq	.L313
	cmp	w1, 2
	beq	.L314
	cmp	w1, 3
	beq	.L315
	cmp	w1, 4
	beq	.L316
	adrp	x0, .LC18
	add	x0, x0, :lo12:.LC18
	str	x2, [x8]
	mov	x1, 15
	ldr	x3, [x0]
	str	x3, [x8, 16]
	ldr	x0, [x0, 7]
	str	x0, [x2, 7]
	str	x1, [x8, 8]
	strb	wzr, [x8, 31]
.L305:
	adrp	x0, :got:__stack_chk_guard
	ldr	x0, [x0, #:got_lo12:__stack_chk_guard]
	ldr	x2, [sp, 40]
	ldr	x1, [x0]
	subs	x2, x2, x1
	mov	x1, 0
	bne	.L317
	mov	x0, x19
	ldr	x19, [sp, 16]
	ldp	x29, x30, [sp], 48
	.cfi_remember_state
	.cfi_restore 30
	.cfi_restore 29
	.cfi_restore 19
	.cfi_def_cfa_offset 0
	ret
	.p2align 2,,3
.L313:
	.cfi_restore_state
	adrp	x0, .LC14
	add	x0, x0, :lo12:.LC14
	str	x2, [x8]
	mov	x1, 12
	ldr	x3, [x0]
	str	x3, [x8, 16]
	ldr	w0, [x0, 8]
	str	w0, [x2, 8]
	str	x1, [x8, 8]
	strb	wzr, [x8, 28]
	b	.L305
	.p2align 2,,3
.L316:
	mov	x3, 57
	str	x2, [x8]
	add	x1, sp, 32
	mov	x2, 0
	mov	x0, x8
	str	x3, [sp, 32]
	bl	_ZNSt7__cxx1112basic_stringIcSt11char_traitsIcESaIcEE9_M_createERmm
	str	x0, [x19]
	adrp	x1, .LC17
	add	x1, x1, :lo12:.LC17
	ldr	x2, [sp, 32]
	str	x2, [x19, 16]
	ldr	q3, [x1, 32]
	ldp	q1, q2, [x1]
	ldr	q0, [x1, 41]
	str	q3, [x0, 32]
	stp	q1, q2, [x0]
	str	q0, [x0, 41]
	ldr	x1, [x19]
	ldr	x0, [sp, 32]
	str	x0, [x19, 8]
	strb	wzr, [x1, x0]
	b	.L305
	.p2align 2,,3
.L314:
	adrp	x0, .LC15
	add	x0, x0, :lo12:.LC15
	str	x2, [x8]
	mov	x1, 11
	ldr	x3, [x0]
	str	x3, [x8, 16]
	ldr	w0, [x0, 7]
	str	w0, [x2, 7]
	str	x1, [x8, 8]
	strb	wzr, [x8, 27]
	b	.L305
	.p2align 2,,3
.L315:
	mov	x3, 17
	str	x2, [x8]
	add	x1, sp, 32
	mov	x2, 0
	mov	x0, x8
	str	x3, [sp, 32]
	bl	_ZNSt7__cxx1112basic_stringIcSt11char_traitsIcESaIcEE9_M_createERmm
	str	x0, [x19]
	adrp	x1, .LC16
	add	x1, x1, :lo12:.LC16
	ldr	x2, [sp, 32]
	str	x2, [x19, 16]
	ldp	x2, x3, [x1]
	stp	x2, x3, [x0]
	ldrb	w1, [x1, 16]
	strb	w1, [x0, 16]
	ldr	x1, [x19]
	ldr	x0, [sp, 32]
	str	x0, [x19, 8]
	strb	wzr, [x1, x0]
	b	.L305
.L317:
	bl	__stack_chk_fail
	.cfi_endproc
.LFE2697:
	.size	_ZNK4asio5error6detail13misc_category7messageB5cxx11Ei, .-_ZNK4asio5error6detail13misc_category7messageB5cxx11Ei
	.global	__aarch64_ldadd4_acq_rel
	.section	.text.unlikely,"ax",@progbits
	.align	2
	.type	_ZZN8asiodnp315OutstationStack5ApplyERKNS_7UpdatesEENUlvE_D2Ev, %function
_ZZN8asiodnp315OutstationStack5ApplyERKNS_7UpdatesEENUlvE_D2Ev:
.LFB8472:
	.cfi_startproc
	stp	x29, x30, [sp, -48]!
	.cfi_def_cfa_offset 48
	.cfi_offset 29, -48
	.cfi_offset 30, -40
	mov	x29, sp
	stp	x19, x20, [sp, 16]
	.cfi_offset 19, -32
	.cfi_offset 20, -24
	mov	x20, x0
	ldr	x19, [x0, 24]
	str	x21, [sp, 32]
	.cfi_offset 21, -16
	cbz	x19, .L320
	adrp	x0, :got:__libc_single_threaded
	mov	x21, x0
	ldr	x0, [x0, #:got_lo12:__libc_single_threaded]
	ldrb	w0, [x0]
	cbz	w0, .L321
	ldr	w0, [x19, 8]
	sub	w1, w0, #1
	str	w1, [x19, 8]
	b	.L322
.L321:
	add	x1, x19, 8
	mov	w0, -1
	bl	__aarch64_ldadd4_acq_rel
.L322:
	cmp	w0, 1
	bne	.L320
	ldr	x1, [x19]
	mov	x0, x19
	ldr	x1, [x1, 16]
	blr	x1
	ldr	x21, [x21, #:got_lo12:__libc_single_threaded]
	ldrb	w0, [x21]
	cbz	w0, .L324
	ldr	w0, [x19, 12]
	sub	w1, w0, #1
	str	w1, [x19, 12]
	b	.L325
.L324:
	add	x1, x19, 12
	mov	w0, -1
	bl	__aarch64_ldadd4_acq_rel
.L325:
	cmp	w0, 1
	bne	.L320
	ldr	x1, [x19]
	mov	x0, x19
	ldr	x1, [x1, 24]
	blr	x1
.L320:
	ldr	x19, [x20, 8]
	cbz	x19, .L318
	adrp	x0, :got:__libc_single_threaded
	mov	x20, x0
	ldr	x0, [x0, #:got_lo12:__libc_single_threaded]
	ldrb	w0, [x0]
	cbz	w0, .L328
	ldr	w0, [x19, 8]
	sub	w1, w0, #1
	str	w1, [x19, 8]
	b	.L329
.L328:
	add	x1, x19, 8
	mov	w0, -1
	bl	__aarch64_ldadd4_acq_rel
.L329:
	cmp	w0, 1
	bne	.L318
	ldr	x1, [x19]
	mov	x0, x19
	ldr	x1, [x1, 16]
	blr	x1
	ldr	x20, [x20, #:got_lo12:__libc_single_threaded]
	ldrb	w0, [x20]
	cbz	w0, .L331
	ldr	w0, [x19, 12]
	sub	w1, w0, #1
	str	w1, [x19, 12]
	b	.L332
.L331:
	add	x1, x19, 12
	mov	w0, -1
	bl	__aarch64_ldadd4_acq_rel
.L332:
	cmp	w0, 1
	bne	.L318
	ldr	x1, [x19]
	mov	x0, x19
	ldp	x19, x20, [sp, 16]
	ldr	x21, [sp, 32]
	ldp	x29, x30, [sp], 48
	.cfi_remember_state
	.cfi_restore 30
	.cfi_restore 29
	.cfi_restore 21
	.cfi_restore 19
	.cfi_restore 20
	.cfi_def_cfa_offset 0
	ldr	x1, [x1, 24]
	mov	x16, x1
	br	x16
.L318:
	.cfi_restore_state
	ldp	x19, x20, [sp, 16]
	ldr	x21, [sp, 32]
	ldp	x29, x30, [sp], 48
	.cfi_restore 30
	.cfi_restore 29
	.cfi_restore 21
	.cfi_restore 19
	.cfi_restore 20
	.cfi_def_cfa_offset 0
	ret
	.cfi_endproc
.LFE8472:
	.size	_ZZN8asiodnp315OutstationStack5ApplyERKNS_7UpdatesEENUlvE_D2Ev, .-_ZZN8asiodnp315OutstationStack5ApplyERKNS_7UpdatesEENUlvE_D2Ev
	.set	_ZZN8asiodnp315OutstationStack5ApplyERKNS_7UpdatesEENUlvE_D1Ev,_ZZN8asiodnp315OutstationStack5ApplyERKNS_7UpdatesEENUlvE_D2Ev
	.text
	.align	2
	.p2align 4,,11
	.type	_ZN4asio6detail18completion_handlerIZN8asiodnp315OutstationStack13SetLogFiltersERKN7openpal10LogFiltersEEUlvE_E11do_completeEPNS0_15task_io_serviceEPNS0_25task_io_service_operationERKSt10error_codem, %function
_ZN4asio6detail18completion_handlerIZN8asiodnp315OutstationStack13SetLogFiltersERKN7openpal10LogFiltersEEUlvE_E11do_completeEPNS0_15task_io_serviceEPNS0_25task_io_service_operationERKSt10error_codem:
.LFB11037:
	.cfi_startproc
	stp	x29, x30, [sp, -96]!
	.cfi_def_cfa_offset 96
	.cfi_offset 29, -96
	.cfi_offset 30, -88
	adrp	x3, :got:_ZN4asio6detail10call_stackINS0_15task_io_serviceENS0_27task_io_service_thread_infoEE4top_E
	adrp	x2, :got:__stack_chk_guard
	mov	x29, sp
	ldr	x3, [x3, #:got_lo12:_ZN4asio6detail10call_stackINS0_15task_io_serviceENS0_27task_io_service_thread_infoEE4top_E]
	stp	x19, x20, [sp, 16]
	.cfi_offset 19, -80
	.cfi_offset 20, -72
	mov	x19, x1
	ldr	x2, [x2, #:got_lo12:__stack_chk_guard]
	stp	x21, x22, [sp, 32]
	.cfi_offset 21, -64
	.cfi_offset 22, -56
	ldr	w1, [x1, 40]
	mov	x20, x0
	ldr	w0, [x3]
	ldr	x3, [x2]
	str	x3, [sp, 88]
	mov	x3, 0
	str	w1, [sp, 80]
	ldp	x22, x21, [x19, 24]
	bl	pthread_getspecific
	cbz	x0, .L335
	ldr	x0, [x0, 8]
	cbz	x0, .L335
	ldr	x1, [x0]
	cbz	x1, .L358
.L335:
	mov	x0, x19
	bl	_ZdlPv
.L336:
	cbz	x20, .L337
	add	x19, sp, 56
	mov	w0, 1
	mov	x1, x19
	str	wzr, [sp, 56]
	bl	__aarch64_swp4_sync
	ldr	x0, [x22, 56]
	ldr	w1, [sp, 80]
	str	w1, [x0, 32]
	stlr	wzr, [x19]
.L337:
	cbz	x21, .L334
	adrp	x19, :got:__libc_single_threaded
	ldr	x0, [x19, #:got_lo12:__libc_single_threaded]
	ldrb	w0, [x0]
	cbz	w0, .L340
	ldr	w0, [x21, 8]
	sub	w1, w0, #1
	str	w1, [x21, 8]
.L341:
	cmp	w0, 1
	beq	.L359
.L334:
	adrp	x0, :got:__stack_chk_guard
	ldr	x0, [x0, #:got_lo12:__stack_chk_guard]
	ldr	x2, [sp, 88]
	ldr	x1, [x0]
	subs	x2, x2, x1
	mov	x1, 0
	bne	.L357
	ldp	x19, x20, [sp, 16]
	ldp	x21, x22, [sp, 32]
	ldp	x29, x30, [sp], 96
	.cfi_remember_state
	.cfi_restore 30
	.cfi_restore 29
	.cfi_restore 21
	.cfi_restore 22
	.cfi_restore 19
	.cfi_restore 20
	.cfi_def_cfa_offset 0
	ret
	.p2align 2,,3
.L359:
	.cfi_restore_state
	ldr	x1, [x21]
	mov	x0, x21
	ldr	x1, [x1, 16]
	blr	x1
	ldr	x19, [x19, #:got_lo12:__libc_single_threaded]
	ldrb	w0, [x19]
	cbz	w0, .L343
	ldr	w0, [x21, 12]
	sub	w1, w0, #1
	str	w1, [x21, 12]
.L344:
	cmp	w0, 1
	bne	.L334
	adrp	x0, :got:__stack_chk_guard
	ldr	x0, [x0, #:got_lo12:__stack_chk_guard]
	ldr	x2, [sp, 88]
	ldr	x1, [x0]
	subs	x2, x2, x1
	mov	x1, 0
	bne	.L357
	ldr	x1, [x21]
	mov	x0, x21
	ldp	x19, x20, [sp, 16]
	ldr	x1, [x1, 24]
	ldp	x21, x22, [sp, 32]
	mov	x16, x1
	ldp	x29, x30, [sp], 96
	.cfi_remember_state
	.cfi_restore 30
	.cfi_restore 29
	.cfi_restore 21
	.cfi_restore 22
	.cfi_restore 19
	.cfi_restore 20
	.cfi_def_cfa_offset 0
	br	x16
	.p2align 2,,3
.L340:
	.cfi_restore_state
	add	x1, x21, 8
	mov	w0, -1
	bl	__aarch64_ldadd4_acq_rel
	b	.L341
	.p2align 2,,3
.L358:
	ldrb	w1, [x19, 48]
	strb	w1, [x19]
	str	x19, [x0]
	b	.L336
	.p2align 2,,3
.L343:
	add	x1, x21, 12
	mov	w0, -1
	bl	__aarch64_ldadd4_acq_rel
	b	.L344
.L357:
	bl	__stack_chk_fail
	.cfi_endproc
.LFE11037:
	.size	_ZN4asio6detail18completion_handlerIZN8asiodnp315OutstationStack13SetLogFiltersERKN7openpal10LogFiltersEEUlvE_E11do_completeEPNS0_15task_io_serviceEPNS0_25task_io_service_operationERKSt10error_codem, .-_ZN4asio6detail18completion_handlerIZN8asiodnp315OutstationStack13SetLogFiltersERKN7openpal10LogFiltersEEUlvE_E11do_completeEPNS0_15task_io_serviceEPNS0_25task_io_service_operationERKSt10error_codem
	.section	.text._ZN8asiodnp315OutstationStackD2Ev,"axG",@progbits,_ZN8asiodnp315OutstationStackD5Ev,comdat
	.align	2
	.p2align 4,,11
	.weak	_ZThn16_N8asiodnp315OutstationStackD1Ev
	.type	_ZThn16_N8asiodnp315OutstationStackD1Ev, %function
_ZThn16_N8asiodnp315OutstationStackD1Ev:
.LFB12136:
	.cfi_startproc
	stp	x29, x30, [sp, -48]!
	.cfi_def_cfa_offset 48
	.cfi_offset 29, -48
	.cfi_offset 30, -40
	adrp	x1, :got:_ZTVN8asiodnp315OutstationStackE
	adrp	x2, :got:_ZTVN8opendnp38OContextE
	mov	x29, sp
	ldr	x1, [x1, #:got_lo12:_ZTVN8asiodnp315OutstationStackE]
	stp	x19, x20, [sp, 16]
	.cfi_offset 19, -32
	.cfi_offset 20, -24
	mov	x19, x0
	adrp	x20, :got:_ZTVN7openpal5ArrayIhjEE
	add	x0, x1, 16
	ldr	x2, [x2, #:got_lo12:_ZTVN8opendnp38OContextE]
	str	x21, [sp, 32]
	.cfi_offset 21, -16
	ldr	x3, [x20, #:got_lo12:_ZTVN7openpal5ArrayIhjEE]
	add	x5, x1, 144
	stp	x0, x5, [x19, -16]
	add	x1, x1, 208
	ldr	x0, [x19, 1072]
	str	x1, [x19]
	add	x1, x2, 16
	add	x2, x3, 16
	str	x1, [x19, 136]
	str	x2, [x19, 1056]
	cbz	x0, .L361
	bl	_ZdaPv
.L361:
	ldr	x1, [x20, #:got_lo12:_ZTVN7openpal5ArrayIhjEE]
	ldr	x0, [x19, 1016]
	add	x1, x1, 16
	str	x1, [x19, 1000]
	cbz	x0, .L362
	bl	_ZdaPv
.L362:
	ldr	x20, [x20, #:got_lo12:_ZTVN7openpal5ArrayIhjEE]
	ldr	x0, [x19, 936]
	add	x20, x20, 16
	str	x20, [x19, 920]
	cbz	x0, .L363
	bl	_ZdaPv
.L363:
	add	x0, x19, 864
	bl	_ZN7openpal8TimerRefD1Ev
	adrp	x0, :got:_ZTVN8opendnp315DatabaseBuffersE
	adrp	x3, :got:_ZTVN8opendnp38DatabaseE
	adrp	x1, :got:_ZTVN7openpal5ArrayIN8opendnp34CellINS1_19TimeAndIntervalSpecEEEtEE
	add	x4, x19, 520
	ldr	x0, [x0, #:got_lo12:_ZTVN8opendnp315DatabaseBuffersE]
	ldr	x3, [x3, #:got_lo12:_ZTVN8opendnp38DatabaseE]
	add	x5, x0, 88
	ldr	x2, [x1, #:got_lo12:_ZTVN7openpal5ArrayIN8opendnp34CellINS1_19TimeAndIntervalSpecEEEtEE]
	add	x1, x0, 16
	add	x3, x3, 16
	str	x3, [x19, 496]
	str	x1, [x19, 520]
	add	x1, x0, 120
	ldr	x0, [x19, 728]
	stp	x5, x1, [x4, 8]
	add	x1, x2, 16
	str	x1, [x19, 712]
	cbz	x0, .L364
	bl	_ZdaPv
.L364:
	adrp	x1, :got:_ZTVN7openpal5ArrayIN8opendnp34CellINS1_22AnalogOutputStatusSpecEEEtEE
	ldr	x0, [x19, 704]
	ldr	x1, [x1, #:got_lo12:_ZTVN7openpal5ArrayIN8opendnp34CellINS1_22AnalogOutputStatusSpecEEEtEE]
	add	x1, x1, 16
	str	x1, [x19, 688]
	cbz	x0, .L365
	bl	_ZdaPv
.L365:
	adrp	x1, :got:_ZTVN7openpal5ArrayIN8opendnp34CellINS1_22BinaryOutputStatusSpecEEEtEE
	ldr	x0, [x19, 680]
	ldr	x1, [x1, #:got_lo12:_ZTVN7openpal5ArrayIN8opendnp34CellINS1_22BinaryOutputStatusSpecEEEtEE]
	add	x1, x1, 16
	str	x1, [x19, 664]
	cbz	x0, .L366
	bl	_ZdaPv
.L366:
	adrp	x1, :got:_ZTVN7openpal5ArrayIN8opendnp34CellINS1_17FrozenCounterSpecEEEtEE
	ldr	x0, [x19, 656]
	ldr	x1, [x1, #:got_lo12:_ZTVN7openpal5ArrayIN8opendnp34CellINS1_17FrozenCounterSpecEEEtEE]
	add	x1, x1, 16
	str	x1, [x19, 640]
	cbz	x0, .L367
	bl	_ZdaPv
.L367:
	adrp	x1, :got:_ZTVN7openpal5ArrayIN8opendnp34CellINS1_11CounterSpecEEEtEE
	ldr	x0, [x19, 632]
	ldr	x1, [x1, #:got_lo12:_ZTVN7openpal5ArrayIN8opendnp34CellINS1_11CounterSpecEEEtEE]
	add	x1, x1, 16
	str	x1, [x19, 616]
	cbz	x0, .L368
	bl	_ZdaPv
.L368:
	adrp	x1, :got:_ZTVN7openpal5ArrayIN8opendnp34CellINS1_10AnalogSpecEEEtEE
	ldr	x0, [x19, 608]
	ldr	x1, [x1, #:got_lo12:_ZTVN7openpal5ArrayIN8opendnp34CellINS1_10AnalogSpecEEEtEE]
	add	x1, x1, 16
	str	x1, [x19, 592]
	cbz	x0, .L369
	bl	_ZdaPv
.L369:
	adrp	x1, :got:_ZTVN7openpal5ArrayIN8opendnp34CellINS1_19DoubleBitBinarySpecEEEtEE
	ldr	x0, [x19, 584]
	ldr	x1, [x1, #:got_lo12:_ZTVN7openpal5ArrayIN8opendnp34CellINS1_19DoubleBitBinarySpecEEEtEE]
	add	x1, x1, 16
	str	x1, [x19, 568]
	cbz	x0, .L370
	bl	_ZdaPv
.L370:
	adrp	x1, :got:_ZTVN7openpal5ArrayIN8opendnp34CellINS1_10BinarySpecEEEtEE
	ldr	x0, [x19, 560]
	ldr	x1, [x1, #:got_lo12:_ZTVN7openpal5ArrayIN8opendnp34CellINS1_10BinarySpecEEEtEE]
	add	x1, x1, 16
	str	x1, [x19, 544]
	cbz	x0, .L371
	bl	_ZdaPv
.L371:
	adrp	x1, :got:_ZTVN8opendnp311EventBufferE
	adrp	x2, :got:_ZTVN7openpal5ArrayINS_8ListNodeIN8opendnp39SOERecordEEEjEE
	ldr	x1, [x1, #:got_lo12:_ZTVN8opendnp311EventBufferE]
	ldr	x2, [x2, #:got_lo12:_ZTVN7openpal5ArrayINS_8ListNodeIN8opendnp39SOERecordEEEjEE]
	add	x0, x1, 16
	add	x5, x1, 160
	stp	x0, x5, [x19, 240]
	add	x4, x1, 192
	ldr	x0, [x19, 344]
	add	x1, x1, 224
	add	x2, x2, 16
	stp	x4, x1, [x19, 256]
	str	x2, [x19, 328]
	cbz	x0, .L372
	bl	_ZdaPv
.L372:
	ldr	x21, [x19, 232]
	cbz	x21, .L374
	adrp	x20, :got:__libc_single_threaded
	ldr	x0, [x20, #:got_lo12:__libc_single_threaded]
	ldrb	w0, [x0]
	cbz	w0, .L375
	ldr	w0, [x21, 8]
	sub	w1, w0, #1
	str	w1, [x21, 8]
.L376:
	cmp	w0, 1
	beq	.L506
.L374:
	ldr	x21, [x19, 216]
	cbz	x21, .L381
	adrp	x20, :got:__libc_single_threaded
	ldr	x0, [x20, #:got_lo12:__libc_single_threaded]
	ldrb	w0, [x0]
	cbz	w0, .L382
	ldr	w0, [x21, 8]
	sub	w1, w0, #1
	str	w1, [x21, 8]
.L383:
	cmp	w0, 1
	beq	.L507
.L381:
	ldr	x21, [x19, 200]
	cbz	x21, .L388
	adrp	x20, :got:__libc_single_threaded
	ldr	x0, [x20, #:got_lo12:__libc_single_threaded]
	ldrb	w0, [x0]
	cbz	w0, .L389
	ldr	w0, [x21, 8]
	sub	w1, w0, #1
	str	w1, [x21, 8]
.L390:
	cmp	w0, 1
	beq	.L508
.L388:
	ldr	x21, [x19, 184]
	cbz	x21, .L395
	adrp	x20, :got:__libc_single_threaded
	ldr	x0, [x20, #:got_lo12:__libc_single_threaded]
	ldrb	w0, [x0]
	cbz	w0, .L396
	ldr	w0, [x21, 8]
	sub	w1, w0, #1
	str	w1, [x21, 8]
.L397:
	cmp	w0, 1
	beq	.L509
.L395:
	ldr	x21, [x19, 168]
	cbz	x21, .L402
	adrp	x20, :got:__libc_single_threaded
	ldr	x0, [x20, #:got_lo12:__libc_single_threaded]
	ldrb	w0, [x0]
	cbz	w0, .L403
	ldr	w0, [x21, 8]
	sub	w1, w0, #1
	str	w1, [x21, 8]
.L404:
	cmp	w0, 1
	beq	.L510
.L402:
	ldr	x21, [x19, 152]
	cbz	x21, .L409
	adrp	x20, :got:__libc_single_threaded
	ldr	x0, [x20, #:got_lo12:__libc_single_threaded]
	ldrb	w0, [x0]
	cbz	w0, .L410
	ldr	w0, [x21, 8]
	sub	w1, w0, #1
	str	w1, [x21, 8]
.L411:
	cmp	w0, 1
	beq	.L511
.L409:
	ldr	x21, [x19, 128]
	cbz	x21, .L416
	adrp	x20, :got:__libc_single_threaded
	ldr	x0, [x20, #:got_lo12:__libc_single_threaded]
	ldrb	w0, [x0]
	cbz	w0, .L417
	ldr	w0, [x21, 8]
	sub	w1, w0, #1
	str	w1, [x21, 8]
.L418:
	cmp	w0, 1
	beq	.L512
.L416:
	ldr	x21, [x19, 112]
	cbz	x21, .L423
	adrp	x20, :got:__libc_single_threaded
	ldr	x0, [x20, #:got_lo12:__libc_single_threaded]
	ldrb	w0, [x0]
	cbz	w0, .L424
	ldr	w0, [x21, 8]
	sub	w1, w0, #1
	str	w1, [x21, 8]
.L425:
	cmp	w0, 1
	beq	.L513
.L423:
	ldr	x21, [x19, 96]
	cbz	x21, .L430
	adrp	x20, :got:__libc_single_threaded
	ldr	x0, [x20, #:got_lo12:__libc_single_threaded]
	ldrb	w0, [x0]
	cbz	w0, .L431
	ldr	w0, [x21, 8]
	sub	w1, w0, #1
	str	w1, [x21, 8]
.L432:
	cmp	w0, 1
	beq	.L514
.L430:
	ldr	x21, [x19, 80]
	cbz	x21, .L437
	adrp	x20, :got:__libc_single_threaded
	ldr	x0, [x20, #:got_lo12:__libc_single_threaded]
	ldrb	w0, [x0]
	cbz	w0, .L438
	ldr	w0, [x21, 8]
	sub	w1, w0, #1
	str	w1, [x21, 8]
.L439:
	cmp	w0, 1
	beq	.L515
.L437:
	ldr	x21, [x19, 64]
	cbz	x21, .L444
	adrp	x20, :got:__libc_single_threaded
	ldr	x0, [x20, #:got_lo12:__libc_single_threaded]
	ldrb	w0, [x0]
	cbz	w0, .L445
	ldr	w0, [x21, 8]
	sub	w1, w0, #1
	str	w1, [x21, 8]
.L446:
	cmp	w0, 1
	beq	.L516
.L444:
	ldr	x21, [x19, 48]
	cbz	x21, .L451
	adrp	x20, :got:__libc_single_threaded
	ldr	x0, [x20, #:got_lo12:__libc_single_threaded]
	ldrb	w0, [x0]
	cbz	w0, .L452
	ldr	w0, [x21, 8]
	sub	w1, w0, #1
	str	w1, [x21, 8]
.L453:
	cmp	w0, 1
	beq	.L517
.L451:
	ldr	x21, [x19, 32]
	cbz	x21, .L458
	adrp	x20, :got:__libc_single_threaded
	ldr	x0, [x20, #:got_lo12:__libc_single_threaded]
	ldrb	w0, [x0]
	cbz	w0, .L459
	ldr	w0, [x21, 8]
	sub	w1, w0, #1
	str	w1, [x21, 8]
.L460:
	cmp	w0, 1
	beq	.L518
.L458:
	ldr	x19, [x19, 16]
	cbz	x19, .L360
	adrp	x0, :got:__libc_single_threaded
	ldr	x0, [x0, #:got_lo12:__libc_single_threaded]
	ldrb	w0, [x0]
	cbz	w0, .L466
	ldr	w0, [x19, 12]
	sub	w1, w0, #1
	str	w1, [x19, 12]
.L467:
	cmp	w0, 1
	beq	.L519
.L360:
	ldp	x19, x20, [sp, 16]
	ldr	x21, [sp, 32]
	ldp	x29, x30, [sp], 48
	.cfi_remember_state
	.cfi_restore 30
	.cfi_restore 29
	.cfi_restore 21
	.cfi_restore 19
	.cfi_restore 20
	.cfi_def_cfa_offset 0
	ret
	.p2align 2,,3
.L506:
	.cfi_restore_state
	ldr	x1, [x21]
	mov	x0, x21
	ldr	x1, [x1, 16]
	blr	x1
	ldr	x20, [x20, #:got_lo12:__libc_single_threaded]
	ldrb	w0, [x20]
	cbz	w0, .L378
	ldr	w0, [x21, 12]
	sub	w1, w0, #1
	str	w1, [x21, 12]
.L379:
	cmp	w0, 1
	bne	.L374
	ldr	x1, [x21]
	mov	x0, x21
	ldr	x1, [x1, 24]
	blr	x1
	b	.L374
	.p2align 2,,3
.L507:
	ldr	x1, [x21]
	mov	x0, x21
	ldr	x1, [x1, 16]
	blr	x1
	ldr	x20, [x20, #:got_lo12:__libc_single_threaded]
	ldrb	w0, [x20]
	cbz	w0, .L385
	ldr	w0, [x21, 12]
	sub	w1, w0, #1
	str	w1, [x21, 12]
.L386:
	cmp	w0, 1
	bne	.L381
	ldr	x1, [x21]
	mov	x0, x21
	ldr	x1, [x1, 24]
	blr	x1
	b	.L381
	.p2align 2,,3
.L508:
	ldr	x1, [x21]
	mov	x0, x21
	ldr	x1, [x1, 16]
	blr	x1
	ldr	x20, [x20, #:got_lo12:__libc_single_threaded]
	ldrb	w0, [x20]
	cbz	w0, .L392
	ldr	w0, [x21, 12]
	sub	w1, w0, #1
	str	w1, [x21, 12]
.L393:
	cmp	w0, 1
	bne	.L388
	ldr	x1, [x21]
	mov	x0, x21
	ldr	x1, [x1, 24]
	blr	x1
	b	.L388
	.p2align 2,,3
.L509:
	ldr	x1, [x21]
	mov	x0, x21
	ldr	x1, [x1, 16]
	blr	x1
	ldr	x20, [x20, #:got_lo12:__libc_single_threaded]
	ldrb	w0, [x20]
	cbz	w0, .L399
	ldr	w0, [x21, 12]
	sub	w1, w0, #1
	str	w1, [x21, 12]
.L400:
	cmp	w0, 1
	bne	.L395
	ldr	x1, [x21]
	mov	x0, x21
	ldr	x1, [x1, 24]
	blr	x1
	b	.L395
	.p2align 2,,3
.L510:
	ldr	x1, [x21]
	mov	x0, x21
	ldr	x1, [x1, 16]
	blr	x1
	ldr	x20, [x20, #:got_lo12:__libc_single_threaded]
	ldrb	w0, [x20]
	cbz	w0, .L406
	ldr	w0, [x21, 12]
	sub	w1, w0, #1
	str	w1, [x21, 12]
.L407:
	cmp	w0, 1
	bne	.L402
	ldr	x1, [x21]
	mov	x0, x21
	ldr	x1, [x1, 24]
	blr	x1
	b	.L402
	.p2align 2,,3
.L514:
	ldr	x1, [x21]
	mov	x0, x21
	ldr	x1, [x1, 16]
	blr	x1
	ldr	x20, [x20, #:got_lo12:__libc_single_threaded]
	ldrb	w0, [x20]
	cbz	w0, .L434
	ldr	w0, [x21, 12]
	sub	w1, w0, #1
	str	w1, [x21, 12]
.L435:
	cmp	w0, 1
	bne	.L430
	ldr	x1, [x21]
	mov	x0, x21
	ldr	x1, [x1, 24]
	blr	x1
	b	.L430
	.p2align 2,,3
.L512:
	ldr	x1, [x21]
	mov	x0, x21
	ldr	x1, [x1, 16]
	blr	x1
	ldr	x20, [x20, #:got_lo12:__libc_single_threaded]
	ldrb	w0, [x20]
	cbz	w0, .L420
	ldr	w0, [x21, 12]
	sub	w1, w0, #1
	str	w1, [x21, 12]
.L421:
	cmp	w0, 1
	bne	.L416
	ldr	x1, [x21]
	mov	x0, x21
	ldr	x1, [x1, 24]
	blr	x1
	b	.L416
	.p2align 2,,3
.L516:
	ldr	x1, [x21]
	mov	x0, x21
	ldr	x1, [x1, 16]
	blr	x1
	ldr	x20, [x20, #:got_lo12:__libc_single_threaded]
	ldrb	w0, [x20]
	cbz	w0, .L448
	ldr	w0, [x21, 12]
	sub	w1, w0, #1
	str	w1, [x21, 12]
.L449:
	cmp	w0, 1
	bne	.L444
	ldr	x1, [x21]
	mov	x0, x21
	ldr	x1, [x1, 24]
	blr	x1
	b	.L444
	.p2align 2,,3
.L511:
	ldr	x1, [x21]
	mov	x0, x21
	ldr	x1, [x1, 16]
	blr	x1
	ldr	x20, [x20, #:got_lo12:__libc_single_threaded]
	ldrb	w0, [x20]
	cbz	w0, .L413
	ldr	w0, [x21, 12]
	sub	w1, w0, #1
	str	w1, [x21, 12]
.L414:
	cmp	w0, 1
	bne	.L409
	ldr	x1, [x21]
	mov	x0, x21
	ldr	x1, [x1, 24]
	blr	x1
	b	.L409
	.p2align 2,,3
.L515:
	ldr	x1, [x21]
	mov	x0, x21
	ldr	x1, [x1, 16]
	blr	x1
	ldr	x20, [x20, #:got_lo12:__libc_single_threaded]
	ldrb	w0, [x20]
	cbz	w0, .L441
	ldr	w0, [x21, 12]
	sub	w1, w0, #1
	str	w1, [x21, 12]
.L442:
	cmp	w0, 1
	bne	.L437
	ldr	x1, [x21]
	mov	x0, x21
	ldr	x1, [x1, 24]
	blr	x1
	b	.L437
	.p2align 2,,3
.L513:
	ldr	x1, [x21]
	mov	x0, x21
	ldr	x1, [x1, 16]
	blr	x1
	ldr	x20, [x20, #:got_lo12:__libc_single_threaded]
	ldrb	w0, [x20]
	cbz	w0, .L427
	ldr	w0, [x21, 12]
	sub	w1, w0, #1
	str	w1, [x21, 12]
.L428:
	cmp	w0, 1
	bne	.L423
	ldr	x1, [x21]
	mov	x0, x21
	ldr	x1, [x1, 24]
	blr	x1
	b	.L423
	.p2align 2,,3
.L517:
	ldr	x1, [x21]
	mov	x0, x21
	ldr	x1, [x1, 16]
	blr	x1
	ldr	x20, [x20, #:got_lo12:__libc_single_threaded]
	ldrb	w0, [x20]
	cbz	w0, .L455
	ldr	w0, [x21, 12]
	sub	w1, w0, #1
	str	w1, [x21, 12]
.L456:
	cmp	w0, 1
	bne	.L451
	ldr	x1, [x21]
	mov	x0, x21
	ldr	x1, [x1, 24]
	blr	x1
	b	.L451
	.p2align 2,,3
.L518:
	ldr	x1, [x21]
	mov	x0, x21
	ldr	x1, [x1, 16]
	blr	x1
	ldr	x20, [x20, #:got_lo12:__libc_single_threaded]
	ldrb	w0, [x20]
	cbz	w0, .L462
	ldr	w0, [x21, 12]
	sub	w1, w0, #1
	str	w1, [x21, 12]
.L463:
	cmp	w0, 1
	bne	.L458
	ldr	x1, [x21]
	mov	x0, x21
	ldr	x1, [x1, 24]
	blr	x1
	b	.L458
	.p2align 2,,3
.L519:
	ldr	x1, [x19]
	mov	x0, x19
	ldp	x19, x20, [sp, 16]
	ldr	x21, [sp, 32]
	ldp	x29, x30, [sp], 48
	.cfi_remember_state
	.cfi_restore 30
	.cfi_restore 29
	.cfi_restore 21
	.cfi_restore 19
	.cfi_restore 20
	.cfi_def_cfa_offset 0
	ldr	x1, [x1, 24]
	mov	x16, x1
	br	x16
	.p2align 2,,3
.L438:
	.cfi_restore_state
	add	x1, x21, 8
	mov	w0, -1
	bl	__aarch64_ldadd4_acq_rel
	b	.L439
	.p2align 2,,3
.L445:
	add	x1, x21, 8
	mov	w0, -1
	bl	__aarch64_ldadd4_acq_rel
	b	.L446
	.p2align 2,,3
.L396:
	add	x1, x21, 8
	mov	w0, -1
	bl	__aarch64_ldadd4_acq_rel
	b	.L397
	.p2align 2,,3
.L403:
	add	x1, x21, 8
	mov	w0, -1
	bl	__aarch64_ldadd4_acq_rel
	b	.L404
	.p2align 2,,3
.L382:
	add	x1, x21, 8
	mov	w0, -1
	bl	__aarch64_ldadd4_acq_rel
	b	.L383
	.p2align 2,,3
.L389:
	add	x1, x21, 8
	mov	w0, -1
	bl	__aarch64_ldadd4_acq_rel
	b	.L390
	.p2align 2,,3
.L466:
	add	x1, x19, 12
	mov	w0, -1
	bl	__aarch64_ldadd4_acq_rel
	b	.L467
	.p2align 2,,3
.L375:
	add	x1, x21, 8
	mov	w0, -1
	bl	__aarch64_ldadd4_acq_rel
	b	.L376
	.p2align 2,,3
.L410:
	add	x1, x21, 8
	mov	w0, -1
	bl	__aarch64_ldadd4_acq_rel
	b	.L411
	.p2align 2,,3
.L417:
	add	x1, x21, 8
	mov	w0, -1
	bl	__aarch64_ldadd4_acq_rel
	b	.L418
	.p2align 2,,3
.L452:
	add	x1, x21, 8
	mov	w0, -1
	bl	__aarch64_ldadd4_acq_rel
	b	.L453
	.p2align 2,,3
.L459:
	add	x1, x21, 8
	mov	w0, -1
	bl	__aarch64_ldadd4_acq_rel
	b	.L460
	.p2align 2,,3
.L424:
	add	x1, x21, 8
	mov	w0, -1
	bl	__aarch64_ldadd4_acq_rel
	b	.L425
	.p2align 2,,3
.L431:
	add	x1, x21, 8
	mov	w0, -1
	bl	__aarch64_ldadd4_acq_rel
	b	.L432
	.p2align 2,,3
.L378:
	add	x1, x21, 12
	mov	w0, -1
	bl	__aarch64_ldadd4_acq_rel
	b	.L379
	.p2align 2,,3
.L385:
	add	x1, x21, 12
	mov	w0, -1
	bl	__aarch64_ldadd4_acq_rel
	b	.L386
	.p2align 2,,3
.L392:
	add	x1, x21, 12
	mov	w0, -1
	bl	__aarch64_ldadd4_acq_rel
	b	.L393
	.p2align 2,,3
.L455:
	add	x1, x21, 12
	mov	w0, -1
	bl	__aarch64_ldadd4_acq_rel
	b	.L456
	.p2align 2,,3
.L462:
	add	x1, x21, 12
	mov	w0, -1
	bl	__aarch64_ldadd4_acq_rel
	b	.L463
	.p2align 2,,3
.L399:
	add	x1, x21, 12
	mov	w0, -1
	bl	__aarch64_ldadd4_acq_rel
	b	.L400
	.p2align 2,,3
.L448:
	add	x1, x21, 12
	mov	w0, -1
	bl	__aarch64_ldadd4_acq_rel
	b	.L449
	.p2align 2,,3
.L434:
	add	x1, x21, 12
	mov	w0, -1
	bl	__aarch64_ldadd4_acq_rel
	b	.L435
	.p2align 2,,3
.L441:
	add	x1, x21, 12
	mov	w0, -1
	bl	__aarch64_ldadd4_acq_rel
	b	.L442
	.p2align 2,,3
.L406:
	add	x1, x21, 12
	mov	w0, -1
	bl	__aarch64_ldadd4_acq_rel
	b	.L407
	.p2align 2,,3
.L413:
	add	x1, x21, 12
	mov	w0, -1
	bl	__aarch64_ldadd4_acq_rel
	b	.L414
	.p2align 2,,3
.L420:
	add	x1, x21, 12
	mov	w0, -1
	bl	__aarch64_ldadd4_acq_rel
	b	.L421
	.p2align 2,,3
.L427:
	add	x1, x21, 12
	mov	w0, -1
	bl	__aarch64_ldadd4_acq_rel
	b	.L428
	.cfi_endproc
.LFE12136:
	.size	_ZThn16_N8asiodnp315OutstationStackD1Ev, .-_ZThn16_N8asiodnp315OutstationStackD1Ev
	.align	2
	.p2align 4,,11
	.weak	_ZThn8_N8asiodnp315OutstationStackD1Ev
	.type	_ZThn8_N8asiodnp315OutstationStackD1Ev, %function
_ZThn8_N8asiodnp315OutstationStackD1Ev:
.LFB12137:
	.cfi_startproc
	stp	x29, x30, [sp, -48]!
	.cfi_def_cfa_offset 48
	.cfi_offset 29, -48
	.cfi_offset 30, -40
	adrp	x1, :got:_ZTVN8asiodnp315OutstationStackE
	adrp	x2, :got:_ZTVN8opendnp38OContextE
	mov	x29, sp
	stp	x19, x20, [sp, 16]
	.cfi_offset 19, -32
	.cfi_offset 20, -24
	mov	x19, x0
	mov	x3, x19
	ldr	x0, [x1, #:got_lo12:_ZTVN8asiodnp315OutstationStackE]
	str	x21, [sp, 32]
	.cfi_offset 21, -16
	adrp	x20, :got:_ZTVN7openpal5ArrayIhjEE
	add	x1, x0, 16
	str	x1, [x19, -8]
	add	x1, x0, 144
	str	x1, [x3], -8
	add	x0, x0, 208
	ldr	x1, [x2, #:got_lo12:_ZTVN8opendnp38OContextE]
	str	x0, [x3, 16]
	ldr	x2, [x20, #:got_lo12:_ZTVN7openpal5ArrayIhjEE]
	add	x1, x1, 16
	ldr	x0, [x19, 1080]
	add	x2, x2, 16
	str	x1, [x19, 144]
	str	x2, [x19, 1064]
	cbz	x0, .L521
	bl	_ZdaPv
.L521:
	ldr	x1, [x20, #:got_lo12:_ZTVN7openpal5ArrayIhjEE]
	ldr	x0, [x19, 1024]
	add	x1, x1, 16
	str	x1, [x19, 1008]
	cbz	x0, .L522
	bl	_ZdaPv
.L522:
	ldr	x20, [x20, #:got_lo12:_ZTVN7openpal5ArrayIhjEE]
	ldr	x0, [x19, 944]
	add	x20, x20, 16
	str	x20, [x19, 928]
	cbz	x0, .L523
	bl	_ZdaPv
.L523:
	add	x0, x19, 872
	bl	_ZN7openpal8TimerRefD1Ev
	adrp	x0, :got:_ZTVN8opendnp315DatabaseBuffersE
	adrp	x3, :got:_ZTVN8opendnp38DatabaseE
	adrp	x1, :got:_ZTVN7openpal5ArrayIN8opendnp34CellINS1_19TimeAndIntervalSpecEEEtEE
	add	x4, x19, 528
	ldr	x0, [x0, #:got_lo12:_ZTVN8opendnp315DatabaseBuffersE]
	ldr	x3, [x3, #:got_lo12:_ZTVN8opendnp38DatabaseE]
	add	x5, x0, 88
	ldr	x2, [x1, #:got_lo12:_ZTVN7openpal5ArrayIN8opendnp34CellINS1_19TimeAndIntervalSpecEEEtEE]
	add	x1, x0, 16
	add	x3, x3, 16
	str	x3, [x19, 504]
	str	x1, [x19, 528]
	add	x1, x0, 120
	ldr	x0, [x19, 736]
	stp	x5, x1, [x4, 8]
	add	x1, x2, 16
	str	x1, [x19, 720]
	cbz	x0, .L524
	bl	_ZdaPv
.L524:
	adrp	x1, :got:_ZTVN7openpal5ArrayIN8opendnp34CellINS1_22AnalogOutputStatusSpecEEEtEE
	ldr	x0, [x19, 712]
	ldr	x1, [x1, #:got_lo12:_ZTVN7openpal5ArrayIN8opendnp34CellINS1_22AnalogOutputStatusSpecEEEtEE]
	add	x1, x1, 16
	str	x1, [x19, 696]
	cbz	x0, .L525
	bl	_ZdaPv
.L525:
	adrp	x1, :got:_ZTVN7openpal5ArrayIN8opendnp34CellINS1_22BinaryOutputStatusSpecEEEtEE
	ldr	x0, [x19, 688]
	ldr	x1, [x1, #:got_lo12:_ZTVN7openpal5ArrayIN8opendnp34CellINS1_22BinaryOutputStatusSpecEEEtEE]
	add	x1, x1, 16
	str	x1, [x19, 672]
	cbz	x0, .L526
	bl	_ZdaPv
.L526:
	adrp	x1, :got:_ZTVN7openpal5ArrayIN8opendnp34CellINS1_17FrozenCounterSpecEEEtEE
	ldr	x0, [x19, 664]
	ldr	x1, [x1, #:got_lo12:_ZTVN7openpal5ArrayIN8opendnp34CellINS1_17FrozenCounterSpecEEEtEE]
	add	x1, x1, 16
	str	x1, [x19, 648]
	cbz	x0, .L527
	bl	_ZdaPv
.L527:
	adrp	x1, :got:_ZTVN7openpal5ArrayIN8opendnp34CellINS1_11CounterSpecEEEtEE
	ldr	x0, [x19, 640]
	ldr	x1, [x1, #:got_lo12:_ZTVN7openpal5ArrayIN8opendnp34CellINS1_11CounterSpecEEEtEE]
	add	x1, x1, 16
	str	x1, [x19, 624]
	cbz	x0, .L528
	bl	_ZdaPv
.L528:
	adrp	x1, :got:_ZTVN7openpal5ArrayIN8opendnp34CellINS1_10AnalogSpecEEEtEE
	ldr	x0, [x19, 616]
	ldr	x1, [x1, #:got_lo12:_ZTVN7openpal5ArrayIN8opendnp34CellINS1_10AnalogSpecEEEtEE]
	add	x1, x1, 16
	str	x1, [x19, 600]
	cbz	x0, .L529
	bl	_ZdaPv
.L529:
	adrp	x1, :got:_ZTVN7openpal5ArrayIN8opendnp34CellINS1_19DoubleBitBinarySpecEEEtEE
	ldr	x0, [x19, 592]
	ldr	x1, [x1, #:got_lo12:_ZTVN7openpal5ArrayIN8opendnp34CellINS1_19DoubleBitBinarySpecEEEtEE]
	add	x1, x1, 16
	str	x1, [x19, 576]
	cbz	x0, .L530
	bl	_ZdaPv
.L530:
	adrp	x1, :got:_ZTVN7openpal5ArrayIN8opendnp34CellINS1_10BinarySpecEEEtEE
	ldr	x0, [x19, 568]
	ldr	x1, [x1, #:got_lo12:_ZTVN7openpal5ArrayIN8opendnp34CellINS1_10BinarySpecEEEtEE]
	add	x1, x1, 16
	str	x1, [x19, 552]
	cbz	x0, .L531
	bl	_ZdaPv
.L531:
	adrp	x1, :got:_ZTVN8opendnp311EventBufferE
	adrp	x2, :got:_ZTVN7openpal5ArrayINS_8ListNodeIN8opendnp39SOERecordEEEjEE
	ldr	x1, [x1, #:got_lo12:_ZTVN8opendnp311EventBufferE]
	ldr	x2, [x2, #:got_lo12:_ZTVN7openpal5ArrayINS_8ListNodeIN8opendnp39SOERecordEEEjEE]
	add	x0, x1, 16
	add	x5, x1, 160
	stp	x0, x5, [x19, 248]
	add	x4, x1, 192
	ldr	x0, [x19, 352]
	add	x1, x1, 224
	add	x2, x2, 16
	stp	x4, x1, [x19, 264]
	str	x2, [x19, 336]
	cbz	x0, .L532
	bl	_ZdaPv
.L532:
	ldr	x21, [x19, 240]
	cbz	x21, .L534
	adrp	x20, :got:__libc_single_threaded
	ldr	x0, [x20, #:got_lo12:__libc_single_threaded]
	ldrb	w0, [x0]
	cbz	w0, .L535
	ldr	w0, [x21, 8]
	sub	w1, w0, #1
	str	w1, [x21, 8]
.L536:
	cmp	w0, 1
	beq	.L666
.L534:
	ldr	x21, [x19, 224]
	cbz	x21, .L541
	adrp	x20, :got:__libc_single_threaded
	ldr	x0, [x20, #:got_lo12:__libc_single_threaded]
	ldrb	w0, [x0]
	cbz	w0, .L542
	ldr	w0, [x21, 8]
	sub	w1, w0, #1
	str	w1, [x21, 8]
.L543:
	cmp	w0, 1
	beq	.L667
.L541:
	ldr	x21, [x19, 208]
	cbz	x21, .L548
	adrp	x20, :got:__libc_single_threaded
	ldr	x0, [x20, #:got_lo12:__libc_single_threaded]
	ldrb	w0, [x0]
	cbz	w0, .L549
	ldr	w0, [x21, 8]
	sub	w1, w0, #1
	str	w1, [x21, 8]
.L550:
	cmp	w0, 1
	beq	.L668
.L548:
	ldr	x21, [x19, 192]
	cbz	x21, .L555
	adrp	x20, :got:__libc_single_threaded
	ldr	x0, [x20, #:got_lo12:__libc_single_threaded]
	ldrb	w0, [x0]
	cbz	w0, .L556
	ldr	w0, [x21, 8]
	sub	w1, w0, #1
	str	w1, [x21, 8]
.L557:
	cmp	w0, 1
	beq	.L669
.L555:
	ldr	x21, [x19, 176]
	cbz	x21, .L562
	adrp	x20, :got:__libc_single_threaded
	ldr	x0, [x20, #:got_lo12:__libc_single_threaded]
	ldrb	w0, [x0]
	cbz	w0, .L563
	ldr	w0, [x21, 8]
	sub	w1, w0, #1
	str	w1, [x21, 8]
.L564:
	cmp	w0, 1
	beq	.L670
.L562:
	ldr	x21, [x19, 160]
	cbz	x21, .L569
	adrp	x20, :got:__libc_single_threaded
	ldr	x0, [x20, #:got_lo12:__libc_single_threaded]
	ldrb	w0, [x0]
	cbz	w0, .L570
	ldr	w0, [x21, 8]
	sub	w1, w0, #1
	str	w1, [x21, 8]
.L571:
	cmp	w0, 1
	beq	.L671
.L569:
	ldr	x21, [x19, 136]
	cbz	x21, .L576
	adrp	x20, :got:__libc_single_threaded
	ldr	x0, [x20, #:got_lo12:__libc_single_threaded]
	ldrb	w0, [x0]
	cbz	w0, .L577
	ldr	w0, [x21, 8]
	sub	w1, w0, #1
	str	w1, [x21, 8]
.L578:
	cmp	w0, 1
	beq	.L672
.L576:
	ldr	x21, [x19, 120]
	cbz	x21, .L583
	adrp	x20, :got:__libc_single_threaded
	ldr	x0, [x20, #:got_lo12:__libc_single_threaded]
	ldrb	w0, [x0]
	cbz	w0, .L584
	ldr	w0, [x21, 8]
	sub	w1, w0, #1
	str	w1, [x21, 8]
.L585:
	cmp	w0, 1
	beq	.L673
.L583:
	ldr	x21, [x19, 104]
	cbz	x21, .L590
	adrp	x20, :got:__libc_single_threaded
	ldr	x0, [x20, #:got_lo12:__libc_single_threaded]
	ldrb	w0, [x0]
	cbz	w0, .L591
	ldr	w0, [x21, 8]
	sub	w1, w0, #1
	str	w1, [x21, 8]
.L592:
	cmp	w0, 1
	beq	.L674
.L590:
	ldr	x21, [x19, 88]
	cbz	x21, .L597
	adrp	x20, :got:__libc_single_threaded
	ldr	x0, [x20, #:got_lo12:__libc_single_threaded]
	ldrb	w0, [x0]
	cbz	w0, .L598
	ldr	w0, [x21, 8]
	sub	w1, w0, #1
	str	w1, [x21, 8]
.L599:
	cmp	w0, 1
	beq	.L675
.L597:
	ldr	x21, [x19, 72]
	cbz	x21, .L604
	adrp	x20, :got:__libc_single_threaded
	ldr	x0, [x20, #:got_lo12:__libc_single_threaded]
	ldrb	w0, [x0]
	cbz	w0, .L605
	ldr	w0, [x21, 8]
	sub	w1, w0, #1
	str	w1, [x21, 8]
.L606:
	cmp	w0, 1
	beq	.L676
.L604:
	ldr	x21, [x19, 56]
	cbz	x21, .L611
	adrp	x20, :got:__libc_single_threaded
	ldr	x0, [x20, #:got_lo12:__libc_single_threaded]
	ldrb	w0, [x0]
	cbz	w0, .L612
	ldr	w0, [x21, 8]
	sub	w1, w0, #1
	str	w1, [x21, 8]
.L613:
	cmp	w0, 1
	beq	.L677
.L611:
	ldr	x21, [x19, 40]
	cbz	x21, .L618
	adrp	x20, :got:__libc_single_threaded
	ldr	x0, [x20, #:got_lo12:__libc_single_threaded]
	ldrb	w0, [x0]
	cbz	w0, .L619
	ldr	w0, [x21, 8]
	sub	w1, w0, #1
	str	w1, [x21, 8]
.L620:
	cmp	w0, 1
	beq	.L678
.L618:
	ldr	x19, [x19, 24]
	cbz	x19, .L520
	adrp	x0, :got:__libc_single_threaded
	ldr	x0, [x0, #:got_lo12:__libc_single_threaded]
	ldrb	w0, [x0]
	cbz	w0, .L626
	ldr	w0, [x19, 12]
	sub	w1, w0, #1
	str	w1, [x19, 12]
.L627:
	cmp	w0, 1
	beq	.L679
.L520:
	ldp	x19, x20, [sp, 16]
	ldr	x21, [sp, 32]
	ldp	x29, x30, [sp], 48
	.cfi_remember_state
	.cfi_restore 30
	.cfi_restore 29
	.cfi_restore 21
	.cfi_restore 19
	.cfi_restore 20
	.cfi_def_cfa_offset 0
	ret
	.p2align 2,,3
.L666:
	.cfi_restore_state
	ldr	x1, [x21]
	mov	x0, x21
	ldr	x1, [x1, 16]
	blr	x1
	ldr	x20, [x20, #:got_lo12:__libc_single_threaded]
	ldrb	w0, [x20]
	cbz	w0, .L538
	ldr	w0, [x21, 12]
	sub	w1, w0, #1
	str	w1, [x21, 12]
.L539:
	cmp	w0, 1
	bne	.L534
	ldr	x1, [x21]
	mov	x0, x21
	ldr	x1, [x1, 24]
	blr	x1
	b	.L534
	.p2align 2,,3
.L667:
	ldr	x1, [x21]
	mov	x0, x21
	ldr	x1, [x1, 16]
	blr	x1
	ldr	x20, [x20, #:got_lo12:__libc_single_threaded]
	ldrb	w0, [x20]
	cbz	w0, .L545
	ldr	w0, [x21, 12]
	sub	w1, w0, #1
	str	w1, [x21, 12]
.L546:
	cmp	w0, 1
	bne	.L541
	ldr	x1, [x21]
	mov	x0, x21
	ldr	x1, [x1, 24]
	blr	x1
	b	.L541
	.p2align 2,,3
.L668:
	ldr	x1, [x21]
	mov	x0, x21
	ldr	x1, [x1, 16]
	blr	x1
	ldr	x20, [x20, #:got_lo12:__libc_single_threaded]
	ldrb	w0, [x20]
	cbz	w0, .L552
	ldr	w0, [x21, 12]
	sub	w1, w0, #1
	str	w1, [x21, 12]
.L553:
	cmp	w0, 1
	bne	.L548
	ldr	x1, [x21]
	mov	x0, x21
	ldr	x1, [x1, 24]
	blr	x1
	b	.L548
	.p2align 2,,3
.L669:
	ldr	x1, [x21]
	mov	x0, x21
	ldr	x1, [x1, 16]
	blr	x1
	ldr	x20, [x20, #:got_lo12:__libc_single_threaded]
	ldrb	w0, [x20]
	cbz	w0, .L559
	ldr	w0, [x21, 12]
	sub	w1, w0, #1
	str	w1, [x21, 12]
.L560:
	cmp	w0, 1
	bne	.L555
	ldr	x1, [x21]
	mov	x0, x21
	ldr	x1, [x1, 24]
	blr	x1
	b	.L555
	.p2align 2,,3
.L670:
	ldr	x1, [x21]
	mov	x0, x21
	ldr	x1, [x1, 16]
	blr	x1
	ldr	x20, [x20, #:got_lo12:__libc_single_threaded]
	ldrb	w0, [x20]
	cbz	w0, .L566
	ldr	w0, [x21, 12]
	sub	w1, w0, #1
	str	w1, [x21, 12]
.L567:
	cmp	w0, 1
	bne	.L562
	ldr	x1, [x21]
	mov	x0, x21
	ldr	x1, [x1, 24]
	blr	x1
	b	.L562
	.p2align 2,,3
.L674:
	ldr	x1, [x21]
	mov	x0, x21
	ldr	x1, [x1, 16]
	blr	x1
	ldr	x20, [x20, #:got_lo12:__libc_single_threaded]
	ldrb	w0, [x20]
	cbz	w0, .L594
	ldr	w0, [x21, 12]
	sub	w1, w0, #1
	str	w1, [x21, 12]
.L595:
	cmp	w0, 1
	bne	.L590
	ldr	x1, [x21]
	mov	x0, x21
	ldr	x1, [x1, 24]
	blr	x1
	b	.L590
	.p2align 2,,3
.L672:
	ldr	x1, [x21]
	mov	x0, x21
	ldr	x1, [x1, 16]
	blr	x1
	ldr	x20, [x20, #:got_lo12:__libc_single_threaded]
	ldrb	w0, [x20]
	cbz	w0, .L580
	ldr	w0, [x21, 12]
	sub	w1, w0, #1
	str	w1, [x21, 12]
.L581:
	cmp	w0, 1
	bne	.L576
	ldr	x1, [x21]
	mov	x0, x21
	ldr	x1, [x1, 24]
	blr	x1
	b	.L576
	.p2align 2,,3
.L676:
	ldr	x1, [x21]
	mov	x0, x21
	ldr	x1, [x1, 16]
	blr	x1
	ldr	x20, [x20, #:got_lo12:__libc_single_threaded]
	ldrb	w0, [x20]
	cbz	w0, .L608
	ldr	w0, [x21, 12]
	sub	w1, w0, #1
	str	w1, [x21, 12]
.L609:
	cmp	w0, 1
	bne	.L604
	ldr	x1, [x21]
	mov	x0, x21
	ldr	x1, [x1, 24]
	blr	x1
	b	.L604
	.p2align 2,,3
.L671:
	ldr	x1, [x21]
	mov	x0, x21
	ldr	x1, [x1, 16]
	blr	x1
	ldr	x20, [x20, #:got_lo12:__libc_single_threaded]
	ldrb	w0, [x20]
	cbz	w0, .L573
	ldr	w0, [x21, 12]
	sub	w1, w0, #1
	str	w1, [x21, 12]
.L574:
	cmp	w0, 1
	bne	.L569
	ldr	x1, [x21]
	mov	x0, x21
	ldr	x1, [x1, 24]
	blr	x1
	b	.L569
	.p2align 2,,3
.L675:
	ldr	x1, [x21]
	mov	x0, x21
	ldr	x1, [x1, 16]
	blr	x1
	ldr	x20, [x20, #:got_lo12:__libc_single_threaded]
	ldrb	w0, [x20]
	cbz	w0, .L601
	ldr	w0, [x21, 12]
	sub	w1, w0, #1
	str	w1, [x21, 12]
.L602:
	cmp	w0, 1
	bne	.L597
	ldr	x1, [x21]
	mov	x0, x21
	ldr	x1, [x1, 24]
	blr	x1
	b	.L597
	.p2align 2,,3
.L673:
	ldr	x1, [x21]
	mov	x0, x21
	ldr	x1, [x1, 16]
	blr	x1
	ldr	x20, [x20, #:got_lo12:__libc_single_threaded]
	ldrb	w0, [x20]
	cbz	w0, .L587
	ldr	w0, [x21, 12]
	sub	w1, w0, #1
	str	w1, [x21, 12]
.L588:
	cmp	w0, 1
	bne	.L583
	ldr	x1, [x21]
	mov	x0, x21
	ldr	x1, [x1, 24]
	blr	x1
	b	.L583
	.p2align 2,,3
.L677:
	ldr	x1, [x21]
	mov	x0, x21
	ldr	x1, [x1, 16]
	blr	x1
	ldr	x20, [x20, #:got_lo12:__libc_single_threaded]
	ldrb	w0, [x20]
	cbz	w0, .L615
	ldr	w0, [x21, 12]
	sub	w1, w0, #1
	str	w1, [x21, 12]
.L616:
	cmp	w0, 1
	bne	.L611
	ldr	x1, [x21]
	mov	x0, x21
	ldr	x1, [x1, 24]
	blr	x1
	b	.L611
	.p2align 2,,3
.L678:
	ldr	x1, [x21]
	mov	x0, x21
	ldr	x1, [x1, 16]
	blr	x1
	ldr	x20, [x20, #:got_lo12:__libc_single_threaded]
	ldrb	w0, [x20]
	cbz	w0, .L622
	ldr	w0, [x21, 12]
	sub	w1, w0, #1
	str	w1, [x21, 12]
.L623:
	cmp	w0, 1
	bne	.L618
	ldr	x1, [x21]
	mov	x0, x21
	ldr	x1, [x1, 24]
	blr	x1
	b	.L618
	.p2align 2,,3
.L679:
	ldr	x1, [x19]
	mov	x0, x19
	ldp	x19, x20, [sp, 16]
	ldr	x21, [sp, 32]
	ldp	x29, x30, [sp], 48
	.cfi_remember_state
	.cfi_restore 30
	.cfi_restore 29
	.cfi_restore 21
	.cfi_restore 19
	.cfi_restore 20
	.cfi_def_cfa_offset 0
	ldr	x1, [x1, 24]
	mov	x16, x1
	br	x16
	.p2align 2,,3
.L598:
	.cfi_restore_state
	add	x1, x21, 8
	mov	w0, -1
	bl	__aarch64_ldadd4_acq_rel
	b	.L599
	.p2align 2,,3
.L605:
	add	x1, x21, 8
	mov	w0, -1
	bl	__aarch64_ldadd4_acq_rel
	b	.L606
	.p2align 2,,3
.L556:
	add	x1, x21, 8
	mov	w0, -1
	bl	__aarch64_ldadd4_acq_rel
	b	.L557
	.p2align 2,,3
.L563:
	add	x1, x21, 8
	mov	w0, -1
	bl	__aarch64_ldadd4_acq_rel
	b	.L564
	.p2align 2,,3
.L542:
	add	x1, x21, 8
	mov	w0, -1
	bl	__aarch64_ldadd4_acq_rel
	b	.L543
	.p2align 2,,3
.L549:
	add	x1, x21, 8
	mov	w0, -1
	bl	__aarch64_ldadd4_acq_rel
	b	.L550
	.p2align 2,,3
.L626:
	add	x1, x19, 12
	mov	w0, -1
	bl	__aarch64_ldadd4_acq_rel
	b	.L627
	.p2align 2,,3
.L535:
	add	x1, x21, 8
	mov	w0, -1
	bl	__aarch64_ldadd4_acq_rel
	b	.L536
	.p2align 2,,3
.L570:
	add	x1, x21, 8
	mov	w0, -1
	bl	__aarch64_ldadd4_acq_rel
	b	.L571
	.p2align 2,,3
.L577:
	add	x1, x21, 8
	mov	w0, -1
	bl	__aarch64_ldadd4_acq_rel
	b	.L578
	.p2align 2,,3
.L612:
	add	x1, x21, 8
	mov	w0, -1
	bl	__aarch64_ldadd4_acq_rel
	b	.L613
	.p2align 2,,3
.L619:
	add	x1, x21, 8
	mov	w0, -1
	bl	__aarch64_ldadd4_acq_rel
	b	.L620
	.p2align 2,,3
.L584:
	add	x1, x21, 8
	mov	w0, -1
	bl	__aarch64_ldadd4_acq_rel
	b	.L585
	.p2align 2,,3
.L591:
	add	x1, x21, 8
	mov	w0, -1
	bl	__aarch64_ldadd4_acq_rel
	b	.L592
	.p2align 2,,3
.L538:
	add	x1, x21, 12
	mov	w0, -1
	bl	__aarch64_ldadd4_acq_rel
	b	.L539
	.p2align 2,,3
.L545:
	add	x1, x21, 12
	mov	w0, -1
	bl	__aarch64_ldadd4_acq_rel
	b	.L546
	.p2align 2,,3
.L552:
	add	x1, x21, 12
	mov	w0, -1
	bl	__aarch64_ldadd4_acq_rel
	b	.L553
	.p2align 2,,3
.L615:
	add	x1, x21, 12
	mov	w0, -1
	bl	__aarch64_ldadd4_acq_rel
	b	.L616
	.p2align 2,,3
.L622:
	add	x1, x21, 12
	mov	w0, -1
	bl	__aarch64_ldadd4_acq_rel
	b	.L623
	.p2align 2,,3
.L559:
	add	x1, x21, 12
	mov	w0, -1
	bl	__aarch64_ldadd4_acq_rel
	b	.L560
	.p2align 2,,3
.L608:
	add	x1, x21, 12
	mov	w0, -1
	bl	__aarch64_ldadd4_acq_rel
	b	.L609
	.p2align 2,,3
.L594:
	add	x1, x21, 12
	mov	w0, -1
	bl	__aarch64_ldadd4_acq_rel
	b	.L595
	.p2align 2,,3
.L601:
	add	x1, x21, 12
	mov	w0, -1
	bl	__aarch64_ldadd4_acq_rel
	b	.L602
	.p2align 2,,3
.L566:
	add	x1, x21, 12
	mov	w0, -1
	bl	__aarch64_ldadd4_acq_rel
	b	.L567
	.p2align 2,,3
.L573:
	add	x1, x21, 12
	mov	w0, -1
	bl	__aarch64_ldadd4_acq_rel
	b	.L574
	.p2align 2,,3
.L580:
	add	x1, x21, 12
	mov	w0, -1
	bl	__aarch64_ldadd4_acq_rel
	b	.L581
	.p2align 2,,3
.L587:
	add	x1, x21, 12
	mov	w0, -1
	bl	__aarch64_ldadd4_acq_rel
	b	.L588
	.cfi_endproc
.LFE12137:
	.size	_ZThn8_N8asiodnp315OutstationStackD1Ev, .-_ZThn8_N8asiodnp315OutstationStackD1Ev
	.section	.text._ZN8asiodnp315OutstationStackD0Ev,"axG",@progbits,_ZN8asiodnp315OutstationStackD5Ev,comdat
	.align	2
	.p2align 4,,11
	.weak	_ZThn8_N8asiodnp315OutstationStackD0Ev
	.type	_ZThn8_N8asiodnp315OutstationStackD0Ev, %function
_ZThn8_N8asiodnp315OutstationStackD0Ev:
.LFB12135:
	.cfi_startproc
	stp	x29, x30, [sp, -48]!
	.cfi_def_cfa_offset 48
	.cfi_offset 29, -48
	.cfi_offset 30, -40
	adrp	x1, :got:_ZTVN8asiodnp315OutstationStackE
	adrp	x2, :got:_ZTVN8opendnp38OContextE
	mov	x29, sp
	stp	x19, x20, [sp, 16]
	.cfi_offset 19, -32
	.cfi_offset 20, -24
	mov	x19, x0
	adrp	x20, :got:_ZTVN7openpal5ArrayIhjEE
	ldr	x0, [x1, #:got_lo12:_ZTVN8asiodnp315OutstationStackE]
	stp	x21, x22, [sp, 32]
	.cfi_offset 21, -16
	.cfi_offset 22, -8
	mov	x21, x19
	add	x1, x0, 16
	str	x1, [x19, -8]
	add	x1, x0, 144
	add	x0, x0, 208
	str	x1, [x21], -8
	ldr	x1, [x2, #:got_lo12:_ZTVN8opendnp38OContextE]
	str	x0, [x21, 16]
	ldr	x2, [x20, #:got_lo12:_ZTVN7openpal5ArrayIhjEE]
	add	x1, x1, 16
	ldr	x0, [x19, 1080]
	add	x2, x2, 16
	str	x1, [x19, 144]
	str	x2, [x19, 1064]
	cbz	x0, .L681
	bl	_ZdaPv
.L681:
	ldr	x1, [x20, #:got_lo12:_ZTVN7openpal5ArrayIhjEE]
	ldr	x0, [x19, 1024]
	add	x1, x1, 16
	str	x1, [x19, 1008]
	cbz	x0, .L682
	bl	_ZdaPv
.L682:
	ldr	x20, [x20, #:got_lo12:_ZTVN7openpal5ArrayIhjEE]
	ldr	x0, [x19, 944]
	add	x20, x20, 16
	str	x20, [x19, 928]
	cbz	x0, .L683
	bl	_ZdaPv
.L683:
	add	x0, x19, 872
	bl	_ZN7openpal8TimerRefD1Ev
	adrp	x0, :got:_ZTVN8opendnp315DatabaseBuffersE
	adrp	x3, :got:_ZTVN8opendnp38DatabaseE
	adrp	x1, :got:_ZTVN7openpal5ArrayIN8opendnp34CellINS1_19TimeAndIntervalSpecEEEtEE
	add	x4, x19, 528
	ldr	x0, [x0, #:got_lo12:_ZTVN8opendnp315DatabaseBuffersE]
	ldr	x3, [x3, #:got_lo12:_ZTVN8opendnp38DatabaseE]
	add	x5, x0, 88
	ldr	x2, [x1, #:got_lo12:_ZTVN7openpal5ArrayIN8opendnp34CellINS1_19TimeAndIntervalSpecEEEtEE]
	add	x1, x0, 16
	add	x3, x3, 16
	str	x3, [x19, 504]
	str	x1, [x19, 528]
	add	x1, x0, 120
	ldr	x0, [x19, 736]
	stp	x5, x1, [x4, 8]
	add	x1, x2, 16
	str	x1, [x19, 720]
	cbz	x0, .L684
	bl	_ZdaPv
.L684:
	adrp	x1, :got:_ZTVN7openpal5ArrayIN8opendnp34CellINS1_22AnalogOutputStatusSpecEEEtEE
	ldr	x0, [x19, 712]
	ldr	x1, [x1, #:got_lo12:_ZTVN7openpal5ArrayIN8opendnp34CellINS1_22AnalogOutputStatusSpecEEEtEE]
	add	x1, x1, 16
	str	x1, [x19, 696]
	cbz	x0, .L685
	bl	_ZdaPv
.L685:
	adrp	x1, :got:_ZTVN7openpal5ArrayIN8opendnp34CellINS1_22BinaryOutputStatusSpecEEEtEE
	ldr	x0, [x19, 688]
	ldr	x1, [x1, #:got_lo12:_ZTVN7openpal5ArrayIN8opendnp34CellINS1_22BinaryOutputStatusSpecEEEtEE]
	add	x1, x1, 16
	str	x1, [x19, 672]
	cbz	x0, .L686
	bl	_ZdaPv
.L686:
	adrp	x1, :got:_ZTVN7openpal5ArrayIN8opendnp34CellINS1_17FrozenCounterSpecEEEtEE
	ldr	x0, [x19, 664]
	ldr	x1, [x1, #:got_lo12:_ZTVN7openpal5ArrayIN8opendnp34CellINS1_17FrozenCounterSpecEEEtEE]
	add	x1, x1, 16
	str	x1, [x19, 648]
	cbz	x0, .L687
	bl	_ZdaPv
.L687:
	adrp	x1, :got:_ZTVN7openpal5ArrayIN8opendnp34CellINS1_11CounterSpecEEEtEE
	ldr	x0, [x19, 640]
	ldr	x1, [x1, #:got_lo12:_ZTVN7openpal5ArrayIN8opendnp34CellINS1_11CounterSpecEEEtEE]
	add	x1, x1, 16
	str	x1, [x19, 624]
	cbz	x0, .L688
	bl	_ZdaPv
.L688:
	adrp	x1, :got:_ZTVN7openpal5ArrayIN8opendnp34CellINS1_10AnalogSpecEEEtEE
	ldr	x0, [x19, 616]
	ldr	x1, [x1, #:got_lo12:_ZTVN7openpal5ArrayIN8opendnp34CellINS1_10AnalogSpecEEEtEE]
	add	x1, x1, 16
	str	x1, [x19, 600]
	cbz	x0, .L689
	bl	_ZdaPv
.L689:
	adrp	x1, :got:_ZTVN7openpal5ArrayIN8opendnp34CellINS1_19DoubleBitBinarySpecEEEtEE
	ldr	x0, [x19, 592]
	ldr	x1, [x1, #:got_lo12:_ZTVN7openpal5ArrayIN8opendnp34CellINS1_19DoubleBitBinarySpecEEEtEE]
	add	x1, x1, 16
	str	x1, [x19, 576]
	cbz	x0, .L690
	bl	_ZdaPv
.L690:
	adrp	x1, :got:_ZTVN7openpal5ArrayIN8opendnp34CellINS1_10BinarySpecEEEtEE
	ldr	x0, [x19, 568]
	ldr	x1, [x1, #:got_lo12:_ZTVN7openpal5ArrayIN8opendnp34CellINS1_10BinarySpecEEEtEE]
	add	x1, x1, 16
	str	x1, [x19, 552]
	cbz	x0, .L691
	bl	_ZdaPv
.L691:
	adrp	x1, :got:_ZTVN8opendnp311EventBufferE
	adrp	x2, :got:_ZTVN7openpal5ArrayINS_8ListNodeIN8opendnp39SOERecordEEEjEE
	ldr	x1, [x1, #:got_lo12:_ZTVN8opendnp311EventBufferE]
	ldr	x2, [x2, #:got_lo12:_ZTVN7openpal5ArrayINS_8ListNodeIN8opendnp39SOERecordEEEjEE]
	add	x0, x1, 16
	add	x5, x1, 160
	stp	x0, x5, [x19, 248]
	add	x4, x1, 192
	ldr	x0, [x19, 352]
	add	x1, x1, 224
	add	x2, x2, 16
	stp	x4, x1, [x19, 264]
	str	x2, [x19, 336]
	cbz	x0, .L692
	bl	_ZdaPv
.L692:
	ldr	x22, [x19, 240]
	cbz	x22, .L694
	adrp	x20, :got:__libc_single_threaded
	ldr	x0, [x20, #:got_lo12:__libc_single_threaded]
	ldrb	w0, [x0]
	cbz	w0, .L695
	ldr	w0, [x22, 8]
	sub	w1, w0, #1
	str	w1, [x22, 8]
.L696:
	cmp	w0, 1
	beq	.L826
.L694:
	ldr	x22, [x19, 224]
	cbz	x22, .L701
	adrp	x20, :got:__libc_single_threaded
	ldr	x0, [x20, #:got_lo12:__libc_single_threaded]
	ldrb	w0, [x0]
	cbz	w0, .L702
	ldr	w0, [x22, 8]
	sub	w1, w0, #1
	str	w1, [x22, 8]
.L703:
	cmp	w0, 1
	beq	.L827
.L701:
	ldr	x22, [x19, 208]
	cbz	x22, .L708
	adrp	x20, :got:__libc_single_threaded
	ldr	x0, [x20, #:got_lo12:__libc_single_threaded]
	ldrb	w0, [x0]
	cbz	w0, .L709
	ldr	w0, [x22, 8]
	sub	w1, w0, #1
	str	w1, [x22, 8]
.L710:
	cmp	w0, 1
	beq	.L828
.L708:
	ldr	x22, [x19, 192]
	cbz	x22, .L715
	adrp	x20, :got:__libc_single_threaded
	ldr	x0, [x20, #:got_lo12:__libc_single_threaded]
	ldrb	w0, [x0]
	cbz	w0, .L716
	ldr	w0, [x22, 8]
	sub	w1, w0, #1
	str	w1, [x22, 8]
.L717:
	cmp	w0, 1
	beq	.L829
.L715:
	ldr	x22, [x19, 176]
	cbz	x22, .L722
	adrp	x20, :got:__libc_single_threaded
	ldr	x0, [x20, #:got_lo12:__libc_single_threaded]
	ldrb	w0, [x0]
	cbz	w0, .L723
	ldr	w0, [x22, 8]
	sub	w1, w0, #1
	str	w1, [x22, 8]
.L724:
	cmp	w0, 1
	beq	.L830
.L722:
	ldr	x22, [x19, 160]
	cbz	x22, .L729
	adrp	x20, :got:__libc_single_threaded
	ldr	x0, [x20, #:got_lo12:__libc_single_threaded]
	ldrb	w0, [x0]
	cbz	w0, .L730
	ldr	w0, [x22, 8]
	sub	w1, w0, #1
	str	w1, [x22, 8]
.L731:
	cmp	w0, 1
	beq	.L831
.L729:
	ldr	x22, [x19, 136]
	cbz	x22, .L736
	adrp	x20, :got:__libc_single_threaded
	ldr	x0, [x20, #:got_lo12:__libc_single_threaded]
	ldrb	w0, [x0]
	cbz	w0, .L737
	ldr	w0, [x22, 8]
	sub	w1, w0, #1
	str	w1, [x22, 8]
.L738:
	cmp	w0, 1
	beq	.L832
.L736:
	ldr	x22, [x19, 120]
	cbz	x22, .L743
	adrp	x20, :got:__libc_single_threaded
	ldr	x0, [x20, #:got_lo12:__libc_single_threaded]
	ldrb	w0, [x0]
	cbz	w0, .L744
	ldr	w0, [x22, 8]
	sub	w1, w0, #1
	str	w1, [x22, 8]
.L745:
	cmp	w0, 1
	beq	.L833
.L743:
	ldr	x22, [x19, 104]
	cbz	x22, .L750
	adrp	x20, :got:__libc_single_threaded
	ldr	x0, [x20, #:got_lo12:__libc_single_threaded]
	ldrb	w0, [x0]
	cbz	w0, .L751
	ldr	w0, [x22, 8]
	sub	w1, w0, #1
	str	w1, [x22, 8]
.L752:
	cmp	w0, 1
	beq	.L834
.L750:
	ldr	x22, [x19, 88]
	cbz	x22, .L757
	adrp	x20, :got:__libc_single_threaded
	ldr	x0, [x20, #:got_lo12:__libc_single_threaded]
	ldrb	w0, [x0]
	cbz	w0, .L758
	ldr	w0, [x22, 8]
	sub	w1, w0, #1
	str	w1, [x22, 8]
.L759:
	cmp	w0, 1
	beq	.L835
.L757:
	ldr	x22, [x19, 72]
	cbz	x22, .L764
	adrp	x20, :got:__libc_single_threaded
	ldr	x0, [x20, #:got_lo12:__libc_single_threaded]
	ldrb	w0, [x0]
	cbz	w0, .L765
	ldr	w0, [x22, 8]
	sub	w1, w0, #1
	str	w1, [x22, 8]
.L766:
	cmp	w0, 1
	beq	.L836
.L764:
	ldr	x22, [x19, 56]
	cbz	x22, .L771
	adrp	x20, :got:__libc_single_threaded
	ldr	x0, [x20, #:got_lo12:__libc_single_threaded]
	ldrb	w0, [x0]
	cbz	w0, .L772
	ldr	w0, [x22, 8]
	sub	w1, w0, #1
	str	w1, [x22, 8]
.L773:
	cmp	w0, 1
	beq	.L837
.L771:
	ldr	x22, [x19, 40]
	cbz	x22, .L778
	adrp	x20, :got:__libc_single_threaded
	ldr	x0, [x20, #:got_lo12:__libc_single_threaded]
	ldrb	w0, [x0]
	cbz	w0, .L779
	ldr	w0, [x22, 8]
	sub	w1, w0, #1
	str	w1, [x22, 8]
.L780:
	cmp	w0, 1
	beq	.L838
.L778:
	ldr	x19, [x19, 24]
	cbz	x19, .L785
	adrp	x0, :got:__libc_single_threaded
	ldr	x0, [x0, #:got_lo12:__libc_single_threaded]
	ldrb	w0, [x0]
	cbz	w0, .L786
	ldr	w0, [x19, 12]
	sub	w1, w0, #1
	str	w1, [x19, 12]
.L787:
	cmp	w0, 1
	beq	.L839
.L785:
	mov	x0, x21
	mov	x1, 1104
	ldp	x19, x20, [sp, 16]
	ldp	x21, x22, [sp, 32]
	ldp	x29, x30, [sp], 48
	.cfi_remember_state
	.cfi_restore 30
	.cfi_restore 29
	.cfi_restore 21
	.cfi_restore 22
	.cfi_restore 19
	.cfi_restore 20
	.cfi_def_cfa_offset 0
	b	_ZdlPvm
	.p2align 2,,3
.L826:
	.cfi_restore_state
	ldr	x1, [x22]
	mov	x0, x22
	ldr	x1, [x1, 16]
	blr	x1
	ldr	x20, [x20, #:got_lo12:__libc_single_threaded]
	ldrb	w0, [x20]
	cbz	w0, .L698
	ldr	w0, [x22, 12]
	sub	w1, w0, #1
	str	w1, [x22, 12]
.L699:
	cmp	w0, 1
	bne	.L694
	ldr	x1, [x22]
	mov	x0, x22
	ldr	x1, [x1, 24]
	blr	x1
	b	.L694
	.p2align 2,,3
.L827:
	ldr	x1, [x22]
	mov	x0, x22
	ldr	x1, [x1, 16]
	blr	x1
	ldr	x20, [x20, #:got_lo12:__libc_single_threaded]
	ldrb	w0, [x20]
	cbz	w0, .L705
	ldr	w0, [x22, 12]
	sub	w1, w0, #1
	str	w1, [x22, 12]
.L706:
	cmp	w0, 1
	bne	.L701
	ldr	x1, [x22]
	mov	x0, x22
	ldr	x1, [x1, 24]
	blr	x1
	b	.L701
	.p2align 2,,3
.L828:
	ldr	x1, [x22]
	mov	x0, x22
	ldr	x1, [x1, 16]
	blr	x1
	ldr	x20, [x20, #:got_lo12:__libc_single_threaded]
	ldrb	w0, [x20]
	cbz	w0, .L712
	ldr	w0, [x22, 12]
	sub	w1, w0, #1
	str	w1, [x22, 12]
.L713:
	cmp	w0, 1
	bne	.L708
	ldr	x1, [x22]
	mov	x0, x22
	ldr	x1, [x1, 24]
	blr	x1
	b	.L708
	.p2align 2,,3
.L829:
	ldr	x1, [x22]
	mov	x0, x22
	ldr	x1, [x1, 16]
	blr	x1
	ldr	x20, [x20, #:got_lo12:__libc_single_threaded]
	ldrb	w0, [x20]
	cbz	w0, .L719
	ldr	w0, [x22, 12]
	sub	w1, w0, #1
	str	w1, [x22, 12]
.L720:
	cmp	w0, 1
	bne	.L715
	ldr	x1, [x22]
	mov	x0, x22
	ldr	x1, [x1, 24]
	blr	x1
	b	.L715
	.p2align 2,,3
.L830:
	ldr	x1, [x22]
	mov	x0, x22
	ldr	x1, [x1, 16]
	blr	x1
	ldr	x20, [x20, #:got_lo12:__libc_single_threaded]
	ldrb	w0, [x20]
	cbz	w0, .L726
	ldr	w0, [x22, 12]
	sub	w1, w0, #1
	str	w1, [x22, 12]
.L727:
	cmp	w0, 1
	bne	.L722
	ldr	x1, [x22]
	mov	x0, x22
	ldr	x1, [x1, 24]
	blr	x1
	b	.L722
	.p2align 2,,3
.L834:
	ldr	x1, [x22]
	mov	x0, x22
	ldr	x1, [x1, 16]
	blr	x1
	ldr	x20, [x20, #:got_lo12:__libc_single_threaded]
	ldrb	w0, [x20]
	cbz	w0, .L754
	ldr	w0, [x22, 12]
	sub	w1, w0, #1
	str	w1, [x22, 12]
.L755:
	cmp	w0, 1
	bne	.L750
	ldr	x1, [x22]
	mov	x0, x22
	ldr	x1, [x1, 24]
	blr	x1
	b	.L750
	.p2align 2,,3
.L832:
	ldr	x1, [x22]
	mov	x0, x22
	ldr	x1, [x1, 16]
	blr	x1
	ldr	x20, [x20, #:got_lo12:__libc_single_threaded]
	ldrb	w0, [x20]
	cbz	w0, .L740
	ldr	w0, [x22, 12]
	sub	w1, w0, #1
	str	w1, [x22, 12]
.L741:
	cmp	w0, 1
	bne	.L736
	ldr	x1, [x22]
	mov	x0, x22
	ldr	x1, [x1, 24]
	blr	x1
	b	.L736
	.p2align 2,,3
.L836:
	ldr	x1, [x22]
	mov	x0, x22
	ldr	x1, [x1, 16]
	blr	x1
	ldr	x20, [x20, #:got_lo12:__libc_single_threaded]
	ldrb	w0, [x20]
	cbz	w0, .L768
	ldr	w0, [x22, 12]
	sub	w1, w0, #1
	str	w1, [x22, 12]
.L769:
	cmp	w0, 1
	bne	.L764
	ldr	x1, [x22]
	mov	x0, x22
	ldr	x1, [x1, 24]
	blr	x1
	b	.L764
	.p2align 2,,3
.L831:
	ldr	x1, [x22]
	mov	x0, x22
	ldr	x1, [x1, 16]
	blr	x1
	ldr	x20, [x20, #:got_lo12:__libc_single_threaded]
	ldrb	w0, [x20]
	cbz	w0, .L733
	ldr	w0, [x22, 12]
	sub	w1, w0, #1
	str	w1, [x22, 12]
.L734:
	cmp	w0, 1
	bne	.L729
	ldr	x1, [x22]
	mov	x0, x22
	ldr	x1, [x1, 24]
	blr	x1
	b	.L729
	.p2align 2,,3
.L835:
	ldr	x1, [x22]
	mov	x0, x22
	ldr	x1, [x1, 16]
	blr	x1
	ldr	x20, [x20, #:got_lo12:__libc_single_threaded]
	ldrb	w0, [x20]
	cbz	w0, .L761
	ldr	w0, [x22, 12]
	sub	w1, w0, #1
	str	w1, [x22, 12]
.L762:
	cmp	w0, 1
	bne	.L757
	ldr	x1, [x22]
	mov	x0, x22
	ldr	x1, [x1, 24]
	blr	x1
	b	.L757
	.p2align 2,,3
.L833:
	ldr	x1, [x22]
	mov	x0, x22
	ldr	x1, [x1, 16]
	blr	x1
	ldr	x20, [x20, #:got_lo12:__libc_single_threaded]
	ldrb	w0, [x20]
	cbz	w0, .L747
	ldr	w0, [x22, 12]
	sub	w1, w0, #1
	str	w1, [x22, 12]
.L748:
	cmp	w0, 1
	bne	.L743
	ldr	x1, [x22]
	mov	x0, x22
	ldr	x1, [x1, 24]
	blr	x1
	b	.L743
	.p2align 2,,3
.L837:
	ldr	x1, [x22]
	mov	x0, x22
	ldr	x1, [x1, 16]
	blr	x1
	ldr	x20, [x20, #:got_lo12:__libc_single_threaded]
	ldrb	w0, [x20]
	cbz	w0, .L775
	ldr	w0, [x22, 12]
	sub	w1, w0, #1
	str	w1, [x22, 12]
.L776:
	cmp	w0, 1
	bne	.L771
	ldr	x1, [x22]
	mov	x0, x22
	ldr	x1, [x1, 24]
	blr	x1
	b	.L771
	.p2align 2,,3
.L838:
	ldr	x1, [x22]
	mov	x0, x22
	ldr	x1, [x1, 16]
	blr	x1
	ldr	x20, [x20, #:got_lo12:__libc_single_threaded]
	ldrb	w0, [x20]
	cbz	w0, .L782
	ldr	w0, [x22, 12]
	sub	w1, w0, #1
	str	w1, [x22, 12]
.L783:
	cmp	w0, 1
	bne	.L778
	ldr	x1, [x22]
	mov	x0, x22
	ldr	x1, [x1, 24]
	blr	x1
	b	.L778
	.p2align 2,,3
.L839:
	ldr	x1, [x19]
	mov	x0, x19
	ldr	x1, [x1, 24]
	blr	x1
	mov	x0, x21
	mov	x1, 1104
	ldp	x19, x20, [sp, 16]
	ldp	x21, x22, [sp, 32]
	ldp	x29, x30, [sp], 48
	.cfi_remember_state
	.cfi_restore 30
	.cfi_restore 29
	.cfi_restore 21
	.cfi_restore 22
	.cfi_restore 19
	.cfi_restore 20
	.cfi_def_cfa_offset 0
	b	_ZdlPvm
	.p2align 2,,3
.L758:
	.cfi_restore_state
	add	x1, x22, 8
	mov	w0, -1
	bl	__aarch64_ldadd4_acq_rel
	b	.L759
	.p2align 2,,3
.L765:
	add	x1, x22, 8
	mov	w0, -1
	bl	__aarch64_ldadd4_acq_rel
	b	.L766
	.p2align 2,,3
.L716:
	add	x1, x22, 8
	mov	w0, -1
	bl	__aarch64_ldadd4_acq_rel
	b	.L717
	.p2align 2,,3
.L723:
	add	x1, x22, 8
	mov	w0, -1
	bl	__aarch64_ldadd4_acq_rel
	b	.L724
	.p2align 2,,3
.L702:
	add	x1, x22, 8
	mov	w0, -1
	bl	__aarch64_ldadd4_acq_rel
	b	.L703
	.p2align 2,,3
.L709:
	add	x1, x22, 8
	mov	w0, -1
	bl	__aarch64_ldadd4_acq_rel
	b	.L710
	.p2align 2,,3
.L786:
	add	x1, x19, 12
	mov	w0, -1
	bl	__aarch64_ldadd4_acq_rel
	b	.L787
	.p2align 2,,3
.L695:
	add	x1, x22, 8
	mov	w0, -1
	bl	__aarch64_ldadd4_acq_rel
	b	.L696
	.p2align 2,,3
.L730:
	add	x1, x22, 8
	mov	w0, -1
	bl	__aarch64_ldadd4_acq_rel
	b	.L731
	.p2align 2,,3
.L737:
	add	x1, x22, 8
	mov	w0, -1
	bl	__aarch64_ldadd4_acq_rel
	b	.L738
	.p2align 2,,3
.L772:
	add	x1, x22, 8
	mov	w0, -1
	bl	__aarch64_ldadd4_acq_rel
	b	.L773
	.p2align 2,,3
.L779:
	add	x1, x22, 8
	mov	w0, -1
	bl	__aarch64_ldadd4_acq_rel
	b	.L780
	.p2align 2,,3
.L744:
	add	x1, x22, 8
	mov	w0, -1
	bl	__aarch64_ldadd4_acq_rel
	b	.L745
	.p2align 2,,3
.L751:
	add	x1, x22, 8
	mov	w0, -1
	bl	__aarch64_ldadd4_acq_rel
	b	.L752
	.p2align 2,,3
.L698:
	add	x1, x22, 12
	mov	w0, -1
	bl	__aarch64_ldadd4_acq_rel
	b	.L699
	.p2align 2,,3
.L705:
	add	x1, x22, 12
	mov	w0, -1
	bl	__aarch64_ldadd4_acq_rel
	b	.L706
	.p2align 2,,3
.L712:
	add	x1, x22, 12
	mov	w0, -1
	bl	__aarch64_ldadd4_acq_rel
	b	.L713
	.p2align 2,,3
.L775:
	add	x1, x22, 12
	mov	w0, -1
	bl	__aarch64_ldadd4_acq_rel
	b	.L776
	.p2align 2,,3
.L782:
	add	x1, x22, 12
	mov	w0, -1
	bl	__aarch64_ldadd4_acq_rel
	b	.L783
	.p2align 2,,3
.L719:
	add	x1, x22, 12
	mov	w0, -1
	bl	__aarch64_ldadd4_acq_rel
	b	.L720
	.p2align 2,,3
.L768:
	add	x1, x22, 12
	mov	w0, -1
	bl	__aarch64_ldadd4_acq_rel
	b	.L769
	.p2align 2,,3
.L754:
	add	x1, x22, 12
	mov	w0, -1
	bl	__aarch64_ldadd4_acq_rel
	b	.L755
	.p2align 2,,3
.L761:
	add	x1, x22, 12
	mov	w0, -1
	bl	__aarch64_ldadd4_acq_rel
	b	.L762
	.p2align 2,,3
.L726:
	add	x1, x22, 12
	mov	w0, -1
	bl	__aarch64_ldadd4_acq_rel
	b	.L727
	.p2align 2,,3
.L733:
	add	x1, x22, 12
	mov	w0, -1
	bl	__aarch64_ldadd4_acq_rel
	b	.L734
	.p2align 2,,3
.L740:
	add	x1, x22, 12
	mov	w0, -1
	bl	__aarch64_ldadd4_acq_rel
	b	.L741
	.p2align 2,,3
.L747:
	add	x1, x22, 12
	mov	w0, -1
	bl	__aarch64_ldadd4_acq_rel
	b	.L748
	.cfi_endproc
.LFE12135:
	.size	_ZThn8_N8asiodnp315OutstationStackD0Ev, .-_ZThn8_N8asiodnp315OutstationStackD0Ev
	.align	2
	.p2align 4,,11
	.weak	_ZThn16_N8asiodnp315OutstationStackD0Ev
	.type	_ZThn16_N8asiodnp315OutstationStackD0Ev, %function
_ZThn16_N8asiodnp315OutstationStackD0Ev:
.LFB12134:
	.cfi_startproc
	stp	x29, x30, [sp, -48]!
	.cfi_def_cfa_offset 48
	.cfi_offset 29, -48
	.cfi_offset 30, -40
	adrp	x1, :got:_ZTVN8asiodnp315OutstationStackE
	adrp	x2, :got:_ZTVN8opendnp38OContextE
	mov	x29, sp
	ldr	x1, [x1, #:got_lo12:_ZTVN8asiodnp315OutstationStackE]
	stp	x19, x20, [sp, 16]
	.cfi_offset 19, -32
	.cfi_offset 20, -24
	mov	x19, x0
	adrp	x20, :got:_ZTVN7openpal5ArrayIhjEE
	stp	x21, x22, [sp, 32]
	.cfi_offset 21, -16
	.cfi_offset 22, -8
	sub	x21, x0, #16
	ldr	x2, [x2, #:got_lo12:_ZTVN8opendnp38OContextE]
	add	x0, x1, 16
	ldr	x3, [x20, #:got_lo12:_ZTVN7openpal5ArrayIhjEE]
	str	x0, [x19, -16]
	ldr	x0, [x19, 1072]
	add	x4, x1, 144
	add	x1, x1, 208
	stp	x4, x1, [x21, 8]
	add	x1, x2, 16
	add	x2, x3, 16
	str	x1, [x19, 136]
	str	x2, [x19, 1056]
	cbz	x0, .L841
	bl	_ZdaPv
.L841:
	ldr	x1, [x20, #:got_lo12:_ZTVN7openpal5ArrayIhjEE]
	ldr	x0, [x19, 1016]
	add	x1, x1, 16
	str	x1, [x19, 1000]
	cbz	x0, .L842
	bl	_ZdaPv
.L842:
	ldr	x20, [x20, #:got_lo12:_ZTVN7openpal5ArrayIhjEE]
	ldr	x0, [x19, 936]
	add	x20, x20, 16
	str	x20, [x19, 920]
	cbz	x0, .L843
	bl	_ZdaPv
.L843:
	add	x0, x19, 864
	bl	_ZN7openpal8TimerRefD1Ev
	adrp	x0, :got:_ZTVN8opendnp315DatabaseBuffersE
	adrp	x3, :got:_ZTVN8opendnp38DatabaseE
	adrp	x1, :got:_ZTVN7openpal5ArrayIN8opendnp34CellINS1_19TimeAndIntervalSpecEEEtEE
	add	x4, x19, 520
	ldr	x0, [x0, #:got_lo12:_ZTVN8opendnp315DatabaseBuffersE]
	ldr	x3, [x3, #:got_lo12:_ZTVN8opendnp38DatabaseE]
	add	x5, x0, 88
	ldr	x2, [x1, #:got_lo12:_ZTVN7openpal5ArrayIN8opendnp34CellINS1_19TimeAndIntervalSpecEEEtEE]
	add	x1, x0, 16
	add	x3, x3, 16
	str	x3, [x19, 496]
	str	x1, [x19, 520]
	add	x1, x0, 120
	ldr	x0, [x19, 728]
	stp	x5, x1, [x4, 8]
	add	x1, x2, 16
	str	x1, [x19, 712]
	cbz	x0, .L844
	bl	_ZdaPv
.L844:
	adrp	x1, :got:_ZTVN7openpal5ArrayIN8opendnp34CellINS1_22AnalogOutputStatusSpecEEEtEE
	ldr	x0, [x19, 704]
	ldr	x1, [x1, #:got_lo12:_ZTVN7openpal5ArrayIN8opendnp34CellINS1_22AnalogOutputStatusSpecEEEtEE]
	add	x1, x1, 16
	str	x1, [x19, 688]
	cbz	x0, .L845
	bl	_ZdaPv
.L845:
	adrp	x1, :got:_ZTVN7openpal5ArrayIN8opendnp34CellINS1_22BinaryOutputStatusSpecEEEtEE
	ldr	x0, [x19, 680]
	ldr	x1, [x1, #:got_lo12:_ZTVN7openpal5ArrayIN8opendnp34CellINS1_22BinaryOutputStatusSpecEEEtEE]
	add	x1, x1, 16
	str	x1, [x19, 664]
	cbz	x0, .L846
	bl	_ZdaPv
.L846:
	adrp	x1, :got:_ZTVN7openpal5ArrayIN8opendnp34CellINS1_17FrozenCounterSpecEEEtEE
	ldr	x0, [x19, 656]
	ldr	x1, [x1, #:got_lo12:_ZTVN7openpal5ArrayIN8opendnp34CellINS1_17FrozenCounterSpecEEEtEE]
	add	x1, x1, 16
	str	x1, [x19, 640]
	cbz	x0, .L847
	bl	_ZdaPv
.L847:
	adrp	x1, :got:_ZTVN7openpal5ArrayIN8opendnp34CellINS1_11CounterSpecEEEtEE
	ldr	x0, [x19, 632]
	ldr	x1, [x1, #:got_lo12:_ZTVN7openpal5ArrayIN8opendnp34CellINS1_11CounterSpecEEEtEE]
	add	x1, x1, 16
	str	x1, [x19, 616]
	cbz	x0, .L848
	bl	_ZdaPv
.L848:
	adrp	x1, :got:_ZTVN7openpal5ArrayIN8opendnp34CellINS1_10AnalogSpecEEEtEE
	ldr	x0, [x19, 608]
	ldr	x1, [x1, #:got_lo12:_ZTVN7openpal5ArrayIN8opendnp34CellINS1_10AnalogSpecEEEtEE]
	add	x1, x1, 16
	str	x1, [x19, 592]
	cbz	x0, .L849
	bl	_ZdaPv
.L849:
	adrp	x1, :got:_ZTVN7openpal5ArrayIN8opendnp34CellINS1_19DoubleBitBinarySpecEEEtEE
	ldr	x0, [x19, 584]
	ldr	x1, [x1, #:got_lo12:_ZTVN7openpal5ArrayIN8opendnp34CellINS1_19DoubleBitBinarySpecEEEtEE]
	add	x1, x1, 16
	str	x1, [x19, 568]
	cbz	x0, .L850
	bl	_ZdaPv
.L850:
	adrp	x1, :got:_ZTVN7openpal5ArrayIN8opendnp34CellINS1_10BinarySpecEEEtEE
	ldr	x0, [x19, 560]
	ldr	x1, [x1, #:got_lo12:_ZTVN7openpal5ArrayIN8opendnp34CellINS1_10BinarySpecEEEtEE]
	add	x1, x1, 16
	str	x1, [x19, 544]
	cbz	x0, .L851
	bl	_ZdaPv
.L851:
	adrp	x1, :got:_ZTVN8opendnp311EventBufferE
	adrp	x2, :got:_ZTVN7openpal5ArrayINS_8ListNodeIN8opendnp39SOERecordEEEjEE
	ldr	x1, [x1, #:got_lo12:_ZTVN8opendnp311EventBufferE]
	ldr	x2, [x2, #:got_lo12:_ZTVN7openpal5ArrayINS_8ListNodeIN8opendnp39SOERecordEEEjEE]
	add	x0, x1, 16
	add	x5, x1, 160
	stp	x0, x5, [x19, 240]
	add	x4, x1, 192
	ldr	x0, [x19, 344]
	add	x1, x1, 224
	add	x2, x2, 16
	stp	x4, x1, [x19, 256]
	str	x2, [x19, 328]
	cbz	x0, .L852
	bl	_ZdaPv
.L852:
	ldr	x22, [x19, 232]
	cbz	x22, .L854
	adrp	x20, :got:__libc_single_threaded
	ldr	x0, [x20, #:got_lo12:__libc_single_threaded]
	ldrb	w0, [x0]
	cbz	w0, .L855
	ldr	w0, [x22, 8]
	sub	w1, w0, #1
	str	w1, [x22, 8]
.L856:
	cmp	w0, 1
	beq	.L986
.L854:
	ldr	x22, [x19, 216]
	cbz	x22, .L861
	adrp	x20, :got:__libc_single_threaded
	ldr	x0, [x20, #:got_lo12:__libc_single_threaded]
	ldrb	w0, [x0]
	cbz	w0, .L862
	ldr	w0, [x22, 8]
	sub	w1, w0, #1
	str	w1, [x22, 8]
.L863:
	cmp	w0, 1
	beq	.L987
.L861:
	ldr	x22, [x19, 200]
	cbz	x22, .L868
	adrp	x20, :got:__libc_single_threaded
	ldr	x0, [x20, #:got_lo12:__libc_single_threaded]
	ldrb	w0, [x0]
	cbz	w0, .L869
	ldr	w0, [x22, 8]
	sub	w1, w0, #1
	str	w1, [x22, 8]
.L870:
	cmp	w0, 1
	beq	.L988
.L868:
	ldr	x22, [x19, 184]
	cbz	x22, .L875
	adrp	x20, :got:__libc_single_threaded
	ldr	x0, [x20, #:got_lo12:__libc_single_threaded]
	ldrb	w0, [x0]
	cbz	w0, .L876
	ldr	w0, [x22, 8]
	sub	w1, w0, #1
	str	w1, [x22, 8]
.L877:
	cmp	w0, 1
	beq	.L989
.L875:
	ldr	x22, [x19, 168]
	cbz	x22, .L882
	adrp	x20, :got:__libc_single_threaded
	ldr	x0, [x20, #:got_lo12:__libc_single_threaded]
	ldrb	w0, [x0]
	cbz	w0, .L883
	ldr	w0, [x22, 8]
	sub	w1, w0, #1
	str	w1, [x22, 8]
.L884:
	cmp	w0, 1
	beq	.L990
.L882:
	ldr	x22, [x19, 152]
	cbz	x22, .L889
	adrp	x20, :got:__libc_single_threaded
	ldr	x0, [x20, #:got_lo12:__libc_single_threaded]
	ldrb	w0, [x0]
	cbz	w0, .L890
	ldr	w0, [x22, 8]
	sub	w1, w0, #1
	str	w1, [x22, 8]
.L891:
	cmp	w0, 1
	beq	.L991
.L889:
	ldr	x22, [x19, 128]
	cbz	x22, .L896
	adrp	x20, :got:__libc_single_threaded
	ldr	x0, [x20, #:got_lo12:__libc_single_threaded]
	ldrb	w0, [x0]
	cbz	w0, .L897
	ldr	w0, [x22, 8]
	sub	w1, w0, #1
	str	w1, [x22, 8]
.L898:
	cmp	w0, 1
	beq	.L992
.L896:
	ldr	x22, [x19, 112]
	cbz	x22, .L903
	adrp	x20, :got:__libc_single_threaded
	ldr	x0, [x20, #:got_lo12:__libc_single_threaded]
	ldrb	w0, [x0]
	cbz	w0, .L904
	ldr	w0, [x22, 8]
	sub	w1, w0, #1
	str	w1, [x22, 8]
.L905:
	cmp	w0, 1
	beq	.L993
.L903:
	ldr	x22, [x19, 96]
	cbz	x22, .L910
	adrp	x20, :got:__libc_single_threaded
	ldr	x0, [x20, #:got_lo12:__libc_single_threaded]
	ldrb	w0, [x0]
	cbz	w0, .L911
	ldr	w0, [x22, 8]
	sub	w1, w0, #1
	str	w1, [x22, 8]
.L912:
	cmp	w0, 1
	beq	.L994
.L910:
	ldr	x22, [x19, 80]
	cbz	x22, .L917
	adrp	x20, :got:__libc_single_threaded
	ldr	x0, [x20, #:got_lo12:__libc_single_threaded]
	ldrb	w0, [x0]
	cbz	w0, .L918
	ldr	w0, [x22, 8]
	sub	w1, w0, #1
	str	w1, [x22, 8]
.L919:
	cmp	w0, 1
	beq	.L995
.L917:
	ldr	x22, [x19, 64]
	cbz	x22, .L924
	adrp	x20, :got:__libc_single_threaded
	ldr	x0, [x20, #:got_lo12:__libc_single_threaded]
	ldrb	w0, [x0]
	cbz	w0, .L925
	ldr	w0, [x22, 8]
	sub	w1, w0, #1
	str	w1, [x22, 8]
.L926:
	cmp	w0, 1
	beq	.L996
.L924:
	ldr	x22, [x19, 48]
	cbz	x22, .L931
	adrp	x20, :got:__libc_single_threaded
	ldr	x0, [x20, #:got_lo12:__libc_single_threaded]
	ldrb	w0, [x0]
	cbz	w0, .L932
	ldr	w0, [x22, 8]
	sub	w1, w0, #1
	str	w1, [x22, 8]
.L933:
	cmp	w0, 1
	beq	.L997
.L931:
	ldr	x22, [x19, 32]
	cbz	x22, .L938
	adrp	x20, :got:__libc_single_threaded
	ldr	x0, [x20, #:got_lo12:__libc_single_threaded]
	ldrb	w0, [x0]
	cbz	w0, .L939
	ldr	w0, [x22, 8]
	sub	w1, w0, #1
	str	w1, [x22, 8]
.L940:
	cmp	w0, 1
	beq	.L998
.L938:
	ldr	x19, [x19, 16]
	cbz	x19, .L945
	adrp	x0, :got:__libc_single_threaded
	ldr	x0, [x0, #:got_lo12:__libc_single_threaded]
	ldrb	w0, [x0]
	cbz	w0, .L946
	ldr	w0, [x19, 12]
	sub	w1, w0, #1
	str	w1, [x19, 12]
.L947:
	cmp	w0, 1
	beq	.L999
.L945:
	mov	x0, x21
	mov	x1, 1104
	ldp	x19, x20, [sp, 16]
	ldp	x21, x22, [sp, 32]
	ldp	x29, x30, [sp], 48
	.cfi_remember_state
	.cfi_restore 30
	.cfi_restore 29
	.cfi_restore 21
	.cfi_restore 22
	.cfi_restore 19
	.cfi_restore 20
	.cfi_def_cfa_offset 0
	b	_ZdlPvm
	.p2align 2,,3
.L986:
	.cfi_restore_state
	ldr	x1, [x22]
	mov	x0, x22
	ldr	x1, [x1, 16]
	blr	x1
	ldr	x20, [x20, #:got_lo12:__libc_single_threaded]
	ldrb	w0, [x20]
	cbz	w0, .L858
	ldr	w0, [x22, 12]
	sub	w1, w0, #1
	str	w1, [x22, 12]
.L859:
	cmp	w0, 1
	bne	.L854
	ldr	x1, [x22]
	mov	x0, x22
	ldr	x1, [x1, 24]
	blr	x1
	b	.L854
	.p2align 2,,3
.L987:
	ldr	x1, [x22]
	mov	x0, x22
	ldr	x1, [x1, 16]
	blr	x1
	ldr	x20, [x20, #:got_lo12:__libc_single_threaded]
	ldrb	w0, [x20]
	cbz	w0, .L865
	ldr	w0, [x22, 12]
	sub	w1, w0, #1
	str	w1, [x22, 12]
.L866:
	cmp	w0, 1
	bne	.L861
	ldr	x1, [x22]
	mov	x0, x22
	ldr	x1, [x1, 24]
	blr	x1
	b	.L861
	.p2align 2,,3
.L988:
	ldr	x1, [x22]
	mov	x0, x22
	ldr	x1, [x1, 16]
	blr	x1
	ldr	x20, [x20, #:got_lo12:__libc_single_threaded]
	ldrb	w0, [x20]
	cbz	w0, .L872
	ldr	w0, [x22, 12]
	sub	w1, w0, #1
	str	w1, [x22, 12]
.L873:
	cmp	w0, 1
	bne	.L868
	ldr	x1, [x22]
	mov	x0, x22
	ldr	x1, [x1, 24]
	blr	x1
	b	.L868
	.p2align 2,,3
.L989:
	ldr	x1, [x22]
	mov	x0, x22
	ldr	x1, [x1, 16]
	blr	x1
	ldr	x20, [x20, #:got_lo12:__libc_single_threaded]
	ldrb	w0, [x20]
	cbz	w0, .L879
	ldr	w0, [x22, 12]
	sub	w1, w0, #1
	str	w1, [x22, 12]
.L880:
	cmp	w0, 1
	bne	.L875
	ldr	x1, [x22]
	mov	x0, x22
	ldr	x1, [x1, 24]
	blr	x1
	b	.L875
	.p2align 2,,3
.L990:
	ldr	x1, [x22]
	mov	x0, x22
	ldr	x1, [x1, 16]
	blr	x1
	ldr	x20, [x20, #:got_lo12:__libc_single_threaded]
	ldrb	w0, [x20]
	cbz	w0, .L886
	ldr	w0, [x22, 12]
	sub	w1, w0, #1
	str	w1, [x22, 12]
.L887:
	cmp	w0, 1
	bne	.L882
	ldr	x1, [x22]
	mov	x0, x22
	ldr	x1, [x1, 24]
	blr	x1
	b	.L882
	.p2align 2,,3
.L994:
	ldr	x1, [x22]
	mov	x0, x22
	ldr	x1, [x1, 16]
	blr	x1
	ldr	x20, [x20, #:got_lo12:__libc_single_threaded]
	ldrb	w0, [x20]
	cbz	w0, .L914
	ldr	w0, [x22, 12]
	sub	w1, w0, #1
	str	w1, [x22, 12]
.L915:
	cmp	w0, 1
	bne	.L910
	ldr	x1, [x22]
	mov	x0, x22
	ldr	x1, [x1, 24]
	blr	x1
	b	.L910
	.p2align 2,,3
.L992:
	ldr	x1, [x22]
	mov	x0, x22
	ldr	x1, [x1, 16]
	blr	x1
	ldr	x20, [x20, #:got_lo12:__libc_single_threaded]
	ldrb	w0, [x20]
	cbz	w0, .L900
	ldr	w0, [x22, 12]
	sub	w1, w0, #1
	str	w1, [x22, 12]
.L901:
	cmp	w0, 1
	bne	.L896
	ldr	x1, [x22]
	mov	x0, x22
	ldr	x1, [x1, 24]
	blr	x1
	b	.L896
	.p2align 2,,3
.L996:
	ldr	x1, [x22]
	mov	x0, x22
	ldr	x1, [x1, 16]
	blr	x1
	ldr	x20, [x20, #:got_lo12:__libc_single_threaded]
	ldrb	w0, [x20]
	cbz	w0, .L928
	ldr	w0, [x22, 12]
	sub	w1, w0, #1
	str	w1, [x22, 12]
.L929:
	cmp	w0, 1
	bne	.L924
	ldr	x1, [x22]
	mov	x0, x22
	ldr	x1, [x1, 24]
	blr	x1
	b	.L924
	.p2align 2,,3
.L991:
	ldr	x1, [x22]
	mov	x0, x22
	ldr	x1, [x1, 16]
	blr	x1
	ldr	x20, [x20, #:got_lo12:__libc_single_threaded]
	ldrb	w0, [x20]
	cbz	w0, .L893
	ldr	w0, [x22, 12]
	sub	w1, w0, #1
	str	w1, [x22, 12]
.L894:
	cmp	w0, 1
	bne	.L889
	ldr	x1, [x22]
	mov	x0, x22
	ldr	x1, [x1, 24]
	blr	x1
	b	.L889
	.p2align 2,,3
.L995:
	ldr	x1, [x22]
	mov	x0, x22
	ldr	x1, [x1, 16]
	blr	x1
	ldr	x20, [x20, #:got_lo12:__libc_single_threaded]
	ldrb	w0, [x20]
	cbz	w0, .L921
	ldr	w0, [x22, 12]
	sub	w1, w0, #1
	str	w1, [x22, 12]
.L922:
	cmp	w0, 1
	bne	.L917
	ldr	x1, [x22]
	mov	x0, x22
	ldr	x1, [x1, 24]
	blr	x1
	b	.L917
	.p2align 2,,3
.L993:
	ldr	x1, [x22]
	mov	x0, x22
	ldr	x1, [x1, 16]
	blr	x1
	ldr	x20, [x20, #:got_lo12:__libc_single_threaded]
	ldrb	w0, [x20]
	cbz	w0, .L907
	ldr	w0, [x22, 12]
	sub	w1, w0, #1
	str	w1, [x22, 12]
.L908:
	cmp	w0, 1
	bne	.L903
	ldr	x1, [x22]
	mov	x0, x22
	ldr	x1, [x1, 24]
	blr	x1
	b	.L903
	.p2align 2,,3
.L997:
	ldr	x1, [x22]
	mov	x0, x22
	ldr	x1, [x1, 16]
	blr	x1
	ldr	x20, [x20, #:got_lo12:__libc_single_threaded]
	ldrb	w0, [x20]
	cbz	w0, .L935
	ldr	w0, [x22, 12]
	sub	w1, w0, #1
	str	w1, [x22, 12]
.L936:
	cmp	w0, 1
	bne	.L931
	ldr	x1, [x22]
	mov	x0, x22
	ldr	x1, [x1, 24]
	blr	x1
	b	.L931
	.p2align 2,,3
.L998:
	ldr	x1, [x22]
	mov	x0, x22
	ldr	x1, [x1, 16]
	blr	x1
	ldr	x20, [x20, #:got_lo12:__libc_single_threaded]
	ldrb	w0, [x20]
	cbz	w0, .L942
	ldr	w0, [x22, 12]
	sub	w1, w0, #1
	str	w1, [x22, 12]
.L943:
	cmp	w0, 1
	bne	.L938
	ldr	x1, [x22]
	mov	x0, x22
	ldr	x1, [x1, 24]
	blr	x1
	b	.L938
	.p2align 2,,3
.L999:
	ldr	x1, [x19]
	mov	x0, x19
	ldr	x1, [x1, 24]
	blr	x1
	mov	x0, x21
	mov	x1, 1104
	ldp	x19, x20, [sp, 16]
	ldp	x21, x22, [sp, 32]
	ldp	x29, x30, [sp], 48
	.cfi_remember_state
	.cfi_restore 30
	.cfi_restore 29
	.cfi_restore 21
	.cfi_restore 22
	.cfi_restore 19
	.cfi_restore 20
	.cfi_def_cfa_offset 0
	b	_ZdlPvm
	.p2align 2,,3
.L918:
	.cfi_restore_state
	add	x1, x22, 8
	mov	w0, -1
	bl	__aarch64_ldadd4_acq_rel
	b	.L919
	.p2align 2,,3
.L925:
	add	x1, x22, 8
	mov	w0, -1
	bl	__aarch64_ldadd4_acq_rel
	b	.L926
	.p2align 2,,3
.L876:
	add	x1, x22, 8
	mov	w0, -1
	bl	__aarch64_ldadd4_acq_rel
	b	.L877
	.p2align 2,,3
.L883:
	add	x1, x22, 8
	mov	w0, -1
	bl	__aarch64_ldadd4_acq_rel
	b	.L884
	.p2align 2,,3
.L862:
	add	x1, x22, 8
	mov	w0, -1
	bl	__aarch64_ldadd4_acq_rel
	b	.L863
	.p2align 2,,3
.L869:
	add	x1, x22, 8
	mov	w0, -1
	bl	__aarch64_ldadd4_acq_rel
	b	.L870
	.p2align 2,,3
.L946:
	add	x1, x19, 12
	mov	w0, -1
	bl	__aarch64_ldadd4_acq_rel
	b	.L947
	.p2align 2,,3
.L855:
	add	x1, x22, 8
	mov	w0, -1
	bl	__aarch64_ldadd4_acq_rel
	b	.L856
	.p2align 2,,3
.L890:
	add	x1, x22, 8
	mov	w0, -1
	bl	__aarch64_ldadd4_acq_rel
	b	.L891
	.p2align 2,,3
.L897:
	add	x1, x22, 8
	mov	w0, -1
	bl	__aarch64_ldadd4_acq_rel
	b	.L898
	.p2align 2,,3
.L932:
	add	x1, x22, 8
	mov	w0, -1
	bl	__aarch64_ldadd4_acq_rel
	b	.L933
	.p2align 2,,3
.L939:
	add	x1, x22, 8
	mov	w0, -1
	bl	__aarch64_ldadd4_acq_rel
	b	.L940
	.p2align 2,,3
.L904:
	add	x1, x22, 8
	mov	w0, -1
	bl	__aarch64_ldadd4_acq_rel
	b	.L905
	.p2align 2,,3
.L911:
	add	x1, x22, 8
	mov	w0, -1
	bl	__aarch64_ldadd4_acq_rel
	b	.L912
	.p2align 2,,3
.L858:
	add	x1, x22, 12
	mov	w0, -1
	bl	__aarch64_ldadd4_acq_rel
	b	.L859
	.p2align 2,,3
.L865:
	add	x1, x22, 12
	mov	w0, -1
	bl	__aarch64_ldadd4_acq_rel
	b	.L866
	.p2align 2,,3
.L872:
	add	x1, x22, 12
	mov	w0, -1
	bl	__aarch64_ldadd4_acq_rel
	b	.L873
	.p2align 2,,3
.L935:
	add	x1, x22, 12
	mov	w0, -1
	bl	__aarch64_ldadd4_acq_rel
	b	.L936
	.p2align 2,,3
.L942:
	add	x1, x22, 12
	mov	w0, -1
	bl	__aarch64_ldadd4_acq_rel
	b	.L943
	.p2align 2,,3
.L879:
	add	x1, x22, 12
	mov	w0, -1
	bl	__aarch64_ldadd4_acq_rel
	b	.L880
	.p2align 2,,3
.L928:
	add	x1, x22, 12
	mov	w0, -1
	bl	__aarch64_ldadd4_acq_rel
	b	.L929
	.p2align 2,,3
.L914:
	add	x1, x22, 12
	mov	w0, -1
	bl	__aarch64_ldadd4_acq_rel
	b	.L915
	.p2align 2,,3
.L921:
	add	x1, x22, 12
	mov	w0, -1
	bl	__aarch64_ldadd4_acq_rel
	b	.L922
	.p2align 2,,3
.L886:
	add	x1, x22, 12
	mov	w0, -1
	bl	__aarch64_ldadd4_acq_rel
	b	.L887
	.p2align 2,,3
.L893:
	add	x1, x22, 12
	mov	w0, -1
	bl	__aarch64_ldadd4_acq_rel
	b	.L894
	.p2align 2,,3
.L900:
	add	x1, x22, 12
	mov	w0, -1
	bl	__aarch64_ldadd4_acq_rel
	b	.L901
	.p2align 2,,3
.L907:
	add	x1, x22, 12
	mov	w0, -1
	bl	__aarch64_ldadd4_acq_rel
	b	.L908
	.cfi_endproc
.LFE12134:
	.size	_ZThn16_N8asiodnp315OutstationStackD0Ev, .-_ZThn16_N8asiodnp315OutstationStackD0Ev
	.section	.text._ZN8asiodnp315OutstationStackD2Ev,"axG",@progbits,_ZN8asiodnp315OutstationStackD5Ev,comdat
	.align	2
	.p2align 4,,11
	.weak	_ZN8asiodnp315OutstationStackD2Ev
	.type	_ZN8asiodnp315OutstationStackD2Ev, %function
_ZN8asiodnp315OutstationStackD2Ev:
.LFB11838:
	.cfi_startproc
	stp	x29, x30, [sp, -48]!
	.cfi_def_cfa_offset 48
	.cfi_offset 29, -48
	.cfi_offset 30, -40
	adrp	x1, :got:_ZTVN8asiodnp315OutstationStackE
	adrp	x2, :got:_ZTVN8opendnp38OContextE
	mov	x29, sp
	stp	x19, x20, [sp, 16]
	.cfi_offset 19, -32
	.cfi_offset 20, -24
	adrp	x20, :got:_ZTVN7openpal5ArrayIhjEE
	mov	x19, x0
	ldr	x1, [x1, #:got_lo12:_ZTVN8asiodnp315OutstationStackE]
	ldr	x2, [x2, #:got_lo12:_ZTVN8opendnp38OContextE]
	add	x5, x1, 16
	ldr	x3, [x20, #:got_lo12:_ZTVN7openpal5ArrayIhjEE]
	add	x4, x1, 144
	ldr	x0, [x0, 1088]
	str	x21, [sp, 32]
	.cfi_offset 21, -16
	add	x1, x1, 208
	add	x2, x2, 16
	add	x3, x3, 16
	stp	x5, x4, [x19]
	str	x1, [x19, 16]
	str	x2, [x19, 152]
	str	x3, [x19, 1072]
	cbz	x0, .L1001
	bl	_ZdaPv
.L1001:
	ldr	x1, [x20, #:got_lo12:_ZTVN7openpal5ArrayIhjEE]
	ldr	x0, [x19, 1032]
	add	x1, x1, 16
	str	x1, [x19, 1016]
	cbz	x0, .L1002
	bl	_ZdaPv
.L1002:
	ldr	x20, [x20, #:got_lo12:_ZTVN7openpal5ArrayIhjEE]
	ldr	x0, [x19, 952]
	add	x20, x20, 16
	str	x20, [x19, 936]
	cbz	x0, .L1003
	bl	_ZdaPv
.L1003:
	add	x0, x19, 880
	bl	_ZN7openpal8TimerRefD1Ev
	adrp	x0, :got:_ZTVN8opendnp315DatabaseBuffersE
	adrp	x3, :got:_ZTVN8opendnp38DatabaseE
	adrp	x1, :got:_ZTVN7openpal5ArrayIN8opendnp34CellINS1_19TimeAndIntervalSpecEEEtEE
	add	x4, x19, 536
	ldr	x0, [x0, #:got_lo12:_ZTVN8opendnp315DatabaseBuffersE]
	ldr	x3, [x3, #:got_lo12:_ZTVN8opendnp38DatabaseE]
	add	x5, x0, 88
	ldr	x2, [x1, #:got_lo12:_ZTVN7openpal5ArrayIN8opendnp34CellINS1_19TimeAndIntervalSpecEEEtEE]
	add	x1, x0, 16
	add	x3, x3, 16
	str	x3, [x19, 512]
	str	x1, [x19, 536]
	add	x1, x0, 120
	ldr	x0, [x19, 744]
	stp	x5, x1, [x4, 8]
	add	x1, x2, 16
	str	x1, [x19, 728]
	cbz	x0, .L1004
	bl	_ZdaPv
.L1004:
	adrp	x1, :got:_ZTVN7openpal5ArrayIN8opendnp34CellINS1_22AnalogOutputStatusSpecEEEtEE
	ldr	x0, [x19, 720]
	ldr	x1, [x1, #:got_lo12:_ZTVN7openpal5ArrayIN8opendnp34CellINS1_22AnalogOutputStatusSpecEEEtEE]
	add	x1, x1, 16
	str	x1, [x19, 704]
	cbz	x0, .L1005
	bl	_ZdaPv
.L1005:
	adrp	x1, :got:_ZTVN7openpal5ArrayIN8opendnp34CellINS1_22BinaryOutputStatusSpecEEEtEE
	ldr	x0, [x19, 696]
	ldr	x1, [x1, #:got_lo12:_ZTVN7openpal5ArrayIN8opendnp34CellINS1_22BinaryOutputStatusSpecEEEtEE]
	add	x1, x1, 16
	str	x1, [x19, 680]
	cbz	x0, .L1006
	bl	_ZdaPv
.L1006:
	adrp	x1, :got:_ZTVN7openpal5ArrayIN8opendnp34CellINS1_17FrozenCounterSpecEEEtEE
	ldr	x0, [x19, 672]
	ldr	x1, [x1, #:got_lo12:_ZTVN7openpal5ArrayIN8opendnp34CellINS1_17FrozenCounterSpecEEEtEE]
	add	x1, x1, 16
	str	x1, [x19, 656]
	cbz	x0, .L1007
	bl	_ZdaPv
.L1007:
	adrp	x1, :got:_ZTVN7openpal5ArrayIN8opendnp34CellINS1_11CounterSpecEEEtEE
	ldr	x0, [x19, 648]
	ldr	x1, [x1, #:got_lo12:_ZTVN7openpal5ArrayIN8opendnp34CellINS1_11CounterSpecEEEtEE]
	add	x1, x1, 16
	str	x1, [x19, 632]
	cbz	x0, .L1008
	bl	_ZdaPv
.L1008:
	adrp	x1, :got:_ZTVN7openpal5ArrayIN8opendnp34CellINS1_10AnalogSpecEEEtEE
	ldr	x0, [x19, 624]
	ldr	x1, [x1, #:got_lo12:_ZTVN7openpal5ArrayIN8opendnp34CellINS1_10AnalogSpecEEEtEE]
	add	x1, x1, 16
	str	x1, [x19, 608]
	cbz	x0, .L1009
	bl	_ZdaPv
.L1009:
	adrp	x1, :got:_ZTVN7openpal5ArrayIN8opendnp34CellINS1_19DoubleBitBinarySpecEEEtEE
	ldr	x0, [x19, 600]
	ldr	x1, [x1, #:got_lo12:_ZTVN7openpal5ArrayIN8opendnp34CellINS1_19DoubleBitBinarySpecEEEtEE]
	add	x1, x1, 16
	str	x1, [x19, 584]
	cbz	x0, .L1010
	bl	_ZdaPv
.L1010:
	adrp	x1, :got:_ZTVN7openpal5ArrayIN8opendnp34CellINS1_10BinarySpecEEEtEE
	ldr	x0, [x19, 576]
	ldr	x1, [x1, #:got_lo12:_ZTVN7openpal5ArrayIN8opendnp34CellINS1_10BinarySpecEEEtEE]
	add	x1, x1, 16
	str	x1, [x19, 560]
	cbz	x0, .L1011
	bl	_ZdaPv
.L1011:
	adrp	x1, :got:_ZTVN8opendnp311EventBufferE
	adrp	x2, :got:_ZTVN7openpal5ArrayINS_8ListNodeIN8opendnp39SOERecordEEEjEE
	ldr	x1, [x1, #:got_lo12:_ZTVN8opendnp311EventBufferE]
	ldr	x2, [x2, #:got_lo12:_ZTVN7openpal5ArrayINS_8ListNodeIN8opendnp39SOERecordEEEjEE]
	add	x0, x1, 16
	add	x5, x1, 160
	stp	x0, x5, [x19, 256]
	add	x4, x1, 192
	ldr	x0, [x19, 360]
	add	x1, x1, 224
	add	x2, x2, 16
	stp	x4, x1, [x19, 272]
	str	x2, [x19, 344]
	cbz	x0, .L1012
	bl	_ZdaPv
.L1012:
	ldr	x21, [x19, 248]
	cbz	x21, .L1014
	adrp	x20, :got:__libc_single_threaded
	ldr	x0, [x20, #:got_lo12:__libc_single_threaded]
	ldrb	w0, [x0]
	cbz	w0, .L1015
	ldr	w0, [x21, 8]
	sub	w1, w0, #1
	str	w1, [x21, 8]
.L1016:
	cmp	w0, 1
	beq	.L1146
.L1014:
	ldr	x21, [x19, 232]
	cbz	x21, .L1021
	adrp	x20, :got:__libc_single_threaded
	ldr	x0, [x20, #:got_lo12:__libc_single_threaded]
	ldrb	w0, [x0]
	cbz	w0, .L1022
	ldr	w0, [x21, 8]
	sub	w1, w0, #1
	str	w1, [x21, 8]
.L1023:
	cmp	w0, 1
	beq	.L1147
.L1021:
	ldr	x21, [x19, 216]
	cbz	x21, .L1028
	adrp	x20, :got:__libc_single_threaded
	ldr	x0, [x20, #:got_lo12:__libc_single_threaded]
	ldrb	w0, [x0]
	cbz	w0, .L1029
	ldr	w0, [x21, 8]
	sub	w1, w0, #1
	str	w1, [x21, 8]
.L1030:
	cmp	w0, 1
	beq	.L1148
.L1028:
	ldr	x21, [x19, 200]
	cbz	x21, .L1035
	adrp	x20, :got:__libc_single_threaded
	ldr	x0, [x20, #:got_lo12:__libc_single_threaded]
	ldrb	w0, [x0]
	cbz	w0, .L1036
	ldr	w0, [x21, 8]
	sub	w1, w0, #1
	str	w1, [x21, 8]
.L1037:
	cmp	w0, 1
	beq	.L1149
.L1035:
	ldr	x21, [x19, 184]
	cbz	x21, .L1042
	adrp	x20, :got:__libc_single_threaded
	ldr	x0, [x20, #:got_lo12:__libc_single_threaded]
	ldrb	w0, [x0]
	cbz	w0, .L1043
	ldr	w0, [x21, 8]
	sub	w1, w0, #1
	str	w1, [x21, 8]
.L1044:
	cmp	w0, 1
	beq	.L1150
.L1042:
	ldr	x21, [x19, 168]
	cbz	x21, .L1049
	adrp	x20, :got:__libc_single_threaded
	ldr	x0, [x20, #:got_lo12:__libc_single_threaded]
	ldrb	w0, [x0]
	cbz	w0, .L1050
	ldr	w0, [x21, 8]
	sub	w1, w0, #1
	str	w1, [x21, 8]
.L1051:
	cmp	w0, 1
	beq	.L1151
.L1049:
	ldr	x21, [x19, 144]
	cbz	x21, .L1056
	adrp	x20, :got:__libc_single_threaded
	ldr	x0, [x20, #:got_lo12:__libc_single_threaded]
	ldrb	w0, [x0]
	cbz	w0, .L1057
	ldr	w0, [x21, 8]
	sub	w1, w0, #1
	str	w1, [x21, 8]
.L1058:
	cmp	w0, 1
	beq	.L1152
.L1056:
	ldr	x21, [x19, 128]
	cbz	x21, .L1063
	adrp	x20, :got:__libc_single_threaded
	ldr	x0, [x20, #:got_lo12:__libc_single_threaded]
	ldrb	w0, [x0]
	cbz	w0, .L1064
	ldr	w0, [x21, 8]
	sub	w1, w0, #1
	str	w1, [x21, 8]
.L1065:
	cmp	w0, 1
	beq	.L1153
.L1063:
	ldr	x21, [x19, 112]
	cbz	x21, .L1070
	adrp	x20, :got:__libc_single_threaded
	ldr	x0, [x20, #:got_lo12:__libc_single_threaded]
	ldrb	w0, [x0]
	cbz	w0, .L1071
	ldr	w0, [x21, 8]
	sub	w1, w0, #1
	str	w1, [x21, 8]
.L1072:
	cmp	w0, 1
	beq	.L1154
.L1070:
	ldr	x21, [x19, 96]
	cbz	x21, .L1077
	adrp	x20, :got:__libc_single_threaded
	ldr	x0, [x20, #:got_lo12:__libc_single_threaded]
	ldrb	w0, [x0]
	cbz	w0, .L1078
	ldr	w0, [x21, 8]
	sub	w1, w0, #1
	str	w1, [x21, 8]
.L1079:
	cmp	w0, 1
	beq	.L1155
.L1077:
	ldr	x21, [x19, 80]
	cbz	x21, .L1084
	adrp	x20, :got:__libc_single_threaded
	ldr	x0, [x20, #:got_lo12:__libc_single_threaded]
	ldrb	w0, [x0]
	cbz	w0, .L1085
	ldr	w0, [x21, 8]
	sub	w1, w0, #1
	str	w1, [x21, 8]
.L1086:
	cmp	w0, 1
	beq	.L1156
.L1084:
	ldr	x21, [x19, 64]
	cbz	x21, .L1091
	adrp	x20, :got:__libc_single_threaded
	ldr	x0, [x20, #:got_lo12:__libc_single_threaded]
	ldrb	w0, [x0]
	cbz	w0, .L1092
	ldr	w0, [x21, 8]
	sub	w1, w0, #1
	str	w1, [x21, 8]
.L1093:
	cmp	w0, 1
	beq	.L1157
.L1091:
	ldr	x21, [x19, 48]
	cbz	x21, .L1098
	adrp	x20, :got:__libc_single_threaded
	ldr	x0, [x20, #:got_lo12:__libc_single_threaded]
	ldrb	w0, [x0]
	cbz	w0, .L1099
	ldr	w0, [x21, 8]
	sub	w1, w0, #1
	str	w1, [x21, 8]
.L1100:
	cmp	w0, 1
	beq	.L1158
.L1098:
	ldr	x19, [x19, 32]
	cbz	x19, .L1000
	adrp	x0, :got:__libc_single_threaded
	ldr	x0, [x0, #:got_lo12:__libc_single_threaded]
	ldrb	w0, [x0]
	cbz	w0, .L1106
	ldr	w0, [x19, 12]
	sub	w1, w0, #1
	str	w1, [x19, 12]
.L1107:
	cmp	w0, 1
	beq	.L1159
.L1000:
	ldp	x19, x20, [sp, 16]
	ldr	x21, [sp, 32]
	ldp	x29, x30, [sp], 48
	.cfi_remember_state
	.cfi_restore 30
	.cfi_restore 29
	.cfi_restore 21
	.cfi_restore 19
	.cfi_restore 20
	.cfi_def_cfa_offset 0
	ret
	.p2align 2,,3
.L1146:
	.cfi_restore_state
	ldr	x1, [x21]
	mov	x0, x21
	ldr	x1, [x1, 16]
	blr	x1
	ldr	x20, [x20, #:got_lo12:__libc_single_threaded]
	ldrb	w0, [x20]
	cbz	w0, .L1018
	ldr	w0, [x21, 12]
	sub	w1, w0, #1
	str	w1, [x21, 12]
.L1019:
	cmp	w0, 1
	bne	.L1014
	ldr	x1, [x21]
	mov	x0, x21
	ldr	x1, [x1, 24]
	blr	x1
	b	.L1014
	.p2align 2,,3
.L1147:
	ldr	x1, [x21]
	mov	x0, x21
	ldr	x1, [x1, 16]
	blr	x1
	ldr	x20, [x20, #:got_lo12:__libc_single_threaded]
	ldrb	w0, [x20]
	cbz	w0, .L1025
	ldr	w0, [x21, 12]
	sub	w1, w0, #1
	str	w1, [x21, 12]
.L1026:
	cmp	w0, 1
	bne	.L1021
	ldr	x1, [x21]
	mov	x0, x21
	ldr	x1, [x1, 24]
	blr	x1
	b	.L1021
	.p2align 2,,3
.L1148:
	ldr	x1, [x21]
	mov	x0, x21
	ldr	x1, [x1, 16]
	blr	x1
	ldr	x20, [x20, #:got_lo12:__libc_single_threaded]
	ldrb	w0, [x20]
	cbz	w0, .L1032
	ldr	w0, [x21, 12]
	sub	w1, w0, #1
	str	w1, [x21, 12]
.L1033:
	cmp	w0, 1
	bne	.L1028
	ldr	x1, [x21]
	mov	x0, x21
	ldr	x1, [x1, 24]
	blr	x1
	b	.L1028
	.p2align 2,,3
.L1149:
	ldr	x1, [x21]
	mov	x0, x21
	ldr	x1, [x1, 16]
	blr	x1
	ldr	x20, [x20, #:got_lo12:__libc_single_threaded]
	ldrb	w0, [x20]
	cbz	w0, .L1039
	ldr	w0, [x21, 12]
	sub	w1, w0, #1
	str	w1, [x21, 12]
.L1040:
	cmp	w0, 1
	bne	.L1035
	ldr	x1, [x21]
	mov	x0, x21
	ldr	x1, [x1, 24]
	blr	x1
	b	.L1035
	.p2align 2,,3
.L1150:
	ldr	x1, [x21]
	mov	x0, x21
	ldr	x1, [x1, 16]
	blr	x1
	ldr	x20, [x20, #:got_lo12:__libc_single_threaded]
	ldrb	w0, [x20]
	cbz	w0, .L1046
	ldr	w0, [x21, 12]
	sub	w1, w0, #1
	str	w1, [x21, 12]
.L1047:
	cmp	w0, 1
	bne	.L1042
	ldr	x1, [x21]
	mov	x0, x21
	ldr	x1, [x1, 24]
	blr	x1
	b	.L1042
	.p2align 2,,3
.L1154:
	ldr	x1, [x21]
	mov	x0, x21
	ldr	x1, [x1, 16]
	blr	x1
	ldr	x20, [x20, #:got_lo12:__libc_single_threaded]
	ldrb	w0, [x20]
	cbz	w0, .L1074
	ldr	w0, [x21, 12]
	sub	w1, w0, #1
	str	w1, [x21, 12]
.L1075:
	cmp	w0, 1
	bne	.L1070
	ldr	x1, [x21]
	mov	x0, x21
	ldr	x1, [x1, 24]
	blr	x1
	b	.L1070
	.p2align 2,,3
.L1152:
	ldr	x1, [x21]
	mov	x0, x21
	ldr	x1, [x1, 16]
	blr	x1
	ldr	x20, [x20, #:got_lo12:__libc_single_threaded]
	ldrb	w0, [x20]
	cbz	w0, .L1060
	ldr	w0, [x21, 12]
	sub	w1, w0, #1
	str	w1, [x21, 12]
.L1061:
	cmp	w0, 1
	bne	.L1056
	ldr	x1, [x21]
	mov	x0, x21
	ldr	x1, [x1, 24]
	blr	x1
	b	.L1056
	.p2align 2,,3
.L1156:
	ldr	x1, [x21]
	mov	x0, x21
	ldr	x1, [x1, 16]
	blr	x1
	ldr	x20, [x20, #:got_lo12:__libc_single_threaded]
	ldrb	w0, [x20]
	cbz	w0, .L1088
	ldr	w0, [x21, 12]
	sub	w1, w0, #1
	str	w1, [x21, 12]
.L1089:
	cmp	w0, 1
	bne	.L1084
	ldr	x1, [x21]
	mov	x0, x21
	ldr	x1, [x1, 24]
	blr	x1
	b	.L1084
	.p2align 2,,3
.L1151:
	ldr	x1, [x21]
	mov	x0, x21
	ldr	x1, [x1, 16]
	blr	x1
	ldr	x20, [x20, #:got_lo12:__libc_single_threaded]
	ldrb	w0, [x20]
	cbz	w0, .L1053
	ldr	w0, [x21, 12]
	sub	w1, w0, #1
	str	w1, [x21, 12]
.L1054:
	cmp	w0, 1
	bne	.L1049
	ldr	x1, [x21]
	mov	x0, x21
	ldr	x1, [x1, 24]
	blr	x1
	b	.L1049
	.p2align 2,,3
.L1155:
	ldr	x1, [x21]
	mov	x0, x21
	ldr	x1, [x1, 16]
	blr	x1
	ldr	x20, [x20, #:got_lo12:__libc_single_threaded]
	ldrb	w0, [x20]
	cbz	w0, .L1081
	ldr	w0, [x21, 12]
	sub	w1, w0, #1
	str	w1, [x21, 12]
.L1082:
	cmp	w0, 1
	bne	.L1077
	ldr	x1, [x21]
	mov	x0, x21
	ldr	x1, [x1, 24]
	blr	x1
	b	.L1077
	.p2align 2,,3
.L1153:
	ldr	x1, [x21]
	mov	x0, x21
	ldr	x1, [x1, 16]
	blr	x1
	ldr	x20, [x20, #:got_lo12:__libc_single_threaded]
	ldrb	w0, [x20]
	cbz	w0, .L1067
	ldr	w0, [x21, 12]
	sub	w1, w0, #1
	str	w1, [x21, 12]
.L1068:
	cmp	w0, 1
	bne	.L1063
	ldr	x1, [x21]
	mov	x0, x21
	ldr	x1, [x1, 24]
	blr	x1
	b	.L1063
	.p2align 2,,3
.L1157:
	ldr	x1, [x21]
	mov	x0, x21
	ldr	x1, [x1, 16]
	blr	x1
	ldr	x20, [x20, #:got_lo12:__libc_single_threaded]
	ldrb	w0, [x20]
	cbz	w0, .L1095
	ldr	w0, [x21, 12]
	sub	w1, w0, #1
	str	w1, [x21, 12]
.L1096:
	cmp	w0, 1
	bne	.L1091
	ldr	x1, [x21]
	mov	x0, x21
	ldr	x1, [x1, 24]
	blr	x1
	b	.L1091
	.p2align 2,,3
.L1158:
	ldr	x1, [x21]
	mov	x0, x21
	ldr	x1, [x1, 16]
	blr	x1
	ldr	x20, [x20, #:got_lo12:__libc_single_threaded]
	ldrb	w0, [x20]
	cbz	w0, .L1102
	ldr	w0, [x21, 12]
	sub	w1, w0, #1
	str	w1, [x21, 12]
.L1103:
	cmp	w0, 1
	bne	.L1098
	ldr	x1, [x21]
	mov	x0, x21
	ldr	x1, [x1, 24]
	blr	x1
	b	.L1098
	.p2align 2,,3
.L1159:
	ldr	x1, [x19]
	mov	x0, x19
	ldp	x19, x20, [sp, 16]
	ldr	x21, [sp, 32]
	ldp	x29, x30, [sp], 48
	.cfi_remember_state
	.cfi_restore 30
	.cfi_restore 29
	.cfi_restore 21
	.cfi_restore 19
	.cfi_restore 20
	.cfi_def_cfa_offset 0
	ldr	x1, [x1, 24]
	mov	x16, x1
	br	x16
	.p2align 2,,3
.L1078:
	.cfi_restore_state
	add	x1, x21, 8
	mov	w0, -1
	bl	__aarch64_ldadd4_acq_rel
	b	.L1079
	.p2align 2,,3
.L1085:
	add	x1, x21, 8
	mov	w0, -1
	bl	__aarch64_ldadd4_acq_rel
	b	.L1086
	.p2align 2,,3
.L1036:
	add	x1, x21, 8
	mov	w0, -1
	bl	__aarch64_ldadd4_acq_rel
	b	.L1037
	.p2align 2,,3
.L1043:
	add	x1, x21, 8
	mov	w0, -1
	bl	__aarch64_ldadd4_acq_rel
	b	.L1044
	.p2align 2,,3
.L1022:
	add	x1, x21, 8
	mov	w0, -1
	bl	__aarch64_ldadd4_acq_rel
	b	.L1023
	.p2align 2,,3
.L1029:
	add	x1, x21, 8
	mov	w0, -1
	bl	__aarch64_ldadd4_acq_rel
	b	.L1030
	.p2align 2,,3
.L1106:
	add	x1, x19, 12
	mov	w0, -1
	bl	__aarch64_ldadd4_acq_rel
	b	.L1107
	.p2align 2,,3
.L1015:
	add	x1, x21, 8
	mov	w0, -1
	bl	__aarch64_ldadd4_acq_rel
	b	.L1016
	.p2align 2,,3
.L1050:
	add	x1, x21, 8
	mov	w0, -1
	bl	__aarch64_ldadd4_acq_rel
	b	.L1051
	.p2align 2,,3
.L1057:
	add	x1, x21, 8
	mov	w0, -1
	bl	__aarch64_ldadd4_acq_rel
	b	.L1058
	.p2align 2,,3
.L1092:
	add	x1, x21, 8
	mov	w0, -1
	bl	__aarch64_ldadd4_acq_rel
	b	.L1093
	.p2align 2,,3
.L1099:
	add	x1, x21, 8
	mov	w0, -1
	bl	__aarch64_ldadd4_acq_rel
	b	.L1100
	.p2align 2,,3
.L1064:
	add	x1, x21, 8
	mov	w0, -1
	bl	__aarch64_ldadd4_acq_rel
	b	.L1065
	.p2align 2,,3
.L1071:
	add	x1, x21, 8
	mov	w0, -1
	bl	__aarch64_ldadd4_acq_rel
	b	.L1072
	.p2align 2,,3
.L1018:
	add	x1, x21, 12
	mov	w0, -1
	bl	__aarch64_ldadd4_acq_rel
	b	.L1019
	.p2align 2,,3
.L1025:
	add	x1, x21, 12
	mov	w0, -1
	bl	__aarch64_ldadd4_acq_rel
	b	.L1026
	.p2align 2,,3
.L1032:
	add	x1, x21, 12
	mov	w0, -1
	bl	__aarch64_ldadd4_acq_rel
	b	.L1033
	.p2align 2,,3
.L1095:
	add	x1, x21, 12
	mov	w0, -1
	bl	__aarch64_ldadd4_acq_rel
	b	.L1096
	.p2align 2,,3
.L1102:
	add	x1, x21, 12
	mov	w0, -1
	bl	__aarch64_ldadd4_acq_rel
	b	.L1103
	.p2align 2,,3
.L1039:
	add	x1, x21, 12
	mov	w0, -1
	bl	__aarch64_ldadd4_acq_rel
	b	.L1040
	.p2align 2,,3
.L1088:
	add	x1, x21, 12
	mov	w0, -1
	bl	__aarch64_ldadd4_acq_rel
	b	.L1089
	.p2align 2,,3
.L1074:
	add	x1, x21, 12
	mov	w0, -1
	bl	__aarch64_ldadd4_acq_rel
	b	.L1075
	.p2align 2,,3
.L1081:
	add	x1, x21, 12
	mov	w0, -1
	bl	__aarch64_ldadd4_acq_rel
	b	.L1082
	.p2align 2,,3
.L1046:
	add	x1, x21, 12
	mov	w0, -1
	bl	__aarch64_ldadd4_acq_rel
	b	.L1047
	.p2align 2,,3
.L1053:
	add	x1, x21, 12
	mov	w0, -1
	bl	__aarch64_ldadd4_acq_rel
	b	.L1054
	.p2align 2,,3
.L1060:
	add	x1, x21, 12
	mov	w0, -1
	bl	__aarch64_ldadd4_acq_rel
	b	.L1061
	.p2align 2,,3
.L1067:
	add	x1, x21, 12
	mov	w0, -1
	bl	__aarch64_ldadd4_acq_rel
	b	.L1068
	.cfi_endproc
.LFE11838:
	.size	_ZN8asiodnp315OutstationStackD2Ev, .-_ZN8asiodnp315OutstationStackD2Ev
	.weak	_ZN8asiodnp315OutstationStackD1Ev
	.set	_ZN8asiodnp315OutstationStackD1Ev,_ZN8asiodnp315OutstationStackD2Ev
	.section	.text._ZN8asiodnp315OutstationStackD0Ev,"axG",@progbits,_ZN8asiodnp315OutstationStackD5Ev,comdat
	.align	2
	.p2align 4,,11
	.weak	_ZN8asiodnp315OutstationStackD0Ev
	.type	_ZN8asiodnp315OutstationStackD0Ev, %function
_ZN8asiodnp315OutstationStackD0Ev:
.LFB11840:
	.cfi_startproc
	stp	x29, x30, [sp, -48]!
	.cfi_def_cfa_offset 48
	.cfi_offset 29, -48
	.cfi_offset 30, -40
	adrp	x1, :got:_ZTVN8asiodnp315OutstationStackE
	adrp	x2, :got:_ZTVN8opendnp38OContextE
	mov	x29, sp
	stp	x19, x20, [sp, 16]
	.cfi_offset 19, -32
	.cfi_offset 20, -24
	adrp	x20, :got:_ZTVN7openpal5ArrayIhjEE
	mov	x19, x0
	ldr	x1, [x1, #:got_lo12:_ZTVN8asiodnp315OutstationStackE]
	ldr	x2, [x2, #:got_lo12:_ZTVN8opendnp38OContextE]
	add	x5, x1, 16
	ldr	x3, [x20, #:got_lo12:_ZTVN7openpal5ArrayIhjEE]
	add	x4, x1, 144
	ldr	x0, [x0, 1088]
	str	x21, [sp, 32]
	.cfi_offset 21, -16
	add	x1, x1, 208
	add	x2, x2, 16
	add	x3, x3, 16
	stp	x5, x4, [x19]
	str	x1, [x19, 16]
	str	x2, [x19, 152]
	str	x3, [x19, 1072]
	cbz	x0, .L1161
	bl	_ZdaPv
.L1161:
	ldr	x1, [x20, #:got_lo12:_ZTVN7openpal5ArrayIhjEE]
	ldr	x0, [x19, 1032]
	add	x1, x1, 16
	str	x1, [x19, 1016]
	cbz	x0, .L1162
	bl	_ZdaPv
.L1162:
	ldr	x20, [x20, #:got_lo12:_ZTVN7openpal5ArrayIhjEE]
	ldr	x0, [x19, 952]
	add	x20, x20, 16
	str	x20, [x19, 936]
	cbz	x0, .L1163
	bl	_ZdaPv
.L1163:
	add	x0, x19, 880
	bl	_ZN7openpal8TimerRefD1Ev
	adrp	x0, :got:_ZTVN8opendnp315DatabaseBuffersE
	adrp	x3, :got:_ZTVN8opendnp38DatabaseE
	adrp	x1, :got:_ZTVN7openpal5ArrayIN8opendnp34CellINS1_19TimeAndIntervalSpecEEEtEE
	add	x4, x19, 536
	ldr	x0, [x0, #:got_lo12:_ZTVN8opendnp315DatabaseBuffersE]
	ldr	x3, [x3, #:got_lo12:_ZTVN8opendnp38DatabaseE]
	add	x5, x0, 88
	ldr	x2, [x1, #:got_lo12:_ZTVN7openpal5ArrayIN8opendnp34CellINS1_19TimeAndIntervalSpecEEEtEE]
	add	x1, x0, 16
	add	x3, x3, 16
	str	x3, [x19, 512]
	str	x1, [x19, 536]
	add	x1, x0, 120
	ldr	x0, [x19, 744]
	stp	x5, x1, [x4, 8]
	add	x1, x2, 16
	str	x1, [x19, 728]
	cbz	x0, .L1164
	bl	_ZdaPv
.L1164:
	adrp	x1, :got:_ZTVN7openpal5ArrayIN8opendnp34CellINS1_22AnalogOutputStatusSpecEEEtEE
	ldr	x0, [x19, 720]
	ldr	x1, [x1, #:got_lo12:_ZTVN7openpal5ArrayIN8opendnp34CellINS1_22AnalogOutputStatusSpecEEEtEE]
	add	x1, x1, 16
	str	x1, [x19, 704]
	cbz	x0, .L1165
	bl	_ZdaPv
.L1165:
	adrp	x1, :got:_ZTVN7openpal5ArrayIN8opendnp34CellINS1_22BinaryOutputStatusSpecEEEtEE
	ldr	x0, [x19, 696]
	ldr	x1, [x1, #:got_lo12:_ZTVN7openpal5ArrayIN8opendnp34CellINS1_22BinaryOutputStatusSpecEEEtEE]
	add	x1, x1, 16
	str	x1, [x19, 680]
	cbz	x0, .L1166
	bl	_ZdaPv
.L1166:
	adrp	x1, :got:_ZTVN7openpal5ArrayIN8opendnp34CellINS1_17FrozenCounterSpecEEEtEE
	ldr	x0, [x19, 672]
	ldr	x1, [x1, #:got_lo12:_ZTVN7openpal5ArrayIN8opendnp34CellINS1_17FrozenCounterSpecEEEtEE]
	add	x1, x1, 16
	str	x1, [x19, 656]
	cbz	x0, .L1167
	bl	_ZdaPv
.L1167:
	adrp	x1, :got:_ZTVN7openpal5ArrayIN8opendnp34CellINS1_11CounterSpecEEEtEE
	ldr	x0, [x19, 648]
	ldr	x1, [x1, #:got_lo12:_ZTVN7openpal5ArrayIN8opendnp34CellINS1_11CounterSpecEEEtEE]
	add	x1, x1, 16
	str	x1, [x19, 632]
	cbz	x0, .L1168
	bl	_ZdaPv
.L1168:
	adrp	x1, :got:_ZTVN7openpal5ArrayIN8opendnp34CellINS1_10AnalogSpecEEEtEE
	ldr	x0, [x19, 624]
	ldr	x1, [x1, #:got_lo12:_ZTVN7openpal5ArrayIN8opendnp34CellINS1_10AnalogSpecEEEtEE]
	add	x1, x1, 16
	str	x1, [x19, 608]
	cbz	x0, .L1169
	bl	_ZdaPv
.L1169:
	adrp	x1, :got:_ZTVN7openpal5ArrayIN8opendnp34CellINS1_19DoubleBitBinarySpecEEEtEE
	ldr	x0, [x19, 600]
	ldr	x1, [x1, #:got_lo12:_ZTVN7openpal5ArrayIN8opendnp34CellINS1_19DoubleBitBinarySpecEEEtEE]
	add	x1, x1, 16
	str	x1, [x19, 584]
	cbz	x0, .L1170
	bl	_ZdaPv
.L1170:
	adrp	x1, :got:_ZTVN7openpal5ArrayIN8opendnp34CellINS1_10BinarySpecEEEtEE
	ldr	x0, [x19, 576]
	ldr	x1, [x1, #:got_lo12:_ZTVN7openpal5ArrayIN8opendnp34CellINS1_10BinarySpecEEEtEE]
	add	x1, x1, 16
	str	x1, [x19, 560]
	cbz	x0, .L1171
	bl	_ZdaPv
.L1171:
	adrp	x1, :got:_ZTVN8opendnp311EventBufferE
	adrp	x2, :got:_ZTVN7openpal5ArrayINS_8ListNodeIN8opendnp39SOERecordEEEjEE
	ldr	x1, [x1, #:got_lo12:_ZTVN8opendnp311EventBufferE]
	ldr	x2, [x2, #:got_lo12:_ZTVN7openpal5ArrayINS_8ListNodeIN8opendnp39SOERecordEEEjEE]
	add	x0, x1, 16
	add	x5, x1, 160
	stp	x0, x5, [x19, 256]
	add	x4, x1, 192
	ldr	x0, [x19, 360]
	add	x1, x1, 224
	add	x2, x2, 16
	stp	x4, x1, [x19, 272]
	str	x2, [x19, 344]
	cbz	x0, .L1172
	bl	_ZdaPv
.L1172:
	ldr	x21, [x19, 248]
	cbz	x21, .L1174
	adrp	x20, :got:__libc_single_threaded
	ldr	x0, [x20, #:got_lo12:__libc_single_threaded]
	ldrb	w0, [x0]
	cbz	w0, .L1175
	ldr	w0, [x21, 8]
	sub	w1, w0, #1
	str	w1, [x21, 8]
.L1176:
	cmp	w0, 1
	beq	.L1306
.L1174:
	ldr	x21, [x19, 232]
	cbz	x21, .L1181
	adrp	x20, :got:__libc_single_threaded
	ldr	x0, [x20, #:got_lo12:__libc_single_threaded]
	ldrb	w0, [x0]
	cbz	w0, .L1182
	ldr	w0, [x21, 8]
	sub	w1, w0, #1
	str	w1, [x21, 8]
.L1183:
	cmp	w0, 1
	beq	.L1307
.L1181:
	ldr	x21, [x19, 216]
	cbz	x21, .L1188
	adrp	x20, :got:__libc_single_threaded
	ldr	x0, [x20, #:got_lo12:__libc_single_threaded]
	ldrb	w0, [x0]
	cbz	w0, .L1189
	ldr	w0, [x21, 8]
	sub	w1, w0, #1
	str	w1, [x21, 8]
.L1190:
	cmp	w0, 1
	beq	.L1308
.L1188:
	ldr	x21, [x19, 200]
	cbz	x21, .L1195
	adrp	x20, :got:__libc_single_threaded
	ldr	x0, [x20, #:got_lo12:__libc_single_threaded]
	ldrb	w0, [x0]
	cbz	w0, .L1196
	ldr	w0, [x21, 8]
	sub	w1, w0, #1
	str	w1, [x21, 8]
.L1197:
	cmp	w0, 1
	beq	.L1309
.L1195:
	ldr	x21, [x19, 184]
	cbz	x21, .L1202
	adrp	x20, :got:__libc_single_threaded
	ldr	x0, [x20, #:got_lo12:__libc_single_threaded]
	ldrb	w0, [x0]
	cbz	w0, .L1203
	ldr	w0, [x21, 8]
	sub	w1, w0, #1
	str	w1, [x21, 8]
.L1204:
	cmp	w0, 1
	beq	.L1310
.L1202:
	ldr	x21, [x19, 168]
	cbz	x21, .L1209
	adrp	x20, :got:__libc_single_threaded
	ldr	x0, [x20, #:got_lo12:__libc_single_threaded]
	ldrb	w0, [x0]
	cbz	w0, .L1210
	ldr	w0, [x21, 8]
	sub	w1, w0, #1
	str	w1, [x21, 8]
.L1211:
	cmp	w0, 1
	beq	.L1311
.L1209:
	ldr	x21, [x19, 144]
	cbz	x21, .L1216
	adrp	x20, :got:__libc_single_threaded
	ldr	x0, [x20, #:got_lo12:__libc_single_threaded]
	ldrb	w0, [x0]
	cbz	w0, .L1217
	ldr	w0, [x21, 8]
	sub	w1, w0, #1
	str	w1, [x21, 8]
.L1218:
	cmp	w0, 1
	beq	.L1312
.L1216:
	ldr	x21, [x19, 128]
	cbz	x21, .L1223
	adrp	x20, :got:__libc_single_threaded
	ldr	x0, [x20, #:got_lo12:__libc_single_threaded]
	ldrb	w0, [x0]
	cbz	w0, .L1224
	ldr	w0, [x21, 8]
	sub	w1, w0, #1
	str	w1, [x21, 8]
.L1225:
	cmp	w0, 1
	beq	.L1313
.L1223:
	ldr	x21, [x19, 112]
	cbz	x21, .L1230
	adrp	x20, :got:__libc_single_threaded
	ldr	x0, [x20, #:got_lo12:__libc_single_threaded]
	ldrb	w0, [x0]
	cbz	w0, .L1231
	ldr	w0, [x21, 8]
	sub	w1, w0, #1
	str	w1, [x21, 8]
.L1232:
	cmp	w0, 1
	beq	.L1314
.L1230:
	ldr	x21, [x19, 96]
	cbz	x21, .L1237
	adrp	x20, :got:__libc_single_threaded
	ldr	x0, [x20, #:got_lo12:__libc_single_threaded]
	ldrb	w0, [x0]
	cbz	w0, .L1238
	ldr	w0, [x21, 8]
	sub	w1, w0, #1
	str	w1, [x21, 8]
.L1239:
	cmp	w0, 1
	beq	.L1315
.L1237:
	ldr	x21, [x19, 80]
	cbz	x21, .L1244
	adrp	x20, :got:__libc_single_threaded
	ldr	x0, [x20, #:got_lo12:__libc_single_threaded]
	ldrb	w0, [x0]
	cbz	w0, .L1245
	ldr	w0, [x21, 8]
	sub	w1, w0, #1
	str	w1, [x21, 8]
.L1246:
	cmp	w0, 1
	beq	.L1316
.L1244:
	ldr	x21, [x19, 64]
	cbz	x21, .L1251
	adrp	x20, :got:__libc_single_threaded
	ldr	x0, [x20, #:got_lo12:__libc_single_threaded]
	ldrb	w0, [x0]
	cbz	w0, .L1252
	ldr	w0, [x21, 8]
	sub	w1, w0, #1
	str	w1, [x21, 8]
.L1253:
	cmp	w0, 1
	beq	.L1317
.L1251:
	ldr	x21, [x19, 48]
	cbz	x21, .L1258
	adrp	x20, :got:__libc_single_threaded
	ldr	x0, [x20, #:got_lo12:__libc_single_threaded]
	ldrb	w0, [x0]
	cbz	w0, .L1259
	ldr	w0, [x21, 8]
	sub	w1, w0, #1
	str	w1, [x21, 8]
.L1260:
	cmp	w0, 1
	beq	.L1318
.L1258:
	ldr	x20, [x19, 32]
	cbz	x20, .L1265
	adrp	x0, :got:__libc_single_threaded
	ldr	x0, [x0, #:got_lo12:__libc_single_threaded]
	ldrb	w0, [x0]
	cbz	w0, .L1266
	ldr	w0, [x20, 12]
	sub	w1, w0, #1
	str	w1, [x20, 12]
.L1267:
	cmp	w0, 1
	beq	.L1319
.L1265:
	mov	x0, x19
	mov	x1, 1104
	ldp	x19, x20, [sp, 16]
	ldr	x21, [sp, 32]
	ldp	x29, x30, [sp], 48
	.cfi_remember_state
	.cfi_restore 30
	.cfi_restore 29
	.cfi_restore 21
	.cfi_restore 19
	.cfi_restore 20
	.cfi_def_cfa_offset 0
	b	_ZdlPvm
	.p2align 2,,3
.L1306:
	.cfi_restore_state
	ldr	x1, [x21]
	mov	x0, x21
	ldr	x1, [x1, 16]
	blr	x1
	ldr	x20, [x20, #:got_lo12:__libc_single_threaded]
	ldrb	w0, [x20]
	cbz	w0, .L1178
	ldr	w0, [x21, 12]
	sub	w1, w0, #1
	str	w1, [x21, 12]
.L1179:
	cmp	w0, 1
	bne	.L1174
	ldr	x1, [x21]
	mov	x0, x21
	ldr	x1, [x1, 24]
	blr	x1
	b	.L1174
	.p2align 2,,3
.L1307:
	ldr	x1, [x21]
	mov	x0, x21
	ldr	x1, [x1, 16]
	blr	x1
	ldr	x20, [x20, #:got_lo12:__libc_single_threaded]
	ldrb	w0, [x20]
	cbz	w0, .L1185
	ldr	w0, [x21, 12]
	sub	w1, w0, #1
	str	w1, [x21, 12]
.L1186:
	cmp	w0, 1
	bne	.L1181
	ldr	x1, [x21]
	mov	x0, x21
	ldr	x1, [x1, 24]
	blr	x1
	b	.L1181
	.p2align 2,,3
.L1308:
	ldr	x1, [x21]
	mov	x0, x21
	ldr	x1, [x1, 16]
	blr	x1
	ldr	x20, [x20, #:got_lo12:__libc_single_threaded]
	ldrb	w0, [x20]
	cbz	w0, .L1192
	ldr	w0, [x21, 12]
	sub	w1, w0, #1
	str	w1, [x21, 12]
.L1193:
	cmp	w0, 1
	bne	.L1188
	ldr	x1, [x21]
	mov	x0, x21
	ldr	x1, [x1, 24]
	blr	x1
	b	.L1188
	.p2align 2,,3
.L1309:
	ldr	x1, [x21]
	mov	x0, x21
	ldr	x1, [x1, 16]
	blr	x1
	ldr	x20, [x20, #:got_lo12:__libc_single_threaded]
	ldrb	w0, [x20]
	cbz	w0, .L1199
	ldr	w0, [x21, 12]
	sub	w1, w0, #1
	str	w1, [x21, 12]
.L1200:
	cmp	w0, 1
	bne	.L1195
	ldr	x1, [x21]
	mov	x0, x21
	ldr	x1, [x1, 24]
	blr	x1
	b	.L1195
	.p2align 2,,3
.L1310:
	ldr	x1, [x21]
	mov	x0, x21
	ldr	x1, [x1, 16]
	blr	x1
	ldr	x20, [x20, #:got_lo12:__libc_single_threaded]
	ldrb	w0, [x20]
	cbz	w0, .L1206
	ldr	w0, [x21, 12]
	sub	w1, w0, #1
	str	w1, [x21, 12]
.L1207:
	cmp	w0, 1
	bne	.L1202
	ldr	x1, [x21]
	mov	x0, x21
	ldr	x1, [x1, 24]
	blr	x1
	b	.L1202
	.p2align 2,,3
.L1314:
	ldr	x1, [x21]
	mov	x0, x21
	ldr	x1, [x1, 16]
	blr	x1
	ldr	x20, [x20, #:got_lo12:__libc_single_threaded]
	ldrb	w0, [x20]
	cbz	w0, .L1234
	ldr	w0, [x21, 12]
	sub	w1, w0, #1
	str	w1, [x21, 12]
.L1235:
	cmp	w0, 1
	bne	.L1230
	ldr	x1, [x21]
	mov	x0, x21
	ldr	x1, [x1, 24]
	blr	x1
	b	.L1230
	.p2align 2,,3
.L1312:
	ldr	x1, [x21]
	mov	x0, x21
	ldr	x1, [x1, 16]
	blr	x1
	ldr	x20, [x20, #:got_lo12:__libc_single_threaded]
	ldrb	w0, [x20]
	cbz	w0, .L1220
	ldr	w0, [x21, 12]
	sub	w1, w0, #1
	str	w1, [x21, 12]
.L1221:
	cmp	w0, 1
	bne	.L1216
	ldr	x1, [x21]
	mov	x0, x21
	ldr	x1, [x1, 24]
	blr	x1
	b	.L1216
	.p2align 2,,3
.L1316:
	ldr	x1, [x21]
	mov	x0, x21
	ldr	x1, [x1, 16]
	blr	x1
	ldr	x20, [x20, #:got_lo12:__libc_single_threaded]
	ldrb	w0, [x20]
	cbz	w0, .L1248
	ldr	w0, [x21, 12]
	sub	w1, w0, #1
	str	w1, [x21, 12]
.L1249:
	cmp	w0, 1
	bne	.L1244
	ldr	x1, [x21]
	mov	x0, x21
	ldr	x1, [x1, 24]
	blr	x1
	b	.L1244
	.p2align 2,,3
.L1311:
	ldr	x1, [x21]
	mov	x0, x21
	ldr	x1, [x1, 16]
	blr	x1
	ldr	x20, [x20, #:got_lo12:__libc_single_threaded]
	ldrb	w0, [x20]
	cbz	w0, .L1213
	ldr	w0, [x21, 12]
	sub	w1, w0, #1
	str	w1, [x21, 12]
.L1214:
	cmp	w0, 1
	bne	.L1209
	ldr	x1, [x21]
	mov	x0, x21
	ldr	x1, [x1, 24]
	blr	x1
	b	.L1209
	.p2align 2,,3
.L1315:
	ldr	x1, [x21]
	mov	x0, x21
	ldr	x1, [x1, 16]
	blr	x1
	ldr	x20, [x20, #:got_lo12:__libc_single_threaded]
	ldrb	w0, [x20]
	cbz	w0, .L1241
	ldr	w0, [x21, 12]
	sub	w1, w0, #1
	str	w1, [x21, 12]
.L1242:
	cmp	w0, 1
	bne	.L1237
	ldr	x1, [x21]
	mov	x0, x21
	ldr	x1, [x1, 24]
	blr	x1
	b	.L1237
	.p2align 2,,3
.L1313:
	ldr	x1, [x21]
	mov	x0, x21
	ldr	x1, [x1, 16]
	blr	x1
	ldr	x20, [x20, #:got_lo12:__libc_single_threaded]
	ldrb	w0, [x20]
	cbz	w0, .L1227
	ldr	w0, [x21, 12]
	sub	w1, w0, #1
	str	w1, [x21, 12]
.L1228:
	cmp	w0, 1
	bne	.L1223
	ldr	x1, [x21]
	mov	x0, x21
	ldr	x1, [x1, 24]
	blr	x1
	b	.L1223
	.p2align 2,,3
.L1317:
	ldr	x1, [x21]
	mov	x0, x21
	ldr	x1, [x1, 16]
	blr	x1
	ldr	x20, [x20, #:got_lo12:__libc_single_threaded]
	ldrb	w0, [x20]
	cbz	w0, .L1255
	ldr	w0, [x21, 12]
	sub	w1, w0, #1
	str	w1, [x21, 12]
.L1256:
	cmp	w0, 1
	bne	.L1251
	ldr	x1, [x21]
	mov	x0, x21
	ldr	x1, [x1, 24]
	blr	x1
	b	.L1251
	.p2align 2,,3
.L1318:
	ldr	x1, [x21]
	mov	x0, x21
	ldr	x1, [x1, 16]
	blr	x1
	ldr	x20, [x20, #:got_lo12:__libc_single_threaded]
	ldrb	w0, [x20]
	cbz	w0, .L1262
	ldr	w0, [x21, 12]
	sub	w1, w0, #1
	str	w1, [x21, 12]
.L1263:
	cmp	w0, 1
	bne	.L1258
	ldr	x1, [x21]
	mov	x0, x21
	ldr	x1, [x1, 24]
	blr	x1
	b	.L1258
	.p2align 2,,3
.L1319:
	ldr	x1, [x20]
	mov	x0, x20
	ldr	x1, [x1, 24]
	blr	x1
	mov	x0, x19
	mov	x1, 1104
	ldp	x19, x20, [sp, 16]
	ldr	x21, [sp, 32]
	ldp	x29, x30, [sp], 48
	.cfi_remember_state
	.cfi_restore 30
	.cfi_restore 29
	.cfi_restore 21
	.cfi_restore 19
	.cfi_restore 20
	.cfi_def_cfa_offset 0
	b	_ZdlPvm
	.p2align 2,,3
.L1238:
	.cfi_restore_state
	add	x1, x21, 8
	mov	w0, -1
	bl	__aarch64_ldadd4_acq_rel
	b	.L1239
	.p2align 2,,3
.L1245:
	add	x1, x21, 8
	mov	w0, -1
	bl	__aarch64_ldadd4_acq_rel
	b	.L1246
	.p2align 2,,3
.L1196:
	add	x1, x21, 8
	mov	w0, -1
	bl	__aarch64_ldadd4_acq_rel
	b	.L1197
	.p2align 2,,3
.L1203:
	add	x1, x21, 8
	mov	w0, -1
	bl	__aarch64_ldadd4_acq_rel
	b	.L1204
	.p2align 2,,3
.L1182:
	add	x1, x21, 8
	mov	w0, -1
	bl	__aarch64_ldadd4_acq_rel
	b	.L1183
	.p2align 2,,3
.L1189:
	add	x1, x21, 8
	mov	w0, -1
	bl	__aarch64_ldadd4_acq_rel
	b	.L1190
	.p2align 2,,3
.L1266:
	add	x1, x20, 12
	mov	w0, -1
	bl	__aarch64_ldadd4_acq_rel
	b	.L1267
	.p2align 2,,3
.L1175:
	add	x1, x21, 8
	mov	w0, -1
	bl	__aarch64_ldadd4_acq_rel
	b	.L1176
	.p2align 2,,3
.L1210:
	add	x1, x21, 8
	mov	w0, -1
	bl	__aarch64_ldadd4_acq_rel
	b	.L1211
	.p2align 2,,3
.L1217:
	add	x1, x21, 8
	mov	w0, -1
	bl	__aarch64_ldadd4_acq_rel
	b	.L1218
	.p2align 2,,3
.L1252:
	add	x1, x21, 8
	mov	w0, -1
	bl	__aarch64_ldadd4_acq_rel
	b	.L1253
	.p2align 2,,3
.L1259:
	add	x1, x21, 8
	mov	w0, -1
	bl	__aarch64_ldadd4_acq_rel
	b	.L1260
	.p2align 2,,3
.L1224:
	add	x1, x21, 8
	mov	w0, -1
	bl	__aarch64_ldadd4_acq_rel
	b	.L1225
	.p2align 2,,3
.L1231:
	add	x1, x21, 8
	mov	w0, -1
	bl	__aarch64_ldadd4_acq_rel
	b	.L1232
	.p2align 2,,3
.L1178:
	add	x1, x21, 12
	mov	w0, -1
	bl	__aarch64_ldadd4_acq_rel
	b	.L1179
	.p2align 2,,3
.L1185:
	add	x1, x21, 12
	mov	w0, -1
	bl	__aarch64_ldadd4_acq_rel
	b	.L1186
	.p2align 2,,3
.L1192:
	add	x1, x21, 12
	mov	w0, -1
	bl	__aarch64_ldadd4_acq_rel
	b	.L1193
	.p2align 2,,3
.L1255:
	add	x1, x21, 12
	mov	w0, -1
	bl	__aarch64_ldadd4_acq_rel
	b	.L1256
	.p2align 2,,3
.L1262:
	add	x1, x21, 12
	mov	w0, -1
	bl	__aarch64_ldadd4_acq_rel
	b	.L1263
	.p2align 2,,3
.L1199:
	add	x1, x21, 12
	mov	w0, -1
	bl	__aarch64_ldadd4_acq_rel
	b	.L1200
	.p2align 2,,3
.L1248:
	add	x1, x21, 12
	mov	w0, -1
	bl	__aarch64_ldadd4_acq_rel
	b	.L1249
	.p2align 2,,3
.L1234:
	add	x1, x21, 12
	mov	w0, -1
	bl	__aarch64_ldadd4_acq_rel
	b	.L1235
	.p2align 2,,3
.L1241:
	add	x1, x21, 12
	mov	w0, -1
	bl	__aarch64_ldadd4_acq_rel
	b	.L1242
	.p2align 2,,3
.L1206:
	add	x1, x21, 12
	mov	w0, -1
	bl	__aarch64_ldadd4_acq_rel
	b	.L1207
	.p2align 2,,3
.L1213:
	add	x1, x21, 12
	mov	w0, -1
	bl	__aarch64_ldadd4_acq_rel
	b	.L1214
	.p2align 2,,3
.L1220:
	add	x1, x21, 12
	mov	w0, -1
	bl	__aarch64_ldadd4_acq_rel
	b	.L1221
	.p2align 2,,3
.L1227:
	add	x1, x21, 12
	mov	w0, -1
	bl	__aarch64_ldadd4_acq_rel
	b	.L1228
	.cfi_endproc
.LFE11840:
	.size	_ZN8asiodnp315OutstationStackD0Ev, .-_ZN8asiodnp315OutstationStackD0Ev
	.text
	.align	2
	.p2align 4,,11
	.type	_ZN4asio6detail18completion_handlerIZN8asiodnp315OutstationStack5ApplyERKNS2_7UpdatesEEUlvE_E11do_completeEPNS0_15task_io_serviceEPNS0_25task_io_service_operationERKSt10error_codem, %function
_ZN4asio6detail18completion_handlerIZN8asiodnp315OutstationStack5ApplyERKNS2_7UpdatesEEUlvE_E11do_completeEPNS0_15task_io_serviceEPNS0_25task_io_service_operationERKSt10error_codem:
.LFB11047:
	.cfi_startproc
	.cfi_personality 0x9b,DW.ref.__gxx_personality_v0
	.cfi_lsda 0x1b,.LLSDA11047
	stp	x29, x30, [sp, -128]!
	.cfi_def_cfa_offset 128
	.cfi_offset 29, -128
	.cfi_offset 30, -120
	adrp	x2, :got:__stack_chk_guard
	mov	x29, sp
	stp	x19, x20, [sp, 16]
	.cfi_offset 19, -112
	.cfi_offset 20, -104
	mov	x19, x1
	stp	x21, x22, [sp, 32]
	.cfi_offset 21, -96
	.cfi_offset 22, -88
	mov	x22, x0
	str	x23, [sp, 48]
	.cfi_offset 23, -80
	ldr	x2, [x2, #:got_lo12:__stack_chk_guard]
	ldr	q0, [x1, 40]
	ldr	x0, [x2]
	str	x0, [sp, 120]
	mov	x0, 0
	ldr	q1, [x1, 24]
	stp	xzr, xzr, [x1, 24]
	umov	x20, v0.d[1]
	stp	q1, q0, [sp, 80]
	cbz	x20, .L1333
	adrp	x21, :got:__libc_single_threaded
	add	x1, x20, 8
	ldr	x23, [x21, #:got_lo12:__libc_single_threaded]
	ldrb	w0, [x23]
	cbz	w0, .L1322
	ldr	w0, [x20, 8]
	add	w0, w0, 1
	str	w0, [x20, 8]
.L1323:
	ldr	w0, [x20, 8]
	sub	w1, w0, #1
	str	w1, [x20, 8]
.L1327:
	cmp	w0, 1
	bne	.L1379
	ldr	x1, [x20]
	mov	x0, x20
	ldr	x1, [x1, 16]
	blr	x1
	ldr	x0, [x21, #:got_lo12:__libc_single_threaded]
	ldrb	w0, [x0]
	cbz	w0, .L1329
	ldr	w0, [x20, 12]
	sub	w1, w0, #1
	str	w1, [x20, 12]
.L1330:
	cmp	w0, 1
	bne	.L1379
	ldr	x1, [x20]
	mov	x0, x20
	ldr	x1, [x1, 24]
	blr	x1
	b	.L1379
	.p2align 2,,3
.L1322:
	mov	w0, 1
	bl	__aarch64_ldadd4_acq_rel
	ldr	x20, [x19, 48]
	cbnz	x20, .L1324
.L1379:
	ldr	x20, [x19, 32]
	cbz	x20, .L1333
	ldr	x0, [x21, #:got_lo12:__libc_single_threaded]
	ldrb	w0, [x0]
	cbz	w0, .L1334
	ldr	w0, [x20, 8]
	sub	w1, w0, #1
	str	w1, [x20, 8]
.L1335:
	cmp	w0, 1
	bne	.L1333
	ldr	x1, [x20]
	mov	x0, x20
	ldr	x1, [x1, 16]
	blr	x1
	ldr	x0, [x21, #:got_lo12:__libc_single_threaded]
	ldrb	w0, [x0]
	cbz	w0, .L1336
	ldr	w0, [x20, 12]
	sub	w1, w0, #1
	str	w1, [x20, 12]
.L1337:
	cmp	w0, 1
	beq	.L1381
	.p2align 3,,7
.L1333:
	adrp	x1, :got:_ZN4asio6detail10call_stackINS0_15task_io_serviceENS0_27task_io_service_thread_infoEE4top_E
	ldr	x1, [x1, #:got_lo12:_ZN4asio6detail10call_stackINS0_15task_io_serviceENS0_27task_io_service_thread_infoEE4top_E]
	ldr	w0, [x1]
	bl	pthread_getspecific
	cbz	x0, .L1338
	ldr	x0, [x0, 8]
	cbz	x0, .L1338
	ldr	x1, [x0]
	cbz	x1, .L1382
.L1338:
	mov	x0, x19
	bl	_ZdlPv
.L1339:
	cbz	x22, .L1340
	add	x23, sp, 72
	mov	w0, 1
	mov	x1, x23
	str	wzr, [sp, 72]
	bl	__aarch64_swp4_sync
	ldr	x22, [sp, 80]
	add	x22, x22, 152
	mov	x0, x22
.LEHB18:
	bl	_ZN8opendnp38OContext16GetUpdateHandlerEv
	ldr	x1, [sp, 96]
	mov	x20, x0
	cbz	x1, .L1343
	ldp	x19, x21, [x1]
	cmp	x19, x21
	beq	.L1343
	.p2align 3,,7
.L1345:
	ldr	x2, [x19, 16]
	cbz	x2, .L1383
	ldr	x2, [x19, 24]
	mov	x1, x20
	mov	x0, x19
	blr	x2
	add	x19, x19, 32
	cmp	x21, x19
	bne	.L1345
.L1343:
	mov	x0, x22
	bl	_ZN8opendnp38OContext17CheckForTaskStartEv
	stlr	wzr, [x23]
.L1340:
	ldr	x19, [sp, 104]
	cbz	x19, .L1347
	adrp	x21, :got:__libc_single_threaded
	ldr	x0, [x21, #:got_lo12:__libc_single_threaded]
	ldrb	w0, [x0]
	cbz	w0, .L1348
	ldr	w0, [x19, 8]
	sub	w1, w0, #1
	str	w1, [x19, 8]
.L1349:
	cmp	w0, 1
	beq	.L1384
.L1347:
	ldr	x19, [sp, 88]
	cbz	x19, .L1320
	adrp	x21, :got:__libc_single_threaded
	ldr	x0, [x21, #:got_lo12:__libc_single_threaded]
	ldrb	w0, [x0]
	cbz	w0, .L1355
	ldr	w0, [x19, 8]
	sub	w1, w0, #1
	str	w1, [x19, 8]
.L1356:
	cmp	w0, 1
	beq	.L1385
.L1320:
	adrp	x0, :got:__stack_chk_guard
	ldr	x0, [x0, #:got_lo12:__stack_chk_guard]
	ldr	x2, [sp, 120]
	ldr	x1, [x0]
	subs	x2, x2, x1
	mov	x1, 0
	bne	.L1380
	ldp	x19, x20, [sp, 16]
	ldp	x21, x22, [sp, 32]
	ldr	x23, [sp, 48]
	ldp	x29, x30, [sp], 128
	.cfi_remember_state
	.cfi_restore 30
	.cfi_restore 29
	.cfi_restore 23
	.cfi_restore 21
	.cfi_restore 22
	.cfi_restore 19
	.cfi_restore 20
	.cfi_def_cfa_offset 0
	ret
.L1334:
	.cfi_restore_state
	add	x1, x20, 8
	mov	w0, -1
	bl	__aarch64_ldadd4_acq_rel
	b	.L1335
	.p2align 2,,3
.L1385:
	ldr	x1, [x19]
	mov	x0, x19
	ldr	x1, [x1, 16]
	blr	x1
	ldr	x0, [x21, #:got_lo12:__libc_single_threaded]
	ldrb	w0, [x0]
	cbz	w0, .L1358
	ldr	w0, [x19, 12]
	sub	w1, w0, #1
	str	w1, [x19, 12]
.L1359:
	cmp	w0, 1
	bne	.L1320
	adrp	x0, :got:__stack_chk_guard
	ldr	x0, [x0, #:got_lo12:__stack_chk_guard]
	ldr	x2, [sp, 120]
	ldr	x1, [x0]
	subs	x2, x2, x1
	mov	x1, 0
	bne	.L1380
	ldr	x1, [x19]
	mov	x0, x19
	ldp	x19, x20, [sp, 16]
	ldr	x1, [x1, 24]
	ldp	x21, x22, [sp, 32]
	mov	x16, x1
	ldr	x23, [sp, 48]
	ldp	x29, x30, [sp], 128
	.cfi_remember_state
	.cfi_restore 30
	.cfi_restore 29
	.cfi_restore 23
	.cfi_restore 21
	.cfi_restore 22
	.cfi_restore 19
	.cfi_restore 20
	.cfi_def_cfa_offset 0
	br	x16
	.p2align 2,,3
.L1384:
	.cfi_restore_state
	ldr	x1, [x19]
	mov	x0, x19
	ldr	x1, [x1, 16]
	blr	x1
	ldr	x0, [x21, #:got_lo12:__libc_single_threaded]
	ldrb	w0, [x0]
	cbz	w0, .L1351
	ldr	w0, [x19, 12]
	sub	w1, w0, #1
	str	w1, [x19, 12]
.L1352:
	cmp	w0, 1
	bne	.L1347
	ldr	x1, [x19]
	mov	x0, x19
	ldr	x1, [x1, 24]
	blr	x1
	b	.L1347
	.p2align 2,,3
.L1348:
	add	x1, x19, 8
	mov	w0, -1
	bl	__aarch64_ldadd4_acq_rel
	b	.L1349
	.p2align 2,,3
.L1355:
	add	x1, x19, 8
	mov	w0, -1
	bl	__aarch64_ldadd4_acq_rel
	b	.L1356
.L1324:
	ldrb	w0, [x23]
	add	x1, x20, 8
	cbnz	w0, .L1323
	mov	w0, -1
	bl	__aarch64_ldadd4_acq_rel
	b	.L1327
.L1382:
	ldrb	w1, [x19, 56]
	strb	w1, [x19]
	str	x19, [x0]
	b	.L1339
.L1351:
	add	x1, x19, 12
	mov	w0, -1
	bl	__aarch64_ldadd4_acq_rel
	b	.L1352
.L1358:
	add	x1, x19, 12
	mov	w0, -1
	bl	__aarch64_ldadd4_acq_rel
	b	.L1359
.L1381:
	ldr	x1, [x20]
	mov	x0, x20
	ldr	x1, [x1, 24]
	blr	x1
	b	.L1333
.L1329:
	add	x1, x20, 12
	mov	w0, -1
	bl	__aarch64_ldadd4_acq_rel
	b	.L1330
.L1336:
	add	x1, x20, 12
	mov	w0, -1
	bl	__aarch64_ldadd4_acq_rel
	b	.L1337
.L1383:
	bl	_ZSt25__throw_bad_function_callv
.LEHE18:
.L1380:
	bl	__stack_chk_fail
.L1363:
	mov	x19, x0
	stlr	wzr, [x23]
	add	x0, sp, 80
	bl	_ZZN8asiodnp315OutstationStack5ApplyERKNS_7UpdatesEENUlvE_D1Ev
	mov	x0, x19
.LEHB19:
	bl	_Unwind_Resume
.LEHE19:
	.cfi_endproc
.LFE11047:
	.section	.gcc_except_table,"a",@progbits
.LLSDA11047:
	.byte	0xff
	.byte	0xff
	.byte	0x1
	.uleb128 .LLSDACSE11047-.LLSDACSB11047
.LLSDACSB11047:
	.uleb128 .LEHB18-.LFB11047
	.uleb128 .LEHE18-.LEHB18
	.uleb128 .L1363-.LFB11047
	.uleb128 0
	.uleb128 .LEHB19-.LFB11047
	.uleb128 .LEHE19-.LEHB19
	.uleb128 0
	.uleb128 0
.LLSDACSE11047:
	.text
	.size	_ZN4asio6detail18completion_handlerIZN8asiodnp315OutstationStack5ApplyERKNS2_7UpdatesEEUlvE_E11do_completeEPNS0_15task_io_serviceEPNS0_25task_io_service_operationERKSt10error_codem, .-_ZN4asio6detail18completion_handlerIZN8asiodnp315OutstationStack5ApplyERKNS2_7UpdatesEEUlvE_E11do_completeEPNS0_15task_io_serviceEPNS0_25task_io_service_operationERKSt10error_codem
	.global	__aarch64_cas4_acq_rel
	.global	__aarch64_ldadd8_acq_rel
	.align	2
	.p2align 4,,11
	.global	_ZN8asiodnp315OutstationStack5ApplyERKNS_7UpdatesE
	.type	_ZN8asiodnp315OutstationStack5ApplyERKNS_7UpdatesE, %function
_ZN8asiodnp315OutstationStack5ApplyERKNS_7UpdatesE:
.LFB8462:
	.cfi_startproc
	.cfi_personality 0x9b,DW.ref.__gxx_personality_v0
	.cfi_lsda 0x1b,.LLSDA8462
	stp	x29, x30, [sp, -176]!
	.cfi_def_cfa_offset 176
	.cfi_offset 29, -176
	.cfi_offset 30, -168
	adrp	x2, :got:__stack_chk_guard
	mov	x29, sp
	ldr	x2, [x2, #:got_lo12:__stack_chk_guard]
	stp	x19, x20, [sp, 16]
	.cfi_offset 19, -160
	.cfi_offset 20, -152
	mov	x20, x0
	ldr	x0, [x1]
	mov	x19, x1
	ldr	x1, [x2]
	str	x1, [sp, 168]
	mov	x1, 0
	cbz	x0, .L1386
	ldp	x1, x0, [x0]
	cmp	x1, x0
	bne	.L1493
.L1386:
	adrp	x0, :got:__stack_chk_guard
	ldr	x0, [x0, #:got_lo12:__stack_chk_guard]
	ldr	x2, [sp, 168]
	ldr	x1, [x0]
	subs	x2, x2, x1
	mov	x1, 0
	bne	.L1494
	ldp	x19, x20, [sp, 16]
	ldp	x29, x30, [sp], 176
	.cfi_remember_state
	.cfi_restore 30
	.cfi_restore 29
	.cfi_restore 19
	.cfi_restore 20
	.cfi_def_cfa_offset 0
	ret
	.p2align 2,,3
.L1493:
	.cfi_restore_state
	ldr	x2, [x20, 32]
	stp	x21, x22, [sp, 32]
	.cfi_offset 22, -136
	.cfi_offset 21, -144
	str	x2, [sp, 104]
	cbz	x2, .L1388
	add	x21, x2, 8
	ldr	w22, [x21]
.L1390:
	cbz	w22, .L1388
	add	w1, w22, 1
	mov	w0, w22
	mov	x2, x21
	bl	__aarch64_cas4_acq_rel
	cmp	w0, w22
	mov	w22, w0
	bne	.L1390
	ldr	q0, [x19]
	ldr	x0, [x20, 24]
	str	x0, [sp, 96]
	umov	x1, v0.d[1]
	str	q0, [sp, 112]
	cbz	x1, .L1392
	adrp	x2, :got:__libc_single_threaded
	ldr	x2, [x2, #:got_lo12:__libc_single_threaded]
	ldrb	w2, [x2]
	cbz	w2, .L1391
	ldr	w2, [x1, 8]
	add	w2, w2, 1
	str	w2, [x1, 8]
.L1392:
	ldr	x1, [sp, 104]
	stp	x0, x1, [sp, 128]
	ldr	x20, [x20, 72]
	cbz	x1, .L1393
	adrp	x0, :got:__libc_single_threaded
	ldr	x0, [x0, #:got_lo12:__libc_single_threaded]
	ldrb	w0, [x0]
	cbz	w0, .L1394
	ldr	w0, [x1, 8]
	add	w0, w0, 1
	str	w0, [x1, 8]
.L1393:
	ldr	q0, [sp, 112]
	umov	x1, v0.d[1]
	str	q0, [sp, 144]
	cbz	x1, .L1395
	adrp	x0, :got:__libc_single_threaded
	ldr	x0, [x0, #:got_lo12:__libc_single_threaded]
	ldrb	w0, [x0]
	cbz	w0, .L1396
	ldr	w0, [x1, 8]
	add	w0, w0, 1
	str	w0, [x1, 8]
.L1395:
	adrp	x21, :got:_ZN4asio6detail10call_stackINS0_15task_io_serviceENS0_27task_io_service_thread_infoEE4top_E
	ldr	x22, [x20, 40]
	ldr	x0, [x21, #:got_lo12:_ZN4asio6detail10call_stackINS0_15task_io_serviceENS0_27task_io_service_thread_infoEE4top_E]
	ldr	w0, [x0]
	bl	pthread_getspecific
	cbz	x0, .L1397
	ldr	x0, [x0, 8]
	cbz	x0, .L1397
	ldr	x19, [x0]
	cbz	x19, .L1397
	str	xzr, [x0]
	ldrb	w0, [x19]
	cmp	w0, 55
	bls	.L1398
	strb	w0, [x19, 56]
	b	.L1399
	.p2align 2,,3
.L1398:
	mov	x0, x19
	bl	_ZdlPv
.L1397:
	mov	x0, 57
.LEHB20:
	bl	_Znwm
.LEHE20:
	mov	x19, x0
	mov	w1, 56
	strb	w1, [x0, 56]
.L1399:
	ldp	q1, q0, [sp, 128]
	adrp	x0, _ZN4asio6detail18completion_handlerIZN8asiodnp315OutstationStack5ApplyERKNS2_7UpdatesEEUlvE_E11do_completeEPNS0_15task_io_serviceEPNS0_25task_io_service_operationERKSt10error_codem
	add	x0, x0, :lo12:_ZN4asio6detail18completion_handlerIZN8asiodnp315OutstationStack5ApplyERKNS2_7UpdatesEEUlvE_E11do_completeEPNS0_15task_io_serviceEPNS0_25task_io_service_operationERKSt10error_codem
	stp	xzr, x0, [x19]
	umov	x1, v0.d[1]
	str	q0, [x19, 40]
	dup	v0.2d, x19
	str	wzr, [x19, 16]
	stp	xzr, xzr, [sp, 128]
	str	q1, [x19, 24]
	str	q0, [sp, 48]
	cbz	x1, .L1400
	adrp	x0, :got:__libc_single_threaded
	ldr	x0, [x0, #:got_lo12:__libc_single_threaded]
	ldrb	w0, [x0]
	cbz	w0, .L1401
	ldr	w0, [x1, 8]
	add	w0, w0, 1
	str	w0, [x1, 8]
.L1400:
	ldr	x0, [x20, 48]
	add	x0, x0, 24
	bl	pthread_mutex_lock
	ldr	x0, [x20, 48]
	ldrb	w1, [x0, 72]
	cbz	w1, .L1402
	str	xzr, [x19]
	ldr	x3, [x0, 88]
	cbz	x3, .L1403
	str	x19, [x3]
	str	x19, [x0, 88]
.L1404:
	add	x0, x0, 24
	bl	pthread_mutex_unlock
.L1405:
	ldr	x20, [sp, 152]
	cbz	x20, .L1419
	adrp	x19, :got:__libc_single_threaded
	ldr	x0, [x19, #:got_lo12:__libc_single_threaded]
	ldrb	w0, [x0]
	cbz	w0, .L1420
	ldr	w0, [x20, 8]
	sub	w1, w0, #1
	str	w1, [x20, 8]
.L1421:
	cmp	w0, 1
	beq	.L1495
.L1419:
	ldr	x20, [sp, 136]
	cbz	x20, .L1426
	adrp	x19, :got:__libc_single_threaded
	ldr	x0, [x19, #:got_lo12:__libc_single_threaded]
	ldrb	w0, [x0]
	cbz	w0, .L1427
	ldr	w0, [x20, 8]
	sub	w1, w0, #1
	str	w1, [x20, 8]
.L1428:
	cmp	w0, 1
	beq	.L1496
.L1426:
	ldr	x20, [sp, 120]
	cbz	x20, .L1433
	adrp	x19, :got:__libc_single_threaded
	ldr	x0, [x19, #:got_lo12:__libc_single_threaded]
	ldrb	w0, [x0]
	cbz	w0, .L1435
	ldr	w0, [x20, 8]
	sub	w1, w0, #1
	str	w1, [x20, 8]
.L1436:
	cmp	w0, 1
	beq	.L1497
.L1433:
	ldr	x20, [sp, 104]
	cbz	x20, .L1491
	adrp	x19, :got:__libc_single_threaded
	ldr	x0, [x19, #:got_lo12:__libc_single_threaded]
	ldrb	w0, [x0]
	cbz	w0, .L1442
	ldr	w0, [x20, 8]
	sub	w1, w0, #1
	str	w1, [x20, 8]
.L1443:
	cmp	w0, 1
	beq	.L1498
.L1491:
	ldp	x21, x22, [sp, 32]
	.cfi_remember_state
	.cfi_restore 22
	.cfi_restore 21
	b	.L1386
	.p2align 2,,3
.L1401:
	.cfi_restore_state
	add	x1, x1, 8
	mov	w0, 1
	bl	__aarch64_ldadd4_acq_rel
	b	.L1400
	.p2align 2,,3
.L1394:
	add	x1, x1, 8
	mov	w0, 1
	bl	__aarch64_ldadd4_acq_rel
	b	.L1393
	.p2align 2,,3
.L1391:
	add	x1, x1, 8
	mov	w0, 1
	bl	__aarch64_ldadd4_acq_rel
	ldr	x0, [sp, 96]
	b	.L1392
	.p2align 2,,3
.L1396:
	add	x1, x1, 8
	mov	w0, 1
	bl	__aarch64_ldadd4_acq_rel
	b	.L1395
	.p2align 2,,3
.L1403:
	ldr	q0, [sp, 48]
	str	q0, [x0, 80]
	b	.L1404
	.p2align 2,,3
.L1498:
	ldr	x1, [x20]
	mov	x0, x20
	ldr	x1, [x1, 16]
	blr	x1
	ldr	x19, [x19, #:got_lo12:__libc_single_threaded]
	ldrb	w0, [x19]
	cbz	w0, .L1445
	ldr	w0, [x20, 12]
	sub	w1, w0, #1
	str	w1, [x20, 12]
.L1446:
	cmp	w0, 1
	bne	.L1491
	adrp	x0, :got:__stack_chk_guard
	ldr	x0, [x0, #:got_lo12:__stack_chk_guard]
	ldr	x2, [sp, 168]
	ldr	x1, [x0]
	subs	x2, x2, x1
	mov	x1, 0
	bne	.L1492
	ldr	x1, [x20]
	mov	x0, x20
	ldp	x19, x20, [sp, 16]
	ldr	x1, [x1, 24]
	ldp	x21, x22, [sp, 32]
	.cfi_remember_state
	.cfi_restore 22
	.cfi_restore 21
	mov	x16, x1
	ldp	x29, x30, [sp], 176
	.cfi_restore 30
	.cfi_restore 29
	.cfi_restore 19
	.cfi_restore 20
	.cfi_def_cfa_offset 0
	br	x16
	.p2align 2,,3
.L1402:
	.cfi_restore_state
	mov	w1, 1
	strb	w1, [x0, 72]
	add	x0, x0, 24
	bl	pthread_mutex_unlock
	ldr	x20, [x20, 48]
	dup	v0.2d, x20
	ldr	x1, [x20, 104]
	str	xzr, [x19]
	str	q0, [sp, 64]
	cbz	x1, .L1406
	str	x19, [x1]
	str	x19, [x20, 104]
.L1407:
	ldr	x19, [x22, 40]
	ldrb	w0, [x19, 40]
	cbnz	w0, .L1499
.L1408:
	add	x1, x19, 192
	add	x21, x19, 48
	mov	x0, 1
	bl	__aarch64_ldadd8_acq_rel
	mov	x0, x21
	bl	pthread_mutex_lock
	ldr	x1, [x19, 208]
	str	xzr, [x20]
	cbz	x1, .L1413
	str	x20, [x1]
	str	x20, [x19, 208]
.L1414:
	ldr	x1, [x19, 144]
	add	x20, x19, 96
	orr	x1, x1, 1
	str	x1, [x19, 144]
	cmp	x1, 1
	beq	.L1415
	mov	x0, x21
	bl	pthread_mutex_unlock
	mov	x0, x20
	bl	pthread_cond_signal
	b	.L1405
	.p2align 2,,3
.L1415:
	ldrb	w0, [x19, 184]
	cbnz	w0, .L1417
	ldr	x3, [x19, 152]
	cbz	x3, .L1417
	ldr	w2, [x3, 96]
	add	x4, x3, 96
	ldr	w0, [x3, 104]
	mov	w5, 9
	movk	w5, 0x8000, lsl 16
	strb	w1, [x19, 184]
	add	x3, sp, 80
	mov	w1, 3
	str	w5, [sp, 80]
	str	x4, [sp, 88]
	bl	epoll_ctl
.L1417:
	mov	x0, x21
	bl	pthread_mutex_unlock
	b	.L1405
	.p2align 2,,3
.L1495:
	ldr	x1, [x20]
	mov	x0, x20
	ldr	x1, [x1, 16]
	blr	x1
	ldr	x19, [x19, #:got_lo12:__libc_single_threaded]
	ldrb	w0, [x19]
	cbz	w0, .L1423
	ldr	w0, [x20, 12]
	sub	w1, w0, #1
	str	w1, [x20, 12]
.L1424:
	cmp	w0, 1
	bne	.L1419
	ldr	x1, [x20]
	mov	x0, x20
	ldr	x1, [x1, 24]
	blr	x1
	b	.L1419
	.p2align 2,,3
.L1496:
	ldr	x1, [x20]
	mov	x0, x20
	ldr	x1, [x1, 16]
	blr	x1
	ldr	x19, [x19, #:got_lo12:__libc_single_threaded]
	ldrb	w0, [x19]
	cbz	w0, .L1430
	ldr	w0, [x20, 12]
	sub	w1, w0, #1
	str	w1, [x20, 12]
.L1431:
	cmp	w0, 1
	bne	.L1426
	ldr	x1, [x20]
	mov	x0, x20
	ldr	x1, [x1, 24]
	blr	x1
	b	.L1426
	.p2align 2,,3
.L1497:
	ldr	x1, [x20]
	mov	x0, x20
	ldr	x1, [x1, 16]
	blr	x1
	ldr	x19, [x19, #:got_lo12:__libc_single_threaded]
	ldrb	w0, [x19]
	cbz	w0, .L1438
	ldr	w0, [x20, 12]
	sub	w1, w0, #1
	str	w1, [x20, 12]
.L1439:
	cmp	w0, 1
	bne	.L1433
	ldr	x1, [x20]
	mov	x0, x20
	ldr	x1, [x1, 24]
	blr	x1
	b	.L1433
	.p2align 2,,3
.L1435:
	add	x1, x20, 8
	mov	w0, -1
	bl	__aarch64_ldadd4_acq_rel
	b	.L1436
	.p2align 2,,3
.L1420:
	add	x1, x20, 8
	mov	w0, -1
	bl	__aarch64_ldadd4_acq_rel
	b	.L1421
	.p2align 2,,3
.L1427:
	add	x1, x20, 8
	mov	w0, -1
	bl	__aarch64_ldadd4_acq_rel
	b	.L1428
	.p2align 2,,3
.L1442:
	add	x1, x20, 8
	mov	w0, -1
	bl	__aarch64_ldadd4_acq_rel
	b	.L1443
	.p2align 2,,3
.L1423:
	add	x1, x20, 12
	mov	w0, -1
	bl	__aarch64_ldadd4_acq_rel
	b	.L1424
	.p2align 2,,3
.L1445:
	add	x1, x20, 12
	mov	w0, -1
	bl	__aarch64_ldadd4_acq_rel
	b	.L1446
	.p2align 2,,3
.L1438:
	add	x1, x20, 12
	mov	w0, -1
	bl	__aarch64_ldadd4_acq_rel
	b	.L1439
	.p2align 2,,3
.L1430:
	add	x1, x20, 12
	mov	w0, -1
	bl	__aarch64_ldadd4_acq_rel
	b	.L1431
	.p2align 2,,3
.L1499:
	ldr	x21, [x21, #:got_lo12:_ZN4asio6detail10call_stackINS0_15task_io_serviceENS0_27task_io_service_thread_infoEE4top_E]
	ldr	w0, [x21]
	bl	pthread_getspecific
	cbnz	x0, .L1411
	b	.L1408
	.p2align 2,,3
.L1409:
	ldr	x0, [x0, 16]
	cbz	x0, .L1408
.L1411:
	ldr	x1, [x0]
	cmp	x19, x1
	bne	.L1409
	ldr	x0, [x0, 8]
	cbz	x0, .L1408
	ldp	x3, x1, [x0, 16]
	add	x1, x1, 1
	str	x1, [x0, 24]
	str	xzr, [x20]
	ldr	x1, [x0, 16]
	cbz	x3, .L1412
	str	x20, [x1]
	str	x20, [x0, 16]
	b	.L1405
	.p2align 2,,3
.L1406:
	ldr	q0, [sp, 48]
	str	q0, [x20, 96]
	b	.L1407
	.p2align 2,,3
.L1413:
	ldr	q0, [sp, 64]
	str	q0, [x19, 200]
	b	.L1414
.L1412:
	ldr	q0, [sp, 64]
	str	q0, [x0, 8]
	b	.L1405
.L1494:
	.cfi_restore 21
	.cfi_restore 22
	stp	x21, x22, [sp, 32]
	.cfi_offset 22, -136
	.cfi_offset 21, -144
.L1492:
	bl	__stack_chk_fail
.L1388:
	mov	x0, 8
	bl	__cxa_allocate_exception
	adrp	x3, :got:_ZTVSt12bad_weak_ptr
	adrp	x2, :got:_ZNSt12bad_weak_ptrD1Ev
	adrp	x1, :got:_ZTISt12bad_weak_ptr
	ldr	x3, [x3, #:got_lo12:_ZTVSt12bad_weak_ptr]
	ldr	x2, [x2, #:got_lo12:_ZNSt12bad_weak_ptrD1Ev]
	add	x3, x3, 16
	ldr	x1, [x1, #:got_lo12:_ZTISt12bad_weak_ptr]
	str	x3, [x0]
.LEHB21:
	bl	__cxa_throw
.L1450:
	mov	x19, x0
	add	x0, sp, 128
	bl	_ZZN8asiodnp315OutstationStack5ApplyERKNS_7UpdatesEENUlvE_D1Ev
	add	x0, sp, 96
	bl	_ZZN8asiodnp315OutstationStack5ApplyERKNS_7UpdatesEENUlvE_D1Ev
	mov	x0, x19
	bl	_Unwind_Resume
.LEHE21:
	.cfi_endproc
.LFE8462:
	.section	.gcc_except_table
.LLSDA8462:
	.byte	0xff
	.byte	0xff
	.byte	0x1
	.uleb128 .LLSDACSE8462-.LLSDACSB8462
.LLSDACSB8462:
	.uleb128 .LEHB20-.LFB8462
	.uleb128 .LEHE20-.LEHB20
	.uleb128 .L1450-.LFB8462
	.uleb128 0
	.uleb128 .LEHB21-.LFB8462
	.uleb128 .LEHE21-.LEHB21
	.uleb128 0
	.uleb128 0
.LLSDACSE8462:
	.text
	.size	_ZN8asiodnp315OutstationStack5ApplyERKNS_7UpdatesE, .-_ZN8asiodnp315OutstationStack5ApplyERKNS_7UpdatesE
	.align	2
	.p2align 4,,11
	.type	_ZNSt17_Function_handlerIFbvEZN8asiodnp315OutstationStack7DisableEvEUlvE_E10_M_managerERSt9_Any_dataRKS5_St18_Manager_operation, %function
_ZNSt17_Function_handlerIFbvEZN8asiodnp315OutstationStack7DisableEvEUlvE_E10_M_managerERSt9_Any_dataRKS5_St18_Manager_operation:
.LFB10208:
	.cfi_startproc
	stp	x29, x30, [sp, -48]!
	.cfi_def_cfa_offset 48
	.cfi_offset 29, -48
	.cfi_offset 30, -40
	mov	x29, sp
	stp	x19, x20, [sp, 16]
	.cfi_offset 19, -32
	.cfi_offset 20, -24
	mov	x19, x0
	cbz	w2, .L1501
	cmp	w2, 1
	beq	.L1502
	cmp	w2, 2
	beq	.L1505
	cmp	w2, 3
	bne	.L1504
	ldr	x19, [x0]
	cbz	x19, .L1504
	ldr	x20, [x19, 8]
	cbz	x20, .L1510
	str	x21, [sp, 32]
	.cfi_offset 21, -16
	adrp	x21, :got:__libc_single_threaded
	ldr	x0, [x21, #:got_lo12:__libc_single_threaded]
	ldrb	w0, [x0]
	cbz	w0, .L1511
	ldr	w0, [x20, 8]
	sub	w1, w0, #1
	str	w1, [x20, 8]
.L1512:
	cmp	w0, 1
	beq	.L1526
.L1525:
	ldr	x21, [sp, 32]
	.cfi_restore 21
.L1510:
	mov	x0, x19
	mov	x1, 16
	bl	_ZdlPvm
.L1504:
	mov	w0, 0
	ldp	x19, x20, [sp, 16]
	ldp	x29, x30, [sp], 48
	.cfi_remember_state
	.cfi_restore 30
	.cfi_restore 29
	.cfi_restore 19
	.cfi_restore 20
	.cfi_def_cfa_offset 0
	ret
	.p2align 2,,3
.L1501:
	.cfi_restore_state
	adrp	x0, .LANCHOR0
	add	x0, x0, :lo12:.LANCHOR0
	str	x0, [x19]
	mov	w0, 0
	ldp	x19, x20, [sp, 16]
	ldp	x29, x30, [sp], 48
	.cfi_remember_state
	.cfi_restore 30
	.cfi_restore 29
	.cfi_restore 19
	.cfi_restore 20
	.cfi_def_cfa_offset 0
	ret
	.p2align 2,,3
.L1502:
	.cfi_restore_state
	ldr	x0, [x1]
	str	x0, [x19]
	mov	w0, 0
	ldp	x19, x20, [sp, 16]
	ldp	x29, x30, [sp], 48
	.cfi_remember_state
	.cfi_restore 30
	.cfi_restore 29
	.cfi_restore 19
	.cfi_restore 20
	.cfi_def_cfa_offset 0
	ret
	.p2align 2,,3
.L1505:
	.cfi_restore_state
	str	x21, [sp, 32]
	.cfi_offset 21, -16
	mov	x0, 16
	ldr	x21, [x1]
	bl	_Znwm
	mov	x20, x0
	ldr	q0, [x21]
	umov	x1, v0.d[1]
	str	q0, [x0]
	cbz	x1, .L1507
	adrp	x0, :got:__libc_single_threaded
	ldr	x0, [x0, #:got_lo12:__libc_single_threaded]
	ldrb	w0, [x0]
	cbz	w0, .L1508
	ldr	w0, [x1, 8]
	add	w0, w0, 1
	str	w0, [x1, 8]
.L1507:
	ldr	x21, [sp, 32]
	.cfi_remember_state
	.cfi_restore 21
	str	x20, [x19]
	b	.L1504
.L1526:
	.cfi_restore_state
	ldr	x1, [x20]
	mov	x0, x20
	ldr	x1, [x1, 16]
	blr	x1
	ldr	x21, [x21, #:got_lo12:__libc_single_threaded]
	ldrb	w0, [x21]
	cbz	w0, .L1514
	ldr	w0, [x20, 12]
	sub	w1, w0, #1
	str	w1, [x20, 12]
.L1515:
	cmp	w0, 1
	bne	.L1525
	ldr	x1, [x20]
	mov	x0, x20
	ldr	x1, [x1, 24]
	blr	x1
	ldr	x21, [sp, 32]
	.cfi_remember_state
	.cfi_restore 21
	b	.L1510
	.p2align 2,,3
.L1508:
	.cfi_restore_state
	add	x1, x1, 8
	mov	w0, 1
	bl	__aarch64_ldadd4_acq_rel
	b	.L1507
.L1511:
	add	x1, x20, 8
	mov	w0, -1
	bl	__aarch64_ldadd4_acq_rel
	b	.L1512
.L1514:
	add	x1, x20, 12
	mov	w0, -1
	bl	__aarch64_ldadd4_acq_rel
	b	.L1515
	.cfi_endproc
.LFE10208:
	.size	_ZNSt17_Function_handlerIFbvEZN8asiodnp315OutstationStack7DisableEvEUlvE_E10_M_managerERSt9_Any_dataRKS5_St18_Manager_operation, .-_ZNSt17_Function_handlerIFbvEZN8asiodnp315OutstationStack7DisableEvEUlvE_E10_M_managerERSt9_Any_dataRKS5_St18_Manager_operation
	.align	2
	.p2align 4,,11
	.type	_ZNSt17_Function_handlerIFN8opendnp315StackStatisticsEvEZN8asiodnp315OutstationStack18GetStackStatisticsEvEUlvE_E10_M_managerERSt9_Any_dataRKS7_St18_Manager_operation, %function
_ZNSt17_Function_handlerIFN8opendnp315StackStatisticsEvEZN8asiodnp315OutstationStack18GetStackStatisticsEvEUlvE_E10_M_managerERSt9_Any_dataRKS7_St18_Manager_operation:
.LFB10224:
	.cfi_startproc
	stp	x29, x30, [sp, -48]!
	.cfi_def_cfa_offset 48
	.cfi_offset 29, -48
	.cfi_offset 30, -40
	mov	x29, sp
	stp	x19, x20, [sp, 16]
	.cfi_offset 19, -32
	.cfi_offset 20, -24
	mov	x19, x0
	cbz	w2, .L1528
	cmp	w2, 1
	beq	.L1529
	cmp	w2, 2
	beq	.L1532
	cmp	w2, 3
	bne	.L1531
	ldr	x19, [x0]
	cbz	x19, .L1531
	ldr	x20, [x19, 8]
	cbz	x20, .L1537
	str	x21, [sp, 32]
	.cfi_offset 21, -16
	adrp	x21, :got:__libc_single_threaded
	ldr	x0, [x21, #:got_lo12:__libc_single_threaded]
	ldrb	w0, [x0]
	cbz	w0, .L1538
	ldr	w0, [x20, 8]
	sub	w1, w0, #1
	str	w1, [x20, 8]
.L1539:
	cmp	w0, 1
	beq	.L1553
.L1552:
	ldr	x21, [sp, 32]
	.cfi_restore 21
.L1537:
	mov	x0, x19
	mov	x1, 16
	bl	_ZdlPvm
.L1531:
	mov	w0, 0
	ldp	x19, x20, [sp, 16]
	ldp	x29, x30, [sp], 48
	.cfi_remember_state
	.cfi_restore 30
	.cfi_restore 29
	.cfi_restore 19
	.cfi_restore 20
	.cfi_def_cfa_offset 0
	ret
	.p2align 2,,3
.L1528:
	.cfi_restore_state
	adrp	x0, .LANCHOR0
	add	x0, x0, :lo12:.LANCHOR0
	add	x0, x0, 16
	str	x0, [x19]
	mov	w0, 0
	ldp	x19, x20, [sp, 16]
	ldp	x29, x30, [sp], 48
	.cfi_remember_state
	.cfi_restore 30
	.cfi_restore 29
	.cfi_restore 19
	.cfi_restore 20
	.cfi_def_cfa_offset 0
	ret
	.p2align 2,,3
.L1529:
	.cfi_restore_state
	ldr	x0, [x1]
	str	x0, [x19]
	mov	w0, 0
	ldp	x19, x20, [sp, 16]
	ldp	x29, x30, [sp], 48
	.cfi_remember_state
	.cfi_restore 30
	.cfi_restore 29
	.cfi_restore 19
	.cfi_restore 20
	.cfi_def_cfa_offset 0
	ret
	.p2align 2,,3
.L1532:
	.cfi_restore_state
	str	x21, [sp, 32]
	.cfi_offset 21, -16
	mov	x0, 16
	ldr	x21, [x1]
	bl	_Znwm
	mov	x20, x0
	ldr	q0, [x21]
	umov	x1, v0.d[1]
	str	q0, [x0]
	cbz	x1, .L1534
	adrp	x0, :got:__libc_single_threaded
	ldr	x0, [x0, #:got_lo12:__libc_single_threaded]
	ldrb	w0, [x0]
	cbz	w0, .L1535
	ldr	w0, [x1, 8]
	add	w0, w0, 1
	str	w0, [x1, 8]
.L1534:
	ldr	x21, [sp, 32]
	.cfi_remember_state
	.cfi_restore 21
	str	x20, [x19]
	b	.L1531
.L1553:
	.cfi_restore_state
	ldr	x1, [x20]
	mov	x0, x20
	ldr	x1, [x1, 16]
	blr	x1
	ldr	x21, [x21, #:got_lo12:__libc_single_threaded]
	ldrb	w0, [x21]
	cbz	w0, .L1541
	ldr	w0, [x20, 12]
	sub	w1, w0, #1
	str	w1, [x20, 12]
.L1542:
	cmp	w0, 1
	bne	.L1552
	ldr	x1, [x20]
	mov	x0, x20
	ldr	x1, [x1, 24]
	blr	x1
	ldr	x21, [sp, 32]
	.cfi_remember_state
	.cfi_restore 21
	b	.L1537
	.p2align 2,,3
.L1535:
	.cfi_restore_state
	add	x1, x1, 8
	mov	w0, 1
	bl	__aarch64_ldadd4_acq_rel
	b	.L1534
.L1538:
	add	x1, x20, 8
	mov	w0, -1
	bl	__aarch64_ldadd4_acq_rel
	b	.L1539
.L1541:
	add	x1, x20, 12
	mov	w0, -1
	bl	__aarch64_ldadd4_acq_rel
	b	.L1542
	.cfi_endproc
.LFE10224:
	.size	_ZNSt17_Function_handlerIFN8opendnp315StackStatisticsEvEZN8asiodnp315OutstationStack18GetStackStatisticsEvEUlvE_E10_M_managerERSt9_Any_dataRKS7_St18_Manager_operation, .-_ZNSt17_Function_handlerIFN8opendnp315StackStatisticsEvEZN8asiodnp315OutstationStack18GetStackStatisticsEvEUlvE_E10_M_managerERSt9_Any_dataRKS7_St18_Manager_operation
	.section	.text._ZNSt17_Function_handlerIFvvEZN8asiodnp39StackBase15PerformShutdownINS1_15OutstationStackEEEvRKSt10shared_ptrIT_EEUlvE_E10_M_managerERSt9_Any_dataRKSC_St18_Manager_operation,"axG",@progbits,_ZNSt17_Function_handlerIFvvEZN8asiodnp39StackBase15PerformShutdownINS1_15OutstationStackEEEvRKSt10shared_ptrIT_EEUlvE_E10_M_managerERSt9_Any_dataRKSC_St18_Manager_operation,comdat
	.align	2
	.p2align 4,,11
	.weak	_ZNSt17_Function_handlerIFvvEZN8asiodnp39StackBase15PerformShutdownINS1_15OutstationStackEEEvRKSt10shared_ptrIT_EEUlvE_E10_M_managerERSt9_Any_dataRKSC_St18_Manager_operation
	.type	_ZNSt17_Function_handlerIFvvEZN8asiodnp39StackBase15PerformShutdownINS1_15OutstationStackEEEvRKSt10shared_ptrIT_EEUlvE_E10_M_managerERSt9_Any_dataRKSC_St18_Manager_operation, %function
_ZNSt17_Function_handlerIFvvEZN8asiodnp39StackBase15PerformShutdownINS1_15OutstationStackEEEvRKSt10shared_ptrIT_EEUlvE_E10_M_managerERSt9_Any_dataRKSC_St18_Manager_operation:
.LFB10667:
	.cfi_startproc
	stp	x29, x30, [sp, -48]!
	.cfi_def_cfa_offset 48
	.cfi_offset 29, -48
	.cfi_offset 30, -40
	mov	x29, sp
	stp	x19, x20, [sp, 16]
	.cfi_offset 19, -32
	.cfi_offset 20, -24
	mov	x19, x0
	cbz	w2, .L1555
	cmp	w2, 1
	beq	.L1556
	cmp	w2, 2
	beq	.L1559
	cmp	w2, 3
	bne	.L1558
	ldr	x19, [x0]
	cbz	x19, .L1558
	ldr	x20, [x19, 8]
	cbz	x20, .L1564
	str	x21, [sp, 32]
	.cfi_offset 21, -16
	adrp	x21, :got:__libc_single_threaded
	ldr	x0, [x21, #:got_lo12:__libc_single_threaded]
	ldrb	w0, [x0]
	cbz	w0, .L1565
	ldr	w0, [x20, 8]
	sub	w1, w0, #1
	str	w1, [x20, 8]
.L1566:
	cmp	w0, 1
	beq	.L1580
.L1579:
	ldr	x21, [sp, 32]
	.cfi_restore 21
.L1564:
	mov	x0, x19
	mov	x1, 16
	bl	_ZdlPvm
.L1558:
	mov	w0, 0
	ldp	x19, x20, [sp, 16]
	ldp	x29, x30, [sp], 48
	.cfi_remember_state
	.cfi_restore 30
	.cfi_restore 29
	.cfi_restore 19
	.cfi_restore 20
	.cfi_def_cfa_offset 0
	ret
	.p2align 2,,3
.L1555:
	.cfi_restore_state
	adrp	x0, :got:_ZTIZN8asiodnp39StackBase15PerformShutdownINS_15OutstationStackEEEvRKSt10shared_ptrIT_EEUlvE_
	ldr	x0, [x0, #:got_lo12:_ZTIZN8asiodnp39StackBase15PerformShutdownINS_15OutstationStackEEEvRKSt10shared_ptrIT_EEUlvE_]
	str	x0, [x19]
	mov	w0, 0
	ldp	x19, x20, [sp, 16]
	ldp	x29, x30, [sp], 48
	.cfi_remember_state
	.cfi_restore 30
	.cfi_restore 29
	.cfi_restore 19
	.cfi_restore 20
	.cfi_def_cfa_offset 0
	ret
	.p2align 2,,3
.L1556:
	.cfi_restore_state
	ldr	x0, [x1]
	str	x0, [x19]
	mov	w0, 0
	ldp	x19, x20, [sp, 16]
	ldp	x29, x30, [sp], 48
	.cfi_remember_state
	.cfi_restore 30
	.cfi_restore 29
	.cfi_restore 19
	.cfi_restore 20
	.cfi_def_cfa_offset 0
	ret
	.p2align 2,,3
.L1559:
	.cfi_restore_state
	str	x21, [sp, 32]
	.cfi_offset 21, -16
	mov	x0, 16
	ldr	x21, [x1]
	bl	_Znwm
	mov	x20, x0
	ldr	q0, [x21]
	umov	x1, v0.d[1]
	str	q0, [x0]
	cbz	x1, .L1561
	adrp	x0, :got:__libc_single_threaded
	ldr	x0, [x0, #:got_lo12:__libc_single_threaded]
	ldrb	w0, [x0]
	cbz	w0, .L1562
	ldr	w0, [x1, 8]
	add	w0, w0, 1
	str	w0, [x1, 8]
.L1561:
	ldr	x21, [sp, 32]
	.cfi_remember_state
	.cfi_restore 21
	str	x20, [x19]
	b	.L1558
.L1580:
	.cfi_restore_state
	ldr	x1, [x20]
	mov	x0, x20
	ldr	x1, [x1, 16]
	blr	x1
	ldr	x21, [x21, #:got_lo12:__libc_single_threaded]
	ldrb	w0, [x21]
	cbz	w0, .L1568
	ldr	w0, [x20, 12]
	sub	w1, w0, #1
	str	w1, [x20, 12]
.L1569:
	cmp	w0, 1
	bne	.L1579
	ldr	x1, [x20]
	mov	x0, x20
	ldr	x1, [x1, 24]
	blr	x1
	ldr	x21, [sp, 32]
	.cfi_remember_state
	.cfi_restore 21
	b	.L1564
	.p2align 2,,3
.L1562:
	.cfi_restore_state
	add	x1, x1, 8
	mov	w0, 1
	bl	__aarch64_ldadd4_acq_rel
	b	.L1561
.L1565:
	add	x1, x20, 8
	mov	w0, -1
	bl	__aarch64_ldadd4_acq_rel
	b	.L1566
.L1568:
	add	x1, x20, 12
	mov	w0, -1
	bl	__aarch64_ldadd4_acq_rel
	b	.L1569
	.cfi_endproc
.LFE10667:
	.size	_ZNSt17_Function_handlerIFvvEZN8asiodnp39StackBase15PerformShutdownINS1_15OutstationStackEEEvRKSt10shared_ptrIT_EEUlvE_E10_M_managerERSt9_Any_dataRKSC_St18_Manager_operation, .-_ZNSt17_Function_handlerIFvvEZN8asiodnp39StackBase15PerformShutdownINS1_15OutstationStackEEEvRKSt10shared_ptrIT_EEUlvE_E10_M_managerERSt9_Any_dataRKSC_St18_Manager_operation
	.text
	.align	2
	.p2align 4,,11
	.type	_ZNSt17_Function_handlerIFbvEZN8asiodnp315OutstationStack6EnableEvEUlvE_E10_M_managerERSt9_Any_dataRKS5_St18_Manager_operation, %function
_ZNSt17_Function_handlerIFbvEZN8asiodnp315OutstationStack6EnableEvEUlvE_E10_M_managerERSt9_Any_dataRKS5_St18_Manager_operation:
.LFB10185:
	.cfi_startproc
	stp	x29, x30, [sp, -48]!
	.cfi_def_cfa_offset 48
	.cfi_offset 29, -48
	.cfi_offset 30, -40
	mov	x29, sp
	stp	x19, x20, [sp, 16]
	.cfi_offset 19, -32
	.cfi_offset 20, -24
	mov	x19, x0
	cbz	w2, .L1582
	cmp	w2, 1
	beq	.L1583
	cmp	w2, 2
	beq	.L1586
	cmp	w2, 3
	bne	.L1585
	ldr	x19, [x0]
	cbz	x19, .L1585
	ldr	x20, [x19, 8]
	cbz	x20, .L1591
	str	x21, [sp, 32]
	.cfi_offset 21, -16
	adrp	x21, :got:__libc_single_threaded
	ldr	x0, [x21, #:got_lo12:__libc_single_threaded]
	ldrb	w0, [x0]
	cbz	w0, .L1592
	ldr	w0, [x20, 8]
	sub	w1, w0, #1
	str	w1, [x20, 8]
.L1593:
	cmp	w0, 1
	beq	.L1607
.L1606:
	ldr	x21, [sp, 32]
	.cfi_restore 21
.L1591:
	mov	x0, x19
	mov	x1, 16
	bl	_ZdlPvm
.L1585:
	mov	w0, 0
	ldp	x19, x20, [sp, 16]
	ldp	x29, x30, [sp], 48
	.cfi_remember_state
	.cfi_restore 30
	.cfi_restore 29
	.cfi_restore 19
	.cfi_restore 20
	.cfi_def_cfa_offset 0
	ret
	.p2align 2,,3
.L1582:
	.cfi_restore_state
	adrp	x0, .LANCHOR0
	add	x0, x0, :lo12:.LANCHOR0
	add	x0, x0, 32
	str	x0, [x19]
	mov	w0, 0
	ldp	x19, x20, [sp, 16]
	ldp	x29, x30, [sp], 48
	.cfi_remember_state
	.cfi_restore 30
	.cfi_restore 29
	.cfi_restore 19
	.cfi_restore 20
	.cfi_def_cfa_offset 0
	ret
	.p2align 2,,3
.L1583:
	.cfi_restore_state
	ldr	x0, [x1]
	str	x0, [x19]
	mov	w0, 0
	ldp	x19, x20, [sp, 16]
	ldp	x29, x30, [sp], 48
	.cfi_remember_state
	.cfi_restore 30
	.cfi_restore 29
	.cfi_restore 19
	.cfi_restore 20
	.cfi_def_cfa_offset 0
	ret
	.p2align 2,,3
.L1586:
	.cfi_restore_state
	str	x21, [sp, 32]
	.cfi_offset 21, -16
	mov	x0, 16
	ldr	x21, [x1]
	bl	_Znwm
	mov	x20, x0
	ldr	q0, [x21]
	umov	x1, v0.d[1]
	str	q0, [x0]
	cbz	x1, .L1588
	adrp	x0, :got:__libc_single_threaded
	ldr	x0, [x0, #:got_lo12:__libc_single_threaded]
	ldrb	w0, [x0]
	cbz	w0, .L1589
	ldr	w0, [x1, 8]
	add	w0, w0, 1
	str	w0, [x1, 8]
.L1588:
	ldr	x21, [sp, 32]
	.cfi_remember_state
	.cfi_restore 21
	str	x20, [x19]
	b	.L1585
.L1607:
	.cfi_restore_state
	ldr	x1, [x20]
	mov	x0, x20
	ldr	x1, [x1, 16]
	blr	x1
	ldr	x21, [x21, #:got_lo12:__libc_single_threaded]
	ldrb	w0, [x21]
	cbz	w0, .L1595
	ldr	w0, [x20, 12]
	sub	w1, w0, #1
	str	w1, [x20, 12]
.L1596:
	cmp	w0, 1
	bne	.L1606
	ldr	x1, [x20]
	mov	x0, x20
	ldr	x1, [x1, 24]
	blr	x1
	ldr	x21, [sp, 32]
	.cfi_remember_state
	.cfi_restore 21
	b	.L1591
	.p2align 2,,3
.L1589:
	.cfi_restore_state
	add	x1, x1, 8
	mov	w0, 1
	bl	__aarch64_ldadd4_acq_rel
	b	.L1588
.L1592:
	add	x1, x20, 8
	mov	w0, -1
	bl	__aarch64_ldadd4_acq_rel
	b	.L1593
.L1595:
	add	x1, x20, 12
	mov	w0, -1
	bl	__aarch64_ldadd4_acq_rel
	b	.L1596
	.cfi_endproc
.LFE10185:
	.size	_ZNSt17_Function_handlerIFbvEZN8asiodnp315OutstationStack6EnableEvEUlvE_E10_M_managerERSt9_Any_dataRKS5_St18_Manager_operation, .-_ZNSt17_Function_handlerIFbvEZN8asiodnp315OutstationStack6EnableEvEUlvE_E10_M_managerERSt9_Any_dataRKS5_St18_Manager_operation
	.section	.rodata._ZNSt12system_errorC2ESt10error_codePKc.str1.8,"aMS",@progbits,1
	.align	3
.LC19:
	.string	": "
	.section	.text._ZNSt12system_errorC2ESt10error_codePKc,"axG",@progbits,_ZNSt12system_errorC5ESt10error_codePKc,comdat
	.align	2
	.p2align 4,,11
	.weak	_ZNSt12system_errorC2ESt10error_codePKc
	.type	_ZNSt12system_errorC2ESt10error_codePKc, %function
_ZNSt12system_errorC2ESt10error_codePKc:
.LFB2614:
	.cfi_startproc
	.cfi_personality 0x9b,DW.ref.__gxx_personality_v0
	.cfi_lsda 0x1b,.LLSDA2614
	stp	x29, x30, [sp, -176]!
	.cfi_def_cfa_offset 176
	.cfi_offset 29, -176
	.cfi_offset 30, -168
	adrp	x4, :got:__stack_chk_guard
	mov	x29, sp
	stp	x19, x20, [sp, 16]
	.cfi_offset 19, -160
	.cfi_offset 20, -152
	mov	x20, x2
	mov	x19, x0
	ldr	x2, [x4, #:got_lo12:__stack_chk_guard]
	stp	x21, x22, [sp, 32]
	mov	x0, x20
	ldr	x4, [x20]
	.cfi_offset 21, -144
	.cfi_offset 22, -136
	mov	x21, x1
	mov	x22, x3
	ldr	x4, [x4, 32]
	str	x23, [sp, 48]
	.cfi_offset 23, -128
	add	x23, sp, 136
	mov	x8, x23
	ldr	x3, [x2]
	str	x3, [sp, 168]
	mov	x3, 0
.LEHB22:
	blr	x4
.LEHE22:
	adrp	x3, .LC19
	mov	x0, x23
	add	x3, x3, :lo12:.LC19
	mov	x4, 2
	mov	x2, 0
	mov	x1, 0
.LEHB23:
	bl	_ZNSt7__cxx1112basic_stringIcSt11char_traitsIcESaIcEE10_M_replaceEmmPKcm
.LEHE23:
	add	x23, sp, 120
	str	x23, [sp, 104]
	mov	x4, x0
	ldr	x1, [x0], 16
	cmp	x1, x0
	beq	.L1628
	ldr	x2, [x4, 16]
	str	x1, [sp, 104]
	str	x2, [sp, 120]
.L1610:
	ldr	x1, [x4, 8]
	str	x1, [sp, 112]
	stp	x0, xzr, [x4]
	mov	x0, x22
	strb	wzr, [x4, 16]
	bl	strlen
	mov	x4, x0
	mov	x3, x22
	add	x0, sp, 104
	mov	x2, 0
	mov	x1, 0
.LEHB24:
	bl	_ZNSt7__cxx1112basic_stringIcSt11char_traitsIcESaIcEE10_M_replaceEmmPKcm
.LEHE24:
	add	x22, sp, 88
	str	x22, [sp, 72]
	mov	x3, x0
	ldr	x1, [x0], 16
	cmp	x1, x0
	beq	.L1629
	ldr	x2, [x3, 16]
	str	x1, [sp, 72]
	str	x2, [sp, 88]
.L1612:
	ldr	x1, [x3, 8]
	str	x1, [sp, 80]
	stp	x0, xzr, [x3]
	add	x1, sp, 72
	mov	x0, x19
	strb	wzr, [x3, 16]
.LEHB25:
	bl	_ZNSt13runtime_errorC2ERKNSt7__cxx1112basic_stringIcSt11char_traitsIcESaIcEEE
.LEHE25:
	ldr	x0, [sp, 72]
	cmp	x0, x22
	beq	.L1613
	ldr	x1, [sp, 88]
	add	x1, x1, 1
	bl	_ZdlPvm
.L1613:
	ldr	x0, [sp, 104]
	cmp	x0, x23
	beq	.L1614
	ldr	x1, [sp, 120]
	add	x1, x1, 1
	bl	_ZdlPvm
.L1614:
	ldr	x0, [sp, 136]
	add	x1, sp, 152
	cmp	x0, x1
	beq	.L1615
	ldr	x1, [sp, 152]
	add	x1, x1, 1
	bl	_ZdlPvm
.L1615:
	adrp	x0, :got:_ZTVSt12system_error
	adrp	x1, :got:__stack_chk_guard
	stp	x21, x20, [x19, 16]
	ldr	x0, [x0, #:got_lo12:_ZTVSt12system_error]
	ldr	x1, [x1, #:got_lo12:__stack_chk_guard]
	add	x0, x0, 16
	str	x0, [x19]
	ldr	x0, [sp, 168]
	ldr	x2, [x1]
	subs	x0, x0, x2
	mov	x2, 0
	bne	.L1630
	ldp	x19, x20, [sp, 16]
	ldp	x21, x22, [sp, 32]
	ldr	x23, [sp, 48]
	ldp	x29, x30, [sp], 176
	.cfi_remember_state
	.cfi_restore 30
	.cfi_restore 29
	.cfi_restore 23
	.cfi_restore 21
	.cfi_restore 22
	.cfi_restore 19
	.cfi_restore 20
	.cfi_def_cfa_offset 0
	ret
	.p2align 2,,3
.L1628:
	.cfi_restore_state
	ldp	x2, x3, [x4, 16]
	stp	x2, x3, [sp, 120]
	b	.L1610
	.p2align 2,,3
.L1629:
	ldp	x4, x5, [x3, 16]
	stp	x4, x5, [sp, 88]
	b	.L1612
.L1630:
	bl	__stack_chk_fail
.L1625:
	ldr	x2, [sp, 72]
	mov	x19, x0
	cmp	x2, x22
	beq	.L1618
	ldr	x1, [sp, 88]
	mov	x0, x2
	add	x1, x1, 1
	bl	_ZdlPvm
.L1618:
	ldr	x0, [sp, 104]
	cmp	x0, x23
	beq	.L1620
	ldr	x1, [sp, 120]
	add	x1, x1, 1
	bl	_ZdlPvm
.L1620:
	ldr	x0, [sp, 136]
	add	x1, sp, 152
	cmp	x0, x1
	beq	.L1621
	ldr	x1, [sp, 152]
	add	x1, x1, 1
	bl	_ZdlPvm
.L1621:
	mov	x0, x19
.LEHB26:
	bl	_Unwind_Resume
.LEHE26:
.L1623:
	mov	x19, x0
	b	.L1620
.L1624:
	mov	x19, x0
	b	.L1618
	.cfi_endproc
.LFE2614:
	.section	.gcc_except_table
.LLSDA2614:
	.byte	0xff
	.byte	0xff
	.byte	0x1
	.uleb128 .LLSDACSE2614-.LLSDACSB2614
.LLSDACSB2614:
	.uleb128 .LEHB22-.LFB2614
	.uleb128 .LEHE22-.LEHB22
	.uleb128 0
	.uleb128 0
	.uleb128 .LEHB23-.LFB2614
	.uleb128 .LEHE23-.LEHB23
	.uleb128 .L1623-.LFB2614
	.uleb128 0
	.uleb128 .LEHB24-.LFB2614
	.uleb128 .LEHE24-.LEHB24
	.uleb128 .L1624-.LFB2614
	.uleb128 0
	.uleb128 .LEHB25-.LFB2614
	.uleb128 .LEHE25-.LEHB25
	.uleb128 .L1625-.LFB2614
	.uleb128 0
	.uleb128 .LEHB26-.LFB2614
	.uleb128 .LEHE26-.LEHB26
	.uleb128 0
	.uleb128 0
.LLSDACSE2614:
	.section	.text._ZNSt12system_errorC2ESt10error_codePKc,"axG",@progbits,_ZNSt12system_errorC5ESt10error_codePKc,comdat
	.size	_ZNSt12system_errorC2ESt10error_codePKc, .-_ZNSt12system_errorC2ESt10error_codePKc
	.weak	_ZNSt12system_errorC1ESt10error_codePKc
	.set	_ZNSt12system_errorC1ESt10error_codePKc,_ZNSt12system_errorC2ESt10error_codePKc
	.section	.rodata._ZN4asio6detail20posix_tss_ptr_createERj.str1.8,"aMS",@progbits,1
	.align	3
.LC20:
	.string	"tss"
	.section	.text._ZN4asio6detail20posix_tss_ptr_createERj,"axG",@progbits,_ZN4asio6detail20posix_tss_ptr_createERj,comdat
	.align	2
	.p2align 4,,11
	.weak	_ZN4asio6detail20posix_tss_ptr_createERj
	.type	_ZN4asio6detail20posix_tss_ptr_createERj, %function
_ZN4asio6detail20posix_tss_ptr_createERj:
.LFB2702:
	.cfi_startproc
	.cfi_personality 0x9b,DW.ref.__gxx_personality_v0
	.cfi_lsda 0x1b,.LLSDA2702
	stp	x29, x30, [sp, -96]!
	.cfi_def_cfa_offset 96
	.cfi_offset 29, -96
	.cfi_offset 30, -88
	adrp	x2, :got:__stack_chk_guard
	mov	x1, 0
	mov	x29, sp
	ldr	x2, [x2, #:got_lo12:__stack_chk_guard]
	stp	x19, x20, [sp, 16]
	.cfi_offset 19, -80
	.cfi_offset 20, -72
	adrp	x20, :got:_ZGVZN4asio15system_categoryEvE8instance
	str	x21, [sp, 32]
	.cfi_offset 21, -64
	ldr	x3, [x2]
	str	x3, [sp, 88]
	mov	x3, 0
	bl	pthread_key_create
	mov	w19, w0
	ldr	x20, [x20, #:got_lo12:_ZGVZN4asio15system_categoryEvE8instance]
	ldar	x0, [x20]
	adrp	x21, :got:_ZZN4asio15system_categoryEvE8instance
	tbz	x0, 0, .L1643
.L1633:
	mov	x1, 0
	ldr	x21, [x21, #:got_lo12:_ZZN4asio15system_categoryEvE8instance]
	bfi	x1, x19, 0, 32
	cbnz	w19, .L1644
	adrp	x0, :got:__stack_chk_guard
	ldr	x0, [x0, #:got_lo12:__stack_chk_guard]
	ldr	x2, [sp, 88]
	ldr	x1, [x0]
	subs	x2, x2, x1
	mov	x1, 0
	bne	.L1645
	ldp	x19, x20, [sp, 16]
	ldr	x21, [sp, 32]
	ldp	x29, x30, [sp], 96
	.cfi_remember_state
	.cfi_restore 30
	.cfi_restore 29
	.cfi_restore 21
	.cfi_restore 19
	.cfi_restore 20
	.cfi_def_cfa_offset 0
	ret
	.p2align 2,,3
.L1643:
	.cfi_restore_state
	mov	x0, x20
	adrp	x21, :got:_ZZN4asio15system_categoryEvE8instance
	bl	__cxa_guard_acquire
	cbz	w0, .L1633
	adrp	x0, :got:_ZN4asio6detail15system_categoryD1Ev
	adrp	x2, __dso_handle
	ldr	x1, [x21, #:got_lo12:_ZZN4asio15system_categoryEvE8instance]
	add	x2, x2, :lo12:__dso_handle
	ldr	x0, [x0, #:got_lo12:_ZN4asio6detail15system_categoryD1Ev]
	bl	__cxa_atexit
	mov	x0, x20
	bl	__cxa_guard_release
	b	.L1633
.L1645:
	bl	__stack_chk_fail
.L1644:
	mov	x2, x21
	adrp	x3, .LC20
	add	x3, x3, :lo12:.LC20
	add	x20, sp, 56
	mov	x0, x20
.LEHB27:
	bl	_ZNSt12system_errorC1ESt10error_codePKc
.LEHE27:
	mov	x0, 32
	bl	__cxa_allocate_exception
	mov	x19, x0
	mov	x1, x20
	bl	_ZNSt13runtime_errorC2ERKS_
	adrp	x3, :got:_ZTVSt12system_error
	adrp	x2, :got:_ZNSt12system_errorD1Ev
	adrp	x1, :got:_ZTISt12system_error
	mov	x0, x19
	ldr	x3, [x3, #:got_lo12:_ZTVSt12system_error]
	ldp	x4, x5, [sp, 72]
	add	x3, x3, 16
	ldr	x2, [x2, #:got_lo12:_ZNSt12system_errorD1Ev]
	str	x3, [x19]
	ldr	x1, [x1, #:got_lo12:_ZTISt12system_error]
	stp	x4, x5, [x19, 16]
.LEHB28:
	bl	__cxa_throw
.LEHE28:
.L1638:
	mov	x19, x0
	mov	x0, x20
	bl	_ZNSt12system_errorD1Ev
	mov	x0, x19
.LEHB29:
	bl	_Unwind_Resume
.LEHE29:
	.cfi_endproc
.LFE2702:
	.section	.gcc_except_table
.LLSDA2702:
	.byte	0xff
	.byte	0xff
	.byte	0x1
	.uleb128 .LLSDACSE2702-.LLSDACSB2702
.LLSDACSB2702:
	.uleb128 .LEHB27-.LFB2702
	.uleb128 .LEHE27-.LEHB27
	.uleb128 0
	.uleb128 0
	.uleb128 .LEHB28-.LFB2702
	.uleb128 .LEHE28-.LEHB28
	.uleb128 .L1638-.LFB2702
	.uleb128 0
	.uleb128 .LEHB29-.LFB2702
	.uleb128 .LEHE29-.LEHB29
	.uleb128 0
	.uleb128 0
.LLSDACSE2702:
	.section	.text._ZN4asio6detail20posix_tss_ptr_createERj,"axG",@progbits,_ZN4asio6detail20posix_tss_ptr_createERj,comdat
	.size	_ZN4asio6detail20posix_tss_ptr_createERj, .-_ZN4asio6detail20posix_tss_ptr_createERj
	.section	.text._ZN7openpal6LoggerD2Ev,"axG",@progbits,_ZN7openpal6LoggerD5Ev,comdat
	.align	2
	.p2align 4,,11
	.weak	_ZN7openpal6LoggerD2Ev
	.type	_ZN7openpal6LoggerD2Ev, %function
_ZN7openpal6LoggerD2Ev:
.LFB7556:
	.cfi_startproc
	stp	x29, x30, [sp, -48]!
	.cfi_def_cfa_offset 48
	.cfi_offset 29, -48
	.cfi_offset 30, -40
	mov	x29, sp
	stp	x19, x20, [sp, 16]
	.cfi_offset 19, -32
	.cfi_offset 20, -24
	mov	x19, x0
	ldr	x20, [x0, 24]
	str	x21, [sp, 32]
	.cfi_offset 21, -16
	cbz	x20, .L1648
	adrp	x21, :got:__libc_single_threaded
	ldr	x0, [x21, #:got_lo12:__libc_single_threaded]
	ldrb	w0, [x0]
	cbz	w0, .L1649
	ldr	w0, [x20, 8]
	sub	w1, w0, #1
	str	w1, [x20, 8]
.L1650:
	cmp	w0, 1
	beq	.L1662
.L1648:
	ldr	x19, [x19, 8]
	cbz	x19, .L1646
	adrp	x21, :got:__libc_single_threaded
	ldr	x0, [x21, #:got_lo12:__libc_single_threaded]
	ldrb	w0, [x0]
	cbz	w0, .L1656
	ldr	w0, [x19, 8]
	sub	w1, w0, #1
	str	w1, [x19, 8]
.L1657:
	cmp	w0, 1
	beq	.L1663
.L1646:
	ldp	x19, x20, [sp, 16]
	ldr	x21, [sp, 32]
	ldp	x29, x30, [sp], 48
	.cfi_remember_state
	.cfi_restore 30
	.cfi_restore 29
	.cfi_restore 21
	.cfi_restore 19
	.cfi_restore 20
	.cfi_def_cfa_offset 0
	ret
	.p2align 2,,3
.L1662:
	.cfi_restore_state
	ldr	x1, [x20]
	mov	x0, x20
	ldr	x1, [x1, 16]
	blr	x1
	ldr	x21, [x21, #:got_lo12:__libc_single_threaded]
	ldrb	w0, [x21]
	cbz	w0, .L1652
	ldr	w0, [x20, 12]
	sub	w1, w0, #1
	str	w1, [x20, 12]
.L1653:
	cmp	w0, 1
	bne	.L1648
	ldr	x1, [x20]
	mov	x0, x20
	ldr	x1, [x1, 24]
	blr	x1
	b	.L1648
	.p2align 2,,3
.L1663:
	ldr	x1, [x19]
	mov	x0, x19
	ldr	x1, [x1, 16]
	blr	x1
	ldr	x21, [x21, #:got_lo12:__libc_single_threaded]
	ldrb	w0, [x21]
	cbz	w0, .L1659
	ldr	w0, [x19, 12]
	sub	w1, w0, #1
	str	w1, [x19, 12]
.L1660:
	cmp	w0, 1
	bne	.L1646
	ldr	x1, [x19]
	mov	x0, x19
	ldp	x19, x20, [sp, 16]
	ldr	x21, [sp, 32]
	ldp	x29, x30, [sp], 48
	.cfi_remember_state
	.cfi_restore 30
	.cfi_restore 29
	.cfi_restore 21
	.cfi_restore 19
	.cfi_restore 20
	.cfi_def_cfa_offset 0
	ldr	x1, [x1, 24]
	mov	x16, x1
	br	x16
	.p2align 2,,3
.L1656:
	.cfi_restore_state
	add	x1, x19, 8
	mov	w0, -1
	bl	__aarch64_ldadd4_acq_rel
	b	.L1657
	.p2align 2,,3
.L1649:
	add	x1, x20, 8
	mov	w0, -1
	bl	__aarch64_ldadd4_acq_rel
	b	.L1650
	.p2align 2,,3
.L1652:
	add	x1, x20, 12
	mov	w0, -1
	bl	__aarch64_ldadd4_acq_rel
	b	.L1653
	.p2align 2,,3
.L1659:
	add	x1, x19, 12
	mov	w0, -1
	bl	__aarch64_ldadd4_acq_rel
	b	.L1660
	.cfi_endproc
.LFE7556:
	.size	_ZN7openpal6LoggerD2Ev, .-_ZN7openpal6LoggerD2Ev
	.weak	_ZN7openpal6LoggerD1Ev
	.set	_ZN7openpal6LoggerD1Ev,_ZN7openpal6LoggerD2Ev
	.section	.text._ZN8asiodnp39StackBaseD2Ev,"axG",@progbits,_ZN8asiodnp39StackBaseD5Ev,comdat
	.align	2
	.p2align 4,,11
	.weak	_ZN8asiodnp39StackBaseD2Ev
	.type	_ZN8asiodnp39StackBaseD2Ev, %function
_ZN8asiodnp39StackBaseD2Ev:
.LFB8384:
	.cfi_startproc
	stp	x29, x30, [sp, -48]!
	.cfi_def_cfa_offset 48
	.cfi_offset 29, -48
	.cfi_offset 30, -40
	mov	x29, sp
	str	x21, [sp, 32]
	.cfi_offset 21, -16
	ldr	x21, [x0, 104]
	stp	x19, x20, [sp, 16]
	.cfi_offset 19, -32
	.cfi_offset 20, -24
	mov	x20, x0
	cbz	x21, .L1666
	adrp	x19, :got:__libc_single_threaded
	ldr	x0, [x19, #:got_lo12:__libc_single_threaded]
	ldrb	w0, [x0]
	cbz	w0, .L1667
	ldr	w0, [x21, 8]
	sub	w1, w0, #1
	str	w1, [x21, 8]
.L1668:
	cmp	w0, 1
	beq	.L1715
.L1666:
	ldr	x21, [x20, 88]
	cbz	x21, .L1673
	adrp	x19, :got:__libc_single_threaded
	ldr	x0, [x19, #:got_lo12:__libc_single_threaded]
	ldrb	w0, [x0]
	cbz	w0, .L1674
	ldr	w0, [x21, 8]
	sub	w1, w0, #1
	str	w1, [x21, 8]
.L1675:
	cmp	w0, 1
	beq	.L1716
.L1673:
	ldr	x21, [x20, 72]
	cbz	x21, .L1680
	adrp	x19, :got:__libc_single_threaded
	ldr	x0, [x19, #:got_lo12:__libc_single_threaded]
	ldrb	w0, [x0]
	cbz	w0, .L1681
	ldr	w0, [x21, 8]
	sub	w1, w0, #1
	str	w1, [x21, 8]
.L1682:
	cmp	w0, 1
	beq	.L1717
.L1680:
	ldr	x21, [x20, 56]
	cbz	x21, .L1687
	adrp	x19, :got:__libc_single_threaded
	ldr	x0, [x19, #:got_lo12:__libc_single_threaded]
	ldrb	w0, [x0]
	cbz	w0, .L1688
	ldr	w0, [x21, 8]
	sub	w1, w0, #1
	str	w1, [x21, 8]
.L1689:
	cmp	w0, 1
	beq	.L1718
.L1687:
	ldr	x21, [x20, 40]
	cbz	x21, .L1694
	adrp	x19, :got:__libc_single_threaded
	ldr	x0, [x19, #:got_lo12:__libc_single_threaded]
	ldrb	w0, [x0]
	cbz	w0, .L1695
	ldr	w0, [x21, 8]
	sub	w1, w0, #1
	str	w1, [x21, 8]
.L1696:
	cmp	w0, 1
	beq	.L1719
.L1694:
	ldr	x21, [x20, 24]
	cbz	x21, .L1701
	adrp	x19, :got:__libc_single_threaded
	ldr	x0, [x19, #:got_lo12:__libc_single_threaded]
	ldrb	w0, [x0]
	cbz	w0, .L1702
	ldr	w0, [x21, 8]
	sub	w1, w0, #1
	str	w1, [x21, 8]
.L1703:
	cmp	w0, 1
	beq	.L1720
.L1701:
	ldr	x20, [x20, 8]
	cbz	x20, .L1664
	adrp	x19, :got:__libc_single_threaded
	ldr	x0, [x19, #:got_lo12:__libc_single_threaded]
	ldrb	w0, [x0]
	cbz	w0, .L1709
	ldr	w0, [x20, 8]
	sub	w1, w0, #1
	str	w1, [x20, 8]
.L1710:
	cmp	w0, 1
	beq	.L1721
.L1664:
	ldp	x19, x20, [sp, 16]
	ldr	x21, [sp, 32]
	ldp	x29, x30, [sp], 48
	.cfi_remember_state
	.cfi_restore 30
	.cfi_restore 29
	.cfi_restore 21
	.cfi_restore 19
	.cfi_restore 20
	.cfi_def_cfa_offset 0
	ret
	.p2align 2,,3
.L1715:
	.cfi_restore_state
	ldr	x1, [x21]
	mov	x0, x21
	ldr	x1, [x1, 16]
	blr	x1
	ldr	x19, [x19, #:got_lo12:__libc_single_threaded]
	ldrb	w0, [x19]
	cbz	w0, .L1670
	ldr	w0, [x21, 12]
	sub	w1, w0, #1
	str	w1, [x21, 12]
.L1671:
	cmp	w0, 1
	bne	.L1666
	ldr	x1, [x21]
	mov	x0, x21
	ldr	x1, [x1, 24]
	blr	x1
	b	.L1666
	.p2align 2,,3
.L1716:
	ldr	x1, [x21]
	mov	x0, x21
	ldr	x1, [x1, 16]
	blr	x1
	ldr	x19, [x19, #:got_lo12:__libc_single_threaded]
	ldrb	w0, [x19]
	cbz	w0, .L1677
	ldr	w0, [x21, 12]
	sub	w1, w0, #1
	str	w1, [x21, 12]
.L1678:
	cmp	w0, 1
	bne	.L1673
	ldr	x1, [x21]
	mov	x0, x21
	ldr	x1, [x1, 24]
	blr	x1
	b	.L1673
	.p2align 2,,3
.L1717:
	ldr	x1, [x21]
	mov	x0, x21
	ldr	x1, [x1, 16]
	blr	x1
	ldr	x19, [x19, #:got_lo12:__libc_single_threaded]
	ldrb	w0, [x19]
	cbz	w0, .L1684
	ldr	w0, [x21, 12]
	sub	w1, w0, #1
	str	w1, [x21, 12]
.L1685:
	cmp	w0, 1
	bne	.L1680
	ldr	x1, [x21]
	mov	x0, x21
	ldr	x1, [x1, 24]
	blr	x1
	b	.L1680
	.p2align 2,,3
.L1719:
	ldr	x1, [x21]
	mov	x0, x21
	ldr	x1, [x1, 16]
	blr	x1
	ldr	x19, [x19, #:got_lo12:__libc_single_threaded]
	ldrb	w0, [x19]
	cbz	w0, .L1698
	ldr	w0, [x21, 12]
	sub	w1, w0, #1
	str	w1, [x21, 12]
.L1699:
	cmp	w0, 1
	bne	.L1694
	ldr	x1, [x21]
	mov	x0, x21
	ldr	x1, [x1, 24]
	blr	x1
	b	.L1694
	.p2align 2,,3
.L1718:
	ldr	x1, [x21]
	mov	x0, x21
	ldr	x1, [x1, 16]
	blr	x1
	ldr	x19, [x19, #:got_lo12:__libc_single_threaded]
	ldrb	w0, [x19]
	cbz	w0, .L1691
	ldr	w0, [x21, 12]
	sub	w1, w0, #1
	str	w1, [x21, 12]
.L1692:
	cmp	w0, 1
	bne	.L1687
	ldr	x1, [x21]
	mov	x0, x21
	ldr	x1, [x1, 24]
	blr	x1
	b	.L1687
	.p2align 2,,3
.L1720:
	ldr	x1, [x21]
	mov	x0, x21
	ldr	x1, [x1, 16]
	blr	x1
	ldr	x19, [x19, #:got_lo12:__libc_single_threaded]
	ldrb	w0, [x19]
	cbz	w0, .L1705
	ldr	w0, [x21, 12]
	sub	w1, w0, #1
	str	w1, [x21, 12]
.L1706:
	cmp	w0, 1
	bne	.L1701
	ldr	x1, [x21]
	mov	x0, x21
	ldr	x1, [x1, 24]
	blr	x1
	b	.L1701
	.p2align 2,,3
.L1721:
	ldr	x1, [x20]
	mov	x0, x20
	ldr	x1, [x1, 16]
	blr	x1
	ldr	x19, [x19, #:got_lo12:__libc_single_threaded]
	ldrb	w0, [x19]
	cbz	w0, .L1712
	ldr	w0, [x20, 12]
	sub	w1, w0, #1
	str	w1, [x20, 12]
.L1713:
	cmp	w0, 1
	bne	.L1664
	ldr	x1, [x20]
	mov	x0, x20
	ldp	x19, x20, [sp, 16]
	ldr	x21, [sp, 32]
	ldp	x29, x30, [sp], 48
	.cfi_remember_state
	.cfi_restore 30
	.cfi_restore 29
	.cfi_restore 21
	.cfi_restore 19
	.cfi_restore 20
	.cfi_def_cfa_offset 0
	ldr	x1, [x1, 24]
	mov	x16, x1
	br	x16
	.p2align 2,,3
.L1702:
	.cfi_restore_state
	add	x1, x21, 8
	mov	w0, -1
	bl	__aarch64_ldadd4_acq_rel
	b	.L1703
	.p2align 2,,3
.L1688:
	add	x1, x21, 8
	mov	w0, -1
	bl	__aarch64_ldadd4_acq_rel
	b	.L1689
	.p2align 2,,3
.L1695:
	add	x1, x21, 8
	mov	w0, -1
	bl	__aarch64_ldadd4_acq_rel
	b	.L1696
	.p2align 2,,3
.L1681:
	add	x1, x21, 8
	mov	w0, -1
	bl	__aarch64_ldadd4_acq_rel
	b	.L1682
	.p2align 2,,3
.L1674:
	add	x1, x21, 8
	mov	w0, -1
	bl	__aarch64_ldadd4_acq_rel
	b	.L1675
	.p2align 2,,3
.L1709:
	add	x1, x20, 8
	mov	w0, -1
	bl	__aarch64_ldadd4_acq_rel
	b	.L1710
	.p2align 2,,3
.L1667:
	add	x1, x21, 8
	mov	w0, -1
	bl	__aarch64_ldadd4_acq_rel
	b	.L1668
	.p2align 2,,3
.L1712:
	add	x1, x20, 12
	mov	w0, -1
	bl	__aarch64_ldadd4_acq_rel
	b	.L1713
	.p2align 2,,3
.L1670:
	add	x1, x21, 12
	mov	w0, -1
	bl	__aarch64_ldadd4_acq_rel
	b	.L1671
	.p2align 2,,3
.L1705:
	add	x1, x21, 12
	mov	w0, -1
	bl	__aarch64_ldadd4_acq_rel
	b	.L1706
	.p2align 2,,3
.L1677:
	add	x1, x21, 12
	mov	w0, -1
	bl	__aarch64_ldadd4_acq_rel
	b	.L1678
	.p2align 2,,3
.L1698:
	add	x1, x21, 12
	mov	w0, -1
	bl	__aarch64_ldadd4_acq_rel
	b	.L1699
	.p2align 2,,3
.L1684:
	add	x1, x21, 12
	mov	w0, -1
	bl	__aarch64_ldadd4_acq_rel
	b	.L1685
	.p2align 2,,3
.L1691:
	add	x1, x21, 12
	mov	w0, -1
	bl	__aarch64_ldadd4_acq_rel
	b	.L1692
	.cfi_endproc
.LFE8384:
	.size	_ZN8asiodnp39StackBaseD2Ev, .-_ZN8asiodnp39StackBaseD2Ev
	.weak	_ZN8asiodnp39StackBaseD1Ev
	.set	_ZN8asiodnp39StackBaseD1Ev,_ZN8asiodnp39StackBaseD2Ev
	.section	.text._ZNSt16_Sp_counted_baseILN9__gnu_cxx12_Lock_policyE2EE10_M_releaseEv,"axG",@progbits,_ZNSt16_Sp_counted_baseILN9__gnu_cxx12_Lock_policyE2EE10_M_releaseEv,comdat
	.align	2
	.p2align 4,,11
	.weak	_ZNSt16_Sp_counted_baseILN9__gnu_cxx12_Lock_policyE2EE10_M_releaseEv
	.type	_ZNSt16_Sp_counted_baseILN9__gnu_cxx12_Lock_policyE2EE10_M_releaseEv, %function
_ZNSt16_Sp_counted_baseILN9__gnu_cxx12_Lock_policyE2EE10_M_releaseEv:
.LFB9672:
	.cfi_startproc
	stp	x29, x30, [sp, -32]!
	.cfi_def_cfa_offset 32
	.cfi_offset 29, -32
	.cfi_offset 30, -24
	mov	x29, sp
	stp	x19, x20, [sp, 16]
	.cfi_offset 19, -16
	.cfi_offset 20, -8
	adrp	x20, :got:__libc_single_threaded
	mov	x19, x0
	ldr	x0, [x20, #:got_lo12:__libc_single_threaded]
	ldrb	w0, [x0]
	cbz	w0, .L1723
	ldr	w0, [x19, 8]
	sub	w1, w0, #1
	str	w1, [x19, 8]
.L1724:
	cmp	w0, 1
	beq	.L1731
.L1722:
	ldp	x19, x20, [sp, 16]
	ldp	x29, x30, [sp], 32
	.cfi_remember_state
	.cfi_restore 30
	.cfi_restore 29
	.cfi_restore 19
	.cfi_restore 20
	.cfi_def_cfa_offset 0
	ret
	.p2align 2,,3
.L1731:
	.cfi_restore_state
	ldr	x1, [x19]
	mov	x0, x19
	ldr	x1, [x1, 16]
	blr	x1
	ldr	x20, [x20, #:got_lo12:__libc_single_threaded]
	ldrb	w0, [x20]
	cbz	w0, .L1727
	ldr	w0, [x19, 12]
	sub	w1, w0, #1
	str	w1, [x19, 12]
.L1728:
	cmp	w0, 1
	bne	.L1722
	ldr	x1, [x19]
	mov	x0, x19
	ldp	x19, x20, [sp, 16]
	ldp	x29, x30, [sp], 32
	.cfi_remember_state
	.cfi_restore 30
	.cfi_restore 29
	.cfi_restore 19
	.cfi_restore 20
	.cfi_def_cfa_offset 0
	ldr	x1, [x1, 24]
	mov	x16, x1
	br	x16
	.p2align 2,,3
.L1723:
	.cfi_restore_state
	add	x1, x19, 8
	mov	w0, -1
	bl	__aarch64_ldadd4_acq_rel
	b	.L1724
	.p2align 2,,3
.L1727:
	add	x1, x19, 12
	mov	w0, -1
	bl	__aarch64_ldadd4_acq_rel
	b	.L1728
	.cfi_endproc
.LFE9672:
	.size	_ZNSt16_Sp_counted_baseILN9__gnu_cxx12_Lock_policyE2EE10_M_releaseEv, .-_ZNSt16_Sp_counted_baseILN9__gnu_cxx12_Lock_policyE2EE10_M_releaseEv
	.text
	.align	2
	.p2align 4,,11
	.type	_ZN4asio6detail18completion_handlerIZN8asiodnp315OutstationStack13SetRestartIINEvEUlvE_E11do_completeEPNS0_15task_io_serviceEPNS0_25task_io_service_operationERKSt10error_codem, %function
_ZN4asio6detail18completion_handlerIZN8asiodnp315OutstationStack13SetRestartIINEvEUlvE_E11do_completeEPNS0_15task_io_serviceEPNS0_25task_io_service_operationERKSt10error_codem:
.LFB11042:
	.cfi_startproc
	.cfi_personality 0x9b,DW.ref.__gxx_personality_v0
	.cfi_lsda 0x1b,.LLSDA11042
	stp	x29, x30, [sp, -64]!
	.cfi_def_cfa_offset 64
	.cfi_offset 29, -64
	.cfi_offset 30, -56
	adrp	x3, :got:_ZN4asio6detail10call_stackINS0_15task_io_serviceENS0_27task_io_service_thread_infoEE4top_E
	adrp	x2, :got:__stack_chk_guard
	mov	x29, sp
	ldr	x3, [x3, #:got_lo12:_ZN4asio6detail10call_stackINS0_15task_io_serviceENS0_27task_io_service_thread_infoEE4top_E]
	stp	x19, x20, [sp, 16]
	.cfi_offset 19, -48
	.cfi_offset 20, -40
	mov	x20, x0
	ldr	x2, [x2, #:got_lo12:__stack_chk_guard]
	stp	x21, x22, [sp, 32]
	.cfi_offset 21, -32
	.cfi_offset 22, -24
	ldr	w0, [x3]
	mov	x19, x1
	ldr	x1, [x2]
	str	x1, [sp, 56]
	mov	x1, 0
	ldp	x22, x21, [x19, 24]
	bl	pthread_getspecific
	cbz	x0, .L1733
	ldr	x0, [x0, 8]
	cbz	x0, .L1733
	ldr	x1, [x0]
	cbz	x1, .L1762
.L1733:
	mov	x0, x19
	bl	_ZdlPv
.L1734:
	cbz	x20, .L1735
	add	x19, sp, 48
	mov	w0, 1
	mov	x1, x19
	str	wzr, [sp, 48]
	bl	__aarch64_swp4_sync
	add	x0, x22, 152
.LEHB30:
	bl	_ZN8opendnp38OContext13SetRestartIINEv
.LEHE30:
	stlr	wzr, [x19]
.L1735:
	cbz	x21, .L1732
	adrp	x19, :got:__libc_single_threaded
	ldr	x0, [x19, #:got_lo12:__libc_single_threaded]
	ldrb	w0, [x0]
	cbz	w0, .L1738
	ldr	w0, [x21, 8]
	sub	w1, w0, #1
	str	w1, [x21, 8]
.L1739:
	cmp	w0, 1
	beq	.L1763
.L1732:
	adrp	x0, :got:__stack_chk_guard
	ldr	x0, [x0, #:got_lo12:__stack_chk_guard]
	ldr	x2, [sp, 56]
	ldr	x1, [x0]
	subs	x2, x2, x1
	mov	x1, 0
	bne	.L1761
	ldp	x19, x20, [sp, 16]
	ldp	x21, x22, [sp, 32]
	ldp	x29, x30, [sp], 64
	.cfi_remember_state
	.cfi_restore 30
	.cfi_restore 29
	.cfi_restore 21
	.cfi_restore 22
	.cfi_restore 19
	.cfi_restore 20
	.cfi_def_cfa_offset 0
	ret
	.p2align 2,,3
.L1763:
	.cfi_restore_state
	ldr	x1, [x21]
	mov	x0, x21
	ldr	x1, [x1, 16]
	blr	x1
	ldr	x19, [x19, #:got_lo12:__libc_single_threaded]
	ldrb	w0, [x19]
	cbz	w0, .L1741
	ldr	w0, [x21, 12]
	sub	w1, w0, #1
	str	w1, [x21, 12]
.L1742:
	cmp	w0, 1
	bne	.L1732
	adrp	x0, :got:__stack_chk_guard
	ldr	x0, [x0, #:got_lo12:__stack_chk_guard]
	ldr	x2, [sp, 56]
	ldr	x1, [x0]
	subs	x2, x2, x1
	mov	x1, 0
	bne	.L1761
	ldr	x1, [x21]
	mov	x0, x21
	ldp	x19, x20, [sp, 16]
	ldr	x1, [x1, 24]
	ldp	x21, x22, [sp, 32]
	mov	x16, x1
	ldp	x29, x30, [sp], 64
	.cfi_remember_state
	.cfi_restore 30
	.cfi_restore 29
	.cfi_restore 21
	.cfi_restore 22
	.cfi_restore 19
	.cfi_restore 20
	.cfi_def_cfa_offset 0
	br	x16
	.p2align 2,,3
.L1738:
	.cfi_restore_state
	add	x1, x21, 8
	mov	w0, -1
	bl	__aarch64_ldadd4_acq_rel
	b	.L1739
	.p2align 2,,3
.L1762:
	ldrb	w1, [x19, 40]
	strb	w1, [x19]
	str	x19, [x0]
	b	.L1734
	.p2align 2,,3
.L1741:
	add	x1, x21, 12
	mov	w0, -1
	bl	__aarch64_ldadd4_acq_rel
	b	.L1742
.L1761:
	bl	__stack_chk_fail
.L1747:
	mov	x20, x0
	stlr	wzr, [x19]
	cbz	x21, .L1745
	mov	x0, x21
	bl	_ZNSt16_Sp_counted_baseILN9__gnu_cxx12_Lock_policyE2EE10_M_releaseEv
.L1745:
	mov	x0, x20
.LEHB31:
	bl	_Unwind_Resume
.LEHE31:
	.cfi_endproc
.LFE11042:
	.section	.gcc_except_table
.LLSDA11042:
	.byte	0xff
	.byte	0xff
	.byte	0x1
	.uleb128 .LLSDACSE11042-.LLSDACSB11042
.LLSDACSB11042:
	.uleb128 .LEHB30-.LFB11042
	.uleb128 .LEHE30-.LEHB30
	.uleb128 .L1747-.LFB11042
	.uleb128 0
	.uleb128 .LEHB31-.LFB11042
	.uleb128 .LEHE31-.LEHB31
	.uleb128 0
	.uleb128 0
.LLSDACSE11042:
	.text
	.size	_ZN4asio6detail18completion_handlerIZN8asiodnp315OutstationStack13SetRestartIINEvEUlvE_E11do_completeEPNS0_15task_io_serviceEPNS0_25task_io_service_operationERKSt10error_codem, .-_ZN4asio6detail18completion_handlerIZN8asiodnp315OutstationStack13SetRestartIINEvEUlvE_E11do_completeEPNS0_15task_io_serviceEPNS0_25task_io_service_operationERKSt10error_codem
	.align	2
	.p2align 4,,11
	.type	_ZNSt17_Function_handlerIFbvEZN8asiodnp315OutstationStack6EnableEvEUlvE_E9_M_invokeERKSt9_Any_data, %function
_ZNSt17_Function_handlerIFbvEZN8asiodnp315OutstationStack6EnableEvEUlvE_E9_M_invokeERKSt9_Any_data:
.LFB10184:
	.cfi_startproc
	.cfi_personality 0x9b,DW.ref.__gxx_personality_v0
	.cfi_lsda 0x1b,.LLSDA10184
	stp	x29, x30, [sp, -80]!
	.cfi_def_cfa_offset 80
	.cfi_offset 29, -80
	.cfi_offset 30, -72
	adrp	x1, :got:__stack_chk_guard
	mov	x29, sp
	ldr	x1, [x1, #:got_lo12:__stack_chk_guard]
	stp	x19, x20, [sp, 16]
	ldr	x2, [x0]
	ldr	x0, [x1]
	str	x0, [sp, 72]
	mov	x0, 0
	ldp	x0, x1, [x2]
	add	x2, x0, 8
	stp	x2, x1, [sp, 56]
	.cfi_offset 19, -64
	.cfi_offset 20, -56
	ldr	x19, [x0, 88]
	cbz	x1, .L1765
	adrp	x0, :got:__libc_single_threaded
	ldr	x0, [x0, #:got_lo12:__libc_single_threaded]
	ldrb	w0, [x0]
	cbz	w0, .L1766
	ldr	w0, [x1, 8]
	add	w0, w0, 1
	str	w0, [x1, 8]
.L1765:
	mov	x0, x19
	add	x1, sp, 56
.LEHB32:
	bl	_ZN8asiodnp39IOHandler6EnableERKSt10shared_ptrIN8opendnp312ILinkSessionEE
.LEHE32:
	ldr	x20, [sp, 64]
	mov	w19, w0
	cbz	x20, .L1768
	str	x21, [sp, 32]
	.cfi_offset 21, -48
	adrp	x21, :got:__libc_single_threaded
	ldr	x0, [x21, #:got_lo12:__libc_single_threaded]
	ldrb	w0, [x0]
	cbz	w0, .L1769
	ldr	w0, [x20, 8]
	sub	w1, w0, #1
	str	w1, [x20, 8]
.L1770:
	cmp	w0, 1
	beq	.L1788
.L1787:
	ldr	x21, [sp, 32]
	.cfi_restore 21
.L1768:
	adrp	x1, :got:__stack_chk_guard
	ldr	x1, [x1, #:got_lo12:__stack_chk_guard]
	ldr	x0, [sp, 72]
	ldr	x2, [x1]
	subs	x0, x0, x2
	mov	x2, 0
	bne	.L1789
	mov	w0, w19
	ldp	x19, x20, [sp, 16]
	ldp	x29, x30, [sp], 80
	.cfi_remember_state
	.cfi_restore 30
	.cfi_restore 29
	.cfi_restore 19
	.cfi_restore 20
	.cfi_def_cfa_offset 0
	ret
	.p2align 2,,3
.L1766:
	.cfi_restore_state
	add	x1, x1, 8
	mov	w0, 1
	bl	__aarch64_ldadd4_acq_rel
	b	.L1765
	.p2align 2,,3
.L1788:
	.cfi_offset 21, -48
	ldr	x1, [x20]
	mov	x0, x20
	ldr	x1, [x1, 16]
	blr	x1
	ldr	x21, [x21, #:got_lo12:__libc_single_threaded]
	ldrb	w0, [x21]
	cbz	w0, .L1772
	ldr	w0, [x20, 12]
	sub	w1, w0, #1
	str	w1, [x20, 12]
.L1773:
	cmp	w0, 1
	bne	.L1787
	ldr	x1, [x20]
	mov	x0, x20
	ldr	x1, [x1, 24]
	blr	x1
	ldr	x21, [sp, 32]
	.cfi_remember_state
	.cfi_restore 21
	b	.L1768
	.p2align 2,,3
.L1769:
	.cfi_restore_state
	add	x1, x20, 8
	mov	w0, -1
	bl	__aarch64_ldadd4_acq_rel
	b	.L1770
	.p2align 2,,3
.L1772:
	add	x1, x20, 12
	mov	w0, -1
	bl	__aarch64_ldadd4_acq_rel
	b	.L1773
.L1789:
	.cfi_restore 21
	str	x21, [sp, 32]
	.cfi_remember_state
	.cfi_offset 21, -48
	bl	__stack_chk_fail
.L1777:
	.cfi_restore_state
	ldr	x1, [sp, 64]
	str	x21, [sp, 32]
	.cfi_offset 21, -48
	mov	x19, x0
	cbz	x1, .L1775
	mov	x0, x1
	bl	_ZNSt16_Sp_counted_baseILN9__gnu_cxx12_Lock_policyE2EE10_M_releaseEv
.L1775:
	mov	x0, x19
.LEHB33:
	bl	_Unwind_Resume
.LEHE33:
	.cfi_endproc
.LFE10184:
	.section	.gcc_except_table
.LLSDA10184:
	.byte	0xff
	.byte	0xff
	.byte	0x1
	.uleb128 .LLSDACSE10184-.LLSDACSB10184
.LLSDACSB10184:
	.uleb128 .LEHB32-.LFB10184
	.uleb128 .LEHE32-.LEHB32
	.uleb128 .L1777-.LFB10184
	.uleb128 0
	.uleb128 .LEHB33-.LFB10184
	.uleb128 .LEHE33-.LEHB33
	.uleb128 0
	.uleb128 0
.LLSDACSE10184:
	.text
	.size	_ZNSt17_Function_handlerIFbvEZN8asiodnp315OutstationStack6EnableEvEUlvE_E9_M_invokeERKSt9_Any_data, .-_ZNSt17_Function_handlerIFbvEZN8asiodnp315OutstationStack6EnableEvEUlvE_E9_M_invokeERKSt9_Any_data
	.align	2
	.p2align 4,,11
	.type	_ZNSt17_Function_handlerIFbvEZN8asiodnp315OutstationStack7DisableEvEUlvE_E9_M_invokeERKSt9_Any_data, %function
_ZNSt17_Function_handlerIFbvEZN8asiodnp315OutstationStack7DisableEvEUlvE_E9_M_invokeERKSt9_Any_data:
.LFB10207:
	.cfi_startproc
	.cfi_personality 0x9b,DW.ref.__gxx_personality_v0
	.cfi_lsda 0x1b,.LLSDA10207
	stp	x29, x30, [sp, -80]!
	.cfi_def_cfa_offset 80
	.cfi_offset 29, -80
	.cfi_offset 30, -72
	adrp	x1, :got:__stack_chk_guard
	mov	x29, sp
	ldr	x1, [x1, #:got_lo12:__stack_chk_guard]
