	.arch armv8-a
	.file	"PrintingSOEHandler.cpp"
	.text
	.section	.text._ZNKSt5ctypeIcE8do_widenEc,"axG",@progbits,_ZNKSt5ctypeIcE8do_widenEc,comdat
	.align	2
	.p2align 4,,11
	.weak	_ZNKSt5ctypeIcE8do_widenEc
	.type	_ZNKSt5ctypeIcE8do_widenEc, %function
_ZNKSt5ctypeIcE8do_widenEc:
.LFB1534:
	.cfi_startproc
	mov	w0, w1
	ret
	.cfi_endproc
.LFE1534:
	.size	_ZNKSt5ctypeIcE8do_widenEc, .-_ZNKSt5ctypeIcE8do_widenEc
	.section	.text._ZN8asiodnp318PrintingSOEHandler5StartEv,"axG",@progbits,_ZN8asiodnp318PrintingSOEHandler5StartEv,comdat
	.align	2
	.p2align 4,,11
	.weak	_ZN8asiodnp318PrintingSOEHandler5StartEv
	.type	_ZN8asiodnp318PrintingSOEHandler5StartEv, %function
_ZN8asiodnp318PrintingSOEHandler5StartEv:
.LFB2753:
	.cfi_startproc
	ret
	.cfi_endproc
.LFE2753:
	.size	_ZN8asiodnp318PrintingSOEHandler5StartEv, .-_ZN8asiodnp318PrintingSOEHandler5StartEv
	.section	.text._ZN8asiodnp318PrintingSOEHandler3EndEv,"axG",@progbits,_ZN8asiodnp318PrintingSOEHandler3EndEv,comdat
	.align	2
	.p2align 4,,11
	.weak	_ZN8asiodnp318PrintingSOEHandler3EndEv
	.type	_ZN8asiodnp318PrintingSOEHandler3EndEv, %function
_ZN8asiodnp318PrintingSOEHandler3EndEv:
.LFB2754:
	.cfi_startproc
	ret
	.cfi_endproc
.LFE2754:
	.size	_ZN8asiodnp318PrintingSOEHandler3EndEv, .-_ZN8asiodnp318PrintingSOEHandler3EndEv
	.text
	.align	2
	.p2align 4,,11
	.global	_ZN8asiodnp318PrintingSOEHandler7ProcessERKN8opendnp310HeaderInfoERKNS1_11ICollectionINS1_7IndexedINS1_6BinaryEEEEE
	.type	_ZN8asiodnp318PrintingSOEHandler7ProcessERKN8opendnp310HeaderInfoERKNS1_11ICollectionINS1_7IndexedINS1_6BinaryEEEEE, %function
_ZN8asiodnp318PrintingSOEHandler7ProcessERKN8opendnp310HeaderInfoERKNS1_11ICollectionINS1_7IndexedINS1_6BinaryEEEEE:
.LFB2761:
	.cfi_startproc
	mov	x0, x2
	stp	x29, x30, [sp, -48]!
	.cfi_def_cfa_offset 48
	.cfi_offset 29, -48
	.cfi_offset 30, -40
	adrp	x4, :got:__stack_chk_guard
	mov	x29, sp
	adrp	x3, :got:_ZTVN8opendnp314FunctorVisitorINS_7IndexedINS_6BinaryEEEZN8asiodnp318PrintingSOEHandler8PrintAllIS2_EEvRKNS_10HeaderInfoERKNS_11ICollectionINS1_IT_EEEEEUlRKS3_E_EE
	ldr	x2, [x4, #:got_lo12:__stack_chk_guard]
	ldr	x4, [x0]
	ldr	x5, [x2]
	str	x5, [sp, 40]
	mov	x5, 0
	ldr	x3, [x3, #:got_lo12:_ZTVN8opendnp314FunctorVisitorINS_7IndexedINS_6BinaryEEEZN8asiodnp318PrintingSOEHandler8PrintAllIS2_EEvRKNS_10HeaderInfoERKNS_11ICollectionINS1_IT_EEEEEUlRKS3_E_EE]
	ldr	x2, [x4, 8]
	add	x3, x3, 16
	stp	x3, x1, [sp, 24]
	add	x1, sp, 24
	blr	x2
	adrp	x0, :got:__stack_chk_guard
	ldr	x0, [x0, #:got_lo12:__stack_chk_guard]
	ldr	x2, [sp, 40]
	ldr	x1, [x0]
	subs	x2, x2, x1
	mov	x1, 0
	bne	.L8
	ldp	x29, x30, [sp], 48
	.cfi_remember_state
	.cfi_restore 30
	.cfi_restore 29
	.cfi_def_cfa_offset 0
	ret
.L8:
	.cfi_restore_state
	bl	__stack_chk_fail
	.cfi_endproc
.LFE2761:
	.size	_ZN8asiodnp318PrintingSOEHandler7ProcessERKN8opendnp310HeaderInfoERKNS1_11ICollectionINS1_7IndexedINS1_6BinaryEEEEE, .-_ZN8asiodnp318PrintingSOEHandler7ProcessERKN8opendnp310HeaderInfoERKNS1_11ICollectionINS1_7IndexedINS1_6BinaryEEEEE
	.align	2
	.p2align 4,,11
	.global	_ZN8asiodnp318PrintingSOEHandler7ProcessERKN8opendnp310HeaderInfoERKNS1_11ICollectionINS1_7IndexedINS1_15DoubleBitBinaryEEEEE
	.type	_ZN8asiodnp318PrintingSOEHandler7ProcessERKN8opendnp310HeaderInfoERKNS1_11ICollectionINS1_7IndexedINS1_15DoubleBitBinaryEEEEE, %function
_ZN8asiodnp318PrintingSOEHandler7ProcessERKN8opendnp310HeaderInfoERKNS1_11ICollectionINS1_7IndexedINS1_15DoubleBitBinaryEEEEE:
.LFB2762:
	.cfi_startproc
	mov	x0, x2
	stp	x29, x30, [sp, -48]!
	.cfi_def_cfa_offset 48
	.cfi_offset 29, -48
	.cfi_offset 30, -40
	adrp	x4, :got:__stack_chk_guard
	mov	x29, sp
	adrp	x3, :got:_ZTVN8opendnp314FunctorVisitorINS_7IndexedINS_15DoubleBitBinaryEEEZN8asiodnp318PrintingSOEHandler8PrintAllIS2_EEvRKNS_10HeaderInfoERKNS_11ICollectionINS1_IT_EEEEEUlRKS3_E_EE
	ldr	x2, [x4, #:got_lo12:__stack_chk_guard]
	ldr	x4, [x0]
	ldr	x5, [x2]
	str	x5, [sp, 40]
	mov	x5, 0
	ldr	x3, [x3, #:got_lo12:_ZTVN8opendnp314FunctorVisitorINS_7IndexedINS_15DoubleBitBinaryEEEZN8asiodnp318PrintingSOEHandler8PrintAllIS2_EEvRKNS_10HeaderInfoERKNS_11ICollectionINS1_IT_EEEEEUlRKS3_E_EE]
	ldr	x2, [x4, 8]
	add	x3, x3, 16
	stp	x3, x1, [sp, 24]
	add	x1, sp, 24
	blr	x2
	adrp	x0, :got:__stack_chk_guard
	ldr	x0, [x0, #:got_lo12:__stack_chk_guard]
	ldr	x2, [sp, 40]
	ldr	x1, [x0]
	subs	x2, x2, x1
	mov	x1, 0
	bne	.L12
	ldp	x29, x30, [sp], 48
	.cfi_remember_state
	.cfi_restore 30
	.cfi_restore 29
	.cfi_def_cfa_offset 0
	ret
.L12:
	.cfi_restore_state
	bl	__stack_chk_fail
	.cfi_endproc
.LFE2762:
	.size	_ZN8asiodnp318PrintingSOEHandler7ProcessERKN8opendnp310HeaderInfoERKNS1_11ICollectionINS1_7IndexedINS1_15DoubleBitBinaryEEEEE, .-_ZN8asiodnp318PrintingSOEHandler7ProcessERKN8opendnp310HeaderInfoERKNS1_11ICollectionINS1_7IndexedINS1_15DoubleBitBinaryEEEEE
	.align	2
	.p2align 4,,11
	.global	_ZN8asiodnp318PrintingSOEHandler7ProcessERKN8opendnp310HeaderInfoERKNS1_11ICollectionINS1_7IndexedINS1_6AnalogEEEEE
	.type	_ZN8asiodnp318PrintingSOEHandler7ProcessERKN8opendnp310HeaderInfoERKNS1_11ICollectionINS1_7IndexedINS1_6AnalogEEEEE, %function
_ZN8asiodnp318PrintingSOEHandler7ProcessERKN8opendnp310HeaderInfoERKNS1_11ICollectionINS1_7IndexedINS1_6AnalogEEEEE:
.LFB2763:
	.cfi_startproc
	mov	x0, x2
	stp	x29, x30, [sp, -48]!
	.cfi_def_cfa_offset 48
	.cfi_offset 29, -48
	.cfi_offset 30, -40
	adrp	x4, :got:__stack_chk_guard
	mov	x29, sp
	adrp	x3, :got:_ZTVN8opendnp314FunctorVisitorINS_7IndexedINS_6AnalogEEEZN8asiodnp318PrintingSOEHandler8PrintAllIS2_EEvRKNS_10HeaderInfoERKNS_11ICollectionINS1_IT_EEEEEUlRKS3_E_EE
	ldr	x2, [x4, #:got_lo12:__stack_chk_guard]
	ldr	x4, [x0]
	ldr	x5, [x2]
	str	x5, [sp, 40]
	mov	x5, 0
	ldr	x3, [x3, #:got_lo12:_ZTVN8opendnp314FunctorVisitorINS_7IndexedINS_6AnalogEEEZN8asiodnp318PrintingSOEHandler8PrintAllIS2_EEvRKNS_10HeaderInfoERKNS_11ICollectionINS1_IT_EEEEEUlRKS3_E_EE]
	ldr	x2, [x4, 8]
	add	x3, x3, 16
	stp	x3, x1, [sp, 24]
	add	x1, sp, 24
	blr	x2
	adrp	x0, :got:__stack_chk_guard
	ldr	x0, [x0, #:got_lo12:__stack_chk_guard]
	ldr	x2, [sp, 40]
	ldr	x1, [x0]
	subs	x2, x2, x1
	mov	x1, 0
	bne	.L16
	ldp	x29, x30, [sp], 48
	.cfi_remember_state
	.cfi_restore 30
	.cfi_restore 29
	.cfi_def_cfa_offset 0
	ret
.L16:
	.cfi_restore_state
	bl	__stack_chk_fail
	.cfi_endproc
.LFE2763:
	.size	_ZN8asiodnp318PrintingSOEHandler7ProcessERKN8opendnp310HeaderInfoERKNS1_11ICollectionINS1_7IndexedINS1_6AnalogEEEEE, .-_ZN8asiodnp318PrintingSOEHandler7ProcessERKN8opendnp310HeaderInfoERKNS1_11ICollectionINS1_7IndexedINS1_6AnalogEEEEE
	.align	2
	.p2align 4,,11
	.global	_ZN8asiodnp318PrintingSOEHandler7ProcessERKN8opendnp310HeaderInfoERKNS1_11ICollectionINS1_7IndexedINS1_7CounterEEEEE
	.type	_ZN8asiodnp318PrintingSOEHandler7ProcessERKN8opendnp310HeaderInfoERKNS1_11ICollectionINS1_7IndexedINS1_7CounterEEEEE, %function
_ZN8asiodnp318PrintingSOEHandler7ProcessERKN8opendnp310HeaderInfoERKNS1_11ICollectionINS1_7IndexedINS1_7CounterEEEEE:
.LFB2764:
	.cfi_startproc
	mov	x0, x2
	stp	x29, x30, [sp, -48]!
	.cfi_def_cfa_offset 48
	.cfi_offset 29, -48
	.cfi_offset 30, -40
	adrp	x4, :got:__stack_chk_guard
	mov	x29, sp
	adrp	x3, :got:_ZTVN8opendnp314FunctorVisitorINS_7IndexedINS_7CounterEEEZN8asiodnp318PrintingSOEHandler8PrintAllIS2_EEvRKNS_10HeaderInfoERKNS_11ICollectionINS1_IT_EEEEEUlRKS3_E_EE
	ldr	x2, [x4, #:got_lo12:__stack_chk_guard]
	ldr	x4, [x0]
	ldr	x5, [x2]
	str	x5, [sp, 40]
	mov	x5, 0
	ldr	x3, [x3, #:got_lo12:_ZTVN8opendnp314FunctorVisitorINS_7IndexedINS_7CounterEEEZN8asiodnp318PrintingSOEHandler8PrintAllIS2_EEvRKNS_10HeaderInfoERKNS_11ICollectionINS1_IT_EEEEEUlRKS3_E_EE]
	ldr	x2, [x4, 8]
	add	x3, x3, 16
	stp	x3, x1, [sp, 24]
	add	x1, sp, 24
	blr	x2
	adrp	x0, :got:__stack_chk_guard
	ldr	x0, [x0, #:got_lo12:__stack_chk_guard]
	ldr	x2, [sp, 40]
	ldr	x1, [x0]
	subs	x2, x2, x1
	mov	x1, 0
	bne	.L20
	ldp	x29, x30, [sp], 48
	.cfi_remember_state
	.cfi_restore 30
	.cfi_restore 29
	.cfi_def_cfa_offset 0
	ret
.L20:
	.cfi_restore_state
	bl	__stack_chk_fail
	.cfi_endproc
.LFE2764:
	.size	_ZN8asiodnp318PrintingSOEHandler7ProcessERKN8opendnp310HeaderInfoERKNS1_11ICollectionINS1_7IndexedINS1_7CounterEEEEE, .-_ZN8asiodnp318PrintingSOEHandler7ProcessERKN8opendnp310HeaderInfoERKNS1_11ICollectionINS1_7IndexedINS1_7CounterEEEEE
	.align	2
	.p2align 4,,11
	.global	_ZN8asiodnp318PrintingSOEHandler7ProcessERKN8opendnp310HeaderInfoERKNS1_11ICollectionINS1_7IndexedINS1_13FrozenCounterEEEEE
	.type	_ZN8asiodnp318PrintingSOEHandler7ProcessERKN8opendnp310HeaderInfoERKNS1_11ICollectionINS1_7IndexedINS1_13FrozenCounterEEEEE, %function
_ZN8asiodnp318PrintingSOEHandler7ProcessERKN8opendnp310HeaderInfoERKNS1_11ICollectionINS1_7IndexedINS1_13FrozenCounterEEEEE:
.LFB2765:
	.cfi_startproc
	mov	x0, x2
	stp	x29, x30, [sp, -48]!
	.cfi_def_cfa_offset 48
	.cfi_offset 29, -48
	.cfi_offset 30, -40
	adrp	x4, :got:__stack_chk_guard
	mov	x29, sp
	adrp	x3, :got:_ZTVN8opendnp314FunctorVisitorINS_7IndexedINS_13FrozenCounterEEEZN8asiodnp318PrintingSOEHandler8PrintAllIS2_EEvRKNS_10HeaderInfoERKNS_11ICollectionINS1_IT_EEEEEUlRKS3_E_EE
	ldr	x2, [x4, #:got_lo12:__stack_chk_guard]
	ldr	x4, [x0]
	ldr	x5, [x2]
	str	x5, [sp, 40]
	mov	x5, 0
	ldr	x3, [x3, #:got_lo12:_ZTVN8opendnp314FunctorVisitorINS_7IndexedINS_13FrozenCounterEEEZN8asiodnp318PrintingSOEHandler8PrintAllIS2_EEvRKNS_10HeaderInfoERKNS_11ICollectionINS1_IT_EEEEEUlRKS3_E_EE]
	ldr	x2, [x4, 8]
	add	x3, x3, 16
	stp	x3, x1, [sp, 24]
	add	x1, sp, 24
	blr	x2
	adrp	x0, :got:__stack_chk_guard
	ldr	x0, [x0, #:got_lo12:__stack_chk_guard]
	ldr	x2, [sp, 40]
	ldr	x1, [x0]
	subs	x2, x2, x1
	mov	x1, 0
	bne	.L24
	ldp	x29, x30, [sp], 48
	.cfi_remember_state
	.cfi_restore 30
	.cfi_restore 29
	.cfi_def_cfa_offset 0
	ret
.L24:
	.cfi_restore_state
	bl	__stack_chk_fail
	.cfi_endproc
.LFE2765:
	.size	_ZN8asiodnp318PrintingSOEHandler7ProcessERKN8opendnp310HeaderInfoERKNS1_11ICollectionINS1_7IndexedINS1_13FrozenCounterEEEEE, .-_ZN8asiodnp318PrintingSOEHandler7ProcessERKN8opendnp310HeaderInfoERKNS1_11ICollectionINS1_7IndexedINS1_13FrozenCounterEEEEE
	.align	2
	.p2align 4,,11
	.global	_ZN8asiodnp318PrintingSOEHandler7ProcessERKN8opendnp310HeaderInfoERKNS1_11ICollectionINS1_7IndexedINS1_18BinaryOutputStatusEEEEE
	.type	_ZN8asiodnp318PrintingSOEHandler7ProcessERKN8opendnp310HeaderInfoERKNS1_11ICollectionINS1_7IndexedINS1_18BinaryOutputStatusEEEEE, %function
_ZN8asiodnp318PrintingSOEHandler7ProcessERKN8opendnp310HeaderInfoERKNS1_11ICollectionINS1_7IndexedINS1_18BinaryOutputStatusEEEEE:
.LFB2766:
	.cfi_startproc
	mov	x0, x2
	stp	x29, x30, [sp, -48]!
	.cfi_def_cfa_offset 48
	.cfi_offset 29, -48
	.cfi_offset 30, -40
	adrp	x4, :got:__stack_chk_guard
	mov	x29, sp
	adrp	x3, :got:_ZTVN8opendnp314FunctorVisitorINS_7IndexedINS_18BinaryOutputStatusEEEZN8asiodnp318PrintingSOEHandler8PrintAllIS2_EEvRKNS_10HeaderInfoERKNS_11ICollectionINS1_IT_EEEEEUlRKS3_E_EE
	ldr	x2, [x4, #:got_lo12:__stack_chk_guard]
	ldr	x4, [x0]
	ldr	x5, [x2]
	str	x5, [sp, 40]
	mov	x5, 0
	ldr	x3, [x3, #:got_lo12:_ZTVN8opendnp314FunctorVisitorINS_7IndexedINS_18BinaryOutputStatusEEEZN8asiodnp318PrintingSOEHandler8PrintAllIS2_EEvRKNS_10HeaderInfoERKNS_11ICollectionINS1_IT_EEEEEUlRKS3_E_EE]
	ldr	x2, [x4, 8]
	add	x3, x3, 16
	stp	x3, x1, [sp, 24]
	add	x1, sp, 24
	blr	x2
	adrp	x0, :got:__stack_chk_guard
	ldr	x0, [x0, #:got_lo12:__stack_chk_guard]
	ldr	x2, [sp, 40]
	ldr	x1, [x0]
	subs	x2, x2, x1
	mov	x1, 0
	bne	.L28
	ldp	x29, x30, [sp], 48
	.cfi_remember_state
	.cfi_restore 30
	.cfi_restore 29
	.cfi_def_cfa_offset 0
	ret
.L28:
	.cfi_restore_state
	bl	__stack_chk_fail
	.cfi_endproc
.LFE2766:
	.size	_ZN8asiodnp318PrintingSOEHandler7ProcessERKN8opendnp310HeaderInfoERKNS1_11ICollectionINS1_7IndexedINS1_18BinaryOutputStatusEEEEE, .-_ZN8asiodnp318PrintingSOEHandler7ProcessERKN8opendnp310HeaderInfoERKNS1_11ICollectionINS1_7IndexedINS1_18BinaryOutputStatusEEEEE
	.align	2
	.p2align 4,,11
	.global	_ZN8asiodnp318PrintingSOEHandler7ProcessERKN8opendnp310HeaderInfoERKNS1_11ICollectionINS1_7IndexedINS1_18AnalogOutputStatusEEEEE
	.type	_ZN8asiodnp318PrintingSOEHandler7ProcessERKN8opendnp310HeaderInfoERKNS1_11ICollectionINS1_7IndexedINS1_18AnalogOutputStatusEEEEE, %function
_ZN8asiodnp318PrintingSOEHandler7ProcessERKN8opendnp310HeaderInfoERKNS1_11ICollectionINS1_7IndexedINS1_18AnalogOutputStatusEEEEE:
.LFB2767:
	.cfi_startproc
	mov	x0, x2
	stp	x29, x30, [sp, -48]!
	.cfi_def_cfa_offset 48
	.cfi_offset 29, -48
	.cfi_offset 30, -40
	adrp	x4, :got:__stack_chk_guard
	mov	x29, sp
	adrp	x3, :got:_ZTVN8opendnp314FunctorVisitorINS_7IndexedINS_18AnalogOutputStatusEEEZN8asiodnp318PrintingSOEHandler8PrintAllIS2_EEvRKNS_10HeaderInfoERKNS_11ICollectionINS1_IT_EEEEEUlRKS3_E_EE
	ldr	x2, [x4, #:got_lo12:__stack_chk_guard]
	ldr	x4, [x0]
	ldr	x5, [x2]
	str	x5, [sp, 40]
	mov	x5, 0
	ldr	x3, [x3, #:got_lo12:_ZTVN8opendnp314FunctorVisitorINS_7IndexedINS_18AnalogOutputStatusEEEZN8asiodnp318PrintingSOEHandler8PrintAllIS2_EEvRKNS_10HeaderInfoERKNS_11ICollectionINS1_IT_EEEEEUlRKS3_E_EE]
	ldr	x2, [x4, 8]
	add	x3, x3, 16
	stp	x3, x1, [sp, 24]
	add	x1, sp, 24
	blr	x2
	adrp	x0, :got:__stack_chk_guard
	ldr	x0, [x0, #:got_lo12:__stack_chk_guard]
	ldr	x2, [sp, 40]
	ldr	x1, [x0]
	subs	x2, x2, x1
	mov	x1, 0
	bne	.L32
	ldp	x29, x30, [sp], 48
	.cfi_remember_state
	.cfi_restore 30
	.cfi_restore 29
	.cfi_def_cfa_offset 0
	ret
.L32:
	.cfi_restore_state
	bl	__stack_chk_fail
	.cfi_endproc
.LFE2767:
	.size	_ZN8asiodnp318PrintingSOEHandler7ProcessERKN8opendnp310HeaderInfoERKNS1_11ICollectionINS1_7IndexedINS1_18AnalogOutputStatusEEEEE, .-_ZN8asiodnp318PrintingSOEHandler7ProcessERKN8opendnp310HeaderInfoERKNS1_11ICollectionINS1_7IndexedINS1_18AnalogOutputStatusEEEEE
	.align	2
	.p2align 4,,11
	.global	_ZN8asiodnp318PrintingSOEHandler7ProcessERKN8opendnp310HeaderInfoERKNS1_11ICollectionINS1_7IndexedINS1_11OctetStringEEEEE
	.type	_ZN8asiodnp318PrintingSOEHandler7ProcessERKN8opendnp310HeaderInfoERKNS1_11ICollectionINS1_7IndexedINS1_11OctetStringEEEEE, %function
_ZN8asiodnp318PrintingSOEHandler7ProcessERKN8opendnp310HeaderInfoERKNS1_11ICollectionINS1_7IndexedINS1_11OctetStringEEEEE:
.LFB2768:
	.cfi_startproc
	stp	x29, x30, [sp, -48]!
	.cfi_def_cfa_offset 48
	.cfi_offset 29, -48
	.cfi_offset 30, -40
	mov	x0, x2
	adrp	x3, :got:__stack_chk_guard
	mov	x29, sp
	ldr	x2, [x2]
	adrp	x1, .LANCHOR0
	ldr	x3, [x3, #:got_lo12:__stack_chk_guard]
	add	x1, x1, :lo12:.LANCHOR0
	ldr	x2, [x2, 8]
	ldr	x4, [x3]
	str	x4, [sp, 40]
	mov	x4, 0
	add	x1, x1, 16
	str	x1, [sp, 24]
	add	x1, sp, 24
	blr	x2
	adrp	x0, :got:__stack_chk_guard
	ldr	x0, [x0, #:got_lo12:__stack_chk_guard]
	ldr	x2, [sp, 40]
	ldr	x1, [x0]
	subs	x2, x2, x1
	mov	x1, 0
	bne	.L36
	ldp	x29, x30, [sp], 48
	.cfi_remember_state
	.cfi_restore 30
	.cfi_restore 29
	.cfi_def_cfa_offset 0
	ret
.L36:
	.cfi_restore_state
	bl	__stack_chk_fail
	.cfi_endproc
.LFE2768:
	.size	_ZN8asiodnp318PrintingSOEHandler7ProcessERKN8opendnp310HeaderInfoERKNS1_11ICollectionINS1_7IndexedINS1_11OctetStringEEEEE, .-_ZN8asiodnp318PrintingSOEHandler7ProcessERKN8opendnp310HeaderInfoERKNS1_11ICollectionINS1_7IndexedINS1_11OctetStringEEEEE
	.align	2
	.p2align 4,,11
	.global	_ZN8asiodnp318PrintingSOEHandler7ProcessERKN8opendnp310HeaderInfoERKNS1_11ICollectionINS1_7IndexedINS1_15TimeAndIntervalEEEEE
	.type	_ZN8asiodnp318PrintingSOEHandler7ProcessERKN8opendnp310HeaderInfoERKNS1_11ICollectionINS1_7IndexedINS1_15TimeAndIntervalEEEEE, %function
_ZN8asiodnp318PrintingSOEHandler7ProcessERKN8opendnp310HeaderInfoERKNS1_11ICollectionINS1_7IndexedINS1_15TimeAndIntervalEEEEE:
.LFB2772:
	.cfi_startproc
	stp	x29, x30, [sp, -48]!
	.cfi_def_cfa_offset 48
	.cfi_offset 29, -48
	.cfi_offset 30, -40
	mov	x0, x2
	adrp	x3, :got:__stack_chk_guard
	mov	x29, sp
	ldr	x2, [x2]
	adrp	x1, .LANCHOR0
	ldr	x3, [x3, #:got_lo12:__stack_chk_guard]
	add	x1, x1, :lo12:.LANCHOR0
	ldr	x2, [x2, 8]
	ldr	x4, [x3]
	str	x4, [sp, 40]
	mov	x4, 0
	add	x1, x1, 40
	str	x1, [sp, 24]
	add	x1, sp, 24
	blr	x2
	adrp	x0, :got:__stack_chk_guard
	ldr	x0, [x0, #:got_lo12:__stack_chk_guard]
	ldr	x2, [sp, 40]
	ldr	x1, [x0]
	subs	x2, x2, x1
	mov	x1, 0
	bne	.L40
	ldp	x29, x30, [sp], 48
	.cfi_remember_state
	.cfi_restore 30
	.cfi_restore 29
	.cfi_def_cfa_offset 0
	ret
.L40:
	.cfi_restore_state
	bl	__stack_chk_fail
	.cfi_endproc
.LFE2772:
	.size	_ZN8asiodnp318PrintingSOEHandler7ProcessERKN8opendnp310HeaderInfoERKNS1_11ICollectionINS1_7IndexedINS1_15TimeAndIntervalEEEEE, .-_ZN8asiodnp318PrintingSOEHandler7ProcessERKN8opendnp310HeaderInfoERKNS1_11ICollectionINS1_7IndexedINS1_15TimeAndIntervalEEEEE
	.align	2
	.p2align 4,,11
	.global	_ZN8asiodnp318PrintingSOEHandler7ProcessERKN8opendnp310HeaderInfoERKNS1_11ICollectionINS1_7IndexedINS1_18BinaryCommandEventEEEEE
	.type	_ZN8asiodnp318PrintingSOEHandler7ProcessERKN8opendnp310HeaderInfoERKNS1_11ICollectionINS1_7IndexedINS1_18BinaryCommandEventEEEEE, %function
_ZN8asiodnp318PrintingSOEHandler7ProcessERKN8opendnp310HeaderInfoERKNS1_11ICollectionINS1_7IndexedINS1_18BinaryCommandEventEEEEE:
.LFB2776:
	.cfi_startproc
	stp	x29, x30, [sp, -48]!
	.cfi_def_cfa_offset 48
	.cfi_offset 29, -48
	.cfi_offset 30, -40
	mov	x0, x2
	adrp	x3, :got:__stack_chk_guard
	mov	x29, sp
	ldr	x2, [x2]
	adrp	x1, .LANCHOR0
	ldr	x3, [x3, #:got_lo12:__stack_chk_guard]
	add	x1, x1, :lo12:.LANCHOR0
	ldr	x2, [x2, 8]
	ldr	x4, [x3]
	str	x4, [sp, 40]
	mov	x4, 0
	add	x1, x1, 64
	str	x1, [sp, 24]
	add	x1, sp, 24
	blr	x2
	adrp	x0, :got:__stack_chk_guard
	ldr	x0, [x0, #:got_lo12:__stack_chk_guard]
	ldr	x2, [sp, 40]
	ldr	x1, [x0]
	subs	x2, x2, x1
	mov	x1, 0
	bne	.L44
	ldp	x29, x30, [sp], 48
	.cfi_remember_state
	.cfi_restore 30
	.cfi_restore 29
	.cfi_def_cfa_offset 0
	ret
.L44:
	.cfi_restore_state
	bl	__stack_chk_fail
	.cfi_endproc
.LFE2776:
	.size	_ZN8asiodnp318PrintingSOEHandler7ProcessERKN8opendnp310HeaderInfoERKNS1_11ICollectionINS1_7IndexedINS1_18BinaryCommandEventEEEEE, .-_ZN8asiodnp318PrintingSOEHandler7ProcessERKN8opendnp310HeaderInfoERKNS1_11ICollectionINS1_7IndexedINS1_18BinaryCommandEventEEEEE
	.align	2
	.p2align 4,,11
	.global	_ZN8asiodnp318PrintingSOEHandler7ProcessERKN8opendnp310HeaderInfoERKNS1_11ICollectionINS1_7IndexedINS1_18AnalogCommandEventEEEEE
	.type	_ZN8asiodnp318PrintingSOEHandler7ProcessERKN8opendnp310HeaderInfoERKNS1_11ICollectionINS1_7IndexedINS1_18AnalogCommandEventEEEEE, %function
_ZN8asiodnp318PrintingSOEHandler7ProcessERKN8opendnp310HeaderInfoERKNS1_11ICollectionINS1_7IndexedINS1_18AnalogCommandEventEEEEE:
.LFB2780:
	.cfi_startproc
	stp	x29, x30, [sp, -48]!
	.cfi_def_cfa_offset 48
	.cfi_offset 29, -48
	.cfi_offset 30, -40
	mov	x0, x2
	adrp	x3, :got:__stack_chk_guard
	mov	x29, sp
	ldr	x2, [x2]
	adrp	x1, .LANCHOR0
	ldr	x3, [x3, #:got_lo12:__stack_chk_guard]
	add	x1, x1, :lo12:.LANCHOR0
	ldr	x2, [x2, 8]
	ldr	x4, [x3]
	str	x4, [sp, 40]
	mov	x4, 0
	add	x1, x1, 88
	str	x1, [sp, 24]
	add	x1, sp, 24
	blr	x2
	adrp	x0, :got:__stack_chk_guard
	ldr	x0, [x0, #:got_lo12:__stack_chk_guard]
	ldr	x2, [sp, 40]
	ldr	x1, [x0]
	subs	x2, x2, x1
	mov	x1, 0
	bne	.L48
	ldp	x29, x30, [sp], 48
	.cfi_remember_state
	.cfi_restore 30
	.cfi_restore 29
	.cfi_def_cfa_offset 0
	ret
.L48:
	.cfi_restore_state
	bl	__stack_chk_fail
	.cfi_endproc
.LFE2780:
	.size	_ZN8asiodnp318PrintingSOEHandler7ProcessERKN8opendnp310HeaderInfoERKNS1_11ICollectionINS1_7IndexedINS1_18AnalogCommandEventEEEEE, .-_ZN8asiodnp318PrintingSOEHandler7ProcessERKN8opendnp310HeaderInfoERKNS1_11ICollectionINS1_7IndexedINS1_18AnalogCommandEventEEEEE
	.align	2
	.p2align 4,,11
	.global	_ZN8asiodnp318PrintingSOEHandler7ProcessERKN8opendnp310HeaderInfoERKNS1_11ICollectionINS1_7IndexedINS1_12SecurityStatEEEEE
	.type	_ZN8asiodnp318PrintingSOEHandler7ProcessERKN8opendnp310HeaderInfoERKNS1_11ICollectionINS1_7IndexedINS1_12SecurityStatEEEEE, %function
_ZN8asiodnp318PrintingSOEHandler7ProcessERKN8opendnp310HeaderInfoERKNS1_11ICollectionINS1_7IndexedINS1_12SecurityStatEEEEE:
.LFB2784:
	.cfi_startproc
	stp	x29, x30, [sp, -48]!
	.cfi_def_cfa_offset 48
	.cfi_offset 29, -48
	.cfi_offset 30, -40
	mov	x0, x2
	adrp	x3, :got:__stack_chk_guard
	mov	x29, sp
	ldr	x2, [x2]
	adrp	x1, .LANCHOR0
	ldr	x3, [x3, #:got_lo12:__stack_chk_guard]
	add	x1, x1, :lo12:.LANCHOR0
	ldr	x2, [x2, 8]
	ldr	x4, [x3]
	str	x4, [sp, 40]
	mov	x4, 0
	add	x1, x1, 112
	str	x1, [sp, 24]
	add	x1, sp, 24
	blr	x2
	adrp	x0, :got:__stack_chk_guard
	ldr	x0, [x0, #:got_lo12:__stack_chk_guard]
	ldr	x2, [sp, 40]
	ldr	x1, [x0]
	subs	x2, x2, x1
	mov	x1, 0
	bne	.L52
	ldp	x29, x30, [sp], 48
	.cfi_remember_state
	.cfi_restore 30
	.cfi_restore 29
	.cfi_def_cfa_offset 0
	ret
.L52:
	.cfi_restore_state
	bl	__stack_chk_fail
	.cfi_endproc
.LFE2784:
	.size	_ZN8asiodnp318PrintingSOEHandler7ProcessERKN8opendnp310HeaderInfoERKNS1_11ICollectionINS1_7IndexedINS1_12SecurityStatEEEEE, .-_ZN8asiodnp318PrintingSOEHandler7ProcessERKN8opendnp310HeaderInfoERKNS1_11ICollectionINS1_7IndexedINS1_12SecurityStatEEEEE
	.align	2
	.p2align 4,,11
	.global	_ZN8asiodnp318PrintingSOEHandler7ProcessERKN8opendnp310HeaderInfoERKNS1_11ICollectionIN7openpal10UInt48TypeEEE
	.type	_ZN8asiodnp318PrintingSOEHandler7ProcessERKN8opendnp310HeaderInfoERKNS1_11ICollectionIN7openpal10UInt48TypeEEE, %function
_ZN8asiodnp318PrintingSOEHandler7ProcessERKN8opendnp310HeaderInfoERKNS1_11ICollectionIN7openpal10UInt48TypeEEE:
.LFB2788:
	.cfi_startproc
	stp	x29, x30, [sp, -48]!
	.cfi_def_cfa_offset 48
	.cfi_offset 29, -48
	.cfi_offset 30, -40
	mov	x0, x2
	adrp	x3, :got:__stack_chk_guard
	mov	x29, sp
	ldr	x2, [x2]
	adrp	x1, .LANCHOR0
	ldr	x3, [x3, #:got_lo12:__stack_chk_guard]
	add	x1, x1, :lo12:.LANCHOR0
	ldr	x2, [x2, 8]
	ldr	x4, [x3]
	str	x4, [sp, 40]
	mov	x4, 0
	add	x1, x1, 136
	str	x1, [sp, 24]
	add	x1, sp, 24
	blr	x2
	adrp	x0, :got:__stack_chk_guard
	ldr	x0, [x0, #:got_lo12:__stack_chk_guard]
	ldr	x2, [sp, 40]
	ldr	x1, [x0]
	subs	x2, x2, x1
	mov	x1, 0
	bne	.L56
	ldp	x29, x30, [sp], 48
	.cfi_remember_state
	.cfi_restore 30
	.cfi_restore 29
	.cfi_def_cfa_offset 0
	ret
.L56:
	.cfi_restore_state
	bl	__stack_chk_fail
	.cfi_endproc
.LFE2788:
	.size	_ZN8asiodnp318PrintingSOEHandler7ProcessERKN8opendnp310HeaderInfoERKNS1_11ICollectionIN7openpal10UInt48TypeEEE, .-_ZN8asiodnp318PrintingSOEHandler7ProcessERKN8opendnp310HeaderInfoERKNS1_11ICollectionIN7openpal10UInt48TypeEEE
	.section	.text._ZN8asiodnp318PrintingSOEHandlerD2Ev,"axG",@progbits,_ZN8asiodnp318PrintingSOEHandlerD5Ev,comdat
	.align	2
	.p2align 4,,11
	.weak	_ZN8asiodnp318PrintingSOEHandlerD2Ev
	.type	_ZN8asiodnp318PrintingSOEHandlerD2Ev, %function
_ZN8asiodnp318PrintingSOEHandlerD2Ev:
.LFB3631:
	.cfi_startproc
	ret
	.cfi_endproc
.LFE3631:
	.size	_ZN8asiodnp318PrintingSOEHandlerD2Ev, .-_ZN8asiodnp318PrintingSOEHandlerD2Ev
	.weak	_ZN8asiodnp318PrintingSOEHandlerD1Ev
	.set	_ZN8asiodnp318PrintingSOEHandlerD1Ev,_ZN8asiodnp318PrintingSOEHandlerD2Ev
	.section	.text._ZN8asiodnp318PrintingSOEHandlerD0Ev,"axG",@progbits,_ZN8asiodnp318PrintingSOEHandlerD5Ev,comdat
	.align	2
	.p2align 4,,11
	.weak	_ZN8asiodnp318PrintingSOEHandlerD0Ev
	.type	_ZN8asiodnp318PrintingSOEHandlerD0Ev, %function
_ZN8asiodnp318PrintingSOEHandlerD0Ev:
.LFB3633:
	.cfi_startproc
	mov	x1, 8
	b	_ZdlPvm
	.cfi_endproc
.LFE3633:
	.size	_ZN8asiodnp318PrintingSOEHandlerD0Ev, .-_ZN8asiodnp318PrintingSOEHandlerD0Ev
	.section	.rodata._ZN8opendnp314FunctorVisitorINS_7IndexedINS_15DoubleBitBinaryEEEZN8asiodnp318PrintingSOEHandler8PrintAllIS2_EEvRKNS_10HeaderInfoERKNS_11ICollectionINS1_IT_EEEEEUlRKS3_E_E7OnValueESH_.str1.8,"aMS",@progbits,1
	.align	3
.LC0:
	.string	"["
	.align	3
.LC1:
	.string	"] : "
	.align	3
.LC2:
	.string	"basic_string::_M_construct null not valid"
	.align	3
.LC3:
	.string	" : "
	.section	.text._ZN8opendnp314FunctorVisitorINS_7IndexedINS_15DoubleBitBinaryEEEZN8asiodnp318PrintingSOEHandler8PrintAllIS2_EEvRKNS_10HeaderInfoERKNS_11ICollectionINS1_IT_EEEEEUlRKS3_E_E7OnValueESH_,"axG",@progbits,_ZN8opendnp314FunctorVisitorINS_7IndexedINS_15DoubleBitBinaryEEEZN8asiodnp318PrintingSOEHandler8PrintAllIS2_EEvRKNS_10HeaderInfoERKNS_11ICollectionINS1_IT_EEEEEUlRKS3_E_E7OnValueESH_,comdat
	.align	2
	.p2align 4,,11
	.weak	_ZN8opendnp314FunctorVisitorINS_7IndexedINS_15DoubleBitBinaryEEEZN8asiodnp318PrintingSOEHandler8PrintAllIS2_EEvRKNS_10HeaderInfoERKNS_11ICollectionINS1_IT_EEEEEUlRKS3_E_E7OnValueESH_
	.type	_ZN8opendnp314FunctorVisitorINS_7IndexedINS_15DoubleBitBinaryEEEZN8asiodnp318PrintingSOEHandler8PrintAllIS2_EEvRKNS_10HeaderInfoERKNS_11ICollectionINS1_IT_EEEEEUlRKS3_E_E7OnValueESH_, %function
_ZN8opendnp314FunctorVisitorINS_7IndexedINS_15DoubleBitBinaryEEEZN8asiodnp318PrintingSOEHandler8PrintAllIS2_EEvRKNS_10HeaderInfoERKNS_11ICollectionINS1_IT_EEEEEUlRKS3_E_E7OnValueESH_:
.LFB3663:
	.cfi_startproc
	.cfi_personality 0x9b,DW.ref.__gxx_personality_v0
	.cfi_lsda 0x1b,.LLSDA3663
	stp	x29, x30, [sp, -112]!
	.cfi_def_cfa_offset 112
	.cfi_offset 29, -112
	.cfi_offset 30, -104
	adrp	x0, :got:__stack_chk_guard
	mov	x2, 1
	mov	x29, sp
	stp	x19, x20, [sp, 16]
	.cfi_offset 19, -96
	.cfi_offset 20, -88
	adrp	x19, :got:_ZSt4cout
	mov	x20, x1
	ldr	x0, [x0, #:got_lo12:__stack_chk_guard]
	stp	x21, x22, [sp, 32]
	.cfi_offset 21, -80
	.cfi_offset 22, -72
	ldrh	w21, [x20, 24]
	ldr	x19, [x19, #:got_lo12:_ZSt4cout]
	stp	x23, x24, [sp, 48]
	.cfi_offset 23, -64
	.cfi_offset 24, -56
	add	x22, sp, 88
	ldr	x1, [x0]
	str	x1, [sp, 104]
	mov	x1, 0
	mov	x0, x19
	adrp	x1, .LC0
	add	x1, x1, :lo12:.LC0
.LEHB0:
	bl	_ZSt16__ostream_insertIcSt11char_traitsIcEERSt13basic_ostreamIT_T0_ES6_PKS3_l
	and	x1, x21, 65535
	mov	x0, x19
	bl	_ZNSo9_M_insertImEERSoT_
	mov	x23, x0
	mov	x2, 4
	adrp	x1, .LC1
	add	x1, x1, :lo12:.LC1
	bl	_ZSt16__ostream_insertIcSt11char_traitsIcEERSt13basic_ostreamIT_T0_ES6_PKS3_l
	ldrb	w0, [x20, 16]
	bl	_ZN8opendnp317DoubleBitToStringENS_9DoubleBitE
.LEHE0:
	str	x22, [sp, 72]
	cbz	x0, .L60
	mov	x21, x0
	bl	strlen
	str	x0, [sp, 64]
	mov	x19, x0
	cmp	x0, 15
	bhi	.L79
	cmp	x0, 1
	bne	.L64
	ldrb	w1, [x21]
	mov	x0, x22
	strb	w1, [sp, 88]
.L65:
	str	x19, [sp, 80]
	strb	wzr, [x0, x19]
	mov	x0, x23
	ldp	x1, x2, [sp, 72]
.LEHB1:
	bl	_ZSt16__ostream_insertIcSt11char_traitsIcEERSt13basic_ostreamIT_T0_ES6_PKS3_l
	adrp	x21, .LC3
	mov	x19, x0
	add	x1, x21, :lo12:.LC3
	mov	x2, 3
	bl	_ZSt16__ostream_insertIcSt11char_traitsIcEERSt13basic_ostreamIT_T0_ES6_PKS3_l
	ldrb	w1, [x20]
	mov	x0, x19
	bl	_ZNSolsEi
	add	x1, x21, :lo12:.LC3
	mov	x19, x0
	mov	x2, 3
	bl	_ZSt16__ostream_insertIcSt11char_traitsIcEERSt13basic_ostreamIT_T0_ES6_PKS3_l
	ldr	x1, [x20, 8]
	mov	x0, x19
	bl	_ZNSo9_M_insertIlEERSoT_
	mov	x19, x0
	ldr	x0, [x0]
	ldr	x0, [x0, -24]
	add	x0, x19, x0
	ldr	x20, [x0, 240]
	cbz	x20, .L80
	ldrb	w0, [x20, 56]
	cbz	w0, .L67
	ldrb	w1, [x20, 67]
.L68:
	mov	x0, x19
	bl	_ZNSo3putEc
	bl	_ZNSo5flushEv
	ldr	x0, [sp, 72]
	cmp	x0, x22
	beq	.L59
	ldr	x1, [sp, 88]
	add	x1, x1, 1
	bl	_ZdlPvm
.L59:
	adrp	x0, :got:__stack_chk_guard
	ldr	x0, [x0, #:got_lo12:__stack_chk_guard]
	ldr	x2, [sp, 104]
	ldr	x1, [x0]
	subs	x2, x2, x1
	mov	x1, 0
	bne	.L81
	ldp	x19, x20, [sp, 16]
	ldp	x21, x22, [sp, 32]
	ldp	x23, x24, [sp, 48]
	ldp	x29, x30, [sp], 112
	.cfi_remember_state
	.cfi_restore 30
	.cfi_restore 29
	.cfi_restore 23
	.cfi_restore 24
	.cfi_restore 21
	.cfi_restore 22
	.cfi_restore 19
	.cfi_restore 20
	.cfi_def_cfa_offset 0
	ret
	.p2align 2,,3
.L64:
	.cfi_restore_state
	mov	x0, x22
	cbz	x19, .L65
	b	.L63
	.p2align 2,,3
.L67:
	mov	x0, x20
	bl	_ZNKSt5ctypeIcE13_M_widen_initEv
	ldr	x2, [x20]
	adrp	x0, :got:_ZNKSt5ctypeIcE8do_widenEc
	mov	w1, 10
	ldr	x0, [x0, #:got_lo12:_ZNKSt5ctypeIcE8do_widenEc]
	ldr	x2, [x2, 48]
	cmp	x2, x0
	beq	.L68
	mov	x0, x20
	blr	x2
.LEHE1:
	and	w1, w0, 255
	b	.L68
	.p2align 2,,3
.L79:
	add	x24, sp, 72
	add	x1, sp, 64
	mov	x0, x24
	mov	x2, 0
.LEHB2:
	bl	_ZNSt7__cxx1112basic_stringIcSt11char_traitsIcESaIcEE9_M_createERmm
.LEHE2:
	str	x0, [sp, 72]
	ldr	x1, [sp, 64]
	str	x1, [sp, 88]
.L63:
	mov	x2, x19
	mov	x1, x21
	bl	memcpy
	ldp	x19, x0, [sp, 64]
	b	.L65
.L81:
	bl	__stack_chk_fail
.L80:
.LEHB3:
	bl	_ZSt16__throw_bad_castv
.LEHE3:
.L60:
	adrp	x0, .LC2
	add	x0, x0, :lo12:.LC2
.LEHB4:
	bl	_ZSt19__throw_logic_errorPKc
.L75:
	ldr	x2, [sp, 72]
	mov	x19, x0
	cmp	x2, x22
	beq	.L71
	ldr	x1, [sp, 88]
	mov	x0, x2
	add	x1, x1, 1
	bl	_ZdlPvm
.L71:
	mov	x0, x19
	bl	_Unwind_Resume
.LEHE4:
	.cfi_endproc
.LFE3663:
	.global	__gxx_personality_v0
	.section	.gcc_except_table._ZN8opendnp314FunctorVisitorINS_7IndexedINS_15DoubleBitBinaryEEEZN8asiodnp318PrintingSOEHandler8PrintAllIS2_EEvRKNS_10HeaderInfoERKNS_11ICollectionINS1_IT_EEEEEUlRKS3_E_E7OnValueESH_,"aG",@progbits,_ZN8opendnp314FunctorVisitorINS_7IndexedINS_15DoubleBitBinaryEEEZN8asiodnp318PrintingSOEHandler8PrintAllIS2_EEvRKNS_10HeaderInfoERKNS_11ICollectionINS1_IT_EEEEEUlRKS3_E_E7OnValueESH_,comdat
.LLSDA3663:
	.byte	0xff
	.byte	0xff
	.byte	0x1
	.uleb128 .LLSDACSE3663-.LLSDACSB3663
.LLSDACSB3663:
	.uleb128 .LEHB0-.LFB3663
	.uleb128 .LEHE0-.LEHB0
	.uleb128 0
	.uleb128 0
	.uleb128 .LEHB1-.LFB3663
	.uleb128 .LEHE1-.LEHB1
	.uleb128 .L75-.LFB3663
	.uleb128 0
	.uleb128 .LEHB2-.LFB3663
	.uleb128 .LEHE2-.LEHB2
	.uleb128 0
	.uleb128 0
	.uleb128 .LEHB3-.LFB3663
	.uleb128 .LEHE3-.LEHB3
	.uleb128 .L75-.LFB3663
	.uleb128 0
	.uleb128 .LEHB4-.LFB3663
	.uleb128 .LEHE4-.LEHB4
	.uleb128 0
	.uleb128 0
.LLSDACSE3663:
	.section	.text._ZN8opendnp314FunctorVisitorINS_7IndexedINS_15DoubleBitBinaryEEEZN8asiodnp318PrintingSOEHandler8PrintAllIS2_EEvRKNS_10HeaderInfoERKNS_11ICollectionINS1_IT_EEEEEUlRKS3_E_E7OnValueESH_,"axG",@progbits,_ZN8opendnp314FunctorVisitorINS_7IndexedINS_15DoubleBitBinaryEEEZN8asiodnp318PrintingSOEHandler8PrintAllIS2_EEvRKNS_10HeaderInfoERKNS_11ICollectionINS1_IT_EEEEEUlRKS3_E_E7OnValueESH_,comdat
	.size	_ZN8opendnp314FunctorVisitorINS_7IndexedINS_15DoubleBitBinaryEEEZN8asiodnp318PrintingSOEHandler8PrintAllIS2_EEvRKNS_10HeaderInfoERKNS_11ICollectionINS1_IT_EEEEEUlRKS3_E_E7OnValueESH_, .-_ZN8opendnp314FunctorVisitorINS_7IndexedINS_15DoubleBitBinaryEEEZN8asiodnp318PrintingSOEHandler8PrintAllIS2_EEvRKNS_10HeaderInfoERKNS_11ICollectionINS1_IT_EEEEEUlRKS3_E_E7OnValueESH_
	.section	.rodata.str1.8,"aMS",@progbits,1
	.align	3
.LC4:
	.string	"DNPTime: "
	.text
	.align	2
	.p2align 4,,11
	.type	_ZN8opendnp314FunctorVisitorIN7openpal10UInt48TypeEZN8asiodnp318PrintingSOEHandler7ProcessERKNS_10HeaderInfoERKNS_11ICollectionIS2_EEEUlRKS2_E_E7OnValueESD_, %function
_ZN8opendnp314FunctorVisitorIN7openpal10UInt48TypeEZN8asiodnp318PrintingSOEHandler7ProcessERKNS_10HeaderInfoERKNS_11ICollectionIS2_EEEUlRKS2_E_E7OnValueESD_:
.LFB3665:
	.cfi_startproc
	stp	x29, x30, [sp, -32]!
	.cfi_def_cfa_offset 32
	.cfi_offset 29, -32
	.cfi_offset 30, -24
	mov	x2, 9
	mov	x29, sp
	stp	x19, x20, [sp, 16]
	.cfi_offset 19, -16
	.cfi_offset 20, -8
	adrp	x19, :got:_ZSt4cout
	mov	x20, x1
	ldr	x19, [x19, #:got_lo12:_ZSt4cout]
	adrp	x1, .LC4
	add	x1, x1, :lo12:.LC4
	mov	x0, x19
	bl	_ZSt16__ostream_insertIcSt11char_traitsIcEERSt13basic_ostreamIT_T0_ES6_PKS3_l
	ldr	x1, [x20]
	mov	x0, x19
	bl	_ZNSo9_M_insertIlEERSoT_
	mov	x19, x0
	ldr	x0, [x0]
	ldr	x0, [x0, -24]
	add	x0, x19, x0
	ldr	x20, [x0, 240]
	cbz	x20, .L88
	ldrb	w0, [x20, 56]
	cbz	w0, .L84
	ldrb	w1, [x20, 67]
.L85:
	mov	x0, x19
	bl	_ZNSo3putEc
	ldp	x19, x20, [sp, 16]
	ldp	x29, x30, [sp], 32
	.cfi_remember_state
	.cfi_restore 30
	.cfi_restore 29
	.cfi_restore 19
	.cfi_restore 20
	.cfi_def_cfa_offset 0
	b	_ZNSo5flushEv
	.p2align 2,,3
.L84:
	.cfi_restore_state
	mov	x0, x20
	bl	_ZNKSt5ctypeIcE13_M_widen_initEv
	ldr	x2, [x20]
	adrp	x0, :got:_ZNKSt5ctypeIcE8do_widenEc
	mov	w1, 10
	ldr	x0, [x0, #:got_lo12:_ZNKSt5ctypeIcE8do_widenEc]
	ldr	x2, [x2, 48]
	cmp	x2, x0
	beq	.L85
	mov	x0, x20
	blr	x2
	and	w1, w0, 255
	b	.L85
.L88:
	bl	_ZSt16__throw_bad_castv
	.cfi_endproc
.LFE3665:
	.size	_ZN8opendnp314FunctorVisitorIN7openpal10UInt48TypeEZN8asiodnp318PrintingSOEHandler7ProcessERKNS_10HeaderInfoERKNS_11ICollectionIS2_EEEUlRKS2_E_E7OnValueESD_, .-_ZN8opendnp314FunctorVisitorIN7openpal10UInt48TypeEZN8asiodnp318PrintingSOEHandler7ProcessERKNS_10HeaderInfoERKNS_11ICollectionIS2_EEEUlRKS2_E_E7OnValueESD_
	.section	.rodata.str1.8
	.align	3
.LC5:
	.string	"OctetString "
	.align	3
.LC6:
	.string	" ["
	.align	3
.LC7:
	.string	"] : Size : "
	.text
	.align	2
	.p2align 4,,11
	.type	_ZN8opendnp314FunctorVisitorINS_7IndexedINS_11OctetStringEEEZN8asiodnp318PrintingSOEHandler7ProcessERKNS_10HeaderInfoERKNS_11ICollectionIS3_EEEUlRKS3_E_E7OnValueESE_, %function
_ZN8opendnp314FunctorVisitorINS_7IndexedINS_11OctetStringEEEZN8asiodnp318PrintingSOEHandler7ProcessERKNS_10HeaderInfoERKNS_11ICollectionIS3_EEEUlRKS3_E_E7OnValueESE_:
.LFB3670:
	.cfi_startproc
	stp	x29, x30, [sp, -32]!
	.cfi_def_cfa_offset 32
	.cfi_offset 29, -32
	.cfi_offset 30, -24
	mov	x2, 12
	mov	x29, sp
	stp	x19, x20, [sp, 16]
	.cfi_offset 19, -16
	.cfi_offset 20, -8
	adrp	x19, :got:_ZSt4cout
	mov	x20, x1
	ldr	x19, [x19, #:got_lo12:_ZSt4cout]
	adrp	x1, .LC5
	add	x1, x1, :lo12:.LC5
	mov	x0, x19
	bl	_ZSt16__ostream_insertIcSt11char_traitsIcEERSt13basic_ostreamIT_T0_ES6_PKS3_l
	mov	x2, 2
	mov	x0, x19
	adrp	x1, .LC6
	add	x1, x1, :lo12:.LC6
	bl	_ZSt16__ostream_insertIcSt11char_traitsIcEERSt13basic_ostreamIT_T0_ES6_PKS3_l
	ldrh	w1, [x20, 272]
	mov	x0, x19
	bl	_ZNSo9_M_insertImEERSoT_
	mov	x19, x0
	adrp	x1, .LC7
	add	x1, x1, :lo12:.LC7
	mov	x2, 11
	bl	_ZSt16__ostream_insertIcSt11char_traitsIcEERSt13basic_ostreamIT_T0_ES6_PKS3_l
	mov	x0, x20
	bl	_ZNK8opendnp39OctetData8ToRSliceEv
	uxtw	x1, w0
	mov	x0, x19
	bl	_ZNSo9_M_insertImEERSoT_
	mov	x19, x0
	ldr	x0, [x0]
	ldr	x0, [x0, -24]
	add	x0, x19, x0
	ldr	x20, [x0, 240]
	cbz	x20, .L95
	ldrb	w0, [x20, 56]
	cbz	w0, .L91
	ldrb	w1, [x20, 67]
.L92:
	mov	x0, x19
	bl	_ZNSo3putEc
	ldp	x19, x20, [sp, 16]
	ldp	x29, x30, [sp], 32
	.cfi_remember_state
	.cfi_restore 30
	.cfi_restore 29
	.cfi_restore 19
	.cfi_restore 20
	.cfi_def_cfa_offset 0
	b	_ZNSo5flushEv
	.p2align 2,,3
.L91:
	.cfi_restore_state
	mov	x0, x20
	bl	_ZNKSt5ctypeIcE13_M_widen_initEv
	ldr	x2, [x20]
	adrp	x0, :got:_ZNKSt5ctypeIcE8do_widenEc
	mov	w1, 10
	ldr	x0, [x0, #:got_lo12:_ZNKSt5ctypeIcE8do_widenEc]
	ldr	x2, [x2, 48]
	cmp	x2, x0
	beq	.L92
	mov	x0, x20
	blr	x2
	and	w1, w0, 255
	b	.L92
.L95:
	bl	_ZSt16__throw_bad_castv
	.cfi_endproc
.LFE3670:
	.size	_ZN8opendnp314FunctorVisitorINS_7IndexedINS_11OctetStringEEEZN8asiodnp318PrintingSOEHandler7ProcessERKNS_10HeaderInfoERKNS_11ICollectionIS3_EEEUlRKS3_E_E7OnValueESE_, .-_ZN8opendnp314FunctorVisitorINS_7IndexedINS_11OctetStringEEEZN8asiodnp318PrintingSOEHandler7ProcessERKNS_10HeaderInfoERKNS_11ICollectionIS3_EEEUlRKS3_E_E7OnValueESE_
	.section	.rodata.str1.8
	.align	3
.LC8:
	.string	"SecurityStat: "
	.text
	.align	2
	.p2align 4,,11
	.type	_ZN8opendnp314FunctorVisitorINS_7IndexedINS_12SecurityStatEEEZN8asiodnp318PrintingSOEHandler7ProcessERKNS_10HeaderInfoERKNS_11ICollectionIS3_EEEUlRKS3_E_E7OnValueESE_, %function
_ZN8opendnp314FunctorVisitorINS_7IndexedINS_12SecurityStatEEEZN8asiodnp318PrintingSOEHandler7ProcessERKNS_10HeaderInfoERKNS_11ICollectionIS3_EEEUlRKS3_E_E7OnValueESE_:
.LFB3666:
	.cfi_startproc
	stp	x29, x30, [sp, -48]!
	.cfi_def_cfa_offset 48
	.cfi_offset 29, -48
	.cfi_offset 30, -40
	mov	x2, 14
	mov	x29, sp
	stp	x19, x20, [sp, 16]
	.cfi_offset 19, -32
	.cfi_offset 20, -24
	adrp	x20, :got:_ZSt4cout
	mov	x19, x1
	ldr	x20, [x20, #:got_lo12:_ZSt4cout]
	adrp	x1, .LC8
	add	x1, x1, :lo12:.LC8
	str	x21, [sp, 32]
	.cfi_offset 21, -16
	mov	x0, x20
	bl	_ZSt16__ostream_insertIcSt11char_traitsIcEERSt13basic_ostreamIT_T0_ES6_PKS3_l
	mov	x2, 1
	mov	x0, x20
	adrp	x1, .LC0
	add	x1, x1, :lo12:.LC0
	bl	_ZSt16__ostream_insertIcSt11char_traitsIcEERSt13basic_ostreamIT_T0_ES6_PKS3_l
	ldrh	w1, [x19, 24]
	mov	x0, x20
	bl	_ZNSo9_M_insertImEERSoT_
	mov	x20, x0
	mov	x2, 4
	adrp	x1, .LC1
	add	x1, x1, :lo12:.LC1
	bl	_ZSt16__ostream_insertIcSt11char_traitsIcEERSt13basic_ostreamIT_T0_ES6_PKS3_l
	ldr	x1, [x19, 16]
	mov	x0, x20
	adrp	x20, .LC3
	add	x20, x20, :lo12:.LC3
	bl	_ZNSo9_M_insertIlEERSoT_
	mov	x21, x0
	mov	x1, x20
	mov	x2, 3
	bl	_ZSt16__ostream_insertIcSt11char_traitsIcEERSt13basic_ostreamIT_T0_ES6_PKS3_l
	ldr	w1, [x19, 8]
	mov	x0, x21
	bl	_ZNSo9_M_insertImEERSoT_
	mov	x21, x0
	mov	x1, x20
	mov	x2, 3
	bl	_ZSt16__ostream_insertIcSt11char_traitsIcEERSt13basic_ostreamIT_T0_ES6_PKS3_l
	ldrb	w1, [x19]
	mov	x0, x21
	bl	_ZNSolsEi
	mov	x1, x20
	mov	x2, 3
	mov	x20, x0
	bl	_ZSt16__ostream_insertIcSt11char_traitsIcEERSt13basic_ostreamIT_T0_ES6_PKS3_l
	ldrh	w1, [x19, 4]
	mov	x0, x20
	bl	_ZNSo9_M_insertImEERSoT_
	mov	x19, x0
	ldr	x0, [x0]
	ldr	x0, [x0, -24]
	add	x0, x19, x0
	ldr	x20, [x0, 240]
	cbz	x20, .L102
	ldrb	w0, [x20, 56]
	cbz	w0, .L98
	ldrb	w1, [x20, 67]
.L99:
	mov	x0, x19
	bl	_ZNSo3putEc
	ldp	x19, x20, [sp, 16]
	ldr	x21, [sp, 32]
	ldp	x29, x30, [sp], 48
	.cfi_remember_state
	.cfi_restore 30
	.cfi_restore 29
	.cfi_restore 21
	.cfi_restore 19
	.cfi_restore 20
	.cfi_def_cfa_offset 0
	b	_ZNSo5flushEv
	.p2align 2,,3
.L98:
	.cfi_restore_state
	mov	x0, x20
	bl	_ZNKSt5ctypeIcE13_M_widen_initEv
	ldr	x2, [x20]
	adrp	x0, :got:_ZNKSt5ctypeIcE8do_widenEc
	mov	w1, 10
	ldr	x0, [x0, #:got_lo12:_ZNKSt5ctypeIcE8do_widenEc]
	ldr	x2, [x2, 48]
	cmp	x2, x0
	beq	.L99
	mov	x0, x20
	blr	x2
	and	w1, w0, 255
	b	.L99
.L102:
	bl	_ZSt16__throw_bad_castv
	.cfi_endproc
.LFE3666:
	.size	_ZN8opendnp314FunctorVisitorINS_7IndexedINS_12SecurityStatEEEZN8asiodnp318PrintingSOEHandler7ProcessERKNS_10HeaderInfoERKNS_11ICollectionIS3_EEEUlRKS3_E_E7OnValueESE_, .-_ZN8opendnp314FunctorVisitorINS_7IndexedINS_12SecurityStatEEEZN8asiodnp318PrintingSOEHandler7ProcessERKNS_10HeaderInfoERKNS_11ICollectionIS3_EEEUlRKS3_E_E7OnValueESE_
	.section	.rodata.str1.8
	.align	3
.LC9:
	.string	"BinaryCommandEvent: "
	.text
	.align	2
	.p2align 4,,11
	.type	_ZN8opendnp314FunctorVisitorINS_7IndexedINS_18BinaryCommandEventEEEZN8asiodnp318PrintingSOEHandler7ProcessERKNS_10HeaderInfoERKNS_11ICollectionIS3_EEEUlRKS3_E_E7OnValueESE_, %function
_ZN8opendnp314FunctorVisitorINS_7IndexedINS_18BinaryCommandEventEEEZN8asiodnp318PrintingSOEHandler7ProcessERKNS_10HeaderInfoERKNS_11ICollectionIS3_EEEUlRKS3_E_E7OnValueESE_:
.LFB3668:
	.cfi_startproc
	stp	x29, x30, [sp, -48]!
	.cfi_def_cfa_offset 48
	.cfi_offset 29, -48
	.cfi_offset 30, -40
	mov	x2, 20
	mov	x29, sp
	stp	x19, x20, [sp, 16]
	.cfi_offset 19, -32
	.cfi_offset 20, -24
	adrp	x19, :got:_ZSt4cout
	mov	x20, x1
	ldr	x19, [x19, #:got_lo12:_ZSt4cout]
	adrp	x1, .LC9
	add	x1, x1, :lo12:.LC9
	str	x21, [sp, 32]
	.cfi_offset 21, -16
	mov	x0, x19
	bl	_ZSt16__ostream_insertIcSt11char_traitsIcEERSt13basic_ostreamIT_T0_ES6_PKS3_l
	mov	x2, 1
	mov	x0, x19
	adrp	x1, .LC0
	add	x1, x1, :lo12:.LC0
	bl	_ZSt16__ostream_insertIcSt11char_traitsIcEERSt13basic_ostreamIT_T0_ES6_PKS3_l
	ldrh	w1, [x20, 16]
	mov	x0, x19
	bl	_ZNSo9_M_insertImEERSoT_
	mov	x19, x0
	mov	x2, 4
	adrp	x1, .LC1
	add	x1, x1, :lo12:.LC1
	bl	_ZSt16__ostream_insertIcSt11char_traitsIcEERSt13basic_ostreamIT_T0_ES6_PKS3_l
	ldr	x1, [x20, 8]
	mov	x0, x19
	adrp	x19, .LC3
	add	x19, x19, :lo12:.LC3
	bl	_ZNSo9_M_insertIlEERSoT_
	mov	x21, x0
	mov	x1, x19
	mov	x2, 3
	bl	_ZSt16__ostream_insertIcSt11char_traitsIcEERSt13basic_ostreamIT_T0_ES6_PKS3_l
	ldrb	w1, [x20]
	mov	x0, x21
	bl	_ZNSo9_M_insertIbEERSoT_
	mov	x1, x19
	mov	x2, 3
	mov	x19, x0
	bl	_ZSt16__ostream_insertIcSt11char_traitsIcEERSt13basic_ostreamIT_T0_ES6_PKS3_l
	ldrb	w0, [x20, 1]
	bl	_ZN8opendnp321CommandStatusToStringENS_13CommandStatusE
	cbz	x0, .L111
	mov	x20, x0
	bl	strlen
	mov	x1, x20
	mov	x2, x0
	mov	x0, x19
	bl	_ZSt16__ostream_insertIcSt11char_traitsIcEERSt13basic_ostreamIT_T0_ES6_PKS3_l
.L105:
	ldr	x0, [x19]
	ldr	x0, [x0, -24]
	add	x0, x19, x0
	ldr	x20, [x0, 240]
	cbz	x20, .L112
	ldrb	w0, [x20, 56]
	cbz	w0, .L107
	ldrb	w1, [x20, 67]
.L108:
	mov	x0, x19
	bl	_ZNSo3putEc
	ldp	x19, x20, [sp, 16]
	ldr	x21, [sp, 32]
	ldp	x29, x30, [sp], 48
	.cfi_remember_state
	.cfi_restore 30
	.cfi_restore 29
	.cfi_restore 21
	.cfi_restore 19
	.cfi_restore 20
	.cfi_def_cfa_offset 0
	b	_ZNSo5flushEv
	.p2align 2,,3
.L107:
	.cfi_restore_state
	mov	x0, x20
	bl	_ZNKSt5ctypeIcE13_M_widen_initEv
	ldr	x2, [x20]
	adrp	x0, :got:_ZNKSt5ctypeIcE8do_widenEc
	mov	w1, 10
	ldr	x0, [x0, #:got_lo12:_ZNKSt5ctypeIcE8do_widenEc]
	ldr	x2, [x2, 48]
	cmp	x2, x0
	beq	.L108
	mov	x0, x20
	blr	x2
	and	w1, w0, 255
	b	.L108
	.p2align 2,,3
.L111:
	ldr	x0, [x19]
	ldr	x0, [x0, -24]
	add	x0, x19, x0
	ldr	w1, [x0, 32]
	orr	w1, w1, 1
	bl	_ZNSt9basic_iosIcSt11char_traitsIcEE5clearESt12_Ios_Iostate
	b	.L105
.L112:
	bl	_ZSt16__throw_bad_castv
	.cfi_endproc
.LFE3668:
	.size	_ZN8opendnp314FunctorVisitorINS_7IndexedINS_18BinaryCommandEventEEEZN8asiodnp318PrintingSOEHandler7ProcessERKNS_10HeaderInfoERKNS_11ICollectionIS3_EEEUlRKS3_E_E7OnValueESE_, .-_ZN8opendnp314FunctorVisitorINS_7IndexedINS_18BinaryCommandEventEEEZN8asiodnp318PrintingSOEHandler7ProcessERKNS_10HeaderInfoERKNS_11ICollectionIS3_EEEUlRKS3_E_E7OnValueESE_
	.section	.rodata.str1.8
	.align	3
.LC10:
	.string	"AnalogCommandEvent: "
	.text
	.align	2
	.p2align 4,,11
	.type	_ZN8opendnp314FunctorVisitorINS_7IndexedINS_18AnalogCommandEventEEEZN8asiodnp318PrintingSOEHandler7ProcessERKNS_10HeaderInfoERKNS_11ICollectionIS3_EEEUlRKS3_E_E7OnValueESE_, %function
_ZN8opendnp314FunctorVisitorINS_7IndexedINS_18AnalogCommandEventEEEZN8asiodnp318PrintingSOEHandler7ProcessERKNS_10HeaderInfoERKNS_11ICollectionIS3_EEEUlRKS3_E_E7OnValueESE_:
.LFB3667:
	.cfi_startproc
	stp	x29, x30, [sp, -48]!
	.cfi_def_cfa_offset 48
	.cfi_offset 29, -48
	.cfi_offset 30, -40
	mov	x2, 20
	mov	x29, sp
	stp	x19, x20, [sp, 16]
	.cfi_offset 19, -32
	.cfi_offset 20, -24
	adrp	x19, :got:_ZSt4cout
	mov	x20, x1
	ldr	x19, [x19, #:got_lo12:_ZSt4cout]
	adrp	x1, .LC10
	add	x1, x1, :lo12:.LC10
	str	x21, [sp, 32]
	.cfi_offset 21, -16
	mov	x0, x19
	bl	_ZSt16__ostream_insertIcSt11char_traitsIcEERSt13basic_ostreamIT_T0_ES6_PKS3_l
	mov	x2, 1
	mov	x0, x19
	adrp	x1, .LC0
	add	x1, x1, :lo12:.LC0
	bl	_ZSt16__ostream_insertIcSt11char_traitsIcEERSt13basic_ostreamIT_T0_ES6_PKS3_l
	ldrh	w1, [x20, 24]
	mov	x0, x19
	bl	_ZNSo9_M_insertImEERSoT_
	mov	x19, x0
	mov	x2, 4
	adrp	x1, .LC1
	add	x1, x1, :lo12:.LC1
	bl	_ZSt16__ostream_insertIcSt11char_traitsIcEERSt13basic_ostreamIT_T0_ES6_PKS3_l
	ldr	x1, [x20, 16]
	mov	x0, x19
	adrp	x19, .LC3
	add	x19, x19, :lo12:.LC3
	bl	_ZNSo9_M_insertIlEERSoT_
	mov	x21, x0
	mov	x1, x19
	mov	x2, 3
	bl	_ZSt16__ostream_insertIcSt11char_traitsIcEERSt13basic_ostreamIT_T0_ES6_PKS3_l
	ldr	d0, [x20]
	mov	x0, x21
	bl	_ZNSo9_M_insertIdEERSoT_
	mov	x1, x19
	mov	x2, 3
	mov	x19, x0
	bl	_ZSt16__ostream_insertIcSt11char_traitsIcEERSt13basic_ostreamIT_T0_ES6_PKS3_l
	ldrb	w0, [x20, 8]
	bl	_ZN8opendnp321CommandStatusToStringENS_13CommandStatusE
	cbz	x0, .L121
	mov	x20, x0
	bl	strlen
	mov	x1, x20
	mov	x2, x0
	mov	x0, x19
	bl	_ZSt16__ostream_insertIcSt11char_traitsIcEERSt13basic_ostreamIT_T0_ES6_PKS3_l
.L115:
	ldr	x0, [x19]
	ldr	x0, [x0, -24]
	add	x0, x19, x0
	ldr	x20, [x0, 240]
	cbz	x20, .L122
	ldrb	w0, [x20, 56]
	cbz	w0, .L117
	ldrb	w1, [x20, 67]
.L118:
	mov	x0, x19
	bl	_ZNSo3putEc
	ldp	x19, x20, [sp, 16]
	ldr	x21, [sp, 32]
	ldp	x29, x30, [sp], 48
	.cfi_remember_state
	.cfi_restore 30
	.cfi_restore 29
	.cfi_restore 21
	.cfi_restore 19
	.cfi_restore 20
	.cfi_def_cfa_offset 0
	b	_ZNSo5flushEv
	.p2align 2,,3
.L117:
	.cfi_restore_state
	mov	x0, x20
	bl	_ZNKSt5ctypeIcE13_M_widen_initEv
	ldr	x2, [x20]
	adrp	x0, :got:_ZNKSt5ctypeIcE8do_widenEc
	mov	w1, 10
	ldr	x0, [x0, #:got_lo12:_ZNKSt5ctypeIcE8do_widenEc]
	ldr	x2, [x2, 48]
	cmp	x2, x0
	beq	.L118
	mov	x0, x20
	blr	x2
	and	w1, w0, 255
	b	.L118
	.p2align 2,,3
.L121:
	ldr	x0, [x19]
	ldr	x0, [x0, -24]
	add	x0, x19, x0
	ldr	w1, [x0, 32]
	orr	w1, w1, 1
	bl	_ZNSt9basic_iosIcSt11char_traitsIcEE5clearESt12_Ios_Iostate
	b	.L115
.L122:
	bl	_ZSt16__throw_bad_castv
	.cfi_endproc
.LFE3667:
	.size	_ZN8opendnp314FunctorVisitorINS_7IndexedINS_18AnalogCommandEventEEEZN8asiodnp318PrintingSOEHandler7ProcessERKNS_10HeaderInfoERKNS_11ICollectionIS3_EEEUlRKS3_E_E7OnValueESE_, .-_ZN8opendnp314FunctorVisitorINS_7IndexedINS_18AnalogCommandEventEEEZN8asiodnp318PrintingSOEHandler7ProcessERKNS_10HeaderInfoERKNS_11ICollectionIS3_EEEUlRKS3_E_E7OnValueESE_
	.section	.rodata.str1.8
	.align	3
.LC11:
	.string	"TimeAndInterval: "
	.text
	.align	2
	.p2align 4,,11
	.type	_ZN8opendnp314FunctorVisitorINS_7IndexedINS_15TimeAndIntervalEEEZN8asiodnp318PrintingSOEHandler7ProcessERKNS_10HeaderInfoERKNS_11ICollectionIS3_EEEUlRKS3_E_E7OnValueESE_, %function
_ZN8opendnp314FunctorVisitorINS_7IndexedINS_15TimeAndIntervalEEEZN8asiodnp318PrintingSOEHandler7ProcessERKNS_10HeaderInfoERKNS_11ICollectionIS3_EEEUlRKS3_E_E7OnValueESE_:
.LFB3669:
	.cfi_startproc
	stp	x29, x30, [sp, -48]!
	.cfi_def_cfa_offset 48
	.cfi_offset 29, -48
	.cfi_offset 30, -40
	mov	x2, 17
	mov	x29, sp
	stp	x19, x20, [sp, 16]
	.cfi_offset 19, -32
	.cfi_offset 20, -24
	adrp	x19, :got:_ZSt4cout
	mov	x20, x1
	ldr	x19, [x19, #:got_lo12:_ZSt4cout]
	adrp	x1, .LC11
	add	x1, x1, :lo12:.LC11
	str	x21, [sp, 32]
	.cfi_offset 21, -16
	mov	x0, x19
	bl	_ZSt16__ostream_insertIcSt11char_traitsIcEERSt13basic_ostreamIT_T0_ES6_PKS3_l
	mov	x2, 1
	mov	x0, x19
	adrp	x1, .LC0
	add	x1, x1, :lo12:.LC0
	bl	_ZSt16__ostream_insertIcSt11char_traitsIcEERSt13basic_ostreamIT_T0_ES6_PKS3_l
	ldrh	w1, [x20, 16]
	mov	x0, x19
	bl	_ZNSo9_M_insertImEERSoT_
	mov	x19, x0
	mov	x2, 4
	adrp	x1, .LC1
	add	x1, x1, :lo12:.LC1
	bl	_ZSt16__ostream_insertIcSt11char_traitsIcEERSt13basic_ostreamIT_T0_ES6_PKS3_l
	ldr	x1, [x20]
	mov	x0, x19
	adrp	x19, .LC3
	add	x19, x19, :lo12:.LC3
	bl	_ZNSo9_M_insertIlEERSoT_
	mov	x21, x0
	mov	x1, x19
	mov	x2, 3
	bl	_ZSt16__ostream_insertIcSt11char_traitsIcEERSt13basic_ostreamIT_T0_ES6_PKS3_l
	ldr	w1, [x20, 8]
	mov	x0, x21
	bl	_ZNSo9_M_insertImEERSoT_
	mov	x1, x19
	mov	x2, 3
	mov	x19, x0
	bl	_ZSt16__ostream_insertIcSt11char_traitsIcEERSt13basic_ostreamIT_T0_ES6_PKS3_l
	mov	x0, x20
	bl	_ZNK8opendnp315TimeAndInterval12GetUnitsEnumEv
	bl	_ZN8opendnp321IntervalUnitsToStringENS_13IntervalUnitsE
	cbz	x0, .L131
	mov	x20, x0
	bl	strlen
	mov	x1, x20
	mov	x2, x0
	mov	x0, x19
	bl	_ZSt16__ostream_insertIcSt11char_traitsIcEERSt13basic_ostreamIT_T0_ES6_PKS3_l
.L125:
	ldr	x0, [x19]
	ldr	x0, [x0, -24]
	add	x0, x19, x0
	ldr	x20, [x0, 240]
	cbz	x20, .L132
	ldrb	w0, [x20, 56]
	cbz	w0, .L127
	ldrb	w1, [x20, 67]
.L128:
	mov	x0, x19
	bl	_ZNSo3putEc
	ldp	x19, x20, [sp, 16]
	ldr	x21, [sp, 32]
	ldp	x29, x30, [sp], 48
	.cfi_remember_state
	.cfi_restore 30
	.cfi_restore 29
	.cfi_restore 21
	.cfi_restore 19
	.cfi_restore 20
	.cfi_def_cfa_offset 0
	b	_ZNSo5flushEv
	.p2align 2,,3
.L127:
	.cfi_restore_state
	mov	x0, x20
	bl	_ZNKSt5ctypeIcE13_M_widen_initEv
	ldr	x2, [x20]
	adrp	x0, :got:_ZNKSt5ctypeIcE8do_widenEc
	mov	w1, 10
	ldr	x0, [x0, #:got_lo12:_ZNKSt5ctypeIcE8do_widenEc]
	ldr	x2, [x2, 48]
	cmp	x2, x0
	beq	.L128
	mov	x0, x20
	blr	x2
	and	w1, w0, 255
	b	.L128
	.p2align 2,,3
.L131:
	ldr	x0, [x19]
	ldr	x0, [x0, -24]
	add	x0, x19, x0
	ldr	w1, [x0, 32]
	orr	w1, w1, 1
	bl	_ZNSt9basic_iosIcSt11char_traitsIcEE5clearESt12_Ios_Iostate
	b	.L125
.L132:
	bl	_ZSt16__throw_bad_castv
	.cfi_endproc
.LFE3669:
	.size	_ZN8opendnp314FunctorVisitorINS_7IndexedINS_15TimeAndIntervalEEEZN8asiodnp318PrintingSOEHandler7ProcessERKNS_10HeaderInfoERKNS_11ICollectionIS3_EEEUlRKS3_E_E7OnValueESE_, .-_ZN8opendnp314FunctorVisitorINS_7IndexedINS_15TimeAndIntervalEEEZN8asiodnp318PrintingSOEHandler7ProcessERKNS_10HeaderInfoERKNS_11ICollectionIS3_EEEUlRKS3_E_E7OnValueESE_
	.section	.text._ZNSt7__cxx1115basic_stringbufIcSt11char_traitsIcESaIcEED2Ev,"axG",@progbits,_ZNSt7__cxx1115basic_stringbufIcSt11char_traitsIcESaIcEED5Ev,comdat
	.align	2
	.p2align 4,,11
	.weak	_ZNSt7__cxx1115basic_stringbufIcSt11char_traitsIcESaIcEED2Ev
	.type	_ZNSt7__cxx1115basic_stringbufIcSt11char_traitsIcESaIcEED2Ev, %function
_ZNSt7__cxx1115basic_stringbufIcSt11char_traitsIcESaIcEED2Ev:
.LFB3067:
	.cfi_startproc
	stp	x29, x30, [sp, -32]!
	.cfi_def_cfa_offset 32
	.cfi_offset 29, -32
	.cfi_offset 30, -24
	adrp	x1, :got:_ZTVNSt7__cxx1115basic_stringbufIcSt11char_traitsIcESaIcEEE
	mov	x2, x0
	mov	x29, sp
	ldr	x1, [x1, #:got_lo12:_ZTVNSt7__cxx1115basic_stringbufIcSt11char_traitsIcESaIcEEE]
	add	x3, x0, 88
	str	x19, [sp, 16]
	.cfi_offset 19, -16
	mov	x19, x0
	ldr	x0, [x0, 72]
	add	x1, x1, 16
	str	x1, [x2], 72
	cmp	x0, x3
	beq	.L134
	ldr	x1, [x2, 16]
	add	x1, x1, 1
	bl	_ZdlPvm
.L134:
	adrp	x1, :got:_ZTVSt15basic_streambufIcSt11char_traitsIcEE
	mov	x0, x19
	ldr	x19, [sp, 16]
	ldr	x1, [x1, #:got_lo12:_ZTVSt15basic_streambufIcSt11char_traitsIcEE]
	add	x1, x1, 16
	str	x1, [x0], 56
	ldp	x29, x30, [sp], 32
	.cfi_restore 30
	.cfi_restore 29
	.cfi_restore 19
	.cfi_def_cfa_offset 0
	b	_ZNSt6localeD1Ev
	.cfi_endproc
.LFE3067:
	.size	_ZNSt7__cxx1115basic_stringbufIcSt11char_traitsIcESaIcEED2Ev, .-_ZNSt7__cxx1115basic_stringbufIcSt11char_traitsIcESaIcEED2Ev
	.weak	_ZNSt7__cxx1115basic_stringbufIcSt11char_traitsIcESaIcEED1Ev
	.set	_ZNSt7__cxx1115basic_stringbufIcSt11char_traitsIcESaIcEED1Ev,_ZNSt7__cxx1115basic_stringbufIcSt11char_traitsIcESaIcEED2Ev
	.section	.text._ZNSt7__cxx1115basic_stringbufIcSt11char_traitsIcESaIcEED0Ev,"axG",@progbits,_ZNSt7__cxx1115basic_stringbufIcSt11char_traitsIcESaIcEED5Ev,comdat
	.align	2
	.p2align 4,,11
	.weak	_ZNSt7__cxx1115basic_stringbufIcSt11char_traitsIcESaIcEED0Ev
	.type	_ZNSt7__cxx1115basic_stringbufIcSt11char_traitsIcESaIcEED0Ev, %function
_ZNSt7__cxx1115basic_stringbufIcSt11char_traitsIcESaIcEED0Ev:
.LFB3069:
	.cfi_startproc
	stp	x29, x30, [sp, -32]!
	.cfi_def_cfa_offset 32
	.cfi_offset 29, -32
	.cfi_offset 30, -24
	adrp	x1, :got:_ZTVNSt7__cxx1115basic_stringbufIcSt11char_traitsIcESaIcEEE
	mov	x2, x0
	mov	x29, sp
	ldr	x1, [x1, #:got_lo12:_ZTVNSt7__cxx1115basic_stringbufIcSt11char_traitsIcESaIcEEE]
	add	x3, x0, 88
	str	x19, [sp, 16]
	.cfi_offset 19, -16
	mov	x19, x0
	ldr	x0, [x0, 72]
	add	x1, x1, 16
	str	x1, [x2], 72
	cmp	x0, x3
	beq	.L137
	ldr	x1, [x2, 16]
	add	x1, x1, 1
	bl	_ZdlPvm
.L137:
	adrp	x1, :got:_ZTVSt15basic_streambufIcSt11char_traitsIcEE
	mov	x0, x19
	ldr	x1, [x1, #:got_lo12:_ZTVSt15basic_streambufIcSt11char_traitsIcEE]
	add	x1, x1, 16
	str	x1, [x0], 56
	bl	_ZNSt6localeD1Ev
	mov	x0, x19
	mov	x1, 104
	ldr	x19, [sp, 16]
	ldp	x29, x30, [sp], 32
	.cfi_restore 30
	.cfi_restore 29
	.cfi_restore 19
	.cfi_def_cfa_offset 0
	b	_ZdlPvm
	.cfi_endproc
.LFE3069:
	.size	_ZNSt7__cxx1115basic_stringbufIcSt11char_traitsIcESaIcEED0Ev, .-_ZNSt7__cxx1115basic_stringbufIcSt11char_traitsIcESaIcEED0Ev
	.section	.text._ZN8asiodnp318PrintingSOEHandler13ValueToStringIN8opendnp36BinaryEEENSt7__cxx1112basic_stringIcSt11char_traitsIcESaIcEEERKT_,"axG",@progbits,_ZN8asiodnp318PrintingSOEHandler13ValueToStringIN8opendnp36BinaryEEENSt7__cxx1112basic_stringIcSt11char_traitsIcESaIcEEERKT_,comdat
	.align	2
	.p2align 4,,11
	.weak	_ZN8asiodnp318PrintingSOEHandler13ValueToStringIN8opendnp36BinaryEEENSt7__cxx1112basic_stringIcSt11char_traitsIcESaIcEEERKT_
	.type	_ZN8asiodnp318PrintingSOEHandler13ValueToStringIN8opendnp36BinaryEEENSt7__cxx1112basic_stringIcSt11char_traitsIcESaIcEEERKT_, %function
_ZN8asiodnp318PrintingSOEHandler13ValueToStringIN8opendnp36BinaryEEENSt7__cxx1112basic_stringIcSt11char_traitsIcESaIcEEERKT_:
.LFB3386:
	.cfi_startproc
	.cfi_personality 0x9b,DW.ref.__gxx_personality_v0
	.cfi_lsda 0x1b,.LLSDA3386
	stp	x29, x30, [sp, -496]!
	.cfi_def_cfa_offset 496
	.cfi_offset 29, -496
	.cfi_offset 30, -488
	adrp	x1, :got:__stack_chk_guard
	mov	x29, sp
	ldr	x1, [x1, #:got_lo12:__stack_chk_guard]
	stp	x19, x20, [sp, 16]
	.cfi_offset 19, -480
	.cfi_offset 20, -472
	mov	x19, x8
	stp	x21, x22, [sp, 32]
	.cfi_offset 21, -464
	.cfi_offset 22, -456
	adrp	x21, :got:_ZTVSt9basic_iosIcSt11char_traitsIcEE
	stp	x23, x24, [sp, 48]
	.cfi_offset 23, -448
	.cfi_offset 24, -440
	add	x23, sp, 112
	stp	x25, x26, [sp, 64]
	.cfi_offset 25, -432
	.cfi_offset 26, -424
	add	x25, sp, 224
	stp	x27, x28, [sp, 80]
	.cfi_offset 27, -416
	.cfi_offset 28, -408
	str	x0, [sp, 104]
	mov	x0, x25
	ldr	x2, [x1]
	str	x2, [sp, 488]
	mov	x2, 0
	bl	_ZNSt8ios_baseC2Ev
	strh	wzr, [sp, 448]
	adrp	x0, :got:_ZTTNSt7__cxx1119basic_ostringstreamIcSt11char_traitsIcESaIcEEE
	add	x1, sp, 528
	movi	v0.4s, 0
	add	x3, sp, 528
	ldr	x0, [x0, #:got_lo12:_ZTTNSt7__cxx1119basic_ostringstreamIcSt11char_traitsIcESaIcEEE]
	ldr	x2, [x21, #:got_lo12:_ZTVSt9basic_iosIcSt11char_traitsIcEE]
	str	q0, [x1, -72]
	mov	x1, 0
	ldp	x24, x26, [x0, 8]
	str	q0, [x3, -56]
	add	x2, x2, 16
	ldr	x3, [x24, -24]
	str	x24, [sp, 112]
	str	x2, [sp, 224]
	str	xzr, [sp, 440]
	add	x0, x23, x3
	str	x26, [x23, x3]
.LEHB5:
	bl	_ZNSt9basic_iosIcSt11char_traitsIcEE4initEPSt15basic_streambufIcS1_E
.LEHE5:
	adrp	x1, :got:_ZTVSt15basic_streambufIcSt11char_traitsIcEE
	adrp	x20, :got:_ZTVNSt7__cxx1119basic_ostringstreamIcSt11char_traitsIcESaIcEEE
	movi	v0.4s, 0
	add	x27, sp, 176
	ldr	x2, [x1, #:got_lo12:_ZTVSt15basic_streambufIcSt11char_traitsIcEE]
	adrp	x22, :got:_ZTVNSt7__cxx1115basic_stringbufIcSt11char_traitsIcESaIcEEE
	ldr	x0, [x20, #:got_lo12:_ZTVNSt7__cxx1119basic_ostringstreamIcSt11char_traitsIcESaIcEEE]
	add	x2, x2, 16
	stp	q0, q0, [sp, 128]
	add	x28, sp, 208
	add	x3, x0, 24
	add	x1, x0, 64
	stp	x3, x2, [sp, 112]
	add	x2, sp, 120
	mov	x0, x27
	str	x2, [sp, 96]
	str	q0, [sp, 160]
	str	x1, [sp, 224]
	bl	_ZNSt6localeC1Ev
	ldr	x2, [x22, #:got_lo12:_ZTVNSt7__cxx1115basic_stringbufIcSt11char_traitsIcESaIcEEE]
	mov	w3, 16
	ldr	x1, [sp, 96]
	add	x2, x2, 16
	mov	x0, x25
	str	x2, [sp, 120]
	str	w3, [sp, 184]
	stp	x28, xzr, [sp, 192]
	strb	wzr, [sp, 208]
.LEHB6:
	bl	_ZNSt9basic_iosIcSt11char_traitsIcEE4initEPSt15basic_streambufIcS1_E
.LEHE6:
	ldr	x0, [sp, 104]
	ldrb	w1, [x0, 16]
	mov	x0, x23
.LEHB7:
	bl	_ZNSo9_M_insertIbEERSoT_
.LEHE7:
	ldr	x5, [sp, 160]
	add	x0, x19, 16
	stp	x0, xzr, [x19]
	strb	wzr, [x19, 16]
	str	x0, [sp, 96]
	cbz	x5, .L143
	ldp	x4, x3, [sp, 144]
	mov	x0, x19
	mov	x2, 0
	mov	x1, 0
	cmp	x4, 0
	ccmp	x5, x4, 2, ne
	csel	x4, x5, x4, hi
	sub	x4, x4, x3
.LEHB8:
	bl	_ZNSt7__cxx1112basic_stringIcSt11char_traitsIcESaIcEE10_M_replaceEmmPKcm
.L147:
	ldr	x20, [x20, #:got_lo12:_ZTVNSt7__cxx1119basic_ostringstreamIcSt11char_traitsIcESaIcEEE]
	ldr	x22, [x22, #:got_lo12:_ZTVNSt7__cxx1115basic_stringbufIcSt11char_traitsIcESaIcEEE]
	add	x1, x20, 24
	ldr	x0, [sp, 192]
	add	x22, x22, 16
	add	x20, x20, 64
	stp	x1, x22, [sp, 112]
	str	x20, [sp, 224]
	cmp	x0, x28
	beq	.L146
	ldr	x1, [sp, 208]
	add	x1, x1, 1
	bl	_ZdlPvm
.L146:
	adrp	x0, :got:_ZTVSt15basic_streambufIcSt11char_traitsIcEE
	ldr	x1, [x0, #:got_lo12:_ZTVSt15basic_streambufIcSt11char_traitsIcEE]
	mov	x0, x27
	add	x1, x1, 16
	str	x1, [sp, 120]
	bl	_ZNSt6localeD1Ev
	ldr	x1, [x24, -24]
	str	x24, [sp, 112]
	ldr	x21, [x21, #:got_lo12:_ZTVSt9basic_iosIcSt11char_traitsIcEE]
	mov	x0, x25
	str	x26, [x23, x1]
	add	x21, x21, 16
	str	x21, [sp, 224]
	bl	_ZNSt8ios_baseD2Ev
	adrp	x0, :got:__stack_chk_guard
	ldr	x0, [x0, #:got_lo12:__stack_chk_guard]
	ldr	x2, [sp, 488]
	ldr	x1, [x0]
	subs	x2, x2, x1
	mov	x1, 0
	bne	.L161
	mov	x0, x19
	ldp	x19, x20, [sp, 16]
	ldp	x21, x22, [sp, 32]
	ldp	x23, x24, [sp, 48]
	ldp	x25, x26, [sp, 64]
	ldp	x27, x28, [sp, 80]
	ldp	x29, x30, [sp], 496
	.cfi_remember_state
	.cfi_restore 30
	.cfi_restore 29
	.cfi_restore 27
	.cfi_restore 28
	.cfi_restore 25
	.cfi_restore 26
	.cfi_restore 23
	.cfi_restore 24
	.cfi_restore 21
	.cfi_restore 22
	.cfi_restore 19
	.cfi_restore 20
	.cfi_def_cfa_offset 0
	ret
	.p2align 2,,3
.L143:
	.cfi_restore_state
	add	x1, sp, 192
	mov	x0, x19
	bl	_ZNSt7__cxx1112basic_stringIcSt11char_traitsIcESaIcEE9_M_assignERKS4_
.LEHE8:
	b	.L147
.L161:
	bl	__stack_chk_fail
.L152:
	mov	x20, x0
.L150:
	mov	x0, x23
	bl	_ZNSt7__cxx1119basic_ostringstreamIcSt11char_traitsIcESaIcEED1Ev
	mov	x0, x20
.LEHB9:
	bl	_Unwind_Resume
.L155:
	mov	x20, x0
	ldr	x2, [x19]
	ldr	x0, [sp, 96]
	cmp	x0, x2
	beq	.L150
	ldr	x1, [x19, 16]
	mov	x0, x2
	add	x1, x1, 1
	bl	_ZdlPvm
	b	.L150
.L154:
	mov	x19, x0
	ldr	x0, [sp, 96]
	bl	_ZNSt7__cxx1115basic_stringbufIcSt11char_traitsIcESaIcEED1Ev
	ldr	x0, [x24, -24]
	str	x24, [sp, 112]
	str	x26, [x23, x0]
.L142:
	ldr	x1, [x21, #:got_lo12:_ZTVSt9basic_iosIcSt11char_traitsIcEE]
	mov	x0, x25
	add	x1, x1, 16
	str	x1, [sp, 224]
	bl	_ZNSt8ios_baseD2Ev
	mov	x0, x19
	bl	_Unwind_Resume
.LEHE9:
.L153:
	mov	x19, x0
	b	.L142
	.cfi_endproc
.LFE3386:
	.section	.gcc_except_table._ZN8asiodnp318PrintingSOEHandler13ValueToStringIN8opendnp36BinaryEEENSt7__cxx1112basic_stringIcSt11char_traitsIcESaIcEEERKT_,"aG",@progbits,_ZN8asiodnp318PrintingSOEHandler13ValueToStringIN8opendnp36BinaryEEENSt7__cxx1112basic_stringIcSt11char_traitsIcESaIcEEERKT_,comdat
.LLSDA3386:
	.byte	0xff
	.byte	0xff
	.byte	0x1
	.uleb128 .LLSDACSE3386-.LLSDACSB3386
.LLSDACSB3386:
	.uleb128 .LEHB5-.LFB3386
	.uleb128 .LEHE5-.LEHB5
	.uleb128 .L153-.LFB3386
	.uleb128 0
	.uleb128 .LEHB6-.LFB3386
	.uleb128 .LEHE6-.LEHB6
	.uleb128 .L154-.LFB3386
	.uleb128 0
	.uleb128 .LEHB7-.LFB3386
	.uleb128 .LEHE7-.LEHB7
	.uleb128 .L152-.LFB3386
	.uleb128 0
	.uleb128 .LEHB8-.LFB3386
	.uleb128 .LEHE8-.LEHB8
	.uleb128 .L155-.LFB3386
	.uleb128 0
	.uleb128 .LEHB9-.LFB3386
	.uleb128 .LEHE9-.LEHB9
	.uleb128 0
	.uleb128 0
.LLSDACSE3386:
	.section	.text._ZN8asiodnp318PrintingSOEHandler13ValueToStringIN8opendnp36BinaryEEENSt7__cxx1112basic_stringIcSt11char_traitsIcESaIcEEERKT_,"axG",@progbits,_ZN8asiodnp318PrintingSOEHandler13ValueToStringIN8opendnp36BinaryEEENSt7__cxx1112basic_stringIcSt11char_traitsIcESaIcEEERKT_,comdat
	.size	_ZN8asiodnp318PrintingSOEHandler13ValueToStringIN8opendnp36BinaryEEENSt7__cxx1112basic_stringIcSt11char_traitsIcESaIcEEERKT_, .-_ZN8asiodnp318PrintingSOEHandler13ValueToStringIN8opendnp36BinaryEEENSt7__cxx1112basic_stringIcSt11char_traitsIcESaIcEEERKT_
	.section	.text._ZN8opendnp314FunctorVisitorINS_7IndexedINS_6BinaryEEEZN8asiodnp318PrintingSOEHandler8PrintAllIS2_EEvRKNS_10HeaderInfoERKNS_11ICollectionINS1_IT_EEEEEUlRKS3_E_E7OnValueESH_,"axG",@progbits,_ZN8opendnp314FunctorVisitorINS_7IndexedINS_6BinaryEEEZN8asiodnp318PrintingSOEHandler8PrintAllIS2_EEvRKNS_10HeaderInfoERKNS_11ICollectionINS1_IT_EEEEEUlRKS3_E_E7OnValueESH_,comdat
	.align	2
	.p2align 4,,11
	.weak	_ZN8opendnp314FunctorVisitorINS_7IndexedINS_6BinaryEEEZN8asiodnp318PrintingSOEHandler8PrintAllIS2_EEvRKNS_10HeaderInfoERKNS_11ICollectionINS1_IT_EEEEEUlRKS3_E_E7OnValueESH_
	.type	_ZN8opendnp314FunctorVisitorINS_7IndexedINS_6BinaryEEEZN8asiodnp318PrintingSOEHandler8PrintAllIS2_EEvRKNS_10HeaderInfoERKNS_11ICollectionINS1_IT_EEEEEUlRKS3_E_E7OnValueESH_, %function
_ZN8opendnp314FunctorVisitorINS_7IndexedINS_6BinaryEEEZN8asiodnp318PrintingSOEHandler8PrintAllIS2_EEvRKNS_10HeaderInfoERKNS_11ICollectionINS1_IT_EEEEEUlRKS3_E_E7OnValueESH_:
.LFB3664:
	.cfi_startproc
	.cfi_personality 0x9b,DW.ref.__gxx_personality_v0
	.cfi_lsda 0x1b,.LLSDA3664
	stp	x29, x30, [sp, -96]!
	.cfi_def_cfa_offset 96
	.cfi_offset 29, -96
	.cfi_offset 30, -88
	adrp	x0, :got:__stack_chk_guard
	mov	x2, 1
	mov	x29, sp
	stp	x19, x20, [sp, 16]
	.cfi_offset 19, -80
	.cfi_offset 20, -72
	adrp	x20, :got:_ZSt4cout
	mov	x19, x1
	ldr	x0, [x0, #:got_lo12:__stack_chk_guard]
	str	x21, [sp, 32]
	.cfi_offset 21, -64
	ldr	x20, [x20, #:got_lo12:_ZSt4cout]
	ldr	x1, [x0]
	str	x1, [sp, 88]
	mov	x1, 0
	ldrh	w21, [x19, 24]
	adrp	x1, .LC0
	mov	x0, x20
	add	x1, x1, :lo12:.LC0
.LEHB10:
	bl	_ZSt16__ostream_insertIcSt11char_traitsIcEERSt13basic_ostreamIT_T0_ES6_PKS3_l
	and	x1, x21, 65535
	mov	x0, x20
	bl	_ZNSo9_M_insertImEERSoT_
	mov	x20, x0
	adrp	x1, .LC1
	add	x1, x1, :lo12:.LC1
	mov	x2, 4
	bl	_ZSt16__ostream_insertIcSt11char_traitsIcEERSt13basic_ostreamIT_T0_ES6_PKS3_l
	mov	x0, x19
	add	x8, sp, 56
	bl	_ZN8asiodnp318PrintingSOEHandler13ValueToStringIN8opendnp36BinaryEEENSt7__cxx1112basic_stringIcSt11char_traitsIcESaIcEEERKT_
.LEHE10:
	ldp	x1, x2, [sp, 56]
	mov	x0, x20
.LEHB11:
	bl	_ZSt16__ostream_insertIcSt11char_traitsIcEERSt13basic_ostreamIT_T0_ES6_PKS3_l
	adrp	x21, .LC3
	mov	x20, x0
	add	x1, x21, :lo12:.LC3
	mov	x2, 3
	bl	_ZSt16__ostream_insertIcSt11char_traitsIcEERSt13basic_ostreamIT_T0_ES6_PKS3_l
	ldrb	w1, [x19]
	mov	x0, x20
	bl	_ZNSolsEi
	add	x1, x21, :lo12:.LC3
	mov	x20, x0
	mov	x2, 3
	bl	_ZSt16__ostream_insertIcSt11char_traitsIcEERSt13basic_ostreamIT_T0_ES6_PKS3_l
	ldr	x1, [x19, 8]
	mov	x0, x20
	bl	_ZNSo9_M_insertIlEERSoT_
	mov	x19, x0
	ldr	x0, [x0]
	ldr	x0, [x0, -24]
	add	x0, x19, x0
	ldr	x20, [x0, 240]
	cbz	x20, .L173
	ldrb	w0, [x20, 56]
	cbz	w0, .L164
	ldrb	w1, [x20, 67]
.L165:
	mov	x0, x19
	bl	_ZNSo3putEc
	bl	_ZNSo5flushEv
	ldr	x0, [sp, 56]
	add	x1, sp, 72
	cmp	x0, x1
	beq	.L162
	ldr	x1, [sp, 72]
	add	x1, x1, 1
	bl	_ZdlPvm
.L162:
	adrp	x0, :got:__stack_chk_guard
	ldr	x0, [x0, #:got_lo12:__stack_chk_guard]
	ldr	x2, [sp, 88]
	ldr	x1, [x0]
	subs	x2, x2, x1
	mov	x1, 0
	bne	.L174
	ldp	x19, x20, [sp, 16]
	ldr	x21, [sp, 32]
	ldp	x29, x30, [sp], 96
	.cfi_remember_state
	.cfi_restore 30
	.cfi_restore 29
	.cfi_restore 21
	.cfi_restore 19
	.cfi_restore 20
	.cfi_def_cfa_offset 0
	ret
	.p2align 2,,3
.L164:
	.cfi_restore_state
	mov	x0, x20
	bl	_ZNKSt5ctypeIcE13_M_widen_initEv
	ldr	x2, [x20]
	adrp	x0, :got:_ZNKSt5ctypeIcE8do_widenEc
	mov	w1, 10
	ldr	x0, [x0, #:got_lo12:_ZNKSt5ctypeIcE8do_widenEc]
	ldr	x2, [x2, 48]
	cmp	x2, x0
	beq	.L165
	mov	x0, x20
	blr	x2
	and	w1, w0, 255
	b	.L165
.L174:
	bl	__stack_chk_fail
.L173:
	bl	_ZSt16__throw_bad_castv
.LEHE11:
.L171:
	ldr	x2, [sp, 56]
	add	x1, sp, 72
	mov	x19, x0
	cmp	x2, x1
	beq	.L168
	ldr	x1, [sp, 72]
	mov	x0, x2
	add	x1, x1, 1
	bl	_ZdlPvm
.L168:
	mov	x0, x19
.LEHB12:
	bl	_Unwind_Resume
.LEHE12:
	.cfi_endproc
.LFE3664:
	.section	.gcc_except_table._ZN8opendnp314FunctorVisitorINS_7IndexedINS_6BinaryEEEZN8asiodnp318PrintingSOEHandler8PrintAllIS2_EEvRKNS_10HeaderInfoERKNS_11ICollectionINS1_IT_EEEEEUlRKS3_E_E7OnValueESH_,"aG",@progbits,_ZN8opendnp314FunctorVisitorINS_7IndexedINS_6BinaryEEEZN8asiodnp318PrintingSOEHandler8PrintAllIS2_EEvRKNS_10HeaderInfoERKNS_11ICollectionINS1_IT_EEEEEUlRKS3_E_E7OnValueESH_,comdat
.LLSDA3664:
	.byte	0xff
	.byte	0xff
	.byte	0x1
	.uleb128 .LLSDACSE3664-.LLSDACSB3664
.LLSDACSB3664:
	.uleb128 .LEHB10-.LFB3664
	.uleb128 .LEHE10-.LEHB10
	.uleb128 0
	.uleb128 0
	.uleb128 .LEHB11-.LFB3664
	.uleb128 .LEHE11-.LEHB11
	.uleb128 .L171-.LFB3664
	.uleb128 0
	.uleb128 .LEHB12-.LFB3664
	.uleb128 .LEHE12-.LEHB12
	.uleb128 0
	.uleb128 0
.LLSDACSE3664:
	.section	.text._ZN8opendnp314FunctorVisitorINS_7IndexedINS_6BinaryEEEZN8asiodnp318PrintingSOEHandler8PrintAllIS2_EEvRKNS_10HeaderInfoERKNS_11ICollectionINS1_IT_EEEEEUlRKS3_E_E7OnValueESH_,"axG",@progbits,_ZN8opendnp314FunctorVisitorINS_7IndexedINS_6BinaryEEEZN8asiodnp318PrintingSOEHandler8PrintAllIS2_EEvRKNS_10HeaderInfoERKNS_11ICollectionINS1_IT_EEEEEUlRKS3_E_E7OnValueESH_,comdat
	.size	_ZN8opendnp314FunctorVisitorINS_7IndexedINS_6BinaryEEEZN8asiodnp318PrintingSOEHandler8PrintAllIS2_EEvRKNS_10HeaderInfoERKNS_11ICollectionINS1_IT_EEEEEUlRKS3_E_E7OnValueESH_, .-_ZN8opendnp314FunctorVisitorINS_7IndexedINS_6BinaryEEEZN8asiodnp318PrintingSOEHandler8PrintAllIS2_EEvRKNS_10HeaderInfoERKNS_11ICollectionINS1_IT_EEEEEUlRKS3_E_E7OnValueESH_
	.section	.text._ZN8asiodnp318PrintingSOEHandler13ValueToStringIN8opendnp36AnalogEEENSt7__cxx1112basic_stringIcSt11char_traitsIcESaIcEEERKT_,"axG",@progbits,_ZN8asiodnp318PrintingSOEHandler13ValueToStringIN8opendnp36AnalogEEENSt7__cxx1112basic_stringIcSt11char_traitsIcESaIcEEERKT_,comdat
	.align	2
	.p2align 4,,11
	.weak	_ZN8asiodnp318PrintingSOEHandler13ValueToStringIN8opendnp36AnalogEEENSt7__cxx1112basic_stringIcSt11char_traitsIcESaIcEEERKT_
	.type	_ZN8asiodnp318PrintingSOEHandler13ValueToStringIN8opendnp36AnalogEEENSt7__cxx1112basic_stringIcSt11char_traitsIcESaIcEEERKT_, %function
_ZN8asiodnp318PrintingSOEHandler13ValueToStringIN8opendnp36AnalogEEENSt7__cxx1112basic_stringIcSt11char_traitsIcESaIcEEERKT_:
.LFB3400:
	.cfi_startproc
	.cfi_personality 0x9b,DW.ref.__gxx_personality_v0
	.cfi_lsda 0x1b,.LLSDA3400
	stp	x29, x30, [sp, -496]!
	.cfi_def_cfa_offset 496
	.cfi_offset 29, -496
	.cfi_offset 30, -488
	adrp	x1, :got:__stack_chk_guard
	mov	x29, sp
	ldr	x1, [x1, #:got_lo12:__stack_chk_guard]
	stp	x19, x20, [sp, 16]
	.cfi_offset 19, -480
	.cfi_offset 20, -472
	mov	x19, x8
	stp	x21, x22, [sp, 32]
	.cfi_offset 21, -464
	.cfi_offset 22, -456
	adrp	x21, :got:_ZTVSt9basic_iosIcSt11char_traitsIcEE
	stp	x23, x24, [sp, 48]
	.cfi_offset 23, -448
	.cfi_offset 24, -440
	add	x23, sp, 112
	stp	x25, x26, [sp, 64]
	.cfi_offset 25, -432
	.cfi_offset 26, -424
	add	x25, sp, 224
	stp	x27, x28, [sp, 80]
	.cfi_offset 27, -416
	.cfi_offset 28, -408
	str	x0, [sp, 104]
	mov	x0, x25
	ldr	x2, [x1]
	str	x2, [sp, 488]
	mov	x2, 0
	bl	_ZNSt8ios_baseC2Ev
	strh	wzr, [sp, 448]
	adrp	x0, :got:_ZTTNSt7__cxx1119basic_ostringstreamIcSt11char_traitsIcESaIcEEE
	add	x1, sp, 528
	movi	v0.4s, 0
	add	x3, sp, 528
	ldr	x0, [x0, #:got_lo12:_ZTTNSt7__cxx1119basic_ostringstreamIcSt11char_traitsIcESaIcEEE]
	ldr	x2, [x21, #:got_lo12:_ZTVSt9basic_iosIcSt11char_traitsIcEE]
	str	q0, [x1, -72]
	mov	x1, 0
	ldp	x24, x26, [x0, 8]
	str	q0, [x3, -56]
	add	x2, x2, 16
	ldr	x3, [x24, -24]
	str	x24, [sp, 112]
	str	x2, [sp, 224]
	str	xzr, [sp, 440]
	add	x0, x23, x3
	str	x26, [x23, x3]
.LEHB13:
	bl	_ZNSt9basic_iosIcSt11char_traitsIcEE4initEPSt15basic_streambufIcS1_E
.LEHE13:
	adrp	x1, :got:_ZTVSt15basic_streambufIcSt11char_traitsIcEE
	adrp	x20, :got:_ZTVNSt7__cxx1119basic_ostringstreamIcSt11char_traitsIcESaIcEEE
	movi	v0.4s, 0
	add	x27, sp, 176
	ldr	x2, [x1, #:got_lo12:_ZTVSt15basic_streambufIcSt11char_traitsIcEE]
	adrp	x22, :got:_ZTVNSt7__cxx1115basic_stringbufIcSt11char_traitsIcESaIcEEE
	ldr	x0, [x20, #:got_lo12:_ZTVNSt7__cxx1119basic_ostringstreamIcSt11char_traitsIcESaIcEEE]
	add	x2, x2, 16
	stp	q0, q0, [sp, 128]
	add	x28, sp, 208
	add	x3, x0, 24
	add	x1, x0, 64
	stp	x3, x2, [sp, 112]
	add	x2, sp, 120
	mov	x0, x27
	str	x2, [sp, 96]
	str	q0, [sp, 160]
	str	x1, [sp, 224]
	bl	_ZNSt6localeC1Ev
	ldr	x2, [x22, #:got_lo12:_ZTVNSt7__cxx1115basic_stringbufIcSt11char_traitsIcESaIcEEE]
	mov	w3, 16
	ldr	x1, [sp, 96]
	add	x2, x2, 16
	mov	x0, x25
	str	x2, [sp, 120]
	str	w3, [sp, 184]
	stp	x28, xzr, [sp, 192]
	strb	wzr, [sp, 208]
.LEHB14:
	bl	_ZNSt9basic_iosIcSt11char_traitsIcEE4initEPSt15basic_streambufIcS1_E
.LEHE14:
	ldr	x0, [sp, 104]
	ldr	d0, [x0, 16]
	mov	x0, x23
.LEHB15:
	bl	_ZNSo9_M_insertIdEERSoT_
.LEHE15:
	ldr	x5, [sp, 160]
	add	x0, x19, 16
	stp	x0, xzr, [x19]
	strb	wzr, [x19, 16]
	str	x0, [sp, 96]
	cbz	x5, .L179
	ldp	x4, x3, [sp, 144]
	mov	x0, x19
	mov	x2, 0
	mov	x1, 0
	cmp	x4, 0
	ccmp	x5, x4, 2, ne
	csel	x4, x5, x4, hi
	sub	x4, x4, x3
.LEHB16:
	bl	_ZNSt7__cxx1112basic_stringIcSt11char_traitsIcESaIcEE10_M_replaceEmmPKcm
.L183:
	ldr	x20, [x20, #:got_lo12:_ZTVNSt7__cxx1119basic_ostringstreamIcSt11char_traitsIcESaIcEEE]
	ldr	x22, [x22, #:got_lo12:_ZTVNSt7__cxx1115basic_stringbufIcSt11char_traitsIcESaIcEEE]
	add	x1, x20, 24
	ldr	x0, [sp, 192]
	add	x22, x22, 16
	add	x20, x20, 64
	stp	x1, x22, [sp, 112]
	str	x20, [sp, 224]
	cmp	x0, x28
	beq	.L182
	ldr	x1, [sp, 208]
	add	x1, x1, 1
	bl	_ZdlPvm
.L182:
	adrp	x0, :got:_ZTVSt15basic_streambufIcSt11char_traitsIcEE
	ldr	x1, [x0, #:got_lo12:_ZTVSt15basic_streambufIcSt11char_traitsIcEE]
	mov	x0, x27
	add	x1, x1, 16
	str	x1, [sp, 120]
	bl	_ZNSt6localeD1Ev
	ldr	x1, [x24, -24]
	str	x24, [sp, 112]
	ldr	x21, [x21, #:got_lo12:_ZTVSt9basic_iosIcSt11char_traitsIcEE]
	mov	x0, x25
	str	x26, [x23, x1]
	add	x21, x21, 16
	str	x21, [sp, 224]
	bl	_ZNSt8ios_baseD2Ev
	adrp	x0, :got:__stack_chk_guard
	ldr	x0, [x0, #:got_lo12:__stack_chk_guard]
	ldr	x2, [sp, 488]
	ldr	x1, [x0]
	subs	x2, x2, x1
	mov	x1, 0
	bne	.L197
	mov	x0, x19
	ldp	x19, x20, [sp, 16]
	ldp	x21, x22, [sp, 32]
	ldp	x23, x24, [sp, 48]
	ldp	x25, x26, [sp, 64]
	ldp	x27, x28, [sp, 80]
	ldp	x29, x30, [sp], 496
	.cfi_remember_state
	.cfi_restore 30
	.cfi_restore 29
	.cfi_restore 27
	.cfi_restore 28
	.cfi_restore 25
	.cfi_restore 26
	.cfi_restore 23
	.cfi_restore 24
	.cfi_restore 21
	.cfi_restore 22
	.cfi_restore 19
	.cfi_restore 20
	.cfi_def_cfa_offset 0
	ret
	.p2align 2,,3
.L179:
	.cfi_restore_state
	add	x1, sp, 192
	mov	x0, x19
	bl	_ZNSt7__cxx1112basic_stringIcSt11char_traitsIcESaIcEE9_M_assignERKS4_
.LEHE16:
	b	.L183
.L197:
	bl	__stack_chk_fail
.L188:
	mov	x20, x0
.L186:
	mov	x0, x23
	bl	_ZNSt7__cxx1119basic_ostringstreamIcSt11char_traitsIcESaIcEED1Ev
	mov	x0, x20
.LEHB17:
	bl	_Unwind_Resume
.L191:
	mov	x20, x0
	ldr	x2, [x19]
	ldr	x0, [sp, 96]
	cmp	x0, x2
	beq	.L186
	ldr	x1, [x19, 16]
	mov	x0, x2
	add	x1, x1, 1
	bl	_ZdlPvm
	b	.L186
.L190:
	mov	x19, x0
	ldr	x0, [sp, 96]
	bl	_ZNSt7__cxx1115basic_stringbufIcSt11char_traitsIcESaIcEED1Ev
	ldr	x0, [x24, -24]
	str	x24, [sp, 112]
	str	x26, [x23, x0]
.L178:
	ldr	x1, [x21, #:got_lo12:_ZTVSt9basic_iosIcSt11char_traitsIcEE]
	mov	x0, x25
	add	x1, x1, 16
	str	x1, [sp, 224]
	bl	_ZNSt8ios_baseD2Ev
	mov	x0, x19
	bl	_Unwind_Resume
.LEHE17:
.L189:
	mov	x19, x0
	b	.L178
	.cfi_endproc
.LFE3400:
	.section	.gcc_except_table._ZN8asiodnp318PrintingSOEHandler13ValueToStringIN8opendnp36AnalogEEENSt7__cxx1112basic_stringIcSt11char_traitsIcESaIcEEERKT_,"aG",@progbits,_ZN8asiodnp318PrintingSOEHandler13ValueToStringIN8opendnp36AnalogEEENSt7__cxx1112basic_stringIcSt11char_traitsIcESaIcEEERKT_,comdat
.LLSDA3400:
	.byte	0xff
	.byte	0xff
	.byte	0x1
	.uleb128 .LLSDACSE3400-.LLSDACSB3400
.LLSDACSB3400:
	.uleb128 .LEHB13-.LFB3400
	.uleb128 .LEHE13-.LEHB13
	.uleb128 .L189-.LFB3400
	.uleb128 0
	.uleb128 .LEHB14-.LFB3400
	.uleb128 .LEHE14-.LEHB14
	.uleb128 .L190-.LFB3400
	.uleb128 0
	.uleb128 .LEHB15-.LFB3400
	.uleb128 .LEHE15-.LEHB15
	.uleb128 .L188-.LFB3400
	.uleb128 0
	.uleb128 .LEHB16-.LFB3400
	.uleb128 .LEHE16-.LEHB16
	.uleb128 .L191-.LFB3400
	.uleb128 0
	.uleb128 .LEHB17-.LFB3400
	.uleb128 .LEHE17-.LEHB17
	.uleb128 0
	.uleb128 0
.LLSDACSE3400:
	.section	.text._ZN8asiodnp318PrintingSOEHandler13ValueToStringIN8opendnp36AnalogEEENSt7__cxx1112basic_stringIcSt11char_traitsIcESaIcEEERKT_,"axG",@progbits,_ZN8asiodnp318PrintingSOEHandler13ValueToStringIN8opendnp36AnalogEEENSt7__cxx1112basic_stringIcSt11char_traitsIcESaIcEEERKT_,comdat
	.size	_ZN8asiodnp318PrintingSOEHandler13ValueToStringIN8opendnp36AnalogEEENSt7__cxx1112basic_stringIcSt11char_traitsIcESaIcEEERKT_, .-_ZN8asiodnp318PrintingSOEHandler13ValueToStringIN8opendnp36AnalogEEENSt7__cxx1112basic_stringIcSt11char_traitsIcESaIcEEERKT_
	.section	.text._ZN8opendnp314FunctorVisitorINS_7IndexedINS_6AnalogEEEZN8asiodnp318PrintingSOEHandler8PrintAllIS2_EEvRKNS_10HeaderInfoERKNS_11ICollectionINS1_IT_EEEEEUlRKS3_E_E7OnValueESH_,"axG",@progbits,_ZN8opendnp314FunctorVisitorINS_7IndexedINS_6AnalogEEEZN8asiodnp318PrintingSOEHandler8PrintAllIS2_EEvRKNS_10HeaderInfoERKNS_11ICollectionINS1_IT_EEEEEUlRKS3_E_E7OnValueESH_,comdat
	.align	2
	.p2align 4,,11
	.weak	_ZN8opendnp314FunctorVisitorINS_7IndexedINS_6AnalogEEEZN8asiodnp318PrintingSOEHandler8PrintAllIS2_EEvRKNS_10HeaderInfoERKNS_11ICollectionINS1_IT_EEEEEUlRKS3_E_E7OnValueESH_
	.type	_ZN8opendnp314FunctorVisitorINS_7IndexedINS_6AnalogEEEZN8asiodnp318PrintingSOEHandler8PrintAllIS2_EEvRKNS_10HeaderInfoERKNS_11ICollectionINS1_IT_EEEEEUlRKS3_E_E7OnValueESH_, %function
_ZN8opendnp314FunctorVisitorINS_7IndexedINS_6AnalogEEEZN8asiodnp318PrintingSOEHandler8PrintAllIS2_EEvRKNS_10HeaderInfoERKNS_11ICollectionINS1_IT_EEEEEUlRKS3_E_E7OnValueESH_:
.LFB3662:
	.cfi_startproc
	.cfi_personality 0x9b,DW.ref.__gxx_personality_v0
	.cfi_lsda 0x1b,.LLSDA3662
	stp	x29, x30, [sp, -96]!
	.cfi_def_cfa_offset 96
	.cfi_offset 29, -96
	.cfi_offset 30, -88
	adrp	x0, :got:__stack_chk_guard
	mov	x2, 1
	mov	x29, sp
	stp	x19, x20, [sp, 16]
	.cfi_offset 19, -80
	.cfi_offset 20, -72
	adrp	x20, :got:_ZSt4cout
	mov	x19, x1
	ldr	x0, [x0, #:got_lo12:__stack_chk_guard]
	str	x21, [sp, 32]
	.cfi_offset 21, -64
	ldr	x20, [x20, #:got_lo12:_ZSt4cout]
	ldr	x1, [x0]
	str	x1, [sp, 88]
	mov	x1, 0
	ldrh	w21, [x19, 24]
	adrp	x1, .LC0
	mov	x0, x20
	add	x1, x1, :lo12:.LC0
.LEHB18:
	bl	_ZSt16__ostream_insertIcSt11char_traitsIcEERSt13basic_ostreamIT_T0_ES6_PKS3_l
	and	x1, x21, 65535
	mov	x0, x20
	bl	_ZNSo9_M_insertImEERSoT_
	mov	x20, x0
	adrp	x1, .LC1
	add	x1, x1, :lo12:.LC1
	mov	x2, 4
	bl	_ZSt16__ostream_insertIcSt11char_traitsIcEERSt13basic_ostreamIT_T0_ES6_PKS3_l
	mov	x0, x19
	add	x8, sp, 56
	bl	_ZN8asiodnp318PrintingSOEHandler13ValueToStringIN8opendnp36AnalogEEENSt7__cxx1112basic_stringIcSt11char_traitsIcESaIcEEERKT_
.LEHE18:
	ldp	x1, x2, [sp, 56]
	mov	x0, x20
.LEHB19:
	bl	_ZSt16__ostream_insertIcSt11char_traitsIcEERSt13basic_ostreamIT_T0_ES6_PKS3_l
	adrp	x21, .LC3
	mov	x20, x0
	add	x1, x21, :lo12:.LC3
	mov	x2, 3
	bl	_ZSt16__ostream_insertIcSt11char_traitsIcEERSt13basic_ostreamIT_T0_ES6_PKS3_l
	ldrb	w1, [x19]
	mov	x0, x20
	bl	_ZNSolsEi
	add	x1, x21, :lo12:.LC3
	mov	x20, x0
	mov	x2, 3
	bl	_ZSt16__ostream_insertIcSt11char_traitsIcEERSt13basic_ostreamIT_T0_ES6_PKS3_l
	ldr	x1, [x19, 8]
	mov	x0, x20
	bl	_ZNSo9_M_insertIlEERSoT_
	mov	x19, x0
	ldr	x0, [x0]
	ldr	x0, [x0, -24]
	add	x0, x19, x0
	ldr	x20, [x0, 240]
	cbz	x20, .L209
	ldrb	w0, [x20, 56]
	cbz	w0, .L200
	ldrb	w1, [x20, 67]
.L201:
	mov	x0, x19
	bl	_ZNSo3putEc
	bl	_ZNSo5flushEv
	ldr	x0, [sp, 56]
	add	x1, sp, 72
	cmp	x0, x1
	beq	.L198
	ldr	x1, [sp, 72]
	add	x1, x1, 1
	bl	_ZdlPvm
.L198:
	adrp	x0, :got:__stack_chk_guard
	ldr	x0, [x0, #:got_lo12:__stack_chk_guard]
	ldr	x2, [sp, 88]
	ldr	x1, [x0]
	subs	x2, x2, x1
	mov	x1, 0
	bne	.L210
	ldp	x19, x20, [sp, 16]
	ldr	x21, [sp, 32]
	ldp	x29, x30, [sp], 96
	.cfi_remember_state
	.cfi_restore 30
	.cfi_restore 29
	.cfi_restore 21
	.cfi_restore 19
	.cfi_restore 20
	.cfi_def_cfa_offset 0
	ret
	.p2align 2,,3
.L200:
	.cfi_restore_state
	mov	x0, x20
	bl	_ZNKSt5ctypeIcE13_M_widen_initEv
	ldr	x2, [x20]
	adrp	x0, :got:_ZNKSt5ctypeIcE8do_widenEc
	mov	w1, 10
	ldr	x0, [x0, #:got_lo12:_ZNKSt5ctypeIcE8do_widenEc]
	ldr	x2, [x2, 48]
	cmp	x2, x0
	beq	.L201
	mov	x0, x20
	blr	x2
	and	w1, w0, 255
	b	.L201
.L210:
	bl	__stack_chk_fail
.L209:
	bl	_ZSt16__throw_bad_castv
.LEHE19:
.L207:
	ldr	x2, [sp, 56]
	add	x1, sp, 72
	mov	x19, x0
	cmp	x2, x1
	beq	.L204
	ldr	x1, [sp, 72]
	mov	x0, x2
	add	x1, x1, 1
	bl	_ZdlPvm
.L204:
	mov	x0, x19
.LEHB20:
	bl	_Unwind_Resume
.LEHE20:
	.cfi_endproc
.LFE3662:
	.section	.gcc_except_table._ZN8opendnp314FunctorVisitorINS_7IndexedINS_6AnalogEEEZN8asiodnp318PrintingSOEHandler8PrintAllIS2_EEvRKNS_10HeaderInfoERKNS_11ICollectionINS1_IT_EEEEEUlRKS3_E_E7OnValueESH_,"aG",@progbits,_ZN8opendnp314FunctorVisitorINS_7IndexedINS_6AnalogEEEZN8asiodnp318PrintingSOEHandler8PrintAllIS2_EEvRKNS_10HeaderInfoERKNS_11ICollectionINS1_IT_EEEEEUlRKS3_E_E7OnValueESH_,comdat
.LLSDA3662:
	.byte	0xff
	.byte	0xff
	.byte	0x1
	.uleb128 .LLSDACSE3662-.LLSDACSB3662
.LLSDACSB3662:
	.uleb128 .LEHB18-.LFB3662
	.uleb128 .LEHE18-.LEHB18
	.uleb128 0
	.uleb128 0
	.uleb128 .LEHB19-.LFB3662
	.uleb128 .LEHE19-.LEHB19
	.uleb128 .L207-.LFB3662
	.uleb128 0
	.uleb128 .LEHB20-.LFB3662
	.uleb128 .LEHE20-.LEHB20
	.uleb128 0
	.uleb128 0
.LLSDACSE3662:
	.section	.text._ZN8opendnp314FunctorVisitorINS_7IndexedINS_6AnalogEEEZN8asiodnp318PrintingSOEHandler8PrintAllIS2_EEvRKNS_10HeaderInfoERKNS_11ICollectionINS1_IT_EEEEEUlRKS3_E_E7OnValueESH_,"axG",@progbits,_ZN8opendnp314FunctorVisitorINS_7IndexedINS_6AnalogEEEZN8asiodnp318PrintingSOEHandler8PrintAllIS2_EEvRKNS_10HeaderInfoERKNS_11ICollectionINS1_IT_EEEEEUlRKS3_E_E7OnValueESH_,comdat
	.size	_ZN8opendnp314FunctorVisitorINS_7IndexedINS_6AnalogEEEZN8asiodnp318PrintingSOEHandler8PrintAllIS2_EEvRKNS_10HeaderInfoERKNS_11ICollectionINS1_IT_EEEEEUlRKS3_E_E7OnValueESH_, .-_ZN8opendnp314FunctorVisitorINS_7IndexedINS_6AnalogEEEZN8asiodnp318PrintingSOEHandler8PrintAllIS2_EEvRKNS_10HeaderInfoERKNS_11ICollectionINS1_IT_EEEEEUlRKS3_E_E7OnValueESH_
	.section	.text._ZN8asiodnp318PrintingSOEHandler13ValueToStringIN8opendnp37CounterEEENSt7__cxx1112basic_stringIcSt11char_traitsIcESaIcEEERKT_,"axG",@progbits,_ZN8asiodnp318PrintingSOEHandler13ValueToStringIN8opendnp37CounterEEENSt7__cxx1112basic_stringIcSt11char_traitsIcESaIcEEERKT_,comdat
	.align	2
	.p2align 4,,11
	.weak	_ZN8asiodnp318PrintingSOEHandler13ValueToStringIN8opendnp37CounterEEENSt7__cxx1112basic_stringIcSt11char_traitsIcESaIcEEERKT_
	.type	_ZN8asiodnp318PrintingSOEHandler13ValueToStringIN8opendnp37CounterEEENSt7__cxx1112basic_stringIcSt11char_traitsIcESaIcEEERKT_, %function
_ZN8asiodnp318PrintingSOEHandler13ValueToStringIN8opendnp37CounterEEENSt7__cxx1112basic_stringIcSt11char_traitsIcESaIcEEERKT_:
.LFB3407:
	.cfi_startproc
	.cfi_personality 0x9b,DW.ref.__gxx_personality_v0
	.cfi_lsda 0x1b,.LLSDA3407
	stp	x29, x30, [sp, -496]!
	.cfi_def_cfa_offset 496
	.cfi_offset 29, -496
	.cfi_offset 30, -488
	adrp	x1, :got:__stack_chk_guard
	mov	x29, sp
	ldr	x1, [x1, #:got_lo12:__stack_chk_guard]
	stp	x19, x20, [sp, 16]
	.cfi_offset 19, -480
	.cfi_offset 20, -472
	mov	x19, x8
	stp	x21, x22, [sp, 32]
	.cfi_offset 21, -464
	.cfi_offset 22, -456
	adrp	x21, :got:_ZTVSt9basic_iosIcSt11char_traitsIcEE
	stp	x23, x24, [sp, 48]
	.cfi_offset 23, -448
	.cfi_offset 24, -440
	add	x23, sp, 112
	stp	x25, x26, [sp, 64]
	.cfi_offset 25, -432
	.cfi_offset 26, -424
	add	x25, sp, 224
	stp	x27, x28, [sp, 80]
	.cfi_offset 27, -416
	.cfi_offset 28, -408
	str	x0, [sp, 104]
	mov	x0, x25
	ldr	x2, [x1]
	str	x2, [sp, 488]
	mov	x2, 0
	bl	_ZNSt8ios_baseC2Ev
	strh	wzr, [sp, 448]
	adrp	x0, :got:_ZTTNSt7__cxx1119basic_ostringstreamIcSt11char_traitsIcESaIcEEE
	add	x1, sp, 528
	movi	v0.4s, 0
	add	x3, sp, 528
	ldr	x0, [x0, #:got_lo12:_ZTTNSt7__cxx1119basic_ostringstreamIcSt11char_traitsIcESaIcEEE]
	ldr	x2, [x21, #:got_lo12:_ZTVSt9basic_iosIcSt11char_traitsIcEE]
	str	q0, [x1, -72]
	mov	x1, 0
	ldp	x24, x26, [x0, 8]
	str	q0, [x3, -56]
	add	x2, x2, 16
	ldr	x3, [x24, -24]
	str	x24, [sp, 112]
	str	x2, [sp, 224]
	str	xzr, [sp, 440]
	add	x0, x23, x3
	str	x26, [x23, x3]
.LEHB21:
	bl	_ZNSt9basic_iosIcSt11char_traitsIcEE4initEPSt15basic_streambufIcS1_E
.LEHE21:
	adrp	x1, :got:_ZTVSt15basic_streambufIcSt11char_traitsIcEE
	adrp	x20, :got:_ZTVNSt7__cxx1119basic_ostringstreamIcSt11char_traitsIcESaIcEEE
	movi	v0.4s, 0
	add	x27, sp, 176
	ldr	x2, [x1, #:got_lo12:_ZTVSt15basic_streambufIcSt11char_traitsIcEE]
	adrp	x22, :got:_ZTVNSt7__cxx1115basic_stringbufIcSt11char_traitsIcESaIcEEE
	ldr	x0, [x20, #:got_lo12:_ZTVNSt7__cxx1119basic_ostringstreamIcSt11char_traitsIcESaIcEEE]
	add	x2, x2, 16
	stp	q0, q0, [sp, 128]
	add	x28, sp, 208
	add	x3, x0, 24
	add	x1, x0, 64
	stp	x3, x2, [sp, 112]
	add	x2, sp, 120
	mov	x0, x27
	str	x2, [sp, 96]
	str	q0, [sp, 160]
	str	x1, [sp, 224]
	bl	_ZNSt6localeC1Ev
	ldr	x2, [x22, #:got_lo12:_ZTVNSt7__cxx1115basic_stringbufIcSt11char_traitsIcESaIcEEE]
	mov	w3, 16
	ldr	x1, [sp, 96]
	add	x2, x2, 16
	mov	x0, x25
	str	x2, [sp, 120]
	str	w3, [sp, 184]
	stp	x28, xzr, [sp, 192]
	strb	wzr, [sp, 208]
.LEHB22:
	bl	_ZNSt9basic_iosIcSt11char_traitsIcEE4initEPSt15basic_streambufIcS1_E
.LEHE22:
	ldr	x0, [sp, 104]
	ldr	w1, [x0, 16]
	mov	x0, x23
.LEHB23:
	bl	_ZNSo9_M_insertImEERSoT_
.LEHE23:
	ldr	x5, [sp, 160]
	add	x0, x19, 16
	stp	x0, xzr, [x19]
	strb	wzr, [x19, 16]
	str	x0, [sp, 96]
	cbz	x5, .L215
	ldp	x4, x3, [sp, 144]
	mov	x0, x19
	mov	x2, 0
	mov	x1, 0
	cmp	x4, 0
	ccmp	x5, x4, 2, ne
	csel	x4, x5, x4, hi
	sub	x4, x4, x3
.LEHB24:
	bl	_ZNSt7__cxx1112basic_stringIcSt11char_traitsIcESaIcEE10_M_replaceEmmPKcm
.L219:
	ldr	x20, [x20, #:got_lo12:_ZTVNSt7__cxx1119basic_ostringstreamIcSt11char_traitsIcESaIcEEE]
	ldr	x22, [x22, #:got_lo12:_ZTVNSt7__cxx1115basic_stringbufIcSt11char_traitsIcESaIcEEE]
	add	x1, x20, 24
	ldr	x0, [sp, 192]
	add	x22, x22, 16
	add	x20, x20, 64
	stp	x1, x22, [sp, 112]
	str	x20, [sp, 224]
	cmp	x0, x28
	beq	.L218
	ldr	x1, [sp, 208]
	add	x1, x1, 1
	bl	_ZdlPvm
.L218:
	adrp	x0, :got:_ZTVSt15basic_streambufIcSt11char_traitsIcEE
	ldr	x1, [x0, #:got_lo12:_ZTVSt15basic_streambufIcSt11char_traitsIcEE]
	mov	x0, x27
	add	x1, x1, 16
	str	x1, [sp, 120]
	bl	_ZNSt6localeD1Ev
	ldr	x1, [x24, -24]
	str	x24, [sp, 112]
	ldr	x21, [x21, #:got_lo12:_ZTVSt9basic_iosIcSt11char_traitsIcEE]
	mov	x0, x25
	str	x26, [x23, x1]
	add	x21, x21, 16
	str	x21, [sp, 224]
	bl	_ZNSt8ios_baseD2Ev
	adrp	x0, :got:__stack_chk_guard
	ldr	x0, [x0, #:got_lo12:__stack_chk_guard]
	ldr	x2, [sp, 488]
	ldr	x1, [x0]
	subs	x2, x2, x1
	mov	x1, 0
	bne	.L233
	mov	x0, x19
	ldp	x19, x20, [sp, 16]
	ldp	x21, x22, [sp, 32]
	ldp	x23, x24, [sp, 48]
	ldp	x25, x26, [sp, 64]
	ldp	x27, x28, [sp, 80]
	ldp	x29, x30, [sp], 496
	.cfi_remember_state
	.cfi_restore 30
	.cfi_restore 29
	.cfi_restore 27
	.cfi_restore 28
	.cfi_restore 25
	.cfi_restore 26
	.cfi_restore 23
	.cfi_restore 24
	.cfi_restore 21
	.cfi_restore 22
	.cfi_restore 19
	.cfi_restore 20
	.cfi_def_cfa_offset 0
	ret
	.p2align 2,,3
.L215:
	.cfi_restore_state
	add	x1, sp, 192
	mov	x0, x19
	bl	_ZNSt7__cxx1112basic_stringIcSt11char_traitsIcESaIcEE9_M_assignERKS4_
.LEHE24:
	b	.L219
.L233:
	bl	__stack_chk_fail
.L224:
	mov	x20, x0
.L222:
	mov	x0, x23
	bl	_ZNSt7__cxx1119basic_ostringstreamIcSt11char_traitsIcESaIcEED1Ev
	mov	x0, x20
.LEHB25:
	bl	_Unwind_Resume
.L227:
	mov	x20, x0
	ldr	x2, [x19]
	ldr	x0, [sp, 96]
	cmp	x0, x2
	beq	.L222
	ldr	x1, [x19, 16]
	mov	x0, x2
	add	x1, x1, 1
	bl	_ZdlPvm
	b	.L222
.L226:
	mov	x19, x0
	ldr	x0, [sp, 96]
	bl	_ZNSt7__cxx1115basic_stringbufIcSt11char_traitsIcESaIcEED1Ev
	ldr	x0, [x24, -24]
	str	x24, [sp, 112]
	str	x26, [x23, x0]
.L214:
	ldr	x1, [x21, #:got_lo12:_ZTVSt9basic_iosIcSt11char_traitsIcEE]
	mov	x0, x25
	add	x1, x1, 16
	str	x1, [sp, 224]
	bl	_ZNSt8ios_baseD2Ev
	mov	x0, x19
	bl	_Unwind_Resume
.LEHE25:
.L225:
	mov	x19, x0
	b	.L214
	.cfi_endproc
.LFE3407:
	.section	.gcc_except_table._ZN8asiodnp318PrintingSOEHandler13ValueToStringIN8opendnp37CounterEEENSt7__cxx1112basic_stringIcSt11char_traitsIcESaIcEEERKT_,"aG",@progbits,_ZN8asiodnp318PrintingSOEHandler13ValueToStringIN8opendnp37CounterEEENSt7__cxx1112basic_stringIcSt11char_traitsIcESaIcEEERKT_,comdat
.LLSDA3407:
	.byte	0xff
	.byte	0xff
	.byte	0x1
	.uleb128 .LLSDACSE3407-.LLSDACSB3407
.LLSDACSB3407:
	.uleb128 .LEHB21-.LFB3407
	.uleb128 .LEHE21-.LEHB21
	.uleb128 .L225-.LFB3407
	.uleb128 0
	.uleb128 .LEHB22-.LFB3407
	.uleb128 .LEHE22-.LEHB22
	.uleb128 .L226-.LFB3407
	.uleb128 0
	.uleb128 .LEHB23-.LFB3407
	.uleb128 .LEHE23-.LEHB23
	.uleb128 .L224-.LFB3407
	.uleb128 0
	.uleb128 .LEHB24-.LFB3407
	.uleb128 .LEHE24-.LEHB24
	.uleb128 .L227-.LFB3407
	.uleb128 0
	.uleb128 .LEHB25-.LFB3407
	.uleb128 .LEHE25-.LEHB25
	.uleb128 0
	.uleb128 0
.LLSDACSE3407:
	.section	.text._ZN8asiodnp318PrintingSOEHandler13ValueToStringIN8opendnp37CounterEEENSt7__cxx1112basic_stringIcSt11char_traitsIcESaIcEEERKT_,"axG",@progbits,_ZN8asiodnp318PrintingSOEHandler13ValueToStringIN8opendnp37CounterEEENSt7__cxx1112basic_stringIcSt11char_traitsIcESaIcEEERKT_,comdat
	.size	_ZN8asiodnp318PrintingSOEHandler13ValueToStringIN8opendnp37CounterEEENSt7__cxx1112basic_stringIcSt11char_traitsIcESaIcEEERKT_, .-_ZN8asiodnp318PrintingSOEHandler13ValueToStringIN8opendnp37CounterEEENSt7__cxx1112basic_stringIcSt11char_traitsIcESaIcEEERKT_
	.section	.text._ZN8opendnp314FunctorVisitorINS_7IndexedINS_7CounterEEEZN8asiodnp318PrintingSOEHandler8PrintAllIS2_EEvRKNS_10HeaderInfoERKNS_11ICollectionINS1_IT_EEEEEUlRKS3_E_E7OnValueESH_,"axG",@progbits,_ZN8opendnp314FunctorVisitorINS_7IndexedINS_7CounterEEEZN8asiodnp318PrintingSOEHandler8PrintAllIS2_EEvRKNS_10HeaderInfoERKNS_11ICollectionINS1_IT_EEEEEUlRKS3_E_E7OnValueESH_,comdat
	.align	2
	.p2align 4,,11
	.weak	_ZN8opendnp314FunctorVisitorINS_7IndexedINS_7CounterEEEZN8asiodnp318PrintingSOEHandler8PrintAllIS2_EEvRKNS_10HeaderInfoERKNS_11ICollectionINS1_IT_EEEEEUlRKS3_E_E7OnValueESH_
	.type	_ZN8opendnp314FunctorVisitorINS_7IndexedINS_7CounterEEEZN8asiodnp318PrintingSOEHandler8PrintAllIS2_EEvRKNS_10HeaderInfoERKNS_11ICollectionINS1_IT_EEEEEUlRKS3_E_E7OnValueESH_, %function
_ZN8opendnp314FunctorVisitorINS_7IndexedINS_7CounterEEEZN8asiodnp318PrintingSOEHandler8PrintAllIS2_EEvRKNS_10HeaderInfoERKNS_11ICollectionINS1_IT_EEEEEUlRKS3_E_E7OnValueESH_:
.LFB3661:
	.cfi_startproc
	.cfi_personality 0x9b,DW.ref.__gxx_personality_v0
	.cfi_lsda 0x1b,.LLSDA3661
	stp	x29, x30, [sp, -96]!
	.cfi_def_cfa_offset 96
	.cfi_offset 29, -96
	.cfi_offset 30, -88
	adrp	x0, :got:__stack_chk_guard
	mov	x2, 1
	mov	x29, sp
	stp	x19, x20, [sp, 16]
	.cfi_offset 19, -80
	.cfi_offset 20, -72
	adrp	x20, :got:_ZSt4cout
	mov	x19, x1
	ldr	x0, [x0, #:got_lo12:__stack_chk_guard]
	str	x21, [sp, 32]
	.cfi_offset 21, -64
	ldr	x20, [x20, #:got_lo12:_ZSt4cout]
	ldr	x1, [x0]
	str	x1, [sp, 88]
	mov	x1, 0
	ldrh	w21, [x19, 24]
	adrp	x1, .LC0
	mov	x0, x20
	add	x1, x1, :lo12:.LC0
.LEHB26:
	bl	_ZSt16__ostream_insertIcSt11char_traitsIcEERSt13basic_ostreamIT_T0_ES6_PKS3_l
	and	x1, x21, 65535
	mov	x0, x20
	bl	_ZNSo9_M_insertImEERSoT_
	mov	x20, x0
	adrp	x1, .LC1
	add	x1, x1, :lo12:.LC1
	mov	x2, 4
	bl	_ZSt16__ostream_insertIcSt11char_traitsIcEERSt13basic_ostreamIT_T0_ES6_PKS3_l
	mov	x0, x19
	add	x8, sp, 56
	bl	_ZN8asiodnp318PrintingSOEHandler13ValueToStringIN8opendnp37CounterEEENSt7__cxx1112basic_stringIcSt11char_traitsIcESaIcEEERKT_
.LEHE26:
	ldp	x1, x2, [sp, 56]
	mov	x0, x20
.LEHB27:
	bl	_ZSt16__ostream_insertIcSt11char_traitsIcEERSt13basic_ostreamIT_T0_ES6_PKS3_l
	adrp	x21, .LC3
	mov	x20, x0
	add	x1, x21, :lo12:.LC3
	mov	x2, 3
	bl	_ZSt16__ostream_insertIcSt11char_traitsIcEERSt13basic_ostreamIT_T0_ES6_PKS3_l
	ldrb	w1, [x19]
	mov	x0, x20
	bl	_ZNSolsEi
	add	x1, x21, :lo12:.LC3
	mov	x20, x0
	mov	x2, 3
	bl	_ZSt16__ostream_insertIcSt11char_traitsIcEERSt13basic_ostreamIT_T0_ES6_PKS3_l
	ldr	x1, [x19, 8]
	mov	x0, x20
	bl	_ZNSo9_M_insertIlEERSoT_
	mov	x19, x0
	ldr	x0, [x0]
	ldr	x0, [x0, -24]
	add	x0, x19, x0
	ldr	x20, [x0, 240]
	cbz	x20, .L245
	ldrb	w0, [x20, 56]
	cbz	w0, .L236
	ldrb	w1, [x20, 67]
.L237:
	mov	x0, x19
	bl	_ZNSo3putEc
	bl	_ZNSo5flushEv
	ldr	x0, [sp, 56]
	add	x1, sp, 72
	cmp	x0, x1
	beq	.L234
	ldr	x1, [sp, 72]
	add	x1, x1, 1
	bl	_ZdlPvm
.L234:
	adrp	x0, :got:__stack_chk_guard
	ldr	x0, [x0, #:got_lo12:__stack_chk_guard]
	ldr	x2, [sp, 88]
	ldr	x1, [x0]
	subs	x2, x2, x1
	mov	x1, 0
	bne	.L246
	ldp	x19, x20, [sp, 16]
	ldr	x21, [sp, 32]
	ldp	x29, x30, [sp], 96
	.cfi_remember_state
	.cfi_restore 30
	.cfi_restore 29
	.cfi_restore 21
	.cfi_restore 19
	.cfi_restore 20
	.cfi_def_cfa_offset 0
	ret
	.p2align 2,,3
.L236:
	.cfi_restore_state
	mov	x0, x20
	bl	_ZNKSt5ctypeIcE13_M_widen_initEv
	ldr	x2, [x20]
	adrp	x0, :got:_ZNKSt5ctypeIcE8do_widenEc
	mov	w1, 10
	ldr	x0, [x0, #:got_lo12:_ZNKSt5ctypeIcE8do_widenEc]
	ldr	x2, [x2, 48]
	cmp	x2, x0
	beq	.L237
	mov	x0, x20
	blr	x2
	and	w1, w0, 255
	b	.L237
.L246:
	bl	__stack_chk_fail
.L245:
	bl	_ZSt16__throw_bad_castv
.LEHE27:
.L243:
	ldr	x2, [sp, 56]
	add	x1, sp, 72
	mov	x19, x0
	cmp	x2, x1
	beq	.L240
	ldr	x1, [sp, 72]
	mov	x0, x2
	add	x1, x1, 1
	bl	_ZdlPvm
.L240:
	mov	x0, x19
.LEHB28:
	bl	_Unwind_Resume
.LEHE28:
	.cfi_endproc
.LFE3661:
	.section	.gcc_except_table._ZN8opendnp314FunctorVisitorINS_7IndexedINS_7CounterEEEZN8asiodnp318PrintingSOEHandler8PrintAllIS2_EEvRKNS_10HeaderInfoERKNS_11ICollectionINS1_IT_EEEEEUlRKS3_E_E7OnValueESH_,"aG",@progbits,_ZN8opendnp314FunctorVisitorINS_7IndexedINS_7CounterEEEZN8asiodnp318PrintingSOEHandler8PrintAllIS2_EEvRKNS_10HeaderInfoERKNS_11ICollectionINS1_IT_EEEEEUlRKS3_E_E7OnValueESH_,comdat
.LLSDA3661:
	.byte	0xff
	.byte	0xff
	.byte	0x1
	.uleb128 .LLSDACSE3661-.LLSDACSB3661
.LLSDACSB3661:
	.uleb128 .LEHB26-.LFB3661
	.uleb128 .LEHE26-.LEHB26
	.uleb128 0
	.uleb128 0
	.uleb128 .LEHB27-.LFB3661
	.uleb128 .LEHE27-.LEHB27
	.uleb128 .L243-.LFB3661
	.uleb128 0
	.uleb128 .LEHB28-.LFB3661
	.uleb128 .LEHE28-.LEHB28
	.uleb128 0
	.uleb128 0
.LLSDACSE3661:
	.section	.text._ZN8opendnp314FunctorVisitorINS_7IndexedINS_7CounterEEEZN8asiodnp318PrintingSOEHandler8PrintAllIS2_EEvRKNS_10HeaderInfoERKNS_11ICollectionINS1_IT_EEEEEUlRKS3_E_E7OnValueESH_,"axG",@progbits,_ZN8opendnp314FunctorVisitorINS_7IndexedINS_7CounterEEEZN8asiodnp318PrintingSOEHandler8PrintAllIS2_EEvRKNS_10HeaderInfoERKNS_11ICollectionINS1_IT_EEEEEUlRKS3_E_E7OnValueESH_,comdat
	.size	_ZN8opendnp314FunctorVisitorINS_7IndexedINS_7CounterEEEZN8asiodnp318PrintingSOEHandler8PrintAllIS2_EEvRKNS_10HeaderInfoERKNS_11ICollectionINS1_IT_EEEEEUlRKS3_E_E7OnValueESH_, .-_ZN8opendnp314FunctorVisitorINS_7IndexedINS_7CounterEEEZN8asiodnp318PrintingSOEHandler8PrintAllIS2_EEvRKNS_10HeaderInfoERKNS_11ICollectionINS1_IT_EEEEEUlRKS3_E_E7OnValueESH_
	.section	.text._ZN8asiodnp318PrintingSOEHandler13ValueToStringIN8opendnp313FrozenCounterEEENSt7__cxx1112basic_stringIcSt11char_traitsIcESaIcEEERKT_,"axG",@progbits,_ZN8asiodnp318PrintingSOEHandler13ValueToStringIN8opendnp313FrozenCounterEEENSt7__cxx1112basic_stringIcSt11char_traitsIcESaIcEEERKT_,comdat
	.align	2
	.p2align 4,,11
	.weak	_ZN8asiodnp318PrintingSOEHandler13ValueToStringIN8opendnp313FrozenCounterEEENSt7__cxx1112basic_stringIcSt11char_traitsIcESaIcEEERKT_
	.type	_ZN8asiodnp318PrintingSOEHandler13ValueToStringIN8opendnp313FrozenCounterEEENSt7__cxx1112basic_stringIcSt11char_traitsIcESaIcEEERKT_, %function
_ZN8asiodnp318PrintingSOEHandler13ValueToStringIN8opendnp313FrozenCounterEEENSt7__cxx1112basic_stringIcSt11char_traitsIcESaIcEEERKT_:
.LFB3414:
	.cfi_startproc
	.cfi_personality 0x9b,DW.ref.__gxx_personality_v0
	.cfi_lsda 0x1b,.LLSDA3414
	stp	x29, x30, [sp, -496]!
	.cfi_def_cfa_offset 496
	.cfi_offset 29, -496
	.cfi_offset 30, -488
	adrp	x1, :got:__stack_chk_guard
	mov	x29, sp
	ldr	x1, [x1, #:got_lo12:__stack_chk_guard]
	stp	x19, x20, [sp, 16]
	.cfi_offset 19, -480
	.cfi_offset 20, -472
	mov	x19, x8
	stp	x21, x22, [sp, 32]
	.cfi_offset 21, -464
	.cfi_offset 22, -456
	adrp	x21, :got:_ZTVSt9basic_iosIcSt11char_traitsIcEE
	stp	x23, x24, [sp, 48]
	.cfi_offset 23, -448
	.cfi_offset 24, -440
	add	x23, sp, 112
	stp	x25, x26, [sp, 64]
	.cfi_offset 25, -432
	.cfi_offset 26, -424
	add	x25, sp, 224
	stp	x27, x28, [sp, 80]
	.cfi_offset 27, -416
	.cfi_offset 28, -408
	str	x0, [sp, 104]
	mov	x0, x25
	ldr	x2, [x1]
	str	x2, [sp, 488]
	mov	x2, 0
	bl	_ZNSt8ios_baseC2Ev
	strh	wzr, [sp, 448]
	adrp	x0, :got:_ZTTNSt7__cxx1119basic_ostringstreamIcSt11char_traitsIcESaIcEEE
	add	x1, sp, 528
	movi	v0.4s, 0
	add	x3, sp, 528
	ldr	x0, [x0, #:got_lo12:_ZTTNSt7__cxx1119basic_ostringstreamIcSt11char_traitsIcESaIcEEE]
	ldr	x2, [x21, #:got_lo12:_ZTVSt9basic_iosIcSt11char_traitsIcEE]
	str	q0, [x1, -72]
	mov	x1, 0
	ldp	x24, x26, [x0, 8]
	str	q0, [x3, -56]
	add	x2, x2, 16
	ldr	x3, [x24, -24]
	str	x24, [sp, 112]
	str	x2, [sp, 224]
	str	xzr, [sp, 440]
	add	x0, x23, x3
	str	x26, [x23, x3]
.LEHB29:
	bl	_ZNSt9basic_iosIcSt11char_traitsIcEE4initEPSt15basic_streambufIcS1_E
.LEHE29:
	adrp	x1, :got:_ZTVSt15basic_streambufIcSt11char_traitsIcEE
	adrp	x20, :got:_ZTVNSt7__cxx1119basic_ostringstreamIcSt11char_traitsIcESaIcEEE
	movi	v0.4s, 0
	add	x27, sp, 176
	ldr	x2, [x1, #:got_lo12:_ZTVSt15basic_streambufIcSt11char_traitsIcEE]
	adrp	x22, :got:_ZTVNSt7__cxx1115basic_stringbufIcSt11char_traitsIcESaIcEEE
	ldr	x0, [x20, #:got_lo12:_ZTVNSt7__cxx1119basic_ostringstreamIcSt11char_traitsIcESaIcEEE]
	add	x2, x2, 16
	stp	q0, q0, [sp, 128]
	add	x28, sp, 208
	add	x3, x0, 24
	add	x1, x0, 64
	stp	x3, x2, [sp, 112]
	add	x2, sp, 120
	mov	x0, x27
	str	x2, [sp, 96]
	str	q0, [sp, 160]
	str	x1, [sp, 224]
	bl	_ZNSt6localeC1Ev
	ldr	x2, [x22, #:got_lo12:_ZTVNSt7__cxx1115basic_stringbufIcSt11char_traitsIcESaIcEEE]
	mov	w3, 16
	ldr	x1, [sp, 96]
	add	x2, x2, 16
	mov	x0, x25
	str	x2, [sp, 120]
	str	w3, [sp, 184]
	stp	x28, xzr, [sp, 192]
	strb	wzr, [sp, 208]
.LEHB30:
	bl	_ZNSt9basic_iosIcSt11char_traitsIcEE4initEPSt15basic_streambufIcS1_E
.LEHE30:
	ldr	x0, [sp, 104]
	ldr	w1, [x0, 16]
	mov	x0, x23
.LEHB31:
	bl	_ZNSo9_M_insertImEERSoT_
.LEHE31:
	ldr	x5, [sp, 160]
	add	x0, x19, 16
	stp	x0, xzr, [x19]
	strb	wzr, [x19, 16]
	str	x0, [sp, 96]
	cbz	x5, .L251
	ldp	x4, x3, [sp, 144]
	mov	x0, x19
	mov	x2, 0
	mov	x1, 0
	cmp	x4, 0
	ccmp	x5, x4, 2, ne
	csel	x4, x5, x4, hi
	sub	x4, x4, x3
.LEHB32:
	bl	_ZNSt7__cxx1112basic_stringIcSt11char_traitsIcESaIcEE10_M_replaceEmmPKcm
.L255:
	ldr	x20, [x20, #:got_lo12:_ZTVNSt7__cxx1119basic_ostringstreamIcSt11char_traitsIcESaIcEEE]
	ldr	x22, [x22, #:got_lo12:_ZTVNSt7__cxx1115basic_stringbufIcSt11char_traitsIcESaIcEEE]
	add	x1, x20, 24
	ldr	x0, [sp, 192]
	add	x22, x22, 16
	add	x20, x20, 64
	stp	x1, x22, [sp, 112]
	str	x20, [sp, 224]
	cmp	x0, x28
	beq	.L254
	ldr	x1, [sp, 208]
	add	x1, x1, 1
	bl	_ZdlPvm
.L254:
	adrp	x0, :got:_ZTVSt15basic_streambufIcSt11char_traitsIcEE
	ldr	x1, [x0, #:got_lo12:_ZTVSt15basic_streambufIcSt11char_traitsIcEE]
	mov	x0, x27
	add	x1, x1, 16
	str	x1, [sp, 120]
	bl	_ZNSt6localeD1Ev
	ldr	x1, [x24, -24]
	str	x24, [sp, 112]
	ldr	x21, [x21, #:got_lo12:_ZTVSt9basic_iosIcSt11char_traitsIcEE]
	mov	x0, x25
	str	x26, [x23, x1]
	add	x21, x21, 16
	str	x21, [sp, 224]
	bl	_ZNSt8ios_baseD2Ev
	adrp	x0, :got:__stack_chk_guard
	ldr	x0, [x0, #:got_lo12:__stack_chk_guard]
	ldr	x2, [sp, 488]
	ldr	x1, [x0]
	subs	x2, x2, x1
	mov	x1, 0
	bne	.L269
	mov	x0, x19
	ldp	x19, x20, [sp, 16]
	ldp	x21, x22, [sp, 32]
	ldp	x23, x24, [sp, 48]
	ldp	x25, x26, [sp, 64]
	ldp	x27, x28, [sp, 80]
	ldp	x29, x30, [sp], 496
	.cfi_remember_state
	.cfi_restore 30
	.cfi_restore 29
	.cfi_restore 27
	.cfi_restore 28
	.cfi_restore 25
	.cfi_restore 26
	.cfi_restore 23
	.cfi_restore 24
	.cfi_restore 21
	.cfi_restore 22
	.cfi_restore 19
	.cfi_restore 20
	.cfi_def_cfa_offset 0
	ret
	.p2align 2,,3
.L251:
	.cfi_restore_state
	add	x1, sp, 192
	mov	x0, x19
	bl	_ZNSt7__cxx1112basic_stringIcSt11char_traitsIcESaIcEE9_M_assignERKS4_
.LEHE32:
	b	.L255
.L269:
	bl	__stack_chk_fail
.L260:
	mov	x20, x0
.L258:
	mov	x0, x23
	bl	_ZNSt7__cxx1119basic_ostringstreamIcSt11char_traitsIcESaIcEED1Ev
	mov	x0, x20
.LEHB33:
	bl	_Unwind_Resume
.L263:
	mov	x20, x0
	ldr	x2, [x19]
	ldr	x0, [sp, 96]
	cmp	x0, x2
	beq	.L258
	ldr	x1, [x19, 16]
	mov	x0, x2
	add	x1, x1, 1
	bl	_ZdlPvm
	b	.L258
.L262:
	mov	x19, x0
	ldr	x0, [sp, 96]
	bl	_ZNSt7__cxx1115basic_stringbufIcSt11char_traitsIcESaIcEED1Ev
	ldr	x0, [x24, -24]
	str	x24, [sp, 112]
	str	x26, [x23, x0]
.L250:
	ldr	x1, [x21, #:got_lo12:_ZTVSt9basic_iosIcSt11char_traitsIcEE]
	mov	x0, x25
	add	x1, x1, 16
	str	x1, [sp, 224]
	bl	_ZNSt8ios_baseD2Ev
	mov	x0, x19
	bl	_Unwind_Resume
.LEHE33:
.L261:
	mov	x19, x0
	b	.L250
	.cfi_endproc
.LFE3414:
	.section	.gcc_except_table._ZN8asiodnp318PrintingSOEHandler13ValueToStringIN8opendnp313FrozenCounterEEENSt7__cxx1112basic_stringIcSt11char_traitsIcESaIcEEERKT_,"aG",@progbits,_ZN8asiodnp318PrintingSOEHandler13ValueToStringIN8opendnp313FrozenCounterEEENSt7__cxx1112basic_stringIcSt11char_traitsIcESaIcEEERKT_,comdat
.LLSDA3414:
	.byte	0xff
	.byte	0xff
	.byte	0x1
	.uleb128 .LLSDACSE3414-.LLSDACSB3414
.LLSDACSB3414:
	.uleb128 .LEHB29-.LFB3414
	.uleb128 .LEHE29-.LEHB29
	.uleb128 .L261-.LFB3414
	.uleb128 0
	.uleb128 .LEHB30-.LFB3414
	.uleb128 .LEHE30-.LEHB30
	.uleb128 .L262-.LFB3414
	.uleb128 0
	.uleb128 .LEHB31-.LFB3414
	.uleb128 .LEHE31-.LEHB31
	.uleb128 .L260-.LFB3414
	.uleb128 0
	.uleb128 .LEHB32-.LFB3414
	.uleb128 .LEHE32-.LEHB32
	.uleb128 .L263-.LFB3414
	.uleb128 0
	.uleb128 .LEHB33-.LFB3414
	.uleb128 .LEHE33-.LEHB33
	.uleb128 0
	.uleb128 0
.LLSDACSE3414:
	.section	.text._ZN8asiodnp318PrintingSOEHandler13ValueToStringIN8opendnp313FrozenCounterEEENSt7__cxx1112basic_stringIcSt11char_traitsIcESaIcEEERKT_,"axG",@progbits,_ZN8asiodnp318PrintingSOEHandler13ValueToStringIN8opendnp313FrozenCounterEEENSt7__cxx1112basic_stringIcSt11char_traitsIcESaIcEEERKT_,comdat
	.size	_ZN8asiodnp318PrintingSOEHandler13ValueToStringIN8opendnp313FrozenCounterEEENSt7__cxx1112basic_stringIcSt11char_traitsIcESaIcEEERKT_, .-_ZN8asiodnp318PrintingSOEHandler13ValueToStringIN8opendnp313FrozenCounterEEENSt7__cxx1112basic_stringIcSt11char_traitsIcESaIcEEERKT_
	.section	.text._ZN8opendnp314FunctorVisitorINS_7IndexedINS_13FrozenCounterEEEZN8asiodnp318PrintingSOEHandler8PrintAllIS2_EEvRKNS_10HeaderInfoERKNS_11ICollectionINS1_IT_EEEEEUlRKS3_E_E7OnValueESH_,"axG",@progbits,_ZN8opendnp314FunctorVisitorINS_7IndexedINS_13FrozenCounterEEEZN8asiodnp318PrintingSOEHandler8PrintAllIS2_EEvRKNS_10HeaderInfoERKNS_11ICollectionINS1_IT_EEEEEUlRKS3_E_E7OnValueESH_,comdat
	.align	2
	.p2align 4,,11
	.weak	_ZN8opendnp314FunctorVisitorINS_7IndexedINS_13FrozenCounterEEEZN8asiodnp318PrintingSOEHandler8PrintAllIS2_EEvRKNS_10HeaderInfoERKNS_11ICollectionINS1_IT_EEEEEUlRKS3_E_E7OnValueESH_
	.type	_ZN8opendnp314FunctorVisitorINS_7IndexedINS_13FrozenCounterEEEZN8asiodnp318PrintingSOEHandler8PrintAllIS2_EEvRKNS_10HeaderInfoERKNS_11ICollectionINS1_IT_EEEEEUlRKS3_E_E7OnValueESH_, %function
_ZN8opendnp314FunctorVisitorINS_7IndexedINS_13FrozenCounterEEEZN8asiodnp318PrintingSOEHandler8PrintAllIS2_EEvRKNS_10HeaderInfoERKNS_11ICollectionINS1_IT_EEEEEUlRKS3_E_E7OnValueESH_:
.LFB3660:
	.cfi_startproc
	.cfi_personality 0x9b,DW.ref.__gxx_personality_v0
	.cfi_lsda 0x1b,.LLSDA3660
	stp	x29, x30, [sp, -96]!
	.cfi_def_cfa_offset 96
	.cfi_offset 29, -96
	.cfi_offset 30, -88
	adrp	x0, :got:__stack_chk_guard
	mov	x2, 1
	mov	x29, sp
	stp	x19, x20, [sp, 16]
	.cfi_offset 19, -80
	.cfi_offset 20, -72
	adrp	x20, :got:_ZSt4cout
	mov	x19, x1
	ldr	x0, [x0, #:got_lo12:__stack_chk_guard]
	str	x21, [sp, 32]
	.cfi_offset 21, -64
	ldr	x20, [x20, #:got_lo12:_ZSt4cout]
	ldr	x1, [x0]
	str	x1, [sp, 88]
	mov	x1, 0
	ldrh	w21, [x19, 24]
	adrp	x1, .LC0
	mov	x0, x20
	add	x1, x1, :lo12:.LC0
.LEHB34:
	bl	_ZSt16__ostream_insertIcSt11char_traitsIcEERSt13basic_ostreamIT_T0_ES6_PKS3_l
	and	x1, x21, 65535
	mov	x0, x20
	bl	_ZNSo9_M_insertImEERSoT_
	mov	x20, x0
	adrp	x1, .LC1
	add	x1, x1, :lo12:.LC1
	mov	x2, 4
	bl	_ZSt16__ostream_insertIcSt11char_traitsIcEERSt13basic_ostreamIT_T0_ES6_PKS3_l
	mov	x0, x19
	add	x8, sp, 56
	bl	_ZN8asiodnp318PrintingSOEHandler13ValueToStringIN8opendnp313FrozenCounterEEENSt7__cxx1112basic_stringIcSt11char_traitsIcESaIcEEERKT_
.LEHE34:
	ldp	x1, x2, [sp, 56]
	mov	x0, x20
.LEHB35:
	bl	_ZSt16__ostream_insertIcSt11char_traitsIcEERSt13basic_ostreamIT_T0_ES6_PKS3_l
	adrp	x21, .LC3
	mov	x20, x0
	add	x1, x21, :lo12:.LC3
	mov	x2, 3
	bl	_ZSt16__ostream_insertIcSt11char_traitsIcEERSt13basic_ostreamIT_T0_ES6_PKS3_l
	ldrb	w1, [x19]
	mov	x0, x20
	bl	_ZNSolsEi
	add	x1, x21, :lo12:.LC3
	mov	x20, x0
	mov	x2, 3
	bl	_ZSt16__ostream_insertIcSt11char_traitsIcEERSt13basic_ostreamIT_T0_ES6_PKS3_l
	ldr	x1, [x19, 8]
	mov	x0, x20
	bl	_ZNSo9_M_insertIlEERSoT_
	mov	x19, x0
	ldr	x0, [x0]
	ldr	x0, [x0, -24]
	add	x0, x19, x0
	ldr	x20, [x0, 240]
	cbz	x20, .L281
	ldrb	w0, [x20, 56]
	cbz	w0, .L272
	ldrb	w1, [x20, 67]
.L273:
	mov	x0, x19
	bl	_ZNSo3putEc
	bl	_ZNSo5flushEv
	ldr	x0, [sp, 56]
	add	x1, sp, 72
	cmp	x0, x1
	beq	.L270
	ldr	x1, [sp, 72]
	add	x1, x1, 1
	bl	_ZdlPvm
.L270:
	adrp	x0, :got:__stack_chk_guard
	ldr	x0, [x0, #:got_lo12:__stack_chk_guard]
	ldr	x2, [sp, 88]
	ldr	x1, [x0]
	subs	x2, x2, x1
	mov	x1, 0
	bne	.L282
	ldp	x19, x20, [sp, 16]
	ldr	x21, [sp, 32]
	ldp	x29, x30, [sp], 96
	.cfi_remember_state
	.cfi_restore 30
	.cfi_restore 29
	.cfi_restore 21
	.cfi_restore 19
	.cfi_restore 20
	.cfi_def_cfa_offset 0
	ret
	.p2align 2,,3
.L272:
	.cfi_restore_state
	mov	x0, x20
	bl	_ZNKSt5ctypeIcE13_M_widen_initEv
	ldr	x2, [x20]
	adrp	x0, :got:_ZNKSt5ctypeIcE8do_widenEc
	mov	w1, 10
	ldr	x0, [x0, #:got_lo12:_ZNKSt5ctypeIcE8do_widenEc]
	ldr	x2, [x2, 48]
	cmp	x2, x0
	beq	.L273
	mov	x0, x20
	blr	x2
	and	w1, w0, 255
	b	.L273
.L282:
	bl	__stack_chk_fail
.L281:
	bl	_ZSt16__throw_bad_castv
.LEHE35:
.L279:
	ldr	x2, [sp, 56]
	add	x1, sp, 72
	mov	x19, x0
	cmp	x2, x1
	beq	.L276
	ldr	x1, [sp, 72]
	mov	x0, x2
	add	x1, x1, 1
	bl	_ZdlPvm
.L276:
	mov	x0, x19
.LEHB36:
	bl	_Unwind_Resume
.LEHE36:
	.cfi_endproc
.LFE3660:
	.section	.gcc_except_table._ZN8opendnp314FunctorVisitorINS_7IndexedINS_13FrozenCounterEEEZN8asiodnp318PrintingSOEHandler8PrintAllIS2_EEvRKNS_10HeaderInfoERKNS_11ICollectionINS1_IT_EEEEEUlRKS3_E_E7OnValueESH_,"aG",@progbits,_ZN8opendnp314FunctorVisitorINS_7IndexedINS_13FrozenCounterEEEZN8asiodnp318PrintingSOEHandler8PrintAllIS2_EEvRKNS_10HeaderInfoERKNS_11ICollectionINS1_IT_EEEEEUlRKS3_E_E7OnValueESH_,comdat
.LLSDA3660:
	.byte	0xff
	.byte	0xff
	.byte	0x1
	.uleb128 .LLSDACSE3660-.LLSDACSB3660
.LLSDACSB3660:
	.uleb128 .LEHB34-.LFB3660
	.uleb128 .LEHE34-.LEHB34
	.uleb128 0
	.uleb128 0
	.uleb128 .LEHB35-.LFB3660
	.uleb128 .LEHE35-.LEHB35
	.uleb128 .L279-.LFB3660
	.uleb128 0
	.uleb128 .LEHB36-.LFB3660
	.uleb128 .LEHE36-.LEHB36
	.uleb128 0
	.uleb128 0
.LLSDACSE3660:
	.section	.text._ZN8opendnp314FunctorVisitorINS_7IndexedINS_13FrozenCounterEEEZN8asiodnp318PrintingSOEHandler8PrintAllIS2_EEvRKNS_10HeaderInfoERKNS_11ICollectionINS1_IT_EEEEEUlRKS3_E_E7OnValueESH_,"axG",@progbits,_ZN8opendnp314FunctorVisitorINS_7IndexedINS_13FrozenCounterEEEZN8asiodnp318PrintingSOEHandler8PrintAllIS2_EEvRKNS_10HeaderInfoERKNS_11ICollectionINS1_IT_EEEEEUlRKS3_E_E7OnValueESH_,comdat
	.size	_ZN8opendnp314FunctorVisitorINS_7IndexedINS_13FrozenCounterEEEZN8asiodnp318PrintingSOEHandler8PrintAllIS2_EEvRKNS_10HeaderInfoERKNS_11ICollectionINS1_IT_EEEEEUlRKS3_E_E7OnValueESH_, .-_ZN8opendnp314FunctorVisitorINS_7IndexedINS_13FrozenCounterEEEZN8asiodnp318PrintingSOEHandler8PrintAllIS2_EEvRKNS_10HeaderInfoERKNS_11ICollectionINS1_IT_EEEEEUlRKS3_E_E7OnValueESH_
	.section	.text._ZN8asiodnp318PrintingSOEHandler13ValueToStringIN8opendnp318BinaryOutputStatusEEENSt7__cxx1112basic_stringIcSt11char_traitsIcESaIcEEERKT_,"axG",@progbits,_ZN8asiodnp318PrintingSOEHandler13ValueToStringIN8opendnp318BinaryOutputStatusEEENSt7__cxx1112basic_stringIcSt11char_traitsIcESaIcEEERKT_,comdat
	.align	2
	.p2align 4,,11
	.weak	_ZN8asiodnp318PrintingSOEHandler13ValueToStringIN8opendnp318BinaryOutputStatusEEENSt7__cxx1112basic_stringIcSt11char_traitsIcESaIcEEERKT_
	.type	_ZN8asiodnp318PrintingSOEHandler13ValueToStringIN8opendnp318BinaryOutputStatusEEENSt7__cxx1112basic_stringIcSt11char_traitsIcESaIcEEERKT_, %function
_ZN8asiodnp318PrintingSOEHandler13ValueToStringIN8opendnp318BinaryOutputStatusEEENSt7__cxx1112basic_stringIcSt11char_traitsIcESaIcEEERKT_:
.LFB3421:
	.cfi_startproc
	.cfi_personality 0x9b,DW.ref.__gxx_personality_v0
	.cfi_lsda 0x1b,.LLSDA3421
	stp	x29, x30, [sp, -496]!
	.cfi_def_cfa_offset 496
	.cfi_offset 29, -496
	.cfi_offset 30, -488
	adrp	x1, :got:__stack_chk_guard
	mov	x29, sp
	ldr	x1, [x1, #:got_lo12:__stack_chk_guard]
	stp	x19, x20, [sp, 16]
	.cfi_offset 19, -480
	.cfi_offset 20, -472
	mov	x19, x8
	stp	x21, x22, [sp, 32]
	.cfi_offset 21, -464
	.cfi_offset 22, -456
	adrp	x21, :got:_ZTVSt9basic_iosIcSt11char_traitsIcEE
	stp	x23, x24, [sp, 48]
	.cfi_offset 23, -448
	.cfi_offset 24, -440
	add	x23, sp, 112
	stp	x25, x26, [sp, 64]
	.cfi_offset 25, -432
	.cfi_offset 26, -424
	add	x25, sp, 224
	stp	x27, x28, [sp, 80]
	.cfi_offset 27, -416
	.cfi_offset 28, -408
	str	x0, [sp, 104]
	mov	x0, x25
	ldr	x2, [x1]
	str	x2, [sp, 488]
	mov	x2, 0
	bl	_ZNSt8ios_baseC2Ev
	strh	wzr, [sp, 448]
	adrp	x0, :got:_ZTTNSt7__cxx1119basic_ostringstreamIcSt11char_traitsIcESaIcEEE
	add	x1, sp, 528
	movi	v0.4s, 0
	add	x3, sp, 528
	ldr	x0, [x0, #:got_lo12:_ZTTNSt7__cxx1119basic_ostringstreamIcSt11char_traitsIcESaIcEEE]
	ldr	x2, [x21, #:got_lo12:_ZTVSt9basic_iosIcSt11char_traitsIcEE]
	str	q0, [x1, -72]
	mov	x1, 0
	ldp	x24, x26, [x0, 8]
	str	q0, [x3, -56]
	add	x2, x2, 16
	ldr	x3, [x24, -24]
	str	x24, [sp, 112]
	str	x2, [sp, 224]
	str	xzr, [sp, 440]
	add	x0, x23, x3
	str	x26, [x23, x3]
.LEHB37:
	bl	_ZNSt9basic_iosIcSt11char_traitsIcEE4initEPSt15basic_streambufIcS1_E
.LEHE37:
	adrp	x1, :got:_ZTVSt15basic_streambufIcSt11char_traitsIcEE
	adrp	x20, :got:_ZTVNSt7__cxx1119basic_ostringstreamIcSt11char_traitsIcESaIcEEE
	movi	v0.4s, 0
	add	x27, sp, 176
	ldr	x2, [x1, #:got_lo12:_ZTVSt15basic_streambufIcSt11char_traitsIcEE]
	adrp	x22, :got:_ZTVNSt7__cxx1115basic_stringbufIcSt11char_traitsIcESaIcEEE
	ldr	x0, [x20, #:got_lo12:_ZTVNSt7__cxx1119basic_ostringstreamIcSt11char_traitsIcESaIcEEE]
	add	x2, x2, 16
	stp	q0, q0, [sp, 128]
	add	x28, sp, 208
	add	x3, x0, 24
	add	x1, x0, 64
	stp	x3, x2, [sp, 112]
	add	x2, sp, 120
	mov	x0, x27
	str	x2, [sp, 96]
	str	q0, [sp, 160]
	str	x1, [sp, 224]
	bl	_ZNSt6localeC1Ev
	ldr	x2, [x22, #:got_lo12:_ZTVNSt7__cxx1115basic_stringbufIcSt11char_traitsIcESaIcEEE]
	mov	w3, 16
	ldr	x1, [sp, 96]
	add	x2, x2, 16
	mov	x0, x25
	str	x2, [sp, 120]
	str	w3, [sp, 184]
	stp	x28, xzr, [sp, 192]
	strb	wzr, [sp, 208]
.LEHB38:
	bl	_ZNSt9basic_iosIcSt11char_traitsIcEE4initEPSt15basic_streambufIcS1_E
.LEHE38:
	ldr	x0, [sp, 104]
	ldrb	w1, [x0, 16]
	mov	x0, x23
.LEHB39:
	bl	_ZNSo9_M_insertIbEERSoT_
.LEHE39:
	ldr	x5, [sp, 160]
	add	x0, x19, 16
	stp	x0, xzr, [x19]
	strb	wzr, [x19, 16]
	str	x0, [sp, 96]
	cbz	x5, .L287
	ldp	x4, x3, [sp, 144]
	mov	x0, x19
	mov	x2, 0
	mov	x1, 0
	cmp	x4, 0
	ccmp	x5, x4, 2, ne
	csel	x4, x5, x4, hi
	sub	x4, x4, x3
.LEHB40:
	bl	_ZNSt7__cxx1112basic_stringIcSt11char_traitsIcESaIcEE10_M_replaceEmmPKcm
.L291:
	ldr	x20, [x20, #:got_lo12:_ZTVNSt7__cxx1119basic_ostringstreamIcSt11char_traitsIcESaIcEEE]
	ldr	x22, [x22, #:got_lo12:_ZTVNSt7__cxx1115basic_stringbufIcSt11char_traitsIcESaIcEEE]
	add	x1, x20, 24
	ldr	x0, [sp, 192]
	add	x22, x22, 16
	add	x20, x20, 64
	stp	x1, x22, [sp, 112]
	str	x20, [sp, 224]
	cmp	x0, x28
	beq	.L290
	ldr	x1, [sp, 208]
	add	x1, x1, 1
	bl	_ZdlPvm
.L290:
	adrp	x0, :got:_ZTVSt15basic_streambufIcSt11char_traitsIcEE
	ldr	x1, [x0, #:got_lo12:_ZTVSt15basic_streambufIcSt11char_traitsIcEE]
	mov	x0, x27
	add	x1, x1, 16
	str	x1, [sp, 120]
	bl	_ZNSt6localeD1Ev
	ldr	x1, [x24, -24]
	str	x24, [sp, 112]
	ldr	x21, [x21, #:got_lo12:_ZTVSt9basic_iosIcSt11char_traitsIcEE]
	mov	x0, x25
	str	x26, [x23, x1]
	add	x21, x21, 16
	str	x21, [sp, 224]
	bl	_ZNSt8ios_baseD2Ev
	adrp	x0, :got:__stack_chk_guard
	ldr	x0, [x0, #:got_lo12:__stack_chk_guard]
	ldr	x2, [sp, 488]
	ldr	x1, [x0]
	subs	x2, x2, x1
	mov	x1, 0
	bne	.L305
	mov	x0, x19
	ldp	x19, x20, [sp, 16]
	ldp	x21, x22, [sp, 32]
	ldp	x23, x24, [sp, 48]
	ldp	x25, x26, [sp, 64]
	ldp	x27, x28, [sp, 80]
	ldp	x29, x30, [sp], 496
	.cfi_remember_state
	.cfi_restore 30
	.cfi_restore 29
	.cfi_restore 27
	.cfi_restore 28
	.cfi_restore 25
	.cfi_restore 26
	.cfi_restore 23
	.cfi_restore 24
	.cfi_restore 21
	.cfi_restore 22
	.cfi_restore 19
	.cfi_restore 20
	.cfi_def_cfa_offset 0
	ret
	.p2align 2,,3
.L287:
	.cfi_restore_state
	add	x1, sp, 192
	mov	x0, x19
	bl	_ZNSt7__cxx1112basic_stringIcSt11char_traitsIcESaIcEE9_M_assignERKS4_
.LEHE40:
	b	.L291
.L305:
	bl	__stack_chk_fail
.L296:
	mov	x20, x0
.L294:
	mov	x0, x23
	bl	_ZNSt7__cxx1119basic_ostringstreamIcSt11char_traitsIcESaIcEED1Ev
	mov	x0, x20
.LEHB41:
	bl	_Unwind_Resume
.L299:
	mov	x20, x0
	ldr	x2, [x19]
	ldr	x0, [sp, 96]
	cmp	x0, x2
	beq	.L294
	ldr	x1, [x19, 16]
	mov	x0, x2
	add	x1, x1, 1
	bl	_ZdlPvm
	b	.L294
.L298:
	mov	x19, x0
	ldr	x0, [sp, 96]
	bl	_ZNSt7__cxx1115basic_stringbufIcSt11char_traitsIcESaIcEED1Ev
	ldr	x0, [x24, -24]
	str	x24, [sp, 112]
	str	x26, [x23, x0]
.L286:
	ldr	x1, [x21, #:got_lo12:_ZTVSt9basic_iosIcSt11char_traitsIcEE]
	mov	x0, x25
	add	x1, x1, 16
	str	x1, [sp, 224]
	bl	_ZNSt8ios_baseD2Ev
	mov	x0, x19
	bl	_Unwind_Resume
.LEHE41:
.L297:
	mov	x19, x0
	b	.L286
	.cfi_endproc
.LFE3421:
	.section	.gcc_except_table._ZN8asiodnp318PrintingSOEHandler13ValueToStringIN8opendnp318BinaryOutputStatusEEENSt7__cxx1112basic_stringIcSt11char_traitsIcESaIcEEERKT_,"aG",@progbits,_ZN8asiodnp318PrintingSOEHandler13ValueToStringIN8opendnp318BinaryOutputStatusEEENSt7__cxx1112basic_stringIcSt11char_traitsIcESaIcEEERKT_,comdat
.LLSDA3421:
	.byte	0xff
	.byte	0xff
	.byte	0x1
	.uleb128 .LLSDACSE3421-.LLSDACSB3421
.LLSDACSB3421:
	.uleb128 .LEHB37-.LFB3421
	.uleb128 .LEHE37-.LEHB37
	.uleb128 .L297-.LFB3421
	.uleb128 0
	.uleb128 .LEHB38-.LFB3421
	.uleb128 .LEHE38-.LEHB38
	.uleb128 .L298-.LFB3421
	.uleb128 0
	.uleb128 .LEHB39-.LFB3421
	.uleb128 .LEHE39-.LEHB39
	.uleb128 .L296-.LFB3421
	.uleb128 0
	.uleb128 .LEHB40-.LFB3421
	.uleb128 .LEHE40-.LEHB40
	.uleb128 .L299-.LFB3421
	.uleb128 0
	.uleb128 .LEHB41-.LFB3421
	.uleb128 .LEHE41-.LEHB41
	.uleb128 0
	.uleb128 0
.LLSDACSE3421:
	.section	.text._ZN8asiodnp318PrintingSOEHandler13ValueToStringIN8opendnp318BinaryOutputStatusEEENSt7__cxx1112basic_stringIcSt11char_traitsIcESaIcEEERKT_,"axG",@progbits,_ZN8asiodnp318PrintingSOEHandler13ValueToStringIN8opendnp318BinaryOutputStatusEEENSt7__cxx1112basic_stringIcSt11char_traitsIcESaIcEEERKT_,comdat
	.size	_ZN8asiodnp318PrintingSOEHandler13ValueToStringIN8opendnp318BinaryOutputStatusEEENSt7__cxx1112basic_stringIcSt11char_traitsIcESaIcEEERKT_, .-_ZN8asiodnp318PrintingSOEHandler13ValueToStringIN8opendnp318BinaryOutputStatusEEENSt7__cxx1112basic_stringIcSt11char_traitsIcESaIcEEERKT_
	.section	.text._ZN8opendnp314FunctorVisitorINS_7IndexedINS_18BinaryOutputStatusEEEZN8asiodnp318PrintingSOEHandler8PrintAllIS2_EEvRKNS_10HeaderInfoERKNS_11ICollectionINS1_IT_EEEEEUlRKS3_E_E7OnValueESH_,"axG",@progbits,_ZN8opendnp314FunctorVisitorINS_7IndexedINS_18BinaryOutputStatusEEEZN8asiodnp318PrintingSOEHandler8PrintAllIS2_EEvRKNS_10HeaderInfoERKNS_11ICollectionINS1_IT_EEEEEUlRKS3_E_E7OnValueESH_,comdat
	.align	2
	.p2align 4,,11
	.weak	_ZN8opendnp314FunctorVisitorINS_7IndexedINS_18BinaryOutputStatusEEEZN8asiodnp318PrintingSOEHandler8PrintAllIS2_EEvRKNS_10HeaderInfoERKNS_11ICollectionINS1_IT_EEEEEUlRKS3_E_E7OnValueESH_
	.type	_ZN8opendnp314FunctorVisitorINS_7IndexedINS_18BinaryOutputStatusEEEZN8asiodnp318PrintingSOEHandler8PrintAllIS2_EEvRKNS_10HeaderInfoERKNS_11ICollectionINS1_IT_EEEEEUlRKS3_E_E7OnValueESH_, %function
_ZN8opendnp314FunctorVisitorINS_7IndexedINS_18BinaryOutputStatusEEEZN8asiodnp318PrintingSOEHandler8PrintAllIS2_EEvRKNS_10HeaderInfoERKNS_11ICollectionINS1_IT_EEEEEUlRKS3_E_E7OnValueESH_:
.LFB3659:
	.cfi_startproc
	.cfi_personality 0x9b,DW.ref.__gxx_personality_v0
	.cfi_lsda 0x1b,.LLSDA3659
	stp	x29, x30, [sp, -96]!
	.cfi_def_cfa_offset 96
	.cfi_offset 29, -96
	.cfi_offset 30, -88
	adrp	x0, :got:__stack_chk_guard
	mov	x2, 1
	mov	x29, sp
	stp	x19, x20, [sp, 16]
	.cfi_offset 19, -80
	.cfi_offset 20, -72
	adrp	x20, :got:_ZSt4cout
	mov	x19, x1
	ldr	x0, [x0, #:got_lo12:__stack_chk_guard]
	str	x21, [sp, 32]
	.cfi_offset 21, -64
	ldr	x20, [x20, #:got_lo12:_ZSt4cout]
	ldr	x1, [x0]
	str	x1, [sp, 88]
	mov	x1, 0
	ldrh	w21, [x19, 24]
	adrp	x1, .LC0
	mov	x0, x20
	add	x1, x1, :lo12:.LC0
.LEHB42:
	bl	_ZSt16__ostream_insertIcSt11char_traitsIcEERSt13basic_ostreamIT_T0_ES6_PKS3_l
	and	x1, x21, 65535
	mov	x0, x20
	bl	_ZNSo9_M_insertImEERSoT_
	mov	x20, x0
	adrp	x1, .LC1
	add	x1, x1, :lo12:.LC1
	mov	x2, 4
	bl	_ZSt16__ostream_insertIcSt11char_traitsIcEERSt13basic_ostreamIT_T0_ES6_PKS3_l
	mov	x0, x19
	add	x8, sp, 56
	bl	_ZN8asiodnp318PrintingSOEHandler13ValueToStringIN8opendnp318BinaryOutputStatusEEENSt7__cxx1112basic_stringIcSt11char_traitsIcESaIcEEERKT_
.LEHE42:
	ldp	x1, x2, [sp, 56]
	mov	x0, x20
.LEHB43:
	bl	_ZSt16__ostream_insertIcSt11char_traitsIcEERSt13basic_ostreamIT_T0_ES6_PKS3_l
	adrp	x21, .LC3
	mov	x20, x0
	add	x1, x21, :lo12:.LC3
	mov	x2, 3
	bl	_ZSt16__ostream_insertIcSt11char_traitsIcEERSt13basic_ostreamIT_T0_ES6_PKS3_l
	ldrb	w1, [x19]
	mov	x0, x20
	bl	_ZNSolsEi
	add	x1, x21, :lo12:.LC3
	mov	x20, x0
	mov	x2, 3
	bl	_ZSt16__ostream_insertIcSt11char_traitsIcEERSt13basic_ostreamIT_T0_ES6_PKS3_l
	ldr	x1, [x19, 8]
	mov	x0, x20
	bl	_ZNSo9_M_insertIlEERSoT_
	mov	x19, x0
	ldr	x0, [x0]
	ldr	x0, [x0, -24]
	add	x0, x19, x0
	ldr	x20, [x0, 240]
	cbz	x20, .L317
	ldrb	w0, [x20, 56]
	cbz	w0, .L308
	ldrb	w1, [x20, 67]
.L309:
	mov	x0, x19
	bl	_ZNSo3putEc
	bl	_ZNSo5flushEv
	ldr	x0, [sp, 56]
	add	x1, sp, 72
	cmp	x0, x1
	beq	.L306
	ldr	x1, [sp, 72]
	add	x1, x1, 1
	bl	_ZdlPvm
.L306:
	adrp	x0, :got:__stack_chk_guard
	ldr	x0, [x0, #:got_lo12:__stack_chk_guard]
	ldr	x2, [sp, 88]
	ldr	x1, [x0]
	subs	x2, x2, x1
	mov	x1, 0
	bne	.L318
	ldp	x19, x20, [sp, 16]
	ldr	x21, [sp, 32]
	ldp	x29, x30, [sp], 96
	.cfi_remember_state
	.cfi_restore 30
	.cfi_restore 29
	.cfi_restore 21
	.cfi_restore 19
	.cfi_restore 20
	.cfi_def_cfa_offset 0
	ret
	.p2align 2,,3
.L308:
	.cfi_restore_state
	mov	x0, x20
	bl	_ZNKSt5ctypeIcE13_M_widen_initEv
	ldr	x2, [x20]
	adrp	x0, :got:_ZNKSt5ctypeIcE8do_widenEc
	mov	w1, 10
	ldr	x0, [x0, #:got_lo12:_ZNKSt5ctypeIcE8do_widenEc]
	ldr	x2, [x2, 48]
	cmp	x2, x0
	beq	.L309
	mov	x0, x20
	blr	x2
	and	w1, w0, 255
	b	.L309
.L318:
	bl	__stack_chk_fail
.L317:
	bl	_ZSt16__throw_bad_castv
.LEHE43:
.L315:
	ldr	x2, [sp, 56]
	add	x1, sp, 72
	mov	x19, x0
	cmp	x2, x1
	beq	.L312
	ldr	x1, [sp, 72]
	mov	x0, x2
	add	x1, x1, 1
	bl	_ZdlPvm
.L312:
	mov	x0, x19
.LEHB44:
	bl	_Unwind_Resume
.LEHE44:
	.cfi_endproc
.LFE3659:
	.section	.gcc_except_table._ZN8opendnp314FunctorVisitorINS_7IndexedINS_18BinaryOutputStatusEEEZN8asiodnp318PrintingSOEHandler8PrintAllIS2_EEvRKNS_10HeaderInfoERKNS_11ICollectionINS1_IT_EEEEEUlRKS3_E_E7OnValueESH_,"aG",@progbits,_ZN8opendnp314FunctorVisitorINS_7IndexedINS_18BinaryOutputStatusEEEZN8asiodnp318PrintingSOEHandler8PrintAllIS2_EEvRKNS_10HeaderInfoERKNS_11ICollectionINS1_IT_EEEEEUlRKS3_E_E7OnValueESH_,comdat
.LLSDA3659:
	.byte	0xff
	.byte	0xff
	.byte	0x1
	.uleb128 .LLSDACSE3659-.LLSDACSB3659
.LLSDACSB3659:
	.uleb128 .LEHB42-.LFB3659
	.uleb128 .LEHE42-.LEHB42
	.uleb128 0
	.uleb128 0
	.uleb128 .LEHB43-.LFB3659
	.uleb128 .LEHE43-.LEHB43
	.uleb128 .L315-.LFB3659
	.uleb128 0
	.uleb128 .LEHB44-.LFB3659
	.uleb128 .LEHE44-.LEHB44
	.uleb128 0
	.uleb128 0
.LLSDACSE3659:
	.section	.text._ZN8opendnp314FunctorVisitorINS_7IndexedINS_18BinaryOutputStatusEEEZN8asiodnp318PrintingSOEHandler8PrintAllIS2_EEvRKNS_10HeaderInfoERKNS_11ICollectionINS1_IT_EEEEEUlRKS3_E_E7OnValueESH_,"axG",@progbits,_ZN8opendnp314FunctorVisitorINS_7IndexedINS_18BinaryOutputStatusEEEZN8asiodnp318PrintingSOEHandler8PrintAllIS2_EEvRKNS_10HeaderInfoERKNS_11ICollectionINS1_IT_EEEEEUlRKS3_E_E7OnValueESH_,comdat
	.size	_ZN8opendnp314FunctorVisitorINS_7IndexedINS_18BinaryOutputStatusEEEZN8asiodnp318PrintingSOEHandler8PrintAllIS2_EEvRKNS_10HeaderInfoERKNS_11ICollectionINS1_IT_EEEEEUlRKS3_E_E7OnValueESH_, .-_ZN8opendnp314FunctorVisitorINS_7IndexedINS_18BinaryOutputStatusEEEZN8asiodnp318PrintingSOEHandler8PrintAllIS2_EEvRKNS_10HeaderInfoERKNS_11ICollectionINS1_IT_EEEEEUlRKS3_E_E7OnValueESH_
	.section	.text._ZN8asiodnp318PrintingSOEHandler13ValueToStringIN8opendnp318AnalogOutputStatusEEENSt7__cxx1112basic_stringIcSt11char_traitsIcESaIcEEERKT_,"axG",@progbits,_ZN8asiodnp318PrintingSOEHandler13ValueToStringIN8opendnp318AnalogOutputStatusEEENSt7__cxx1112basic_stringIcSt11char_traitsIcESaIcEEERKT_,comdat
	.align	2
	.p2align 4,,11
	.weak	_ZN8asiodnp318PrintingSOEHandler13ValueToStringIN8opendnp318AnalogOutputStatusEEENSt7__cxx1112basic_stringIcSt11char_traitsIcESaIcEEERKT_
	.type	_ZN8asiodnp318PrintingSOEHandler13ValueToStringIN8opendnp318AnalogOutputStatusEEENSt7__cxx1112basic_stringIcSt11char_traitsIcESaIcEEERKT_, %function
_ZN8asiodnp318PrintingSOEHandler13ValueToStringIN8opendnp318AnalogOutputStatusEEENSt7__cxx1112basic_stringIcSt11char_traitsIcESaIcEEERKT_:
.LFB3428:
	.cfi_startproc
	.cfi_personality 0x9b,DW.ref.__gxx_personality_v0
	.cfi_lsda 0x1b,.LLSDA3428
	stp	x29, x30, [sp, -496]!
	.cfi_def_cfa_offset 496
	.cfi_offset 29, -496
	.cfi_offset 30, -488
	adrp	x1, :got:__stack_chk_guard
	mov	x29, sp
	ldr	x1, [x1, #:got_lo12:__stack_chk_guard]
	stp	x19, x20, [sp, 16]
	.cfi_offset 19, -480
	.cfi_offset 20, -472
	mov	x19, x8
	stp	x21, x22, [sp, 32]
	.cfi_offset 21, -464
	.cfi_offset 22, -456
	adrp	x21, :got:_ZTVSt9basic_iosIcSt11char_traitsIcEE
	stp	x23, x24, [sp, 48]
	.cfi_offset 23, -448
	.cfi_offset 24, -440
	add	x23, sp, 112
	stp	x25, x26, [sp, 64]
	.cfi_offset 25, -432
	.cfi_offset 26, -424
	add	x25, sp, 224
	stp	x27, x28, [sp, 80]
	.cfi_offset 27, -416
	.cfi_offset 28, -408
	str	x0, [sp, 104]
	mov	x0, x25
	ldr	x2, [x1]
	str	x2, [sp, 488]
	mov	x2, 0
	bl	_ZNSt8ios_baseC2Ev
	strh	wzr, [sp, 448]
	adrp	x0, :got:_ZTTNSt7__cxx1119basic_ostringstreamIcSt11char_traitsIcESaIcEEE
	add	x1, sp, 528
	movi	v0.4s, 0
	add	x3, sp, 528
	ldr	x0, [x0, #:got_lo12:_ZTTNSt7__cxx1119basic_ostringstreamIcSt11char_traitsIcESaIcEEE]
	ldr	x2, [x21, #:got_lo12:_ZTVSt9basic_iosIcSt11char_traitsIcEE]
	str	q0, [x1, -72]
	mov	x1, 0
	ldp	x24, x26, [x0, 8]
	str	q0, [x3, -56]
	add	x2, x2, 16
	ldr	x3, [x24, -24]
	str	x24, [sp, 112]
	str	x2, [sp, 224]
	str	xzr, [sp, 440]
	add	x0, x23, x3
	str	x26, [x23, x3]
.LEHB45:
	bl	_ZNSt9basic_iosIcSt11char_traitsIcEE4initEPSt15basic_streambufIcS1_E
.LEHE45:
	adrp	x1, :got:_ZTVSt15basic_streambufIcSt11char_traitsIcEE
	adrp	x20, :got:_ZTVNSt7__cxx1119basic_ostringstreamIcSt11char_traitsIcESaIcEEE
	movi	v0.4s, 0
	add	x27, sp, 176
	ldr	x2, [x1, #:got_lo12:_ZTVSt15basic_streambufIcSt11char_traitsIcEE]
	adrp	x22, :got:_ZTVNSt7__cxx1115basic_stringbufIcSt11char_traitsIcESaIcEEE
	ldr	x0, [x20, #:got_lo12:_ZTVNSt7__cxx1119basic_ostringstreamIcSt11char_traitsIcESaIcEEE]
	add	x2, x2, 16
	stp	q0, q0, [sp, 128]
	add	x28, sp, 208
	add	x3, x0, 24
	add	x1, x0, 64
	stp	x3, x2, [sp, 112]
	add	x2, sp, 120
	mov	x0, x27
	str	x2, [sp, 96]
	str	q0, [sp, 160]
	str	x1, [sp, 224]
	bl	_ZNSt6localeC1Ev
	ldr	x2, [x22, #:got_lo12:_ZTVNSt7__cxx1115basic_stringbufIcSt11char_traitsIcESaIcEEE]
	mov	w3, 16
	ldr	x1, [sp, 96]
	add	x2, x2, 16
	mov	x0, x25
	str	x2, [sp, 120]
	str	w3, [sp, 184]
	stp	x28, xzr, [sp, 192]
	strb	wzr, [sp, 208]
.LEHB46:
	bl	_ZNSt9basic_iosIcSt11char_traitsIcEE4initEPSt15basic_streambufIcS1_E
.LEHE46:
	ldr	x0, [sp, 104]
	ldr	d0, [x0, 16]
	mov	x0, x23
.LEHB47:
	bl	_ZNSo9_M_insertIdEERSoT_
.LEHE47:
	ldr	x5, [sp, 160]
	add	x0, x19, 16
	stp	x0, xzr, [x19]
	strb	wzr, [x19, 16]
	str	x0, [sp, 96]
	cbz	x5, .L323
	ldp	x4, x3, [sp, 144]
	mov	x0, x19
	mov	x2, 0
	mov	x1, 0
	cmp	x4, 0
	ccmp	x5, x4, 2, ne
	csel	x4, x5, x4, hi
	sub	x4, x4, x3
.LEHB48:
	bl	_ZNSt7__cxx1112basic_stringIcSt11char_traitsIcESaIcEE10_M_replaceEmmPKcm
.L327:
	ldr	x20, [x20, #:got_lo12:_ZTVNSt7__cxx1119basic_ostringstreamIcSt11char_traitsIcESaIcEEE]
	ldr	x22, [x22, #:got_lo12:_ZTVNSt7__cxx1115basic_stringbufIcSt11char_traitsIcESaIcEEE]
	add	x1, x20, 24
	ldr	x0, [sp, 192]
	add	x22, x22, 16
	add	x20, x20, 64
	stp	x1, x22, [sp, 112]
	str	x20, [sp, 224]
	cmp	x0, x28
	beq	.L326
	ldr	x1, [sp, 208]
	add	x1, x1, 1
	bl	_ZdlPvm
.L326:
	adrp	x0, :got:_ZTVSt15basic_streambufIcSt11char_traitsIcEE
	ldr	x1, [x0, #:got_lo12:_ZTVSt15basic_streambufIcSt11char_traitsIcEE]
	mov	x0, x27
	add	x1, x1, 16
	str	x1, [sp, 120]
	bl	_ZNSt6localeD1Ev
	ldr	x1, [x24, -24]
	str	x24, [sp, 112]
	ldr	x21, [x21, #:got_lo12:_ZTVSt9basic_iosIcSt11char_traitsIcEE]
	mov	x0, x25
	str	x26, [x23, x1]
	add	x21, x21, 16
	str	x21, [sp, 224]
	bl	_ZNSt8ios_baseD2Ev
	adrp	x0, :got:__stack_chk_guard
	ldr	x0, [x0, #:got_lo12:__stack_chk_guard]
	ldr	x2, [sp, 488]
	ldr	x1, [x0]
	subs	x2, x2, x1
	mov	x1, 0
	bne	.L341
	mov	x0, x19
	ldp	x19, x20, [sp, 16]
	ldp	x21, x22, [sp, 32]
	ldp	x23, x24, [sp, 48]
	ldp	x25, x26, [sp, 64]
	ldp	x27, x28, [sp, 80]
	ldp	x29, x30, [sp], 496
	.cfi_remember_state
	.cfi_restore 30
	.cfi_restore 29
	.cfi_restore 27
	.cfi_restore 28
	.cfi_restore 25
	.cfi_restore 26
	.cfi_restore 23
	.cfi_restore 24
	.cfi_restore 21
	.cfi_restore 22
	.cfi_restore 19
	.cfi_restore 20
	.cfi_def_cfa_offset 0
	ret
	.p2align 2,,3
.L323:
	.cfi_restore_state
	add	x1, sp, 192
	mov	x0, x19
	bl	_ZNSt7__cxx1112basic_stringIcSt11char_traitsIcESaIcEE9_M_assignERKS4_
.LEHE48:
	b	.L327
.L341:
	bl	__stack_chk_fail
.L332:
	mov	x20, x0
.L330:
	mov	x0, x23
	bl	_ZNSt7__cxx1119basic_ostringstreamIcSt11char_traitsIcESaIcEED1Ev
	mov	x0, x20
.LEHB49:
	bl	_Unwind_Resume
.L335:
	mov	x20, x0
	ldr	x2, [x19]
	ldr	x0, [sp, 96]
	cmp	x0, x2
	beq	.L330
	ldr	x1, [x19, 16]
	mov	x0, x2
	add	x1, x1, 1
	bl	_ZdlPvm
	b	.L330
.L334:
	mov	x19, x0
	ldr	x0, [sp, 96]
	bl	_ZNSt7__cxx1115basic_stringbufIcSt11char_traitsIcESaIcEED1Ev
	ldr	x0, [x24, -24]
	str	x24, [sp, 112]
	str	x26, [x23, x0]
.L322:
	ldr	x1, [x21, #:got_lo12:_ZTVSt9basic_iosIcSt11char_traitsIcEE]
	mov	x0, x25
	add	x1, x1, 16
	str	x1, [sp, 224]
	bl	_ZNSt8ios_baseD2Ev
	mov	x0, x19
	bl	_Unwind_Resume
.LEHE49:
.L333:
	mov	x19, x0
	b	.L322
	.cfi_endproc
.LFE3428:
	.section	.gcc_except_table._ZN8asiodnp318PrintingSOEHandler13ValueToStringIN8opendnp318AnalogOutputStatusEEENSt7__cxx1112basic_stringIcSt11char_traitsIcESaIcEEERKT_,"aG",@progbits,_ZN8asiodnp318PrintingSOEHandler13ValueToStringIN8opendnp318AnalogOutputStatusEEENSt7__cxx1112basic_stringIcSt11char_traitsIcESaIcEEERKT_,comdat
.LLSDA3428:
	.byte	0xff
	.byte	0xff
	.byte	0x1
	.uleb128 .LLSDACSE3428-.LLSDACSB3428
.LLSDACSB3428:
	.uleb128 .LEHB45-.LFB3428
	.uleb128 .LEHE45-.LEHB45
	.uleb128 .L333-.LFB3428
	.uleb128 0
	.uleb128 .LEHB46-.LFB3428
	.uleb128 .LEHE46-.LEHB46
	.uleb128 .L334-.LFB3428
	.uleb128 0
	.uleb128 .LEHB47-.LFB3428
	.uleb128 .LEHE47-.LEHB47
	.uleb128 .L332-.LFB3428
	.uleb128 0
	.uleb128 .LEHB48-.LFB3428
	.uleb128 .LEHE48-.LEHB48
	.uleb128 .L335-.LFB3428
	.uleb128 0
	.uleb128 .LEHB49-.LFB3428
	.uleb128 .LEHE49-.LEHB49
	.uleb128 0
	.uleb128 0
.LLSDACSE3428:
	.section	.text._ZN8asiodnp318PrintingSOEHandler13ValueToStringIN8opendnp318AnalogOutputStatusEEENSt7__cxx1112basic_stringIcSt11char_traitsIcESaIcEEERKT_,"axG",@progbits,_ZN8asiodnp318PrintingSOEHandler13ValueToStringIN8opendnp318AnalogOutputStatusEEENSt7__cxx1112basic_stringIcSt11char_traitsIcESaIcEEERKT_,comdat
	.size	_ZN8asiodnp318PrintingSOEHandler13ValueToStringIN8opendnp318AnalogOutputStatusEEENSt7__cxx1112basic_stringIcSt11char_traitsIcESaIcEEERKT_, .-_ZN8asiodnp318PrintingSOEHandler13ValueToStringIN8opendnp318AnalogOutputStatusEEENSt7__cxx1112basic_stringIcSt11char_traitsIcESaIcEEERKT_
	.section	.text._ZN8opendnp314FunctorVisitorINS_7IndexedINS_18AnalogOutputStatusEEEZN8asiodnp318PrintingSOEHandler8PrintAllIS2_EEvRKNS_10HeaderInfoERKNS_11ICollectionINS1_IT_EEEEEUlRKS3_E_E7OnValueESH_,"axG",@progbits,_ZN8opendnp314FunctorVisitorINS_7IndexedINS_18AnalogOutputStatusEEEZN8asiodnp318PrintingSOEHandler8PrintAllIS2_EEvRKNS_10HeaderInfoERKNS_11ICollectionINS1_IT_EEEEEUlRKS3_E_E7OnValueESH_,comdat
	.align	2
	.p2align 4,,11
	.weak	_ZN8opendnp314FunctorVisitorINS_7IndexedINS_18AnalogOutputStatusEEEZN8asiodnp318PrintingSOEHandler8PrintAllIS2_EEvRKNS_10HeaderInfoERKNS_11ICollectionINS1_IT_EEEEEUlRKS3_E_E7OnValueESH_
	.type	_ZN8opendnp314FunctorVisitorINS_7IndexedINS_18AnalogOutputStatusEEEZN8asiodnp318PrintingSOEHandler8PrintAllIS2_EEvRKNS_10HeaderInfoERKNS_11ICollectionINS1_IT_EEEEEUlRKS3_E_E7OnValueESH_, %function
_ZN8opendnp314FunctorVisitorINS_7IndexedINS_18AnalogOutputStatusEEEZN8asiodnp318PrintingSOEHandler8PrintAllIS2_EEvRKNS_10HeaderInfoERKNS_11ICollectionINS1_IT_EEEEEUlRKS3_E_E7OnValueESH_:
.LFB3658:
	.cfi_startproc
	.cfi_personality 0x9b,DW.ref.__gxx_personality_v0
	.cfi_lsda 0x1b,.LLSDA3658
	stp	x29, x30, [sp, -96]!
	.cfi_def_cfa_offset 96
	.cfi_offset 29, -96
	.cfi_offset 30, -88
	adrp	x0, :got:__stack_chk_guard
	mov	x2, 1
	mov	x29, sp
	stp	x19, x20, [sp, 16]
	.cfi_offset 19, -80
	.cfi_offset 20, -72
	adrp	x20, :got:_ZSt4cout
	mov	x19, x1
	ldr	x0, [x0, #:got_lo12:__stack_chk_guard]
	str	x21, [sp, 32]
	.cfi_offset 21, -64
	ldr	x20, [x20, #:got_lo12:_ZSt4cout]
	ldr	x1, [x0]
	str	x1, [sp, 88]
	mov	x1, 0
	ldrh	w21, [x19, 24]
	adrp	x1, .LC0
	mov	x0, x20
	add	x1, x1, :lo12:.LC0
.LEHB50:
	bl	_ZSt16__ostream_insertIcSt11char_traitsIcEERSt13basic_ostreamIT_T0_ES6_PKS3_l
	and	x1, x21, 65535
	mov	x0, x20
	bl	_ZNSo9_M_insertImEERSoT_
	mov	x20, x0
	adrp	x1, .LC1
	add	x1, x1, :lo12:.LC1
	mov	x2, 4
	bl	_ZSt16__ostream_insertIcSt11char_traitsIcEERSt13basic_ostreamIT_T0_ES6_PKS3_l
	mov	x0, x19
	add	x8, sp, 56
	bl	_ZN8asiodnp318PrintingSOEHandler13ValueToStringIN8opendnp318AnalogOutputStatusEEENSt7__cxx1112basic_stringIcSt11char_traitsIcESaIcEEERKT_
.LEHE50:
	ldp	x1, x2, [sp, 56]
	mov	x0, x20
.LEHB51:
	bl	_ZSt16__ostream_insertIcSt11char_traitsIcEERSt13basic_ostreamIT_T0_ES6_PKS3_l
	adrp	x21, .LC3
	mov	x20, x0
	add	x1, x21, :lo12:.LC3
	mov	x2, 3
	bl	_ZSt16__ostream_insertIcSt11char_traitsIcEERSt13basic_ostreamIT_T0_ES6_PKS3_l
	ldrb	w1, [x19]
	mov	x0, x20
	bl	_ZNSolsEi
	add	x1, x21, :lo12:.LC3
	mov	x20, x0
	mov	x2, 3
	bl	_ZSt16__ostream_insertIcSt11char_traitsIcEERSt13basic_ostreamIT_T0_ES6_PKS3_l
	ldr	x1, [x19, 8]
	mov	x0, x20
	bl	_ZNSo9_M_insertIlEERSoT_
	mov	x19, x0
	ldr	x0, [x0]
	ldr	x0, [x0, -24]
	add	x0, x19, x0
	ldr	x20, [x0, 240]
	cbz	x20, .L353
	ldrb	w0, [x20, 56]
	cbz	w0, .L344
	ldrb	w1, [x20, 67]
.L345:
	mov	x0, x19
	bl	_ZNSo3putEc
	bl	_ZNSo5flushEv
	ldr	x0, [sp, 56]
	add	x1, sp, 72
	cmp	x0, x1
	beq	.L342
	ldr	x1, [sp, 72]
	add	x1, x1, 1
	bl	_ZdlPvm
.L342:
	adrp	x0, :got:__stack_chk_guard
	ldr	x0, [x0, #:got_lo12:__stack_chk_guard]
	ldr	x2, [sp, 88]
	ldr	x1, [x0]
	subs	x2, x2, x1
	mov	x1, 0
	bne	.L354
	ldp	x19, x20, [sp, 16]
	ldr	x21, [sp, 32]
	ldp	x29, x30, [sp], 96
	.cfi_remember_state
	.cfi_restore 30
	.cfi_restore 29
	.cfi_restore 21
	.cfi_restore 19
	.cfi_restore 20
	.cfi_def_cfa_offset 0
	ret
	.p2align 2,,3
.L344:
	.cfi_restore_state
	mov	x0, x20
	bl	_ZNKSt5ctypeIcE13_M_widen_initEv
	ldr	x2, [x20]
	adrp	x0, :got:_ZNKSt5ctypeIcE8do_widenEc
	mov	w1, 10
	ldr	x0, [x0, #:got_lo12:_ZNKSt5ctypeIcE8do_widenEc]
	ldr	x2, [x2, 48]
	cmp	x2, x0
	beq	.L345
	mov	x0, x20
	blr	x2
	and	w1, w0, 255
	b	.L345
.L354:
	bl	__stack_chk_fail
.L353:
	bl	_ZSt16__throw_bad_castv
.LEHE51:
.L351:
	ldr	x2, [sp, 56]
	add	x1, sp, 72
	mov	x19, x0
	cmp	x2, x1
	beq	.L348
	ldr	x1, [sp, 72]
	mov	x0, x2
	add	x1, x1, 1
	bl	_ZdlPvm
.L348:
	mov	x0, x19
.LEHB52:
	bl	_Unwind_Resume
.LEHE52:
	.cfi_endproc
.LFE3658:
	.section	.gcc_except_table._ZN8opendnp314FunctorVisitorINS_7IndexedINS_18AnalogOutputStatusEEEZN8asiodnp318PrintingSOEHandler8PrintAllIS2_EEvRKNS_10HeaderInfoERKNS_11ICollectionINS1_IT_EEEEEUlRKS3_E_E7OnValueESH_,"aG",@progbits,_ZN8opendnp314FunctorVisitorINS_7IndexedINS_18AnalogOutputStatusEEEZN8asiodnp318PrintingSOEHandler8PrintAllIS2_EEvRKNS_10HeaderInfoERKNS_11ICollectionINS1_IT_EEEEEUlRKS3_E_E7OnValueESH_,comdat
.LLSDA3658:
	.byte	0xff
	.byte	0xff
	.byte	0x1
	.uleb128 .LLSDACSE3658-.LLSDACSB3658
.LLSDACSB3658:
	.uleb128 .LEHB50-.LFB3658
	.uleb128 .LEHE50-.LEHB50
	.uleb128 0
	.uleb128 0
	.uleb128 .LEHB51-.LFB3658
	.uleb128 .LEHE51-.LEHB51
	.uleb128 .L351-.LFB3658
	.uleb128 0
	.uleb128 .LEHB52-.LFB3658
	.uleb128 .LEHE52-.LEHB52
	.uleb128 0
	.uleb128 0
.LLSDACSE3658:
	.section	.text._ZN8opendnp314FunctorVisitorINS_7IndexedINS_18AnalogOutputStatusEEEZN8asiodnp318PrintingSOEHandler8PrintAllIS2_EEvRKNS_10HeaderInfoERKNS_11ICollectionINS1_IT_EEEEEUlRKS3_E_E7OnValueESH_,"axG",@progbits,_ZN8opendnp314FunctorVisitorINS_7IndexedINS_18AnalogOutputStatusEEEZN8asiodnp318PrintingSOEHandler8PrintAllIS2_EEvRKNS_10HeaderInfoERKNS_11ICollectionINS1_IT_EEEEEUlRKS3_E_E7OnValueESH_,comdat
	.size	_ZN8opendnp314FunctorVisitorINS_7IndexedINS_18AnalogOutputStatusEEEZN8asiodnp318PrintingSOEHandler8PrintAllIS2_EEvRKNS_10HeaderInfoERKNS_11ICollectionINS1_IT_EEEEEUlRKS3_E_E7OnValueESH_, .-_ZN8opendnp314FunctorVisitorINS_7IndexedINS_18AnalogOutputStatusEEEZN8asiodnp318PrintingSOEHandler8PrintAllIS2_EEvRKNS_10HeaderInfoERKNS_11ICollectionINS1_IT_EEEEEUlRKS3_E_E7OnValueESH_
	.section	.text.startup,"ax",@progbits
	.align	2
	.p2align 4,,11
	.type	_GLOBAL__sub_I_PrintingSOEHandler.cpp, %function
_GLOBAL__sub_I_PrintingSOEHandler.cpp:
.LFB3675:
	.cfi_startproc
	stp	x29, x30, [sp, -32]!
	.cfi_def_cfa_offset 32
	.cfi_offset 29, -32
	.cfi_offset 30, -24
	mov	x29, sp
	str	x19, [sp, 16]
	.cfi_offset 19, -16
	adrp	x19, .LANCHOR1
	add	x19, x19, :lo12:.LANCHOR1
	mov	x0, x19
	bl	_ZNSt8ios_base4InitC1Ev
	mov	x1, x19
	adrp	x0, :got:_ZNSt8ios_base4InitD1Ev
	ldr	x19, [sp, 16]
	adrp	x2, __dso_handle
	ldp	x29, x30, [sp], 32
	.cfi_restore 30
	.cfi_restore 29
	.cfi_restore 19
	.cfi_def_cfa_offset 0
	add	x2, x2, :lo12:__dso_handle
	ldr	x0, [x0, #:got_lo12:_ZNSt8ios_base4InitD1Ev]
	b	__cxa_atexit
	.cfi_endproc
.LFE3675:
	.size	_GLOBAL__sub_I_PrintingSOEHandler.cpp, .-_GLOBAL__sub_I_PrintingSOEHandler.cpp
	.section	.init_array,"aw"
	.align	3
	.xword	_GLOBAL__sub_I_PrintingSOEHandler.cpp
	.weak	_ZTSN8opendnp313ITransactableE
	.section	.rodata._ZTSN8opendnp313ITransactableE,"aG",@progbits,_ZTSN8opendnp313ITransactableE,comdat
	.align	3
	.type	_ZTSN8opendnp313ITransactableE, %object
	.size	_ZTSN8opendnp313ITransactableE, 27
_ZTSN8opendnp313ITransactableE:
	.string	"N8opendnp313ITransactableE"
	.weak	_ZTIN8opendnp313ITransactableE
	.section	.data.rel.ro._ZTIN8opendnp313ITransactableE,"awG",@progbits,_ZTIN8opendnp313ITransactableE,comdat
	.align	3
	.type	_ZTIN8opendnp313ITransactableE, %object
	.size	_ZTIN8opendnp313ITransactableE, 16
_ZTIN8opendnp313ITransactableE:
	.xword	_ZTVN10__cxxabiv117__class_type_infoE+16
	.xword	_ZTSN8opendnp313ITransactableE
	.weak	_ZTSN8opendnp311ISOEHandlerE
	.section	.rodata._ZTSN8opendnp311ISOEHandlerE,"aG",@progbits,_ZTSN8opendnp311ISOEHandlerE,comdat
	.align	3
	.type	_ZTSN8opendnp311ISOEHandlerE, %object
	.size	_ZTSN8opendnp311ISOEHandlerE, 25
_ZTSN8opendnp311ISOEHandlerE:
	.string	"N8opendnp311ISOEHandlerE"
	.weak	_ZTIN8opendnp311ISOEHandlerE
	.section	.data.rel.ro._ZTIN8opendnp311ISOEHandlerE,"awG",@progbits,_ZTIN8opendnp311ISOEHandlerE,comdat
	.align	3
	.type	_ZTIN8opendnp311ISOEHandlerE, %object
	.size	_ZTIN8opendnp311ISOEHandlerE, 24
_ZTIN8opendnp311ISOEHandlerE:
	.xword	_ZTVN10__cxxabiv120__si_class_type_infoE+16
	.xword	_ZTSN8opendnp311ISOEHandlerE
	.xword	_ZTIN8opendnp313ITransactableE
	.weak	_ZTSN8asiodnp318PrintingSOEHandlerE
	.section	.rodata._ZTSN8asiodnp318PrintingSOEHandlerE,"aG",@progbits,_ZTSN8asiodnp318PrintingSOEHandlerE,comdat
	.align	3
	.type	_ZTSN8asiodnp318PrintingSOEHandlerE, %object
	.size	_ZTSN8asiodnp318PrintingSOEHandlerE, 32
_ZTSN8asiodnp318PrintingSOEHandlerE:
	.string	"N8asiodnp318PrintingSOEHandlerE"
	.weak	_ZTIN8asiodnp318PrintingSOEHandlerE
	.section	.data.rel.ro._ZTIN8asiodnp318PrintingSOEHandlerE,"awG",@progbits,_ZTIN8asiodnp318PrintingSOEHandlerE,comdat
	.align	3
	.type	_ZTIN8asiodnp318PrintingSOEHandlerE, %object
	.size	_ZTIN8asiodnp318PrintingSOEHandlerE, 24
_ZTIN8asiodnp318PrintingSOEHandlerE:
	.xword	_ZTVN10__cxxabiv120__si_class_type_infoE+16
	.xword	_ZTSN8asiodnp318PrintingSOEHandlerE
	.xword	_ZTIN8opendnp311ISOEHandlerE
	.weak	_ZTSN8opendnp38IVisitorINS_7IndexedINS_11OctetStringEEEEE
	.section	.rodata._ZTSN8opendnp38IVisitorINS_7IndexedINS_11OctetStringEEEEE,"aG",@progbits,_ZTSN8opendnp38IVisitorINS_7IndexedINS_11OctetStringEEEEE,comdat
	.align	3
	.type	_ZTSN8opendnp38IVisitorINS_7IndexedINS_11OctetStringEEEEE, %object
	.size	_ZTSN8opendnp38IVisitorINS_7IndexedINS_11OctetStringEEEEE, 54
_ZTSN8opendnp38IVisitorINS_7IndexedINS_11OctetStringEEEEE:
	.string	"N8opendnp38IVisitorINS_7IndexedINS_11OctetStringEEEEE"
	.weak	_ZTIN8opendnp38IVisitorINS_7IndexedINS_11OctetStringEEEEE
	.section	.data.rel.ro._ZTIN8opendnp38IVisitorINS_7IndexedINS_11OctetStringEEEEE,"awG",@progbits,_ZTIN8opendnp38IVisitorINS_7IndexedINS_11OctetStringEEEEE,comdat
	.align	3
	.type	_ZTIN8opendnp38IVisitorINS_7IndexedINS_11OctetStringEEEEE, %object
	.size	_ZTIN8opendnp38IVisitorINS_7IndexedINS_11OctetStringEEEEE, 16
_ZTIN8opendnp38IVisitorINS_7IndexedINS_11OctetStringEEEEE:
	.xword	_ZTVN10__cxxabiv117__class_type_infoE+16
	.xword	_ZTSN8opendnp38IVisitorINS_7IndexedINS_11OctetStringEEEEE
	.weak	_ZTSN8opendnp38IVisitorINS_7IndexedINS_15TimeAndIntervalEEEEE
	.section	.rodata._ZTSN8opendnp38IVisitorINS_7IndexedINS_15TimeAndIntervalEEEEE,"aG",@progbits,_ZTSN8opendnp38IVisitorINS_7IndexedINS_15TimeAndIntervalEEEEE,comdat
	.align	3
	.type	_ZTSN8opendnp38IVisitorINS_7IndexedINS_15TimeAndIntervalEEEEE, %object
	.size	_ZTSN8opendnp38IVisitorINS_7IndexedINS_15TimeAndIntervalEEEEE, 58
_ZTSN8opendnp38IVisitorINS_7IndexedINS_15TimeAndIntervalEEEEE:
	.string	"N8opendnp38IVisitorINS_7IndexedINS_15TimeAndIntervalEEEEE"
	.weak	_ZTIN8opendnp38IVisitorINS_7IndexedINS_15TimeAndIntervalEEEEE
	.section	.data.rel.ro._ZTIN8opendnp38IVisitorINS_7IndexedINS_15TimeAndIntervalEEEEE,"awG",@progbits,_ZTIN8opendnp38IVisitorINS_7IndexedINS_15TimeAndIntervalEEEEE,comdat
	.align	3
	.type	_ZTIN8opendnp38IVisitorINS_7IndexedINS_15TimeAndIntervalEEEEE, %object
	.size	_ZTIN8opendnp38IVisitorINS_7IndexedINS_15TimeAndIntervalEEEEE, 16
_ZTIN8opendnp38IVisitorINS_7IndexedINS_15TimeAndIntervalEEEEE:
	.xword	_ZTVN10__cxxabiv117__class_type_infoE+16
	.xword	_ZTSN8opendnp38IVisitorINS_7IndexedINS_15TimeAndIntervalEEEEE
	.weak	_ZTSN8opendnp38IVisitorINS_7IndexedINS_18BinaryCommandEventEEEEE
	.section	.rodata._ZTSN8opendnp38IVisitorINS_7IndexedINS_18BinaryCommandEventEEEEE,"aG",@progbits,_ZTSN8opendnp38IVisitorINS_7IndexedINS_18BinaryCommandEventEEEEE,comdat
	.align	3
	.type	_ZTSN8opendnp38IVisitorINS_7IndexedINS_18BinaryCommandEventEEEEE, %object
	.size	_ZTSN8opendnp38IVisitorINS_7IndexedINS_18BinaryCommandEventEEEEE, 61
_ZTSN8opendnp38IVisitorINS_7IndexedINS_18BinaryCommandEventEEEEE:
	.string	"N8opendnp38IVisitorINS_7IndexedINS_18BinaryCommandEventEEEEE"
	.weak	_ZTIN8opendnp38IVisitorINS_7IndexedINS_18BinaryCommandEventEEEEE
	.section	.data.rel.ro._ZTIN8opendnp38IVisitorINS_7IndexedINS_18BinaryCommandEventEEEEE,"awG",@progbits,_ZTIN8opendnp38IVisitorINS_7IndexedINS_18BinaryCommandEventEEEEE,comdat
	.align	3
	.type	_ZTIN8opendnp38IVisitorINS_7IndexedINS_18BinaryCommandEventEEEEE, %object
	.size	_ZTIN8opendnp38IVisitorINS_7IndexedINS_18BinaryCommandEventEEEEE, 16
_ZTIN8opendnp38IVisitorINS_7IndexedINS_18BinaryCommandEventEEEEE:
	.xword	_ZTVN10__cxxabiv117__class_type_infoE+16
	.xword	_ZTSN8opendnp38IVisitorINS_7IndexedINS_18BinaryCommandEventEEEEE
	.weak	_ZTSN8opendnp38IVisitorINS_7IndexedINS_18AnalogCommandEventEEEEE
	.section	.rodata._ZTSN8opendnp38IVisitorINS_7IndexedINS_18AnalogCommandEventEEEEE,"aG",@progbits,_ZTSN8opendnp38IVisitorINS_7IndexedINS_18AnalogCommandEventEEEEE,comdat
	.align	3
	.type	_ZTSN8opendnp38IVisitorINS_7IndexedINS_18AnalogCommandEventEEEEE, %object
	.size	_ZTSN8opendnp38IVisitorINS_7IndexedINS_18AnalogCommandEventEEEEE, 61
_ZTSN8opendnp38IVisitorINS_7IndexedINS_18AnalogCommandEventEEEEE:
	.string	"N8opendnp38IVisitorINS_7IndexedINS_18AnalogCommandEventEEEEE"
	.weak	_ZTIN8opendnp38IVisitorINS_7IndexedINS_18AnalogCommandEventEEEEE
	.section	.data.rel.ro._ZTIN8opendnp38IVisitorINS_7IndexedINS_18AnalogCommandEventEEEEE,"awG",@progbits,_ZTIN8opendnp38IVisitorINS_7IndexedINS_18AnalogCommandEventEEEEE,comdat
	.align	3
	.type	_ZTIN8opendnp38IVisitorINS_7IndexedINS_18AnalogCommandEventEEEEE, %object
	.size	_ZTIN8opendnp38IVisitorINS_7IndexedINS_18AnalogCommandEventEEEEE, 16
_ZTIN8opendnp38IVisitorINS_7IndexedINS_18AnalogCommandEventEEEEE:
	.xword	_ZTVN10__cxxabiv117__class_type_infoE+16
	.xword	_ZTSN8opendnp38IVisitorINS_7IndexedINS_18AnalogCommandEventEEEEE
	.weak	_ZTSN8opendnp38IVisitorINS_7IndexedINS_12SecurityStatEEEEE
	.section	.rodata._ZTSN8opendnp38IVisitorINS_7IndexedINS_12SecurityStatEEEEE,"aG",@progbits,_ZTSN8opendnp38IVisitorINS_7IndexedINS_12SecurityStatEEEEE,comdat
	.align	3
	.type	_ZTSN8opendnp38IVisitorINS_7IndexedINS_12SecurityStatEEEEE, %object
	.size	_ZTSN8opendnp38IVisitorINS_7IndexedINS_12SecurityStatEEEEE, 55
_ZTSN8opendnp38IVisitorINS_7IndexedINS_12SecurityStatEEEEE:
	.string	"N8opendnp38IVisitorINS_7IndexedINS_12SecurityStatEEEEE"
	.weak	_ZTIN8opendnp38IVisitorINS_7IndexedINS_12SecurityStatEEEEE
	.section	.data.rel.ro._ZTIN8opendnp38IVisitorINS_7IndexedINS_12SecurityStatEEEEE,"awG",@progbits,_ZTIN8opendnp38IVisitorINS_7IndexedINS_12SecurityStatEEEEE,comdat
	.align	3
	.type	_ZTIN8opendnp38IVisitorINS_7IndexedINS_12SecurityStatEEEEE, %object
	.size	_ZTIN8opendnp38IVisitorINS_7IndexedINS_12SecurityStatEEEEE, 16
_ZTIN8opendnp38IVisitorINS_7IndexedINS_12SecurityStatEEEEE:
	.xword	_ZTVN10__cxxabiv117__class_type_infoE+16
	.xword	_ZTSN8opendnp38IVisitorINS_7IndexedINS_12SecurityStatEEEEE
	.weak	_ZTSN8opendnp38IVisitorIN7openpal10UInt48TypeEEE
	.section	.rodata._ZTSN8opendnp38IVisitorIN7openpal10UInt48TypeEEE,"aG",@progbits,_ZTSN8opendnp38IVisitorIN7openpal10UInt48TypeEEE,comdat
	.align	3
	.type	_ZTSN8opendnp38IVisitorIN7openpal10UInt48TypeEEE, %object
	.size	_ZTSN8opendnp38IVisitorIN7openpal10UInt48TypeEEE, 45
_ZTSN8opendnp38IVisitorIN7openpal10UInt48TypeEEE:
	.string	"N8opendnp38IVisitorIN7openpal10UInt48TypeEEE"
	.weak	_ZTIN8opendnp38IVisitorIN7openpal10UInt48TypeEEE
	.section	.data.rel.ro._ZTIN8opendnp38IVisitorIN7openpal10UInt48TypeEEE,"awG",@progbits,_ZTIN8opendnp38IVisitorIN7openpal10UInt48TypeEEE,comdat
	.align	3
	.type	_ZTIN8opendnp38IVisitorIN7openpal10UInt48TypeEEE, %object
	.size	_ZTIN8opendnp38IVisitorIN7openpal10UInt48TypeEEE, 16
_ZTIN8opendnp38IVisitorIN7openpal10UInt48TypeEEE:
	.xword	_ZTVN10__cxxabiv117__class_type_infoE+16
	.xword	_ZTSN8opendnp38IVisitorIN7openpal10UInt48TypeEEE
	.weak	_ZTSN8opendnp38IVisitorINS_7IndexedINS_6BinaryEEEEE
	.section	.rodata._ZTSN8opendnp38IVisitorINS_7IndexedINS_6BinaryEEEEE,"aG",@progbits,_ZTSN8opendnp38IVisitorINS_7IndexedINS_6BinaryEEEEE,comdat
	.align	3
	.type	_ZTSN8opendnp38IVisitorINS_7IndexedINS_6BinaryEEEEE, %object
	.size	_ZTSN8opendnp38IVisitorINS_7IndexedINS_6BinaryEEEEE, 48
_ZTSN8opendnp38IVisitorINS_7IndexedINS_6BinaryEEEEE:
	.string	"N8opendnp38IVisitorINS_7IndexedINS_6BinaryEEEEE"
	.weak	_ZTIN8opendnp38IVisitorINS_7IndexedINS_6BinaryEEEEE
	.section	.data.rel.ro._ZTIN8opendnp38IVisitorINS_7IndexedINS_6BinaryEEEEE,"awG",@progbits,_ZTIN8opendnp38IVisitorINS_7IndexedINS_6BinaryEEEEE,comdat
	.align	3
	.type	_ZTIN8opendnp38IVisitorINS_7IndexedINS_6BinaryEEEEE, %object
	.size	_ZTIN8opendnp38IVisitorINS_7IndexedINS_6BinaryEEEEE, 16
_ZTIN8opendnp38IVisitorINS_7IndexedINS_6BinaryEEEEE:
	.xword	_ZTVN10__cxxabiv117__class_type_infoE+16
	.xword	_ZTSN8opendnp38IVisitorINS_7IndexedINS_6BinaryEEEEE
	.weak	_ZTSN8opendnp314FunctorVisitorINS_7IndexedINS_6BinaryEEEZN8asiodnp318PrintingSOEHandler8PrintAllIS2_EEvRKNS_10HeaderInfoERKNS_11ICollectionINS1_IT_EEEEEUlRKS3_E_EE
	.section	.rodata._ZTSN8opendnp314FunctorVisitorINS_7IndexedINS_6BinaryEEEZN8asiodnp318PrintingSOEHandler8PrintAllIS2_EEvRKNS_10HeaderInfoERKNS_11ICollectionINS1_IT_EEEEEUlRKS3_E_EE,"aG",@progbits,_ZTSN8opendnp314FunctorVisitorINS_7IndexedINS_6BinaryEEEZN8asiodnp318PrintingSOEHandler8PrintAllIS2_EEvRKNS_10HeaderInfoERKNS_11ICollectionINS1_IT_EEEEEUlRKS3_E_EE,comdat
	.align	3
	.type	_ZTSN8opendnp314FunctorVisitorINS_7IndexedINS_6BinaryEEEZN8asiodnp318PrintingSOEHandler8PrintAllIS2_EEvRKNS_10HeaderInfoERKNS_11ICollectionINS1_IT_EEEEEUlRKS3_E_EE, %object
	.size	_ZTSN8opendnp314FunctorVisitorINS_7IndexedINS_6BinaryEEEZN8asiodnp318PrintingSOEHandler8PrintAllIS2_EEvRKNS_10HeaderInfoERKNS_11ICollectionINS1_IT_EEEEEUlRKS3_E_EE, 160
_ZTSN8opendnp314FunctorVisitorINS_7IndexedINS_6BinaryEEEZN8asiodnp318PrintingSOEHandler8PrintAllIS2_EEvRKNS_10HeaderInfoERKNS_11ICollectionINS1_IT_EEEEEUlRKS3_E_EE:
	.string	"N8opendnp314FunctorVisitorINS_7IndexedINS_6BinaryEEEZN8asiodnp318PrintingSOEHandler8PrintAllIS2_EEvRKNS_10HeaderInfoERKNS_11ICollectionINS1_IT_EEEEEUlRKS3_E_EE"
	.weak	_ZTIN8opendnp314FunctorVisitorINS_7IndexedINS_6BinaryEEEZN8asiodnp318PrintingSOEHandler8PrintAllIS2_EEvRKNS_10HeaderInfoERKNS_11ICollectionINS1_IT_EEEEEUlRKS3_E_EE
	.section	.data.rel.ro._ZTIN8opendnp314FunctorVisitorINS_7IndexedINS_6BinaryEEEZN8asiodnp318PrintingSOEHandler8PrintAllIS2_EEvRKNS_10HeaderInfoERKNS_11ICollectionINS1_IT_EEEEEUlRKS3_E_EE,"awG",@progbits,_ZTIN8opendnp314FunctorVisitorINS_7IndexedINS_6BinaryEEEZN8asiodnp318PrintingSOEHandler8PrintAllIS2_EEvRKNS_10HeaderInfoERKNS_11ICollectionINS1_IT_EEEEEUlRKS3_E_EE,comdat
	.align	3
	.type	_ZTIN8opendnp314FunctorVisitorINS_7IndexedINS_6BinaryEEEZN8asiodnp318PrintingSOEHandler8PrintAllIS2_EEvRKNS_10HeaderInfoERKNS_11ICollectionINS1_IT_EEEEEUlRKS3_E_EE, %object
	.size	_ZTIN8opendnp314FunctorVisitorINS_7IndexedINS_6BinaryEEEZN8asiodnp318PrintingSOEHandler8PrintAllIS2_EEvRKNS_10HeaderInfoERKNS_11ICollectionINS1_IT_EEEEEUlRKS3_E_EE, 24
_ZTIN8opendnp314FunctorVisitorINS_7IndexedINS_6BinaryEEEZN8asiodnp318PrintingSOEHandler8PrintAllIS2_EEvRKNS_10HeaderInfoERKNS_11ICollectionINS1_IT_EEEEEUlRKS3_E_EE:
	.xword	_ZTVN10__cxxabiv120__si_class_type_infoE+16
	.xword	_ZTSN8opendnp314FunctorVisitorINS_7IndexedINS_6BinaryEEEZN8asiodnp318PrintingSOEHandler8PrintAllIS2_EEvRKNS_10HeaderInfoERKNS_11ICollectionINS1_IT_EEEEEUlRKS3_E_EE
	.xword	_ZTIN8opendnp38IVisitorINS_7IndexedINS_6BinaryEEEEE
	.weak	_ZTSN8opendnp38IVisitorINS_7IndexedINS_15DoubleBitBinaryEEEEE
	.section	.rodata._ZTSN8opendnp38IVisitorINS_7IndexedINS_15DoubleBitBinaryEEEEE,"aG",@progbits,_ZTSN8opendnp38IVisitorINS_7IndexedINS_15DoubleBitBinaryEEEEE,comdat
	.align	3
	.type	_ZTSN8opendnp38IVisitorINS_7IndexedINS_15DoubleBitBinaryEEEEE, %object
	.size	_ZTSN8opendnp38IVisitorINS_7IndexedINS_15DoubleBitBinaryEEEEE, 58
_ZTSN8opendnp38IVisitorINS_7IndexedINS_15DoubleBitBinaryEEEEE:
	.string	"N8opendnp38IVisitorINS_7IndexedINS_15DoubleBitBinaryEEEEE"
	.weak	_ZTIN8opendnp38IVisitorINS_7IndexedINS_15DoubleBitBinaryEEEEE
	.section	.data.rel.ro._ZTIN8opendnp38IVisitorINS_7IndexedINS_15DoubleBitBinaryEEEEE,"awG",@progbits,_ZTIN8opendnp38IVisitorINS_7IndexedINS_15DoubleBitBinaryEEEEE,comdat
	.align	3
	.type	_ZTIN8opendnp38IVisitorINS_7IndexedINS_15DoubleBitBinaryEEEEE, %object
	.size	_ZTIN8opendnp38IVisitorINS_7IndexedINS_15DoubleBitBinaryEEEEE, 16
_ZTIN8opendnp38IVisitorINS_7IndexedINS_15DoubleBitBinaryEEEEE:
	.xword	_ZTVN10__cxxabiv117__class_type_infoE+16
	.xword	_ZTSN8opendnp38IVisitorINS_7IndexedINS_15DoubleBitBinaryEEEEE
	.weak	_ZTSN8opendnp314FunctorVisitorINS_7IndexedINS_15DoubleBitBinaryEEEZN8asiodnp318PrintingSOEHandler8PrintAllIS2_EEvRKNS_10HeaderInfoERKNS_11ICollectionINS1_IT_EEEEEUlRKS3_E_EE
	.section	.rodata._ZTSN8opendnp314FunctorVisitorINS_7IndexedINS_15DoubleBitBinaryEEEZN8asiodnp318PrintingSOEHandler8PrintAllIS2_EEvRKNS_10HeaderInfoERKNS_11ICollectionINS1_IT_EEEEEUlRKS3_E_EE,"aG",@progbits,_ZTSN8opendnp314FunctorVisitorINS_7IndexedINS_15DoubleBitBinaryEEEZN8asiodnp318PrintingSOEHandler8PrintAllIS2_EEvRKNS_10HeaderInfoERKNS_11ICollectionINS1_IT_EEEEEUlRKS3_E_EE,comdat
	.align	3
	.type	_ZTSN8opendnp314FunctorVisitorINS_7IndexedINS_15DoubleBitBinaryEEEZN8asiodnp318PrintingSOEHandler8PrintAllIS2_EEvRKNS_10HeaderInfoERKNS_11ICollectionINS1_IT_EEEEEUlRKS3_E_EE, %object
	.size	_ZTSN8opendnp314FunctorVisitorINS_7IndexedINS_15DoubleBitBinaryEEEZN8asiodnp318PrintingSOEHandler8PrintAllIS2_EEvRKNS_10HeaderInfoERKNS_11ICollectionINS1_IT_EEEEEUlRKS3_E_EE, 170
_ZTSN8opendnp314FunctorVisitorINS_7IndexedINS_15DoubleBitBinaryEEEZN8asiodnp318PrintingSOEHandler8PrintAllIS2_EEvRKNS_10HeaderInfoERKNS_11ICollectionINS1_IT_EEEEEUlRKS3_E_EE:
	.string	"N8opendnp314FunctorVisitorINS_7IndexedINS_15DoubleBitBinaryEEEZN8asiodnp318PrintingSOEHandler8PrintAllIS2_EEvRKNS_10HeaderInfoERKNS_11ICollectionINS1_IT_EEEEEUlRKS3_E_EE"
	.weak	_ZTIN8opendnp314FunctorVisitorINS_7IndexedINS_15DoubleBitBinaryEEEZN8asiodnp318PrintingSOEHandler8PrintAllIS2_EEvRKNS_10HeaderInfoERKNS_11ICollectionINS1_IT_EEEEEUlRKS3_E_EE
	.section	.data.rel.ro._ZTIN8opendnp314FunctorVisitorINS_7IndexedINS_15DoubleBitBinaryEEEZN8asiodnp318PrintingSOEHandler8PrintAllIS2_EEvRKNS_10HeaderInfoERKNS_11ICollectionINS1_IT_EEEEEUlRKS3_E_EE,"awG",@progbits,_ZTIN8opendnp314FunctorVisitorINS_7IndexedINS_15DoubleBitBinaryEEEZN8asiodnp318PrintingSOEHandler8PrintAllIS2_EEvRKNS_10HeaderInfoERKNS_11ICollectionINS1_IT_EEEEEUlRKS3_E_EE,comdat
	.align	3
	.type	_ZTIN8opendnp314FunctorVisitorINS_7IndexedINS_15DoubleBitBinaryEEEZN8asiodnp318PrintingSOEHandler8PrintAllIS2_EEvRKNS_10HeaderInfoERKNS_11ICollectionINS1_IT_EEEEEUlRKS3_E_EE, %object
	.size	_ZTIN8opendnp314FunctorVisitorINS_7IndexedINS_15DoubleBitBinaryEEEZN8asiodnp318PrintingSOEHandler8PrintAllIS2_EEvRKNS_10HeaderInfoERKNS_11ICollectionINS1_IT_EEEEEUlRKS3_E_EE, 24
_ZTIN8opendnp314FunctorVisitorINS_7IndexedINS_15DoubleBitBinaryEEEZN8asiodnp318PrintingSOEHandler8PrintAllIS2_EEvRKNS_10HeaderInfoERKNS_11ICollectionINS1_IT_EEEEEUlRKS3_E_EE:
	.xword	_ZTVN10__cxxabiv120__si_class_type_infoE+16
	.xword	_ZTSN8opendnp314FunctorVisitorINS_7IndexedINS_15DoubleBitBinaryEEEZN8asiodnp318PrintingSOEHandler8PrintAllIS2_EEvRKNS_10HeaderInfoERKNS_11ICollectionINS1_IT_EEEEEUlRKS3_E_EE
	.xword	_ZTIN8opendnp38IVisitorINS_7IndexedINS_15DoubleBitBinaryEEEEE
	.weak	_ZTSN8opendnp38IVisitorINS_7IndexedINS_6AnalogEEEEE
	.section	.rodata._ZTSN8opendnp38IVisitorINS_7IndexedINS_6AnalogEEEEE,"aG",@progbits,_ZTSN8opendnp38IVisitorINS_7IndexedINS_6AnalogEEEEE,comdat
	.align	3
	.type	_ZTSN8opendnp38IVisitorINS_7IndexedINS_6AnalogEEEEE, %object
	.size	_ZTSN8opendnp38IVisitorINS_7IndexedINS_6AnalogEEEEE, 48
_ZTSN8opendnp38IVisitorINS_7IndexedINS_6AnalogEEEEE:
	.string	"N8opendnp38IVisitorINS_7IndexedINS_6AnalogEEEEE"
	.weak	_ZTIN8opendnp38IVisitorINS_7IndexedINS_6AnalogEEEEE
	.section	.data.rel.ro._ZTIN8opendnp38IVisitorINS_7IndexedINS_6AnalogEEEEE,"awG",@progbits,_ZTIN8opendnp38IVisitorINS_7IndexedINS_6AnalogEEEEE,comdat
	.align	3
	.type	_ZTIN8opendnp38IVisitorINS_7IndexedINS_6AnalogEEEEE, %object
	.size	_ZTIN8opendnp38IVisitorINS_7IndexedINS_6AnalogEEEEE, 16
_ZTIN8opendnp38IVisitorINS_7IndexedINS_6AnalogEEEEE:
	.xword	_ZTVN10__cxxabiv117__class_type_infoE+16
	.xword	_ZTSN8opendnp38IVisitorINS_7IndexedINS_6AnalogEEEEE
	.weak	_ZTSN8opendnp314FunctorVisitorINS_7IndexedINS_6AnalogEEEZN8asiodnp318PrintingSOEHandler8PrintAllIS2_EEvRKNS_10HeaderInfoERKNS_11ICollectionINS1_IT_EEEEEUlRKS3_E_EE
	.section	.rodata._ZTSN8opendnp314FunctorVisitorINS_7IndexedINS_6AnalogEEEZN8asiodnp318PrintingSOEHandler8PrintAllIS2_EEvRKNS_10HeaderInfoERKNS_11ICollectionINS1_IT_EEEEEUlRKS3_E_EE,"aG",@progbits,_ZTSN8opendnp314FunctorVisitorINS_7IndexedINS_6AnalogEEEZN8asiodnp318PrintingSOEHandler8PrintAllIS2_EEvRKNS_10HeaderInfoERKNS_11ICollectionINS1_IT_EEEEEUlRKS3_E_EE,comdat
	.align	3
	.type	_ZTSN8opendnp314FunctorVisitorINS_7IndexedINS_6AnalogEEEZN8asiodnp318PrintingSOEHandler8PrintAllIS2_EEvRKNS_10HeaderInfoERKNS_11ICollectionINS1_IT_EEEEEUlRKS3_E_EE, %object
	.size	_ZTSN8opendnp314FunctorVisitorINS_7IndexedINS_6AnalogEEEZN8asiodnp318PrintingSOEHandler8PrintAllIS2_EEvRKNS_10HeaderInfoERKNS_11ICollectionINS1_IT_EEEEEUlRKS3_E_EE, 160
_ZTSN8opendnp314FunctorVisitorINS_7IndexedINS_6AnalogEEEZN8asiodnp318PrintingSOEHandler8PrintAllIS2_EEvRKNS_10HeaderInfoERKNS_11ICollectionINS1_IT_EEEEEUlRKS3_E_EE:
	.string	"N8opendnp314FunctorVisitorINS_7IndexedINS_6AnalogEEEZN8asiodnp318PrintingSOEHandler8PrintAllIS2_EEvRKNS_10HeaderInfoERKNS_11ICollectionINS1_IT_EEEEEUlRKS3_E_EE"
	.weak	_ZTIN8opendnp314FunctorVisitorINS_7IndexedINS_6AnalogEEEZN8asiodnp318PrintingSOEHandler8PrintAllIS2_EEvRKNS_10HeaderInfoERKNS_11ICollectionINS1_IT_EEEEEUlRKS3_E_EE
	.section	.data.rel.ro._ZTIN8opendnp314FunctorVisitorINS_7IndexedINS_6AnalogEEEZN8asiodnp318PrintingSOEHandler8PrintAllIS2_EEvRKNS_10HeaderInfoERKNS_11ICollectionINS1_IT_EEEEEUlRKS3_E_EE,"awG",@progbits,_ZTIN8opendnp314FunctorVisitorINS_7IndexedINS_6AnalogEEEZN8asiodnp318PrintingSOEHandler8PrintAllIS2_EEvRKNS_10HeaderInfoERKNS_11ICollectionINS1_IT_EEEEEUlRKS3_E_EE,comdat
	.align	3
	.type	_ZTIN8opendnp314FunctorVisitorINS_7IndexedINS_6AnalogEEEZN8asiodnp318PrintingSOEHandler8PrintAllIS2_EEvRKNS_10HeaderInfoERKNS_11ICollectionINS1_IT_EEEEEUlRKS3_E_EE, %object
	.size	_ZTIN8opendnp314FunctorVisitorINS_7IndexedINS_6AnalogEEEZN8asiodnp318PrintingSOEHandler8PrintAllIS2_EEvRKNS_10HeaderInfoERKNS_11ICollectionINS1_IT_EEEEEUlRKS3_E_EE, 24
_ZTIN8opendnp314FunctorVisitorINS_7IndexedINS_6AnalogEEEZN8asiodnp318PrintingSOEHandler8PrintAllIS2_EEvRKNS_10HeaderInfoERKNS_11ICollectionINS1_IT_EEEEEUlRKS3_E_EE:
	.xword	_ZTVN10__cxxabiv120__si_class_type_infoE+16
	.xword	_ZTSN8opendnp314FunctorVisitorINS_7IndexedINS_6AnalogEEEZN8asiodnp318PrintingSOEHandler8PrintAllIS2_EEvRKNS_10HeaderInfoERKNS_11ICollectionINS1_IT_EEEEEUlRKS3_E_EE
	.xword	_ZTIN8opendnp38IVisitorINS_7IndexedINS_6AnalogEEEEE
	.weak	_ZTSN8opendnp38IVisitorINS_7IndexedINS_7CounterEEEEE
	.section	.rodata._ZTSN8opendnp38IVisitorINS_7IndexedINS_7CounterEEEEE,"aG",@progbits,_ZTSN8opendnp38IVisitorINS_7IndexedINS_7CounterEEEEE,comdat
	.align	3
	.type	_ZTSN8opendnp38IVisitorINS_7IndexedINS_7CounterEEEEE, %object
	.size	_ZTSN8opendnp38IVisitorINS_7IndexedINS_7CounterEEEEE, 49
_ZTSN8opendnp38IVisitorINS_7IndexedINS_7CounterEEEEE:
	.string	"N8opendnp38IVisitorINS_7IndexedINS_7CounterEEEEE"
	.weak	_ZTIN8opendnp38IVisitorINS_7IndexedINS_7CounterEEEEE
	.section	.data.rel.ro._ZTIN8opendnp38IVisitorINS_7IndexedINS_7CounterEEEEE,"awG",@progbits,_ZTIN8opendnp38IVisitorINS_7IndexedINS_7CounterEEEEE,comdat
	.align	3
	.type	_ZTIN8opendnp38IVisitorINS_7IndexedINS_7CounterEEEEE, %object
	.size	_ZTIN8opendnp38IVisitorINS_7IndexedINS_7CounterEEEEE, 16
_ZTIN8opendnp38IVisitorINS_7IndexedINS_7CounterEEEEE:
	.xword	_ZTVN10__cxxabiv117__class_type_infoE+16
	.xword	_ZTSN8opendnp38IVisitorINS_7IndexedINS_7CounterEEEEE
	.weak	_ZTSN8opendnp314FunctorVisitorINS_7IndexedINS_7CounterEEEZN8asiodnp318PrintingSOEHandler8PrintAllIS2_EEvRKNS_10HeaderInfoERKNS_11ICollectionINS1_IT_EEEEEUlRKS3_E_EE
	.section	.rodata._ZTSN8opendnp314FunctorVisitorINS_7IndexedINS_7CounterEEEZN8asiodnp318PrintingSOEHandler8PrintAllIS2_EEvRKNS_10HeaderInfoERKNS_11ICollectionINS1_IT_EEEEEUlRKS3_E_EE,"aG",@progbits,_ZTSN8opendnp314FunctorVisitorINS_7IndexedINS_7CounterEEEZN8asiodnp318PrintingSOEHandler8PrintAllIS2_EEvRKNS_10HeaderInfoERKNS_11ICollectionINS1_IT_EEEEEUlRKS3_E_EE,comdat
	.align	3
	.type	_ZTSN8opendnp314FunctorVisitorINS_7IndexedINS_7CounterEEEZN8asiodnp318PrintingSOEHandler8PrintAllIS2_EEvRKNS_10HeaderInfoERKNS_11ICollectionINS1_IT_EEEEEUlRKS3_E_EE, %object
	.size	_ZTSN8opendnp314FunctorVisitorINS_7IndexedINS_7CounterEEEZN8asiodnp318PrintingSOEHandler8PrintAllIS2_EEvRKNS_10HeaderInfoERKNS_11ICollectionINS1_IT_EEEEEUlRKS3_E_EE, 161
_ZTSN8opendnp314FunctorVisitorINS_7IndexedINS_7CounterEEEZN8asiodnp318PrintingSOEHandler8PrintAllIS2_EEvRKNS_10HeaderInfoERKNS_11ICollectionINS1_IT_EEEEEUlRKS3_E_EE:
	.string	"N8opendnp314FunctorVisitorINS_7IndexedINS_7CounterEEEZN8asiodnp318PrintingSOEHandler8PrintAllIS2_EEvRKNS_10HeaderInfoERKNS_11ICollectionINS1_IT_EEEEEUlRKS3_E_EE"
	.weak	_ZTIN8opendnp314FunctorVisitorINS_7IndexedINS_7CounterEEEZN8asiodnp318PrintingSOEHandler8PrintAllIS2_EEvRKNS_10HeaderInfoERKNS_11ICollectionINS1_IT_EEEEEUlRKS3_E_EE
	.section	.data.rel.ro._ZTIN8opendnp314FunctorVisitorINS_7IndexedINS_7CounterEEEZN8asiodnp318PrintingSOEHandler8PrintAllIS2_EEvRKNS_10HeaderInfoERKNS_11ICollectionINS1_IT_EEEEEUlRKS3_E_EE,"awG",@progbits,_ZTIN8opendnp314FunctorVisitorINS_7IndexedINS_7CounterEEEZN8asiodnp318PrintingSOEHandler8PrintAllIS2_EEvRKNS_10HeaderInfoERKNS_11ICollectionINS1_IT_EEEEEUlRKS3_E_EE,comdat
	.align	3
	.type	_ZTIN8opendnp314FunctorVisitorINS_7IndexedINS_7CounterEEEZN8asiodnp318PrintingSOEHandler8PrintAllIS2_EEvRKNS_10HeaderInfoERKNS_11ICollectionINS1_IT_EEEEEUlRKS3_E_EE, %object
	.size	_ZTIN8opendnp314FunctorVisitorINS_7IndexedINS_7CounterEEEZN8asiodnp318PrintingSOEHandler8PrintAllIS2_EEvRKNS_10HeaderInfoERKNS_11ICollectionINS1_IT_EEEEEUlRKS3_E_EE, 24
_ZTIN8opendnp314FunctorVisitorINS_7IndexedINS_7CounterEEEZN8asiodnp318PrintingSOEHandler8PrintAllIS2_EEvRKNS_10HeaderInfoERKNS_11ICollectionINS1_IT_EEEEEUlRKS3_E_EE:
	.xword	_ZTVN10__cxxabiv120__si_class_type_infoE+16
	.xword	_ZTSN8opendnp314FunctorVisitorINS_7IndexedINS_7CounterEEEZN8asiodnp318PrintingSOEHandler8PrintAllIS2_EEvRKNS_10HeaderInfoERKNS_11ICollectionINS1_IT_EEEEEUlRKS3_E_EE
	.xword	_ZTIN8opendnp38IVisitorINS_7IndexedINS_7CounterEEEEE
	.weak	_ZTSN8opendnp38IVisitorINS_7IndexedINS_13FrozenCounterEEEEE
	.section	.rodata._ZTSN8opendnp38IVisitorINS_7IndexedINS_13FrozenCounterEEEEE,"aG",@progbits,_ZTSN8opendnp38IVisitorINS_7IndexedINS_13FrozenCounterEEEEE,comdat
	.align	3
	.type	_ZTSN8opendnp38IVisitorINS_7IndexedINS_13FrozenCounterEEEEE, %object
	.size	_ZTSN8opendnp38IVisitorINS_7IndexedINS_13FrozenCounterEEEEE, 56
_ZTSN8opendnp38IVisitorINS_7IndexedINS_13FrozenCounterEEEEE:
	.string	"N8opendnp38IVisitorINS_7IndexedINS_13FrozenCounterEEEEE"
	.weak	_ZTIN8opendnp38IVisitorINS_7IndexedINS_13FrozenCounterEEEEE
	.section	.data.rel.ro._ZTIN8opendnp38IVisitorINS_7IndexedINS_13FrozenCounterEEEEE,"awG",@progbits,_ZTIN8opendnp38IVisitorINS_7IndexedINS_13FrozenCounterEEEEE,comdat
	.align	3
	.type	_ZTIN8opendnp38IVisitorINS_7IndexedINS_13FrozenCounterEEEEE, %object
	.size	_ZTIN8opendnp38IVisitorINS_7IndexedINS_13FrozenCounterEEEEE, 16
_ZTIN8opendnp38IVisitorINS_7IndexedINS_13FrozenCounterEEEEE:
	.xword	_ZTVN10__cxxabiv117__class_type_infoE+16
	.xword	_ZTSN8opendnp38IVisitorINS_7IndexedINS_13FrozenCounterEEEEE
	.weak	_ZTSN8opendnp314FunctorVisitorINS_7IndexedINS_13FrozenCounterEEEZN8asiodnp318PrintingSOEHandler8PrintAllIS2_EEvRKNS_10HeaderInfoERKNS_11ICollectionINS1_IT_EEEEEUlRKS3_E_EE
	.section	.rodata._ZTSN8opendnp314FunctorVisitorINS_7IndexedINS_13FrozenCounterEEEZN8asiodnp318PrintingSOEHandler8PrintAllIS2_EEvRKNS_10HeaderInfoERKNS_11ICollectionINS1_IT_EEEEEUlRKS3_E_EE,"aG",@progbits,_ZTSN8opendnp314FunctorVisitorINS_7IndexedINS_13FrozenCounterEEEZN8asiodnp318PrintingSOEHandler8PrintAllIS2_EEvRKNS_10HeaderInfoERKNS_11ICollectionINS1_IT_EEEEEUlRKS3_E_EE,comdat
	.align	3
	.type	_ZTSN8opendnp314FunctorVisitorINS_7IndexedINS_13FrozenCounterEEEZN8asiodnp318PrintingSOEHandler8PrintAllIS2_EEvRKNS_10HeaderInfoERKNS_11ICollectionINS1_IT_EEEEEUlRKS3_E_EE, %object
	.size	_ZTSN8opendnp314FunctorVisitorINS_7IndexedINS_13FrozenCounterEEEZN8asiodnp318PrintingSOEHandler8PrintAllIS2_EEvRKNS_10HeaderInfoERKNS_11ICollectionINS1_IT_EEEEEUlRKS3_E_EE, 168
_ZTSN8opendnp314FunctorVisitorINS_7IndexedINS_13FrozenCounterEEEZN8asiodnp318PrintingSOEHandler8PrintAllIS2_EEvRKNS_10HeaderInfoERKNS_11ICollectionINS1_IT_EEEEEUlRKS3_E_EE:
	.string	"N8opendnp314FunctorVisitorINS_7IndexedINS_13FrozenCounterEEEZN8asiodnp318PrintingSOEHandler8PrintAllIS2_EEvRKNS_10HeaderInfoERKNS_11ICollectionINS1_IT_EEEEEUlRKS3_E_EE"
	.weak	_ZTIN8opendnp314FunctorVisitorINS_7IndexedINS_13FrozenCounterEEEZN8asiodnp318PrintingSOEHandler8PrintAllIS2_EEvRKNS_10HeaderInfoERKNS_11ICollectionINS1_IT_EEEEEUlRKS3_E_EE
	.section	.data.rel.ro._ZTIN8opendnp314FunctorVisitorINS_7IndexedINS_13FrozenCounterEEEZN8asiodnp318PrintingSOEHandler8PrintAllIS2_EEvRKNS_10HeaderInfoERKNS_11ICollectionINS1_IT_EEEEEUlRKS3_E_EE,"awG",@progbits,_ZTIN8opendnp314FunctorVisitorINS_7IndexedINS_13FrozenCounterEEEZN8asiodnp318PrintingSOEHandler8PrintAllIS2_EEvRKNS_10HeaderInfoERKNS_11ICollectionINS1_IT_EEEEEUlRKS3_E_EE,comdat
	.align	3
	.type	_ZTIN8opendnp314FunctorVisitorINS_7IndexedINS_13FrozenCounterEEEZN8asiodnp318PrintingSOEHandler8PrintAllIS2_EEvRKNS_10HeaderInfoERKNS_11ICollectionINS1_IT_EEEEEUlRKS3_E_EE, %object
	.size	_ZTIN8opendnp314FunctorVisitorINS_7IndexedINS_13FrozenCounterEEEZN8asiodnp318PrintingSOEHandler8PrintAllIS2_EEvRKNS_10HeaderInfoERKNS_11ICollectionINS1_IT_EEEEEUlRKS3_E_EE, 24
_ZTIN8opendnp314FunctorVisitorINS_7IndexedINS_13FrozenCounterEEEZN8asiodnp318PrintingSOEHandler8PrintAllIS2_EEvRKNS_10HeaderInfoERKNS_11ICollectionINS1_IT_EEEEEUlRKS3_E_EE:
	.xword	_ZTVN10__cxxabiv120__si_class_type_infoE+16
	.xword	_ZTSN8opendnp314FunctorVisitorINS_7IndexedINS_13FrozenCounterEEEZN8asiodnp318PrintingSOEHandler8PrintAllIS2_EEvRKNS_10HeaderInfoERKNS_11ICollectionINS1_IT_EEEEEUlRKS3_E_EE
	.xword	_ZTIN8opendnp38IVisitorINS_7IndexedINS_13FrozenCounterEEEEE
	.weak	_ZTSN8opendnp38IVisitorINS_7IndexedINS_18BinaryOutputStatusEEEEE
	.section	.rodata._ZTSN8opendnp38IVisitorINS_7IndexedINS_18BinaryOutputStatusEEEEE,"aG",@progbits,_ZTSN8opendnp38IVisitorINS_7IndexedINS_18BinaryOutputStatusEEEEE,comdat
	.align	3
	.type	_ZTSN8opendnp38IVisitorINS_7IndexedINS_18BinaryOutputStatusEEEEE, %object
	.size	_ZTSN8opendnp38IVisitorINS_7IndexedINS_18BinaryOutputStatusEEEEE, 61
_ZTSN8opendnp38IVisitorINS_7IndexedINS_18BinaryOutputStatusEEEEE:
	.string	"N8opendnp38IVisitorINS_7IndexedINS_18BinaryOutputStatusEEEEE"
	.weak	_ZTIN8opendnp38IVisitorINS_7IndexedINS_18BinaryOutputStatusEEEEE
	.section	.data.rel.ro._ZTIN8opendnp38IVisitorINS_7IndexedINS_18BinaryOutputStatusEEEEE,"awG",@progbits,_ZTIN8opendnp38IVisitorINS_7IndexedINS_18BinaryOutputStatusEEEEE,comdat
	.align	3
	.type	_ZTIN8opendnp38IVisitorINS_7IndexedINS_18BinaryOutputStatusEEEEE, %object
	.size	_ZTIN8opendnp38IVisitorINS_7IndexedINS_18BinaryOutputStatusEEEEE, 16
_ZTIN8opendnp38IVisitorINS_7IndexedINS_18BinaryOutputStatusEEEEE:
	.xword	_ZTVN10__cxxabiv117__class_type_infoE+16
	.xword	_ZTSN8opendnp38IVisitorINS_7IndexedINS_18BinaryOutputStatusEEEEE
	.weak	_ZTSN8opendnp314FunctorVisitorINS_7IndexedINS_18BinaryOutputStatusEEEZN8asiodnp318PrintingSOEHandler8PrintAllIS2_EEvRKNS_10HeaderInfoERKNS_11ICollectionINS1_IT_EEEEEUlRKS3_E_EE
	.section	.rodata._ZTSN8opendnp314FunctorVisitorINS_7IndexedINS_18BinaryOutputStatusEEEZN8asiodnp318PrintingSOEHandler8PrintAllIS2_EEvRKNS_10HeaderInfoERKNS_11ICollectionINS1_IT_EEEEEUlRKS3_E_EE,"aG",@progbits,_ZTSN8opendnp314FunctorVisitorINS_7IndexedINS_18BinaryOutputStatusEEEZN8asiodnp318PrintingSOEHandler8PrintAllIS2_EEvRKNS_10HeaderInfoERKNS_11ICollectionINS1_IT_EEEEEUlRKS3_E_EE,comdat
	.align	3
	.type	_ZTSN8opendnp314FunctorVisitorINS_7IndexedINS_18BinaryOutputStatusEEEZN8asiodnp318PrintingSOEHandler8PrintAllIS2_EEvRKNS_10HeaderInfoERKNS_11ICollectionINS1_IT_EEEEEUlRKS3_E_EE, %object
	.size	_ZTSN8opendnp314FunctorVisitorINS_7IndexedINS_18BinaryOutputStatusEEEZN8asiodnp318PrintingSOEHandler8PrintAllIS2_EEvRKNS_10HeaderInfoERKNS_11ICollectionINS1_IT_EEEEEUlRKS3_E_EE, 173
_ZTSN8opendnp314FunctorVisitorINS_7IndexedINS_18BinaryOutputStatusEEEZN8asiodnp318PrintingSOEHandler8PrintAllIS2_EEvRKNS_10HeaderInfoERKNS_11ICollectionINS1_IT_EEEEEUlRKS3_E_EE:
	.string	"N8opendnp314FunctorVisitorINS_7IndexedINS_18BinaryOutputStatusEEEZN8asiodnp318PrintingSOEHandler8PrintAllIS2_EEvRKNS_10HeaderInfoERKNS_11ICollectionINS1_IT_EEEEEUlRKS3_E_EE"
	.weak	_ZTIN8opendnp314FunctorVisitorINS_7IndexedINS_18BinaryOutputStatusEEEZN8asiodnp318PrintingSOEHandler8PrintAllIS2_EEvRKNS_10HeaderInfoERKNS_11ICollectionINS1_IT_EEEEEUlRKS3_E_EE
	.section	.data.rel.ro._ZTIN8opendnp314FunctorVisitorINS_7IndexedINS_18BinaryOutputStatusEEEZN8asiodnp318PrintingSOEHandler8PrintAllIS2_EEvRKNS_10HeaderInfoERKNS_11ICollectionINS1_IT_EEEEEUlRKS3_E_EE,"awG",@progbits,_ZTIN8opendnp314FunctorVisitorINS_7IndexedINS_18BinaryOutputStatusEEEZN8asiodnp318PrintingSOEHandler8PrintAllIS2_EEvRKNS_10HeaderInfoERKNS_11ICollectionINS1_IT_EEEEEUlRKS3_E_EE,comdat
	.align	3
	.type	_ZTIN8opendnp314FunctorVisitorINS_7IndexedINS_18BinaryOutputStatusEEEZN8asiodnp318PrintingSOEHandler8PrintAllIS2_EEvRKNS_10HeaderInfoERKNS_11ICollectionINS1_IT_EEEEEUlRKS3_E_EE, %object
	.size	_ZTIN8opendnp314FunctorVisitorINS_7IndexedINS_18BinaryOutputStatusEEEZN8asiodnp318PrintingSOEHandler8PrintAllIS2_EEvRKNS_10HeaderInfoERKNS_11ICollectionINS1_IT_EEEEEUlRKS3_E_EE, 24
_ZTIN8opendnp314FunctorVisitorINS_7IndexedINS_18BinaryOutputStatusEEEZN8asiodnp318PrintingSOEHandler8PrintAllIS2_EEvRKNS_10HeaderInfoERKNS_11ICollectionINS1_IT_EEEEEUlRKS3_E_EE:
	.xword	_ZTVN10__cxxabiv120__si_class_type_infoE+16
	.xword	_ZTSN8opendnp314FunctorVisitorINS_7IndexedINS_18BinaryOutputStatusEEEZN8asiodnp318PrintingSOEHandler8PrintAllIS2_EEvRKNS_10HeaderInfoERKNS_11ICollectionINS1_IT_EEEEEUlRKS3_E_EE
	.xword	_ZTIN8opendnp38IVisitorINS_7IndexedINS_18BinaryOutputStatusEEEEE
	.weak	_ZTSN8opendnp38IVisitorINS_7IndexedINS_18AnalogOutputStatusEEEEE
	.section	.rodata._ZTSN8opendnp38IVisitorINS_7IndexedINS_18AnalogOutputStatusEEEEE,"aG",@progbits,_ZTSN8opendnp38IVisitorINS_7IndexedINS_18AnalogOutputStatusEEEEE,comdat
	.align	3
	.type	_ZTSN8opendnp38IVisitorINS_7IndexedINS_18AnalogOutputStatusEEEEE, %object
	.size	_ZTSN8opendnp38IVisitorINS_7IndexedINS_18AnalogOutputStatusEEEEE, 61
_ZTSN8opendnp38IVisitorINS_7IndexedINS_18AnalogOutputStatusEEEEE:
	.string	"N8opendnp38IVisitorINS_7IndexedINS_18AnalogOutputStatusEEEEE"
	.weak	_ZTIN8opendnp38IVisitorINS_7IndexedINS_18AnalogOutputStatusEEEEE
	.section	.data.rel.ro._ZTIN8opendnp38IVisitorINS_7IndexedINS_18AnalogOutputStatusEEEEE,"awG",@progbits,_ZTIN8opendnp38IVisitorINS_7IndexedINS_18AnalogOutputStatusEEEEE,comdat
	.align	3
	.type	_ZTIN8opendnp38IVisitorINS_7IndexedINS_18AnalogOutputStatusEEEEE, %object
	.size	_ZTIN8opendnp38IVisitorINS_7IndexedINS_18AnalogOutputStatusEEEEE, 16
_ZTIN8opendnp38IVisitorINS_7IndexedINS_18AnalogOutputStatusEEEEE:
	.xword	_ZTVN10__cxxabiv117__class_type_infoE+16
	.xword	_ZTSN8opendnp38IVisitorINS_7IndexedINS_18AnalogOutputStatusEEEEE
	.weak	_ZTSN8opendnp314FunctorVisitorINS_7IndexedINS_18AnalogOutputStatusEEEZN8asiodnp318PrintingSOEHandler8PrintAllIS2_EEvRKNS_10HeaderInfoERKNS_11ICollectionINS1_IT_EEEEEUlRKS3_E_EE
	.section	.rodata._ZTSN8opendnp314FunctorVisitorINS_7IndexedINS_18AnalogOutputStatusEEEZN8asiodnp318PrintingSOEHandler8PrintAllIS2_EEvRKNS_10HeaderInfoERKNS_11ICollectionINS1_IT_EEEEEUlRKS3_E_EE,"aG",@progbits,_ZTSN8opendnp314FunctorVisitorINS_7IndexedINS_18AnalogOutputStatusEEEZN8asiodnp318PrintingSOEHandler8PrintAllIS2_EEvRKNS_10HeaderInfoERKNS_11ICollectionINS1_IT_EEEEEUlRKS3_E_EE,comdat
	.align	3
	.type	_ZTSN8opendnp314FunctorVisitorINS_7IndexedINS_18AnalogOutputStatusEEEZN8asiodnp318PrintingSOEHandler8PrintAllIS2_EEvRKNS_10HeaderInfoERKNS_11ICollectionINS1_IT_EEEEEUlRKS3_E_EE, %object
	.size	_ZTSN8opendnp314FunctorVisitorINS_7IndexedINS_18AnalogOutputStatusEEEZN8asiodnp318PrintingSOEHandler8PrintAllIS2_EEvRKNS_10HeaderInfoERKNS_11ICollectionINS1_IT_EEEEEUlRKS3_E_EE, 173
_ZTSN8opendnp314FunctorVisitorINS_7IndexedINS_18AnalogOutputStatusEEEZN8asiodnp318PrintingSOEHandler8PrintAllIS2_EEvRKNS_10HeaderInfoERKNS_11ICollectionINS1_IT_EEEEEUlRKS3_E_EE:
	.string	"N8opendnp314FunctorVisitorINS_7IndexedINS_18AnalogOutputStatusEEEZN8asiodnp318PrintingSOEHandler8PrintAllIS2_EEvRKNS_10HeaderInfoERKNS_11ICollectionINS1_IT_EEEEEUlRKS3_E_EE"
	.weak	_ZTIN8opendnp314FunctorVisitorINS_7IndexedINS_18AnalogOutputStatusEEEZN8asiodnp318PrintingSOEHandler8PrintAllIS2_EEvRKNS_10HeaderInfoERKNS_11ICollectionINS1_IT_EEEEEUlRKS3_E_EE
	.section	.data.rel.ro._ZTIN8opendnp314FunctorVisitorINS_7IndexedINS_18AnalogOutputStatusEEEZN8asiodnp318PrintingSOEHandler8PrintAllIS2_EEvRKNS_10HeaderInfoERKNS_11ICollectionINS1_IT_EEEEEUlRKS3_E_EE,"awG",@progbits,_ZTIN8opendnp314FunctorVisitorINS_7IndexedINS_18AnalogOutputStatusEEEZN8asiodnp318PrintingSOEHandler8PrintAllIS2_EEvRKNS_10HeaderInfoERKNS_11ICollectionINS1_IT_EEEEEUlRKS3_E_EE,comdat
	.align	3
	.type	_ZTIN8opendnp314FunctorVisitorINS_7IndexedINS_18AnalogOutputStatusEEEZN8asiodnp318PrintingSOEHandler8PrintAllIS2_EEvRKNS_10HeaderInfoERKNS_11ICollectionINS1_IT_EEEEEUlRKS3_E_EE, %object
	.size	_ZTIN8opendnp314FunctorVisitorINS_7IndexedINS_18AnalogOutputStatusEEEZN8asiodnp318PrintingSOEHandler8PrintAllIS2_EEvRKNS_10HeaderInfoERKNS_11ICollectionINS1_IT_EEEEEUlRKS3_E_EE, 24
_ZTIN8opendnp314FunctorVisitorINS_7IndexedINS_18AnalogOutputStatusEEEZN8asiodnp318PrintingSOEHandler8PrintAllIS2_EEvRKNS_10HeaderInfoERKNS_11ICollectionINS1_IT_EEEEEUlRKS3_E_EE:
	.xword	_ZTVN10__cxxabiv120__si_class_type_infoE+16
	.xword	_ZTSN8opendnp314FunctorVisitorINS_7IndexedINS_18AnalogOutputStatusEEEZN8asiodnp318PrintingSOEHandler8PrintAllIS2_EEvRKNS_10HeaderInfoERKNS_11ICollectionINS1_IT_EEEEEUlRKS3_E_EE
	.xword	_ZTIN8opendnp38IVisitorINS_7IndexedINS_18AnalogOutputStatusEEEEE
	.weak	_ZTVN8asiodnp318PrintingSOEHandlerE
	.section	.data.rel.ro._ZTVN8asiodnp318PrintingSOEHandlerE,"awG",@progbits,_ZTVN8asiodnp318PrintingSOEHandlerE,comdat
	.align	3
	.type	_ZTVN8asiodnp318PrintingSOEHandlerE, %object
	.size	_ZTVN8asiodnp318PrintingSOEHandlerE, 152
_ZTVN8asiodnp318PrintingSOEHandlerE:
	.xword	0
	.xword	_ZTIN8asiodnp318PrintingSOEHandlerE
	.xword	_ZN8asiodnp318PrintingSOEHandlerD1Ev
	.xword	_ZN8asiodnp318PrintingSOEHandlerD0Ev
	.xword	_ZN8asiodnp318PrintingSOEHandler5StartEv
	.xword	_ZN8asiodnp318PrintingSOEHandler3EndEv
	.xword	_ZN8asiodnp318PrintingSOEHandler7ProcessERKN8opendnp310HeaderInfoERKNS1_11ICollectionINS1_7IndexedINS1_6BinaryEEEEE
	.xword	_ZN8asiodnp318PrintingSOEHandler7ProcessERKN8opendnp310HeaderInfoERKNS1_11ICollectionINS1_7IndexedINS1_15DoubleBitBinaryEEEEE
	.xword	_ZN8asiodnp318PrintingSOEHandler7ProcessERKN8opendnp310HeaderInfoERKNS1_11ICollectionINS1_7IndexedINS1_6AnalogEEEEE
	.xword	_ZN8asiodnp318PrintingSOEHandler7ProcessERKN8opendnp310HeaderInfoERKNS1_11ICollectionINS1_7IndexedINS1_7CounterEEEEE
	.xword	_ZN8asiodnp318PrintingSOEHandler7ProcessERKN8opendnp310HeaderInfoERKNS1_11ICollectionINS1_7IndexedINS1_13FrozenCounterEEEEE
	.xword	_ZN8asiodnp318PrintingSOEHandler7ProcessERKN8opendnp310HeaderInfoERKNS1_11ICollectionINS1_7IndexedINS1_18BinaryOutputStatusEEEEE
	.xword	_ZN8asiodnp318PrintingSOEHandler7ProcessERKN8opendnp310HeaderInfoERKNS1_11ICollectionINS1_7IndexedINS1_18AnalogOutputStatusEEEEE
	.xword	_ZN8asiodnp318PrintingSOEHandler7ProcessERKN8opendnp310HeaderInfoERKNS1_11ICollectionINS1_7IndexedINS1_11OctetStringEEEEE
	.xword	_ZN8asiodnp318PrintingSOEHandler7ProcessERKN8opendnp310HeaderInfoERKNS1_11ICollectionINS1_7IndexedINS1_15TimeAndIntervalEEEEE
	.xword	_ZN8asiodnp318PrintingSOEHandler7ProcessERKN8opendnp310HeaderInfoERKNS1_11ICollectionINS1_7IndexedINS1_18BinaryCommandEventEEEEE
	.xword	_ZN8asiodnp318PrintingSOEHandler7ProcessERKN8opendnp310HeaderInfoERKNS1_11ICollectionINS1_7IndexedINS1_18AnalogCommandEventEEEEE
	.xword	_ZN8asiodnp318PrintingSOEHandler7ProcessERKN8opendnp310HeaderInfoERKNS1_11ICollectionINS1_7IndexedINS1_12SecurityStatEEEEE
	.xword	_ZN8asiodnp318PrintingSOEHandler7ProcessERKN8opendnp310HeaderInfoERKNS1_11ICollectionIN7openpal10UInt48TypeEEE
	.weak	_ZTVN8opendnp314FunctorVisitorINS_7IndexedINS_6BinaryEEEZN8asiodnp318PrintingSOEHandler8PrintAllIS2_EEvRKNS_10HeaderInfoERKNS_11ICollectionINS1_IT_EEEEEUlRKS3_E_EE
	.section	.data.rel.ro._ZTVN8opendnp314FunctorVisitorINS_7IndexedINS_6BinaryEEEZN8asiodnp318PrintingSOEHandler8PrintAllIS2_EEvRKNS_10HeaderInfoERKNS_11ICollectionINS1_IT_EEEEEUlRKS3_E_EE,"awG",@progbits,_ZTVN8opendnp314FunctorVisitorINS_7IndexedINS_6BinaryEEEZN8asiodnp318PrintingSOEHandler8PrintAllIS2_EEvRKNS_10HeaderInfoERKNS_11ICollectionINS1_IT_EEEEEUlRKS3_E_EE,comdat
	.align	3
	.type	_ZTVN8opendnp314FunctorVisitorINS_7IndexedINS_6BinaryEEEZN8asiodnp318PrintingSOEHandler8PrintAllIS2_EEvRKNS_10HeaderInfoERKNS_11ICollectionINS1_IT_EEEEEUlRKS3_E_EE, %object
	.size	_ZTVN8opendnp314FunctorVisitorINS_7IndexedINS_6BinaryEEEZN8asiodnp318PrintingSOEHandler8PrintAllIS2_EEvRKNS_10HeaderInfoERKNS_11ICollectionINS1_IT_EEEEEUlRKS3_E_EE, 24
_ZTVN8opendnp314FunctorVisitorINS_7IndexedINS_6BinaryEEEZN8asiodnp318PrintingSOEHandler8PrintAllIS2_EEvRKNS_10HeaderInfoERKNS_11ICollectionINS1_IT_EEEEEUlRKS3_E_EE:
	.xword	0
	.xword	_ZTIN8opendnp314FunctorVisitorINS_7IndexedINS_6BinaryEEEZN8asiodnp318PrintingSOEHandler8PrintAllIS2_EEvRKNS_10HeaderInfoERKNS_11ICollectionINS1_IT_EEEEEUlRKS3_E_EE
	.xword	_ZN8opendnp314FunctorVisitorINS_7IndexedINS_6BinaryEEEZN8asiodnp318PrintingSOEHandler8PrintAllIS2_EEvRKNS_10HeaderInfoERKNS_11ICollectionINS1_IT_EEEEEUlRKS3_E_E7OnValueESH_
	.weak	_ZTVN8opendnp314FunctorVisitorINS_7IndexedINS_15DoubleBitBinaryEEEZN8asiodnp318PrintingSOEHandler8PrintAllIS2_EEvRKNS_10HeaderInfoERKNS_11ICollectionINS1_IT_EEEEEUlRKS3_E_EE
	.section	.data.rel.ro._ZTVN8opendnp314FunctorVisitorINS_7IndexedINS_15DoubleBitBinaryEEEZN8asiodnp318PrintingSOEHandler8PrintAllIS2_EEvRKNS_10HeaderInfoERKNS_11ICollectionINS1_IT_EEEEEUlRKS3_E_EE,"awG",@progbits,_ZTVN8opendnp314FunctorVisitorINS_7IndexedINS_15DoubleBitBinaryEEEZN8asiodnp318PrintingSOEHandler8PrintAllIS2_EEvRKNS_10HeaderInfoERKNS_11ICollectionINS1_IT_EEEEEUlRKS3_E_EE,comdat
	.align	3
	.type	_ZTVN8opendnp314FunctorVisitorINS_7IndexedINS_15DoubleBitBinaryEEEZN8asiodnp318PrintingSOEHandler8PrintAllIS2_EEvRKNS_10HeaderInfoERKNS_11ICollectionINS1_IT_EEEEEUlRKS3_E_EE, %object
	.size	_ZTVN8opendnp314FunctorVisitorINS_7IndexedINS_15DoubleBitBinaryEEEZN8asiodnp318PrintingSOEHandler8PrintAllIS2_EEvRKNS_10HeaderInfoERKNS_11ICollectionINS1_IT_EEEEEUlRKS3_E_EE, 24
_ZTVN8opendnp314FunctorVisitorINS_7IndexedINS_15DoubleBitBinaryEEEZN8asiodnp318PrintingSOEHandler8PrintAllIS2_EEvRKNS_10HeaderInfoERKNS_11ICollectionINS1_IT_EEEEEUlRKS3_E_EE:
	.xword	0
	.xword	_ZTIN8opendnp314FunctorVisitorINS_7IndexedINS_15DoubleBitBinaryEEEZN8asiodnp318PrintingSOEHandler8PrintAllIS2_EEvRKNS_10HeaderInfoERKNS_11ICollectionINS1_IT_EEEEEUlRKS3_E_EE
	.xword	_ZN8opendnp314FunctorVisitorINS_7IndexedINS_15DoubleBitBinaryEEEZN8asiodnp318PrintingSOEHandler8PrintAllIS2_EEvRKNS_10HeaderInfoERKNS_11ICollectionINS1_IT_EEEEEUlRKS3_E_E7OnValueESH_
	.weak	_ZTVN8opendnp314FunctorVisitorINS_7IndexedINS_6AnalogEEEZN8asiodnp318PrintingSOEHandler8PrintAllIS2_EEvRKNS_10HeaderInfoERKNS_11ICollectionINS1_IT_EEEEEUlRKS3_E_EE
	.section	.data.rel.ro._ZTVN8opendnp314FunctorVisitorINS_7IndexedINS_6AnalogEEEZN8asiodnp318PrintingSOEHandler8PrintAllIS2_EEvRKNS_10HeaderInfoERKNS_11ICollectionINS1_IT_EEEEEUlRKS3_E_EE,"awG",@progbits,_ZTVN8opendnp314FunctorVisitorINS_7IndexedINS_6AnalogEEEZN8asiodnp318PrintingSOEHandler8PrintAllIS2_EEvRKNS_10HeaderInfoERKNS_11ICollectionINS1_IT_EEEEEUlRKS3_E_EE,comdat
	.align	3
	.type	_ZTVN8opendnp314FunctorVisitorINS_7IndexedINS_6AnalogEEEZN8asiodnp318PrintingSOEHandler8PrintAllIS2_EEvRKNS_10HeaderInfoERKNS_11ICollectionINS1_IT_EEEEEUlRKS3_E_EE, %object
	.size	_ZTVN8opendnp314FunctorVisitorINS_7IndexedINS_6AnalogEEEZN8asiodnp318PrintingSOEHandler8PrintAllIS2_EEvRKNS_10HeaderInfoERKNS_11ICollectionINS1_IT_EEEEEUlRKS3_E_EE, 24
_ZTVN8opendnp314FunctorVisitorINS_7IndexedINS_6AnalogEEEZN8asiodnp318PrintingSOEHandler8PrintAllIS2_EEvRKNS_10HeaderInfoERKNS_11ICollectionINS1_IT_EEEEEUlRKS3_E_EE:
	.xword	0
	.xword	_ZTIN8opendnp314FunctorVisitorINS_7IndexedINS_6AnalogEEEZN8asiodnp318PrintingSOEHandler8PrintAllIS2_EEvRKNS_10HeaderInfoERKNS_11ICollectionINS1_IT_EEEEEUlRKS3_E_EE
	.xword	_ZN8opendnp314FunctorVisitorINS_7IndexedINS_6AnalogEEEZN8asiodnp318PrintingSOEHandler8PrintAllIS2_EEvRKNS_10HeaderInfoERKNS_11ICollectionINS1_IT_EEEEEUlRKS3_E_E7OnValueESH_
	.weak	_ZTVN8opendnp314FunctorVisitorINS_7IndexedINS_7CounterEEEZN8asiodnp318PrintingSOEHandler8PrintAllIS2_EEvRKNS_10HeaderInfoERKNS_11ICollectionINS1_IT_EEEEEUlRKS3_E_EE
	.section	.data.rel.ro._ZTVN8opendnp314FunctorVisitorINS_7IndexedINS_7CounterEEEZN8asiodnp318PrintingSOEHandler8PrintAllIS2_EEvRKNS_10HeaderInfoERKNS_11ICollectionINS1_IT_EEEEEUlRKS3_E_EE,"awG",@progbits,_ZTVN8opendnp314FunctorVisitorINS_7IndexedINS_7CounterEEEZN8asiodnp318PrintingSOEHandler8PrintAllIS2_EEvRKNS_10HeaderInfoERKNS_11ICollectionINS1_IT_EEEEEUlRKS3_E_EE,comdat
	.align	3
	.type	_ZTVN8opendnp314FunctorVisitorINS_7IndexedINS_7CounterEEEZN8asiodnp318PrintingSOEHandler8PrintAllIS2_EEvRKNS_10HeaderInfoERKNS_11ICollectionINS1_IT_EEEEEUlRKS3_E_EE, %object
	.size	_ZTVN8opendnp314FunctorVisitorINS_7IndexedINS_7CounterEEEZN8asiodnp318PrintingSOEHandler8PrintAllIS2_EEvRKNS_10HeaderInfoERKNS_11ICollectionINS1_IT_EEEEEUlRKS3_E_EE, 24
_ZTVN8opendnp314FunctorVisitorINS_7IndexedINS_7CounterEEEZN8asiodnp318PrintingSOEHandler8PrintAllIS2_EEvRKNS_10HeaderInfoERKNS_11ICollectionINS1_IT_EEEEEUlRKS3_E_EE:
	.xword	0
	.xword	_ZTIN8opendnp314FunctorVisitorINS_7IndexedINS_7CounterEEEZN8asiodnp318PrintingSOEHandler8PrintAllIS2_EEvRKNS_10HeaderInfoERKNS_11ICollectionINS1_IT_EEEEEUlRKS3_E_EE
	.xword	_ZN8opendnp314FunctorVisitorINS_7IndexedINS_7CounterEEEZN8asiodnp318PrintingSOEHandler8PrintAllIS2_EEvRKNS_10HeaderInfoERKNS_11ICollectionINS1_IT_EEEEEUlRKS3_E_E7OnValueESH_
	.weak	_ZTVN8opendnp314FunctorVisitorINS_7IndexedINS_13FrozenCounterEEEZN8asiodnp318PrintingSOEHandler8PrintAllIS2_EEvRKNS_10HeaderInfoERKNS_11ICollectionINS1_IT_EEEEEUlRKS3_E_EE
	.section	.data.rel.ro._ZTVN8opendnp314FunctorVisitorINS_7IndexedINS_13FrozenCounterEEEZN8asiodnp318PrintingSOEHandler8PrintAllIS2_EEvRKNS_10HeaderInfoERKNS_11ICollectionINS1_IT_EEEEEUlRKS3_E_EE,"awG",@progbits,_ZTVN8opendnp314FunctorVisitorINS_7IndexedINS_13FrozenCounterEEEZN8asiodnp318PrintingSOEHandler8PrintAllIS2_EEvRKNS_10HeaderInfoERKNS_11ICollectionINS1_IT_EEEEEUlRKS3_E_EE,comdat
	.align	3
	.type	_ZTVN8opendnp314FunctorVisitorINS_7IndexedINS_13FrozenCounterEEEZN8asiodnp318PrintingSOEHandler8PrintAllIS2_EEvRKNS_10HeaderInfoERKNS_11ICollectionINS1_IT_EEEEEUlRKS3_E_EE, %object
	.size	_ZTVN8opendnp314FunctorVisitorINS_7IndexedINS_13FrozenCounterEEEZN8asiodnp318PrintingSOEHandler8PrintAllIS2_EEvRKNS_10HeaderInfoERKNS_11ICollectionINS1_IT_EEEEEUlRKS3_E_EE, 24
_ZTVN8opendnp314FunctorVisitorINS_7IndexedINS_13FrozenCounterEEEZN8asiodnp318PrintingSOEHandler8PrintAllIS2_EEvRKNS_10HeaderInfoERKNS_11ICollectionINS1_IT_EEEEEUlRKS3_E_EE:
	.xword	0
	.xword	_ZTIN8opendnp314FunctorVisitorINS_7IndexedINS_13FrozenCounterEEEZN8asiodnp318PrintingSOEHandler8PrintAllIS2_EEvRKNS_10HeaderInfoERKNS_11ICollectionINS1_IT_EEEEEUlRKS3_E_EE
	.xword	_ZN8opendnp314FunctorVisitorINS_7IndexedINS_13FrozenCounterEEEZN8asiodnp318PrintingSOEHandler8PrintAllIS2_EEvRKNS_10HeaderInfoERKNS_11ICollectionINS1_IT_EEEEEUlRKS3_E_E7OnValueESH_
	.weak	_ZTVN8opendnp314FunctorVisitorINS_7IndexedINS_18BinaryOutputStatusEEEZN8asiodnp318PrintingSOEHandler8PrintAllIS2_EEvRKNS_10HeaderInfoERKNS_11ICollectionINS1_IT_EEEEEUlRKS3_E_EE
	.section	.data.rel.ro._ZTVN8opendnp314FunctorVisitorINS_7IndexedINS_18BinaryOutputStatusEEEZN8asiodnp318PrintingSOEHandler8PrintAllIS2_EEvRKNS_10HeaderInfoERKNS_11ICollectionINS1_IT_EEEEEUlRKS3_E_EE,"awG",@progbits,_ZTVN8opendnp314FunctorVisitorINS_7IndexedINS_18BinaryOutputStatusEEEZN8asiodnp318PrintingSOEHandler8PrintAllIS2_EEvRKNS_10HeaderInfoERKNS_11ICollectionINS1_IT_EEEEEUlRKS3_E_EE,comdat
	.align	3
	.type	_ZTVN8opendnp314FunctorVisitorINS_7IndexedINS_18BinaryOutputStatusEEEZN8asiodnp318PrintingSOEHandler8PrintAllIS2_EEvRKNS_10HeaderInfoERKNS_11ICollectionINS1_IT_EEEEEUlRKS3_E_EE, %object
	.size	_ZTVN8opendnp314FunctorVisitorINS_7IndexedINS_18BinaryOutputStatusEEEZN8asiodnp318PrintingSOEHandler8PrintAllIS2_EEvRKNS_10HeaderInfoERKNS_11ICollectionINS1_IT_EEEEEUlRKS3_E_EE, 24
_ZTVN8opendnp314FunctorVisitorINS_7IndexedINS_18BinaryOutputStatusEEEZN8asiodnp318PrintingSOEHandler8PrintAllIS2_EEvRKNS_10HeaderInfoERKNS_11ICollectionINS1_IT_EEEEEUlRKS3_E_EE:
	.xword	0
	.xword	_ZTIN8opendnp314FunctorVisitorINS_7IndexedINS_18BinaryOutputStatusEEEZN8asiodnp318PrintingSOEHandler8PrintAllIS2_EEvRKNS_10HeaderInfoERKNS_11ICollectionINS1_IT_EEEEEUlRKS3_E_EE
	.xword	_ZN8opendnp314FunctorVisitorINS_7IndexedINS_18BinaryOutputStatusEEEZN8asiodnp318PrintingSOEHandler8PrintAllIS2_EEvRKNS_10HeaderInfoERKNS_11ICollectionINS1_IT_EEEEEUlRKS3_E_E7OnValueESH_
	.weak	_ZTVN8opendnp314FunctorVisitorINS_7IndexedINS_18AnalogOutputStatusEEEZN8asiodnp318PrintingSOEHandler8PrintAllIS2_EEvRKNS_10HeaderInfoERKNS_11ICollectionINS1_IT_EEEEEUlRKS3_E_EE
	.section	.data.rel.ro._ZTVN8opendnp314FunctorVisitorINS_7IndexedINS_18AnalogOutputStatusEEEZN8asiodnp318PrintingSOEHandler8PrintAllIS2_EEvRKNS_10HeaderInfoERKNS_11ICollectionINS1_IT_EEEEEUlRKS3_E_EE,"awG",@progbits,_ZTVN8opendnp314FunctorVisitorINS_7IndexedINS_18AnalogOutputStatusEEEZN8asiodnp318PrintingSOEHandler8PrintAllIS2_EEvRKNS_10HeaderInfoERKNS_11ICollectionINS1_IT_EEEEEUlRKS3_E_EE,comdat
	.align	3
	.type	_ZTVN8opendnp314FunctorVisitorINS_7IndexedINS_18AnalogOutputStatusEEEZN8asiodnp318PrintingSOEHandler8PrintAllIS2_EEvRKNS_10HeaderInfoERKNS_11ICollectionINS1_IT_EEEEEUlRKS3_E_EE, %object
	.size	_ZTVN8opendnp314FunctorVisitorINS_7IndexedINS_18AnalogOutputStatusEEEZN8asiodnp318PrintingSOEHandler8PrintAllIS2_EEvRKNS_10HeaderInfoERKNS_11ICollectionINS1_IT_EEEEEUlRKS3_E_EE, 24
_ZTVN8opendnp314FunctorVisitorINS_7IndexedINS_18AnalogOutputStatusEEEZN8asiodnp318PrintingSOEHandler8PrintAllIS2_EEvRKNS_10HeaderInfoERKNS_11ICollectionINS1_IT_EEEEEUlRKS3_E_EE:
	.xword	0
	.xword	_ZTIN8opendnp314FunctorVisitorINS_7IndexedINS_18AnalogOutputStatusEEEZN8asiodnp318PrintingSOEHandler8PrintAllIS2_EEvRKNS_10HeaderInfoERKNS_11ICollectionINS1_IT_EEEEEUlRKS3_E_EE
	.xword	_ZN8opendnp314FunctorVisitorINS_7IndexedINS_18AnalogOutputStatusEEEZN8asiodnp318PrintingSOEHandler8PrintAllIS2_EEvRKNS_10HeaderInfoERKNS_11ICollectionINS1_IT_EEEEEUlRKS3_E_E7OnValueESH_
	.section	.rodata
	.align	3
	.type	_ZTSN8opendnp314FunctorVisitorINS_7IndexedINS_11OctetStringEEEZN8asiodnp318PrintingSOEHandler7ProcessERKNS_10HeaderInfoERKNS_11ICollectionIS3_EEEUlRKS3_E_EE, %object
	.size	_ZTSN8opendnp314FunctorVisitorINS_7IndexedINS_11OctetStringEEEZN8asiodnp318PrintingSOEHandler7ProcessERKNS_10HeaderInfoERKNS_11ICollectionIS3_EEEUlRKS3_E_EE, 154
_ZTSN8opendnp314FunctorVisitorINS_7IndexedINS_11OctetStringEEEZN8asiodnp318PrintingSOEHandler7ProcessERKNS_10HeaderInfoERKNS_11ICollectionIS3_EEEUlRKS3_E_EE:
	.string	"*N8opendnp314FunctorVisitorINS_7IndexedINS_11OctetStringEEEZN8asiodnp318PrintingSOEHandler7ProcessERKNS_10HeaderInfoERKNS_11ICollectionIS3_EEEUlRKS3_E_EE"
	.zero	6
	.type	_ZTSN8opendnp314FunctorVisitorINS_7IndexedINS_15TimeAndIntervalEEEZN8asiodnp318PrintingSOEHandler7ProcessERKNS_10HeaderInfoERKNS_11ICollectionIS3_EEEUlRKS3_E_EE, %object
	.size	_ZTSN8opendnp314FunctorVisitorINS_7IndexedINS_15TimeAndIntervalEEEZN8asiodnp318PrintingSOEHandler7ProcessERKNS_10HeaderInfoERKNS_11ICollectionIS3_EEEUlRKS3_E_EE, 158
_ZTSN8opendnp314FunctorVisitorINS_7IndexedINS_15TimeAndIntervalEEEZN8asiodnp318PrintingSOEHandler7ProcessERKNS_10HeaderInfoERKNS_11ICollectionIS3_EEEUlRKS3_E_EE:
	.string	"*N8opendnp314FunctorVisitorINS_7IndexedINS_15TimeAndIntervalEEEZN8asiodnp318PrintingSOEHandler7ProcessERKNS_10HeaderInfoERKNS_11ICollectionIS3_EEEUlRKS3_E_EE"
	.zero	2
	.type	_ZTSN8opendnp314FunctorVisitorINS_7IndexedINS_18BinaryCommandEventEEEZN8asiodnp318PrintingSOEHandler7ProcessERKNS_10HeaderInfoERKNS_11ICollectionIS3_EEEUlRKS3_E_EE, %object
	.size	_ZTSN8opendnp314FunctorVisitorINS_7IndexedINS_18BinaryCommandEventEEEZN8asiodnp318PrintingSOEHandler7ProcessERKNS_10HeaderInfoERKNS_11ICollectionIS3_EEEUlRKS3_E_EE, 161
_ZTSN8opendnp314FunctorVisitorINS_7IndexedINS_18BinaryCommandEventEEEZN8asiodnp318PrintingSOEHandler7ProcessERKNS_10HeaderInfoERKNS_11ICollectionIS3_EEEUlRKS3_E_EE:
	.string	"*N8opendnp314FunctorVisitorINS_7IndexedINS_18BinaryCommandEventEEEZN8asiodnp318PrintingSOEHandler7ProcessERKNS_10HeaderInfoERKNS_11ICollectionIS3_EEEUlRKS3_E_EE"
	.zero	7
	.type	_ZTSN8opendnp314FunctorVisitorINS_7IndexedINS_18AnalogCommandEventEEEZN8asiodnp318PrintingSOEHandler7ProcessERKNS_10HeaderInfoERKNS_11ICollectionIS3_EEEUlRKS3_E_EE, %object
	.size	_ZTSN8opendnp314FunctorVisitorINS_7IndexedINS_18AnalogCommandEventEEEZN8asiodnp318PrintingSOEHandler7ProcessERKNS_10HeaderInfoERKNS_11ICollectionIS3_EEEUlRKS3_E_EE, 161
_ZTSN8opendnp314FunctorVisitorINS_7IndexedINS_18AnalogCommandEventEEEZN8asiodnp318PrintingSOEHandler7ProcessERKNS_10HeaderInfoERKNS_11ICollectionIS3_EEEUlRKS3_E_EE:
	.string	"*N8opendnp314FunctorVisitorINS_7IndexedINS_18AnalogCommandEventEEEZN8asiodnp318PrintingSOEHandler7ProcessERKNS_10HeaderInfoERKNS_11ICollectionIS3_EEEUlRKS3_E_EE"
	.zero	7
	.type	_ZTSN8opendnp314FunctorVisitorINS_7IndexedINS_12SecurityStatEEEZN8asiodnp318PrintingSOEHandler7ProcessERKNS_10HeaderInfoERKNS_11ICollectionIS3_EEEUlRKS3_E_EE, %object
	.size	_ZTSN8opendnp314FunctorVisitorINS_7IndexedINS_12SecurityStatEEEZN8asiodnp318PrintingSOEHandler7ProcessERKNS_10HeaderInfoERKNS_11ICollectionIS3_EEEUlRKS3_E_EE, 155
_ZTSN8opendnp314FunctorVisitorINS_7IndexedINS_12SecurityStatEEEZN8asiodnp318PrintingSOEHandler7ProcessERKNS_10HeaderInfoERKNS_11ICollectionIS3_EEEUlRKS3_E_EE:
	.string	"*N8opendnp314FunctorVisitorINS_7IndexedINS_12SecurityStatEEEZN8asiodnp318PrintingSOEHandler7ProcessERKNS_10HeaderInfoERKNS_11ICollectionIS3_EEEUlRKS3_E_EE"
	.zero	5
	.type	_ZTSN8opendnp314FunctorVisitorIN7openpal10UInt48TypeEZN8asiodnp318PrintingSOEHandler7ProcessERKNS_10HeaderInfoERKNS_11ICollectionIS2_EEEUlRKS2_E_EE, %object
	.size	_ZTSN8opendnp314FunctorVisitorIN7openpal10UInt48TypeEZN8asiodnp318PrintingSOEHandler7ProcessERKNS_10HeaderInfoERKNS_11ICollectionIS2_EEEUlRKS2_E_EE, 145
_ZTSN8opendnp314FunctorVisitorIN7openpal10UInt48TypeEZN8asiodnp318PrintingSOEHandler7ProcessERKNS_10HeaderInfoERKNS_11ICollectionIS2_EEEUlRKS2_E_EE:
	.string	"*N8opendnp314FunctorVisitorIN7openpal10UInt48TypeEZN8asiodnp318PrintingSOEHandler7ProcessERKNS_10HeaderInfoERKNS_11ICollectionIS2_EEEUlRKS2_E_EE"
	.bss
	.align	3
	.set	.LANCHOR1,. + 0
	.type	_ZStL8__ioinit, %object
	.size	_ZStL8__ioinit, 1
_ZStL8__ioinit:
	.zero	1
	.section	.data.rel.ro,"aw"
	.align	3
	.type	_ZTIN8opendnp314FunctorVisitorINS_7IndexedINS_11OctetStringEEEZN8asiodnp318PrintingSOEHandler7ProcessERKNS_10HeaderInfoERKNS_11ICollectionIS3_EEEUlRKS3_E_EE, %object
	.size	_ZTIN8opendnp314FunctorVisitorINS_7IndexedINS_11OctetStringEEEZN8asiodnp318PrintingSOEHandler7ProcessERKNS_10HeaderInfoERKNS_11ICollectionIS3_EEEUlRKS3_E_EE, 24
_ZTIN8opendnp314FunctorVisitorINS_7IndexedINS_11OctetStringEEEZN8asiodnp318PrintingSOEHandler7ProcessERKNS_10HeaderInfoERKNS_11ICollectionIS3_EEEUlRKS3_E_EE:
	.xword	_ZTVN10__cxxabiv120__si_class_type_infoE+16
	.xword	_ZTSN8opendnp314FunctorVisitorINS_7IndexedINS_11OctetStringEEEZN8asiodnp318PrintingSOEHandler7ProcessERKNS_10HeaderInfoERKNS_11ICollectionIS3_EEEUlRKS3_E_EE
	.xword	_ZTIN8opendnp38IVisitorINS_7IndexedINS_11OctetStringEEEEE
	.type	_ZTIN8opendnp314FunctorVisitorINS_7IndexedINS_15TimeAndIntervalEEEZN8asiodnp318PrintingSOEHandler7ProcessERKNS_10HeaderInfoERKNS_11ICollectionIS3_EEEUlRKS3_E_EE, %object
	.size	_ZTIN8opendnp314FunctorVisitorINS_7IndexedINS_15TimeAndIntervalEEEZN8asiodnp318PrintingSOEHandler7ProcessERKNS_10HeaderInfoERKNS_11ICollectionIS3_EEEUlRKS3_E_EE, 24
_ZTIN8opendnp314FunctorVisitorINS_7IndexedINS_15TimeAndIntervalEEEZN8asiodnp318PrintingSOEHandler7ProcessERKNS_10HeaderInfoERKNS_11ICollectionIS3_EEEUlRKS3_E_EE:
	.xword	_ZTVN10__cxxabiv120__si_class_type_infoE+16
	.xword	_ZTSN8opendnp314FunctorVisitorINS_7IndexedINS_15TimeAndIntervalEEEZN8asiodnp318PrintingSOEHandler7ProcessERKNS_10HeaderInfoERKNS_11ICollectionIS3_EEEUlRKS3_E_EE
	.xword	_ZTIN8opendnp38IVisitorINS_7IndexedINS_15TimeAndIntervalEEEEE
	.type	_ZTIN8opendnp314FunctorVisitorINS_7IndexedINS_18BinaryCommandEventEEEZN8asiodnp318PrintingSOEHandler7ProcessERKNS_10HeaderInfoERKNS_11ICollectionIS3_EEEUlRKS3_E_EE, %object
	.size	_ZTIN8opendnp314FunctorVisitorINS_7IndexedINS_18BinaryCommandEventEEEZN8asiodnp318PrintingSOEHandler7ProcessERKNS_10HeaderInfoERKNS_11ICollectionIS3_EEEUlRKS3_E_EE, 24
_ZTIN8opendnp314FunctorVisitorINS_7IndexedINS_18BinaryCommandEventEEEZN8asiodnp318PrintingSOEHandler7ProcessERKNS_10HeaderInfoERKNS_11ICollectionIS3_EEEUlRKS3_E_EE:
	.xword	_ZTVN10__cxxabiv120__si_class_type_infoE+16
	.xword	_ZTSN8opendnp314FunctorVisitorINS_7IndexedINS_18BinaryCommandEventEEEZN8asiodnp318PrintingSOEHandler7ProcessERKNS_10HeaderInfoERKNS_11ICollectionIS3_EEEUlRKS3_E_EE
	.xword	_ZTIN8opendnp38IVisitorINS_7IndexedINS_18BinaryCommandEventEEEEE
	.type	_ZTIN8opendnp314FunctorVisitorINS_7IndexedINS_18AnalogCommandEventEEEZN8asiodnp318PrintingSOEHandler7ProcessERKNS_10HeaderInfoERKNS_11ICollectionIS3_EEEUlRKS3_E_EE, %object
	.size	_ZTIN8opendnp314FunctorVisitorINS_7IndexedINS_18AnalogCommandEventEEEZN8asiodnp318PrintingSOEHandler7ProcessERKNS_10HeaderInfoERKNS_11ICollectionIS3_EEEUlRKS3_E_EE, 24
_ZTIN8opendnp314FunctorVisitorINS_7IndexedINS_18AnalogCommandEventEEEZN8asiodnp318PrintingSOEHandler7ProcessERKNS_10HeaderInfoERKNS_11ICollectionIS3_EEEUlRKS3_E_EE:
	.xword	_ZTVN10__cxxabiv120__si_class_type_infoE+16
	.xword	_ZTSN8opendnp314FunctorVisitorINS_7IndexedINS_18AnalogCommandEventEEEZN8asiodnp318PrintingSOEHandler7ProcessERKNS_10HeaderInfoERKNS_11ICollectionIS3_EEEUlRKS3_E_EE
	.xword	_ZTIN8opendnp38IVisitorINS_7IndexedINS_18AnalogCommandEventEEEEE
	.type	_ZTIN8opendnp314FunctorVisitorINS_7IndexedINS_12SecurityStatEEEZN8asiodnp318PrintingSOEHandler7ProcessERKNS_10HeaderInfoERKNS_11ICollectionIS3_EEEUlRKS3_E_EE, %object
	.size	_ZTIN8opendnp314FunctorVisitorINS_7IndexedINS_12SecurityStatEEEZN8asiodnp318PrintingSOEHandler7ProcessERKNS_10HeaderInfoERKNS_11ICollectionIS3_EEEUlRKS3_E_EE, 24
_ZTIN8opendnp314FunctorVisitorINS_7IndexedINS_12SecurityStatEEEZN8asiodnp318PrintingSOEHandler7ProcessERKNS_10HeaderInfoERKNS_11ICollectionIS3_EEEUlRKS3_E_EE:
	.xword	_ZTVN10__cxxabiv120__si_class_type_infoE+16
	.xword	_ZTSN8opendnp314FunctorVisitorINS_7IndexedINS_12SecurityStatEEEZN8asiodnp318PrintingSOEHandler7ProcessERKNS_10HeaderInfoERKNS_11ICollectionIS3_EEEUlRKS3_E_EE
	.xword	_ZTIN8opendnp38IVisitorINS_7IndexedINS_12SecurityStatEEEEE
	.type	_ZTIN8opendnp314FunctorVisitorIN7openpal10UInt48TypeEZN8asiodnp318PrintingSOEHandler7ProcessERKNS_10HeaderInfoERKNS_11ICollectionIS2_EEEUlRKS2_E_EE, %object
	.size	_ZTIN8opendnp314FunctorVisitorIN7openpal10UInt48TypeEZN8asiodnp318PrintingSOEHandler7ProcessERKNS_10HeaderInfoERKNS_11ICollectionIS2_EEEUlRKS2_E_EE, 24
_ZTIN8opendnp314FunctorVisitorIN7openpal10UInt48TypeEZN8asiodnp318PrintingSOEHandler7ProcessERKNS_10HeaderInfoERKNS_11ICollectionIS2_EEEUlRKS2_E_EE:
	.xword	_ZTVN10__cxxabiv120__si_class_type_infoE+16
	.xword	_ZTSN8opendnp314FunctorVisitorIN7openpal10UInt48TypeEZN8asiodnp318PrintingSOEHandler7ProcessERKNS_10HeaderInfoERKNS_11ICollectionIS2_EEEUlRKS2_E_EE
	.xword	_ZTIN8opendnp38IVisitorIN7openpal10UInt48TypeEEE
	.section	.data.rel.ro.local,"aw"
	.align	3
	.set	.LANCHOR0,. + 0
	.type	_ZTVN8opendnp314FunctorVisitorINS_7IndexedINS_11OctetStringEEEZN8asiodnp318PrintingSOEHandler7ProcessERKNS_10HeaderInfoERKNS_11ICollectionIS3_EEEUlRKS3_E_EE, %object
	.size	_ZTVN8opendnp314FunctorVisitorINS_7IndexedINS_11OctetStringEEEZN8asiodnp318PrintingSOEHandler7ProcessERKNS_10HeaderInfoERKNS_11ICollectionIS3_EEEUlRKS3_E_EE, 24
_ZTVN8opendnp314FunctorVisitorINS_7IndexedINS_11OctetStringEEEZN8asiodnp318PrintingSOEHandler7ProcessERKNS_10HeaderInfoERKNS_11ICollectionIS3_EEEUlRKS3_E_EE:
	.xword	0
	.xword	_ZTIN8opendnp314FunctorVisitorINS_7IndexedINS_11OctetStringEEEZN8asiodnp318PrintingSOEHandler7ProcessERKNS_10HeaderInfoERKNS_11ICollectionIS3_EEEUlRKS3_E_EE
	.xword	_ZN8opendnp314FunctorVisitorINS_7IndexedINS_11OctetStringEEEZN8asiodnp318PrintingSOEHandler7ProcessERKNS_10HeaderInfoERKNS_11ICollectionIS3_EEEUlRKS3_E_E7OnValueESE_
	.type	_ZTVN8opendnp314FunctorVisitorINS_7IndexedINS_15TimeAndIntervalEEEZN8asiodnp318PrintingSOEHandler7ProcessERKNS_10HeaderInfoERKNS_11ICollectionIS3_EEEUlRKS3_E_EE, %object
	.size	_ZTVN8opendnp314FunctorVisitorINS_7IndexedINS_15TimeAndIntervalEEEZN8asiodnp318PrintingSOEHandler7ProcessERKNS_10HeaderInfoERKNS_11ICollectionIS3_EEEUlRKS3_E_EE, 24
_ZTVN8opendnp314FunctorVisitorINS_7IndexedINS_15TimeAndIntervalEEEZN8asiodnp318PrintingSOEHandler7ProcessERKNS_10HeaderInfoERKNS_11ICollectionIS3_EEEUlRKS3_E_EE:
	.xword	0
	.xword	_ZTIN8opendnp314FunctorVisitorINS_7IndexedINS_15TimeAndIntervalEEEZN8asiodnp318PrintingSOEHandler7ProcessERKNS_10HeaderInfoERKNS_11ICollectionIS3_EEEUlRKS3_E_EE
	.xword	_ZN8opendnp314FunctorVisitorINS_7IndexedINS_15TimeAndIntervalEEEZN8asiodnp318PrintingSOEHandler7ProcessERKNS_10HeaderInfoERKNS_11ICollectionIS3_EEEUlRKS3_E_E7OnValueESE_
	.type	_ZTVN8opendnp314FunctorVisitorINS_7IndexedINS_18BinaryCommandEventEEEZN8asiodnp318PrintingSOEHandler7ProcessERKNS_10HeaderInfoERKNS_11ICollectionIS3_EEEUlRKS3_E_EE, %object
	.size	_ZTVN8opendnp314FunctorVisitorINS_7IndexedINS_18BinaryCommandEventEEEZN8asiodnp318PrintingSOEHandler7ProcessERKNS_10HeaderInfoERKNS_11ICollectionIS3_EEEUlRKS3_E_EE, 24
_ZTVN8opendnp314FunctorVisitorINS_7IndexedINS_18BinaryCommandEventEEEZN8asiodnp318PrintingSOEHandler7ProcessERKNS_10HeaderInfoERKNS_11ICollectionIS3_EEEUlRKS3_E_EE:
	.xword	0
	.xword	_ZTIN8opendnp314FunctorVisitorINS_7IndexedINS_18BinaryCommandEventEEEZN8asiodnp318PrintingSOEHandler7ProcessERKNS_10HeaderInfoERKNS_11ICollectionIS3_EEEUlRKS3_E_EE
	.xword	_ZN8opendnp314FunctorVisitorINS_7IndexedINS_18BinaryCommandEventEEEZN8asiodnp318PrintingSOEHandler7ProcessERKNS_10HeaderInfoERKNS_11ICollectionIS3_EEEUlRKS3_E_E7OnValueESE_
	.type	_ZTVN8opendnp314FunctorVisitorINS_7IndexedINS_18AnalogCommandEventEEEZN8asiodnp318PrintingSOEHandler7ProcessERKNS_10HeaderInfoERKNS_11ICollectionIS3_EEEUlRKS3_E_EE, %object
	.size	_ZTVN8opendnp314FunctorVisitorINS_7IndexedINS_18AnalogCommandEventEEEZN8asiodnp318PrintingSOEHandler7ProcessERKNS_10HeaderInfoERKNS_11ICollectionIS3_EEEUlRKS3_E_EE, 24
_ZTVN8opendnp314FunctorVisitorINS_7IndexedINS_18AnalogCommandEventEEEZN8asiodnp318PrintingSOEHandler7ProcessERKNS_10HeaderInfoERKNS_11ICollectionIS3_EEEUlRKS3_E_EE:
	.xword	0
	.xword	_ZTIN8opendnp314FunctorVisitorINS_7IndexedINS_18AnalogCommandEventEEEZN8asiodnp318PrintingSOEHandler7ProcessERKNS_10HeaderInfoERKNS_11ICollectionIS3_EEEUlRKS3_E_EE
	.xword	_ZN8opendnp314FunctorVisitorINS_7IndexedINS_18AnalogCommandEventEEEZN8asiodnp318PrintingSOEHandler7ProcessERKNS_10HeaderInfoERKNS_11ICollectionIS3_EEEUlRKS3_E_E7OnValueESE_
	.type	_ZTVN8opendnp314FunctorVisitorINS_7IndexedINS_12SecurityStatEEEZN8asiodnp318PrintingSOEHandler7ProcessERKNS_10HeaderInfoERKNS_11ICollectionIS3_EEEUlRKS3_E_EE, %object
	.size	_ZTVN8opendnp314FunctorVisitorINS_7IndexedINS_12SecurityStatEEEZN8asiodnp318PrintingSOEHandler7ProcessERKNS_10HeaderInfoERKNS_11ICollectionIS3_EEEUlRKS3_E_EE, 24
_ZTVN8opendnp314FunctorVisitorINS_7IndexedINS_12SecurityStatEEEZN8asiodnp318PrintingSOEHandler7ProcessERKNS_10HeaderInfoERKNS_11ICollectionIS3_EEEUlRKS3_E_EE:
	.xword	0
	.xword	_ZTIN8opendnp314FunctorVisitorINS_7IndexedINS_12SecurityStatEEEZN8asiodnp318PrintingSOEHandler7ProcessERKNS_10HeaderInfoERKNS_11ICollectionIS3_EEEUlRKS3_E_EE
	.xword	_ZN8opendnp314FunctorVisitorINS_7IndexedINS_12SecurityStatEEEZN8asiodnp318PrintingSOEHandler7ProcessERKNS_10HeaderInfoERKNS_11ICollectionIS3_EEEUlRKS3_E_E7OnValueESE_
	.type	_ZTVN8opendnp314FunctorVisitorIN7openpal10UInt48TypeEZN8asiodnp318PrintingSOEHandler7ProcessERKNS_10HeaderInfoERKNS_11ICollectionIS2_EEEUlRKS2_E_EE, %object
	.size	_ZTVN8opendnp314FunctorVisitorIN7openpal10UInt48TypeEZN8asiodnp318PrintingSOEHandler7ProcessERKNS_10HeaderInfoERKNS_11ICollectionIS2_EEEUlRKS2_E_EE, 24
_ZTVN8opendnp314FunctorVisitorIN7openpal10UInt48TypeEZN8asiodnp318PrintingSOEHandler7ProcessERKNS_10HeaderInfoERKNS_11ICollectionIS2_EEEUlRKS2_E_EE:
	.xword	0
	.xword	_ZTIN8opendnp314FunctorVisitorIN7openpal10UInt48TypeEZN8asiodnp318PrintingSOEHandler7ProcessERKNS_10HeaderInfoERKNS_11ICollectionIS2_EEEUlRKS2_E_EE
	.xword	_ZN8opendnp314FunctorVisitorIN7openpal10UInt48TypeEZN8asiodnp318PrintingSOEHandler7ProcessERKNS_10HeaderInfoERKNS_11ICollectionIS2_EEEUlRKS2_E_E7OnValueESD_
	.hidden	DW.ref.__gxx_personality_v0
	.weak	DW.ref.__gxx_personality_v0
	.section	.data.rel.local.DW.ref.__gxx_personality_v0,"awG",@progbits,DW.ref.__gxx_personality_v0,comdat
	.align	3
	.type	DW.ref.__gxx_personality_v0, %object
	.size	DW.ref.__gxx_personality_v0, 8
DW.ref.__gxx_personality_v0:
	.xword	__gxx_personality_v0
	.hidden	__dso_handle
	.ident	"GCC: (Ubuntu 11.4.0-1ubuntu1~22.04) 11.4.0"
	.section	.note.GNU-stack,"",@progbits
