	.arch armv8-a
	.file	"SerialIOHandler.cpp"
	.text
	.section	.rodata._ZNK4asio6detail15system_category4nameEv.str1.8,"aMS",@progbits,1
	.align	3
.LC0:
	.string	"asio.system"
	.section	.text._ZNK4asio6detail15system_category4nameEv,"axG",@progbits,_ZNK4asio6detail15system_category4nameEv,comdat
	.align	2
	.p2align 4,,11
	.weak	_ZNK4asio6detail15system_category4nameEv
	.type	_ZNK4asio6detail15system_category4nameEv, %function
_ZNK4asio6detail15system_category4nameEv:
.LFB2874:
	.cfi_startproc
	adrp	x0, .LC0
	add	x0, x0, :lo12:.LC0
	ret
	.cfi_endproc
.LFE2874:
	.size	_ZNK4asio6detail15system_category4nameEv, .-_ZNK4asio6detail15system_category4nameEv
	.section	.rodata._ZNK4asio5error6detail14netdb_category4nameEv.str1.8,"aMS",@progbits,1
	.align	3
.LC1:
	.string	"asio.netdb"
	.section	.text._ZNK4asio5error6detail14netdb_category4nameEv,"axG",@progbits,_ZNK4asio5error6detail14netdb_category4nameEv,comdat
	.align	2
	.p2align 4,,11
	.weak	_ZNK4asio5error6detail14netdb_category4nameEv
	.type	_ZNK4asio5error6detail14netdb_category4nameEv, %function
_ZNK4asio5error6detail14netdb_category4nameEv:
.LFB2895:
	.cfi_startproc
	adrp	x0, .LC1
	add	x0, x0, :lo12:.LC1
	ret
	.cfi_endproc
.LFE2895:
	.size	_ZNK4asio5error6detail14netdb_category4nameEv, .-_ZNK4asio5error6detail14netdb_category4nameEv
	.section	.rodata._ZNK4asio5error6detail17addrinfo_category4nameEv.str1.8,"aMS",@progbits,1
	.align	3
.LC2:
	.string	"asio.addrinfo"
	.section	.text._ZNK4asio5error6detail17addrinfo_category4nameEv,"axG",@progbits,_ZNK4asio5error6detail17addrinfo_category4nameEv,comdat
	.align	2
	.p2align 4,,11
	.weak	_ZNK4asio5error6detail17addrinfo_category4nameEv
	.type	_ZNK4asio5error6detail17addrinfo_category4nameEv, %function
_ZNK4asio5error6detail17addrinfo_category4nameEv:
.LFB2901:
	.cfi_startproc
	adrp	x0, .LC2
	add	x0, x0, :lo12:.LC2
	ret
	.cfi_endproc
.LFE2901:
	.size	_ZNK4asio5error6detail17addrinfo_category4nameEv, .-_ZNK4asio5error6detail17addrinfo_category4nameEv
	.section	.rodata._ZNK4asio5error6detail13misc_category4nameEv.str1.8,"aMS",@progbits,1
	.align	3
.LC3:
	.string	"asio.misc"
	.section	.text._ZNK4asio5error6detail13misc_category4nameEv,"axG",@progbits,_ZNK4asio5error6detail13misc_category4nameEv,comdat
	.align	2
	.p2align 4,,11
	.weak	_ZNK4asio5error6detail13misc_category4nameEv
	.type	_ZNK4asio5error6detail13misc_category4nameEv, %function
_ZNK4asio5error6detail13misc_category4nameEv:
.LFB2907:
	.cfi_startproc
	adrp	x0, .LC3
	add	x0, x0, :lo12:.LC3
	ret
	.cfi_endproc
.LFE2907:
	.size	_ZNK4asio5error6detail13misc_category4nameEv, .-_ZNK4asio5error6detail13misc_category4nameEv
	.section	.text._ZN4asio6detail10service_idINS0_13epoll_reactorEED2Ev,"axG",@progbits,_ZN4asio6detail10service_idINS0_13epoll_reactorEED5Ev,comdat
	.align	2
	.p2align 4,,11
	.weak	_ZN4asio6detail10service_idINS0_13epoll_reactorEED2Ev
	.type	_ZN4asio6detail10service_idINS0_13epoll_reactorEED2Ev, %function
_ZN4asio6detail10service_idINS0_13epoll_reactorEED2Ev:
.LFB10293:
	.cfi_startproc
	ret
	.cfi_endproc
.LFE10293:
	.size	_ZN4asio6detail10service_idINS0_13epoll_reactorEED2Ev, .-_ZN4asio6detail10service_idINS0_13epoll_reactorEED2Ev
	.weak	_ZN4asio6detail10service_idINS0_13epoll_reactorEED1Ev
	.set	_ZN4asio6detail10service_idINS0_13epoll_reactorEED1Ev,_ZN4asio6detail10service_idINS0_13epoll_reactorEED2Ev
	.section	.text._ZN4asio6detail10service_idINS0_15task_io_serviceEED2Ev,"axG",@progbits,_ZN4asio6detail10service_idINS0_15task_io_serviceEED5Ev,comdat
	.align	2
	.p2align 4,,11
	.weak	_ZN4asio6detail10service_idINS0_15task_io_serviceEED2Ev
	.type	_ZN4asio6detail10service_idINS0_15task_io_serviceEED2Ev, %function
_ZN4asio6detail10service_idINS0_15task_io_serviceEED2Ev:
.LFB10296:
	.cfi_startproc
	ret
	.cfi_endproc
.LFE10296:
	.size	_ZN4asio6detail10service_idINS0_15task_io_serviceEED2Ev, .-_ZN4asio6detail10service_idINS0_15task_io_serviceEED2Ev
	.weak	_ZN4asio6detail10service_idINS0_15task_io_serviceEED1Ev
	.set	_ZN4asio6detail10service_idINS0_15task_io_serviceEED1Ev,_ZN4asio6detail10service_idINS0_15task_io_serviceEED2Ev
	.section	.text._ZN4asio6detail10service_idINS0_14strand_serviceEED2Ev,"axG",@progbits,_ZN4asio6detail10service_idINS0_14strand_serviceEED5Ev,comdat
	.align	2
	.p2align 4,,11
	.weak	_ZN4asio6detail10service_idINS0_14strand_serviceEED2Ev
	.type	_ZN4asio6detail10service_idINS0_14strand_serviceEED2Ev, %function
_ZN4asio6detail10service_idINS0_14strand_serviceEED2Ev:
.LFB10302:
	.cfi_startproc
	ret
	.cfi_endproc
.LFE10302:
	.size	_ZN4asio6detail10service_idINS0_14strand_serviceEED2Ev, .-_ZN4asio6detail10service_idINS0_14strand_serviceEED2Ev
	.weak	_ZN4asio6detail10service_idINS0_14strand_serviceEED1Ev
	.set	_ZN4asio6detail10service_idINS0_14strand_serviceEED1Ev,_ZN4asio6detail10service_idINS0_14strand_serviceEED2Ev
	.section	.text._ZNSt23_Sp_counted_ptr_inplaceIN7asiopal13SerialChannelESaIS1_ELN9__gnu_cxx12_Lock_policyE2EED2Ev,"axG",@progbits,_ZNSt23_Sp_counted_ptr_inplaceIN7asiopal13SerialChannelESaIS1_ELN9__gnu_cxx12_Lock_policyE2EED5Ev,comdat
	.align	2
	.p2align 4,,11
	.weak	_ZNSt23_Sp_counted_ptr_inplaceIN7asiopal13SerialChannelESaIS1_ELN9__gnu_cxx12_Lock_policyE2EED2Ev
	.type	_ZNSt23_Sp_counted_ptr_inplaceIN7asiopal13SerialChannelESaIS1_ELN9__gnu_cxx12_Lock_policyE2EED2Ev, %function
_ZNSt23_Sp_counted_ptr_inplaceIN7asiopal13SerialChannelESaIS1_ELN9__gnu_cxx12_Lock_policyE2EED2Ev:
.LFB10312:
	.cfi_startproc
	ret
	.cfi_endproc
.LFE10312:
	.size	_ZNSt23_Sp_counted_ptr_inplaceIN7asiopal13SerialChannelESaIS1_ELN9__gnu_cxx12_Lock_policyE2EED2Ev, .-_ZNSt23_Sp_counted_ptr_inplaceIN7asiopal13SerialChannelESaIS1_ELN9__gnu_cxx12_Lock_policyE2EED2Ev
	.weak	_ZNSt23_Sp_counted_ptr_inplaceIN7asiopal13SerialChannelESaIS1_ELN9__gnu_cxx12_Lock_policyE2EED1Ev
	.set	_ZNSt23_Sp_counted_ptr_inplaceIN7asiopal13SerialChannelESaIS1_ELN9__gnu_cxx12_Lock_policyE2EED1Ev,_ZNSt23_Sp_counted_ptr_inplaceIN7asiopal13SerialChannelESaIS1_ELN9__gnu_cxx12_Lock_policyE2EED2Ev
	.section	.text._ZNSt23_Sp_counted_ptr_inplaceIN7asiopal13SerialChannelESaIS1_ELN9__gnu_cxx12_Lock_policyE2EED0Ev,"axG",@progbits,_ZNSt23_Sp_counted_ptr_inplaceIN7asiopal13SerialChannelESaIS1_ELN9__gnu_cxx12_Lock_policyE2EED5Ev,comdat
	.align	2
	.p2align 4,,11
	.weak	_ZNSt23_Sp_counted_ptr_inplaceIN7asiopal13SerialChannelESaIS1_ELN9__gnu_cxx12_Lock_policyE2EED0Ev
	.type	_ZNSt23_Sp_counted_ptr_inplaceIN7asiopal13SerialChannelESaIS1_ELN9__gnu_cxx12_Lock_policyE2EED0Ev, %function
_ZNSt23_Sp_counted_ptr_inplaceIN7asiopal13SerialChannelESaIS1_ELN9__gnu_cxx12_Lock_policyE2EED0Ev:
.LFB10314:
	.cfi_startproc
	mov	x1, 104
	b	_ZdlPvm
	.cfi_endproc
.LFE10314:
	.size	_ZNSt23_Sp_counted_ptr_inplaceIN7asiopal13SerialChannelESaIS1_ELN9__gnu_cxx12_Lock_policyE2EED0Ev, .-_ZNSt23_Sp_counted_ptr_inplaceIN7asiopal13SerialChannelESaIS1_ELN9__gnu_cxx12_Lock_policyE2EED0Ev
	.section	.text._ZNSt23_Sp_counted_ptr_inplaceIN7asiopal13SerialChannelESaIS1_ELN9__gnu_cxx12_Lock_policyE2EE10_M_destroyEv,"axG",@progbits,_ZNSt23_Sp_counted_ptr_inplaceIN7asiopal13SerialChannelESaIS1_ELN9__gnu_cxx12_Lock_policyE2EE10_M_destroyEv,comdat
	.align	2
	.p2align 4,,11
	.weak	_ZNSt23_Sp_counted_ptr_inplaceIN7asiopal13SerialChannelESaIS1_ELN9__gnu_cxx12_Lock_policyE2EE10_M_destroyEv
	.type	_ZNSt23_Sp_counted_ptr_inplaceIN7asiopal13SerialChannelESaIS1_ELN9__gnu_cxx12_Lock_policyE2EE10_M_destroyEv, %function
_ZNSt23_Sp_counted_ptr_inplaceIN7asiopal13SerialChannelESaIS1_ELN9__gnu_cxx12_Lock_policyE2EE10_M_destroyEv:
.LFB10316:
	.cfi_startproc
	mov	x1, 104
	b	_ZdlPvm
	.cfi_endproc
.LFE10316:
	.size	_ZNSt23_Sp_counted_ptr_inplaceIN7asiopal13SerialChannelESaIS1_ELN9__gnu_cxx12_Lock_policyE2EE10_M_destroyEv, .-_ZNSt23_Sp_counted_ptr_inplaceIN7asiopal13SerialChannelESaIS1_ELN9__gnu_cxx12_Lock_policyE2EE10_M_destroyEv
	.section	.text._ZN4asio6detail15system_categoryD2Ev,"axG",@progbits,_ZN4asio6detail15system_categoryD5Ev,comdat
	.align	2
	.p2align 4,,11
	.weak	_ZN4asio6detail15system_categoryD2Ev
	.type	_ZN4asio6detail15system_categoryD2Ev, %function
_ZN4asio6detail15system_categoryD2Ev:
.LFB10269:
	.cfi_startproc
	adrp	x1, :got:_ZTVN4asio6detail15system_categoryE
	ldr	x1, [x1, #:got_lo12:_ZTVN4asio6detail15system_categoryE]
	add	x1, x1, 16
	str	x1, [x0]
	b	_ZNSt3_V214error_categoryD2Ev
	.cfi_endproc
.LFE10269:
	.size	_ZN4asio6detail15system_categoryD2Ev, .-_ZN4asio6detail15system_categoryD2Ev
	.weak	_ZN4asio6detail15system_categoryD1Ev
	.set	_ZN4asio6detail15system_categoryD1Ev,_ZN4asio6detail15system_categoryD2Ev
	.section	.text._ZN4asio6detail15system_categoryD0Ev,"axG",@progbits,_ZN4asio6detail15system_categoryD5Ev,comdat
	.align	2
	.p2align 4,,11
	.weak	_ZN4asio6detail15system_categoryD0Ev
	.type	_ZN4asio6detail15system_categoryD0Ev, %function
_ZN4asio6detail15system_categoryD0Ev:
.LFB10271:
	.cfi_startproc
	stp	x29, x30, [sp, -32]!
	.cfi_def_cfa_offset 32
	.cfi_offset 29, -32
	.cfi_offset 30, -24
	adrp	x1, :got:_ZTVN4asio6detail15system_categoryE
	mov	x29, sp
	ldr	x1, [x1, #:got_lo12:_ZTVN4asio6detail15system_categoryE]
	str	x19, [sp, 16]
	.cfi_offset 19, -16
	mov	x19, x0
	add	x1, x1, 16
	str	x1, [x0]
	bl	_ZNSt3_V214error_categoryD2Ev
	mov	x0, x19
	mov	x1, 8
	ldr	x19, [sp, 16]
	ldp	x29, x30, [sp], 32
	.cfi_restore 30
	.cfi_restore 29
	.cfi_restore 19
	.cfi_def_cfa_offset 0
	b	_ZdlPvm
	.cfi_endproc
.LFE10271:
	.size	_ZN4asio6detail15system_categoryD0Ev, .-_ZN4asio6detail15system_categoryD0Ev
	.section	.text._ZN4asio5error6detail14netdb_categoryD2Ev,"axG",@progbits,_ZN4asio5error6detail14netdb_categoryD5Ev,comdat
	.align	2
	.p2align 4,,11
	.weak	_ZN4asio5error6detail14netdb_categoryD2Ev
	.type	_ZN4asio5error6detail14netdb_categoryD2Ev, %function
_ZN4asio5error6detail14netdb_categoryD2Ev:
.LFB10265:
	.cfi_startproc
	adrp	x1, :got:_ZTVN4asio5error6detail14netdb_categoryE
	ldr	x1, [x1, #:got_lo12:_ZTVN4asio5error6detail14netdb_categoryE]
	add	x1, x1, 16
	str	x1, [x0]
	b	_ZNSt3_V214error_categoryD2Ev
	.cfi_endproc
.LFE10265:
	.size	_ZN4asio5error6detail14netdb_categoryD2Ev, .-_ZN4asio5error6detail14netdb_categoryD2Ev
	.weak	_ZN4asio5error6detail14netdb_categoryD1Ev
	.set	_ZN4asio5error6detail14netdb_categoryD1Ev,_ZN4asio5error6detail14netdb_categoryD2Ev
	.section	.text._ZN4asio5error6detail14netdb_categoryD0Ev,"axG",@progbits,_ZN4asio5error6detail14netdb_categoryD5Ev,comdat
	.align	2
	.p2align 4,,11
	.weak	_ZN4asio5error6detail14netdb_categoryD0Ev
	.type	_ZN4asio5error6detail14netdb_categoryD0Ev, %function
_ZN4asio5error6detail14netdb_categoryD0Ev:
.LFB10267:
	.cfi_startproc
	stp	x29, x30, [sp, -32]!
	.cfi_def_cfa_offset 32
	.cfi_offset 29, -32
	.cfi_offset 30, -24
	adrp	x1, :got:_ZTVN4asio5error6detail14netdb_categoryE
	mov	x29, sp
	ldr	x1, [x1, #:got_lo12:_ZTVN4asio5error6detail14netdb_categoryE]
	str	x19, [sp, 16]
	.cfi_offset 19, -16
	mov	x19, x0
	add	x1, x1, 16
	str	x1, [x0]
	bl	_ZNSt3_V214error_categoryD2Ev
	mov	x0, x19
	mov	x1, 8
	ldr	x19, [sp, 16]
	ldp	x29, x30, [sp], 32
	.cfi_restore 30
	.cfi_restore 29
	.cfi_restore 19
	.cfi_def_cfa_offset 0
	b	_ZdlPvm
	.cfi_endproc
.LFE10267:
	.size	_ZN4asio5error6detail14netdb_categoryD0Ev, .-_ZN4asio5error6detail14netdb_categoryD0Ev
	.section	.text._ZN4asio5error6detail17addrinfo_categoryD2Ev,"axG",@progbits,_ZN4asio5error6detail17addrinfo_categoryD5Ev,comdat
	.align	2
	.p2align 4,,11
	.weak	_ZN4asio5error6detail17addrinfo_categoryD2Ev
	.type	_ZN4asio5error6detail17addrinfo_categoryD2Ev, %function
_ZN4asio5error6detail17addrinfo_categoryD2Ev:
.LFB10261:
	.cfi_startproc
	adrp	x1, :got:_ZTVN4asio5error6detail17addrinfo_categoryE
	ldr	x1, [x1, #:got_lo12:_ZTVN4asio5error6detail17addrinfo_categoryE]
	add	x1, x1, 16
	str	x1, [x0]
	b	_ZNSt3_V214error_categoryD2Ev
	.cfi_endproc
.LFE10261:
	.size	_ZN4asio5error6detail17addrinfo_categoryD2Ev, .-_ZN4asio5error6detail17addrinfo_categoryD2Ev
	.weak	_ZN4asio5error6detail17addrinfo_categoryD1Ev
	.set	_ZN4asio5error6detail17addrinfo_categoryD1Ev,_ZN4asio5error6detail17addrinfo_categoryD2Ev
	.section	.text._ZN4asio5error6detail17addrinfo_categoryD0Ev,"axG",@progbits,_ZN4asio5error6detail17addrinfo_categoryD5Ev,comdat
	.align	2
	.p2align 4,,11
	.weak	_ZN4asio5error6detail17addrinfo_categoryD0Ev
	.type	_ZN4asio5error6detail17addrinfo_categoryD0Ev, %function
_ZN4asio5error6detail17addrinfo_categoryD0Ev:
.LFB10263:
	.cfi_startproc
	stp	x29, x30, [sp, -32]!
	.cfi_def_cfa_offset 32
	.cfi_offset 29, -32
	.cfi_offset 30, -24
	adrp	x1, :got:_ZTVN4asio5error6detail17addrinfo_categoryE
	mov	x29, sp
	ldr	x1, [x1, #:got_lo12:_ZTVN4asio5error6detail17addrinfo_categoryE]
	str	x19, [sp, 16]
	.cfi_offset 19, -16
	mov	x19, x0
	add	x1, x1, 16
	str	x1, [x0]
	bl	_ZNSt3_V214error_categoryD2Ev
	mov	x0, x19
	mov	x1, 8
	ldr	x19, [sp, 16]
	ldp	x29, x30, [sp], 32
	.cfi_restore 30
	.cfi_restore 29
	.cfi_restore 19
	.cfi_def_cfa_offset 0
	b	_ZdlPvm
	.cfi_endproc
.LFE10263:
	.size	_ZN4asio5error6detail17addrinfo_categoryD0Ev, .-_ZN4asio5error6detail17addrinfo_categoryD0Ev
	.section	.text._ZN4asio5error6detail13misc_categoryD2Ev,"axG",@progbits,_ZN4asio5error6detail13misc_categoryD5Ev,comdat
	.align	2
	.p2align 4,,11
	.weak	_ZN4asio5error6detail13misc_categoryD2Ev
	.type	_ZN4asio5error6detail13misc_categoryD2Ev, %function
_ZN4asio5error6detail13misc_categoryD2Ev:
.LFB10257:
	.cfi_startproc
	adrp	x1, :got:_ZTVN4asio5error6detail13misc_categoryE
	ldr	x1, [x1, #:got_lo12:_ZTVN4asio5error6detail13misc_categoryE]
	add	x1, x1, 16
	str	x1, [x0]
	b	_ZNSt3_V214error_categoryD2Ev
	.cfi_endproc
.LFE10257:
	.size	_ZN4asio5error6detail13misc_categoryD2Ev, .-_ZN4asio5error6detail13misc_categoryD2Ev
	.weak	_ZN4asio5error6detail13misc_categoryD1Ev
	.set	_ZN4asio5error6detail13misc_categoryD1Ev,_ZN4asio5error6detail13misc_categoryD2Ev
	.section	.text._ZN4asio5error6detail13misc_categoryD0Ev,"axG",@progbits,_ZN4asio5error6detail13misc_categoryD5Ev,comdat
	.align	2
	.p2align 4,,11
	.weak	_ZN4asio5error6detail13misc_categoryD0Ev
	.type	_ZN4asio5error6detail13misc_categoryD0Ev, %function
_ZN4asio5error6detail13misc_categoryD0Ev:
.LFB10259:
	.cfi_startproc
	stp	x29, x30, [sp, -32]!
	.cfi_def_cfa_offset 32
	.cfi_offset 29, -32
	.cfi_offset 30, -24
	adrp	x1, :got:_ZTVN4asio5error6detail13misc_categoryE
	mov	x29, sp
	ldr	x1, [x1, #:got_lo12:_ZTVN4asio5error6detail13misc_categoryE]
	str	x19, [sp, 16]
	.cfi_offset 19, -16
	mov	x19, x0
	add	x1, x1, 16
	str	x1, [x0]
	bl	_ZNSt3_V214error_categoryD2Ev
	mov	x0, x19
	mov	x1, 8
	ldr	x19, [sp, 16]
	ldp	x29, x30, [sp], 32
	.cfi_restore 30
	.cfi_restore 29
	.cfi_restore 19
	.cfi_def_cfa_offset 0
	b	_ZdlPvm
	.cfi_endproc
.LFE10259:
	.size	_ZN4asio5error6detail13misc_categoryD0Ev, .-_ZN4asio5error6detail13misc_categoryD0Ev
	.section	.text._ZNSt23_Sp_counted_ptr_inplaceIN7asiopal13SerialChannelESaIS1_ELN9__gnu_cxx12_Lock_policyE2EE14_M_get_deleterERKSt9type_info,"axG",@progbits,_ZNSt23_Sp_counted_ptr_inplaceIN7asiopal13SerialChannelESaIS1_ELN9__gnu_cxx12_Lock_policyE2EE14_M_get_deleterERKSt9type_info,comdat
	.align	2
	.p2align 4,,11
	.weak	_ZNSt23_Sp_counted_ptr_inplaceIN7asiopal13SerialChannelESaIS1_ELN9__gnu_cxx12_Lock_policyE2EE14_M_get_deleterERKSt9type_info
	.type	_ZNSt23_Sp_counted_ptr_inplaceIN7asiopal13SerialChannelESaIS1_ELN9__gnu_cxx12_Lock_policyE2EE14_M_get_deleterERKSt9type_info, %function
_ZNSt23_Sp_counted_ptr_inplaceIN7asiopal13SerialChannelESaIS1_ELN9__gnu_cxx12_Lock_policyE2EE14_M_get_deleterERKSt9type_info:
.LFB10317:
	.cfi_startproc
	stp	x29, x30, [sp, -32]!
	.cfi_def_cfa_offset 32
	.cfi_offset 29, -32
	.cfi_offset 30, -24
	adrp	x2, :got:_ZZNSt19_Sp_make_shared_tag5_S_tiEvE5__tag
	mov	x29, sp
	ldr	x2, [x2, #:got_lo12:_ZZNSt19_Sp_make_shared_tag5_S_tiEvE5__tag]
	str	x19, [sp, 16]
	.cfi_offset 19, -16
	add	x19, x0, 16
	cmp	x1, x2
	beq	.L24
	adrp	x2, :got:_ZTSSt19_Sp_make_shared_tag
	ldr	x0, [x1, 8]
	ldr	x1, [x2, #:got_lo12:_ZTSSt19_Sp_make_shared_tag]
	cmp	x0, x1
	beq	.L24
	ldrb	w2, [x0]
	cmp	w2, 42
	beq	.L26
	bl	strcmp
	cmp	w0, 0
	csel	x19, x19, xzr, eq
.L24:
	mov	x0, x19
	ldr	x19, [sp, 16]
	ldp	x29, x30, [sp], 32
	.cfi_remember_state
	.cfi_restore 30
	.cfi_restore 29
	.cfi_restore 19
	.cfi_def_cfa_offset 0
	ret
	.p2align 2,,3
.L26:
	.cfi_restore_state
	mov	x19, 0
	mov	x0, x19
	ldr	x19, [sp, 16]
	ldp	x29, x30, [sp], 32
	.cfi_restore 30
	.cfi_restore 29
	.cfi_restore 19
	.cfi_def_cfa_offset 0
	ret
	.cfi_endproc
.LFE10317:
	.size	_ZNSt23_Sp_counted_ptr_inplaceIN7asiopal13SerialChannelESaIS1_ELN9__gnu_cxx12_Lock_policyE2EE14_M_get_deleterERKSt9type_info, .-_ZNSt23_Sp_counted_ptr_inplaceIN7asiopal13SerialChannelESaIS1_ELN9__gnu_cxx12_Lock_policyE2EE14_M_get_deleterERKSt9type_info
	.text
	.align	2
	.p2align 4,,11
	.global	_ZN8asiodnp315SerialIOHandler20SuspendChannelAcceptEv
	.type	_ZN8asiodnp315SerialIOHandler20SuspendChannelAcceptEv, %function
_ZN8asiodnp315SerialIOHandler20SuspendChannelAcceptEv:
.LFB7729:
	.cfi_startproc
	add	x0, x0, 896
	b	_ZN7openpal8TimerRef6CancelEv
	.cfi_endproc
.LFE7729:
	.size	_ZN8asiodnp315SerialIOHandler20SuspendChannelAcceptEv, .-_ZN8asiodnp315SerialIOHandler20SuspendChannelAcceptEv
	.global	_ZN8asiodnp315SerialIOHandler10ResetStateEv
	.set	_ZN8asiodnp315SerialIOHandler10ResetStateEv,_ZN8asiodnp315SerialIOHandler20SuspendChannelAcceptEv
	.align	2
	.p2align 4,,11
	.global	_ZN8asiodnp315SerialIOHandler12ShutdownImplEv
	.type	_ZN8asiodnp315SerialIOHandler12ShutdownImplEv, %function
_ZN8asiodnp315SerialIOHandler12ShutdownImplEv:
.LFB7727:
	.cfi_startproc
	b	_ZN8asiodnp315SerialIOHandler10ResetStateEv
	.cfi_endproc
.LFE7727:
	.size	_ZN8asiodnp315SerialIOHandler12ShutdownImplEv, .-_ZN8asiodnp315SerialIOHandler12ShutdownImplEv
	.section	.text._ZN4asio6detail7tss_ptrINS0_10call_stackINS0_15task_io_serviceENS0_27task_io_service_thread_infoEE7contextEED2Ev,"axG",@progbits,_ZN4asio6detail7tss_ptrINS0_10call_stackINS0_15task_io_serviceENS0_27task_io_service_thread_infoEE7contextEED5Ev,comdat
	.align	2
	.p2align 4,,11
	.weak	_ZN4asio6detail7tss_ptrINS0_10call_stackINS0_15task_io_serviceENS0_27task_io_service_thread_infoEE7contextEED2Ev
	.type	_ZN4asio6detail7tss_ptrINS0_10call_stackINS0_15task_io_serviceENS0_27task_io_service_thread_infoEE7contextEED2Ev, %function
_ZN4asio6detail7tss_ptrINS0_10call_stackINS0_15task_io_serviceENS0_27task_io_service_thread_infoEE7contextEED2Ev:
.LFB10290:
	.cfi_startproc
	ldr	w0, [x0]
	b	pthread_key_delete
	.cfi_endproc
.LFE10290:
	.size	_ZN4asio6detail7tss_ptrINS0_10call_stackINS0_15task_io_serviceENS0_27task_io_service_thread_infoEE7contextEED2Ev, .-_ZN4asio6detail7tss_ptrINS0_10call_stackINS0_15task_io_serviceENS0_27task_io_service_thread_infoEE7contextEED2Ev
	.weak	_ZN4asio6detail7tss_ptrINS0_10call_stackINS0_15task_io_serviceENS0_27task_io_service_thread_infoEE7contextEED1Ev
	.set	_ZN4asio6detail7tss_ptrINS0_10call_stackINS0_15task_io_serviceENS0_27task_io_service_thread_infoEE7contextEED1Ev,_ZN4asio6detail7tss_ptrINS0_10call_stackINS0_15task_io_serviceENS0_27task_io_service_thread_infoEE7contextEED2Ev
	.section	.text._ZN4asio6detail7tss_ptrINS0_10call_stackINS0_14strand_service11strand_implEhE7contextEED2Ev,"axG",@progbits,_ZN4asio6detail7tss_ptrINS0_10call_stackINS0_14strand_service11strand_implEhE7contextEED5Ev,comdat
	.align	2
	.p2align 4,,11
	.weak	_ZN4asio6detail7tss_ptrINS0_10call_stackINS0_14strand_service11strand_implEhE7contextEED2Ev
	.type	_ZN4asio6detail7tss_ptrINS0_10call_stackINS0_14strand_service11strand_implEhE7contextEED2Ev, %function
_ZN4asio6detail7tss_ptrINS0_10call_stackINS0_14strand_service11strand_implEhE7contextEED2Ev:
.LFB10299:
	.cfi_startproc
	ldr	w0, [x0]
	b	pthread_key_delete
	.cfi_endproc
.LFE10299:
	.size	_ZN4asio6detail7tss_ptrINS0_10call_stackINS0_14strand_service11strand_implEhE7contextEED2Ev, .-_ZN4asio6detail7tss_ptrINS0_10call_stackINS0_14strand_service11strand_implEhE7contextEED2Ev
	.weak	_ZN4asio6detail7tss_ptrINS0_10call_stackINS0_14strand_service11strand_implEhE7contextEED1Ev
	.set	_ZN4asio6detail7tss_ptrINS0_10call_stackINS0_14strand_service11strand_implEhE7contextEED1Ev,_ZN4asio6detail7tss_ptrINS0_10call_stackINS0_14strand_service11strand_implEhE7contextEED2Ev
	.text
	.align	2
	.p2align 4,,11
	.type	_ZNSt17_Function_handlerIFvvEZN7openpal8TimerRef5StartIZN8asiodnp315SerialIOHandler7TryOpenERKNS1_12TimeDurationEEUlvE_EEbS8_RKT_EUlvE_E10_M_managerERSt9_Any_dataRKSF_St18_Manager_operation, %function
_ZNSt17_Function_handlerIFvvEZN7openpal8TimerRef5StartIZN8asiodnp315SerialIOHandler7TryOpenERKNS1_12TimeDurationEEUlvE_EEbS8_RKT_EUlvE_E10_M_managerERSt9_Any_dataRKSF_St18_Manager_operation:
.LFB9386:
	.cfi_startproc
	stp	x29, x30, [sp, -32]!
	.cfi_def_cfa_offset 32
	.cfi_offset 29, -32
	.cfi_offset 30, -24
	mov	x29, sp
	stp	x19, x20, [sp, 16]
	.cfi_offset 19, -16
	.cfi_offset 20, -8
	mov	x19, x0
	cbz	w2, .L34
	cmp	w2, 1
	beq	.L35
	cmp	w2, 2
	beq	.L38
	cmp	w2, 3
	bne	.L37
	ldr	x0, [x0]
	cbz	x0, .L37
	mov	x1, 24
	bl	_ZdlPvm
.L37:
	mov	w0, 0
	ldp	x19, x20, [sp, 16]
	ldp	x29, x30, [sp], 32
	.cfi_remember_state
	.cfi_restore 30
	.cfi_restore 29
	.cfi_restore 19
	.cfi_restore 20
	.cfi_def_cfa_offset 0
	ret
	.p2align 2,,3
.L34:
	.cfi_restore_state
	adrp	x0, .LANCHOR0
	add	x0, x0, :lo12:.LANCHOR0
	str	x0, [x19]
	mov	w0, 0
	ldp	x19, x20, [sp, 16]
	ldp	x29, x30, [sp], 32
	.cfi_remember_state
	.cfi_restore 30
	.cfi_restore 29
	.cfi_restore 19
	.cfi_restore 20
	.cfi_def_cfa_offset 0
	ret
	.p2align 2,,3
.L35:
	.cfi_restore_state
	ldr	x0, [x1]
	str	x0, [x19]
	mov	w0, 0
	ldp	x19, x20, [sp, 16]
	ldp	x29, x30, [sp], 32
	.cfi_remember_state
	.cfi_restore 30
	.cfi_restore 29
	.cfi_restore 19
	.cfi_restore 20
	.cfi_def_cfa_offset 0
	ret
	.p2align 2,,3
.L38:
	.cfi_restore_state
	ldr	x20, [x1]
	mov	x0, 24
	bl	_Znwm
	ldp	x2, x3, [x20]
	stp	x2, x3, [x0]
	ldr	x1, [x20, 16]
	str	x0, [x19]
	str	x1, [x0, 16]
	b	.L37
	.cfi_endproc
.LFE9386:
	.size	_ZNSt17_Function_handlerIFvvEZN7openpal8TimerRef5StartIZN8asiodnp315SerialIOHandler7TryOpenERKNS1_12TimeDurationEEUlvE_EEbS8_RKT_EUlvE_E10_M_managerERSt9_Any_dataRKSF_St18_Manager_operation, .-_ZNSt17_Function_handlerIFvvEZN7openpal8TimerRef5StartIZN8asiodnp315SerialIOHandler7TryOpenERKNS1_12TimeDurationEEUlvE_EEbS8_RKT_EUlvE_E10_M_managerERSt9_Any_dataRKSF_St18_Manager_operation
	.section	.text._ZNSt8_Rb_treeIPN8opendnp317IScheduleCallbackES2_St9_IdentityIS2_ESt4lessIS2_ESaIS2_EE8_M_eraseEPSt13_Rb_tree_nodeIS2_E.isra.0,"axG",@progbits,_ZN8asiodnp39IOHandlerD5Ev,comdat
	.align	2
	.p2align 4,,11
	.type	_ZNSt8_Rb_treeIPN8opendnp317IScheduleCallbackES2_St9_IdentityIS2_ESt4lessIS2_ESaIS2_EE8_M_eraseEPSt13_Rb_tree_nodeIS2_E.isra.0, %function
_ZNSt8_Rb_treeIPN8opendnp317IScheduleCallbackES2_St9_IdentityIS2_ESt4lessIS2_ESaIS2_EE8_M_eraseEPSt13_Rb_tree_nodeIS2_E.isra.0:
.LFB10431:
	.cfi_startproc
	cbz	x0, .L106
	stp	x29, x30, [sp, -96]!
	.cfi_def_cfa_offset 96
	.cfi_offset 29, -96
	.cfi_offset 30, -88
	mov	x29, sp
	stp	x23, x24, [sp, 48]
	.cfi_offset 23, -48
	.cfi_offset 24, -40
	mov	x23, x0
	stp	x19, x20, [sp, 16]
	.cfi_offset 19, -80
	.cfi_offset 20, -72
.L63:
	ldr	x24, [x23, 24]
	cbz	x24, .L47
	stp	x25, x26, [sp, 64]
	.cfi_offset 26, -24
	.cfi_offset 25, -32
.L62:
	ldr	x25, [x24, 24]
	cbz	x25, .L48
.L61:
	ldr	x26, [x25, 24]
	cbz	x26, .L49
.L60:
	ldr	x19, [x26, 24]
	cbz	x19, .L50
.L59:
	ldr	x20, [x19, 24]
	cbz	x20, .L51
	stp	x21, x22, [sp, 32]
	.cfi_offset 22, -56
	.cfi_offset 21, -64
	str	x27, [sp, 80]
	.cfi_offset 27, -16
.L58:
	ldr	x27, [x20, 24]
	cbz	x27, .L52
.L57:
	ldr	x21, [x27, 24]
	cbz	x21, .L53
.L56:
	ldr	x22, [x21, 24]
	cbz	x22, .L54
.L55:
	ldr	x0, [x22, 24]
	bl	_ZNSt8_Rb_treeIPN8opendnp317IScheduleCallbackES2_St9_IdentityIS2_ESt4lessIS2_ESaIS2_EE8_M_eraseEPSt13_Rb_tree_nodeIS2_E.isra.0
	mov	x0, x22
	mov	x1, 40
	ldr	x22, [x22, 16]
	bl	_ZdlPvm
	cbnz	x22, .L55
.L54:
	ldr	x22, [x21, 16]
	mov	x0, x21
	mov	x1, 40
	bl	_ZdlPvm
	cbz	x22, .L53
	mov	x21, x22
	b	.L56
.L107:
	ldp	x21, x22, [sp, 32]
	.cfi_restore 22
	.cfi_restore 21
	ldr	x27, [sp, 80]
	.cfi_restore 27
.L51:
	mov	x0, x19
	ldr	x20, [x19, 16]
	mov	x1, 40
	bl	_ZdlPvm
	cbz	x20, .L50
	mov	x19, x20
	b	.L59
	.p2align 2,,3
.L52:
	.cfi_offset 21, -64
	.cfi_offset 22, -56
	.cfi_offset 27, -16
	ldr	x21, [x20, 16]
	mov	x0, x20
	mov	x1, 40
	bl	_ZdlPvm
	cbz	x21, .L107
	mov	x20, x21
	b	.L58
.L50:
	.cfi_restore 21
	.cfi_restore 22
	.cfi_restore 27
	ldr	x19, [x26, 16]
	mov	x0, x26
	mov	x1, 40
	bl	_ZdlPvm
	cbz	x19, .L49
	mov	x26, x19
	b	.L60
	.p2align 2,,3
.L53:
	.cfi_offset 21, -64
	.cfi_offset 22, -56
	.cfi_offset 27, -16
	ldr	x21, [x27, 16]
	mov	x0, x27
	mov	x1, 40
	bl	_ZdlPvm
	cbz	x21, .L52
	mov	x27, x21
	b	.L57
.L49:
	.cfi_restore 21
	.cfi_restore 22
	.cfi_restore 27
	ldr	x19, [x25, 16]
	mov	x0, x25
	mov	x1, 40
	bl	_ZdlPvm
	cbz	x19, .L48
	mov	x25, x19
	b	.L61
.L48:
	ldr	x19, [x24, 16]
	mov	x0, x24
	mov	x1, 40
	bl	_ZdlPvm
	cbz	x19, .L108
	mov	x24, x19
	b	.L62
.L108:
	ldp	x25, x26, [sp, 64]
	.cfi_restore 26
	.cfi_restore 25
.L47:
	mov	x0, x23
	ldr	x19, [x23, 16]
	mov	x1, 40
	bl	_ZdlPvm
	cbz	x19, .L109
	mov	x23, x19
	b	.L63
.L109:
	ldp	x19, x20, [sp, 16]
	ldp	x23, x24, [sp, 48]
	ldp	x29, x30, [sp], 96
	.cfi_restore 30
	.cfi_restore 29
	.cfi_restore 23
	.cfi_restore 24
	.cfi_restore 19
	.cfi_restore 20
	.cfi_def_cfa_offset 0
	ret
.L106:
	ret
	.cfi_endproc
.LFE10431:
	.size	_ZNSt8_Rb_treeIPN8opendnp317IScheduleCallbackES2_St9_IdentityIS2_ESt4lessIS2_ESaIS2_EE8_M_eraseEPSt13_Rb_tree_nodeIS2_E.isra.0, .-_ZNSt8_Rb_treeIPN8opendnp317IScheduleCallbackES2_St9_IdentityIS2_ESt4lessIS2_ESaIS2_EE8_M_eraseEPSt13_Rb_tree_nodeIS2_E.isra.0
	.section	.rodata._ZNK4asio6detail15system_category7messageB5cxx11Ei.str1.8,"aMS",@progbits,1
	.align	3
.LC4:
	.string	"Operation aborted."
	.align	3
.LC5:
	.string	"basic_string::_M_construct null not valid"
	.section	.text._ZNK4asio6detail15system_category7messageB5cxx11Ei,"axG",@progbits,_ZNK4asio6detail15system_category7messageB5cxx11Ei,comdat
	.align	2
	.p2align 4,,11
	.weak	_ZNK4asio6detail15system_category7messageB5cxx11Ei
	.type	_ZNK4asio6detail15system_category7messageB5cxx11Ei, %function
_ZNK4asio6detail15system_category7messageB5cxx11Ei:
.LFB2875:
	.cfi_startproc
	stp	x29, x30, [sp, -320]!
	.cfi_def_cfa_offset 320
	.cfi_offset 29, -320
	.cfi_offset 30, -312
	adrp	x0, :got:__stack_chk_guard
	mov	x29, sp
	ldr	x2, [x0, #:got_lo12:__stack_chk_guard]
	stp	x19, x20, [sp, 16]
	mov	w0, w1
	stp	x21, x22, [sp, 32]
	.cfi_offset 19, -304
	.cfi_offset 20, -296
	.cfi_offset 21, -288
	.cfi_offset 22, -280
	mov	x19, x8
	add	x21, x8, 16
	ldr	x1, [x2]
	str	x1, [sp, 312]
	mov	x1, 0
	cmp	w0, 125
	beq	.L125
	movi	v0.4s, 0
	add	x3, sp, 72
	add	x1, sp, 56
	mov	x2, 256
	stp	xzr, xzr, [sp, 56]
	stp	q0, q0, [x3]
	stp	q0, q0, [x3, 32]
	stp	q0, q0, [x3, 64]
	stp	q0, q0, [x3, 96]
	stp	q0, q0, [x3, 128]
	stp	q0, q0, [x3, 160]
	stp	q0, q0, [x3, 192]
	str	q0, [x3, 224]
	bl	strerror_r
	mov	x22, x0
	str	x21, [x19]
	cbz	x0, .L113
	bl	strlen
	str	x0, [sp, 48]
	mov	x20, x0
	cmp	x0, 15
	bhi	.L126
	cmp	x0, 1
	bne	.L117
	ldrb	w0, [x22]
	strb	w0, [x19, 16]
.L118:
	str	x20, [x19, 8]
	strb	wzr, [x21, x20]
.L110:
	adrp	x0, :got:__stack_chk_guard
	ldr	x0, [x0, #:got_lo12:__stack_chk_guard]
	ldr	x2, [sp, 312]
	ldr	x1, [x0]
	subs	x2, x2, x1
	mov	x1, 0
	bne	.L127
	mov	x0, x19
	ldp	x19, x20, [sp, 16]
	ldp	x21, x22, [sp, 32]
	ldp	x29, x30, [sp], 320
	.cfi_remember_state
	.cfi_restore 30
	.cfi_restore 29
	.cfi_restore 21
	.cfi_restore 22
	.cfi_restore 19
	.cfi_restore 20
	.cfi_def_cfa_offset 0
	ret
	.p2align 2,,3
.L126:
	.cfi_restore_state
	add	x1, sp, 48
	mov	x0, x19
	mov	x2, 0
	bl	_ZNSt7__cxx1112basic_stringIcSt11char_traitsIcESaIcEE9_M_createERmm
	mov	x21, x0
	str	x0, [x19]
	ldr	x1, [sp, 48]
	str	x1, [x19, 16]
.L116:
	mov	x2, x20
	mov	x0, x21
	mov	x1, x22
	bl	memcpy
	ldr	x21, [x19]
	ldr	x20, [sp, 48]
	b	.L118
	.p2align 2,,3
.L125:
	mov	x3, 18
	str	x21, [x8]
	add	x1, sp, 48
	mov	x2, 0
	mov	x0, x8
	str	x3, [sp, 48]
	bl	_ZNSt7__cxx1112basic_stringIcSt11char_traitsIcESaIcEE9_M_createERmm
	str	x0, [x19]
	adrp	x1, .LC4
	add	x1, x1, :lo12:.LC4
	ldr	x2, [sp, 48]
	str	x2, [x19, 16]
	ldp	x2, x3, [x1]
	stp	x2, x3, [x0]
	ldrh	w1, [x1, 16]
	strh	w1, [x0, 16]
	ldr	x1, [x19]
	ldr	x0, [sp, 48]
	str	x0, [x19, 8]
	strb	wzr, [x1, x0]
	b	.L110
	.p2align 2,,3
.L117:
	cbz	x0, .L118
	b	.L116
.L113:
	adrp	x0, .LC5
	add	x0, x0, :lo12:.LC5
	bl	_ZSt19__throw_logic_errorPKc
.L127:
	bl	__stack_chk_fail
	.cfi_endproc
.LFE2875:
	.size	_ZNK4asio6detail15system_category7messageB5cxx11Ei, .-_ZNK4asio6detail15system_category7messageB5cxx11Ei
	.section	.rodata._ZNK4asio5error6detail17addrinfo_category7messageB5cxx11Ei.str1.8,"aMS",@progbits,1
	.align	3
.LC6:
	.string	"Service not found"
	.align	3
.LC7:
	.string	"Socket type not supported"
	.align	3
.LC8:
	.string	"asio.addrinfo error"
	.section	.text._ZNK4asio5error6detail17addrinfo_category7messageB5cxx11Ei,"axG",@progbits,_ZNK4asio5error6detail17addrinfo_category7messageB5cxx11Ei,comdat
	.align	2
	.p2align 4,,11
	.weak	_ZNK4asio5error6detail17addrinfo_category7messageB5cxx11Ei
	.type	_ZNK4asio5error6detail17addrinfo_category7messageB5cxx11Ei, %function
_ZNK4asio5error6detail17addrinfo_category7messageB5cxx11Ei:
.LFB2902:
	.cfi_startproc
	stp	x29, x30, [sp, -48]!
	.cfi_def_cfa_offset 48
	.cfi_offset 29, -48
	.cfi_offset 30, -40
	adrp	x0, :got:__stack_chk_guard
	add	x2, x8, 16
	mov	x29, sp
	ldr	x0, [x0, #:got_lo12:__stack_chk_guard]
	str	x19, [sp, 16]
	.cfi_offset 19, -32
	mov	x19, x8
	ldr	x3, [x0]
	str	x3, [sp, 40]
	mov	x3, 0
	str	x2, [x8]
	cmn	w1, #8
	beq	.L134
	cmn	w1, #7
	beq	.L135
	mov	x3, 19
	add	x1, sp, 32
	mov	x2, 0
	mov	x0, x8
	str	x3, [sp, 32]
	bl	_ZNSt7__cxx1112basic_stringIcSt11char_traitsIcESaIcEE9_M_createERmm
	adrp	x1, .LC8
	add	x1, x1, :lo12:.LC8
	ldr	x2, [sp, 32]
	str	x0, [x19]
	str	x2, [x19, 16]
	ldp	x2, x3, [x1]
	stp	x2, x3, [x0]
	ldr	w1, [x1, 15]
	str	w1, [x0, 15]
	ldr	x1, [x19]
	ldr	x0, [sp, 32]
	str	x0, [x19, 8]
	strb	wzr, [x1, x0]
.L128:
	adrp	x0, :got:__stack_chk_guard
	ldr	x0, [x0, #:got_lo12:__stack_chk_guard]
	ldr	x2, [sp, 40]
	ldr	x1, [x0]
	subs	x2, x2, x1
	mov	x1, 0
	bne	.L136
	mov	x0, x19
	ldr	x19, [sp, 16]
	ldp	x29, x30, [sp], 48
	.cfi_remember_state
	.cfi_restore 30
	.cfi_restore 29
	.cfi_restore 19
	.cfi_def_cfa_offset 0
	ret
	.p2align 2,,3
.L135:
	.cfi_restore_state
	mov	x3, 25
	add	x1, sp, 32
	mov	x2, 0
	mov	x0, x8
	str	x3, [sp, 32]
	bl	_ZNSt7__cxx1112basic_stringIcSt11char_traitsIcESaIcEE9_M_createERmm
	adrp	x1, .LC7
	add	x1, x1, :lo12:.LC7
	ldr	x2, [sp, 32]
	str	x0, [x19]
	ldr	q1, [x1]
	str	x2, [x19, 16]
	ldr	q0, [x1, 9]
	str	q1, [x0]
	str	q0, [x0, 9]
	ldr	x1, [x19]
	ldr	x0, [sp, 32]
	str	x0, [x19, 8]
	strb	wzr, [x1, x0]
	b	.L128
	.p2align 2,,3
.L134:
	mov	x3, 17
	add	x1, sp, 32
	mov	x2, 0
	mov	x0, x8
	str	x3, [sp, 32]
	bl	_ZNSt7__cxx1112basic_stringIcSt11char_traitsIcESaIcEE9_M_createERmm
	adrp	x1, .LC6
	add	x1, x1, :lo12:.LC6
	ldr	x2, [sp, 32]
	str	x0, [x19]
	str	x2, [x19, 16]
	ldp	x2, x3, [x1]
	stp	x2, x3, [x0]
	ldrb	w1, [x1, 16]
	strb	w1, [x0, 16]
	ldr	x1, [x19]
	ldr	x0, [sp, 32]
	str	x0, [x19, 8]
	strb	wzr, [x1, x0]
	b	.L128
.L136:
	bl	__stack_chk_fail
	.cfi_endproc
.LFE2902:
	.size	_ZNK4asio5error6detail17addrinfo_category7messageB5cxx11Ei, .-_ZNK4asio5error6detail17addrinfo_category7messageB5cxx11Ei
	.section	.rodata._ZNK4asio5error6detail14netdb_category7messageB5cxx11Ei.str1.8,"aMS",@progbits,1
	.align	3
.LC9:
	.string	"Host not found (authoritative)"
	.align	3
.LC10:
	.string	"Host not found (non-authoritative), try again later"
	.align	3
.LC11:
	.string	"The query is valid, but it does not have associated data"
	.align	3
.LC12:
	.string	"A non-recoverable error occurred during database lookup"
	.align	3
.LC13:
	.string	"asio.netdb error"
	.section	.text._ZNK4asio5error6detail14netdb_category7messageB5cxx11Ei,"axG",@progbits,_ZNK4asio5error6detail14netdb_category7messageB5cxx11Ei,comdat
	.align	2
	.p2align 4,,11
	.weak	_ZNK4asio5error6detail14netdb_category7messageB5cxx11Ei
	.type	_ZNK4asio5error6detail14netdb_category7messageB5cxx11Ei, %function
_ZNK4asio5error6detail14netdb_category7messageB5cxx11Ei:
.LFB2896:
	.cfi_startproc
	stp	x29, x30, [sp, -48]!
	.cfi_def_cfa_offset 48
	.cfi_offset 29, -48
	.cfi_offset 30, -40
	adrp	x0, :got:__stack_chk_guard
	add	x2, x8, 16
	mov	x29, sp
	ldr	x0, [x0, #:got_lo12:__stack_chk_guard]
	str	x19, [sp, 16]
	.cfi_offset 19, -32
	mov	x19, x8
	ldr	x3, [x0]
	str	x3, [sp, 40]
	mov	x3, 0
	str	x2, [x8]
	cmp	w1, 1
	beq	.L146
	cmp	w1, 2
	beq	.L147
	cmp	w1, 4
	beq	.L148
	cmp	w1, 3
	beq	.L149
	mov	x3, 16
	add	x1, sp, 32
	mov	x2, 0
	mov	x0, x8
	str	x3, [sp, 32]
	bl	_ZNSt7__cxx1112basic_stringIcSt11char_traitsIcESaIcEE9_M_createERmm
	adrp	x1, .LC13
	add	x1, x1, :lo12:.LC13
	ldr	x2, [sp, 32]
	str	x0, [x19]
	str	x2, [x19, 16]
	ldp	x2, x3, [x1]
	stp	x2, x3, [x0]
	ldr	x1, [x19]
	ldr	x0, [sp, 32]
	str	x0, [x19, 8]
	strb	wzr, [x1, x0]
.L137:
	adrp	x0, :got:__stack_chk_guard
	ldr	x0, [x0, #:got_lo12:__stack_chk_guard]
	ldr	x2, [sp, 40]
	ldr	x1, [x0]
	subs	x2, x2, x1
	mov	x1, 0
	bne	.L150
	mov	x0, x19
	ldr	x19, [sp, 16]
	ldp	x29, x30, [sp], 48
	.cfi_remember_state
	.cfi_restore 30
	.cfi_restore 29
	.cfi_restore 19
	.cfi_def_cfa_offset 0
	ret
	.p2align 2,,3
.L146:
	.cfi_restore_state
	mov	x3, 30
	add	x1, sp, 32
	mov	x2, 0
	mov	x0, x8
	str	x3, [sp, 32]
	bl	_ZNSt7__cxx1112basic_stringIcSt11char_traitsIcESaIcEE9_M_createERmm
	adrp	x1, .LC9
	add	x1, x1, :lo12:.LC9
	ldr	x2, [sp, 32]
	str	x0, [x19]
	ldr	q1, [x1]
	str	x2, [x19, 16]
	ldr	q0, [x1, 14]
	str	q1, [x0]
	str	q0, [x0, 14]
	ldr	x1, [x19]
	ldr	x0, [sp, 32]
	str	x0, [x19, 8]
	strb	wzr, [x1, x0]
	b	.L137
	.p2align 2,,3
.L149:
	mov	x3, 55
	add	x1, sp, 32
	mov	x2, 0
	mov	x0, x8
	str	x3, [sp, 32]
	bl	_ZNSt7__cxx1112basic_stringIcSt11char_traitsIcESaIcEE9_M_createERmm
	adrp	x1, .LC12
	add	x1, x1, :lo12:.LC12
	ldr	x2, [sp, 32]
	str	x0, [x19]
	ldr	q2, [x1, 32]
	str	x2, [x19, 16]
	ldp	q0, q1, [x1]
	str	q2, [x0, 32]
	ldr	x1, [x1, 47]
	str	x1, [x0, 47]
.L145:
	stp	q0, q1, [x0]
	ldr	x1, [x19]
	ldr	x0, [sp, 32]
	str	x0, [x19, 8]
	strb	wzr, [x1, x0]
	b	.L137
	.p2align 2,,3
.L147:
	mov	x3, 51
	add	x1, sp, 32
	mov	x2, 0
	mov	x0, x8
	str	x3, [sp, 32]
	bl	_ZNSt7__cxx1112basic_stringIcSt11char_traitsIcESaIcEE9_M_createERmm
	adrp	x1, .LC10
	add	x1, x1, :lo12:.LC10
	ldr	x2, [sp, 32]
	str	x0, [x19]
	ldr	q2, [x1, 32]
	str	x2, [x19, 16]
	ldp	q0, q1, [x1]
	ldr	w1, [x1, 47]
	str	q2, [x0, 32]
	str	w1, [x0, 47]
	b	.L145
	.p2align 2,,3
.L148:
	mov	x3, 56
	add	x1, sp, 32
	mov	x2, 0
	mov	x0, x8
	str	x3, [sp, 32]
	bl	_ZNSt7__cxx1112basic_stringIcSt11char_traitsIcESaIcEE9_M_createERmm
	adrp	x1, .LC11
	add	x1, x1, :lo12:.LC11
	ldr	x2, [sp, 32]
	str	x0, [x19]
	ldp	q1, q2, [x1]
	str	x2, [x19, 16]
	ldr	q0, [x1, 32]
	ldr	x1, [x1, 48]
	str	x1, [x0, 48]
	stp	q1, q2, [x0]
	str	q0, [x0, 32]
	ldr	x1, [x19]
	ldr	x0, [sp, 32]
	str	x0, [x19, 8]
	strb	wzr, [x1, x0]
	b	.L137
.L150:
	bl	__stack_chk_fail
	.cfi_endproc
.LFE2896:
	.size	_ZNK4asio5error6detail14netdb_category7messageB5cxx11Ei, .-_ZNK4asio5error6detail14netdb_category7messageB5cxx11Ei
	.section	.rodata._ZNK4asio5error6detail13misc_category7messageB5cxx11Ei.str1.8,"aMS",@progbits,1
	.align	3
.LC14:
	.string	"Already open"
	.align	3
.LC15:
	.string	"End of file"
	.align	3
.LC16:
	.string	"Element not found"
	.align	3
.LC17:
	.string	"The descriptor does not fit into the select call's fd_set"
	.align	3
.LC18:
	.string	"asio.misc error"
	.section	.text._ZNK4asio5error6detail13misc_category7messageB5cxx11Ei,"axG",@progbits,_ZNK4asio5error6detail13misc_category7messageB5cxx11Ei,comdat
	.align	2
	.p2align 4,,11
	.weak	_ZNK4asio5error6detail13misc_category7messageB5cxx11Ei
	.type	_ZNK4asio5error6detail13misc_category7messageB5cxx11Ei, %function
_ZNK4asio5error6detail13misc_category7messageB5cxx11Ei:
.LFB2908:
	.cfi_startproc
	stp	x29, x30, [sp, -48]!
	.cfi_def_cfa_offset 48
	.cfi_offset 29, -48
	.cfi_offset 30, -40
	adrp	x0, :got:__stack_chk_guard
	add	x2, x8, 16
	mov	x29, sp
	ldr	x0, [x0, #:got_lo12:__stack_chk_guard]
	str	x19, [sp, 16]
	.cfi_offset 19, -32
	mov	x19, x8
	ldr	x3, [x0]
	str	x3, [sp, 40]
	mov	x3, 0
	cmp	w1, 1
	beq	.L159
	cmp	w1, 2
	beq	.L160
	cmp	w1, 3
	beq	.L161
	cmp	w1, 4
	beq	.L162
	adrp	x0, .LC18
	add	x0, x0, :lo12:.LC18
	str	x2, [x8]
	mov	x1, 15
	ldr	x3, [x0]
	str	x3, [x8, 16]
	ldr	x0, [x0, 7]
	str	x0, [x2, 7]
	str	x1, [x8, 8]
	strb	wzr, [x8, 31]
.L151:
	adrp	x0, :got:__stack_chk_guard
	ldr	x0, [x0, #:got_lo12:__stack_chk_guard]
	ldr	x2, [sp, 40]
	ldr	x1, [x0]
	subs	x2, x2, x1
	mov	x1, 0
	bne	.L163
	mov	x0, x19
	ldr	x19, [sp, 16]
	ldp	x29, x30, [sp], 48
	.cfi_remember_state
	.cfi_restore 30
	.cfi_restore 29
	.cfi_restore 19
	.cfi_def_cfa_offset 0
	ret
	.p2align 2,,3
.L159:
	.cfi_restore_state
	adrp	x0, .LC14
	add	x0, x0, :lo12:.LC14
	str	x2, [x8]
	mov	x1, 12
	ldr	x3, [x0]
	str	x3, [x8, 16]
	ldr	w0, [x0, 8]
	str	w0, [x2, 8]
	str	x1, [x8, 8]
	strb	wzr, [x8, 28]
	b	.L151
	.p2align 2,,3
.L162:
	mov	x3, 57
	str	x2, [x8]
	add	x1, sp, 32
	mov	x2, 0
	mov	x0, x8
	str	x3, [sp, 32]
	bl	_ZNSt7__cxx1112basic_stringIcSt11char_traitsIcESaIcEE9_M_createERmm
	str	x0, [x19]
	adrp	x1, .LC17
	add	x1, x1, :lo12:.LC17
	ldr	x2, [sp, 32]
	str	x2, [x19, 16]
	ldr	q3, [x1, 32]
	ldp	q1, q2, [x1]
	ldr	q0, [x1, 41]
	str	q3, [x0, 32]
	stp	q1, q2, [x0]
	str	q0, [x0, 41]
	ldr	x1, [x19]
	ldr	x0, [sp, 32]
	str	x0, [x19, 8]
	strb	wzr, [x1, x0]
	b	.L151
	.p2align 2,,3
.L160:
	adrp	x0, .LC15
	add	x0, x0, :lo12:.LC15
	str	x2, [x8]
	mov	x1, 11
	ldr	x3, [x0]
	str	x3, [x8, 16]
	ldr	w0, [x0, 7]
	str	w0, [x2, 7]
	str	x1, [x8, 8]
	strb	wzr, [x8, 27]
	b	.L151
	.p2align 2,,3
.L161:
	mov	x3, 17
	str	x2, [x8]
	add	x1, sp, 32
	mov	x2, 0
	mov	x0, x8
	str	x3, [sp, 32]
	bl	_ZNSt7__cxx1112basic_stringIcSt11char_traitsIcESaIcEE9_M_createERmm
	str	x0, [x19]
	adrp	x1, .LC16
	add	x1, x1, :lo12:.LC16
	ldr	x2, [sp, 32]
	str	x2, [x19, 16]
	ldp	x2, x3, [x1]
	stp	x2, x3, [x0]
	ldrb	w1, [x1, 16]
	strb	w1, [x0, 16]
	ldr	x1, [x19]
	ldr	x0, [sp, 32]
	str	x0, [x19, 8]
	strb	wzr, [x1, x0]
	b	.L151
.L163:
	bl	__stack_chk_fail
	.cfi_endproc
.LFE2908:
	.size	_ZNK4asio5error6detail13misc_category7messageB5cxx11Ei, .-_ZNK4asio5error6detail13misc_category7messageB5cxx11Ei
	.global	__aarch64_ldadd4_acq_rel
	.section	.text._ZNSt23_Sp_counted_ptr_inplaceIN7asiopal13SerialChannelESaIS1_ELN9__gnu_cxx12_Lock_policyE2EE10_M_disposeEv,"axG",@progbits,_ZNSt23_Sp_counted_ptr_inplaceIN7asiopal13SerialChannelESaIS1_ELN9__gnu_cxx12_Lock_policyE2EE10_M_disposeEv,comdat
	.align	2
	.p2align 4,,11
	.weak	_ZNSt23_Sp_counted_ptr_inplaceIN7asiopal13SerialChannelESaIS1_ELN9__gnu_cxx12_Lock_policyE2EE10_M_disposeEv
	.type	_ZNSt23_Sp_counted_ptr_inplaceIN7asiopal13SerialChannelESaIS1_ELN9__gnu_cxx12_Lock_policyE2EE10_M_disposeEv, %function
_ZNSt23_Sp_counted_ptr_inplaceIN7asiopal13SerialChannelESaIS1_ELN9__gnu_cxx12_Lock_policyE2EE10_M_disposeEv:
.LFB10315:
	.cfi_startproc
	.cfi_personality 0x9b,DW.ref.__gxx_personality_v0
	.cfi_lsda 0x1b,.LLSDA10315
	stp	x29, x30, [sp, -144]!
	.cfi_def_cfa_offset 144
	.cfi_offset 29, -144
	.cfi_offset 30, -136
	adrp	x2, :got:__stack_chk_guard
	adrp	x1, :got:_ZTVN7asiopal13SerialChannelE
	mov	x29, sp
	stp	x19, x20, [sp, 16]
	.cfi_offset 19, -128
	.cfi_offset 20, -120
	mov	x20, x0
	ldr	x2, [x2, #:got_lo12:__stack_chk_guard]
	stp	x21, x22, [sp, 32]
	ldr	w19, [x20, 80]
	ldr	x1, [x1, #:got_lo12:_ZTVN7asiopal13SerialChannelE]
	ldr	x0, [x2]
	str	x0, [sp, 136]
	mov	x0, 0
	add	x1, x1, 16
	str	x1, [x20, 16]
	cmn	w19, #1
	.cfi_offset 21, -112
	.cfi_offset 22, -104
	bne	.L291
.L196:
	adrp	x0, :got:_ZTVN7asiopal13IAsyncChannelE
	ldr	x19, [x20, 64]
	ldr	x0, [x0, #:got_lo12:_ZTVN7asiopal13IAsyncChannelE]
	add	x0, x0, 16
	str	x0, [x20, 16]
	cbz	x19, .L208
	adrp	x21, :got:__libc_single_threaded
	ldr	x0, [x21, #:got_lo12:__libc_single_threaded]
	ldrb	w0, [x0]
	cbz	w0, .L209
	ldr	w0, [x19, 8]
	sub	w1, w0, #1
	str	w1, [x19, 8]
.L210:
	cmp	w0, 1
	beq	.L292
.L208:
	ldr	x19, [x20, 48]
	cbz	x19, .L215
	adrp	x21, :got:__libc_single_threaded
	ldr	x0, [x21, #:got_lo12:__libc_single_threaded]
	ldrb	w0, [x0]
	cbz	w0, .L216
	ldr	w0, [x19, 8]
	sub	w1, w0, #1
	str	w1, [x19, 8]
.L217:
	cmp	w0, 1
	beq	.L293
.L215:
	ldr	x19, [x20, 32]
	cbz	x19, .L164
	adrp	x0, :got:__libc_single_threaded
	ldr	x0, [x0, #:got_lo12:__libc_single_threaded]
	ldrb	w0, [x0]
	cbz	w0, .L223
	ldr	w0, [x19, 12]
	sub	w1, w0, #1
	str	w1, [x19, 12]
.L224:
	cmp	w0, 1
	beq	.L294
.L164:
	adrp	x0, :got:__stack_chk_guard
	ldr	x0, [x0, #:got_lo12:__stack_chk_guard]
	ldr	x2, [sp, 136]
	ldr	x1, [x0]
	subs	x2, x2, x1
	mov	x1, 0
	bne	.L286
	ldp	x19, x20, [sp, 16]
	ldp	x21, x22, [sp, 32]
	ldp	x29, x30, [sp], 144
	.cfi_remember_state
	.cfi_restore 30
	.cfi_restore 29
	.cfi_restore 21
	.cfi_restore 22
	.cfi_restore 19
	.cfi_restore 20
	.cfi_def_cfa_offset 0
	ret
	.p2align 2,,3
.L291:
	.cfi_restore_state
	ldr	x22, [x20, 88]
	stp	x23, x24, [sp, 48]
	.cfi_offset 24, -88
	.cfi_offset 23, -96
	stp	x25, x26, [sp, 64]
	.cfi_offset 26, -72
	.cfi_offset 25, -80
	cbz	x22, .L195
	ldr	x1, [x20, 96]
	add	x22, x22, 40
	ldrb	w21, [x20, 84]
	mov	x0, x22
	ldr	x1, [x1, 40]
	str	x1, [sp, 96]
	bl	pthread_mutex_lock
	ldr	x3, [x20, 88]
	ldrb	w0, [x3, 152]
	cbnz	w0, .L167
	stp	x27, x28, [sp, 80]
	.cfi_offset 28, -56
	.cfi_offset 27, -64
	tbnz	x21, 2, .L295
.L168:
	adrp	x28, :got:_ZGVZN4asio15system_categoryEvE8instance
	adrp	x26, __dso_handle
	mov	x27, 0
	add	x0, x26, :lo12:__dso_handle
	ldr	x28, [x28, #:got_lo12:_ZGVZN4asio15system_categoryEvE8instance]
	mov	x24, 0
	mov	w21, 0
	str	x0, [sp, 104]
.L169:
	add	x0, x3, w21, sxtw 4
	sxtw	x25, w21
	ldr	x19, [x0, 104]
	cbz	x19, .L230
	adrp	x23, :got:_ZN4asio6detail15system_categoryD1Ev
	adrp	x26, :got:_ZZN4asio15system_categoryEvE8instance
	ldr	x23, [x23, #:got_lo12:_ZN4asio6detail15system_categoryD1Ev]
	ldar	x0, [x28]
	tbz	x0, 0, .L296
	.p2align 3,,7
.L171:
	ldr	x3, [x20, 88]
	mov	w0, 125
	str	w0, [x19, 24]
	ldr	x1, [x26, #:got_lo12:_ZZN4asio15system_categoryEvE8instance]
	add	x2, x3, x25, lsl 4
	str	x1, [x19, 32]
	ldr	x0, [x2, 104]
	cbz	x0, .L173
.L299:
	ldr	x1, [x0]
	str	x1, [x2, 104]
	cbz	x1, .L297
	str	xzr, [x0]
	str	xzr, [x19]
	cbz	x27, .L298
.L227:
	str	x19, [x27]
	cbz	x1, .L175
.L176:
	mov	x27, x19
	mov	x19, x1
	ldar	x0, [x28]
	tbnz	x0, 0, .L171
.L296:
	mov	x0, x28
	bl	__cxa_guard_acquire
	cbz	w0, .L171
	ldr	x1, [x26, #:got_lo12:_ZZN4asio15system_categoryEvE8instance]
	mov	x0, x23
	ldr	x2, [sp, 104]
	bl	__cxa_atexit
	mov	x0, x28
	bl	__cxa_guard_release
	ldr	x3, [x20, 88]
	mov	w0, 125
	str	w0, [x19, 24]
	ldr	x1, [x26, #:got_lo12:_ZZN4asio15system_categoryEvE8instance]
	add	x2, x3, x25, lsl 4
	str	x1, [x19, 32]
	ldr	x0, [x2, 104]
	cbnz	x0, .L299
	.p2align 3,,7
.L173:
	str	xzr, [x19]
	cbz	x27, .L231
	str	x19, [x27]
.L175:
	add	w21, w21, 1
	cmp	w21, 3
	beq	.L177
.L303:
	mov	x27, x19
	b	.L169
	.p2align 2,,3
.L167:
	.cfi_restore 27
	.cfi_restore 28
	mov	x0, x22
	bl	pthread_mutex_unlock
	ldr	w19, [x20, 80]
.L189:
	cmn	w19, #1
	beq	.L284
.L195:
	bl	__errno_location
	mov	x21, x0
	adrp	x23, :got:_ZGVZN4asio15system_categoryEvE8instance
	mov	w0, w19
	str	wzr, [x21]
	bl	close
	ldr	w25, [x21]
	ldr	x24, [x23, #:got_lo12:_ZGVZN4asio15system_categoryEvE8instance]
	mov	w22, w0
	ldar	x0, [x24]
	tbz	x0, 0, .L300
.L198:
	cbnz	w22, .L301
.L284:
	ldp	x23, x24, [sp, 48]
	.cfi_restore 24
	.cfi_restore 23
	ldp	x25, x26, [sp, 64]
	.cfi_restore 26
	.cfi_restore 25
	b	.L196
	.p2align 2,,3
.L292:
	ldr	x1, [x19]
	mov	x0, x19
	ldr	x1, [x1, 16]
	blr	x1
	ldr	x21, [x21, #:got_lo12:__libc_single_threaded]
	ldrb	w0, [x21]
	cbz	w0, .L212
	ldr	w0, [x19, 12]
	sub	w1, w0, #1
	str	w1, [x19, 12]
.L213:
	cmp	w0, 1
	bne	.L208
	ldr	x1, [x19]
	mov	x0, x19
	ldr	x1, [x1, 24]
	blr	x1
	b	.L208
	.p2align 2,,3
.L293:
	ldr	x1, [x19]
	mov	x0, x19
	ldr	x1, [x1, 16]
	blr	x1
	ldr	x21, [x21, #:got_lo12:__libc_single_threaded]
	ldrb	w0, [x21]
	cbz	w0, .L219
	ldr	w0, [x19, 12]
	sub	w1, w0, #1
	str	w1, [x19, 12]
.L220:
	cmp	w0, 1
	bne	.L215
	ldr	x1, [x19]
	mov	x0, x19
	ldr	x1, [x1, 24]
	blr	x1
	b	.L215
	.p2align 2,,3
.L294:
	adrp	x0, :got:__stack_chk_guard
	ldr	x0, [x0, #:got_lo12:__stack_chk_guard]
	ldr	x2, [sp, 136]
	ldr	x1, [x0]
	subs	x2, x2, x1
	mov	x1, 0
	bne	.L286
	ldr	x1, [x19]
	mov	x0, x19
	ldp	x19, x20, [sp, 16]
	ldr	x1, [x1, 24]
	ldp	x21, x22, [sp, 32]
	mov	x16, x1
	ldp	x29, x30, [sp], 144
	.cfi_remember_state
	.cfi_restore 30
	.cfi_restore 29
	.cfi_restore 21
	.cfi_restore 22
	.cfi_restore 19
	.cfi_restore 20
	.cfi_def_cfa_offset 0
	br	x16
	.p2align 2,,3
.L223:
	.cfi_restore_state
	add	x1, x19, 12
	mov	w0, -1
	bl	__aarch64_ldadd4_acq_rel
	b	.L224
	.p2align 2,,3
.L209:
	add	x1, x19, 8
	mov	w0, -1
	bl	__aarch64_ldadd4_acq_rel
	b	.L210
	.p2align 2,,3
.L216:
	add	x1, x19, 8
	mov	w0, -1
	bl	__aarch64_ldadd4_acq_rel
	b	.L217
	.p2align 2,,3
.L300:
	.cfi_offset 23, -96
	.cfi_offset 24, -88
	.cfi_offset 25, -80
	.cfi_offset 26, -72
	mov	x0, x24
	bl	__cxa_guard_acquire
	cbz	w0, .L198
	adrp	x1, :got:_ZZN4asio15system_categoryEvE8instance
	adrp	x0, :got:_ZN4asio6detail15system_categoryD1Ev
	adrp	x2, __dso_handle
	add	x2, x2, :lo12:__dso_handle
	ldr	x1, [x1, #:got_lo12:_ZZN4asio15system_categoryEvE8instance]
	ldr	x0, [x0, #:got_lo12:_ZN4asio6detail15system_categoryD1Ev]
	bl	__cxa_atexit
	mov	x0, x24
	bl	__cxa_guard_release
	cbz	w22, .L284
	.p2align 3,,7
.L301:
	ldr	x22, [x23, #:got_lo12:_ZGVZN4asio15system_categoryEvE8instance]
	ldar	x0, [x22]
	tbz	x0, 0, .L302
.L201:
	cmp	w25, 11
	beq	.L203
.L290:
	ldr	x23, [x23, #:got_lo12:_ZGVZN4asio15system_categoryEvE8instance]
	ldar	x0, [x23]
	tbnz	x0, 0, .L284
	mov	x0, x23
	bl	__cxa_guard_acquire
	cbz	w0, .L284
	adrp	x1, :got:_ZZN4asio15system_categoryEvE8instance
	adrp	x0, :got:_ZN4asio6detail15system_categoryD1Ev
	adrp	x2, __dso_handle
	add	x2, x2, :lo12:__dso_handle
	ldr	x1, [x1, #:got_lo12:_ZZN4asio15system_categoryEvE8instance]
	ldr	x0, [x0, #:got_lo12:_ZN4asio6detail15system_categoryD1Ev]
	bl	__cxa_atexit
	mov	x0, x23
	bl	__cxa_guard_release
	ldp	x23, x24, [sp, 48]
	.cfi_restore 24
	.cfi_restore 23
	ldp	x25, x26, [sp, 64]
	.cfi_restore 26
	.cfi_restore 25
	b	.L196
	.p2align 2,,3
.L297:
	.cfi_offset 23, -96
	.cfi_offset 24, -88
	.cfi_offset 25, -80
	.cfi_offset 26, -72
	.cfi_offset 27, -64
	.cfi_offset 28, -56
	str	xzr, [x2, 112]
	str	xzr, [x0]
	str	xzr, [x19]
	cbnz	x27, .L227
	.p2align 3,,7
.L231:
	add	w21, w21, 1
	mov	x24, x19
	cmp	w21, 3
	bne	.L303
.L177:
	ldr	x23, [sp, 96]
	mov	w1, 1
	mov	w0, -1
	str	w0, [x3, 96]
	strb	w1, [x3, 152]
	mov	x0, x22
	add	x22, x23, 128
	bl	pthread_mutex_unlock
	mov	x0, x22
	ldr	x21, [x20, 88]
	bl	pthread_mutex_lock
	ldr	x0, [x23, 176]
	cmp	x21, x0
	beq	.L304
.L179:
	ldr	x0, [x21, 32]
	cbz	x0, .L180
	ldr	x1, [x21, 24]
	str	x1, [x0, 24]
.L180:
	ldr	x0, [x21, 24]
	cbz	x0, .L181
	ldr	x1, [x21, 32]
	str	x1, [x0, 32]
.L181:
	ldr	x23, [sp, 96]
	mov	x0, x22
	ldr	x2, [x23, 184]
	stp	x2, xzr, [x21, 24]
	str	x21, [x23, 184]
	bl	pthread_mutex_unlock
	str	xzr, [x20, 88]
	cbz	x24, .L182
	ldr	x21, [x23, 40]
	ldrb	w0, [x21, 40]
	cbz	w0, .L183
	adrp	x0, :got:_ZN4asio6detail10call_stackINS0_15task_io_serviceENS0_27task_io_service_thread_infoEE4top_E
	ldr	x0, [x0, #:got_lo12:_ZN4asio6detail10call_stackINS0_15task_io_serviceENS0_27task_io_service_thread_infoEE4top_E]
	ldr	w0, [x0]
	bl	pthread_getspecific
	cbnz	x0, .L186
	b	.L183
	.p2align 2,,3
.L184:
	ldr	x0, [x0, 16]
	cbz	x0, .L183
.L186:
	ldr	x1, [x0]
	cmp	x21, x1
	bne	.L184
	ldr	x0, [x0, 8]
	cbz	x0, .L183
	ldr	x2, [x0, 16]
	add	x1, x0, 8
	cbz	x2, .L187
	str	x24, [x2]
	str	x19, [x1, 8]
	.p2align 3,,7
.L182:
	ldr	w19, [x20, 80]
	ldp	x27, x28, [sp, 80]
	.cfi_remember_state
	.cfi_restore 28
	.cfi_restore 27
	b	.L189
	.p2align 2,,3
.L298:
	.cfi_restore_state
	mov	x24, x19
	b	.L176
	.p2align 2,,3
.L183:
	add	x23, x21, 48
	mov	x0, x23
	bl	pthread_mutex_lock
	ldr	x1, [x21, 208]
	add	x0, x21, 200
	cbz	x1, .L190
	str	x24, [x1]
.L191:
	str	x19, [x0, 8]
	add	x22, x21, 96
	ldr	x0, [x21, 144]
	orr	x0, x0, 1
	str	x0, [x21, 144]
	cmp	x0, 1
	beq	.L192
	mov	x0, x23
	bl	pthread_mutex_unlock
	mov	x0, x22
	bl	pthread_cond_signal
	b	.L182
.L192:
	ldrb	w1, [x21, 184]
	cbnz	w1, .L194
	ldr	x4, [x21, 152]
	cbz	x4, .L194
	mov	w1, 9
	strb	w0, [x21, 184]
	ldr	w2, [x4, 96]
	add	x0, x4, 96
	movk	w1, 0x8000, lsl 16
	str	w1, [sp, 120]
	str	x0, [sp, 128]
	add	x3, sp, 120
	mov	w1, 3
	ldr	w0, [x4, 104]
	bl	epoll_ctl
.L194:
	mov	x0, x23
	bl	pthread_mutex_unlock
	b	.L182
	.p2align 2,,3
.L212:
	.cfi_restore 23
	.cfi_restore 24
	.cfi_restore 25
	.cfi_restore 26
	.cfi_restore 27
	.cfi_restore 28
	add	x1, x19, 12
	mov	w0, -1
	bl	__aarch64_ldadd4_acq_rel
	b	.L213
	.p2align 2,,3
.L219:
	add	x1, x19, 12
	mov	w0, -1
	bl	__aarch64_ldadd4_acq_rel
	b	.L220
	.p2align 2,,3
.L230:
	.cfi_offset 23, -96
	.cfi_offset 24, -88
	.cfi_offset 25, -80
	.cfi_offset 26, -72
	.cfi_offset 27, -64
	.cfi_offset 28, -56
	mov	x19, x27
	b	.L175
	.p2align 2,,3
.L295:
	ldr	x0, [sp, 96]
	str	wzr, [sp, 120]
	str	xzr, [sp, 128]
	add	x3, sp, 120
	mov	w2, w19
	mov	w1, 2
	ldr	w0, [x0, 104]
	bl	epoll_ctl
	ldr	x3, [x20, 88]
	b	.L168
	.p2align 2,,3
.L302:
	.cfi_restore 27
	.cfi_restore 28
	mov	x0, x22
	bl	__cxa_guard_acquire
	cbz	w0, .L201
	adrp	x1, :got:_ZZN4asio15system_categoryEvE8instance
	adrp	x0, :got:_ZN4asio6detail15system_categoryD1Ev
	adrp	x2, __dso_handle
	add	x2, x2, :lo12:__dso_handle
	ldr	x1, [x1, #:got_lo12:_ZZN4asio15system_categoryEvE8instance]
	ldr	x0, [x0, #:got_lo12:_ZN4asio6detail15system_categoryD1Ev]
	bl	__cxa_atexit
	mov	x0, x22
	bl	__cxa_guard_release
	b	.L201
	.p2align 2,,3
.L304:
	.cfi_offset 27, -64
	.cfi_offset 28, -56
	ldr	x1, [sp, 96]
	ldr	x0, [x21, 24]
	str	x0, [x1, 176]
	b	.L179
	.p2align 2,,3
.L203:
	.cfi_restore 27
	.cfi_restore 28
	add	x2, sp, 120
	mov	w0, w19
	mov	x1, 21537
	str	wzr, [sp, 120]
	bl	ioctl
	ldrb	w1, [x20, 84]
	mov	w0, w19
	and	w1, w1, -4
	strb	w1, [x20, 84]
	str	wzr, [x21]
	bl	close
	b	.L290
.L190:
	.cfi_offset 27, -64
	.cfi_offset 28, -56
	str	x24, [x21, 200]
	b	.L191
.L187:
	str	x24, [x0, 8]
	str	x19, [x1, 8]
	b	.L182
.L286:
	.cfi_restore 23
	.cfi_restore 24
	.cfi_restore 25
	.cfi_restore 26
	.cfi_restore 27
	.cfi_restore 28
	stp	x23, x24, [sp, 48]
	.cfi_offset 24, -88
	.cfi_offset 23, -96
	stp	x25, x26, [sp, 64]
	.cfi_offset 26, -72
	.cfi_offset 25, -80
	stp	x27, x28, [sp, 80]
	.cfi_offset 28, -56
	.cfi_offset 27, -64
	bl	__stack_chk_fail
	.cfi_endproc
.LFE10315:
	.global	__gxx_personality_v0
	.section	.gcc_except_table._ZNSt23_Sp_counted_ptr_inplaceIN7asiopal13SerialChannelESaIS1_ELN9__gnu_cxx12_Lock_policyE2EE10_M_disposeEv,"aG",@progbits,_ZNSt23_Sp_counted_ptr_inplaceIN7asiopal13SerialChannelESaIS1_ELN9__gnu_cxx12_Lock_policyE2EE10_M_disposeEv,comdat
.LLSDA10315:
	.byte	0xff
	.byte	0xff
	.byte	0x1
	.uleb128 .LLSDACSE10315-.LLSDACSB10315
.LLSDACSB10315:
.LLSDACSE10315:
	.section	.text._ZNSt23_Sp_counted_ptr_inplaceIN7asiopal13SerialChannelESaIS1_ELN9__gnu_cxx12_Lock_policyE2EE10_M_disposeEv,"axG",@progbits,_ZNSt23_Sp_counted_ptr_inplaceIN7asiopal13SerialChannelESaIS1_ELN9__gnu_cxx12_Lock_policyE2EE10_M_disposeEv,comdat
	.size	_ZNSt23_Sp_counted_ptr_inplaceIN7asiopal13SerialChannelESaIS1_ELN9__gnu_cxx12_Lock_policyE2EE10_M_disposeEv, .-_ZNSt23_Sp_counted_ptr_inplaceIN7asiopal13SerialChannelESaIS1_ELN9__gnu_cxx12_Lock_policyE2EE10_M_disposeEv
	.section	.rodata._ZNSt12system_errorC2ESt10error_codePKc.str1.8,"aMS",@progbits,1
	.align	3
.LC19:
	.string	": "
	.section	.text._ZNSt12system_errorC2ESt10error_codePKc,"axG",@progbits,_ZNSt12system_errorC5ESt10error_codePKc,comdat
	.align	2
	.p2align 4,,11
	.weak	_ZNSt12system_errorC2ESt10error_codePKc
	.type	_ZNSt12system_errorC2ESt10error_codePKc, %function
_ZNSt12system_errorC2ESt10error_codePKc:
.LFB2825:
	.cfi_startproc
	.cfi_personality 0x9b,DW.ref.__gxx_personality_v0
	.cfi_lsda 0x1b,.LLSDA2825
	stp	x29, x30, [sp, -176]!
	.cfi_def_cfa_offset 176
	.cfi_offset 29, -176
	.cfi_offset 30, -168
	adrp	x4, :got:__stack_chk_guard
	mov	x29, sp
	stp	x19, x20, [sp, 16]
	.cfi_offset 19, -160
	.cfi_offset 20, -152
	mov	x20, x2
	mov	x19, x0
	ldr	x2, [x4, #:got_lo12:__stack_chk_guard]
	stp	x21, x22, [sp, 32]
	mov	x0, x20
	ldr	x4, [x20]
	.cfi_offset 21, -144
	.cfi_offset 22, -136
	mov	x21, x1
	mov	x22, x3
	ldr	x4, [x4, 32]
	str	x23, [sp, 48]
	.cfi_offset 23, -128
	add	x23, sp, 136
	mov	x8, x23
	ldr	x3, [x2]
	str	x3, [sp, 168]
	mov	x3, 0
.LEHB0:
	blr	x4
.LEHE0:
	adrp	x3, .LC19
	mov	x0, x23
	add	x3, x3, :lo12:.LC19
	mov	x4, 2
	mov	x2, 0
	mov	x1, 0
.LEHB1:
	bl	_ZNSt7__cxx1112basic_stringIcSt11char_traitsIcESaIcEE10_M_replaceEmmPKcm
.LEHE1:
	add	x23, sp, 120
	str	x23, [sp, 104]
	mov	x4, x0
	ldr	x1, [x0], 16
	cmp	x1, x0
	beq	.L325
	ldr	x2, [x4, 16]
	str	x1, [sp, 104]
	str	x2, [sp, 120]
.L307:
	ldr	x1, [x4, 8]
	str	x1, [sp, 112]
	stp	x0, xzr, [x4]
	mov	x0, x22
	strb	wzr, [x4, 16]
	bl	strlen
	mov	x4, x0
	mov	x3, x22
	add	x0, sp, 104
	mov	x2, 0
	mov	x1, 0
.LEHB2:
	bl	_ZNSt7__cxx1112basic_stringIcSt11char_traitsIcESaIcEE10_M_replaceEmmPKcm
.LEHE2:
	add	x22, sp, 88
	str	x22, [sp, 72]
	mov	x3, x0
	ldr	x1, [x0], 16
	cmp	x1, x0
	beq	.L326
	ldr	x2, [x3, 16]
	str	x1, [sp, 72]
	str	x2, [sp, 88]
.L309:
	ldr	x1, [x3, 8]
	str	x1, [sp, 80]
	stp	x0, xzr, [x3]
	add	x1, sp, 72
	mov	x0, x19
	strb	wzr, [x3, 16]
.LEHB3:
	bl	_ZNSt13runtime_errorC2ERKNSt7__cxx1112basic_stringIcSt11char_traitsIcESaIcEEE
.LEHE3:
	ldr	x0, [sp, 72]
	cmp	x0, x22
	beq	.L310
	ldr	x1, [sp, 88]
	add	x1, x1, 1
	bl	_ZdlPvm
.L310:
	ldr	x0, [sp, 104]
	cmp	x0, x23
	beq	.L311
	ldr	x1, [sp, 120]
	add	x1, x1, 1
	bl	_ZdlPvm
.L311:
	ldr	x0, [sp, 136]
	add	x1, sp, 152
	cmp	x0, x1
	beq	.L312
	ldr	x1, [sp, 152]
	add	x1, x1, 1
	bl	_ZdlPvm
.L312:
	adrp	x0, :got:_ZTVSt12system_error
	adrp	x1, :got:__stack_chk_guard
	stp	x21, x20, [x19, 16]
	ldr	x0, [x0, #:got_lo12:_ZTVSt12system_error]
	ldr	x1, [x1, #:got_lo12:__stack_chk_guard]
	add	x0, x0, 16
	str	x0, [x19]
	ldr	x0, [sp, 168]
	ldr	x2, [x1]
	subs	x0, x0, x2
	mov	x2, 0
	bne	.L327
	ldp	x19, x20, [sp, 16]
	ldp	x21, x22, [sp, 32]
	ldr	x23, [sp, 48]
	ldp	x29, x30, [sp], 176
	.cfi_remember_state
	.cfi_restore 30
	.cfi_restore 29
	.cfi_restore 23
	.cfi_restore 21
	.cfi_restore 22
	.cfi_restore 19
	.cfi_restore 20
	.cfi_def_cfa_offset 0
	ret
	.p2align 2,,3
.L325:
	.cfi_restore_state
	ldp	x2, x3, [x4, 16]
	stp	x2, x3, [sp, 120]
	b	.L307
	.p2align 2,,3
.L326:
	ldp	x4, x5, [x3, 16]
	stp	x4, x5, [sp, 88]
	b	.L309
.L327:
	bl	__stack_chk_fail
.L322:
	ldr	x2, [sp, 72]
	mov	x19, x0
	cmp	x2, x22
	beq	.L315
	ldr	x1, [sp, 88]
	mov	x0, x2
	add	x1, x1, 1
	bl	_ZdlPvm
.L315:
	ldr	x0, [sp, 104]
	cmp	x0, x23
	beq	.L317
	ldr	x1, [sp, 120]
	add	x1, x1, 1
	bl	_ZdlPvm
.L317:
	ldr	x0, [sp, 136]
	add	x1, sp, 152
	cmp	x0, x1
	beq	.L318
	ldr	x1, [sp, 152]
	add	x1, x1, 1
	bl	_ZdlPvm
.L318:
	mov	x0, x19
.LEHB4:
	bl	_Unwind_Resume
.LEHE4:
.L320:
	mov	x19, x0
	b	.L317
.L321:
	mov	x19, x0
	b	.L315
	.cfi_endproc
.LFE2825:
	.section	.gcc_except_table._ZNSt12system_errorC2ESt10error_codePKc,"aG",@progbits,_ZNSt12system_errorC5ESt10error_codePKc,comdat
.LLSDA2825:
	.byte	0xff
	.byte	0xff
	.byte	0x1
	.uleb128 .LLSDACSE2825-.LLSDACSB2825
.LLSDACSB2825:
	.uleb128 .LEHB0-.LFB2825
	.uleb128 .LEHE0-.LEHB0
	.uleb128 0
	.uleb128 0
	.uleb128 .LEHB1-.LFB2825
	.uleb128 .LEHE1-.LEHB1
	.uleb128 .L320-.LFB2825
	.uleb128 0
	.uleb128 .LEHB2-.LFB2825
	.uleb128 .LEHE2-.LEHB2
	.uleb128 .L321-.LFB2825
	.uleb128 0
	.uleb128 .LEHB3-.LFB2825
	.uleb128 .LEHE3-.LEHB3
	.uleb128 .L322-.LFB2825
	.uleb128 0
	.uleb128 .LEHB4-.LFB2825
	.uleb128 .LEHE4-.LEHB4
	.uleb128 0
	.uleb128 0
.LLSDACSE2825:
	.section	.text._ZNSt12system_errorC2ESt10error_codePKc,"axG",@progbits,_ZNSt12system_errorC5ESt10error_codePKc,comdat
	.size	_ZNSt12system_errorC2ESt10error_codePKc, .-_ZNSt12system_errorC2ESt10error_codePKc
	.weak	_ZNSt12system_errorC1ESt10error_codePKc
	.set	_ZNSt12system_errorC1ESt10error_codePKc,_ZNSt12system_errorC2ESt10error_codePKc
	.section	.rodata._ZN4asio6detail20posix_tss_ptr_createERj.str1.8,"aMS",@progbits,1
	.align	3
.LC20:
	.string	"tss"
	.section	.text._ZN4asio6detail20posix_tss_ptr_createERj,"axG",@progbits,_ZN4asio6detail20posix_tss_ptr_createERj,comdat
	.align	2
	.p2align 4,,11
	.weak	_ZN4asio6detail20posix_tss_ptr_createERj
	.type	_ZN4asio6detail20posix_tss_ptr_createERj, %function
_ZN4asio6detail20posix_tss_ptr_createERj:
.LFB2913:
	.cfi_startproc
	.cfi_personality 0x9b,DW.ref.__gxx_personality_v0
	.cfi_lsda 0x1b,.LLSDA2913
	stp	x29, x30, [sp, -96]!
	.cfi_def_cfa_offset 96
	.cfi_offset 29, -96
	.cfi_offset 30, -88
	adrp	x2, :got:__stack_chk_guard
	mov	x1, 0
	mov	x29, sp
	ldr	x2, [x2, #:got_lo12:__stack_chk_guard]
	stp	x19, x20, [sp, 16]
	.cfi_offset 19, -80
	.cfi_offset 20, -72
	adrp	x20, :got:_ZGVZN4asio15system_categoryEvE8instance
	str	x21, [sp, 32]
	.cfi_offset 21, -64
	ldr	x3, [x2]
	str	x3, [sp, 88]
	mov	x3, 0
	bl	pthread_key_create
	mov	w19, w0
	ldr	x20, [x20, #:got_lo12:_ZGVZN4asio15system_categoryEvE8instance]
	ldar	x0, [x20]
	adrp	x21, :got:_ZZN4asio15system_categoryEvE8instance
	tbz	x0, 0, .L340
.L330:
	mov	x1, 0
	ldr	x21, [x21, #:got_lo12:_ZZN4asio15system_categoryEvE8instance]
	bfi	x1, x19, 0, 32
	cbnz	w19, .L341
	adrp	x0, :got:__stack_chk_guard
	ldr	x0, [x0, #:got_lo12:__stack_chk_guard]
	ldr	x2, [sp, 88]
	ldr	x1, [x0]
	subs	x2, x2, x1
	mov	x1, 0
	bne	.L342
	ldp	x19, x20, [sp, 16]
	ldr	x21, [sp, 32]
	ldp	x29, x30, [sp], 96
	.cfi_remember_state
	.cfi_restore 30
	.cfi_restore 29
	.cfi_restore 21
	.cfi_restore 19
	.cfi_restore 20
	.cfi_def_cfa_offset 0
	ret
	.p2align 2,,3
.L340:
	.cfi_restore_state
	mov	x0, x20
	adrp	x21, :got:_ZZN4asio15system_categoryEvE8instance
	bl	__cxa_guard_acquire
	cbz	w0, .L330
	adrp	x0, :got:_ZN4asio6detail15system_categoryD1Ev
	adrp	x2, __dso_handle
	ldr	x1, [x21, #:got_lo12:_ZZN4asio15system_categoryEvE8instance]
	add	x2, x2, :lo12:__dso_handle
	ldr	x0, [x0, #:got_lo12:_ZN4asio6detail15system_categoryD1Ev]
	bl	__cxa_atexit
	mov	x0, x20
	bl	__cxa_guard_release
	b	.L330
.L342:
	bl	__stack_chk_fail
.L341:
	mov	x2, x21
	adrp	x3, .LC20
	add	x3, x3, :lo12:.LC20
	add	x20, sp, 56
	mov	x0, x20
.LEHB5:
	bl	_ZNSt12system_errorC1ESt10error_codePKc
.LEHE5:
	mov	x0, 32
	bl	__cxa_allocate_exception
	mov	x19, x0
	mov	x1, x20
	bl	_ZNSt13runtime_errorC2ERKS_
	adrp	x3, :got:_ZTVSt12system_error
	adrp	x2, :got:_ZNSt12system_errorD1Ev
	adrp	x1, :got:_ZTISt12system_error
	mov	x0, x19
	ldr	x3, [x3, #:got_lo12:_ZTVSt12system_error]
	ldp	x4, x5, [sp, 72]
	add	x3, x3, 16
	ldr	x2, [x2, #:got_lo12:_ZNSt12system_errorD1Ev]
	str	x3, [x19]
	ldr	x1, [x1, #:got_lo12:_ZTISt12system_error]
	stp	x4, x5, [x19, 16]
.LEHB6:
	bl	__cxa_throw
.LEHE6:
.L335:
	mov	x19, x0
	mov	x0, x20
	bl	_ZNSt12system_errorD1Ev
	mov	x0, x19
.LEHB7:
	bl	_Unwind_Resume
.LEHE7:
	.cfi_endproc
.LFE2913:
	.section	.gcc_except_table._ZN4asio6detail20posix_tss_ptr_createERj,"aG",@progbits,_ZN4asio6detail20posix_tss_ptr_createERj,comdat
.LLSDA2913:
	.byte	0xff
	.byte	0xff
	.byte	0x1
	.uleb128 .LLSDACSE2913-.LLSDACSB2913
.LLSDACSB2913:
	.uleb128 .LEHB5-.LFB2913
	.uleb128 .LEHE5-.LEHB5
	.uleb128 0
	.uleb128 0
	.uleb128 .LEHB6-.LFB2913
	.uleb128 .LEHE6-.LEHB6
	.uleb128 .L335-.LFB2913
	.uleb128 0
	.uleb128 .LEHB7-.LFB2913
	.uleb128 .LEHE7-.LEHB7
	.uleb128 0
	.uleb128 0
.LLSDACSE2913:
	.section	.text._ZN4asio6detail20posix_tss_ptr_createERj,"axG",@progbits,_ZN4asio6detail20posix_tss_ptr_createERj,comdat
	.size	_ZN4asio6detail20posix_tss_ptr_createERj, .-_ZN4asio6detail20posix_tss_ptr_createERj
	.section	.text._ZN8asiodnp39IOHandlerD2Ev,"axG",@progbits,_ZN8asiodnp39IOHandlerD5Ev,comdat
	.align	2
	.p2align 4,,11
	.weak	_ZN8asiodnp39IOHandlerD2Ev
	.type	_ZN8asiodnp39IOHandlerD2Ev, %function
_ZN8asiodnp39IOHandlerD2Ev:
.LFB7647:
	.cfi_startproc
	stp	x29, x30, [sp, -112]!
	.cfi_def_cfa_offset 112
	.cfi_offset 29, -112
	.cfi_offset 30, -104
	adrp	x1, :got:_ZTVN8asiodnp39IOHandlerE
	adrp	x2, :got:_ZTVN8opendnp317MultidropTaskLockE
	mov	x29, sp
	ldr	x1, [x1, #:got_lo12:_ZTVN8asiodnp39IOHandlerE]
	stp	x23, x24, [sp, 48]
	.cfi_offset 23, -64
	.cfi_offset 24, -56
	mov	x23, x0
	ldr	x2, [x2, #:got_lo12:_ZTVN8opendnp317MultidropTaskLockE]
	stp	x21, x22, [sp, 32]
	.cfi_offset 21, -80
	.cfi_offset 22, -72
	add	x21, x0, 712
	ldr	x0, [x0, 712]
	stp	x19, x20, [sp, 16]
	add	x3, x1, 16
	stp	x25, x26, [sp, 64]
	add	x1, x1, 104
	add	x2, x2, 16
	stp	x3, x1, [x23]
	str	x2, [x23, 648]
	.cfi_offset 19, -96
	.cfi_offset 20, -88
	.cfi_offset 25, -48
	.cfi_offset 26, -40
	cbz	x0, .L344
	ldr	x20, [x21, 72]
	ldr	x19, [x21, 40]
	add	x20, x20, 8
	cmp	x19, x20
	bcs	.L345
	.p2align 3,,7
.L346:
	ldr	x0, [x19], 8
	mov	x1, 512
	bl	_ZdlPvm
	cmp	x20, x19
	bhi	.L346
	ldr	x0, [x23, 712]
.L345:
	ldr	x1, [x21, 8]
	lsl	x1, x1, 3
	bl	_ZdlPvm
.L344:
	ldr	x19, [x23, 680]
	cbz	x19, .L350
.L347:
	ldr	x0, [x19, 24]
	bl	_ZNSt8_Rb_treeIPN8opendnp317IScheduleCallbackES2_St9_IdentityIS2_ESt4lessIS2_ESaIS2_EE8_M_eraseEPSt13_Rb_tree_nodeIS2_E.isra.0
	mov	x0, x19
	mov	x1, 40
	ldr	x19, [x19, 16]
	bl	_ZdlPvm
	cbnz	x19, .L347
.L350:
	ldr	x20, [x23, 640]
	cbz	x20, .L351
	adrp	x19, :got:__libc_single_threaded
	ldr	x0, [x19, #:got_lo12:__libc_single_threaded]
	ldrb	w0, [x0]
	cbz	w0, .L352
	ldr	w0, [x20, 8]
	sub	w1, w0, #1
	str	w1, [x20, 8]
.L353:
	cmp	w0, 1
	beq	.L471
.L351:
	ldr	x20, [x23, 240]
	cbz	x20, .L357
	adrp	x19, :got:__libc_single_threaded
	ldr	x0, [x19, #:got_lo12:__libc_single_threaded]
	ldrb	w0, [x0]
	cbz	w0, .L358
	ldr	w0, [x20, 8]
	sub	w1, w0, #1
	str	w1, [x20, 8]
.L359:
	cmp	w0, 1
	beq	.L472
.L357:
	ldr	x20, [x23, 224]
	cbz	x20, .L364
	adrp	x19, :got:__libc_single_threaded
	ldr	x0, [x19, #:got_lo12:__libc_single_threaded]
	ldrb	w0, [x0]
	cbz	w0, .L365
	ldr	w0, [x20, 8]
	sub	w1, w0, #1
	str	w1, [x20, 8]
.L366:
	cmp	w0, 1
	beq	.L473
.L364:
	ldp	x0, x2, [x23, 168]
	adrp	x20, :got:__libc_single_threaded
	ldr	x25, [x23, 208]
	stp	x0, x2, [sp, 96]
	ldr	x20, [x20, #:got_lo12:__libc_single_threaded]
	add	x22, x2, 8
	ldr	x21, [x23, 152]
	ldp	x26, x24, [x23, 184]
	cmp	x25, x22
	bls	.L381
	stp	x27, x28, [sp, 80]
	.cfi_offset 28, -24
	.cfi_offset 27, -32
	.p2align 3,,7
.L370:
	ldr	x19, [x22]
	add	x28, x19, 512
	b	.L380
	.p2align 2,,3
.L374:
	add	x19, x19, 32
	cmp	x19, x28
	beq	.L474
.L380:
	ldr	x27, [x19, 24]
	cbz	x27, .L374
	ldrb	w0, [x20]
	cbz	w0, .L375
	ldr	w0, [x27, 8]
	sub	w1, w0, #1
	str	w1, [x27, 8]
.L376:
	cmp	w0, 1
	bne	.L374
	ldr	x1, [x27]
	mov	x0, x27
	ldr	x1, [x1, 16]
	blr	x1
	ldrb	w0, [x20]
	cbz	w0, .L378
	ldr	w0, [x27, 12]
	sub	w1, w0, #1
	str	w1, [x27, 12]
.L379:
	cmp	w0, 1
	bne	.L374
	ldr	x1, [x27]
	mov	x0, x27
	add	x19, x19, 32
	ldr	x1, [x1, 24]
	blr	x1
	cmp	x19, x28
	bne	.L380
	.p2align 3,,7
.L474:
	add	x22, x22, 8
	cmp	x25, x22
	bhi	.L370
	ldp	x27, x28, [sp, 80]
	.cfi_restore 28
	.cfi_restore 27
.L381:
	ldr	x0, [sp, 104]
	cmp	x0, x25
	beq	.L475
	ldr	x0, [sp, 96]
	adrp	x20, :got:__libc_single_threaded
	ldr	x20, [x20, #:got_lo12:__libc_single_threaded]
	cmp	x21, x0
	bne	.L385
	b	.L395
	.p2align 2,,3
.L389:
	ldr	x0, [sp, 96]
	add	x21, x21, 32
	cmp	x0, x21
	beq	.L395
.L385:
	ldr	x19, [x21, 24]
	cbz	x19, .L389
	ldrb	w0, [x20]
	cbz	w0, .L390
	ldr	w0, [x19, 8]
	sub	w1, w0, #1
	str	w1, [x19, 8]
.L391:
	cmp	w0, 1
	bne	.L389
	ldr	x1, [x19]
	mov	x0, x19
	ldr	x1, [x1, 16]
	blr	x1
	ldrb	w0, [x20]
	cbz	w0, .L393
	ldr	w0, [x19, 12]
	sub	w1, w0, #1
	str	w1, [x19, 12]
.L394:
	cmp	w0, 1
	bne	.L389
	ldr	x1, [x19]
	mov	x0, x19
	add	x21, x21, 32
	ldr	x1, [x1, 24]
	blr	x1
	ldr	x0, [sp, 96]
	cmp	x0, x21
	bne	.L385
.L395:
	adrp	x20, :got:__libc_single_threaded
	ldr	x20, [x20, #:got_lo12:__libc_single_threaded]
	cmp	x26, x24
	bne	.L386
	b	.L387
	.p2align 2,,3
.L397:
	add	x24, x24, 32
	cmp	x26, x24
	beq	.L387
.L386:
	ldr	x19, [x24, 24]
	cbz	x19, .L397
	ldrb	w0, [x20]
	cbz	w0, .L398
	ldr	w0, [x19, 8]
	sub	w1, w0, #1
	str	w1, [x19, 8]
.L399:
	cmp	w0, 1
	bne	.L397
	ldr	x1, [x19]
	mov	x0, x19
	ldr	x1, [x1, 16]
	blr	x1
	ldrb	w0, [x20]
	cbz	w0, .L401
	ldr	w0, [x19, 12]
	sub	w1, w0, #1
	str	w1, [x19, 12]
.L402:
	cmp	w0, 1
	bne	.L397
	ldr	x1, [x19]
	mov	x0, x19
	add	x24, x24, 32
	ldr	x1, [x1, 24]
	blr	x1
	cmp	x26, x24
	bne	.L386
	.p2align 3,,7
.L387:
	ldr	x0, [x23, 136]
	add	x21, x23, 136
	cbz	x0, .L384
	ldr	x20, [x21, 72]
	ldr	x19, [x21, 40]
	add	x20, x20, 8
	cmp	x19, x20
	bcs	.L410
	.p2align 3,,7
.L411:
	ldr	x0, [x19], 8
	mov	x1, 512
	bl	_ZdlPvm
	cmp	x20, x19
	bhi	.L411
	ldr	x0, [x23, 136]
.L410:
	ldr	x1, [x21, 8]
	lsl	x1, x1, 3
	bl	_ZdlPvm
.L384:
	ldr	x19, [x23, 112]
	add	x24, x23, 112
	ldr	x21, [x24, 8]
	cmp	x19, x21
	beq	.L412
	adrp	x22, :got:__libc_single_threaded
	ldr	x22, [x22, #:got_lo12:__libc_single_threaded]
	b	.L420
	.p2align 2,,3
.L414:
	add	x19, x19, 24
	cmp	x21, x19
	beq	.L476
.L420:
	ldr	x20, [x19, 16]
	cbz	x20, .L414
	ldrb	w0, [x22]
	cbz	w0, .L415
	ldr	w0, [x20, 8]
	sub	w1, w0, #1
	str	w1, [x20, 8]
.L416:
	cmp	w0, 1
	bne	.L414
	ldr	x1, [x20]
	mov	x0, x20
	ldr	x1, [x1, 16]
	blr	x1
	ldrb	w0, [x22]
	cbz	w0, .L418
	ldr	w0, [x20, 12]
	sub	w1, w0, #1
	str	w1, [x20, 12]
.L419:
	cmp	w0, 1
	bne	.L414
	ldr	x1, [x20]
	mov	x0, x20
	add	x19, x19, 24
	ldr	x1, [x1, 24]
	blr	x1
	cmp	x21, x19
	bne	.L420
	.p2align 3,,7
.L476:
	ldr	x21, [x23, 112]
.L412:
	cbz	x21, .L421
	ldr	x1, [x24, 16]
	mov	x0, x21
	sub	x1, x1, x21
	bl	_ZdlPvm
.L421:
	ldr	x20, [x23, 72]
	cbz	x20, .L423
	adrp	x19, :got:__libc_single_threaded
	ldr	x0, [x19, #:got_lo12:__libc_single_threaded]
	ldrb	w0, [x0]
	cbz	w0, .L424
	ldr	w0, [x20, 8]
	sub	w1, w0, #1
	str	w1, [x20, 8]
.L425:
	cmp	w0, 1
	beq	.L477
.L423:
	ldr	x20, [x23, 56]
	cbz	x20, .L430
	adrp	x19, :got:__libc_single_threaded
	ldr	x0, [x19, #:got_lo12:__libc_single_threaded]
	ldrb	w0, [x0]
	cbz	w0, .L431
	ldr	w0, [x20, 8]
	sub	w1, w0, #1
	str	w1, [x20, 8]
.L432:
	cmp	w0, 1
	beq	.L478
.L430:
	ldr	x20, [x23, 40]
	cbz	x20, .L437
	adrp	x19, :got:__libc_single_threaded
	ldr	x0, [x19, #:got_lo12:__libc_single_threaded]
	ldrb	w0, [x0]
	cbz	w0, .L438
	ldr	w0, [x20, 8]
	sub	w1, w0, #1
	str	w1, [x20, 8]
.L439:
	cmp	w0, 1
	beq	.L479
.L437:
	ldr	x19, [x23, 24]
	cbz	x19, .L343
	adrp	x0, :got:__libc_single_threaded
	ldr	x0, [x0, #:got_lo12:__libc_single_threaded]
	ldrb	w0, [x0]
	cbz	w0, .L445
	ldr	w0, [x19, 12]
	sub	w1, w0, #1
	str	w1, [x19, 12]
.L446:
	cmp	w0, 1
	beq	.L480
.L343:
	ldp	x19, x20, [sp, 16]
	ldp	x21, x22, [sp, 32]
	ldp	x23, x24, [sp, 48]
	ldp	x25, x26, [sp, 64]
	ldp	x29, x30, [sp], 112
	.cfi_restore 30
	.cfi_restore 29
	.cfi_restore 25
	.cfi_restore 26
	.cfi_restore 23
	.cfi_restore 24
	.cfi_restore 21
	.cfi_restore 22
	.cfi_restore 19
	.cfi_restore 20
	.cfi_def_cfa_offset 0
	ret
	.p2align 2,,3
.L375:
	.cfi_def_cfa_offset 112
	.cfi_offset 19, -96
	.cfi_offset 20, -88
	.cfi_offset 21, -80
	.cfi_offset 22, -72
	.cfi_offset 23, -64
	.cfi_offset 24, -56
	.cfi_offset 25, -48
	.cfi_offset 26, -40
	.cfi_offset 27, -32
	.cfi_offset 28, -24
	.cfi_offset 29, -112
	.cfi_offset 30, -104
	add	x1, x27, 8
	mov	w0, -1
	bl	__aarch64_ldadd4_acq_rel
	b	.L376
	.p2align 2,,3
.L378:
	add	x1, x27, 12
	mov	w0, -1
	bl	__aarch64_ldadd4_acq_rel
	b	.L379
	.p2align 2,,3
.L390:
	.cfi_restore 27
	.cfi_restore 28
	add	x1, x19, 8
	mov	w0, -1
	bl	__aarch64_ldadd4_acq_rel
	b	.L391
	.p2align 2,,3
.L415:
	add	x1, x20, 8
	mov	w0, -1
	bl	__aarch64_ldadd4_acq_rel
	b	.L416
	.p2align 2,,3
.L398:
	add	x1, x19, 8
	mov	w0, -1
	bl	__aarch64_ldadd4_acq_rel
	b	.L399
.L418:
	add	x1, x20, 12
	mov	w0, -1
	bl	__aarch64_ldadd4_acq_rel
	b	.L419
.L393:
	add	x1, x19, 12
	mov	w0, -1
	bl	__aarch64_ldadd4_acq_rel
	b	.L394
.L401:
	add	x1, x19, 12
	mov	w0, -1
	bl	__aarch64_ldadd4_acq_rel
	b	.L402
.L475:
	adrp	x20, :got:__libc_single_threaded
	ldr	x20, [x20, #:got_lo12:__libc_single_threaded]
	cmp	x21, x26
	bne	.L382
	b	.L387
	.p2align 2,,3
.L404:
	add	x21, x21, 32
	cmp	x26, x21
	beq	.L387
.L382:
	ldr	x19, [x21, 24]
	cbz	x19, .L404
	ldrb	w0, [x20]
	cbz	w0, .L405
	ldr	w0, [x19, 8]
	sub	w1, w0, #1
	str	w1, [x19, 8]
.L406:
	cmp	w0, 1
	bne	.L404
	ldr	x1, [x19]
	mov	x0, x19
	ldr	x1, [x1, 16]
	blr	x1
	ldrb	w0, [x20]
	cbz	w0, .L408
	ldr	w0, [x19, 12]
	sub	w1, w0, #1
	str	w1, [x19, 12]
.L409:
	cmp	w0, 1
	bne	.L404
	ldr	x1, [x19]
	mov	x0, x19
	ldr	x1, [x1, 24]
	blr	x1
	b	.L404
.L405:
	add	x1, x19, 8
	mov	w0, -1
	bl	__aarch64_ldadd4_acq_rel
	b	.L406
.L471:
	ldr	x1, [x20]
	mov	x0, x20
	ldr	x1, [x1, 16]
	blr	x1
	ldr	x19, [x19, #:got_lo12:__libc_single_threaded]
	ldrb	w0, [x19]
	cbz	w0, .L354
	ldr	w0, [x20, 12]
	sub	w1, w0, #1
	str	w1, [x20, 12]
.L355:
	cmp	w0, 1
	bne	.L351
	ldr	x1, [x20]
	mov	x0, x20
	ldr	x1, [x1, 24]
	blr	x1
	b	.L351
.L472:
	ldr	x1, [x20]
	mov	x0, x20
	ldr	x1, [x1, 16]
	blr	x1
	ldr	x19, [x19, #:got_lo12:__libc_single_threaded]
	ldrb	w0, [x19]
	cbz	w0, .L361
	ldr	w0, [x20, 12]
	sub	w1, w0, #1
	str	w1, [x20, 12]
.L362:
	cmp	w0, 1
	bne	.L357
	ldr	x1, [x20]
	mov	x0, x20
	ldr	x1, [x1, 24]
	blr	x1
	b	.L357
.L473:
	ldr	x1, [x20]
	mov	x0, x20
	ldr	x1, [x1, 16]
	blr	x1
	ldr	x19, [x19, #:got_lo12:__libc_single_threaded]
	ldrb	w0, [x19]
	cbz	w0, .L368
	ldr	w0, [x20, 12]
	sub	w1, w0, #1
	str	w1, [x20, 12]
.L369:
	cmp	w0, 1
	bne	.L364
	ldr	x1, [x20]
	mov	x0, x20
	ldr	x1, [x1, 24]
	blr	x1
	b	.L364
.L477:
	ldr	x1, [x20]
	mov	x0, x20
	ldr	x1, [x1, 16]
	blr	x1
	ldr	x19, [x19, #:got_lo12:__libc_single_threaded]
	ldrb	w0, [x19]
	cbz	w0, .L427
	ldr	w0, [x20, 12]
	sub	w1, w0, #1
	str	w1, [x20, 12]
.L428:
	cmp	w0, 1
	bne	.L423
	ldr	x1, [x20]
	mov	x0, x20
	ldr	x1, [x1, 24]
	blr	x1
	b	.L423
.L478:
	ldr	x1, [x20]
	mov	x0, x20
	ldr	x1, [x1, 16]
	blr	x1
	ldr	x19, [x19, #:got_lo12:__libc_single_threaded]
	ldrb	w0, [x19]
	cbz	w0, .L434
	ldr	w0, [x20, 12]
	sub	w1, w0, #1
	str	w1, [x20, 12]
.L435:
	cmp	w0, 1
	bne	.L430
	ldr	x1, [x20]
	mov	x0, x20
	ldr	x1, [x1, 24]
	blr	x1
	b	.L430
.L480:
	ldr	x1, [x19]
	mov	x0, x19
	ldp	x19, x20, [sp, 16]
	ldr	x1, [x1, 24]
	ldp	x21, x22, [sp, 32]
	mov	x16, x1
	ldp	x23, x24, [sp, 48]
	ldp	x25, x26, [sp, 64]
	ldp	x29, x30, [sp], 112
	.cfi_remember_state
	.cfi_restore 30
	.cfi_restore 29
	.cfi_restore 25
	.cfi_restore 26
	.cfi_restore 23
	.cfi_restore 24
	.cfi_restore 21
	.cfi_restore 22
	.cfi_restore 19
	.cfi_restore 20
	.cfi_def_cfa_offset 0
	br	x16
.L479:
	.cfi_restore_state
	ldr	x1, [x20]
	mov	x0, x20
	ldr	x1, [x1, 16]
	blr	x1
	ldr	x19, [x19, #:got_lo12:__libc_single_threaded]
	ldrb	w0, [x19]
	cbz	w0, .L441
	ldr	w0, [x20, 12]
	sub	w1, w0, #1
	str	w1, [x20, 12]
.L442:
	cmp	w0, 1
	bne	.L437
	ldr	x1, [x20]
	mov	x0, x20
	ldr	x1, [x1, 24]
	blr	x1
	b	.L437
.L431:
	add	x1, x20, 8
	mov	w0, -1
	bl	__aarch64_ldadd4_acq_rel
	b	.L432
.L352:
	add	x1, x20, 8
	mov	w0, -1
	bl	__aarch64_ldadd4_acq_rel
	b	.L353
.L358:
	add	x1, x20, 8
	mov	w0, -1
	bl	__aarch64_ldadd4_acq_rel
	b	.L359
.L365:
	add	x1, x20, 8
	mov	w0, -1
	bl	__aarch64_ldadd4_acq_rel
	b	.L366
.L445:
	add	x1, x19, 12
	mov	w0, -1
	bl	__aarch64_ldadd4_acq_rel
	b	.L446
.L438:
	add	x1, x20, 8
	mov	w0, -1
	bl	__aarch64_ldadd4_acq_rel
	b	.L439
.L424:
	add	x1, x20, 8
	mov	w0, -1
	bl	__aarch64_ldadd4_acq_rel
	b	.L425
.L408:
	add	x1, x19, 12
	mov	w0, -1
	bl	__aarch64_ldadd4_acq_rel
	b	.L409
.L354:
	add	x1, x20, 12
	mov	w0, -1
	bl	__aarch64_ldadd4_acq_rel
	b	.L355
.L427:
	add	x1, x20, 12
	mov	w0, -1
	bl	__aarch64_ldadd4_acq_rel
	b	.L428
.L434:
	add	x1, x20, 12
	mov	w0, -1
	bl	__aarch64_ldadd4_acq_rel
	b	.L435
.L441:
	add	x1, x20, 12
	mov	w0, -1
	bl	__aarch64_ldadd4_acq_rel
	b	.L442
.L361:
	add	x1, x20, 12
	mov	w0, -1
	bl	__aarch64_ldadd4_acq_rel
	b	.L362
.L368:
	add	x1, x20, 12
	mov	w0, -1
	bl	__aarch64_ldadd4_acq_rel
	b	.L369
	.cfi_endproc
.LFE7647:
	.size	_ZN8asiodnp39IOHandlerD2Ev, .-_ZN8asiodnp39IOHandlerD2Ev
	.set	.LTHUNK0,_ZN8asiodnp39IOHandlerD2Ev
	.align	2
	.p2align 4,,11
	.weak	_ZThn8_N8asiodnp39IOHandlerD1Ev
	.type	_ZThn8_N8asiodnp39IOHandlerD1Ev, %function
_ZThn8_N8asiodnp39IOHandlerD1Ev:
.LFB10438:
	.cfi_startproc
	sub	x0, x0, #8
	b	.LTHUNK0
	.cfi_endproc
.LFE10438:
	.size	_ZThn8_N8asiodnp39IOHandlerD1Ev, .-_ZThn8_N8asiodnp39IOHandlerD1Ev
	.weak	_ZN8asiodnp39IOHandlerD1Ev
	.set	_ZN8asiodnp39IOHandlerD1Ev,_ZN8asiodnp39IOHandlerD2Ev
	.section	.text._ZN8asiodnp315SerialIOHandlerD2Ev,"axG",@progbits,_ZN8asiodnp315SerialIOHandlerD5Ev,comdat
	.align	2
	.p2align 4,,11
	.weak	_ZN8asiodnp315SerialIOHandlerD2Ev
	.type	_ZN8asiodnp315SerialIOHandlerD2Ev, %function
_ZN8asiodnp315SerialIOHandlerD2Ev:
.LFB10217:
	.cfi_startproc
	stp	x29, x30, [sp, -48]!
	.cfi_def_cfa_offset 48
	.cfi_offset 29, -48
	.cfi_offset 30, -40
	adrp	x1, :got:_ZTVN8asiodnp315SerialIOHandlerE
	mov	x29, sp
	ldr	x1, [x1, #:got_lo12:_ZTVN8asiodnp315SerialIOHandlerE]
	stp	x19, x20, [sp, 16]
	.cfi_offset 19, -32
	.cfi_offset 20, -24
	mov	x19, x0
	add	x2, x1, 16
	add	x1, x1, 104
	add	x0, x0, 896
	stp	x2, x1, [x19]
	bl	_ZN7openpal8TimerRefD1Ev
	ldr	x0, [x19, 840]
	add	x1, x19, 856
	cmp	x0, x1
	beq	.L482
	ldr	x1, [x19, 856]
	add	x1, x1, 1
	bl	_ZdlPvm
.L482:
	ldr	x20, [x19, 808]
	cbz	x20, .L484
	str	x21, [sp, 32]
	.cfi_offset 21, -16
	adrp	x21, :got:__libc_single_threaded
	ldr	x0, [x21, #:got_lo12:__libc_single_threaded]
	ldrb	w0, [x0]
	cbz	w0, .L485
	ldr	w0, [x20, 8]
	sub	w1, w0, #1
	str	w1, [x20, 8]
.L486:
	cmp	w0, 1
	beq	.L493
.L492:
	ldr	x21, [sp, 32]
	.cfi_restore 21
.L484:
	mov	x0, x19
	ldp	x19, x20, [sp, 16]
	ldp	x29, x30, [sp], 48
	.cfi_restore 30
	.cfi_restore 29
	.cfi_restore 19
	.cfi_restore 20
	.cfi_def_cfa_offset 0
	b	_ZN8asiodnp39IOHandlerD2Ev
	.p2align 2,,3
.L493:
	.cfi_def_cfa_offset 48
	.cfi_offset 19, -32
	.cfi_offset 20, -24
	.cfi_offset 21, -16
	.cfi_offset 29, -48
	.cfi_offset 30, -40
	ldr	x1, [x20]
	mov	x0, x20
	ldr	x1, [x1, 16]
	blr	x1
	ldr	x21, [x21, #:got_lo12:__libc_single_threaded]
	ldrb	w0, [x21]
	cbz	w0, .L488
	ldr	w0, [x20, 12]
	sub	w1, w0, #1
	str	w1, [x20, 12]
.L489:
	cmp	w0, 1
	bne	.L492
	ldr	x1, [x20]
	mov	x0, x20
	ldr	x1, [x1, 24]
	blr	x1
	ldr	x21, [sp, 32]
	.cfi_remember_state
	.cfi_restore 21
	b	.L484
	.p2align 2,,3
.L485:
	.cfi_restore_state
	add	x1, x20, 8
	mov	w0, -1
	bl	__aarch64_ldadd4_acq_rel
	b	.L486
	.p2align 2,,3
.L488:
	add	x1, x20, 12
	mov	w0, -1
	bl	__aarch64_ldadd4_acq_rel
	b	.L489
	.cfi_endproc
.LFE10217:
	.size	_ZN8asiodnp315SerialIOHandlerD2Ev, .-_ZN8asiodnp315SerialIOHandlerD2Ev
	.weak	_ZN8asiodnp315SerialIOHandlerD1Ev
	.set	_ZN8asiodnp315SerialIOHandlerD1Ev,_ZN8asiodnp315SerialIOHandlerD2Ev
	.section	.text._ZN8asiodnp315SerialIOHandlerD0Ev,"axG",@progbits,_ZN8asiodnp315SerialIOHandlerD5Ev,comdat
	.align	2
	.p2align 4,,11
	.weak	_ZN8asiodnp315SerialIOHandlerD0Ev
	.type	_ZN8asiodnp315SerialIOHandlerD0Ev, %function
_ZN8asiodnp315SerialIOHandlerD0Ev:
.LFB10219:
	.cfi_startproc
	stp	x29, x30, [sp, -48]!
	.cfi_def_cfa_offset 48
	.cfi_offset 29, -48
	.cfi_offset 30, -40
	adrp	x1, :got:_ZTVN8asiodnp315SerialIOHandlerE
	mov	x29, sp
	ldr	x1, [x1, #:got_lo12:_ZTVN8asiodnp315SerialIOHandlerE]
	stp	x19, x20, [sp, 16]
	.cfi_offset 19, -32
	.cfi_offset 20, -24
	mov	x19, x0
	add	x2, x1, 16
	add	x1, x1, 104
	add	x0, x0, 896
	stp	x2, x1, [x19]
	bl	_ZN7openpal8TimerRefD1Ev
	ldr	x0, [x19, 840]
	add	x1, x19, 856
	cmp	x0, x1
	beq	.L495
	ldr	x1, [x19, 856]
	add	x1, x1, 1
	bl	_ZdlPvm
.L495:
	ldr	x20, [x19, 808]
	cbz	x20, .L497
	str	x21, [sp, 32]
	.cfi_offset 21, -16
	adrp	x21, :got:__libc_single_threaded
	ldr	x0, [x21, #:got_lo12:__libc_single_threaded]
	ldrb	w0, [x0]
	cbz	w0, .L498
	ldr	w0, [x20, 8]
	sub	w1, w0, #1
	str	w1, [x20, 8]
.L499:
	cmp	w0, 1
	beq	.L506
.L505:
	ldr	x21, [sp, 32]
	.cfi_restore 21
.L497:
	mov	x0, x19
	bl	_ZN8asiodnp39IOHandlerD2Ev
	mov	x0, x19
	mov	x1, 912
	ldp	x19, x20, [sp, 16]
	ldp	x29, x30, [sp], 48
	.cfi_restore 30
	.cfi_restore 29
	.cfi_restore 19
	.cfi_restore 20
	.cfi_def_cfa_offset 0
	b	_ZdlPvm
	.p2align 2,,3
.L506:
	.cfi_def_cfa_offset 48
	.cfi_offset 19, -32
	.cfi_offset 20, -24
	.cfi_offset 21, -16
	.cfi_offset 29, -48
	.cfi_offset 30, -40
	ldr	x1, [x20]
	mov	x0, x20
	ldr	x1, [x1, 16]
	blr	x1
	ldr	x21, [x21, #:got_lo12:__libc_single_threaded]
	ldrb	w0, [x21]
	cbz	w0, .L501
	ldr	w0, [x20, 12]
	sub	w1, w0, #1
	str	w1, [x20, 12]
.L502:
	cmp	w0, 1
	bne	.L505
	ldr	x1, [x20]
	mov	x0, x20
	ldr	x1, [x1, 24]
	blr	x1
	ldr	x21, [sp, 32]
	.cfi_remember_state
	.cfi_restore 21
	b	.L497
	.p2align 2,,3
.L498:
	.cfi_restore_state
	add	x1, x20, 8
	mov	w0, -1
	bl	__aarch64_ldadd4_acq_rel
	b	.L499
	.p2align 2,,3
.L501:
	add	x1, x20, 12
	mov	w0, -1
	bl	__aarch64_ldadd4_acq_rel
	b	.L502
	.cfi_endproc
.LFE10219:
	.size	_ZN8asiodnp315SerialIOHandlerD0Ev, .-_ZN8asiodnp315SerialIOHandlerD0Ev
	.section	.text._ZN8asiodnp315SerialIOHandlerD2Ev,"axG",@progbits,_ZN8asiodnp315SerialIOHandlerD5Ev,comdat
	.align	2
	.p2align 4,,11
	.weak	_ZThn8_N8asiodnp315SerialIOHandlerD1Ev
	.type	_ZThn8_N8asiodnp315SerialIOHandlerD1Ev, %function
_ZThn8_N8asiodnp315SerialIOHandlerD1Ev:
.LFB10429:
	.cfi_startproc
	stp	x29, x30, [sp, -48]!
	.cfi_def_cfa_offset 48
	.cfi_offset 29, -48
	.cfi_offset 30, -40
	adrp	x1, :got:_ZTVN8asiodnp315SerialIOHandlerE
	mov	x29, sp
	ldr	x1, [x1, #:got_lo12:_ZTVN8asiodnp315SerialIOHandlerE]
	stp	x19, x20, [sp, 16]
	.cfi_offset 19, -32
	.cfi_offset 20, -24
	mov	x19, x0
	mov	x20, x0
	add	x2, x1, 16
	add	x1, x1, 104
	add	x0, x0, 888
	str	x2, [x19, -8]
	str	x1, [x20], -8
	bl	_ZN7openpal8TimerRefD1Ev
	ldr	x0, [x19, 832]
	add	x1, x19, 848
	cmp	x0, x1
	beq	.L508
	ldr	x1, [x19, 848]
	add	x1, x1, 1
	bl	_ZdlPvm
.L508:
	ldr	x19, [x19, 800]
	cbz	x19, .L510
	str	x21, [sp, 32]
	.cfi_offset 21, -16
	adrp	x21, :got:__libc_single_threaded
	ldr	x0, [x21, #:got_lo12:__libc_single_threaded]
	ldrb	w0, [x0]
	cbz	w0, .L511
	ldr	w0, [x19, 8]
	sub	w1, w0, #1
	str	w1, [x19, 8]
.L512:
	cmp	w0, 1
	beq	.L519
.L518:
	ldr	x21, [sp, 32]
	.cfi_restore 21
.L510:
	mov	x0, x20
	ldp	x19, x20, [sp, 16]
	ldp	x29, x30, [sp], 48
	.cfi_restore 30
	.cfi_restore 29
	.cfi_restore 19
	.cfi_restore 20
	.cfi_def_cfa_offset 0
	b	_ZN8asiodnp39IOHandlerD2Ev
	.p2align 2,,3
.L519:
	.cfi_def_cfa_offset 48
	.cfi_offset 19, -32
	.cfi_offset 20, -24
	.cfi_offset 21, -16
	.cfi_offset 29, -48
	.cfi_offset 30, -40
	ldr	x1, [x19]
	mov	x0, x19
	ldr	x1, [x1, 16]
	blr	x1
	ldr	x21, [x21, #:got_lo12:__libc_single_threaded]
	ldrb	w0, [x21]
	cbz	w0, .L514
	ldr	w0, [x19, 12]
	sub	w1, w0, #1
	str	w1, [x19, 12]
.L515:
	cmp	w0, 1
	bne	.L518
	ldr	x1, [x19]
	mov	x0, x19
	ldr	x1, [x1, 24]
	blr	x1
	ldr	x21, [sp, 32]
	.cfi_remember_state
	.cfi_restore 21
	b	.L510
	.p2align 2,,3
.L511:
	.cfi_restore_state
	add	x1, x19, 8
	mov	w0, -1
	bl	__aarch64_ldadd4_acq_rel
	b	.L512
	.p2align 2,,3
.L514:
	add	x1, x19, 12
	mov	w0, -1
	bl	__aarch64_ldadd4_acq_rel
	b	.L515
	.cfi_endproc
.LFE10429:
	.size	_ZThn8_N8asiodnp315SerialIOHandlerD1Ev, .-_ZThn8_N8asiodnp315SerialIOHandlerD1Ev
	.section	.text._ZN8asiodnp315SerialIOHandlerD0Ev,"axG",@progbits,_ZN8asiodnp315SerialIOHandlerD5Ev,comdat
	.align	2
	.p2align 4,,11
	.weak	_ZThn8_N8asiodnp315SerialIOHandlerD0Ev
	.type	_ZThn8_N8asiodnp315SerialIOHandlerD0Ev, %function
_ZThn8_N8asiodnp315SerialIOHandlerD0Ev:
.LFB10427:
	.cfi_startproc
	stp	x29, x30, [sp, -48]!
	.cfi_def_cfa_offset 48
	.cfi_offset 29, -48
	.cfi_offset 30, -40
	adrp	x1, :got:_ZTVN8asiodnp315SerialIOHandlerE
	mov	x29, sp
	ldr	x1, [x1, #:got_lo12:_ZTVN8asiodnp315SerialIOHandlerE]
	stp	x19, x20, [sp, 16]
	.cfi_offset 19, -32
	.cfi_offset 20, -24
	mov	x19, x0
	mov	x20, x0
	add	x2, x1, 16
	add	x1, x1, 104
	add	x0, x0, 888
	str	x2, [x19, -8]
	str	x1, [x20], -8
	bl	_ZN7openpal8TimerRefD1Ev
	ldr	x0, [x19, 832]
	add	x1, x19, 848
	cmp	x0, x1
	beq	.L521
	ldr	x1, [x19, 848]
	add	x1, x1, 1
	bl	_ZdlPvm
.L521:
	ldr	x19, [x19, 800]
	cbz	x19, .L523
	str	x21, [sp, 32]
	.cfi_offset 21, -16
	adrp	x21, :got:__libc_single_threaded
	ldr	x0, [x21, #:got_lo12:__libc_single_threaded]
	ldrb	w0, [x0]
	cbz	w0, .L524
	ldr	w0, [x19, 8]
	sub	w1, w0, #1
	str	w1, [x19, 8]
.L525:
	cmp	w0, 1
	beq	.L532
.L531:
	ldr	x21, [sp, 32]
	.cfi_restore 21
.L523:
	mov	x0, x20
	bl	_ZN8asiodnp39IOHandlerD2Ev
	mov	x0, x20
	mov	x1, 912
	ldp	x19, x20, [sp, 16]
	ldp	x29, x30, [sp], 48
	.cfi_restore 30
	.cfi_restore 29
	.cfi_restore 19
	.cfi_restore 20
	.cfi_def_cfa_offset 0
	b	_ZdlPvm
	.p2align 2,,3
.L532:
	.cfi_def_cfa_offset 48
	.cfi_offset 19, -32
	.cfi_offset 20, -24
	.cfi_offset 21, -16
	.cfi_offset 29, -48
	.cfi_offset 30, -40
	ldr	x1, [x19]
	mov	x0, x19
	ldr	x1, [x1, 16]
	blr	x1
	ldr	x21, [x21, #:got_lo12:__libc_single_threaded]
	ldrb	w0, [x21]
	cbz	w0, .L527
	ldr	w0, [x19, 12]
	sub	w1, w0, #1
	str	w1, [x19, 12]
.L528:
	cmp	w0, 1
	bne	.L531
	ldr	x1, [x19]
	mov	x0, x19
	ldr	x1, [x1, 24]
	blr	x1
	ldr	x21, [sp, 32]
	.cfi_remember_state
	.cfi_restore 21
	b	.L523
	.p2align 2,,3
.L524:
	.cfi_restore_state
	add	x1, x19, 8
	mov	w0, -1
	bl	__aarch64_ldadd4_acq_rel
	b	.L525
	.p2align 2,,3
.L527:
	add	x1, x19, 12
	mov	w0, -1
	bl	__aarch64_ldadd4_acq_rel
	b	.L528
	.cfi_endproc
.LFE10427:
	.size	_ZThn8_N8asiodnp315SerialIOHandlerD0Ev, .-_ZThn8_N8asiodnp315SerialIOHandlerD0Ev
	.section	.text._ZN8asiodnp39IOHandlerD0Ev,"axG",@progbits,_ZN8asiodnp39IOHandlerD5Ev,comdat
	.align	2
	.p2align 4,,11
	.weak	_ZN8asiodnp39IOHandlerD0Ev
	.type	_ZN8asiodnp39IOHandlerD0Ev, %function
_ZN8asiodnp39IOHandlerD0Ev:
.LFB7649:
	.cfi_startproc
	stp	x29, x30, [sp, -32]!
	.cfi_def_cfa_offset 32
	.cfi_offset 29, -32
	.cfi_offset 30, -24
	mov	x29, sp
	str	x19, [sp, 16]
	.cfi_offset 19, -16
	mov	x19, x0
	bl	_ZN8asiodnp39IOHandlerD1Ev
	mov	x0, x19
	mov	x1, 800
	ldr	x19, [sp, 16]
	ldp	x29, x30, [sp], 32
	.cfi_restore 30
	.cfi_restore 29
	.cfi_restore 19
	.cfi_def_cfa_offset 0
	b	_ZdlPvm
	.cfi_endproc
.LFE7649:
	.size	_ZN8asiodnp39IOHandlerD0Ev, .-_ZN8asiodnp39IOHandlerD0Ev
	.align	2
	.p2align 4,,11
	.weak	_ZThn8_N8asiodnp39IOHandlerD0Ev
	.type	_ZThn8_N8asiodnp39IOHandlerD0Ev, %function
_ZThn8_N8asiodnp39IOHandlerD0Ev:
.LFB10428:
	.cfi_startproc
	stp	x29, x30, [sp, -32]!
	.cfi_def_cfa_offset 32
	.cfi_offset 29, -32
	.cfi_offset 30, -24
	mov	x29, sp
	str	x19, [sp, 16]
	.cfi_offset 19, -16
	sub	x19, x0, #8
	mov	x0, x19
	bl	_ZN8asiodnp39IOHandlerD1Ev
	mov	x0, x19
	mov	x1, 800
	ldr	x19, [sp, 16]
	ldp	x29, x30, [sp], 32
	.cfi_restore 30
	.cfi_restore 29
	.cfi_restore 19
	.cfi_def_cfa_offset 0
	b	_ZdlPvm
	.cfi_endproc
.LFE10428:
	.size	_ZThn8_N8asiodnp39IOHandlerD0Ev, .-_ZThn8_N8asiodnp39IOHandlerD0Ev
	.section	.text._ZNSt16_Sp_counted_baseILN9__gnu_cxx12_Lock_policyE2EE10_M_releaseEv,"axG",@progbits,_ZNSt16_Sp_counted_baseILN9__gnu_cxx12_Lock_policyE2EE10_M_releaseEv,comdat
	.align	2
	.p2align 4,,11
	.weak	_ZNSt16_Sp_counted_baseILN9__gnu_cxx12_Lock_policyE2EE10_M_releaseEv
	.type	_ZNSt16_Sp_counted_baseILN9__gnu_cxx12_Lock_policyE2EE10_M_releaseEv, %function
_ZNSt16_Sp_counted_baseILN9__gnu_cxx12_Lock_policyE2EE10_M_releaseEv:
.LFB8719:
	.cfi_startproc
	stp	x29, x30, [sp, -32]!
	.cfi_def_cfa_offset 32
	.cfi_offset 29, -32
	.cfi_offset 30, -24
	mov	x29, sp
	stp	x19, x20, [sp, 16]
	.cfi_offset 19, -16
	.cfi_offset 20, -8
	adrp	x20, :got:__libc_single_threaded
	mov	x19, x0
	ldr	x0, [x20, #:got_lo12:__libc_single_threaded]
	ldrb	w0, [x0]
	cbz	w0, .L538
	ldr	w0, [x19, 8]
	sub	w1, w0, #1
	str	w1, [x19, 8]
.L539:
	cmp	w0, 1
	beq	.L546
.L537:
	ldp	x19, x20, [sp, 16]
	ldp	x29, x30, [sp], 32
	.cfi_remember_state
	.cfi_restore 30
	.cfi_restore 29
	.cfi_restore 19
	.cfi_restore 20
	.cfi_def_cfa_offset 0
	ret
	.p2align 2,,3
.L546:
	.cfi_restore_state
	ldr	x1, [x19]
	mov	x0, x19
	ldr	x1, [x1, 16]
	blr	x1
	ldr	x20, [x20, #:got_lo12:__libc_single_threaded]
	ldrb	w0, [x20]
	cbz	w0, .L542
	ldr	w0, [x19, 12]
	sub	w1, w0, #1
	str	w1, [x19, 12]
.L543:
	cmp	w0, 1
	bne	.L537
	ldr	x1, [x19]
	mov	x0, x19
	ldp	x19, x20, [sp, 16]
	ldp	x29, x30, [sp], 32
	.cfi_remember_state
	.cfi_restore 30
	.cfi_restore 29
	.cfi_restore 19
	.cfi_restore 20
	.cfi_def_cfa_offset 0
	ldr	x1, [x1, 24]
	mov	x16, x1
	br	x16
	.p2align 2,,3
.L538:
	.cfi_restore_state
	add	x1, x19, 8
	mov	w0, -1
	bl	__aarch64_ldadd4_acq_rel
	b	.L539
	.p2align 2,,3
.L542:
	add	x1, x19, 12
	mov	w0, -1
	bl	__aarch64_ldadd4_acq_rel
	b	.L543
	.cfi_endproc
.LFE8719:
	.size	_ZNSt16_Sp_counted_baseILN9__gnu_cxx12_Lock_policyE2EE10_M_releaseEv, .-_ZNSt16_Sp_counted_baseILN9__gnu_cxx12_Lock_policyE2EE10_M_releaseEv
	.text
	.align	2
	.p2align 4,,11
	.global	_ZN8asiodnp315SerialIOHandlerC2ERKN7openpal6LoggerERKSt10shared_ptrINS_16IChannelListenerEERKS5_IN7asiopal8ExecutorEERKNSA_12ChannelRetryERKNSA_14SerialSettingsE
	.type	_ZN8asiodnp315SerialIOHandlerC2ERKN7openpal6LoggerERKSt10shared_ptrINS_16IChannelListenerEERKS5_IN7asiopal8ExecutorEERKNSA_12ChannelRetryERKNSA_14SerialSettingsE, %function
_ZN8asiodnp315SerialIOHandlerC2ERKN7openpal6LoggerERKSt10shared_ptrINS_16IChannelListenerEERKS5_IN7asiopal8ExecutorEERKNSA_12ChannelRetryERKNSA_14SerialSettingsE:
.LFB7725:
	.cfi_startproc
	.cfi_personality 0x9b,DW.ref.__gxx_personality_v0
	.cfi_lsda 0x1b,.LLSDA7725
	stp	x29, x30, [sp, -96]!
	.cfi_def_cfa_offset 96
	.cfi_offset 29, -96
	.cfi_offset 30, -88
	adrp	x6, :got:__stack_chk_guard
	mov	x29, sp
	ldr	x6, [x6, #:got_lo12:__stack_chk_guard]
	stp	x19, x20, [sp, 16]
	.cfi_offset 19, -80
	.cfi_offset 20, -72
	mov	x19, x0
	stp	x21, x22, [sp, 32]
	.cfi_offset 21, -64
	.cfi_offset 22, -56
	mov	x22, x3
	mov	x21, x4
	stp	x23, x24, [sp, 48]
	mov	x20, x5
	str	x25, [sp, 64]
	.cfi_offset 23, -48
	.cfi_offset 24, -40
	.cfi_offset 25, -32
	ldr	x3, [x6]
	str	x3, [sp, 88]
	mov	x3, 0
.LEHB8:
	bl	_ZN8asiodnp39IOHandlerC2ERKN7openpal6LoggerERKSt10shared_ptrINS_16IChannelListenerEE
.LEHE8:
	adrp	x0, :got:_ZTVN8asiodnp315SerialIOHandlerE
	ldr	x0, [x0, #:got_lo12:_ZTVN8asiodnp315SerialIOHandlerE]
	add	x1, x0, 16
	add	x0, x0, 104
	stp	x1, x0, [x19]
	ldr	q0, [x22]
	umov	x1, v0.d[1]
	str	q0, [x19, 800]
	cbz	x1, .L548
	adrp	x0, :got:__libc_single_threaded
	ldr	x0, [x0, #:got_lo12:__libc_single_threaded]
	ldrb	w0, [x0]
	cbz	w0, .L549
	ldr	w0, [x1, 8]
	add	w0, w0, 1
	str	w0, [x1, 8]
.L548:
	add	x0, x19, 816
	add	x25, x19, 856
	ldp	x2, x3, [x21]
	add	x23, x19, 840
	stp	x2, x3, [x0]
	ldr	x1, [x21, 16]
	str	x1, [x19, 832]
	str	x25, [x19, 840]
	ldp	x24, x21, [x20]
	cmn	x24, x21
	ccmp	x24, 0, 0, ne
	beq	.L572
	str	x21, [sp, 80]
	cmp	x21, 15
	bhi	.L573
	cmp	x21, 1
	bne	.L553
	ldrb	w1, [x24]
	mov	x0, x25
	strb	w1, [x19, 856]
.L554:
	str	x21, [x23, 8]
	strb	wzr, [x0, x21]
	add	x0, x19, 896
	ldrh	w1, [x20, 40]
	strh	w1, [x19, 880]
	ldr	d0, [x20, 32]
	ldrb	w3, [x20, 42]
	ldr	x1, [x22]
	str	d0, [x19, 872]
	ldr	x2, [x20, 48]
	strb	w3, [x23, 42]
	str	x2, [x23, 48]
.LEHB9:
	bl	_ZN7openpal8TimerRefC1ERNS_9IExecutorE
.LEHE9:
	adrp	x0, :got:__stack_chk_guard
	ldr	x0, [x0, #:got_lo12:__stack_chk_guard]
	ldr	x2, [sp, 88]
	ldr	x1, [x0]
	subs	x2, x2, x1
	mov	x1, 0
	bne	.L574
	ldp	x19, x20, [sp, 16]
	ldp	x21, x22, [sp, 32]
	ldp	x23, x24, [sp, 48]
	ldr	x25, [sp, 64]
	ldp	x29, x30, [sp], 96
	.cfi_remember_state
	.cfi_restore 30
	.cfi_restore 29
	.cfi_restore 25
	.cfi_restore 23
	.cfi_restore 24
	.cfi_restore 21
	.cfi_restore 22
	.cfi_restore 19
	.cfi_restore 20
	.cfi_def_cfa_offset 0
	ret
	.p2align 2,,3
.L553:
	.cfi_restore_state
	mov	x0, x25
	cbz	x21, .L554
	b	.L552
	.p2align 2,,3
.L549:
	add	x1, x1, 8
	mov	w0, 1
	bl	__aarch64_ldadd4_acq_rel
	b	.L548
	.p2align 2,,3
.L573:
	add	x1, sp, 80
	mov	x0, x23
	mov	x2, 0
.LEHB10:
	bl	_ZNSt7__cxx1112basic_stringIcSt11char_traitsIcESaIcEE9_M_createERmm
	str	x0, [x19, 840]
	ldr	x1, [sp, 80]
	str	x1, [x23, 16]
.L552:
	mov	x2, x21
	mov	x1, x24
	bl	memcpy
	ldr	x21, [sp, 80]
	ldr	x0, [x19, 840]
	b	.L554
.L574:
	bl	__stack_chk_fail
.L572:
	adrp	x0, .LC5
	add	x0, x0, :lo12:.LC5
	bl	_ZSt19__throw_logic_errorPKc
.LEHE10:
.L561:
	mov	x20, x0
.L557:
	ldr	x0, [x19, 808]
	cbz	x0, .L558
	bl	_ZNSt16_Sp_counted_baseILN9__gnu_cxx12_Lock_policyE2EE10_M_releaseEv
.L558:
	mov	x0, x19
	bl	_ZN8asiodnp39IOHandlerD2Ev
	mov	x0, x20
.LEHB11:
	bl	_Unwind_Resume
.LEHE11:
.L562:
	ldr	x2, [x19, 840]
	mov	x20, x0
	cmp	x2, x25
	beq	.L557
	ldr	x1, [x23, 16]
	mov	x0, x2
	add	x1, x1, 1
	bl	_ZdlPvm
	b	.L557
	.cfi_endproc
.LFE7725:
	.section	.gcc_except_table,"a",@progbits
.LLSDA7725:
	.byte	0xff
	.byte	0xff
	.byte	0x1
	.uleb128 .LLSDACSE7725-.LLSDACSB7725
.LLSDACSB7725:
	.uleb128 .LEHB8-.LFB7725
	.uleb128 .LEHE8-.LEHB8
	.uleb128 0
	.uleb128 0
	.uleb128 .LEHB9-.LFB7725
	.uleb128 .LEHE9-.LEHB9
	.uleb128 .L562-.LFB7725
	.uleb128 0
	.uleb128 .LEHB10-.LFB7725
	.uleb128 .LEHE10-.LEHB10
	.uleb128 .L561-.LFB7725
	.uleb128 0
	.uleb128 .LEHB11-.LFB7725
	.uleb128 .LEHE11-.LEHB11
	.uleb128 0
	.uleb128 0
.LLSDACSE7725:
	.text
	.size	_ZN8asiodnp315SerialIOHandlerC2ERKN7openpal6LoggerERKSt10shared_ptrINS_16IChannelListenerEERKS5_IN7asiopal8ExecutorEERKNSA_12ChannelRetryERKNSA_14SerialSettingsE, .-_ZN8asiodnp315SerialIOHandlerC2ERKN7openpal6LoggerERKSt10shared_ptrINS_16IChannelListenerEERKS5_IN7asiopal8ExecutorEERKNSA_12ChannelRetryERKNSA_14SerialSettingsE
	.global	_ZN8asiodnp315SerialIOHandlerC1ERKN7openpal6LoggerERKSt10shared_ptrINS_16IChannelListenerEERKS5_IN7asiopal8ExecutorEERKNSA_12ChannelRetryERKNSA_14SerialSettingsE
	.set	_ZN8asiodnp315SerialIOHandlerC1ERKN7openpal6LoggerERKSt10shared_ptrINS_16IChannelListenerEERKS5_IN7asiopal8ExecutorEERKNSA_12ChannelRetryERKNSA_14SerialSettingsE,_ZN8asiodnp315SerialIOHandlerC2ERKN7openpal6LoggerERKSt10shared_ptrINS_16IChannelListenerEERKS5_IN7asiopal8ExecutorEERKNSA_12ChannelRetryERKNSA_14SerialSettingsE
	.section	.rodata.str1.8,"aMS",@progbits,1
	.align	3
.LC21:
	.string	"Error Connecting: %s"
	.align	3
.LC22:
	.string	"/home/jaehyun/OpenPLC_v3/utils/dnp3_src/cpp/libs/src/asiodnp3/SerialIOHandler.cpp(73)"
	.text
	.align	2
	.p2align 4,,11
	.global	_ZN8asiodnp315SerialIOHandler7TryOpenERKN7openpal12TimeDurationE
	.type	_ZN8asiodnp315SerialIOHandler7TryOpenERKN7openpal12TimeDurationE, %function
_ZN8asiodnp315SerialIOHandler7TryOpenERKN7openpal12TimeDurationE:
.LFB7731:
	.cfi_startproc
	.cfi_personality 0x9b,DW.ref.__gxx_personality_v0
	.cfi_lsda 0x1b,.LLSDA7731
	stp	x29, x30, [sp, -288]!
	.cfi_def_cfa_offset 288
	.cfi_offset 29, -288
	.cfi_offset 30, -280
	adrp	x2, :got:__stack_chk_guard
	mov	x29, sp
	ldr	x2, [x2, #:got_lo12:__stack_chk_guard]
	stp	x19, x20, [sp, 16]
	stp	x21, x22, [sp, 32]
	.cfi_offset 19, -272
	.cfi_offset 20, -264
	.cfi_offset 21, -256
	.cfi_offset 22, -248
	mov	x21, x0
	mov	x0, 104
	stp	x23, x24, [sp, 48]
	.cfi_offset 23, -240
	.cfi_offset 24, -232
	mov	x23, x1
	stp	x25, x26, [sp, 64]
	.cfi_offset 25, -224
	.cfi_offset 26, -216
	ldr	x1, [x2]
	str	x1, [sp, 280]
	mov	x1, 0
.LEHB12:
	bl	_Znwm
.LEHE12:
	mov	x22, x0
	ldr	q0, [x21, 800]
	movi	v1.2s, 0x1
	adrp	x2, :got:_ZTVSt23_Sp_counted_ptr_inplaceIN7asiopal13SerialChannelESaIS1_ELN9__gnu_cxx12_Lock_policyE2EE
	mov	x19, x0
	add	x24, x0, 8
	ldr	x2, [x2, #:got_lo12:_ZTVSt23_Sp_counted_ptr_inplaceIN7asiopal13SerialChannelESaIS1_ELN9__gnu_cxx12_Lock_policyE2EE]
	umov	x1, v0.d[1]
	str	d1, [x0, 8]
	add	x2, x2, 16
	str	x2, [x22], 16
	str	q0, [sp, 96]
	cbz	x1, .L576
	adrp	x20, :got:__libc_single_threaded
	ldr	x20, [x20, #:got_lo12:__libc_single_threaded]
	ldrb	w0, [x20]
	cbz	w0, .L577
	ldr	w0, [x1, 8]
	add	w0, w0, 1
	str	w0, [x1, 8]
.L576:
	add	x25, sp, 96
	mov	x0, x22
	mov	x1, x25
.LEHB13:
	bl	_ZN7asiopal13SerialChannelC1ESt10shared_ptrINS_8ExecutorEE
.LEHE13:
	ldr	x26, [sp, 104]
	cbz	x26, .L583
	adrp	x20, :got:__libc_single_threaded
	ldr	x0, [x20, #:got_lo12:__libc_single_threaded]
	ldrb	w0, [x0]
	cbz	w0, .L579
	ldr	w0, [x26, 8]
	sub	w1, w0, #1
	str	w1, [x26, 8]
.L580:
	cmp	w0, 1
	beq	.L666
.L583:
	ldr	x0, [x19, 32]
	cbz	x0, .L586
	add	x1, x0, 8
	ldr	w1, [x1]
	cbz	w1, .L586
.L587:
	str	wzr, [sp, 80]
	bl	_ZNSt3_V215system_categoryEv
	mov	x3, x0
	add	x2, sp, 80
	add	x1, x21, 840
	mov	x0, x22
	str	x3, [sp, 88]
.LEHB14:
	bl	_ZN7asiopal13SerialChannel4OpenERKNS_14SerialSettingsERSt10error_code
	ldr	w0, [sp, 80]
	cbz	w0, .L593
	mov	w2, 4
	add	x20, x21, 32
	mov	x0, x20
	mov	x1, x25
	str	w2, [sp, 96]
	bl	_ZNK7openpal6Logger9IsEnabledERKNS_10LogFiltersE
	tst	w0, 255
	beq	.L594
	ldr	x0, [sp, 88]
	add	x8, sp, 128
	ldr	w1, [sp, 80]
	ldr	x2, [x0]
	ldr	x2, [x2, 32]
	blr	x2
	ldr	x5, [sp, 128]
	add	x22, sp, 160
	mov	x3, 120
	mov	x0, x22
	mov	x1, x3
	adrp	x4, .LC21
	mov	w2, 1
	add	x4, x4, :lo12:.LC21
	bl	__snprintf_chk
	ldr	x0, [sp, 128]
	add	x1, sp, 144
	cmp	x0, x1
	beq	.L595
	ldr	x1, [sp, 144]
	add	x1, x1, 1
	bl	_ZdlPvm
.L595:
	mov	w4, 4
	adrp	x2, .LC22
	mov	x3, x22
	mov	x0, x20
	mov	x1, x25
	add	x2, x2, :lo12:.LC22
	str	w4, [sp, 96]
	bl	_ZN7openpal6Logger3LogERKNS_10LogFiltersEPKcS5_
.LEHE14:
.L594:
	ldr	w0, [x21, 84]
	add	x20, x21, 896
	ldr	x1, [x23]
	add	w0, w0, 1
	str	w0, [x21, 84]
	mov	x0, 24
	stp	x21, x1, [sp, 104]
	stp	xzr, xzr, [sp, 128]
	stp	xzr, xzr, [sp, 144]
.LEHB15:
	bl	_Znwm
.LEHE15:
	mov	x3, x0
	stp	x20, x21, [sp, 96]
	adrp	x4, _ZNSt17_Function_handlerIFvvEZN7openpal8TimerRef5StartIZN8asiodnp315SerialIOHandler7TryOpenERKNS1_12TimeDurationEEUlvE_EEbS8_RKT_EUlvE_E9_M_invokeERKSt9_Any_data
	adrp	x5, _ZNSt17_Function_handlerIFvvEZN7openpal8TimerRef5StartIZN8asiodnp315SerialIOHandler7TryOpenERKNS1_12TimeDurationEEUlvE_EEbS8_RKT_EUlvE_E10_M_managerERSt9_Any_dataRKSF_St18_Manager_operation
	ldp	x6, x7, [sp, 96]
	add	x4, x4, :lo12:_ZNSt17_Function_handlerIFvvEZN7openpal8TimerRef5StartIZN8asiodnp315SerialIOHandler7TryOpenERKNS1_12TimeDurationEEUlvE_EEbS8_RKT_EUlvE_E9_M_invokeERKSt9_Any_data
	ldr	x8, [x25, 16]
	add	x5, x5, :lo12:_ZNSt17_Function_handlerIFvvEZN7openpal8TimerRef5StartIZN8asiodnp315SerialIOHandler7TryOpenERKNS1_12TimeDurationEEUlvE_EEbS8_RKT_EUlvE_E10_M_managerERSt9_Any_dataRKSF_St18_Manager_operation
	stp	x6, x7, [x3]
	add	x21, sp, 128
	mov	x1, x23
	str	x8, [x3, 16]
	mov	x0, x20
	mov	x2, x21
	str	x3, [sp, 128]
	stp	x5, x4, [sp, 144]
.LEHB16:
	bl	_ZN7openpal8TimerRef11StartActionERKNS_12TimeDurationERKSt8functionIFvvEE
.LEHE16:
	adrp	x20, :got:__libc_single_threaded
	ldr	x3, [sp, 144]
	cbz	x3, .L601
	mov	x1, x21
	mov	x0, x21
	mov	w2, 3
	blr	x3
.L601:
	ldr	x0, [x20, #:got_lo12:__libc_single_threaded]
	ldrb	w0, [x0]
	cbz	w0, .L667
	ldr	w0, [x19, 8]
	sub	w1, w0, #1
	str	w1, [x19, 8]
.L613:
	cmp	w0, 1
	beq	.L668
.L575:
	adrp	x0, :got:__stack_chk_guard
	ldr	x0, [x0, #:got_lo12:__stack_chk_guard]
	ldr	x2, [sp, 280]
	ldr	x1, [x0]
	subs	x2, x2, x1
	mov	x1, 0
	bne	.L669
	ldp	x19, x20, [sp, 16]
	ldp	x21, x22, [sp, 32]
	ldp	x23, x24, [sp, 48]
	ldp	x25, x26, [sp, 64]
	ldp	x29, x30, [sp], 288
	.cfi_remember_state
	.cfi_restore 30
	.cfi_restore 29
	.cfi_restore 25
	.cfi_restore 26
	.cfi_restore 23
	.cfi_restore 24
	.cfi_restore 21
	.cfi_restore 22
	.cfi_restore 19
	.cfi_restore 20
	.cfi_def_cfa_offset 0
	ret
	.p2align 2,,3
.L577:
	.cfi_restore_state
	add	x1, x1, 8
	mov	w0, 1
	bl	__aarch64_ldadd4_acq_rel
	b	.L576
	.p2align 2,,3
.L586:
	adrp	x20, :got:__libc_single_threaded
	str	x22, [x19, 24]
	ldr	x20, [x20, #:got_lo12:__libc_single_threaded]
	ldrb	w1, [x20]
	cbz	w1, .L670
	ldr	w1, [x19, 12]
	mov	x26, x0
	add	w0, w1, 1
	str	w0, [x19, 12]
	cbz	x26, .L589
.L588:
	ldr	w0, [x26, 12]
	sub	w1, w0, #1
	str	w1, [x26, 12]
.L592:
	cmp	w0, 1
	bne	.L589
	ldr	x1, [x26]
	mov	x0, x26
	ldr	x1, [x1, 24]
	blr	x1
	.p2align 3,,7
.L589:
	str	x19, [x19, 32]
	b	.L587
	.p2align 2,,3
.L593:
	adrp	x20, :got:__libc_single_threaded
	stp	x22, x19, [sp, 96]
	ldr	x0, [x20, #:got_lo12:__libc_single_threaded]
	ldrb	w0, [x0]
	cbz	w0, .L604
	ldr	w0, [x19, 8]
	add	w0, w0, 1
	str	w0, [x19, 8]
.L605:
	mov	x1, x25
	mov	x0, x21
.LEHB17:
	bl	_ZN8asiodnp39IOHandler12OnNewChannelERKSt10shared_ptrIN7asiopal13IAsyncChannelEE
.LEHE17:
	ldr	x0, [x20, #:got_lo12:__libc_single_threaded]
	ldr	x21, [sp, 104]
	ldrb	w0, [x0]
	cbz	x21, .L601
	cbz	w0, .L608
	ldr	w0, [x21, 8]
	sub	w1, w0, #1
	str	w1, [x21, 8]
.L609:
	cmp	w0, 1
	bne	.L601
	ldr	x1, [x21]
	mov	x0, x21
	ldr	x1, [x1, 16]
	blr	x1
	ldr	x0, [x20, #:got_lo12:__libc_single_threaded]
	ldrb	w0, [x0]
	cbz	w0, .L611
	ldr	w0, [x21, 12]
	sub	w1, w0, #1
	str	w1, [x21, 12]
.L612:
	cmp	w0, 1
	bne	.L601
	ldr	x1, [x21]
	mov	x0, x21
	ldr	x1, [x1, 24]
	blr	x1
	b	.L601
	.p2align 2,,3
.L608:
	add	x1, x21, 8
	mov	w0, -1
	bl	__aarch64_ldadd4_acq_rel
	b	.L609
	.p2align 2,,3
.L670:
	add	x1, x19, 12
	mov	w0, 1
	bl	__aarch64_ldadd4_acq_rel
	ldr	x26, [x19, 32]
	cbz	x26, .L589
	ldrb	w0, [x20]
	cbnz	w0, .L588
	add	x1, x26, 12
	mov	w0, -1
	bl	__aarch64_ldadd4_acq_rel
	b	.L592
	.p2align 2,,3
.L668:
	ldr	x1, [x19]
	mov	x0, x19
	ldr	x1, [x1, 16]
	blr	x1
	ldr	x20, [x20, #:got_lo12:__libc_single_threaded]
	ldrb	w0, [x20]
	cbz	w0, .L616
	ldr	w0, [x19, 12]
	sub	w1, w0, #1
	str	w1, [x19, 12]
.L617:
	cmp	w0, 1
	bne	.L575
	ldr	x1, [x19]
	mov	x0, x19
	ldr	x1, [x1, 24]
	blr	x1
	b	.L575
	.p2align 2,,3
.L666:
	ldr	x1, [x26]
	mov	x0, x26
	ldr	x1, [x1, 16]
	blr	x1
	ldr	x20, [x20, #:got_lo12:__libc_single_threaded]
	ldrb	w0, [x20]
	cbz	w0, .L581
	ldr	w0, [x26, 12]
	sub	w1, w0, #1
	str	w1, [x26, 12]
.L582:
	cmp	w0, 1
	bne	.L583
	ldr	x1, [x26]
	mov	x0, x26
	ldr	x1, [x1, 24]
	blr	x1
	b	.L583
	.p2align 2,,3
.L667:
	mov	x1, x24
	mov	w0, -1
	bl	__aarch64_ldadd4_acq_rel
	b	.L613
	.p2align 2,,3
.L579:
	add	x1, x26, 8
	mov	w0, -1
	bl	__aarch64_ldadd4_acq_rel
	b	.L580
	.p2align 2,,3
.L604:
	mov	x1, x24
	mov	w0, 1
	bl	__aarch64_ldadd4_acq_rel
	b	.L605
	.p2align 2,,3
.L616:
	add	x1, x19, 12
	mov	w0, -1
	bl	__aarch64_ldadd4_acq_rel
	b	.L617
	.p2align 2,,3
.L581:
	add	x1, x26, 12
	mov	w0, -1
	bl	__aarch64_ldadd4_acq_rel
	b	.L582
	.p2align 2,,3
.L611:
	add	x1, x21, 12
	mov	w0, -1
	bl	__aarch64_ldadd4_acq_rel
	b	.L612
.L669:
	bl	__stack_chk_fail
.L629:
	ldr	x1, [sp, 104]
	mov	x20, x0
	cbz	x1, .L585
	mov	x0, x1
	bl	_ZNSt16_Sp_counted_baseILN9__gnu_cxx12_Lock_policyE2EE10_M_releaseEv
.L585:
	mov	x1, 104
	mov	x0, x19
	bl	_ZdlPvm
	mov	x0, x20
.LEHB18:
	bl	_Unwind_Resume
.LEHE18:
.L631:
	ldr	x3, [sp, 144]
	mov	x20, x0
	cbz	x3, .L599
	add	x1, sp, 128
	mov	w2, 3
	mov	x0, x1
	blr	x3
.L599:
	mov	x0, x19
	bl	_ZNSt16_Sp_counted_baseILN9__gnu_cxx12_Lock_policyE2EE10_M_releaseEv
	mov	x0, x20
.LEHB19:
	bl	_Unwind_Resume
.LEHE19:
.L630:
	ldr	x3, [sp, 144]
	mov	x20, x0
	cbz	x3, .L599
	mov	x1, x21
	mov	x0, x21
	mov	w2, 3
	blr	x3
	b	.L599
.L627:
	mov	x20, x0
	b	.L599
.L628:
	ldr	x1, [sp, 104]
	mov	x20, x0
	cbz	x1, .L599
	mov	x0, x1
	bl	_ZNSt16_Sp_counted_baseILN9__gnu_cxx12_Lock_policyE2EE10_M_releaseEv
	b	.L599
	.cfi_endproc
.LFE7731:
	.section	.gcc_except_table
.LLSDA7731:
	.byte	0xff
	.byte	0xff
	.byte	0x1
	.uleb128 .LLSDACSE7731-.LLSDACSB7731
.LLSDACSB7731:
	.uleb128 .LEHB12-.LFB7731
	.uleb128 .LEHE12-.LEHB12
	.uleb128 0
	.uleb128 0
	.uleb128 .LEHB13-.LFB7731
	.uleb128 .LEHE13-.LEHB13
	.uleb128 .L629-.LFB7731
	.uleb128 0
	.uleb128 .LEHB14-.LFB7731
	.uleb128 .LEHE14-.LEHB14
	.uleb128 .L627-.LFB7731
	.uleb128 0
	.uleb128 .LEHB15-.LFB7731
	.uleb128 .LEHE15-.LEHB15
	.uleb128 .L631-.LFB7731
	.uleb128 0
	.uleb128 .LEHB16-.LFB7731
	.uleb128 .LEHE16-.LEHB16
	.uleb128 .L630-.LFB7731
	.uleb128 0
	.uleb128 .LEHB17-.LFB7731
	.uleb128 .LEHE17-.LEHB17
	.uleb128 .L628-.LFB7731
	.uleb128 0
	.uleb128 .LEHB18-.LFB7731
	.uleb128 .LEHE18-.LEHB18
	.uleb128 0
	.uleb128 0
	.uleb128 .LEHB19-.LFB7731
	.uleb128 .LEHE19-.LEHB19
	.uleb128 0
	.uleb128 0
.LLSDACSE7731:
	.text
	.size	_ZN8asiodnp315SerialIOHandler7TryOpenERKN7openpal12TimeDurationE, .-_ZN8asiodnp315SerialIOHandler7TryOpenERKN7openpal12TimeDurationE
	.align	2
	.p2align 4,,11
	.global	_ZN8asiodnp315SerialIOHandler18BeginChannelAcceptEv
	.type	_ZN8asiodnp315SerialIOHandler18BeginChannelAcceptEv, %function
_ZN8asiodnp315SerialIOHandler18BeginChannelAcceptEv:
.LFB7728:
	.cfi_startproc
	add	x1, x0, 816
	b	_ZN8asiodnp315SerialIOHandler7TryOpenERKN7openpal12TimeDurationE
	.cfi_endproc
.LFE7728:
	.size	_ZN8asiodnp315SerialIOHandler18BeginChannelAcceptEv, .-_ZN8asiodnp315SerialIOHandler18BeginChannelAcceptEv
	.align	2
	.p2align 4,,11
	.global	_ZN8asiodnp315SerialIOHandler17OnChannelShutdownEv
	.type	_ZN8asiodnp315SerialIOHandler17OnChannelShutdownEv, %function
_ZN8asiodnp315SerialIOHandler17OnChannelShutdownEv:
.LFB7730:
	.cfi_startproc
	b	_ZN8asiodnp315SerialIOHandler18BeginChannelAcceptEv
	.cfi_endproc
.LFE7730:
	.size	_ZN8asiodnp315SerialIOHandler17OnChannelShutdownEv, .-_ZN8asiodnp315SerialIOHandler17OnChannelShutdownEv
	.align	2
	.p2align 4,,11
	.type	_ZNSt17_Function_handlerIFvvEZN7openpal8TimerRef5StartIZN8asiodnp315SerialIOHandler7TryOpenERKNS1_12TimeDurationEEUlvE_EEbS8_RKT_EUlvE_E9_M_invokeERKSt9_Any_data, %function
_ZNSt17_Function_handlerIFvvEZN7openpal8TimerRef5StartIZN8asiodnp315SerialIOHandler7TryOpenERKNS1_12TimeDurationEEUlvE_EEbS8_RKT_EUlvE_E9_M_invokeERKSt9_Any_data:
.LFB9385:
	.cfi_startproc
	stp	x29, x30, [sp, -48]!
	.cfi_def_cfa_offset 48
	.cfi_offset 29, -48
	.cfi_offset 30, -40
	adrp	x1, :got:__stack_chk_guard
	mov	x29, sp
	ldr	x1, [x1, #:got_lo12:__stack_chk_guard]
	ldr	x0, [x0]
	str	x19, [sp, 16]
	.cfi_offset 19, -32
	ldr	x2, [x1]
	str	x2, [sp, 40]
	mov	x2, 0
	mov	x1, x0
	ldr	x0, [x0]
	ldr	x19, [x1, 8]!
	str	xzr, [x0, 8]
	add	x2, x19, 824
	add	x1, x1, 8
	ldr	x0, [x19, 832]
	ldr	x3, [x0]
	ldr	x3, [x3, 16]
	blr	x3
	mov	x2, x0
	add	x1, sp, 32
	mov	x0, x19
	str	x2, [sp, 32]
	bl	_ZN8asiodnp315SerialIOHandler7TryOpenERKN7openpal12TimeDurationE
	adrp	x0, :got:__stack_chk_guard
	ldr	x0, [x0, #:got_lo12:__stack_chk_guard]
	ldr	x2, [sp, 40]
	ldr	x1, [x0]
	subs	x2, x2, x1
	mov	x1, 0
	bne	.L676
	ldr	x19, [sp, 16]
	ldp	x29, x30, [sp], 48
	.cfi_remember_state
	.cfi_restore 30
	.cfi_restore 29
	.cfi_restore 19
	.cfi_def_cfa_offset 0
	ret
.L676:
	.cfi_restore_state
	bl	__stack_chk_fail
	.cfi_endproc
.LFE9385:
	.size	_ZNSt17_Function_handlerIFvvEZN7openpal8TimerRef5StartIZN8asiodnp315SerialIOHandler7TryOpenERKNS1_12TimeDurationEEUlvE_EEbS8_RKT_EUlvE_E9_M_invokeERKSt9_Any_data, .-_ZNSt17_Function_handlerIFvvEZN7openpal8TimerRef5StartIZN8asiodnp315SerialIOHandler7TryOpenERKNS1_12TimeDurationEEUlvE_EEbS8_RKT_EUlvE_E9_M_invokeERKSt9_Any_data
	.section	.text.startup,"ax",@progbits
	.align	2
	.p2align 4,,11
	.type	_GLOBAL__sub_I_SerialIOHandler.cpp, %function
_GLOBAL__sub_I_SerialIOHandler.cpp:
.LFB10418:
	.cfi_startproc
	stp	x29, x30, [sp, -32]!
	.cfi_def_cfa_offset 32
	.cfi_offset 29, -32
	.cfi_offset 30, -24
	mov	x29, sp
	str	x19, [sp, 16]
	.cfi_offset 19, -16
	adrp	x19, :got:_ZGVZN4asio15system_categoryEvE8instance
	ldr	x19, [x19, #:got_lo12:_ZGVZN4asio15system_categoryEvE8instance]
	ldar	x0, [x19]
	tbz	x0, 0, .L708
.L679:
	adrp	x19, :got:_ZGVZN4asio5error18get_netdb_categoryEvE8instance
	ldr	x19, [x19, #:got_lo12:_ZGVZN4asio5error18get_netdb_categoryEvE8instance]
	ldar	x0, [x19]
	tbz	x0, 0, .L709
.L682:
	adrp	x19, :got:_ZGVZN4asio5error21get_addrinfo_categoryEvE8instance
	ldr	x19, [x19, #:got_lo12:_ZGVZN4asio5error21get_addrinfo_categoryEvE8instance]
	ldar	x0, [x19]
	tbz	x0, 0, .L710
.L685:
	adrp	x19, :got:_ZGVZN4asio5error17get_misc_categoryEvE8instance
	ldr	x19, [x19, #:got_lo12:_ZGVZN4asio5error17get_misc_categoryEvE8instance]
	ldar	x0, [x19]
	tbz	x0, 0, .L711
.L688:
	adrp	x2, :got:_ZGVN4asio6detail10call_stackINS0_15task_io_serviceENS0_27task_io_service_thread_infoEE4top_E
	ldr	x2, [x2, #:got_lo12:_ZGVN4asio6detail10call_stackINS0_15task_io_serviceENS0_27task_io_service_thread_infoEE4top_E]
	ldr	x0, [x2]
	tbz	x0, 0, .L712
.L690:
	adrp	x3, :got:_ZGVN4asio6detail12service_baseINS0_13epoll_reactorEE2idE
	ldr	x3, [x3, #:got_lo12:_ZGVN4asio6detail12service_baseINS0_13epoll_reactorEE2idE]
	ldr	x0, [x3]
	tbz	x0, 0, .L713
.L691:
	adrp	x3, :got:_ZGVN4asio6detail12service_baseINS0_15task_io_serviceEE2idE
	ldr	x3, [x3, #:got_lo12:_ZGVN4asio6detail12service_baseINS0_15task_io_serviceEE2idE]
	ldr	x0, [x3]
	tbz	x0, 0, .L714
.L692:
	adrp	x2, :got:_ZGVN4asio6detail10call_stackINS0_14strand_service11strand_implEhE4top_E
	ldr	x2, [x2, #:got_lo12:_ZGVN4asio6detail10call_stackINS0_14strand_service11strand_implEhE4top_E]
	ldr	x0, [x2]
	tbz	x0, 0, .L715
.L693:
	adrp	x3, :got:_ZGVN4asio6detail12service_baseINS0_14strand_serviceEE2idE
	ldr	x3, [x3, #:got_lo12:_ZGVN4asio6detail12service_baseINS0_14strand_serviceEE2idE]
	ldr	x0, [x3]
	tbz	x0, 0, .L716
	ldr	x19, [sp, 16]
	ldp	x29, x30, [sp], 32
	.cfi_remember_state
	.cfi_restore 30
	.cfi_restore 29
	.cfi_restore 19
	.cfi_def_cfa_offset 0
	ret
.L708:
	.cfi_restore_state
	mov	x0, x19
	bl	__cxa_guard_acquire
	cbz	w0, .L679
	adrp	x1, :got:_ZZN4asio15system_categoryEvE8instance
	adrp	x0, :got:_ZN4asio6detail15system_categoryD1Ev
	adrp	x2, __dso_handle
	add	x2, x2, :lo12:__dso_handle
	ldr	x1, [x1, #:got_lo12:_ZZN4asio15system_categoryEvE8instance]
	ldr	x0, [x0, #:got_lo12:_ZN4asio6detail15system_categoryD1Ev]
	bl	__cxa_atexit
	mov	x0, x19
	bl	__cxa_guard_release
	b	.L679
.L716:
	mov	x4, 1
	adrp	x1, :got:_ZN4asio6detail12service_baseINS0_14strand_serviceEE2idE
	ldr	x19, [sp, 16]
	str	x4, [x3]
	adrp	x0, :got:_ZN4asio6detail10service_idINS0_14strand_serviceEED1Ev
	adrp	x2, __dso_handle
	ldp	x29, x30, [sp], 32
	.cfi_remember_state
	.cfi_restore 30
	.cfi_restore 29
	.cfi_restore 19
	.cfi_def_cfa_offset 0
	add	x2, x2, :lo12:__dso_handle
	ldr	x1, [x1, #:got_lo12:_ZN4asio6detail12service_baseINS0_14strand_serviceEE2idE]
	ldr	x0, [x0, #:got_lo12:_ZN4asio6detail10service_idINS0_14strand_serviceEED1Ev]
	b	__cxa_atexit
.L715:
	.cfi_restore_state
	adrp	x19, :got:_ZN4asio6detail10call_stackINS0_14strand_service11strand_implEhE4top_E
	mov	x0, 1
	str	x0, [x2]
	ldr	x19, [x19, #:got_lo12:_ZN4asio6detail10call_stackINS0_14strand_service11strand_implEhE4top_E]
	mov	x0, x19
	bl	_ZN4asio6detail20posix_tss_ptr_createERj
	adrp	x0, :got:_ZN4asio6detail7tss_ptrINS0_10call_stackINS0_14strand_service11strand_implEhE7contextEED1Ev
	mov	x1, x19
	adrp	x2, __dso_handle
	add	x2, x2, :lo12:__dso_handle
	ldr	x0, [x0, #:got_lo12:_ZN4asio6detail7tss_ptrINS0_10call_stackINS0_14strand_service11strand_implEhE7contextEED1Ev]
	bl	__cxa_atexit
	b	.L693
.L714:
	adrp	x1, :got:_ZN4asio6detail12service_baseINS0_15task_io_serviceEE2idE
	adrp	x0, :got:_ZN4asio6detail10service_idINS0_15task_io_serviceEED1Ev
	mov	x4, 1
	adrp	x2, __dso_handle
	ldr	x1, [x1, #:got_lo12:_ZN4asio6detail12service_baseINS0_15task_io_serviceEE2idE]
	add	x2, x2, :lo12:__dso_handle
	ldr	x0, [x0, #:got_lo12:_ZN4asio6detail10service_idINS0_15task_io_serviceEED1Ev]
	str	x4, [x3]
	bl	__cxa_atexit
	b	.L692
.L713:
	adrp	x1, :got:_ZN4asio6detail12service_baseINS0_13epoll_reactorEE2idE
	adrp	x0, :got:_ZN4asio6detail10service_idINS0_13epoll_reactorEED1Ev
	mov	x4, 1
	adrp	x2, __dso_handle
	ldr	x1, [x1, #:got_lo12:_ZN4asio6detail12service_baseINS0_13epoll_reactorEE2idE]
	add	x2, x2, :lo12:__dso_handle
	ldr	x0, [x0, #:got_lo12:_ZN4asio6detail10service_idINS0_13epoll_reactorEED1Ev]
	str	x4, [x3]
	bl	__cxa_atexit
	b	.L691
.L712:
	adrp	x19, :got:_ZN4asio6detail10call_stackINS0_15task_io_serviceENS0_27task_io_service_thread_infoEE4top_E
	mov	x0, 1
	str	x0, [x2]
	ldr	x19, [x19, #:got_lo12:_ZN4asio6detail10call_stackINS0_15task_io_serviceENS0_27task_io_service_thread_infoEE4top_E]
	mov	x0, x19
	bl	_ZN4asio6detail20posix_tss_ptr_createERj
	adrp	x0, :got:_ZN4asio6detail7tss_ptrINS0_10call_stackINS0_15task_io_serviceENS0_27task_io_service_thread_infoEE7contextEED1Ev
	mov	x1, x19
	adrp	x2, __dso_handle
	add	x2, x2, :lo12:__dso_handle
	ldr	x0, [x0, #:got_lo12:_ZN4asio6detail7tss_ptrINS0_10call_stackINS0_15task_io_serviceENS0_27task_io_service_thread_infoEE7contextEED1Ev]
	bl	__cxa_atexit
	b	.L690
.L711:
	mov	x0, x19
	bl	__cxa_guard_acquire
	cbz	w0, .L688
	adrp	x1, :got:_ZZN4asio5error17get_misc_categoryEvE8instance
	adrp	x0, :got:_ZN4asio5error6detail13misc_categoryD1Ev
	adrp	x2, __dso_handle
	add	x2, x2, :lo12:__dso_handle
	ldr	x1, [x1, #:got_lo12:_ZZN4asio5error17get_misc_categoryEvE8instance]
	ldr	x0, [x0, #:got_lo12:_ZN4asio5error6detail13misc_categoryD1Ev]
	bl	__cxa_atexit
	mov	x0, x19
	bl	__cxa_guard_release
	b	.L688
.L710:
	mov	x0, x19
	bl	__cxa_guard_acquire
	cbz	w0, .L685
	adrp	x1, :got:_ZZN4asio5error21get_addrinfo_categoryEvE8instance
	adrp	x0, :got:_ZN4asio5error6detail17addrinfo_categoryD1Ev
	adrp	x2, __dso_handle
	add	x2, x2, :lo12:__dso_handle
	ldr	x1, [x1, #:got_lo12:_ZZN4asio5error21get_addrinfo_categoryEvE8instance]
	ldr	x0, [x0, #:got_lo12:_ZN4asio5error6detail17addrinfo_categoryD1Ev]
	bl	__cxa_atexit
	mov	x0, x19
	bl	__cxa_guard_release
	b	.L685
.L709:
	mov	x0, x19
	bl	__cxa_guard_acquire
	cbz	w0, .L682
	adrp	x1, :got:_ZZN4asio5error18get_netdb_categoryEvE8instance
	adrp	x0, :got:_ZN4asio5error6detail14netdb_categoryD1Ev
	adrp	x2, __dso_handle
	add	x2, x2, :lo12:__dso_handle
	ldr	x1, [x1, #:got_lo12:_ZZN4asio5error18get_netdb_categoryEvE8instance]
	ldr	x0, [x0, #:got_lo12:_ZN4asio5error6detail14netdb_categoryD1Ev]
	bl	__cxa_atexit
	mov	x0, x19
	bl	__cxa_guard_release
	b	.L682
	.cfi_endproc
.LFE10418:
	.size	_GLOBAL__sub_I_SerialIOHandler.cpp, .-_GLOBAL__sub_I_SerialIOHandler.cpp
	.section	.init_array,"aw"
	.align	3
	.xword	_GLOBAL__sub_I_SerialIOHandler.cpp
	.weak	_ZTSSt11_Mutex_baseILN9__gnu_cxx12_Lock_policyE2EE
	.section	.rodata._ZTSSt11_Mutex_baseILN9__gnu_cxx12_Lock_policyE2EE,"aG",@progbits,_ZTSSt11_Mutex_baseILN9__gnu_cxx12_Lock_policyE2EE,comdat
	.align	3
	.type	_ZTSSt11_Mutex_baseILN9__gnu_cxx12_Lock_policyE2EE, %object
	.size	_ZTSSt11_Mutex_baseILN9__gnu_cxx12_Lock_policyE2EE, 47
_ZTSSt11_Mutex_baseILN9__gnu_cxx12_Lock_policyE2EE:
	.string	"St11_Mutex_baseILN9__gnu_cxx12_Lock_policyE2EE"
	.weak	_ZTISt11_Mutex_baseILN9__gnu_cxx12_Lock_policyE2EE
	.section	.data.rel.ro._ZTISt11_Mutex_baseILN9__gnu_cxx12_Lock_policyE2EE,"awG",@progbits,_ZTISt11_Mutex_baseILN9__gnu_cxx12_Lock_policyE2EE,comdat
	.align	3
	.type	_ZTISt11_Mutex_baseILN9__gnu_cxx12_Lock_policyE2EE, %object
	.size	_ZTISt11_Mutex_baseILN9__gnu_cxx12_Lock_policyE2EE, 16
_ZTISt11_Mutex_baseILN9__gnu_cxx12_Lock_policyE2EE:
	.xword	_ZTVN10__cxxabiv117__class_type_infoE+16
	.xword	_ZTSSt11_Mutex_baseILN9__gnu_cxx12_Lock_policyE2EE
	.weak	_ZTSN7openpal10UncopyableE
	.section	.rodata._ZTSN7openpal10UncopyableE,"aG",@progbits,_ZTSN7openpal10UncopyableE,comdat
	.align	3
	.type	_ZTSN7openpal10UncopyableE, %object
	.size	_ZTSN7openpal10UncopyableE, 23
_ZTSN7openpal10UncopyableE:
	.string	"N7openpal10UncopyableE"
	.weak	_ZTIN7openpal10UncopyableE
	.section	.data.rel.ro._ZTIN7openpal10UncopyableE,"awG",@progbits,_ZTIN7openpal10UncopyableE,comdat
	.align	3
	.type	_ZTIN7openpal10UncopyableE, %object
	.size	_ZTIN7openpal10UncopyableE, 16
_ZTIN7openpal10UncopyableE:
	.xword	_ZTVN10__cxxabiv117__class_type_infoE+16
	.xword	_ZTSN7openpal10UncopyableE
	.weak	_ZTSSt23enable_shared_from_thisIN7asiopal13IAsyncChannelEE
	.section	.rodata._ZTSSt23enable_shared_from_thisIN7asiopal13IAsyncChannelEE,"aG",@progbits,_ZTSSt23enable_shared_from_thisIN7asiopal13IAsyncChannelEE,comdat
	.align	3
	.type	_ZTSSt23enable_shared_from_thisIN7asiopal13IAsyncChannelEE, %object
	.size	_ZTSSt23enable_shared_from_thisIN7asiopal13IAsyncChannelEE, 55
_ZTSSt23enable_shared_from_thisIN7asiopal13IAsyncChannelEE:
	.string	"St23enable_shared_from_thisIN7asiopal13IAsyncChannelEE"
	.weak	_ZTISt23enable_shared_from_thisIN7asiopal13IAsyncChannelEE
	.section	.data.rel.ro._ZTISt23enable_shared_from_thisIN7asiopal13IAsyncChannelEE,"awG",@progbits,_ZTISt23enable_shared_from_thisIN7asiopal13IAsyncChannelEE,comdat
	.align	3
	.type	_ZTISt23enable_shared_from_thisIN7asiopal13IAsyncChannelEE, %object
	.size	_ZTISt23enable_shared_from_thisIN7asiopal13IAsyncChannelEE, 16
_ZTISt23enable_shared_from_thisIN7asiopal13IAsyncChannelEE:
	.xword	_ZTVN10__cxxabiv117__class_type_infoE+16
	.xword	_ZTSSt23enable_shared_from_thisIN7asiopal13IAsyncChannelEE
	.weak	_ZTSSt19_Sp_make_shared_tag
	.section	.rodata._ZTSSt19_Sp_make_shared_tag,"aG",@progbits,_ZTSSt19_Sp_make_shared_tag,comdat
	.align	3
	.type	_ZTSSt19_Sp_make_shared_tag, %object
	.size	_ZTSSt19_Sp_make_shared_tag, 24
_ZTSSt19_Sp_make_shared_tag:
	.string	"St19_Sp_make_shared_tag"
	.weak	_ZGVN4asio6detail12service_baseINS0_14strand_serviceEE2idE
	.section	.bss._ZGVN4asio6detail12service_baseINS0_14strand_serviceEE2idE,"awG",@nobits,_ZGVN4asio6detail12service_baseINS0_14strand_serviceEE2idE,comdat
	.align	3
	.type	_ZGVN4asio6detail12service_baseINS0_14strand_serviceEE2idE, %gnu_unique_object
	.size	_ZGVN4asio6detail12service_baseINS0_14strand_serviceEE2idE, 8
_ZGVN4asio6detail12service_baseINS0_14strand_serviceEE2idE:
	.zero	8
	.weak	_ZGVN4asio6detail10call_stackINS0_14strand_service11strand_implEhE4top_E
	.section	.bss._ZGVN4asio6detail10call_stackINS0_14strand_service11strand_implEhE4top_E,"awG",@nobits,_ZGVN4asio6detail10call_stackINS0_14strand_service11strand_implEhE4top_E,comdat
	.align	3
	.type	_ZGVN4asio6detail10call_stackINS0_14strand_service11strand_implEhE4top_E, %gnu_unique_object
	.size	_ZGVN4asio6detail10call_stackINS0_14strand_service11strand_implEhE4top_E, 8
_ZGVN4asio6detail10call_stackINS0_14strand_service11strand_implEhE4top_E:
	.zero	8
	.weak	_ZGVN4asio6detail12service_baseINS0_15task_io_serviceEE2idE
	.section	.bss._ZGVN4asio6detail12service_baseINS0_15task_io_serviceEE2idE,"awG",@nobits,_ZGVN4asio6detail12service_baseINS0_15task_io_serviceEE2idE,comdat
	.align	3
	.type	_ZGVN4asio6detail12service_baseINS0_15task_io_serviceEE2idE, %gnu_unique_object
	.size	_ZGVN4asio6detail12service_baseINS0_15task_io_serviceEE2idE, 8
_ZGVN4asio6detail12service_baseINS0_15task_io_serviceEE2idE:
	.zero	8
	.weak	_ZGVN4asio6detail12service_baseINS0_13epoll_reactorEE2idE
	.section	.bss._ZGVN4asio6detail12service_baseINS0_13epoll_reactorEE2idE,"awG",@nobits,_ZGVN4asio6detail12service_baseINS0_13epoll_reactorEE2idE,comdat
	.align	3
	.type	_ZGVN4asio6detail12service_baseINS0_13epoll_reactorEE2idE, %gnu_unique_object
	.size	_ZGVN4asio6detail12service_baseINS0_13epoll_reactorEE2idE, 8
_ZGVN4asio6detail12service_baseINS0_13epoll_reactorEE2idE:
	.zero	8
	.weak	_ZGVN4asio6detail10call_stackINS0_15task_io_serviceENS0_27task_io_service_thread_infoEE4top_E
	.section	.bss._ZGVN4asio6detail10call_stackINS0_15task_io_serviceENS0_27task_io_service_thread_infoEE4top_E,"awG",@nobits,_ZGVN4asio6detail10call_stackINS0_15task_io_serviceENS0_27task_io_service_thread_infoEE4top_E,comdat
	.align	3
	.type	_ZGVN4asio6detail10call_stackINS0_15task_io_serviceENS0_27task_io_service_thread_infoEE4top_E, %gnu_unique_object
	.size	_ZGVN4asio6detail10call_stackINS0_15task_io_serviceENS0_27task_io_service_thread_infoEE4top_E, 8
_ZGVN4asio6detail10call_stackINS0_15task_io_serviceENS0_27task_io_service_thread_infoEE4top_E:
	.zero	8
	.weak	_ZN4asio6detail12service_baseINS0_14strand_serviceEE2idE
	.section	.bss._ZN4asio6detail12service_baseINS0_14strand_serviceEE2idE,"awG",@nobits,_ZN4asio6detail12service_baseINS0_14strand_serviceEE2idE,comdat
	.align	3
	.type	_ZN4asio6detail12service_baseINS0_14strand_serviceEE2idE, %gnu_unique_object
	.size	_ZN4asio6detail12service_baseINS0_14strand_serviceEE2idE, 1
_ZN4asio6detail12service_baseINS0_14strand_serviceEE2idE:
	.zero	1
	.weak	_ZN4asio6detail10call_stackINS0_14strand_service11strand_implEhE4top_E
	.section	.bss._ZN4asio6detail10call_stackINS0_14strand_service11strand_implEhE4top_E,"awG",@nobits,_ZN4asio6detail10call_stackINS0_14strand_service11strand_implEhE4top_E,comdat
	.align	3
	.type	_ZN4asio6detail10call_stackINS0_14strand_service11strand_implEhE4top_E, %gnu_unique_object
	.size	_ZN4asio6detail10call_stackINS0_14strand_service11strand_implEhE4top_E, 4
_ZN4asio6detail10call_stackINS0_14strand_service11strand_implEhE4top_E:
	.zero	4
	.weak	_ZN4asio6detail12service_baseINS0_15task_io_serviceEE2idE
	.section	.bss._ZN4asio6detail12service_baseINS0_15task_io_serviceEE2idE,"awG",@nobits,_ZN4asio6detail12service_baseINS0_15task_io_serviceEE2idE,comdat
	.align	3
	.type	_ZN4asio6detail12service_baseINS0_15task_io_serviceEE2idE, %gnu_unique_object
	.size	_ZN4asio6detail12service_baseINS0_15task_io_serviceEE2idE, 1
_ZN4asio6detail12service_baseINS0_15task_io_serviceEE2idE:
	.zero	1
	.weak	_ZN4asio6detail12service_baseINS0_13epoll_reactorEE2idE
	.section	.bss._ZN4asio6detail12service_baseINS0_13epoll_reactorEE2idE,"awG",@nobits,_ZN4asio6detail12service_baseINS0_13epoll_reactorEE2idE,comdat
	.align	3
	.type	_ZN4asio6detail12service_baseINS0_13epoll_reactorEE2idE, %gnu_unique_object
	.size	_ZN4asio6detail12service_baseINS0_13epoll_reactorEE2idE, 1
_ZN4asio6detail12service_baseINS0_13epoll_reactorEE2idE:
	.zero	1
	.weak	_ZN4asio6detail10call_stackINS0_15task_io_serviceENS0_27task_io_service_thread_infoEE4top_E
	.section	.bss._ZN4asio6detail10call_stackINS0_15task_io_serviceENS0_27task_io_service_thread_infoEE4top_E,"awG",@nobits,_ZN4asio6detail10call_stackINS0_15task_io_serviceENS0_27task_io_service_thread_infoEE4top_E,comdat
	.align	3
	.type	_ZN4asio6detail10call_stackINS0_15task_io_serviceENS0_27task_io_service_thread_infoEE4top_E, %gnu_unique_object
	.size	_ZN4asio6detail10call_stackINS0_15task_io_serviceENS0_27task_io_service_thread_infoEE4top_E, 4
_ZN4asio6detail10call_stackINS0_15task_io_serviceENS0_27task_io_service_thread_infoEE4top_E:
	.zero	4
	.weak	_ZTSSt16_Sp_counted_baseILN9__gnu_cxx12_Lock_policyE2EE
	.section	.rodata._ZTSSt16_Sp_counted_baseILN9__gnu_cxx12_Lock_policyE2EE,"aG",@progbits,_ZTSSt16_Sp_counted_baseILN9__gnu_cxx12_Lock_policyE2EE,comdat
	.align	3
	.type	_ZTSSt16_Sp_counted_baseILN9__gnu_cxx12_Lock_policyE2EE, %object
	.size	_ZTSSt16_Sp_counted_baseILN9__gnu_cxx12_Lock_policyE2EE, 52
_ZTSSt16_Sp_counted_baseILN9__gnu_cxx12_Lock_policyE2EE:
	.string	"St16_Sp_counted_baseILN9__gnu_cxx12_Lock_policyE2EE"
	.weak	_ZTISt16_Sp_counted_baseILN9__gnu_cxx12_Lock_policyE2EE
	.section	.data.rel.ro._ZTISt16_Sp_counted_baseILN9__gnu_cxx12_Lock_policyE2EE,"awG",@progbits,_ZTISt16_Sp_counted_baseILN9__gnu_cxx12_Lock_policyE2EE,comdat
	.align	3
	.type	_ZTISt16_Sp_counted_baseILN9__gnu_cxx12_Lock_policyE2EE, %object
	.size	_ZTISt16_Sp_counted_baseILN9__gnu_cxx12_Lock_policyE2EE, 24
_ZTISt16_Sp_counted_baseILN9__gnu_cxx12_Lock_policyE2EE:
	.xword	_ZTVN10__cxxabiv120__si_class_type_infoE+16
	.xword	_ZTSSt16_Sp_counted_baseILN9__gnu_cxx12_Lock_policyE2EE
	.xword	_ZTISt11_Mutex_baseILN9__gnu_cxx12_Lock_policyE2EE
	.weak	_ZTSN4asio6detail15system_categoryE
	.section	.rodata._ZTSN4asio6detail15system_categoryE,"aG",@progbits,_ZTSN4asio6detail15system_categoryE,comdat
	.align	3
	.type	_ZTSN4asio6detail15system_categoryE, %object
	.size	_ZTSN4asio6detail15system_categoryE, 32
_ZTSN4asio6detail15system_categoryE:
	.string	"N4asio6detail15system_categoryE"
	.weak	_ZTIN4asio6detail15system_categoryE
	.section	.data.rel.ro._ZTIN4asio6detail15system_categoryE,"awG",@progbits,_ZTIN4asio6detail15system_categoryE,comdat
	.align	3
	.type	_ZTIN4asio6detail15system_categoryE, %object
	.size	_ZTIN4asio6detail15system_categoryE, 24
_ZTIN4asio6detail15system_categoryE:
	.xword	_ZTVN10__cxxabiv120__si_class_type_infoE+16
	.xword	_ZTSN4asio6detail15system_categoryE
	.xword	_ZTINSt3_V214error_categoryE
	.weak	_ZTSN4asio5error6detail14netdb_categoryE
	.section	.rodata._ZTSN4asio5error6detail14netdb_categoryE,"aG",@progbits,_ZTSN4asio5error6detail14netdb_categoryE,comdat
	.align	3
	.type	_ZTSN4asio5error6detail14netdb_categoryE, %object
	.size	_ZTSN4asio5error6detail14netdb_categoryE, 37
_ZTSN4asio5error6detail14netdb_categoryE:
	.string	"N4asio5error6detail14netdb_categoryE"
	.weak	_ZTIN4asio5error6detail14netdb_categoryE
	.section	.data.rel.ro._ZTIN4asio5error6detail14netdb_categoryE,"awG",@progbits,_ZTIN4asio5error6detail14netdb_categoryE,comdat
	.align	3
	.type	_ZTIN4asio5error6detail14netdb_categoryE, %object
	.size	_ZTIN4asio5error6detail14netdb_categoryE, 24
_ZTIN4asio5error6detail14netdb_categoryE:
	.xword	_ZTVN10__cxxabiv120__si_class_type_infoE+16
	.xword	_ZTSN4asio5error6detail14netdb_categoryE
	.xword	_ZTINSt3_V214error_categoryE
	.weak	_ZTSN4asio5error6detail17addrinfo_categoryE
	.section	.rodata._ZTSN4asio5error6detail17addrinfo_categoryE,"aG",@progbits,_ZTSN4asio5error6detail17addrinfo_categoryE,comdat
	.align	3
	.type	_ZTSN4asio5error6detail17addrinfo_categoryE, %object
	.size	_ZTSN4asio5error6detail17addrinfo_categoryE, 40
_ZTSN4asio5error6detail17addrinfo_categoryE:
	.string	"N4asio5error6detail17addrinfo_categoryE"
	.weak	_ZTIN4asio5error6detail17addrinfo_categoryE
	.section	.data.rel.ro._ZTIN4asio5error6detail17addrinfo_categoryE,"awG",@progbits,_ZTIN4asio5error6detail17addrinfo_categoryE,comdat
	.align	3
	.type	_ZTIN4asio5error6detail17addrinfo_categoryE, %object
	.size	_ZTIN4asio5error6detail17addrinfo_categoryE, 24
_ZTIN4asio5error6detail17addrinfo_categoryE:
	.xword	_ZTVN10__cxxabiv120__si_class_type_infoE+16
	.xword	_ZTSN4asio5error6detail17addrinfo_categoryE
	.xword	_ZTINSt3_V214error_categoryE
	.weak	_ZTSN4asio5error6detail13misc_categoryE
	.section	.rodata._ZTSN4asio5error6detail13misc_categoryE,"aG",@progbits,_ZTSN4asio5error6detail13misc_categoryE,comdat
	.align	3
	.type	_ZTSN4asio5error6detail13misc_categoryE, %object
	.size	_ZTSN4asio5error6detail13misc_categoryE, 36
_ZTSN4asio5error6detail13misc_categoryE:
	.string	"N4asio5error6detail13misc_categoryE"
	.weak	_ZTIN4asio5error6detail13misc_categoryE
	.section	.data.rel.ro._ZTIN4asio5error6detail13misc_categoryE,"awG",@progbits,_ZTIN4asio5error6detail13misc_categoryE,comdat
	.align	3
	.type	_ZTIN4asio5error6detail13misc_categoryE, %object
	.size	_ZTIN4asio5error6detail13misc_categoryE, 24
_ZTIN4asio5error6detail13misc_categoryE:
	.xword	_ZTVN10__cxxabiv120__si_class_type_infoE+16
	.xword	_ZTSN4asio5error6detail13misc_categoryE
	.xword	_ZTINSt3_V214error_categoryE
	.weak	_ZTSN7asiopal13IAsyncChannelE
	.section	.rodata._ZTSN7asiopal13IAsyncChannelE,"aG",@progbits,_ZTSN7asiopal13IAsyncChannelE,comdat
	.align	3
	.type	_ZTSN7asiopal13IAsyncChannelE, %object
	.size	_ZTSN7asiopal13IAsyncChannelE, 26
_ZTSN7asiopal13IAsyncChannelE:
	.string	"N7asiopal13IAsyncChannelE"
	.weak	_ZTIN7asiopal13IAsyncChannelE
	.section	.data.rel.ro._ZTIN7asiopal13IAsyncChannelE,"awG",@progbits,_ZTIN7asiopal13IAsyncChannelE,comdat
	.align	3
	.type	_ZTIN7asiopal13IAsyncChannelE, %object
	.size	_ZTIN7asiopal13IAsyncChannelE, 56
_ZTIN7asiopal13IAsyncChannelE:
	.xword	_ZTVN10__cxxabiv121__vmi_class_type_infoE+16
	.xword	_ZTSN7asiopal13IAsyncChannelE
	.word	0
	.word	2
	.xword	_ZTISt23enable_shared_from_thisIN7asiopal13IAsyncChannelEE
	.xword	2050
	.xword	_ZTIN7openpal10UncopyableE
	.xword	0
	.weak	_ZTSN8asiodnp315SerialIOHandlerE
	.section	.rodata._ZTSN8asiodnp315SerialIOHandlerE,"aG",@progbits,_ZTSN8asiodnp315SerialIOHandlerE,comdat
	.align	3
	.type	_ZTSN8asiodnp315SerialIOHandlerE, %object
	.size	_ZTSN8asiodnp315SerialIOHandlerE, 29
_ZTSN8asiodnp315SerialIOHandlerE:
	.string	"N8asiodnp315SerialIOHandlerE"
	.weak	_ZTIN8asiodnp315SerialIOHandlerE
	.section	.data.rel.ro._ZTIN8asiodnp315SerialIOHandlerE,"awG",@progbits,_ZTIN8asiodnp315SerialIOHandlerE,comdat
	.align	3
	.type	_ZTIN8asiodnp315SerialIOHandlerE, %object
	.size	_ZTIN8asiodnp315SerialIOHandlerE, 24
_ZTIN8asiodnp315SerialIOHandlerE:
	.xword	_ZTVN10__cxxabiv120__si_class_type_infoE+16
	.xword	_ZTSN8asiodnp315SerialIOHandlerE
	.xword	_ZTIN8asiodnp39IOHandlerE
	.weak	_ZTSSt23_Sp_counted_ptr_inplaceIN7asiopal13SerialChannelESaIS1_ELN9__gnu_cxx12_Lock_policyE2EE
	.section	.rodata._ZTSSt23_Sp_counted_ptr_inplaceIN7asiopal13SerialChannelESaIS1_ELN9__gnu_cxx12_Lock_policyE2EE,"aG",@progbits,_ZTSSt23_Sp_counted_ptr_inplaceIN7asiopal13SerialChannelESaIS1_ELN9__gnu_cxx12_Lock_policyE2EE,comdat
	.align	3
	.type	_ZTSSt23_Sp_counted_ptr_inplaceIN7asiopal13SerialChannelESaIS1_ELN9__gnu_cxx12_Lock_policyE2EE, %object
	.size	_ZTSSt23_Sp_counted_ptr_inplaceIN7asiopal13SerialChannelESaIS1_ELN9__gnu_cxx12_Lock_policyE2EE, 91
_ZTSSt23_Sp_counted_ptr_inplaceIN7asiopal13SerialChannelESaIS1_ELN9__gnu_cxx12_Lock_policyE2EE:
	.string	"St23_Sp_counted_ptr_inplaceIN7asiopal13SerialChannelESaIS1_ELN9__gnu_cxx12_Lock_policyE2EE"
	.weak	_ZTISt23_Sp_counted_ptr_inplaceIN7asiopal13SerialChannelESaIS1_ELN9__gnu_cxx12_Lock_policyE2EE
	.section	.data.rel.ro._ZTISt23_Sp_counted_ptr_inplaceIN7asiopal13SerialChannelESaIS1_ELN9__gnu_cxx12_Lock_policyE2EE,"awG",@progbits,_ZTISt23_Sp_counted_ptr_inplaceIN7asiopal13SerialChannelESaIS1_ELN9__gnu_cxx12_Lock_policyE2EE,comdat
	.align	3
	.type	_ZTISt23_Sp_counted_ptr_inplaceIN7asiopal13SerialChannelESaIS1_ELN9__gnu_cxx12_Lock_policyE2EE, %object
	.size	_ZTISt23_Sp_counted_ptr_inplaceIN7asiopal13SerialChannelESaIS1_ELN9__gnu_cxx12_Lock_policyE2EE, 24
_ZTISt23_Sp_counted_ptr_inplaceIN7asiopal13SerialChannelESaIS1_ELN9__gnu_cxx12_Lock_policyE2EE:
	.xword	_ZTVN10__cxxabiv120__si_class_type_infoE+16
	.xword	_ZTSSt23_Sp_counted_ptr_inplaceIN7asiopal13SerialChannelESaIS1_ELN9__gnu_cxx12_Lock_policyE2EE
	.xword	_ZTISt16_Sp_counted_baseILN9__gnu_cxx12_Lock_policyE2EE
	.weak	_ZTVN4asio6detail15system_categoryE
	.section	.data.rel.ro._ZTVN4asio6detail15system_categoryE,"awG",@progbits,_ZTVN4asio6detail15system_categoryE,comdat
	.align	3
	.type	_ZTVN4asio6detail15system_categoryE, %object
	.size	_ZTVN4asio6detail15system_categoryE, 80
_ZTVN4asio6detail15system_categoryE:
	.xword	0
	.xword	_ZTIN4asio6detail15system_categoryE
	.xword	_ZN4asio6detail15system_categoryD1Ev
	.xword	_ZN4asio6detail15system_categoryD0Ev
	.xword	_ZNK4asio6detail15system_category4nameEv
	.xword	_ZNKSt3_V214error_category10_M_messageB5cxx11Ei
	.xword	_ZNK4asio6detail15system_category7messageB5cxx11Ei
	.xword	_ZNKSt3_V214error_category23default_error_conditionEi
	.xword	_ZNKSt3_V214error_category10equivalentEiRKSt15error_condition
	.xword	_ZNKSt3_V214error_category10equivalentERKSt10error_codei
	.weak	_ZTVN4asio5error6detail14netdb_categoryE
	.section	.data.rel.ro._ZTVN4asio5error6detail14netdb_categoryE,"awG",@progbits,_ZTVN4asio5error6detail14netdb_categoryE,comdat
	.align	3
	.type	_ZTVN4asio5error6detail14netdb_categoryE, %object
	.size	_ZTVN4asio5error6detail14netdb_categoryE, 80
_ZTVN4asio5error6detail14netdb_categoryE:
	.xword	0
	.xword	_ZTIN4asio5error6detail14netdb_categoryE
	.xword	_ZN4asio5error6detail14netdb_categoryD1Ev
	.xword	_ZN4asio5error6detail14netdb_categoryD0Ev
	.xword	_ZNK4asio5error6detail14netdb_category4nameEv
	.xword	_ZNKSt3_V214error_category10_M_messageB5cxx11Ei
	.xword	_ZNK4asio5error6detail14netdb_category7messageB5cxx11Ei
	.xword	_ZNKSt3_V214error_category23default_error_conditionEi
	.xword	_ZNKSt3_V214error_category10equivalentEiRKSt15error_condition
	.xword	_ZNKSt3_V214error_category10equivalentERKSt10error_codei
	.weak	_ZTVN4asio5error6detail17addrinfo_categoryE
	.section	.data.rel.ro._ZTVN4asio5error6detail17addrinfo_categoryE,"awG",@progbits,_ZTVN4asio5error6detail17addrinfo_categoryE,comdat
	.align	3
	.type	_ZTVN4asio5error6detail17addrinfo_categoryE, %object
	.size	_ZTVN4asio5error6detail17addrinfo_categoryE, 80
_ZTVN4asio5error6detail17addrinfo_categoryE:
	.xword	0
	.xword	_ZTIN4asio5error6detail17addrinfo_categoryE
	.xword	_ZN4asio5error6detail17addrinfo_categoryD1Ev
	.xword	_ZN4asio5error6detail17addrinfo_categoryD0Ev
	.xword	_ZNK4asio5error6detail17addrinfo_category4nameEv
	.xword	_ZNKSt3_V214error_category10_M_messageB5cxx11Ei
	.xword	_ZNK4asio5error6detail17addrinfo_category7messageB5cxx11Ei
	.xword	_ZNKSt3_V214error_category23default_error_conditionEi
	.xword	_ZNKSt3_V214error_category10equivalentEiRKSt15error_condition
	.xword	_ZNKSt3_V214error_category10equivalentERKSt10error_codei
	.weak	_ZTVN4asio5error6detail13misc_categoryE
	.section	.data.rel.ro._ZTVN4asio5error6detail13misc_categoryE,"awG",@progbits,_ZTVN4asio5error6detail13misc_categoryE,comdat
	.align	3
	.type	_ZTVN4asio5error6detail13misc_categoryE, %object
	.size	_ZTVN4asio5error6detail13misc_categoryE, 80
_ZTVN4asio5error6detail13misc_categoryE:
	.xword	0
	.xword	_ZTIN4asio5error6detail13misc_categoryE
	.xword	_ZN4asio5error6detail13misc_categoryD1Ev
	.xword	_ZN4asio5error6detail13misc_categoryD0Ev
	.xword	_ZNK4asio5error6detail13misc_category4nameEv
	.xword	_ZNKSt3_V214error_category10_M_messageB5cxx11Ei
	.xword	_ZNK4asio5error6detail13misc_category7messageB5cxx11Ei
	.xword	_ZNKSt3_V214error_category23default_error_conditionEi
	.xword	_ZNKSt3_V214error_category10equivalentEiRKSt15error_condition
	.xword	_ZNKSt3_V214error_category10equivalentERKSt10error_codei
	.weak	_ZTVN7asiopal13IAsyncChannelE
	.section	.data.rel.ro._ZTVN7asiopal13IAsyncChannelE,"awG",@progbits,_ZTVN7asiopal13IAsyncChannelE,comdat
	.align	3
	.type	_ZTVN7asiopal13IAsyncChannelE, %object
	.size	_ZTVN7asiopal13IAsyncChannelE, 56
_ZTVN7asiopal13IAsyncChannelE:
	.xword	0
	.xword	_ZTIN7asiopal13IAsyncChannelE
	.xword	0
	.xword	0
	.xword	__cxa_pure_virtual
	.xword	__cxa_pure_virtual
	.xword	__cxa_pure_virtual
	.weak	_ZTVN8asiodnp315SerialIOHandlerE
	.section	.data.rel.ro._ZTVN8asiodnp315SerialIOHandlerE,"awG",@progbits,_ZTVN8asiodnp315SerialIOHandlerE,comdat
	.align	3
	.type	_ZTVN8asiodnp315SerialIOHandlerE, %object
	.size	_ZTVN8asiodnp315SerialIOHandlerE, 136
_ZTVN8asiodnp315SerialIOHandlerE:
	.xword	0
	.xword	_ZTIN8asiodnp315SerialIOHandlerE
	.xword	_ZN8asiodnp315SerialIOHandlerD1Ev
	.xword	_ZN8asiodnp315SerialIOHandlerD0Ev
	.xword	_ZN8asiodnp39IOHandler7OnFrameERKN8opendnp316LinkHeaderFieldsERKN7openpal6RSliceE
	.xword	_ZN8asiodnp39IOHandler14OnReadCompleteERKSt10error_codem
	.xword	_ZN8asiodnp39IOHandler15OnWriteCompleteERKSt10error_codem
	.xword	_ZN8asiodnp315SerialIOHandler18BeginChannelAcceptEv
	.xword	_ZN8asiodnp315SerialIOHandler20SuspendChannelAcceptEv
	.xword	_ZN8asiodnp315SerialIOHandler12ShutdownImplEv
	.xword	_ZN8asiodnp315SerialIOHandler17OnChannelShutdownEv
	.xword	-8
	.xword	_ZTIN8asiodnp315SerialIOHandlerE
	.xword	_ZThn8_N8asiodnp315SerialIOHandlerD1Ev
	.xword	_ZThn8_N8asiodnp315SerialIOHandlerD0Ev
	.xword	_ZThn8_N8asiodnp39IOHandler14OnReadCompleteERKSt10error_codem
	.xword	_ZThn8_N8asiodnp39IOHandler15OnWriteCompleteERKSt10error_codem
	.weak	_ZTVSt23_Sp_counted_ptr_inplaceIN7asiopal13SerialChannelESaIS1_ELN9__gnu_cxx12_Lock_policyE2EE
	.section	.data.rel.ro._ZTVSt23_Sp_counted_ptr_inplaceIN7asiopal13SerialChannelESaIS1_ELN9__gnu_cxx12_Lock_policyE2EE,"awG",@progbits,_ZTVSt23_Sp_counted_ptr_inplaceIN7asiopal13SerialChannelESaIS1_ELN9__gnu_cxx12_Lock_policyE2EE,comdat
	.align	3
	.type	_ZTVSt23_Sp_counted_ptr_inplaceIN7asiopal13SerialChannelESaIS1_ELN9__gnu_cxx12_Lock_policyE2EE, %object
	.size	_ZTVSt23_Sp_counted_ptr_inplaceIN7asiopal13SerialChannelESaIS1_ELN9__gnu_cxx12_Lock_policyE2EE, 56
_ZTVSt23_Sp_counted_ptr_inplaceIN7asiopal13SerialChannelESaIS1_ELN9__gnu_cxx12_Lock_policyE2EE:
	.xword	0
	.xword	_ZTISt23_Sp_counted_ptr_inplaceIN7asiopal13SerialChannelESaIS1_ELN9__gnu_cxx12_Lock_policyE2EE
	.xword	_ZNSt23_Sp_counted_ptr_inplaceIN7asiopal13SerialChannelESaIS1_ELN9__gnu_cxx12_Lock_policyE2EED1Ev
	.xword	_ZNSt23_Sp_counted_ptr_inplaceIN7asiopal13SerialChannelESaIS1_ELN9__gnu_cxx12_Lock_policyE2EED0Ev
	.xword	_ZNSt23_Sp_counted_ptr_inplaceIN7asiopal13SerialChannelESaIS1_ELN9__gnu_cxx12_Lock_policyE2EE10_M_disposeEv
	.xword	_ZNSt23_Sp_counted_ptr_inplaceIN7asiopal13SerialChannelESaIS1_ELN9__gnu_cxx12_Lock_policyE2EE10_M_destroyEv
	.xword	_ZNSt23_Sp_counted_ptr_inplaceIN7asiopal13SerialChannelESaIS1_ELN9__gnu_cxx12_Lock_policyE2EE14_M_get_deleterERKSt9type_info
	.weak	_ZGVZN4asio5error17get_misc_categoryEvE8instance
	.section	.bss._ZGVZN4asio5error17get_misc_categoryEvE8instance,"awG",@nobits,_ZGVZN4asio5error17get_misc_categoryEvE8instance,comdat
	.align	3
	.type	_ZGVZN4asio5error17get_misc_categoryEvE8instance, %gnu_unique_object
	.size	_ZGVZN4asio5error17get_misc_categoryEvE8instance, 8
_ZGVZN4asio5error17get_misc_categoryEvE8instance:
	.zero	8
	.weak	_ZZN4asio5error17get_misc_categoryEvE8instance
	.section	.data.rel._ZZN4asio5error17get_misc_categoryEvE8instance,"awG",@progbits,_ZZN4asio5error17get_misc_categoryEvE8instance,comdat
	.align	3
	.type	_ZZN4asio5error17get_misc_categoryEvE8instance, %gnu_unique_object
	.size	_ZZN4asio5error17get_misc_categoryEvE8instance, 8
_ZZN4asio5error17get_misc_categoryEvE8instance:
	.xword	_ZTVN4asio5error6detail13misc_categoryE+16
	.weak	_ZGVZN4asio5error21get_addrinfo_categoryEvE8instance
	.section	.bss._ZGVZN4asio5error21get_addrinfo_categoryEvE8instance,"awG",@nobits,_ZGVZN4asio5error21get_addrinfo_categoryEvE8instance,comdat
	.align	3
	.type	_ZGVZN4asio5error21get_addrinfo_categoryEvE8instance, %gnu_unique_object
	.size	_ZGVZN4asio5error21get_addrinfo_categoryEvE8instance, 8
_ZGVZN4asio5error21get_addrinfo_categoryEvE8instance:
	.zero	8
	.weak	_ZZN4asio5error21get_addrinfo_categoryEvE8instance
	.section	.data.rel._ZZN4asio5error21get_addrinfo_categoryEvE8instance,"awG",@progbits,_ZZN4asio5error21get_addrinfo_categoryEvE8instance,comdat
	.align	3
	.type	_ZZN4asio5error21get_addrinfo_categoryEvE8instance, %gnu_unique_object
	.size	_ZZN4asio5error21get_addrinfo_categoryEvE8instance, 8
_ZZN4asio5error21get_addrinfo_categoryEvE8instance:
	.xword	_ZTVN4asio5error6detail17addrinfo_categoryE+16
	.weak	_ZGVZN4asio5error18get_netdb_categoryEvE8instance
	.section	.bss._ZGVZN4asio5error18get_netdb_categoryEvE8instance,"awG",@nobits,_ZGVZN4asio5error18get_netdb_categoryEvE8instance,comdat
	.align	3
	.type	_ZGVZN4asio5error18get_netdb_categoryEvE8instance, %gnu_unique_object
	.size	_ZGVZN4asio5error18get_netdb_categoryEvE8instance, 8
_ZGVZN4asio5error18get_netdb_categoryEvE8instance:
	.zero	8
	.weak	_ZZN4asio5error18get_netdb_categoryEvE8instance
	.section	.data.rel._ZZN4asio5error18get_netdb_categoryEvE8instance,"awG",@progbits,_ZZN4asio5error18get_netdb_categoryEvE8instance,comdat
	.align	3
	.type	_ZZN4asio5error18get_netdb_categoryEvE8instance, %gnu_unique_object
	.size	_ZZN4asio5error18get_netdb_categoryEvE8instance, 8
_ZZN4asio5error18get_netdb_categoryEvE8instance:
	.xword	_ZTVN4asio5error6detail14netdb_categoryE+16
	.weak	_ZGVZN4asio15system_categoryEvE8instance
	.section	.bss._ZGVZN4asio15system_categoryEvE8instance,"awG",@nobits,_ZGVZN4asio15system_categoryEvE8instance,comdat
	.align	3
	.type	_ZGVZN4asio15system_categoryEvE8instance, %gnu_unique_object
	.size	_ZGVZN4asio15system_categoryEvE8instance, 8
_ZGVZN4asio15system_categoryEvE8instance:
	.zero	8
	.weak	_ZZN4asio15system_categoryEvE8instance
	.section	.data.rel._ZZN4asio15system_categoryEvE8instance,"awG",@progbits,_ZZN4asio15system_categoryEvE8instance,comdat
	.align	3
	.type	_ZZN4asio15system_categoryEvE8instance, %gnu_unique_object
	.size	_ZZN4asio15system_categoryEvE8instance, 8
_ZZN4asio15system_categoryEvE8instance:
	.xword	_ZTVN4asio6detail15system_categoryE+16
	.weak	_ZZNSt19_Sp_make_shared_tag5_S_tiEvE5__tag
	.section	.rodata._ZZNSt19_Sp_make_shared_tag5_S_tiEvE5__tag,"aG",@progbits,_ZZNSt19_Sp_make_shared_tag5_S_tiEvE5__tag,comdat
	.align	3
	.type	_ZZNSt19_Sp_make_shared_tag5_S_tiEvE5__tag, %gnu_unique_object
	.size	_ZZNSt19_Sp_make_shared_tag5_S_tiEvE5__tag, 16
_ZZNSt19_Sp_make_shared_tag5_S_tiEvE5__tag:
	.zero	16
	.section	.rodata
	.align	3
	.type	_ZTSZN7openpal8TimerRef5StartIZN8asiodnp315SerialIOHandler7TryOpenERKNS_12TimeDurationEEUlvE_EEbS6_RKT_EUlvE_, %object
	.size	_ZTSZN7openpal8TimerRef5StartIZN8asiodnp315SerialIOHandler7TryOpenERKNS_12TimeDurationEEUlvE_EEbS6_RKT_EUlvE_, 107
_ZTSZN7openpal8TimerRef5StartIZN8asiodnp315SerialIOHandler7TryOpenERKNS_12TimeDurationEEUlvE_EEbS6_RKT_EUlvE_:
	.string	"*ZN7openpal8TimerRef5StartIZN8asiodnp315SerialIOHandler7TryOpenERKNS_12TimeDurationEEUlvE_EEbS6_RKT_EUlvE_"
	.section	.data.rel.ro,"aw"
	.align	3
	.set	.LANCHOR0,. + 0
	.type	_ZTIZN7openpal8TimerRef5StartIZN8asiodnp315SerialIOHandler7TryOpenERKNS_12TimeDurationEEUlvE_EEbS6_RKT_EUlvE_, %object
	.size	_ZTIZN7openpal8TimerRef5StartIZN8asiodnp315SerialIOHandler7TryOpenERKNS_12TimeDurationEEUlvE_EEbS6_RKT_EUlvE_, 16
_ZTIZN7openpal8TimerRef5StartIZN8asiodnp315SerialIOHandler7TryOpenERKNS_12TimeDurationEEUlvE_EEbS6_RKT_EUlvE_:
	.xword	_ZTVN10__cxxabiv117__class_type_infoE+16
	.xword	_ZTSZN7openpal8TimerRef5StartIZN8asiodnp315SerialIOHandler7TryOpenERKNS_12TimeDurationEEUlvE_EEbS6_RKT_EUlvE_
	.weak	__cxa_pure_virtual
	.hidden	DW.ref.__gxx_personality_v0
	.weak	DW.ref.__gxx_personality_v0
	.section	.data.rel.local.DW.ref.__gxx_personality_v0,"awG",@progbits,DW.ref.__gxx_personality_v0,comdat
	.align	3
	.type	DW.ref.__gxx_personality_v0, %object
	.size	DW.ref.__gxx_personality_v0, 8
DW.ref.__gxx_personality_v0:
	.xword	__gxx_personality_v0
	.hidden	__dso_handle
	.ident	"GCC: (Ubuntu 11.4.0-1ubuntu1~22.04) 11.4.0"
	.section	.note.GNU-stack,"",@progbits
