	.arch armv8-a
	.file	"TCPClientIOHandler.cpp"
	.text
	.section	.rodata._ZNK4asio6detail15system_category4nameEv.str1.8,"aMS",@progbits,1
	.align	3
.LC0:
	.string	"asio.system"
	.section	.text._ZNK4asio6detail15system_category4nameEv,"axG",@progbits,_ZNK4asio6detail15system_category4nameEv,comdat
	.align	2
	.p2align 4,,11
	.weak	_ZNK4asio6detail15system_category4nameEv
	.type	_ZNK4asio6detail15system_category4nameEv, %function
_ZNK4asio6detail15system_category4nameEv:
.LFB2874:
	.cfi_startproc
	adrp	x0, .LC0
	add	x0, x0, :lo12:.LC0
	ret
	.cfi_endproc
.LFE2874:
	.size	_ZNK4asio6detail15system_category4nameEv, .-_ZNK4asio6detail15system_category4nameEv
	.section	.rodata._ZNK4asio5error6detail14netdb_category4nameEv.str1.8,"aMS",@progbits,1
	.align	3
.LC1:
	.string	"asio.netdb"
	.section	.text._ZNK4asio5error6detail14netdb_category4nameEv,"axG",@progbits,_ZNK4asio5error6detail14netdb_category4nameEv,comdat
	.align	2
	.p2align 4,,11
	.weak	_ZNK4asio5error6detail14netdb_category4nameEv
	.type	_ZNK4asio5error6detail14netdb_category4nameEv, %function
_ZNK4asio5error6detail14netdb_category4nameEv:
.LFB2895:
	.cfi_startproc
	adrp	x0, .LC1
	add	x0, x0, :lo12:.LC1
	ret
	.cfi_endproc
.LFE2895:
	.size	_ZNK4asio5error6detail14netdb_category4nameEv, .-_ZNK4asio5error6detail14netdb_category4nameEv
	.section	.rodata._ZNK4asio5error6detail17addrinfo_category4nameEv.str1.8,"aMS",@progbits,1
	.align	3
.LC2:
	.string	"asio.addrinfo"
	.section	.text._ZNK4asio5error6detail17addrinfo_category4nameEv,"axG",@progbits,_ZNK4asio5error6detail17addrinfo_category4nameEv,comdat
	.align	2
	.p2align 4,,11
	.weak	_ZNK4asio5error6detail17addrinfo_category4nameEv
	.type	_ZNK4asio5error6detail17addrinfo_category4nameEv, %function
_ZNK4asio5error6detail17addrinfo_category4nameEv:
.LFB2901:
	.cfi_startproc
	adrp	x0, .LC2
	add	x0, x0, :lo12:.LC2
	ret
	.cfi_endproc
.LFE2901:
	.size	_ZNK4asio5error6detail17addrinfo_category4nameEv, .-_ZNK4asio5error6detail17addrinfo_category4nameEv
	.section	.rodata._ZNK4asio5error6detail13misc_category4nameEv.str1.8,"aMS",@progbits,1
	.align	3
.LC3:
	.string	"asio.misc"
	.section	.text._ZNK4asio5error6detail13misc_category4nameEv,"axG",@progbits,_ZNK4asio5error6detail13misc_category4nameEv,comdat
	.align	2
	.p2align 4,,11
	.weak	_ZNK4asio5error6detail13misc_category4nameEv
	.type	_ZNK4asio5error6detail13misc_category4nameEv, %function
_ZNK4asio5error6detail13misc_category4nameEv:
.LFB2907:
	.cfi_startproc
	adrp	x0, .LC3
	add	x0, x0, :lo12:.LC3
	ret
	.cfi_endproc
.LFE2907:
	.size	_ZNK4asio5error6detail13misc_category4nameEv, .-_ZNK4asio5error6detail13misc_category4nameEv
	.section	.text._ZN4asio6detail10service_idINS0_13epoll_reactorEED2Ev,"axG",@progbits,_ZN4asio6detail10service_idINS0_13epoll_reactorEED5Ev,comdat
	.align	2
	.p2align 4,,11
	.weak	_ZN4asio6detail10service_idINS0_13epoll_reactorEED2Ev
	.type	_ZN4asio6detail10service_idINS0_13epoll_reactorEED2Ev, %function
_ZN4asio6detail10service_idINS0_13epoll_reactorEED2Ev:
.LFB10510:
	.cfi_startproc
	ret
	.cfi_endproc
.LFE10510:
	.size	_ZN4asio6detail10service_idINS0_13epoll_reactorEED2Ev, .-_ZN4asio6detail10service_idINS0_13epoll_reactorEED2Ev
	.weak	_ZN4asio6detail10service_idINS0_13epoll_reactorEED1Ev
	.set	_ZN4asio6detail10service_idINS0_13epoll_reactorEED1Ev,_ZN4asio6detail10service_idINS0_13epoll_reactorEED2Ev
	.section	.text._ZN4asio6detail10service_idINS0_15task_io_serviceEED2Ev,"axG",@progbits,_ZN4asio6detail10service_idINS0_15task_io_serviceEED5Ev,comdat
	.align	2
	.p2align 4,,11
	.weak	_ZN4asio6detail10service_idINS0_15task_io_serviceEED2Ev
	.type	_ZN4asio6detail10service_idINS0_15task_io_serviceEED2Ev, %function
_ZN4asio6detail10service_idINS0_15task_io_serviceEED2Ev:
.LFB10513:
	.cfi_startproc
	ret
	.cfi_endproc
.LFE10513:
	.size	_ZN4asio6detail10service_idINS0_15task_io_serviceEED2Ev, .-_ZN4asio6detail10service_idINS0_15task_io_serviceEED2Ev
	.weak	_ZN4asio6detail10service_idINS0_15task_io_serviceEED1Ev
	.set	_ZN4asio6detail10service_idINS0_15task_io_serviceEED1Ev,_ZN4asio6detail10service_idINS0_15task_io_serviceEED2Ev
	.section	.text._ZN4asio6detail10service_idINS0_14strand_serviceEED2Ev,"axG",@progbits,_ZN4asio6detail10service_idINS0_14strand_serviceEED5Ev,comdat
	.align	2
	.p2align 4,,11
	.weak	_ZN4asio6detail10service_idINS0_14strand_serviceEED2Ev
	.type	_ZN4asio6detail10service_idINS0_14strand_serviceEED2Ev, %function
_ZN4asio6detail10service_idINS0_14strand_serviceEED2Ev:
.LFB10519:
	.cfi_startproc
	ret
	.cfi_endproc
.LFE10519:
	.size	_ZN4asio6detail10service_idINS0_14strand_serviceEED2Ev, .-_ZN4asio6detail10service_idINS0_14strand_serviceEED2Ev
	.weak	_ZN4asio6detail10service_idINS0_14strand_serviceEED1Ev
	.set	_ZN4asio6detail10service_idINS0_14strand_serviceEED1Ev,_ZN4asio6detail10service_idINS0_14strand_serviceEED2Ev
	.section	.text._ZNSt23_Sp_counted_ptr_inplaceIN7asiopal13SocketChannelESaIS1_ELN9__gnu_cxx12_Lock_policyE2EED2Ev,"axG",@progbits,_ZNSt23_Sp_counted_ptr_inplaceIN7asiopal13SocketChannelESaIS1_ELN9__gnu_cxx12_Lock_policyE2EED5Ev,comdat
	.align	2
	.p2align 4,,11
	.weak	_ZNSt23_Sp_counted_ptr_inplaceIN7asiopal13SocketChannelESaIS1_ELN9__gnu_cxx12_Lock_policyE2EED2Ev
	.type	_ZNSt23_Sp_counted_ptr_inplaceIN7asiopal13SocketChannelESaIS1_ELN9__gnu_cxx12_Lock_policyE2EED2Ev, %function
_ZNSt23_Sp_counted_ptr_inplaceIN7asiopal13SocketChannelESaIS1_ELN9__gnu_cxx12_Lock_policyE2EED2Ev:
.LFB10522:
	.cfi_startproc
	ret
	.cfi_endproc
.LFE10522:
	.size	_ZNSt23_Sp_counted_ptr_inplaceIN7asiopal13SocketChannelESaIS1_ELN9__gnu_cxx12_Lock_policyE2EED2Ev, .-_ZNSt23_Sp_counted_ptr_inplaceIN7asiopal13SocketChannelESaIS1_ELN9__gnu_cxx12_Lock_policyE2EED2Ev
	.weak	_ZNSt23_Sp_counted_ptr_inplaceIN7asiopal13SocketChannelESaIS1_ELN9__gnu_cxx12_Lock_policyE2EED1Ev
	.set	_ZNSt23_Sp_counted_ptr_inplaceIN7asiopal13SocketChannelESaIS1_ELN9__gnu_cxx12_Lock_policyE2EED1Ev,_ZNSt23_Sp_counted_ptr_inplaceIN7asiopal13SocketChannelESaIS1_ELN9__gnu_cxx12_Lock_policyE2EED2Ev
	.section	.text._ZNSt23_Sp_counted_ptr_inplaceIN7asiopal9TCPClientESaIS1_ELN9__gnu_cxx12_Lock_policyE2EED2Ev,"axG",@progbits,_ZNSt23_Sp_counted_ptr_inplaceIN7asiopal9TCPClientESaIS1_ELN9__gnu_cxx12_Lock_policyE2EED5Ev,comdat
	.align	2
	.p2align 4,,11
	.weak	_ZNSt23_Sp_counted_ptr_inplaceIN7asiopal9TCPClientESaIS1_ELN9__gnu_cxx12_Lock_policyE2EED2Ev
	.type	_ZNSt23_Sp_counted_ptr_inplaceIN7asiopal9TCPClientESaIS1_ELN9__gnu_cxx12_Lock_policyE2EED2Ev, %function
_ZNSt23_Sp_counted_ptr_inplaceIN7asiopal9TCPClientESaIS1_ELN9__gnu_cxx12_Lock_policyE2EED2Ev:
.LFB10536:
	.cfi_startproc
	ret
	.cfi_endproc
.LFE10536:
	.size	_ZNSt23_Sp_counted_ptr_inplaceIN7asiopal9TCPClientESaIS1_ELN9__gnu_cxx12_Lock_policyE2EED2Ev, .-_ZNSt23_Sp_counted_ptr_inplaceIN7asiopal9TCPClientESaIS1_ELN9__gnu_cxx12_Lock_policyE2EED2Ev
	.weak	_ZNSt23_Sp_counted_ptr_inplaceIN7asiopal9TCPClientESaIS1_ELN9__gnu_cxx12_Lock_policyE2EED1Ev
	.set	_ZNSt23_Sp_counted_ptr_inplaceIN7asiopal9TCPClientESaIS1_ELN9__gnu_cxx12_Lock_policyE2EED1Ev,_ZNSt23_Sp_counted_ptr_inplaceIN7asiopal9TCPClientESaIS1_ELN9__gnu_cxx12_Lock_policyE2EED2Ev
	.section	.text._ZNSt23_Sp_counted_ptr_inplaceIN7asiopal9TCPClientESaIS1_ELN9__gnu_cxx12_Lock_policyE2EED0Ev,"axG",@progbits,_ZNSt23_Sp_counted_ptr_inplaceIN7asiopal9TCPClientESaIS1_ELN9__gnu_cxx12_Lock_policyE2EED5Ev,comdat
	.align	2
	.p2align 4,,11
	.weak	_ZNSt23_Sp_counted_ptr_inplaceIN7asiopal9TCPClientESaIS1_ELN9__gnu_cxx12_Lock_policyE2EED0Ev
	.type	_ZNSt23_Sp_counted_ptr_inplaceIN7asiopal9TCPClientESaIS1_ELN9__gnu_cxx12_Lock_policyE2EED0Ev, %function
_ZNSt23_Sp_counted_ptr_inplaceIN7asiopal9TCPClientESaIS1_ELN9__gnu_cxx12_Lock_policyE2EED0Ev:
.LFB10538:
	.cfi_startproc
	mov	x1, 264
	b	_ZdlPvm
	.cfi_endproc
.LFE10538:
	.size	_ZNSt23_Sp_counted_ptr_inplaceIN7asiopal9TCPClientESaIS1_ELN9__gnu_cxx12_Lock_policyE2EED0Ev, .-_ZNSt23_Sp_counted_ptr_inplaceIN7asiopal9TCPClientESaIS1_ELN9__gnu_cxx12_Lock_policyE2EED0Ev
	.section	.text._ZNSt23_Sp_counted_ptr_inplaceIN7asiopal13SocketChannelESaIS1_ELN9__gnu_cxx12_Lock_policyE2EED0Ev,"axG",@progbits,_ZNSt23_Sp_counted_ptr_inplaceIN7asiopal13SocketChannelESaIS1_ELN9__gnu_cxx12_Lock_policyE2EED5Ev,comdat
	.align	2
	.p2align 4,,11
	.weak	_ZNSt23_Sp_counted_ptr_inplaceIN7asiopal13SocketChannelESaIS1_ELN9__gnu_cxx12_Lock_policyE2EED0Ev
	.type	_ZNSt23_Sp_counted_ptr_inplaceIN7asiopal13SocketChannelESaIS1_ELN9__gnu_cxx12_Lock_policyE2EED0Ev, %function
_ZNSt23_Sp_counted_ptr_inplaceIN7asiopal13SocketChannelESaIS1_ELN9__gnu_cxx12_Lock_policyE2EED0Ev:
.LFB10524:
	.cfi_startproc
	mov	x1, 112
	b	_ZdlPvm
	.cfi_endproc
.LFE10524:
	.size	_ZNSt23_Sp_counted_ptr_inplaceIN7asiopal13SocketChannelESaIS1_ELN9__gnu_cxx12_Lock_policyE2EED0Ev, .-_ZNSt23_Sp_counted_ptr_inplaceIN7asiopal13SocketChannelESaIS1_ELN9__gnu_cxx12_Lock_policyE2EED0Ev
	.section	.text._ZNSt23_Sp_counted_ptr_inplaceIN7asiopal13SocketChannelESaIS1_ELN9__gnu_cxx12_Lock_policyE2EE10_M_destroyEv,"axG",@progbits,_ZNSt23_Sp_counted_ptr_inplaceIN7asiopal13SocketChannelESaIS1_ELN9__gnu_cxx12_Lock_policyE2EE10_M_destroyEv,comdat
	.align	2
	.p2align 4,,11
	.weak	_ZNSt23_Sp_counted_ptr_inplaceIN7asiopal13SocketChannelESaIS1_ELN9__gnu_cxx12_Lock_policyE2EE10_M_destroyEv
	.type	_ZNSt23_Sp_counted_ptr_inplaceIN7asiopal13SocketChannelESaIS1_ELN9__gnu_cxx12_Lock_policyE2EE10_M_destroyEv, %function
_ZNSt23_Sp_counted_ptr_inplaceIN7asiopal13SocketChannelESaIS1_ELN9__gnu_cxx12_Lock_policyE2EE10_M_destroyEv:
.LFB10526:
	.cfi_startproc
	mov	x1, 112
	b	_ZdlPvm
	.cfi_endproc
.LFE10526:
	.size	_ZNSt23_Sp_counted_ptr_inplaceIN7asiopal13SocketChannelESaIS1_ELN9__gnu_cxx12_Lock_policyE2EE10_M_destroyEv, .-_ZNSt23_Sp_counted_ptr_inplaceIN7asiopal13SocketChannelESaIS1_ELN9__gnu_cxx12_Lock_policyE2EE10_M_destroyEv
	.section	.text._ZNSt23_Sp_counted_ptr_inplaceIN7asiopal9TCPClientESaIS1_ELN9__gnu_cxx12_Lock_policyE2EE10_M_destroyEv,"axG",@progbits,_ZNSt23_Sp_counted_ptr_inplaceIN7asiopal9TCPClientESaIS1_ELN9__gnu_cxx12_Lock_policyE2EE10_M_destroyEv,comdat
	.align	2
	.p2align 4,,11
	.weak	_ZNSt23_Sp_counted_ptr_inplaceIN7asiopal9TCPClientESaIS1_ELN9__gnu_cxx12_Lock_policyE2EE10_M_destroyEv
	.type	_ZNSt23_Sp_counted_ptr_inplaceIN7asiopal9TCPClientESaIS1_ELN9__gnu_cxx12_Lock_policyE2EE10_M_destroyEv, %function
_ZNSt23_Sp_counted_ptr_inplaceIN7asiopal9TCPClientESaIS1_ELN9__gnu_cxx12_Lock_policyE2EE10_M_destroyEv:
.LFB10540:
	.cfi_startproc
	mov	x1, 264
	b	_ZdlPvm
	.cfi_endproc
.LFE10540:
	.size	_ZNSt23_Sp_counted_ptr_inplaceIN7asiopal9TCPClientESaIS1_ELN9__gnu_cxx12_Lock_policyE2EE10_M_destroyEv, .-_ZNSt23_Sp_counted_ptr_inplaceIN7asiopal9TCPClientESaIS1_ELN9__gnu_cxx12_Lock_policyE2EE10_M_destroyEv
	.section	.text._ZN4asio6detail15system_categoryD2Ev,"axG",@progbits,_ZN4asio6detail15system_categoryD5Ev,comdat
	.align	2
	.p2align 4,,11
	.weak	_ZN4asio6detail15system_categoryD2Ev
	.type	_ZN4asio6detail15system_categoryD2Ev, %function
_ZN4asio6detail15system_categoryD2Ev:
.LFB10486:
	.cfi_startproc
	adrp	x1, :got:_ZTVN4asio6detail15system_categoryE
	ldr	x1, [x1, #:got_lo12:_ZTVN4asio6detail15system_categoryE]
	add	x1, x1, 16
	str	x1, [x0]
	b	_ZNSt3_V214error_categoryD2Ev
	.cfi_endproc
.LFE10486:
	.size	_ZN4asio6detail15system_categoryD2Ev, .-_ZN4asio6detail15system_categoryD2Ev
	.weak	_ZN4asio6detail15system_categoryD1Ev
	.set	_ZN4asio6detail15system_categoryD1Ev,_ZN4asio6detail15system_categoryD2Ev
	.section	.text._ZN4asio6detail15system_categoryD0Ev,"axG",@progbits,_ZN4asio6detail15system_categoryD5Ev,comdat
	.align	2
	.p2align 4,,11
	.weak	_ZN4asio6detail15system_categoryD0Ev
	.type	_ZN4asio6detail15system_categoryD0Ev, %function
_ZN4asio6detail15system_categoryD0Ev:
.LFB10488:
	.cfi_startproc
	stp	x29, x30, [sp, -32]!
	.cfi_def_cfa_offset 32
	.cfi_offset 29, -32
	.cfi_offset 30, -24
	adrp	x1, :got:_ZTVN4asio6detail15system_categoryE
	mov	x29, sp
	ldr	x1, [x1, #:got_lo12:_ZTVN4asio6detail15system_categoryE]
	str	x19, [sp, 16]
	.cfi_offset 19, -16
	mov	x19, x0
	add	x1, x1, 16
	str	x1, [x0]
	bl	_ZNSt3_V214error_categoryD2Ev
	mov	x0, x19
	mov	x1, 8
	ldr	x19, [sp, 16]
	ldp	x29, x30, [sp], 32
	.cfi_restore 30
	.cfi_restore 29
	.cfi_restore 19
	.cfi_def_cfa_offset 0
	b	_ZdlPvm
	.cfi_endproc
.LFE10488:
	.size	_ZN4asio6detail15system_categoryD0Ev, .-_ZN4asio6detail15system_categoryD0Ev
	.section	.text._ZN4asio5error6detail14netdb_categoryD2Ev,"axG",@progbits,_ZN4asio5error6detail14netdb_categoryD5Ev,comdat
	.align	2
	.p2align 4,,11
	.weak	_ZN4asio5error6detail14netdb_categoryD2Ev
	.type	_ZN4asio5error6detail14netdb_categoryD2Ev, %function
_ZN4asio5error6detail14netdb_categoryD2Ev:
.LFB10482:
	.cfi_startproc
	adrp	x1, :got:_ZTVN4asio5error6detail14netdb_categoryE
	ldr	x1, [x1, #:got_lo12:_ZTVN4asio5error6detail14netdb_categoryE]
	add	x1, x1, 16
	str	x1, [x0]
	b	_ZNSt3_V214error_categoryD2Ev
	.cfi_endproc
.LFE10482:
	.size	_ZN4asio5error6detail14netdb_categoryD2Ev, .-_ZN4asio5error6detail14netdb_categoryD2Ev
	.weak	_ZN4asio5error6detail14netdb_categoryD1Ev
	.set	_ZN4asio5error6detail14netdb_categoryD1Ev,_ZN4asio5error6detail14netdb_categoryD2Ev
	.section	.text._ZN4asio5error6detail14netdb_categoryD0Ev,"axG",@progbits,_ZN4asio5error6detail14netdb_categoryD5Ev,comdat
	.align	2
	.p2align 4,,11
	.weak	_ZN4asio5error6detail14netdb_categoryD0Ev
	.type	_ZN4asio5error6detail14netdb_categoryD0Ev, %function
_ZN4asio5error6detail14netdb_categoryD0Ev:
.LFB10484:
	.cfi_startproc
	stp	x29, x30, [sp, -32]!
	.cfi_def_cfa_offset 32
	.cfi_offset 29, -32
	.cfi_offset 30, -24
	adrp	x1, :got:_ZTVN4asio5error6detail14netdb_categoryE
	mov	x29, sp
	ldr	x1, [x1, #:got_lo12:_ZTVN4asio5error6detail14netdb_categoryE]
	str	x19, [sp, 16]
	.cfi_offset 19, -16
	mov	x19, x0
	add	x1, x1, 16
	str	x1, [x0]
	bl	_ZNSt3_V214error_categoryD2Ev
	mov	x0, x19
	mov	x1, 8
	ldr	x19, [sp, 16]
	ldp	x29, x30, [sp], 32
	.cfi_restore 30
	.cfi_restore 29
	.cfi_restore 19
	.cfi_def_cfa_offset 0
	b	_ZdlPvm
	.cfi_endproc
.LFE10484:
	.size	_ZN4asio5error6detail14netdb_categoryD0Ev, .-_ZN4asio5error6detail14netdb_categoryD0Ev
	.section	.text._ZN4asio5error6detail17addrinfo_categoryD2Ev,"axG",@progbits,_ZN4asio5error6detail17addrinfo_categoryD5Ev,comdat
	.align	2
	.p2align 4,,11
	.weak	_ZN4asio5error6detail17addrinfo_categoryD2Ev
	.type	_ZN4asio5error6detail17addrinfo_categoryD2Ev, %function
_ZN4asio5error6detail17addrinfo_categoryD2Ev:
.LFB10478:
	.cfi_startproc
	adrp	x1, :got:_ZTVN4asio5error6detail17addrinfo_categoryE
	ldr	x1, [x1, #:got_lo12:_ZTVN4asio5error6detail17addrinfo_categoryE]
	add	x1, x1, 16
	str	x1, [x0]
	b	_ZNSt3_V214error_categoryD2Ev
	.cfi_endproc
.LFE10478:
	.size	_ZN4asio5error6detail17addrinfo_categoryD2Ev, .-_ZN4asio5error6detail17addrinfo_categoryD2Ev
	.weak	_ZN4asio5error6detail17addrinfo_categoryD1Ev
	.set	_ZN4asio5error6detail17addrinfo_categoryD1Ev,_ZN4asio5error6detail17addrinfo_categoryD2Ev
	.section	.text._ZN4asio5error6detail17addrinfo_categoryD0Ev,"axG",@progbits,_ZN4asio5error6detail17addrinfo_categoryD5Ev,comdat
	.align	2
	.p2align 4,,11
	.weak	_ZN4asio5error6detail17addrinfo_categoryD0Ev
	.type	_ZN4asio5error6detail17addrinfo_categoryD0Ev, %function
_ZN4asio5error6detail17addrinfo_categoryD0Ev:
.LFB10480:
	.cfi_startproc
	stp	x29, x30, [sp, -32]!
	.cfi_def_cfa_offset 32
	.cfi_offset 29, -32
	.cfi_offset 30, -24
	adrp	x1, :got:_ZTVN4asio5error6detail17addrinfo_categoryE
	mov	x29, sp
	ldr	x1, [x1, #:got_lo12:_ZTVN4asio5error6detail17addrinfo_categoryE]
	str	x19, [sp, 16]
	.cfi_offset 19, -16
	mov	x19, x0
	add	x1, x1, 16
	str	x1, [x0]
	bl	_ZNSt3_V214error_categoryD2Ev
	mov	x0, x19
	mov	x1, 8
	ldr	x19, [sp, 16]
	ldp	x29, x30, [sp], 32
	.cfi_restore 30
	.cfi_restore 29
	.cfi_restore 19
	.cfi_def_cfa_offset 0
	b	_ZdlPvm
	.cfi_endproc
.LFE10480:
	.size	_ZN4asio5error6detail17addrinfo_categoryD0Ev, .-_ZN4asio5error6detail17addrinfo_categoryD0Ev
	.section	.text._ZN4asio5error6detail13misc_categoryD2Ev,"axG",@progbits,_ZN4asio5error6detail13misc_categoryD5Ev,comdat
	.align	2
	.p2align 4,,11
	.weak	_ZN4asio5error6detail13misc_categoryD2Ev
	.type	_ZN4asio5error6detail13misc_categoryD2Ev, %function
_ZN4asio5error6detail13misc_categoryD2Ev:
.LFB10474:
	.cfi_startproc
	adrp	x1, :got:_ZTVN4asio5error6detail13misc_categoryE
	ldr	x1, [x1, #:got_lo12:_ZTVN4asio5error6detail13misc_categoryE]
	add	x1, x1, 16
	str	x1, [x0]
	b	_ZNSt3_V214error_categoryD2Ev
	.cfi_endproc
.LFE10474:
	.size	_ZN4asio5error6detail13misc_categoryD2Ev, .-_ZN4asio5error6detail13misc_categoryD2Ev
	.weak	_ZN4asio5error6detail13misc_categoryD1Ev
	.set	_ZN4asio5error6detail13misc_categoryD1Ev,_ZN4asio5error6detail13misc_categoryD2Ev
	.section	.text._ZN4asio5error6detail13misc_categoryD0Ev,"axG",@progbits,_ZN4asio5error6detail13misc_categoryD5Ev,comdat
	.align	2
	.p2align 4,,11
	.weak	_ZN4asio5error6detail13misc_categoryD0Ev
	.type	_ZN4asio5error6detail13misc_categoryD0Ev, %function
_ZN4asio5error6detail13misc_categoryD0Ev:
.LFB10476:
	.cfi_startproc
	stp	x29, x30, [sp, -32]!
	.cfi_def_cfa_offset 32
	.cfi_offset 29, -32
	.cfi_offset 30, -24
	adrp	x1, :got:_ZTVN4asio5error6detail13misc_categoryE
	mov	x29, sp
	ldr	x1, [x1, #:got_lo12:_ZTVN4asio5error6detail13misc_categoryE]
	str	x19, [sp, 16]
	.cfi_offset 19, -16
	mov	x19, x0
	add	x1, x1, 16
	str	x1, [x0]
	bl	_ZNSt3_V214error_categoryD2Ev
	mov	x0, x19
	mov	x1, 8
	ldr	x19, [sp, 16]
	ldp	x29, x30, [sp], 32
	.cfi_restore 30
	.cfi_restore 29
	.cfi_restore 19
	.cfi_def_cfa_offset 0
	b	_ZdlPvm
	.cfi_endproc
.LFE10476:
	.size	_ZN4asio5error6detail13misc_categoryD0Ev, .-_ZN4asio5error6detail13misc_categoryD0Ev
	.section	.text._ZNSt23_Sp_counted_ptr_inplaceIN7asiopal9TCPClientESaIS1_ELN9__gnu_cxx12_Lock_policyE2EE14_M_get_deleterERKSt9type_info,"axG",@progbits,_ZNSt23_Sp_counted_ptr_inplaceIN7asiopal9TCPClientESaIS1_ELN9__gnu_cxx12_Lock_policyE2EE14_M_get_deleterERKSt9type_info,comdat
	.align	2
	.p2align 4,,11
	.weak	_ZNSt23_Sp_counted_ptr_inplaceIN7asiopal9TCPClientESaIS1_ELN9__gnu_cxx12_Lock_policyE2EE14_M_get_deleterERKSt9type_info
	.type	_ZNSt23_Sp_counted_ptr_inplaceIN7asiopal9TCPClientESaIS1_ELN9__gnu_cxx12_Lock_policyE2EE14_M_get_deleterERKSt9type_info, %function
_ZNSt23_Sp_counted_ptr_inplaceIN7asiopal9TCPClientESaIS1_ELN9__gnu_cxx12_Lock_policyE2EE14_M_get_deleterERKSt9type_info:
.LFB10541:
	.cfi_startproc
	stp	x29, x30, [sp, -32]!
	.cfi_def_cfa_offset 32
	.cfi_offset 29, -32
	.cfi_offset 30, -24
	adrp	x2, :got:_ZZNSt19_Sp_make_shared_tag5_S_tiEvE5__tag
	mov	x29, sp
	ldr	x2, [x2, #:got_lo12:_ZZNSt19_Sp_make_shared_tag5_S_tiEvE5__tag]
	str	x19, [sp, 16]
	.cfi_offset 19, -16
	add	x19, x0, 16
	cmp	x1, x2
	beq	.L27
	adrp	x2, :got:_ZTSSt19_Sp_make_shared_tag
	ldr	x0, [x1, 8]
	ldr	x1, [x2, #:got_lo12:_ZTSSt19_Sp_make_shared_tag]
	cmp	x0, x1
	beq	.L27
	ldrb	w2, [x0]
	cmp	w2, 42
	beq	.L29
	bl	strcmp
	cmp	w0, 0
	csel	x19, x19, xzr, eq
.L27:
	mov	x0, x19
	ldr	x19, [sp, 16]
	ldp	x29, x30, [sp], 32
	.cfi_remember_state
	.cfi_restore 30
	.cfi_restore 29
	.cfi_restore 19
	.cfi_def_cfa_offset 0
	ret
	.p2align 2,,3
.L29:
	.cfi_restore_state
	mov	x19, 0
	mov	x0, x19
	ldr	x19, [sp, 16]
	ldp	x29, x30, [sp], 32
	.cfi_restore 30
	.cfi_restore 29
	.cfi_restore 19
	.cfi_def_cfa_offset 0
	ret
	.cfi_endproc
.LFE10541:
	.size	_ZNSt23_Sp_counted_ptr_inplaceIN7asiopal9TCPClientESaIS1_ELN9__gnu_cxx12_Lock_policyE2EE14_M_get_deleterERKSt9type_info, .-_ZNSt23_Sp_counted_ptr_inplaceIN7asiopal9TCPClientESaIS1_ELN9__gnu_cxx12_Lock_policyE2EE14_M_get_deleterERKSt9type_info
	.section	.text._ZN4asio6detail7tss_ptrINS0_10call_stackINS0_15task_io_serviceENS0_27task_io_service_thread_infoEE7contextEED2Ev,"axG",@progbits,_ZN4asio6detail7tss_ptrINS0_10call_stackINS0_15task_io_serviceENS0_27task_io_service_thread_infoEE7contextEED5Ev,comdat
	.align	2
	.p2align 4,,11
	.weak	_ZN4asio6detail7tss_ptrINS0_10call_stackINS0_15task_io_serviceENS0_27task_io_service_thread_infoEE7contextEED2Ev
	.type	_ZN4asio6detail7tss_ptrINS0_10call_stackINS0_15task_io_serviceENS0_27task_io_service_thread_infoEE7contextEED2Ev, %function
_ZN4asio6detail7tss_ptrINS0_10call_stackINS0_15task_io_serviceENS0_27task_io_service_thread_infoEE7contextEED2Ev:
.LFB10507:
	.cfi_startproc
	ldr	w0, [x0]
	b	pthread_key_delete
	.cfi_endproc
.LFE10507:
	.size	_ZN4asio6detail7tss_ptrINS0_10call_stackINS0_15task_io_serviceENS0_27task_io_service_thread_infoEE7contextEED2Ev, .-_ZN4asio6detail7tss_ptrINS0_10call_stackINS0_15task_io_serviceENS0_27task_io_service_thread_infoEE7contextEED2Ev
	.weak	_ZN4asio6detail7tss_ptrINS0_10call_stackINS0_15task_io_serviceENS0_27task_io_service_thread_infoEE7contextEED1Ev
	.set	_ZN4asio6detail7tss_ptrINS0_10call_stackINS0_15task_io_serviceENS0_27task_io_service_thread_infoEE7contextEED1Ev,_ZN4asio6detail7tss_ptrINS0_10call_stackINS0_15task_io_serviceENS0_27task_io_service_thread_infoEE7contextEED2Ev
	.section	.text._ZN4asio6detail7tss_ptrINS0_10call_stackINS0_14strand_service11strand_implEhE7contextEED2Ev,"axG",@progbits,_ZN4asio6detail7tss_ptrINS0_10call_stackINS0_14strand_service11strand_implEhE7contextEED5Ev,comdat
	.align	2
	.p2align 4,,11
	.weak	_ZN4asio6detail7tss_ptrINS0_10call_stackINS0_14strand_service11strand_implEhE7contextEED2Ev
	.type	_ZN4asio6detail7tss_ptrINS0_10call_stackINS0_14strand_service11strand_implEhE7contextEED2Ev, %function
_ZN4asio6detail7tss_ptrINS0_10call_stackINS0_14strand_service11strand_implEhE7contextEED2Ev:
.LFB10516:
	.cfi_startproc
	ldr	w0, [x0]
	b	pthread_key_delete
	.cfi_endproc
.LFE10516:
	.size	_ZN4asio6detail7tss_ptrINS0_10call_stackINS0_14strand_service11strand_implEhE7contextEED2Ev, .-_ZN4asio6detail7tss_ptrINS0_10call_stackINS0_14strand_service11strand_implEhE7contextEED2Ev
	.weak	_ZN4asio6detail7tss_ptrINS0_10call_stackINS0_14strand_service11strand_implEhE7contextEED1Ev
	.set	_ZN4asio6detail7tss_ptrINS0_10call_stackINS0_14strand_service11strand_implEhE7contextEED1Ev,_ZN4asio6detail7tss_ptrINS0_10call_stackINS0_14strand_service11strand_implEhE7contextEED2Ev
	.section	.text._ZNSt23_Sp_counted_ptr_inplaceIN7asiopal13SocketChannelESaIS1_ELN9__gnu_cxx12_Lock_policyE2EE14_M_get_deleterERKSt9type_info,"axG",@progbits,_ZNSt23_Sp_counted_ptr_inplaceIN7asiopal13SocketChannelESaIS1_ELN9__gnu_cxx12_Lock_policyE2EE14_M_get_deleterERKSt9type_info,comdat
	.align	2
	.p2align 4,,11
	.weak	_ZNSt23_Sp_counted_ptr_inplaceIN7asiopal13SocketChannelESaIS1_ELN9__gnu_cxx12_Lock_policyE2EE14_M_get_deleterERKSt9type_info
	.type	_ZNSt23_Sp_counted_ptr_inplaceIN7asiopal13SocketChannelESaIS1_ELN9__gnu_cxx12_Lock_policyE2EE14_M_get_deleterERKSt9type_info, %function
_ZNSt23_Sp_counted_ptr_inplaceIN7asiopal13SocketChannelESaIS1_ELN9__gnu_cxx12_Lock_policyE2EE14_M_get_deleterERKSt9type_info:
.LFB10527:
	.cfi_startproc
	stp	x29, x30, [sp, -32]!
	.cfi_def_cfa_offset 32
	.cfi_offset 29, -32
	.cfi_offset 30, -24
	adrp	x2, :got:_ZZNSt19_Sp_make_shared_tag5_S_tiEvE5__tag
	mov	x29, sp
	ldr	x2, [x2, #:got_lo12:_ZZNSt19_Sp_make_shared_tag5_S_tiEvE5__tag]
	str	x19, [sp, 16]
	.cfi_offset 19, -16
	add	x19, x0, 16
	cmp	x1, x2
	beq	.L34
	adrp	x2, :got:_ZTSSt19_Sp_make_shared_tag
	ldr	x0, [x1, 8]
	ldr	x1, [x2, #:got_lo12:_ZTSSt19_Sp_make_shared_tag]
	cmp	x0, x1
	beq	.L34
	ldrb	w2, [x0]
	cmp	w2, 42
	beq	.L36
	bl	strcmp
	cmp	w0, 0
	csel	x19, x19, xzr, eq
.L34:
	mov	x0, x19
	ldr	x19, [sp, 16]
	ldp	x29, x30, [sp], 32
	.cfi_remember_state
	.cfi_restore 30
	.cfi_restore 29
	.cfi_restore 19
	.cfi_def_cfa_offset 0
	ret
	.p2align 2,,3
.L36:
	.cfi_restore_state
	mov	x19, 0
	mov	x0, x19
	ldr	x19, [sp, 16]
	ldp	x29, x30, [sp], 32
	.cfi_restore 30
	.cfi_restore 29
	.cfi_restore 19
	.cfi_def_cfa_offset 0
	ret
	.cfi_endproc
.LFE10527:
	.size	_ZNSt23_Sp_counted_ptr_inplaceIN7asiopal13SocketChannelESaIS1_ELN9__gnu_cxx12_Lock_policyE2EE14_M_get_deleterERKSt9type_info, .-_ZNSt23_Sp_counted_ptr_inplaceIN7asiopal13SocketChannelESaIS1_ELN9__gnu_cxx12_Lock_policyE2EE14_M_get_deleterERKSt9type_info
	.section	.text._ZNSt8_Rb_treeIPN8opendnp317IScheduleCallbackES2_St9_IdentityIS2_ESt4lessIS2_ESaIS2_EE8_M_eraseEPSt13_Rb_tree_nodeIS2_E.isra.0,"axG",@progbits,_ZN8asiodnp39IOHandlerD5Ev,comdat
	.align	2
	.p2align 4,,11
	.type	_ZNSt8_Rb_treeIPN8opendnp317IScheduleCallbackES2_St9_IdentityIS2_ESt4lessIS2_ESaIS2_EE8_M_eraseEPSt13_Rb_tree_nodeIS2_E.isra.0, %function
_ZNSt8_Rb_treeIPN8opendnp317IScheduleCallbackES2_St9_IdentityIS2_ESt4lessIS2_ESaIS2_EE8_M_eraseEPSt13_Rb_tree_nodeIS2_E.isra.0:
.LFB10675:
	.cfi_startproc
	cbz	x0, .L100
	stp	x29, x30, [sp, -96]!
	.cfi_def_cfa_offset 96
	.cfi_offset 29, -96
	.cfi_offset 30, -88
	mov	x29, sp
	stp	x23, x24, [sp, 48]
	.cfi_offset 23, -48
	.cfi_offset 24, -40
	mov	x23, x0
	stp	x19, x20, [sp, 16]
	.cfi_offset 19, -80
	.cfi_offset 20, -72
.L57:
	ldr	x24, [x23, 24]
	cbz	x24, .L41
	stp	x25, x26, [sp, 64]
	.cfi_offset 26, -24
	.cfi_offset 25, -32
.L56:
	ldr	x25, [x24, 24]
	cbz	x25, .L42
.L55:
	ldr	x26, [x25, 24]
	cbz	x26, .L43
.L54:
	ldr	x19, [x26, 24]
	cbz	x19, .L44
.L53:
	ldr	x20, [x19, 24]
	cbz	x20, .L45
	stp	x21, x22, [sp, 32]
	.cfi_offset 22, -56
	.cfi_offset 21, -64
	str	x27, [sp, 80]
	.cfi_offset 27, -16
.L52:
	ldr	x27, [x20, 24]
	cbz	x27, .L46
.L51:
	ldr	x21, [x27, 24]
	cbz	x21, .L47
.L50:
	ldr	x22, [x21, 24]
	cbz	x22, .L48
.L49:
	ldr	x0, [x22, 24]
	bl	_ZNSt8_Rb_treeIPN8opendnp317IScheduleCallbackES2_St9_IdentityIS2_ESt4lessIS2_ESaIS2_EE8_M_eraseEPSt13_Rb_tree_nodeIS2_E.isra.0
	mov	x0, x22
	mov	x1, 40
	ldr	x22, [x22, 16]
	bl	_ZdlPvm
	cbnz	x22, .L49
.L48:
	ldr	x22, [x21, 16]
	mov	x0, x21
	mov	x1, 40
	bl	_ZdlPvm
	cbz	x22, .L47
	mov	x21, x22
	b	.L50
.L101:
	ldp	x21, x22, [sp, 32]
	.cfi_restore 22
	.cfi_restore 21
	ldr	x27, [sp, 80]
	.cfi_restore 27
.L45:
	mov	x0, x19
	ldr	x20, [x19, 16]
	mov	x1, 40
	bl	_ZdlPvm
	cbz	x20, .L44
	mov	x19, x20
	b	.L53
	.p2align 2,,3
.L46:
	.cfi_offset 21, -64
	.cfi_offset 22, -56
	.cfi_offset 27, -16
	ldr	x21, [x20, 16]
	mov	x0, x20
	mov	x1, 40
	bl	_ZdlPvm
	cbz	x21, .L101
	mov	x20, x21
	b	.L52
.L44:
	.cfi_restore 21
	.cfi_restore 22
	.cfi_restore 27
	ldr	x19, [x26, 16]
	mov	x0, x26
	mov	x1, 40
	bl	_ZdlPvm
	cbz	x19, .L43
	mov	x26, x19
	b	.L54
	.p2align 2,,3
.L47:
	.cfi_offset 21, -64
	.cfi_offset 22, -56
	.cfi_offset 27, -16
	ldr	x21, [x27, 16]
	mov	x0, x27
	mov	x1, 40
	bl	_ZdlPvm
	cbz	x21, .L46
	mov	x27, x21
	b	.L51
.L43:
	.cfi_restore 21
	.cfi_restore 22
	.cfi_restore 27
	ldr	x19, [x25, 16]
	mov	x0, x25
	mov	x1, 40
	bl	_ZdlPvm
	cbz	x19, .L42
	mov	x25, x19
	b	.L55
.L42:
	ldr	x19, [x24, 16]
	mov	x0, x24
	mov	x1, 40
	bl	_ZdlPvm
	cbz	x19, .L102
	mov	x24, x19
	b	.L56
.L102:
	ldp	x25, x26, [sp, 64]
	.cfi_restore 26
	.cfi_restore 25
.L41:
	mov	x0, x23
	ldr	x19, [x23, 16]
	mov	x1, 40
	bl	_ZdlPvm
	cbz	x19, .L103
	mov	x23, x19
	b	.L57
.L103:
	ldp	x19, x20, [sp, 16]
	ldp	x23, x24, [sp, 48]
	ldp	x29, x30, [sp], 96
	.cfi_restore 30
	.cfi_restore 29
	.cfi_restore 23
	.cfi_restore 24
	.cfi_restore 19
	.cfi_restore 20
	.cfi_def_cfa_offset 0
	ret
.L100:
	ret
	.cfi_endproc
.LFE10675:
	.size	_ZNSt8_Rb_treeIPN8opendnp317IScheduleCallbackES2_St9_IdentityIS2_ESt4lessIS2_ESaIS2_EE8_M_eraseEPSt13_Rb_tree_nodeIS2_E.isra.0, .-_ZNSt8_Rb_treeIPN8opendnp317IScheduleCallbackES2_St9_IdentityIS2_ESt4lessIS2_ESaIS2_EE8_M_eraseEPSt13_Rb_tree_nodeIS2_E.isra.0
	.section	.rodata._ZNK4asio6detail15system_category7messageB5cxx11Ei.str1.8,"aMS",@progbits,1
	.align	3
.LC4:
	.string	"Operation aborted."
	.align	3
.LC5:
	.string	"basic_string::_M_construct null not valid"
	.section	.text._ZNK4asio6detail15system_category7messageB5cxx11Ei,"axG",@progbits,_ZNK4asio6detail15system_category7messageB5cxx11Ei,comdat
	.align	2
	.p2align 4,,11
	.weak	_ZNK4asio6detail15system_category7messageB5cxx11Ei
	.type	_ZNK4asio6detail15system_category7messageB5cxx11Ei, %function
_ZNK4asio6detail15system_category7messageB5cxx11Ei:
.LFB2875:
	.cfi_startproc
	stp	x29, x30, [sp, -320]!
	.cfi_def_cfa_offset 320
	.cfi_offset 29, -320
	.cfi_offset 30, -312
	adrp	x0, :got:__stack_chk_guard
	mov	x29, sp
	ldr	x2, [x0, #:got_lo12:__stack_chk_guard]
	stp	x19, x20, [sp, 16]
	mov	w0, w1
	stp	x21, x22, [sp, 32]
	.cfi_offset 19, -304
	.cfi_offset 20, -296
	.cfi_offset 21, -288
	.cfi_offset 22, -280
	mov	x19, x8
	add	x21, x8, 16
	ldr	x1, [x2]
	str	x1, [sp, 312]
	mov	x1, 0
	cmp	w0, 125
	beq	.L119
	movi	v0.4s, 0
	add	x3, sp, 72
	add	x1, sp, 56
	mov	x2, 256
	stp	xzr, xzr, [sp, 56]
	stp	q0, q0, [x3]
	stp	q0, q0, [x3, 32]
	stp	q0, q0, [x3, 64]
	stp	q0, q0, [x3, 96]
	stp	q0, q0, [x3, 128]
	stp	q0, q0, [x3, 160]
	stp	q0, q0, [x3, 192]
	str	q0, [x3, 224]
	bl	strerror_r
	mov	x22, x0
	str	x21, [x19]
	cbz	x0, .L107
	bl	strlen
	str	x0, [sp, 48]
	mov	x20, x0
	cmp	x0, 15
	bhi	.L120
	cmp	x0, 1
	bne	.L111
	ldrb	w0, [x22]
	strb	w0, [x19, 16]
.L112:
	str	x20, [x19, 8]
	strb	wzr, [x21, x20]
.L104:
	adrp	x0, :got:__stack_chk_guard
	ldr	x0, [x0, #:got_lo12:__stack_chk_guard]
	ldr	x2, [sp, 312]
	ldr	x1, [x0]
	subs	x2, x2, x1
	mov	x1, 0
	bne	.L121
	mov	x0, x19
	ldp	x19, x20, [sp, 16]
	ldp	x21, x22, [sp, 32]
	ldp	x29, x30, [sp], 320
	.cfi_remember_state
	.cfi_restore 30
	.cfi_restore 29
	.cfi_restore 21
	.cfi_restore 22
	.cfi_restore 19
	.cfi_restore 20
	.cfi_def_cfa_offset 0
	ret
	.p2align 2,,3
.L120:
	.cfi_restore_state
	add	x1, sp, 48
	mov	x0, x19
	mov	x2, 0
	bl	_ZNSt7__cxx1112basic_stringIcSt11char_traitsIcESaIcEE9_M_createERmm
	mov	x21, x0
	str	x0, [x19]
	ldr	x1, [sp, 48]
	str	x1, [x19, 16]
.L110:
	mov	x2, x20
	mov	x0, x21
	mov	x1, x22
	bl	memcpy
	ldr	x21, [x19]
	ldr	x20, [sp, 48]
	b	.L112
	.p2align 2,,3
.L119:
	mov	x3, 18
	str	x21, [x8]
	add	x1, sp, 48
	mov	x2, 0
	mov	x0, x8
	str	x3, [sp, 48]
	bl	_ZNSt7__cxx1112basic_stringIcSt11char_traitsIcESaIcEE9_M_createERmm
	str	x0, [x19]
	adrp	x1, .LC4
	add	x1, x1, :lo12:.LC4
	ldr	x2, [sp, 48]
	str	x2, [x19, 16]
	ldp	x2, x3, [x1]
	stp	x2, x3, [x0]
	ldrh	w1, [x1, 16]
	strh	w1, [x0, 16]
	ldr	x1, [x19]
	ldr	x0, [sp, 48]
	str	x0, [x19, 8]
	strb	wzr, [x1, x0]
	b	.L104
	.p2align 2,,3
.L111:
	cbz	x0, .L112
	b	.L110
.L107:
	adrp	x0, .LC5
	add	x0, x0, :lo12:.LC5
	bl	_ZSt19__throw_logic_errorPKc
.L121:
	bl	__stack_chk_fail
	.cfi_endproc
.LFE2875:
	.size	_ZNK4asio6detail15system_category7messageB5cxx11Ei, .-_ZNK4asio6detail15system_category7messageB5cxx11Ei
	.section	.rodata._ZNK4asio5error6detail17addrinfo_category7messageB5cxx11Ei.str1.8,"aMS",@progbits,1
	.align	3
.LC6:
	.string	"Service not found"
	.align	3
.LC7:
	.string	"Socket type not supported"
	.align	3
.LC8:
	.string	"asio.addrinfo error"
	.section	.text._ZNK4asio5error6detail17addrinfo_category7messageB5cxx11Ei,"axG",@progbits,_ZNK4asio5error6detail17addrinfo_category7messageB5cxx11Ei,comdat
	.align	2
	.p2align 4,,11
	.weak	_ZNK4asio5error6detail17addrinfo_category7messageB5cxx11Ei
	.type	_ZNK4asio5error6detail17addrinfo_category7messageB5cxx11Ei, %function
_ZNK4asio5error6detail17addrinfo_category7messageB5cxx11Ei:
.LFB2902:
	.cfi_startproc
	stp	x29, x30, [sp, -48]!
	.cfi_def_cfa_offset 48
	.cfi_offset 29, -48
	.cfi_offset 30, -40
	adrp	x0, :got:__stack_chk_guard
	add	x2, x8, 16
	mov	x29, sp
	ldr	x0, [x0, #:got_lo12:__stack_chk_guard]
	str	x19, [sp, 16]
	.cfi_offset 19, -32
	mov	x19, x8
	ldr	x3, [x0]
	str	x3, [sp, 40]
	mov	x3, 0
	str	x2, [x8]
	cmn	w1, #8
	beq	.L128
	cmn	w1, #7
	beq	.L129
	mov	x3, 19
	add	x1, sp, 32
	mov	x2, 0
	mov	x0, x8
	str	x3, [sp, 32]
	bl	_ZNSt7__cxx1112basic_stringIcSt11char_traitsIcESaIcEE9_M_createERmm
	adrp	x1, .LC8
	add	x1, x1, :lo12:.LC8
	ldr	x2, [sp, 32]
	str	x0, [x19]
	str	x2, [x19, 16]
	ldp	x2, x3, [x1]
	stp	x2, x3, [x0]
	ldr	w1, [x1, 15]
	str	w1, [x0, 15]
	ldr	x1, [x19]
	ldr	x0, [sp, 32]
	str	x0, [x19, 8]
	strb	wzr, [x1, x0]
.L122:
	adrp	x0, :got:__stack_chk_guard
	ldr	x0, [x0, #:got_lo12:__stack_chk_guard]
	ldr	x2, [sp, 40]
	ldr	x1, [x0]
	subs	x2, x2, x1
	mov	x1, 0
	bne	.L130
	mov	x0, x19
	ldr	x19, [sp, 16]
	ldp	x29, x30, [sp], 48
	.cfi_remember_state
	.cfi_restore 30
	.cfi_restore 29
	.cfi_restore 19
	.cfi_def_cfa_offset 0
	ret
	.p2align 2,,3
.L129:
	.cfi_restore_state
	mov	x3, 25
	add	x1, sp, 32
	mov	x2, 0
	mov	x0, x8
	str	x3, [sp, 32]
	bl	_ZNSt7__cxx1112basic_stringIcSt11char_traitsIcESaIcEE9_M_createERmm
	adrp	x1, .LC7
	add	x1, x1, :lo12:.LC7
	ldr	x2, [sp, 32]
	str	x0, [x19]
	ldr	q1, [x1]
	str	x2, [x19, 16]
	ldr	q0, [x1, 9]
	str	q1, [x0]
	str	q0, [x0, 9]
	ldr	x1, [x19]
	ldr	x0, [sp, 32]
	str	x0, [x19, 8]
	strb	wzr, [x1, x0]
	b	.L122
	.p2align 2,,3
.L128:
	mov	x3, 17
	add	x1, sp, 32
	mov	x2, 0
	mov	x0, x8
	str	x3, [sp, 32]
	bl	_ZNSt7__cxx1112basic_stringIcSt11char_traitsIcESaIcEE9_M_createERmm
	adrp	x1, .LC6
	add	x1, x1, :lo12:.LC6
	ldr	x2, [sp, 32]
	str	x0, [x19]
	str	x2, [x19, 16]
	ldp	x2, x3, [x1]
	stp	x2, x3, [x0]
	ldrb	w1, [x1, 16]
	strb	w1, [x0, 16]
	ldr	x1, [x19]
	ldr	x0, [sp, 32]
	str	x0, [x19, 8]
	strb	wzr, [x1, x0]
	b	.L122
.L130:
	bl	__stack_chk_fail
	.cfi_endproc
.LFE2902:
	.size	_ZNK4asio5error6detail17addrinfo_category7messageB5cxx11Ei, .-_ZNK4asio5error6detail17addrinfo_category7messageB5cxx11Ei
	.section	.rodata._ZNK4asio5error6detail13misc_category7messageB5cxx11Ei.str1.8,"aMS",@progbits,1
	.align	3
.LC9:
	.string	"Already open"
	.align	3
.LC10:
	.string	"End of file"
	.align	3
.LC11:
	.string	"Element not found"
	.align	3
.LC12:
	.string	"The descriptor does not fit into the select call's fd_set"
	.align	3
.LC13:
	.string	"asio.misc error"
	.section	.text._ZNK4asio5error6detail13misc_category7messageB5cxx11Ei,"axG",@progbits,_ZNK4asio5error6detail13misc_category7messageB5cxx11Ei,comdat
	.align	2
	.p2align 4,,11
	.weak	_ZNK4asio5error6detail13misc_category7messageB5cxx11Ei
	.type	_ZNK4asio5error6detail13misc_category7messageB5cxx11Ei, %function
_ZNK4asio5error6detail13misc_category7messageB5cxx11Ei:
.LFB2908:
	.cfi_startproc
	stp	x29, x30, [sp, -48]!
	.cfi_def_cfa_offset 48
	.cfi_offset 29, -48
	.cfi_offset 30, -40
	adrp	x0, :got:__stack_chk_guard
	add	x2, x8, 16
	mov	x29, sp
	ldr	x0, [x0, #:got_lo12:__stack_chk_guard]
	str	x19, [sp, 16]
	.cfi_offset 19, -32
	mov	x19, x8
	ldr	x3, [x0]
	str	x3, [sp, 40]
	mov	x3, 0
	cmp	w1, 1
	beq	.L139
	cmp	w1, 2
	beq	.L140
	cmp	w1, 3
	beq	.L141
	cmp	w1, 4
	beq	.L142
	adrp	x0, .LC13
	add	x0, x0, :lo12:.LC13
	str	x2, [x8]
	mov	x1, 15
	ldr	x3, [x0]
	str	x3, [x8, 16]
	ldr	x0, [x0, 7]
	str	x0, [x2, 7]
	str	x1, [x8, 8]
	strb	wzr, [x8, 31]
.L131:
	adrp	x0, :got:__stack_chk_guard
	ldr	x0, [x0, #:got_lo12:__stack_chk_guard]
	ldr	x2, [sp, 40]
	ldr	x1, [x0]
	subs	x2, x2, x1
	mov	x1, 0
	bne	.L143
	mov	x0, x19
	ldr	x19, [sp, 16]
	ldp	x29, x30, [sp], 48
	.cfi_remember_state
	.cfi_restore 30
	.cfi_restore 29
	.cfi_restore 19
	.cfi_def_cfa_offset 0
	ret
	.p2align 2,,3
.L139:
	.cfi_restore_state
	adrp	x0, .LC9
	add	x0, x0, :lo12:.LC9
	str	x2, [x8]
	mov	x1, 12
	ldr	x3, [x0]
	str	x3, [x8, 16]
	ldr	w0, [x0, 8]
	str	w0, [x2, 8]
	str	x1, [x8, 8]
	strb	wzr, [x8, 28]
	b	.L131
	.p2align 2,,3
.L142:
	mov	x3, 57
	str	x2, [x8]
	add	x1, sp, 32
	mov	x2, 0
	mov	x0, x8
	str	x3, [sp, 32]
	bl	_ZNSt7__cxx1112basic_stringIcSt11char_traitsIcESaIcEE9_M_createERmm
	str	x0, [x19]
	adrp	x1, .LC12
	add	x1, x1, :lo12:.LC12
	ldr	x2, [sp, 32]
	str	x2, [x19, 16]
	ldr	q3, [x1, 32]
	ldp	q1, q2, [x1]
	ldr	q0, [x1, 41]
	str	q3, [x0, 32]
	stp	q1, q2, [x0]
	str	q0, [x0, 41]
	ldr	x1, [x19]
	ldr	x0, [sp, 32]
	str	x0, [x19, 8]
	strb	wzr, [x1, x0]
	b	.L131
	.p2align 2,,3
.L140:
	adrp	x0, .LC10
	add	x0, x0, :lo12:.LC10
	str	x2, [x8]
	mov	x1, 11
	ldr	x3, [x0]
	str	x3, [x8, 16]
	ldr	w0, [x0, 7]
	str	w0, [x2, 7]
	str	x1, [x8, 8]
	strb	wzr, [x8, 27]
	b	.L131
	.p2align 2,,3
.L141:
	mov	x3, 17
	str	x2, [x8]
	add	x1, sp, 32
	mov	x2, 0
	mov	x0, x8
	str	x3, [sp, 32]
	bl	_ZNSt7__cxx1112basic_stringIcSt11char_traitsIcESaIcEE9_M_createERmm
	str	x0, [x19]
	adrp	x1, .LC11
	add	x1, x1, :lo12:.LC11
	ldr	x2, [sp, 32]
	str	x2, [x19, 16]
	ldp	x2, x3, [x1]
	stp	x2, x3, [x0]
	ldrb	w1, [x1, 16]
	strb	w1, [x0, 16]
	ldr	x1, [x19]
	ldr	x0, [sp, 32]
	str	x0, [x19, 8]
	strb	wzr, [x1, x0]
	b	.L131
.L143:
	bl	__stack_chk_fail
	.cfi_endproc
.LFE2908:
	.size	_ZNK4asio5error6detail13misc_category7messageB5cxx11Ei, .-_ZNK4asio5error6detail13misc_category7messageB5cxx11Ei
	.section	.rodata._ZNK4asio5error6detail14netdb_category7messageB5cxx11Ei.str1.8,"aMS",@progbits,1
	.align	3
.LC14:
	.string	"Host not found (authoritative)"
	.align	3
.LC15:
	.string	"Host not found (non-authoritative), try again later"
	.align	3
.LC16:
	.string	"The query is valid, but it does not have associated data"
	.align	3
.LC17:
	.string	"A non-recoverable error occurred during database lookup"
	.align	3
.LC18:
	.string	"asio.netdb error"
	.section	.text._ZNK4asio5error6detail14netdb_category7messageB5cxx11Ei,"axG",@progbits,_ZNK4asio5error6detail14netdb_category7messageB5cxx11Ei,comdat
	.align	2
	.p2align 4,,11
	.weak	_ZNK4asio5error6detail14netdb_category7messageB5cxx11Ei
	.type	_ZNK4asio5error6detail14netdb_category7messageB5cxx11Ei, %function
_ZNK4asio5error6detail14netdb_category7messageB5cxx11Ei:
.LFB2896:
	.cfi_startproc
	stp	x29, x30, [sp, -48]!
	.cfi_def_cfa_offset 48
	.cfi_offset 29, -48
	.cfi_offset 30, -40
	adrp	x0, :got:__stack_chk_guard
	add	x2, x8, 16
	mov	x29, sp
	ldr	x0, [x0, #:got_lo12:__stack_chk_guard]
	str	x19, [sp, 16]
	.cfi_offset 19, -32
	mov	x19, x8
	ldr	x3, [x0]
	str	x3, [sp, 40]
	mov	x3, 0
	str	x2, [x8]
	cmp	w1, 1
	beq	.L153
	cmp	w1, 2
	beq	.L154
	cmp	w1, 4
	beq	.L155
	cmp	w1, 3
	beq	.L156
	mov	x3, 16
	add	x1, sp, 32
	mov	x2, 0
	mov	x0, x8
	str	x3, [sp, 32]
	bl	_ZNSt7__cxx1112basic_stringIcSt11char_traitsIcESaIcEE9_M_createERmm
	adrp	x1, .LC18
	add	x1, x1, :lo12:.LC18
	ldr	x2, [sp, 32]
	str	x0, [x19]
	str	x2, [x19, 16]
	ldp	x2, x3, [x1]
	stp	x2, x3, [x0]
	ldr	x1, [x19]
	ldr	x0, [sp, 32]
	str	x0, [x19, 8]
	strb	wzr, [x1, x0]
.L144:
	adrp	x0, :got:__stack_chk_guard
	ldr	x0, [x0, #:got_lo12:__stack_chk_guard]
	ldr	x2, [sp, 40]
	ldr	x1, [x0]
	subs	x2, x2, x1
	mov	x1, 0
	bne	.L157
	mov	x0, x19
	ldr	x19, [sp, 16]
	ldp	x29, x30, [sp], 48
	.cfi_remember_state
	.cfi_restore 30
	.cfi_restore 29
	.cfi_restore 19
	.cfi_def_cfa_offset 0
	ret
	.p2align 2,,3
.L153:
	.cfi_restore_state
	mov	x3, 30
	add	x1, sp, 32
	mov	x2, 0
	mov	x0, x8
	str	x3, [sp, 32]
	bl	_ZNSt7__cxx1112basic_stringIcSt11char_traitsIcESaIcEE9_M_createERmm
	adrp	x1, .LC14
	add	x1, x1, :lo12:.LC14
	ldr	x2, [sp, 32]
	str	x0, [x19]
	ldr	q1, [x1]
	str	x2, [x19, 16]
	ldr	q0, [x1, 14]
	str	q1, [x0]
	str	q0, [x0, 14]
	ldr	x1, [x19]
	ldr	x0, [sp, 32]
	str	x0, [x19, 8]
	strb	wzr, [x1, x0]
	b	.L144
	.p2align 2,,3
.L156:
	mov	x3, 55
	add	x1, sp, 32
	mov	x2, 0
	mov	x0, x8
	str	x3, [sp, 32]
	bl	_ZNSt7__cxx1112basic_stringIcSt11char_traitsIcESaIcEE9_M_createERmm
	adrp	x1, .LC17
	add	x1, x1, :lo12:.LC17
	ldr	x2, [sp, 32]
	str	x0, [x19]
	ldr	q2, [x1, 32]
	str	x2, [x19, 16]
	ldp	q0, q1, [x1]
	str	q2, [x0, 32]
	ldr	x1, [x1, 47]
	str	x1, [x0, 47]
.L152:
	stp	q0, q1, [x0]
	ldr	x1, [x19]
	ldr	x0, [sp, 32]
	str	x0, [x19, 8]
	strb	wzr, [x1, x0]
	b	.L144
	.p2align 2,,3
.L154:
	mov	x3, 51
	add	x1, sp, 32
	mov	x2, 0
	mov	x0, x8
	str	x3, [sp, 32]
	bl	_ZNSt7__cxx1112basic_stringIcSt11char_traitsIcESaIcEE9_M_createERmm
	adrp	x1, .LC15
	add	x1, x1, :lo12:.LC15
	ldr	x2, [sp, 32]
	str	x0, [x19]
	ldr	q2, [x1, 32]
	str	x2, [x19, 16]
	ldp	q0, q1, [x1]
	ldr	w1, [x1, 47]
	str	q2, [x0, 32]
	str	w1, [x0, 47]
	b	.L152
	.p2align 2,,3
.L155:
	mov	x3, 56
	add	x1, sp, 32
	mov	x2, 0
	mov	x0, x8
	str	x3, [sp, 32]
	bl	_ZNSt7__cxx1112basic_stringIcSt11char_traitsIcESaIcEE9_M_createERmm
	adrp	x1, .LC16
	add	x1, x1, :lo12:.LC16
	ldr	x2, [sp, 32]
	str	x0, [x19]
	ldp	q1, q2, [x1]
	str	x2, [x19, 16]
	ldr	q0, [x1, 32]
	ldr	x1, [x1, 48]
	str	x1, [x0, 48]
	stp	q1, q2, [x0]
	str	q0, [x0, 32]
	ldr	x1, [x19]
	ldr	x0, [sp, 32]
	str	x0, [x19, 8]
	strb	wzr, [x1, x0]
	b	.L144
.L157:
	bl	__stack_chk_fail
	.cfi_endproc
.LFE2896:
	.size	_ZNK4asio5error6detail14netdb_category7messageB5cxx11Ei, .-_ZNK4asio5error6detail14netdb_category7messageB5cxx11Ei
	.global	__aarch64_ldadd4_acq_rel
	.section	.text.unlikely,"ax",@progbits
	.align	2
	.type	_ZZZN8asiodnp318TCPClientIOHandler12StartConnectERKSt10shared_ptrIN7asiopal9TCPClientEERKN7openpal12TimeDurationEENKUlRKS1_INS2_8ExecutorEEN4asio19basic_stream_socketINSF_2ip3tcpENSF_21stream_socket_serviceISI_EEEERKSt10error_codeE_clESE_SL_SO_ENUlvE_D2Ev, %function
_ZZZN8asiodnp318TCPClientIOHandler12StartConnectERKSt10shared_ptrIN7asiopal9TCPClientEERKN7openpal12TimeDurationEENKUlRKS1_INS2_8ExecutorEEN4asio19basic_stream_socketINSF_2ip3tcpENSF_21stream_socket_serviceISI_EEEERKSt10error_codeE_clESE_SL_SO_ENUlvE_D2Ev:
.LFB7759:
	.cfi_startproc
	stp	x29, x30, [sp, -48]!
	.cfi_def_cfa_offset 48
	.cfi_offset 29, -48
	.cfi_offset 30, -40
	mov	x29, sp
	stp	x19, x20, [sp, 16]
	.cfi_offset 19, -32
	.cfi_offset 20, -24
	mov	x20, x0
	ldr	x19, [x0, 32]
	str	x21, [sp, 32]
	.cfi_offset 21, -16
	cbz	x19, .L160
	adrp	x0, :got:__libc_single_threaded
	mov	x21, x0
	ldr	x0, [x0, #:got_lo12:__libc_single_threaded]
	ldrb	w0, [x0]
	cbz	w0, .L161
	ldr	w0, [x19, 8]
	sub	w1, w0, #1
	str	w1, [x19, 8]
	b	.L162
.L161:
	add	x1, x19, 8
	mov	w0, -1
	bl	__aarch64_ldadd4_acq_rel
.L162:
	cmp	w0, 1
	bne	.L160
	ldr	x1, [x19]
	mov	x0, x19
	ldr	x1, [x1, 16]
	blr	x1
	ldr	x21, [x21, #:got_lo12:__libc_single_threaded]
	ldrb	w0, [x21]
	cbz	w0, .L164
	ldr	w0, [x19, 12]
	sub	w1, w0, #1
	str	w1, [x19, 12]
	b	.L165
.L164:
	add	x1, x19, 12
	mov	w0, -1
	bl	__aarch64_ldadd4_acq_rel
.L165:
	cmp	w0, 1
	bne	.L160
	ldr	x1, [x19]
	mov	x0, x19
	ldr	x1, [x1, 24]
	blr	x1
.L160:
	ldr	x19, [x20, 8]
	cbz	x19, .L158
	adrp	x0, :got:__libc_single_threaded
	mov	x20, x0
	ldr	x0, [x0, #:got_lo12:__libc_single_threaded]
	ldrb	w0, [x0]
	cbz	w0, .L168
	ldr	w0, [x19, 8]
	sub	w1, w0, #1
	str	w1, [x19, 8]
	b	.L169
.L168:
	add	x1, x19, 8
	mov	w0, -1
	bl	__aarch64_ldadd4_acq_rel
.L169:
	cmp	w0, 1
	bne	.L158
	ldr	x1, [x19]
	mov	x0, x19
	ldr	x1, [x1, 16]
	blr	x1
	ldr	x20, [x20, #:got_lo12:__libc_single_threaded]
	ldrb	w0, [x20]
	cbz	w0, .L171
	ldr	w0, [x19, 12]
	sub	w1, w0, #1
	str	w1, [x19, 12]
	b	.L172
.L171:
	add	x1, x19, 12
	mov	w0, -1
	bl	__aarch64_ldadd4_acq_rel
.L172:
	cmp	w0, 1
	bne	.L158
	ldr	x1, [x19]
	mov	x0, x19
	ldp	x19, x20, [sp, 16]
	ldr	x21, [sp, 32]
	ldp	x29, x30, [sp], 48
	.cfi_remember_state
	.cfi_restore 30
	.cfi_restore 29
	.cfi_restore 21
	.cfi_restore 19
	.cfi_restore 20
	.cfi_def_cfa_offset 0
	ldr	x1, [x1, 24]
	mov	x16, x1
	br	x16
.L158:
	.cfi_restore_state
	ldp	x19, x20, [sp, 16]
	ldr	x21, [sp, 32]
	ldp	x29, x30, [sp], 48
	.cfi_restore 30
	.cfi_restore 29
	.cfi_restore 21
	.cfi_restore 19
	.cfi_restore 20
	.cfi_def_cfa_offset 0
	ret
	.cfi_endproc
.LFE7759:
	.size	_ZZZN8asiodnp318TCPClientIOHandler12StartConnectERKSt10shared_ptrIN7asiopal9TCPClientEERKN7openpal12TimeDurationEENKUlRKS1_INS2_8ExecutorEEN4asio19basic_stream_socketINSF_2ip3tcpENSF_21stream_socket_serviceISI_EEEERKSt10error_codeE_clESE_SL_SO_ENUlvE_D2Ev, .-_ZZZN8asiodnp318TCPClientIOHandler12StartConnectERKSt10shared_ptrIN7asiopal9TCPClientEERKN7openpal12TimeDurationEENKUlRKS1_INS2_8ExecutorEEN4asio19basic_stream_socketINSF_2ip3tcpENSF_21stream_socket_serviceISI_EEEERKSt10error_codeE_clESE_SL_SO_ENUlvE_D2Ev
	.set	_ZZZN8asiodnp318TCPClientIOHandler12StartConnectERKSt10shared_ptrIN7asiopal9TCPClientEERKN7openpal12TimeDurationEENKUlRKS1_INS2_8ExecutorEEN4asio19basic_stream_socketINSF_2ip3tcpENSF_21stream_socket_serviceISI_EEEERKSt10error_codeE_clESE_SL_SO_ENUlvE_D1Ev,_ZZZN8asiodnp318TCPClientIOHandler12StartConnectERKSt10shared_ptrIN7asiopal9TCPClientEERKN7openpal12TimeDurationEENKUlRKS1_INS2_8ExecutorEEN4asio19basic_stream_socketINSF_2ip3tcpENSF_21stream_socket_serviceISI_EEEERKSt10error_codeE_clESE_SL_SO_ENUlvE_D2Ev
	.text
	.align	2
	.p2align 4,,11
	.type	_ZNSt17_Function_handlerIFvRKSt10shared_ptrIN7asiopal8ExecutorEEN4asio19basic_stream_socketINS6_2ip3tcpENS6_21stream_socket_serviceIS9_EEEERKSt10error_codeEZN8asiodnp318TCPClientIOHandler12StartConnectERKS0_INS1_9TCPClientEERKN7openpal12TimeDurationEEUlS5_SC_SF_E_E10_M_managerERSt9_Any_dataRKST_St18_Manager_operation, %function
_ZNSt17_Function_handlerIFvRKSt10shared_ptrIN7asiopal8ExecutorEEN4asio19basic_stream_socketINS6_2ip3tcpENS6_21stream_socket_serviceIS9_EEEERKSt10error_codeEZN8asiodnp318TCPClientIOHandler12StartConnectERKS0_INS1_9TCPClientEERKN7openpal12TimeDurationEEUlS5_SC_SF_E_E10_M_managerERSt9_Any_dataRKST_St18_Manager_operation:
.LFB9182:
	.cfi_startproc
	stp	x29, x30, [sp, -48]!
	.cfi_def_cfa_offset 48
	.cfi_offset 29, -48
	.cfi_offset 30, -40
	mov	x29, sp
	stp	x19, x20, [sp, 16]
	.cfi_offset 19, -32
	.cfi_offset 20, -24
	mov	x19, x0
	cbz	w2, .L175
	cmp	w2, 1
	beq	.L176
	cmp	w2, 2
	beq	.L179
	cmp	w2, 3
	bne	.L178
	ldr	x19, [x0]
	cbz	x19, .L178
	ldr	x20, [x19, 40]
	str	x21, [sp, 32]
	.cfi_offset 21, -16
	cbz	x20, .L186
	adrp	x21, :got:__libc_single_threaded
	ldr	x0, [x21, #:got_lo12:__libc_single_threaded]
	ldrb	w0, [x0]
	cbz	w0, .L187
	ldr	w0, [x20, 8]
	sub	w1, w0, #1
	str	w1, [x20, 8]
.L188:
	cmp	w0, 1
	beq	.L210
.L186:
	ldr	x20, [x19, 8]
	cbz	x20, .L193
	adrp	x21, :got:__libc_single_threaded
	ldr	x0, [x21, #:got_lo12:__libc_single_threaded]
	ldrb	w0, [x0]
	cbz	w0, .L194
	ldr	w0, [x20, 8]
	sub	w1, w0, #1
	str	w1, [x20, 8]
.L195:
	cmp	w0, 1
	beq	.L211
.L193:
	mov	x0, x19
	mov	x1, 48
	bl	_ZdlPvm
	ldr	x21, [sp, 32]
	.cfi_restore 21
.L178:
	mov	w0, 0
	ldp	x19, x20, [sp, 16]
	ldp	x29, x30, [sp], 48
	.cfi_remember_state
	.cfi_restore 30
	.cfi_restore 29
	.cfi_restore 19
	.cfi_restore 20
	.cfi_def_cfa_offset 0
	ret
	.p2align 2,,3
.L175:
	.cfi_restore_state
	adrp	x0, .LANCHOR0
	add	x0, x0, :lo12:.LANCHOR0
	str	x0, [x19]
	mov	w0, 0
	ldp	x19, x20, [sp, 16]
	ldp	x29, x30, [sp], 48
	.cfi_remember_state
	.cfi_restore 30
	.cfi_restore 29
	.cfi_restore 19
	.cfi_restore 20
	.cfi_def_cfa_offset 0
	ret
	.p2align 2,,3
.L176:
	.cfi_restore_state
	ldr	x0, [x1]
	str	x0, [x19]
	mov	w0, 0
	ldp	x19, x20, [sp, 16]
	ldp	x29, x30, [sp], 48
	.cfi_remember_state
	.cfi_restore 30
	.cfi_restore 29
	.cfi_restore 19
	.cfi_restore 20
	.cfi_def_cfa_offset 0
	ret
	.p2align 2,,3
.L179:
	.cfi_restore_state
	str	x21, [sp, 32]
	.cfi_offset 21, -16
	mov	x0, 48
	ldr	x21, [x1]
	bl	_Znwm
	mov	x20, x0
	ldr	q0, [x21]
	umov	x1, v0.d[1]
	str	q0, [x0]
	cbz	x1, .L181
	adrp	x0, :got:__libc_single_threaded
	ldr	x0, [x0, #:got_lo12:__libc_single_threaded]
	ldrb	w0, [x0]
	cbz	w0, .L182
	ldr	w0, [x1, 8]
	add	w0, w0, 1
	str	w0, [x1, 8]
.L181:
	ldr	x0, [x21, 16]
	str	x0, [x20, 16]
	ldr	x0, [x21, 24]
	str	x0, [x20, 24]
	ldr	q0, [x21, 32]
	umov	x1, v0.d[1]
	str	q0, [x20, 32]
	cbz	x1, .L183
	adrp	x0, :got:__libc_single_threaded
	ldr	x0, [x0, #:got_lo12:__libc_single_threaded]
	ldrb	w0, [x0]
	cbz	w0, .L184
	ldr	w0, [x1, 8]
	add	w0, w0, 1
	str	w0, [x1, 8]
.L183:
	ldr	x21, [sp, 32]
	.cfi_remember_state
	.cfi_restore 21
	str	x20, [x19]
	b	.L178
	.p2align 2,,3
.L184:
	.cfi_restore_state
	add	x1, x1, 8
	mov	w0, 1
	bl	__aarch64_ldadd4_acq_rel
	b	.L183
	.p2align 2,,3
.L182:
	add	x1, x1, 8
	mov	w0, 1
	bl	__aarch64_ldadd4_acq_rel
	b	.L181
.L211:
	ldr	x1, [x20]
	mov	x0, x20
	ldr	x1, [x1, 16]
	blr	x1
	ldr	x21, [x21, #:got_lo12:__libc_single_threaded]
	ldrb	w0, [x21]
	cbz	w0, .L197
	ldr	w0, [x20, 12]
	sub	w1, w0, #1
	str	w1, [x20, 12]
.L198:
	cmp	w0, 1
	bne	.L193
	ldr	x1, [x20]
	mov	x0, x20
	ldr	x1, [x1, 24]
	blr	x1
	b	.L193
.L210:
	ldr	x1, [x20]
	mov	x0, x20
	ldr	x1, [x1, 16]
	blr	x1
	ldr	x21, [x21, #:got_lo12:__libc_single_threaded]
	ldrb	w0, [x21]
	cbz	w0, .L190
	ldr	w0, [x20, 12]
	sub	w1, w0, #1
	str	w1, [x20, 12]
.L191:
	cmp	w0, 1
	bne	.L186
	ldr	x1, [x20]
	mov	x0, x20
	ldr	x1, [x1, 24]
	blr	x1
	b	.L186
.L194:
	add	x1, x20, 8
	mov	w0, -1
	bl	__aarch64_ldadd4_acq_rel
	b	.L195
.L187:
	add	x1, x20, 8
	mov	w0, -1
	bl	__aarch64_ldadd4_acq_rel
	b	.L188
.L190:
	add	x1, x20, 12
	mov	w0, -1
	bl	__aarch64_ldadd4_acq_rel
	b	.L191
.L197:
	add	x1, x20, 12
	mov	w0, -1
	bl	__aarch64_ldadd4_acq_rel
	b	.L198
	.cfi_endproc
.LFE9182:
	.size	_ZNSt17_Function_handlerIFvRKSt10shared_ptrIN7asiopal8ExecutorEEN4asio19basic_stream_socketINS6_2ip3tcpENS6_21stream_socket_serviceIS9_EEEERKSt10error_codeEZN8asiodnp318TCPClientIOHandler12StartConnectERKS0_INS1_9TCPClientEERKN7openpal12TimeDurationEEUlS5_SC_SF_E_E10_M_managerERSt9_Any_dataRKST_St18_Manager_operation, .-_ZNSt17_Function_handlerIFvRKSt10shared_ptrIN7asiopal8ExecutorEEN4asio19basic_stream_socketINS6_2ip3tcpENS6_21stream_socket_serviceIS9_EEEERKSt10error_codeEZN8asiodnp318TCPClientIOHandler12StartConnectERKS0_INS1_9TCPClientEERKN7openpal12TimeDurationEEUlS5_SC_SF_E_E10_M_managerERSt9_Any_dataRKST_St18_Manager_operation
	.align	2
	.p2align 4,,11
	.type	_ZNSt17_Function_handlerIFvvEZN7openpal8TimerRef5StartIZZN8asiodnp318TCPClientIOHandler12StartConnectERKSt10shared_ptrIN7asiopal9TCPClientEERKNS1_12TimeDurationEENKUlRKS6_INS7_8ExecutorEEN4asio19basic_stream_socketINSJ_2ip3tcpENSJ_21stream_socket_serviceISM_EEEERKSt10error_codeE_clESI_SP_SS_EUlvE_EEbSE_RKT_EUlvE_E10_M_managerERSt9_Any_dataRKS10_St18_Manager_operation, %function
_ZNSt17_Function_handlerIFvvEZN7openpal8TimerRef5StartIZZN8asiodnp318TCPClientIOHandler12StartConnectERKSt10shared_ptrIN7asiopal9TCPClientEERKNS1_12TimeDurationEENKUlRKS6_INS7_8ExecutorEEN4asio19basic_stream_socketINSJ_2ip3tcpENSJ_21stream_socket_serviceISM_EEEERKSt10error_codeE_clESI_SP_SS_EUlvE_EEbSE_RKT_EUlvE_E10_M_managerERSt9_Any_dataRKS10_St18_Manager_operation:
.LFB9509:
	.cfi_startproc
	stp	x29, x30, [sp, -48]!
	.cfi_def_cfa_offset 48
	.cfi_offset 29, -48
	.cfi_offset 30, -40
	mov	x29, sp
	stp	x19, x20, [sp, 16]
	.cfi_offset 19, -32
	.cfi_offset 20, -24
	mov	x19, x0
	cbz	w2, .L213
	cmp	w2, 1
	beq	.L214
	cmp	w2, 2
	beq	.L217
	cmp	w2, 3
	bne	.L216
	ldr	x19, [x0]
	cbz	x19, .L216
	ldr	x20, [x19, 40]
	stp	x21, x22, [sp, 32]
	.cfi_offset 22, -8
	.cfi_offset 21, -16
	cbz	x20, .L224
	adrp	x21, :got:__libc_single_threaded
	ldr	x0, [x21, #:got_lo12:__libc_single_threaded]
	ldrb	w0, [x0]
	cbz	w0, .L225
	ldr	w0, [x20, 8]
	sub	w1, w0, #1
	str	w1, [x20, 8]
.L226:
	cmp	w0, 1
	beq	.L248
.L224:
	ldr	x20, [x19, 16]
	cbz	x20, .L231
	adrp	x21, :got:__libc_single_threaded
	ldr	x0, [x21, #:got_lo12:__libc_single_threaded]
	ldrb	w0, [x0]
	cbz	w0, .L232
	ldr	w0, [x20, 8]
	sub	w1, w0, #1
	str	w1, [x20, 8]
.L233:
	cmp	w0, 1
	beq	.L249
.L231:
	mov	x0, x19
	mov	x1, 56
	bl	_ZdlPvm
	ldp	x21, x22, [sp, 32]
	.cfi_restore 22
	.cfi_restore 21
.L216:
	mov	w0, 0
	ldp	x19, x20, [sp, 16]
	ldp	x29, x30, [sp], 48
	.cfi_remember_state
	.cfi_restore 30
	.cfi_restore 29
	.cfi_restore 19
	.cfi_restore 20
	.cfi_def_cfa_offset 0
	ret
	.p2align 2,,3
.L213:
	.cfi_restore_state
	adrp	x0, .LANCHOR0
	add	x0, x0, :lo12:.LANCHOR0
	add	x0, x0, 16
	str	x0, [x19]
	mov	w0, 0
	ldp	x19, x20, [sp, 16]
	ldp	x29, x30, [sp], 48
	.cfi_remember_state
	.cfi_restore 30
	.cfi_restore 29
	.cfi_restore 19
	.cfi_restore 20
	.cfi_def_cfa_offset 0
	ret
	.p2align 2,,3
.L214:
	.cfi_restore_state
	ldr	x0, [x1]
	str	x0, [x19]
	mov	w0, 0
	ldp	x19, x20, [sp, 16]
	ldp	x29, x30, [sp], 48
	.cfi_remember_state
	.cfi_restore 30
	.cfi_restore 29
	.cfi_restore 19
	.cfi_restore 20
	.cfi_def_cfa_offset 0
	ret
	.p2align 2,,3
.L217:
	.cfi_restore_state
	stp	x21, x22, [sp, 32]
	.cfi_offset 22, -8
	.cfi_offset 21, -16
	mov	x0, 56
	ldr	x21, [x1]
	bl	_Znwm
	mov	x20, x0
	ldr	x0, [x21]
	ldr	x1, [x21, 16]
	str	x0, [x20]
	ldr	x0, [x21, 8]
	stp	x0, x1, [x20, 8]
	cbz	x1, .L219
	adrp	x0, :got:__libc_single_threaded
	ldr	x0, [x0, #:got_lo12:__libc_single_threaded]
	ldrb	w0, [x0]
	cbz	w0, .L220
	ldr	w0, [x1, 8]
	add	w0, w0, 1
	str	w0, [x1, 8]
.L219:
	ldr	x0, [x21, 24]
	str	x0, [x20, 24]
	add	x22, x21, 8
	ldr	q0, [x21, 32]
	umov	x1, v0.d[1]
	str	q0, [x20, 32]
	cbz	x1, .L221
	adrp	x0, :got:__libc_single_threaded
	ldr	x0, [x0, #:got_lo12:__libc_single_threaded]
	ldrb	w0, [x0]
	cbz	w0, .L222
	ldr	w0, [x1, 8]
	add	w0, w0, 1
	str	w0, [x1, 8]
.L221:
	ldr	x0, [x22, 40]
	ldp	x21, x22, [sp, 32]
	.cfi_remember_state
	.cfi_restore 22
	.cfi_restore 21
	str	x20, [x19]
	str	x0, [x20, 48]
	b	.L216
	.p2align 2,,3
.L222:
	.cfi_restore_state
	add	x1, x1, 8
	mov	w0, 1
	bl	__aarch64_ldadd4_acq_rel
	b	.L221
	.p2align 2,,3
.L220:
	add	x1, x1, 8
	mov	w0, 1
	bl	__aarch64_ldadd4_acq_rel
	b	.L219
.L249:
	ldr	x1, [x20]
	mov	x0, x20
	ldr	x1, [x1, 16]
	blr	x1
	ldr	x21, [x21, #:got_lo12:__libc_single_threaded]
	ldrb	w0, [x21]
	cbz	w0, .L235
	ldr	w0, [x20, 12]
	sub	w1, w0, #1
	str	w1, [x20, 12]
.L236:
	cmp	w0, 1
	bne	.L231
	ldr	x1, [x20]
	mov	x0, x20
	ldr	x1, [x1, 24]
	blr	x1
	b	.L231
.L248:
	ldr	x1, [x20]
	mov	x0, x20
	ldr	x1, [x1, 16]
	blr	x1
	ldr	x21, [x21, #:got_lo12:__libc_single_threaded]
	ldrb	w0, [x21]
	cbz	w0, .L228
	ldr	w0, [x20, 12]
	sub	w1, w0, #1
	str	w1, [x20, 12]
.L229:
	cmp	w0, 1
	bne	.L224
	ldr	x1, [x20]
	mov	x0, x20
	ldr	x1, [x1, 24]
	blr	x1
	b	.L224
.L232:
	add	x1, x20, 8
	mov	w0, -1
	bl	__aarch64_ldadd4_acq_rel
	b	.L233
.L225:
	add	x1, x20, 8
	mov	w0, -1
	bl	__aarch64_ldadd4_acq_rel
	b	.L226
.L228:
	add	x1, x20, 12
	mov	w0, -1
	bl	__aarch64_ldadd4_acq_rel
	b	.L229
.L235:
	add	x1, x20, 12
	mov	w0, -1
	bl	__aarch64_ldadd4_acq_rel
	b	.L236
	.cfi_endproc
.LFE9509:
	.size	_ZNSt17_Function_handlerIFvvEZN7openpal8TimerRef5StartIZZN8asiodnp318TCPClientIOHandler12StartConnectERKSt10shared_ptrIN7asiopal9TCPClientEERKNS1_12TimeDurationEENKUlRKS6_INS7_8ExecutorEEN4asio19basic_stream_socketINSJ_2ip3tcpENSJ_21stream_socket_serviceISM_EEEERKSt10error_codeE_clESI_SP_SS_EUlvE_EEbSE_RKT_EUlvE_E10_M_managerERSt9_Any_dataRKS10_St18_Manager_operation, .-_ZNSt17_Function_handlerIFvvEZN7openpal8TimerRef5StartIZZN8asiodnp318TCPClientIOHandler12StartConnectERKSt10shared_ptrIN7asiopal9TCPClientEERKNS1_12TimeDurationEENKUlRKS6_INS7_8ExecutorEEN4asio19basic_stream_socketINSJ_2ip3tcpENSJ_21stream_socket_serviceISM_EEEERKSt10error_codeE_clESI_SP_SS_EUlvE_EEbSE_RKT_EUlvE_E10_M_managerERSt9_Any_dataRKS10_St18_Manager_operation
	.section	.rodata._ZNSt12system_errorC2ESt10error_codePKc.str1.8,"aMS",@progbits,1
	.align	3
.LC19:
	.string	": "
	.section	.text._ZNSt12system_errorC2ESt10error_codePKc,"axG",@progbits,_ZNSt12system_errorC5ESt10error_codePKc,comdat
	.align	2
	.p2align 4,,11
	.weak	_ZNSt12system_errorC2ESt10error_codePKc
	.type	_ZNSt12system_errorC2ESt10error_codePKc, %function
_ZNSt12system_errorC2ESt10error_codePKc:
.LFB2825:
	.cfi_startproc
	.cfi_personality 0x9b,DW.ref.__gxx_personality_v0
	.cfi_lsda 0x1b,.LLSDA2825
	stp	x29, x30, [sp, -176]!
	.cfi_def_cfa_offset 176
	.cfi_offset 29, -176
	.cfi_offset 30, -168
	adrp	x4, :got:__stack_chk_guard
	mov	x29, sp
	stp	x19, x20, [sp, 16]
	.cfi_offset 19, -160
	.cfi_offset 20, -152
	mov	x20, x2
	mov	x19, x0
	ldr	x2, [x4, #:got_lo12:__stack_chk_guard]
	stp	x21, x22, [sp, 32]
	mov	x0, x20
	ldr	x4, [x20]
	.cfi_offset 21, -144
	.cfi_offset 22, -136
	mov	x21, x1
	mov	x22, x3
	ldr	x4, [x4, 32]
	str	x23, [sp, 48]
	.cfi_offset 23, -128
	add	x23, sp, 136
	mov	x8, x23
	ldr	x3, [x2]
	str	x3, [sp, 168]
	mov	x3, 0
.LEHB0:
	blr	x4
.LEHE0:
	adrp	x3, .LC19
	mov	x0, x23
	add	x3, x3, :lo12:.LC19
	mov	x4, 2
	mov	x2, 0
	mov	x1, 0
.LEHB1:
	bl	_ZNSt7__cxx1112basic_stringIcSt11char_traitsIcESaIcEE10_M_replaceEmmPKcm
.LEHE1:
	add	x23, sp, 120
	str	x23, [sp, 104]
	mov	x4, x0
	ldr	x1, [x0], 16
	cmp	x1, x0
	beq	.L270
	ldr	x2, [x4, 16]
	str	x1, [sp, 104]
	str	x2, [sp, 120]
.L252:
	ldr	x1, [x4, 8]
	str	x1, [sp, 112]
	stp	x0, xzr, [x4]
	mov	x0, x22
	strb	wzr, [x4, 16]
	bl	strlen
	mov	x4, x0
	mov	x3, x22
	add	x0, sp, 104
	mov	x2, 0
	mov	x1, 0
.LEHB2:
	bl	_ZNSt7__cxx1112basic_stringIcSt11char_traitsIcESaIcEE10_M_replaceEmmPKcm
.LEHE2:
	add	x22, sp, 88
	str	x22, [sp, 72]
	mov	x3, x0
	ldr	x1, [x0], 16
	cmp	x1, x0
	beq	.L271
	ldr	x2, [x3, 16]
	str	x1, [sp, 72]
	str	x2, [sp, 88]
.L254:
	ldr	x1, [x3, 8]
	str	x1, [sp, 80]
	stp	x0, xzr, [x3]
	add	x1, sp, 72
	mov	x0, x19
	strb	wzr, [x3, 16]
.LEHB3:
	bl	_ZNSt13runtime_errorC2ERKNSt7__cxx1112basic_stringIcSt11char_traitsIcESaIcEEE
.LEHE3:
	ldr	x0, [sp, 72]
	cmp	x0, x22
	beq	.L255
	ldr	x1, [sp, 88]
	add	x1, x1, 1
	bl	_ZdlPvm
.L255:
	ldr	x0, [sp, 104]
	cmp	x0, x23
	beq	.L256
	ldr	x1, [sp, 120]
	add	x1, x1, 1
	bl	_ZdlPvm
.L256:
	ldr	x0, [sp, 136]
	add	x1, sp, 152
	cmp	x0, x1
	beq	.L257
	ldr	x1, [sp, 152]
	add	x1, x1, 1
	bl	_ZdlPvm
.L257:
	adrp	x0, :got:_ZTVSt12system_error
	adrp	x1, :got:__stack_chk_guard
	stp	x21, x20, [x19, 16]
	ldr	x0, [x0, #:got_lo12:_ZTVSt12system_error]
	ldr	x1, [x1, #:got_lo12:__stack_chk_guard]
	add	x0, x0, 16
	str	x0, [x19]
	ldr	x0, [sp, 168]
	ldr	x2, [x1]
	subs	x0, x0, x2
	mov	x2, 0
	bne	.L272
	ldp	x19, x20, [sp, 16]
	ldp	x21, x22, [sp, 32]
	ldr	x23, [sp, 48]
	ldp	x29, x30, [sp], 176
	.cfi_remember_state
	.cfi_restore 30
	.cfi_restore 29
	.cfi_restore 23
	.cfi_restore 21
	.cfi_restore 22
	.cfi_restore 19
	.cfi_restore 20
	.cfi_def_cfa_offset 0
	ret
	.p2align 2,,3
.L270:
	.cfi_restore_state
	ldp	x2, x3, [x4, 16]
	stp	x2, x3, [sp, 120]
	b	.L252
	.p2align 2,,3
.L271:
	ldp	x4, x5, [x3, 16]
	stp	x4, x5, [sp, 88]
	b	.L254
.L272:
	bl	__stack_chk_fail
.L267:
	ldr	x2, [sp, 72]
	mov	x19, x0
	cmp	x2, x22
	beq	.L260
	ldr	x1, [sp, 88]
	mov	x0, x2
	add	x1, x1, 1
	bl	_ZdlPvm
.L260:
	ldr	x0, [sp, 104]
	cmp	x0, x23
	beq	.L262
	ldr	x1, [sp, 120]
	add	x1, x1, 1
	bl	_ZdlPvm
.L262:
	ldr	x0, [sp, 136]
	add	x1, sp, 152
	cmp	x0, x1
	beq	.L263
	ldr	x1, [sp, 152]
	add	x1, x1, 1
	bl	_ZdlPvm
.L263:
	mov	x0, x19
.LEHB4:
	bl	_Unwind_Resume
.LEHE4:
.L265:
	mov	x19, x0
	b	.L262
.L266:
	mov	x19, x0
	b	.L260
	.cfi_endproc
.LFE2825:
	.global	__gxx_personality_v0
	.section	.gcc_except_table._ZNSt12system_errorC2ESt10error_codePKc,"aG",@progbits,_ZNSt12system_errorC5ESt10error_codePKc,comdat
.LLSDA2825:
	.byte	0xff
	.byte	0xff
	.byte	0x1
	.uleb128 .LLSDACSE2825-.LLSDACSB2825
.LLSDACSB2825:
	.uleb128 .LEHB0-.LFB2825
	.uleb128 .LEHE0-.LEHB0
	.uleb128 0
	.uleb128 0
	.uleb128 .LEHB1-.LFB2825
	.uleb128 .LEHE1-.LEHB1
	.uleb128 .L265-.LFB2825
	.uleb128 0
	.uleb128 .LEHB2-.LFB2825
	.uleb128 .LEHE2-.LEHB2
	.uleb128 .L266-.LFB2825
	.uleb128 0
	.uleb128 .LEHB3-.LFB2825
	.uleb128 .LEHE3-.LEHB3
	.uleb128 .L267-.LFB2825
	.uleb128 0
	.uleb128 .LEHB4-.LFB2825
	.uleb128 .LEHE4-.LEHB4
	.uleb128 0
	.uleb128 0
.LLSDACSE2825:
	.section	.text._ZNSt12system_errorC2ESt10error_codePKc,"axG",@progbits,_ZNSt12system_errorC5ESt10error_codePKc,comdat
	.size	_ZNSt12system_errorC2ESt10error_codePKc, .-_ZNSt12system_errorC2ESt10error_codePKc
	.weak	_ZNSt12system_errorC1ESt10error_codePKc
	.set	_ZNSt12system_errorC1ESt10error_codePKc,_ZNSt12system_errorC2ESt10error_codePKc
	.section	.text._ZN4asio15system_categoryEv,"axG",@progbits,_ZN4asio15system_categoryEv,comdat
	.align	2
	.p2align 4,,11
	.weak	_ZN4asio15system_categoryEv
	.type	_ZN4asio15system_categoryEv, %function
_ZN4asio15system_categoryEv:
.LFB2878:
	.cfi_startproc
	stp	x29, x30, [sp, -32]!
	.cfi_def_cfa_offset 32
	.cfi_offset 29, -32
	.cfi_offset 30, -24
	mov	x29, sp
	stp	x19, x20, [sp, 16]
	.cfi_offset 19, -16
	.cfi_offset 20, -8
	adrp	x19, :got:_ZGVZN4asio15system_categoryEvE8instance
	ldr	x19, [x19, #:got_lo12:_ZGVZN4asio15system_categoryEvE8instance]
	ldar	x0, [x19]
	adrp	x20, :got:_ZZN4asio15system_categoryEvE8instance
	tbz	x0, 0, .L281
.L275:
	ldr	x0, [x20, #:got_lo12:_ZZN4asio15system_categoryEvE8instance]
	ldp	x19, x20, [sp, 16]
	ldp	x29, x30, [sp], 32
	.cfi_remember_state
	.cfi_restore 30
	.cfi_restore 29
	.cfi_restore 19
	.cfi_restore 20
	.cfi_def_cfa_offset 0
	ret
	.p2align 2,,3
.L281:
	.cfi_restore_state
	mov	x0, x19
	adrp	x20, :got:_ZZN4asio15system_categoryEvE8instance
	bl	__cxa_guard_acquire
	cbz	w0, .L275
	adrp	x0, :got:_ZN4asio6detail15system_categoryD1Ev
	adrp	x2, __dso_handle
	ldr	x1, [x20, #:got_lo12:_ZZN4asio15system_categoryEvE8instance]
	add	x2, x2, :lo12:__dso_handle
	ldr	x0, [x0, #:got_lo12:_ZN4asio6detail15system_categoryD1Ev]
	bl	__cxa_atexit
	mov	x0, x19
	bl	__cxa_guard_release
	ldr	x0, [x20, #:got_lo12:_ZZN4asio15system_categoryEvE8instance]
	ldp	x19, x20, [sp, 16]
	ldp	x29, x30, [sp], 32
	.cfi_restore 30
	.cfi_restore 29
	.cfi_restore 19
	.cfi_restore 20
	.cfi_def_cfa_offset 0
	ret
	.cfi_endproc
.LFE2878:
	.size	_ZN4asio15system_categoryEv, .-_ZN4asio15system_categoryEv
	.section	.rodata._ZN4asio6detail20posix_tss_ptr_createERj.str1.8,"aMS",@progbits,1
	.align	3
.LC20:
	.string	"tss"
	.section	.text._ZN4asio6detail20posix_tss_ptr_createERj,"axG",@progbits,_ZN4asio6detail20posix_tss_ptr_createERj,comdat
	.align	2
	.p2align 4,,11
	.weak	_ZN4asio6detail20posix_tss_ptr_createERj
	.type	_ZN4asio6detail20posix_tss_ptr_createERj, %function
_ZN4asio6detail20posix_tss_ptr_createERj:
.LFB2913:
	.cfi_startproc
	.cfi_personality 0x9b,DW.ref.__gxx_personality_v0
	.cfi_lsda 0x1b,.LLSDA2913
	stp	x29, x30, [sp, -96]!
	.cfi_def_cfa_offset 96
	.cfi_offset 29, -96
	.cfi_offset 30, -88
	adrp	x2, :got:__stack_chk_guard
	mov	x1, 0
	mov	x29, sp
	ldr	x2, [x2, #:got_lo12:__stack_chk_guard]
	stp	x19, x20, [sp, 16]
	.cfi_offset 19, -80
	.cfi_offset 20, -72
	adrp	x20, :got:_ZGVZN4asio15system_categoryEvE8instance
	str	x21, [sp, 32]
	.cfi_offset 21, -64
	ldr	x3, [x2]
	str	x3, [sp, 88]
	mov	x3, 0
	bl	pthread_key_create
	mov	w19, w0
	ldr	x20, [x20, #:got_lo12:_ZGVZN4asio15system_categoryEvE8instance]
	ldar	x0, [x20]
	adrp	x21, :got:_ZZN4asio15system_categoryEvE8instance
	tbz	x0, 0, .L294
.L284:
	mov	x1, 0
	ldr	x21, [x21, #:got_lo12:_ZZN4asio15system_categoryEvE8instance]
	bfi	x1, x19, 0, 32
	cbnz	w19, .L295
	adrp	x0, :got:__stack_chk_guard
	ldr	x0, [x0, #:got_lo12:__stack_chk_guard]
	ldr	x2, [sp, 88]
	ldr	x1, [x0]
	subs	x2, x2, x1
	mov	x1, 0
	bne	.L296
	ldp	x19, x20, [sp, 16]
	ldr	x21, [sp, 32]
	ldp	x29, x30, [sp], 96
	.cfi_remember_state
	.cfi_restore 30
	.cfi_restore 29
	.cfi_restore 21
	.cfi_restore 19
	.cfi_restore 20
	.cfi_def_cfa_offset 0
	ret
	.p2align 2,,3
.L294:
	.cfi_restore_state
	mov	x0, x20
	adrp	x21, :got:_ZZN4asio15system_categoryEvE8instance
	bl	__cxa_guard_acquire
	cbz	w0, .L284
	adrp	x0, :got:_ZN4asio6detail15system_categoryD1Ev
	adrp	x2, __dso_handle
	ldr	x1, [x21, #:got_lo12:_ZZN4asio15system_categoryEvE8instance]
	add	x2, x2, :lo12:__dso_handle
	ldr	x0, [x0, #:got_lo12:_ZN4asio6detail15system_categoryD1Ev]
	bl	__cxa_atexit
	mov	x0, x20
	bl	__cxa_guard_release
	b	.L284
.L296:
	bl	__stack_chk_fail
.L295:
	mov	x2, x21
	adrp	x3, .LC20
	add	x3, x3, :lo12:.LC20
	add	x20, sp, 56
	mov	x0, x20
.LEHB5:
	bl	_ZNSt12system_errorC1ESt10error_codePKc
.LEHE5:
	mov	x0, 32
	bl	__cxa_allocate_exception
	mov	x19, x0
	mov	x1, x20
	bl	_ZNSt13runtime_errorC2ERKS_
	adrp	x3, :got:_ZTVSt12system_error
	adrp	x2, :got:_ZNSt12system_errorD1Ev
	adrp	x1, :got:_ZTISt12system_error
	mov	x0, x19
	ldr	x3, [x3, #:got_lo12:_ZTVSt12system_error]
	ldp	x4, x5, [sp, 72]
	add	x3, x3, 16
	ldr	x2, [x2, #:got_lo12:_ZNSt12system_errorD1Ev]
	str	x3, [x19]
	ldr	x1, [x1, #:got_lo12:_ZTISt12system_error]
	stp	x4, x5, [x19, 16]
.LEHB6:
	bl	__cxa_throw
.LEHE6:
.L289:
	mov	x19, x0
	mov	x0, x20
	bl	_ZNSt12system_errorD1Ev
	mov	x0, x19
.LEHB7:
	bl	_Unwind_Resume
.LEHE7:
	.cfi_endproc
.LFE2913:
	.section	.gcc_except_table._ZN4asio6detail20posix_tss_ptr_createERj,"aG",@progbits,_ZN4asio6detail20posix_tss_ptr_createERj,comdat
.LLSDA2913:
	.byte	0xff
	.byte	0xff
	.byte	0x1
	.uleb128 .LLSDACSE2913-.LLSDACSB2913
.LLSDACSB2913:
	.uleb128 .LEHB5-.LFB2913
	.uleb128 .LEHE5-.LEHB5
	.uleb128 0
	.uleb128 0
	.uleb128 .LEHB6-.LFB2913
	.uleb128 .LEHE6-.LEHB6
	.uleb128 .L289-.LFB2913
	.uleb128 0
	.uleb128 .LEHB7-.LFB2913
	.uleb128 .LEHE7-.LEHB7
	.uleb128 0
	.uleb128 0
.LLSDACSE2913:
	.section	.text._ZN4asio6detail20posix_tss_ptr_createERj,"axG",@progbits,_ZN4asio6detail20posix_tss_ptr_createERj,comdat
	.size	_ZN4asio6detail20posix_tss_ptr_createERj, .-_ZN4asio6detail20posix_tss_ptr_createERj
	.section	.text._ZN4asio6detail28reactive_socket_service_base7destroyERNS1_24base_implementation_typeE,"axG",@progbits,_ZN4asio6detail28reactive_socket_service_base7destroyERNS1_24base_implementation_typeE,comdat
	.align	2
	.p2align 4,,11
	.weak	_ZN4asio6detail28reactive_socket_service_base7destroyERNS1_24base_implementation_typeE
	.type	_ZN4asio6detail28reactive_socket_service_base7destroyERNS1_24base_implementation_typeE, %function
_ZN4asio6detail28reactive_socket_service_base7destroyERNS1_24base_implementation_typeE:
.LFB4466:
	.cfi_startproc
	stp	x29, x30, [sp, -144]!
	.cfi_def_cfa_offset 144
	.cfi_offset 29, -144
	.cfi_offset 30, -136
	adrp	x2, :got:__stack_chk_guard
	mov	x29, sp
	stp	x25, x26, [sp, 64]
	.cfi_offset 25, -80
	.cfi_offset 26, -72
	mov	x26, x1
	mov	x1, x0
	ldr	x2, [x2, #:got_lo12:__stack_chk_guard]
	stp	x19, x20, [sp, 16]
	.cfi_offset 19, -128
	.cfi_offset 20, -120
	ldr	w19, [x26]
	ldr	x0, [x2]
	str	x0, [sp, 136]
	mov	x0, 0
	cmn	w19, #1
	bne	.L411
.L297:
	adrp	x0, :got:__stack_chk_guard
	ldr	x0, [x0, #:got_lo12:__stack_chk_guard]
	ldr	x2, [sp, 136]
	ldr	x1, [x0]
	subs	x2, x2, x1
	mov	x1, 0
	bne	.L412
	ldp	x19, x20, [sp, 16]
	ldp	x25, x26, [sp, 64]
	ldp	x29, x30, [sp], 144
	.cfi_remember_state
	.cfi_restore 30
	.cfi_restore 29
	.cfi_restore 25
	.cfi_restore 26
	.cfi_restore 19
	.cfi_restore 20
	.cfi_def_cfa_offset 0
	ret
	.p2align 2,,3
.L411:
	.cfi_restore_state
	stp	x21, x22, [sp, 32]
	.cfi_offset 22, -104
	.cfi_offset 21, -112
	ldr	x21, [x26, 8]
	stp	x23, x24, [sp, 48]
	.cfi_offset 24, -88
	.cfi_offset 23, -96
	cbz	x21, .L328
	ldr	x1, [x1]
	add	x21, x21, 40
	ldrb	w20, [x26, 4]
	mov	x0, x21
	str	x1, [sp, 96]
	bl	pthread_mutex_lock
	ldr	x1, [x26, 8]
	ldrb	w0, [x1, 152]
	cbnz	w0, .L300
	stp	x27, x28, [sp, 80]
	.cfi_offset 28, -56
	.cfi_offset 27, -64
	tbnz	x20, 6, .L413
.L301:
	adrp	x28, :got:_ZGVZN4asio15system_categoryEvE8instance
	adrp	x25, __dso_handle
	mov	x27, 0
	add	x0, x25, :lo12:__dso_handle
	ldr	x28, [x28, #:got_lo12:_ZGVZN4asio15system_categoryEvE8instance]
	mov	x23, 0
	mov	w20, 0
	str	x0, [sp, 104]
.L302:
	add	x0, x1, w20, sxtw 4
	sxtw	x24, w20
	ldr	x19, [x0, 104]
	cbz	x19, .L349
	adrp	x22, :got:_ZN4asio6detail15system_categoryD1Ev
	adrp	x25, :got:_ZZN4asio15system_categoryEvE8instance
	ldr	x22, [x22, #:got_lo12:_ZN4asio6detail15system_categoryD1Ev]
	ldar	x0, [x28]
	tbz	x0, 0, .L414
	.p2align 3,,7
.L304:
	ldr	x1, [x26, 8]
	mov	w2, 125
	ldr	x0, [x25, #:got_lo12:_ZZN4asio15system_categoryEvE8instance]
	str	x0, [x19, 32]
	add	x3, x1, x24, lsl 4
	str	w2, [x19, 24]
	ldr	x0, [x3, 104]
	cbz	x0, .L306
.L417:
	ldr	x2, [x0]
	str	x2, [x3, 104]
	cbz	x2, .L415
	str	xzr, [x0]
	str	xzr, [x19]
	cbz	x27, .L416
.L346:
	str	x19, [x27]
	cbz	x2, .L308
.L309:
	mov	x27, x19
	mov	x19, x2
	ldar	x0, [x28]
	tbnz	x0, 0, .L304
.L414:
	mov	x0, x28
	bl	__cxa_guard_acquire
	cbz	w0, .L304
	ldr	x1, [x25, #:got_lo12:_ZZN4asio15system_categoryEvE8instance]
	mov	x0, x22
	ldr	x2, [sp, 104]
	bl	__cxa_atexit
	mov	x0, x28
	bl	__cxa_guard_release
	ldr	x1, [x26, 8]
	mov	w2, 125
	ldr	x0, [x25, #:got_lo12:_ZZN4asio15system_categoryEvE8instance]
	str	x0, [x19, 32]
	add	x3, x1, x24, lsl 4
	str	w2, [x19, 24]
	ldr	x0, [x3, 104]
	cbnz	x0, .L417
	.p2align 3,,7
.L306:
	str	xzr, [x19]
	cbz	x27, .L350
	str	x19, [x27]
.L308:
	add	w20, w20, 1
	cmp	w20, 3
	beq	.L310
.L422:
	mov	x27, x19
	b	.L302
	.p2align 2,,3
.L300:
	.cfi_restore 27
	.cfi_restore 28
	mov	x0, x21
	bl	pthread_mutex_unlock
	ldr	w19, [x26]
.L322:
	cmn	w19, #1
	beq	.L409
.L328:
	ldrb	w21, [x26, 4]
	bl	__errno_location
	adrp	x22, :got:_ZGVZN4asio15system_categoryEvE8instance
	mov	x20, x0
	tbnz	x21, 3, .L418
.L330:
	str	wzr, [x20]
	mov	w0, w19
	bl	close
	ldr	w24, [x20]
	ldr	x23, [x22, #:got_lo12:_ZGVZN4asio15system_categoryEvE8instance]
	mov	w21, w0
	ldar	x0, [x23]
	tbz	x0, 0, .L419
.L335:
	cbnz	w21, .L420
.L409:
	ldp	x21, x22, [sp, 32]
	.cfi_remember_state
	.cfi_restore 22
	.cfi_restore 21
	ldp	x23, x24, [sp, 48]
	.cfi_restore 24
	.cfi_restore 23
	b	.L297
	.p2align 2,,3
.L419:
	.cfi_restore_state
	mov	x0, x23
	bl	__cxa_guard_acquire
	cbz	w0, .L335
	adrp	x1, :got:_ZZN4asio15system_categoryEvE8instance
	adrp	x0, :got:_ZN4asio6detail15system_categoryD1Ev
	adrp	x2, __dso_handle
	add	x2, x2, :lo12:__dso_handle
	ldr	x1, [x1, #:got_lo12:_ZZN4asio15system_categoryEvE8instance]
	ldr	x0, [x0, #:got_lo12:_ZN4asio6detail15system_categoryD1Ev]
	bl	__cxa_atexit
	mov	x0, x23
	bl	__cxa_guard_release
	cbz	w21, .L409
	.p2align 3,,7
.L420:
	ldr	x21, [x22, #:got_lo12:_ZGVZN4asio15system_categoryEvE8instance]
	ldar	x0, [x21]
	tbz	x0, 0, .L421
.L339:
	cmp	w24, 11
	beq	.L341
	ldr	x22, [x22, #:got_lo12:_ZGVZN4asio15system_categoryEvE8instance]
	ldar	x0, [x22]
	tbnz	x0, 0, .L409
	mov	x0, x22
	bl	__cxa_guard_acquire
	cbz	w0, .L409
	adrp	x1, :got:_ZZN4asio15system_categoryEvE8instance
	adrp	x0, :got:_ZN4asio6detail15system_categoryD1Ev
	adrp	x2, __dso_handle
	add	x2, x2, :lo12:__dso_handle
	ldr	x1, [x1, #:got_lo12:_ZZN4asio15system_categoryEvE8instance]
	ldr	x0, [x0, #:got_lo12:_ZN4asio6detail15system_categoryD1Ev]
	bl	__cxa_atexit
	adrp	x0, :got:__stack_chk_guard
	ldr	x0, [x0, #:got_lo12:__stack_chk_guard]
	ldr	x2, [sp, 136]
	ldr	x1, [x0]
	subs	x2, x2, x1
	mov	x1, 0
	bne	.L410
	mov	x0, x22
	ldp	x19, x20, [sp, 16]
	ldp	x21, x22, [sp, 32]
	.cfi_restore 22
	.cfi_restore 21
	ldp	x23, x24, [sp, 48]
	.cfi_restore 24
	.cfi_restore 23
	ldp	x25, x26, [sp, 64]
	ldp	x29, x30, [sp], 144
	.cfi_restore 30
	.cfi_restore 29
	.cfi_restore 25
	.cfi_restore 26
	.cfi_restore 19
	.cfi_restore 20
	.cfi_def_cfa_offset 0
	b	__cxa_guard_release
	.p2align 2,,3
.L415:
	.cfi_def_cfa_offset 144
	.cfi_offset 19, -128
	.cfi_offset 20, -120
	.cfi_offset 21, -112
	.cfi_offset 22, -104
	.cfi_offset 23, -96
	.cfi_offset 24, -88
	.cfi_offset 25, -80
	.cfi_offset 26, -72
	.cfi_offset 27, -64
	.cfi_offset 28, -56
	.cfi_offset 29, -144
	.cfi_offset 30, -136
	str	xzr, [x3, 112]
	str	xzr, [x0]
	str	xzr, [x19]
	cbnz	x27, .L346
	.p2align 3,,7
.L350:
	add	w20, w20, 1
	mov	x23, x19
	cmp	w20, 3
	bne	.L422
.L310:
	ldr	x22, [sp, 96]
	mov	w2, 1
	mov	w0, -1
	str	w0, [x1, 96]
	strb	w2, [x1, 152]
	mov	x0, x21
	add	x21, x22, 128
	bl	pthread_mutex_unlock
	mov	x0, x21
	ldr	x20, [x26, 8]
	bl	pthread_mutex_lock
	ldr	x0, [x22, 176]
	cmp	x20, x0
	beq	.L423
.L312:
	ldr	x0, [x20, 32]
	cbz	x0, .L313
	ldr	x1, [x20, 24]
	str	x1, [x0, 24]
.L313:
	ldr	x0, [x20, 24]
	cbz	x0, .L314
	ldr	x1, [x20, 32]
	str	x1, [x0, 32]
.L314:
	ldr	x22, [sp, 96]
	mov	x0, x21
	ldr	x2, [x22, 184]
	stp	x2, xzr, [x20, 24]
	str	x20, [x22, 184]
	bl	pthread_mutex_unlock
	str	xzr, [x26, 8]
	cbz	x23, .L315
	ldr	x20, [x22, 40]
	ldrb	w0, [x20, 40]
	cbz	w0, .L316
	adrp	x0, :got:_ZN4asio6detail10call_stackINS0_15task_io_serviceENS0_27task_io_service_thread_infoEE4top_E
	ldr	x0, [x0, #:got_lo12:_ZN4asio6detail10call_stackINS0_15task_io_serviceENS0_27task_io_service_thread_infoEE4top_E]
	ldr	w0, [x0]
	bl	pthread_getspecific
	cbnz	x0, .L319
	b	.L316
	.p2align 2,,3
.L317:
	ldr	x0, [x0, 16]
	cbz	x0, .L316
.L319:
	ldr	x1, [x0]
	cmp	x20, x1
	bne	.L317
	ldr	x0, [x0, 8]
	cbz	x0, .L316
	ldr	x2, [x0, 16]
	add	x1, x0, 8
	cbz	x2, .L320
	str	x23, [x2]
	str	x19, [x1, 8]
	.p2align 3,,7
.L315:
	ldr	w19, [x26]
	ldp	x27, x28, [sp, 80]
	.cfi_remember_state
	.cfi_restore 28
	.cfi_restore 27
	b	.L322
	.p2align 2,,3
.L416:
	.cfi_restore_state
	mov	x23, x19
	b	.L309
	.p2align 2,,3
.L418:
	.cfi_restore 27
	.cfi_restore 28
	orr	w21, w21, 8
	strb	w21, [x26, 4]
	str	wzr, [x20]
	add	x3, sp, 120
	mov	w0, w19
	mov	w4, 8
	mov	w2, 13
	mov	w1, 1
	str	xzr, [sp, 120]
	bl	setsockopt
	ldr	x21, [x22, #:got_lo12:_ZGVZN4asio15system_categoryEvE8instance]
	ldar	x0, [x21]
	tbnz	x0, 0, .L330
	mov	x0, x21
	bl	__cxa_guard_acquire
	cbz	w0, .L330
	adrp	x1, :got:_ZZN4asio15system_categoryEvE8instance
	adrp	x0, :got:_ZN4asio6detail15system_categoryD1Ev
	adrp	x2, __dso_handle
	add	x2, x2, :lo12:__dso_handle
	ldr	x1, [x1, #:got_lo12:_ZZN4asio15system_categoryEvE8instance]
	ldr	x0, [x0, #:got_lo12:_ZN4asio6detail15system_categoryD1Ev]
	bl	__cxa_atexit
	mov	x0, x21
	bl	__cxa_guard_release
	b	.L330
	.p2align 2,,3
.L316:
	.cfi_offset 27, -64
	.cfi_offset 28, -56
	add	x22, x20, 48
	mov	x0, x22
	bl	pthread_mutex_lock
	ldr	x1, [x20, 208]
	add	x0, x20, 200
	cbz	x1, .L323
	str	x23, [x1]
.L324:
	str	x19, [x0, 8]
	add	x21, x20, 96
	ldr	x0, [x20, 144]
	orr	x0, x0, 1
	str	x0, [x20, 144]
	cmp	x0, 1
	beq	.L325
	mov	x0, x22
	bl	pthread_mutex_unlock
	mov	x0, x21
	bl	pthread_cond_signal
	b	.L315
.L325:
	ldrb	w1, [x20, 184]
	cbnz	w1, .L327
	ldr	x4, [x20, 152]
	cbz	x4, .L327
	mov	w1, 9
	strb	w0, [x20, 184]
	ldr	w2, [x4, 96]
	add	x0, x4, 96
	movk	w1, 0x8000, lsl 16
	str	w1, [sp, 120]
	str	x0, [sp, 128]
	add	x3, sp, 120
	mov	w1, 3
	ldr	w0, [x4, 104]
	bl	epoll_ctl
.L327:
	mov	x0, x22
	bl	pthread_mutex_unlock
	b	.L315
	.p2align 2,,3
.L349:
	mov	x19, x27
	b	.L308
	.p2align 2,,3
.L413:
	ldr	x0, [sp, 96]
	str	wzr, [sp, 120]
	str	xzr, [sp, 128]
	mov	w1, 2
	mov	w2, w19
	add	x3, sp, 120
	ldr	w0, [x0, 104]
	bl	epoll_ctl
	ldr	x1, [x26, 8]
	b	.L301
	.p2align 2,,3
.L423:
	ldr	x1, [sp, 96]
	ldr	x0, [x20, 24]
	str	x0, [x1, 176]
	b	.L312
.L421:
	.cfi_restore 27
	.cfi_restore 28
	mov	x0, x21
	bl	__cxa_guard_acquire
	cbz	w0, .L339
	adrp	x1, :got:_ZZN4asio15system_categoryEvE8instance
	adrp	x0, :got:_ZN4asio6detail15system_categoryD1Ev
	adrp	x2, __dso_handle
	add	x2, x2, :lo12:__dso_handle
	ldr	x1, [x1, #:got_lo12:_ZZN4asio15system_categoryEvE8instance]
	ldr	x0, [x0, #:got_lo12:_ZN4asio6detail15system_categoryD1Ev]
	bl	__cxa_atexit
	mov	x0, x21
	bl	__cxa_guard_release
	b	.L339
.L341:
	add	x2, sp, 120
	mov	w0, w19
	mov	x1, 21537
	str	wzr, [sp, 120]
	bl	ioctl
	ldrb	w1, [x26, 4]
	mov	w0, w19
	and	w1, w1, -4
	strb	w1, [x26, 4]
	str	wzr, [x20]
	bl	close
	ldr	x22, [x22, #:got_lo12:_ZGVZN4asio15system_categoryEvE8instance]
	ldar	x0, [x22]
	tbnz	x0, 0, .L409
	mov	x0, x22
	bl	__cxa_guard_acquire
	cbz	w0, .L409
	adrp	x1, :got:_ZZN4asio15system_categoryEvE8instance
	adrp	x0, :got:_ZN4asio6detail15system_categoryD1Ev
	adrp	x2, __dso_handle
	add	x2, x2, :lo12:__dso_handle
	ldr	x1, [x1, #:got_lo12:_ZZN4asio15system_categoryEvE8instance]
	ldr	x0, [x0, #:got_lo12:_ZN4asio6detail15system_categoryD1Ev]
	bl	__cxa_atexit
	mov	x0, x22
	bl	__cxa_guard_release
	ldp	x21, x22, [sp, 32]
	.cfi_restore 22
	.cfi_restore 21
	ldp	x23, x24, [sp, 48]
	.cfi_restore 24
	.cfi_restore 23
	b	.L297
.L323:
	.cfi_offset 21, -112
	.cfi_offset 22, -104
	.cfi_offset 23, -96
	.cfi_offset 24, -88
	.cfi_offset 27, -64
	.cfi_offset 28, -56
	str	x23, [x20, 200]
	b	.L324
.L320:
	str	x23, [x0, 8]
	str	x19, [x1, 8]
	b	.L315
.L412:
	.cfi_restore 21
	.cfi_restore 22
	.cfi_restore 23
	.cfi_restore 24
	.cfi_restore 27
	.cfi_restore 28
	stp	x21, x22, [sp, 32]
	.cfi_offset 22, -104
	.cfi_offset 21, -112
	stp	x23, x24, [sp, 48]
	.cfi_offset 24, -88
	.cfi_offset 23, -96
.L410:
	stp	x27, x28, [sp, 80]
	.cfi_offset 28, -56
	.cfi_offset 27, -64
	bl	__stack_chk_fail
	.cfi_endproc
.LFE4466:
	.size	_ZN4asio6detail28reactive_socket_service_base7destroyERNS1_24base_implementation_typeE, .-_ZN4asio6detail28reactive_socket_service_base7destroyERNS1_24base_implementation_typeE
	.section	.text._ZNSt23_Sp_counted_ptr_inplaceIN7asiopal13SocketChannelESaIS1_ELN9__gnu_cxx12_Lock_policyE2EE10_M_disposeEv,"axG",@progbits,_ZNSt23_Sp_counted_ptr_inplaceIN7asiopal13SocketChannelESaIS1_ELN9__gnu_cxx12_Lock_policyE2EE10_M_disposeEv,comdat
	.align	2
	.p2align 4,,11
	.weak	_ZNSt23_Sp_counted_ptr_inplaceIN7asiopal13SocketChannelESaIS1_ELN9__gnu_cxx12_Lock_policyE2EE10_M_disposeEv
	.type	_ZNSt23_Sp_counted_ptr_inplaceIN7asiopal13SocketChannelESaIS1_ELN9__gnu_cxx12_Lock_policyE2EE10_M_disposeEv, %function
_ZNSt23_Sp_counted_ptr_inplaceIN7asiopal13SocketChannelESaIS1_ELN9__gnu_cxx12_Lock_policyE2EE10_M_disposeEv:
.LFB10525:
	.cfi_startproc
	.cfi_personality 0x9b,DW.ref.__gxx_personality_v0
	.cfi_lsda 0x1b,.LLSDA10525
	stp	x29, x30, [sp, -48]!
	.cfi_def_cfa_offset 48
	.cfi_offset 29, -48
	.cfi_offset 30, -40
	adrp	x2, :got:_ZTVN7asiopal13SocketChannelE
	add	x1, x0, 80
	mov	x29, sp
	ldr	x2, [x2, #:got_lo12:_ZTVN7asiopal13SocketChannelE]
	stp	x19, x20, [sp, 16]
	.cfi_offset 19, -32
	.cfi_offset 20, -24
	mov	x19, x0
	add	x2, x2, 16
	ldr	x0, [x1, 24]
	str	x21, [sp, 32]
	.cfi_offset 21, -16
	str	x2, [x19, 16]
	add	x0, x0, 40
	bl	_ZN4asio6detail28reactive_socket_service_base7destroyERNS1_24base_implementation_typeE
	adrp	x0, :got:_ZTVN7asiopal13IAsyncChannelE
	ldr	x20, [x19, 64]
	ldr	x0, [x0, #:got_lo12:_ZTVN7asiopal13IAsyncChannelE]
	add	x0, x0, 16
	str	x0, [x19, 16]
	cbz	x20, .L426
	adrp	x21, :got:__libc_single_threaded
	ldr	x0, [x21, #:got_lo12:__libc_single_threaded]
	ldrb	w0, [x0]
	cbz	w0, .L427
	ldr	w0, [x20, 8]
	sub	w1, w0, #1
	str	w1, [x20, 8]
.L428:
	cmp	w0, 1
	beq	.L445
.L426:
	ldr	x20, [x19, 48]
	cbz	x20, .L433
	adrp	x21, :got:__libc_single_threaded
	ldr	x0, [x21, #:got_lo12:__libc_single_threaded]
	ldrb	w0, [x0]
	cbz	w0, .L434
	ldr	w0, [x20, 8]
	sub	w1, w0, #1
	str	w1, [x20, 8]
.L435:
	cmp	w0, 1
	beq	.L446
.L433:
	ldr	x19, [x19, 32]
	cbz	x19, .L424
	adrp	x0, :got:__libc_single_threaded
	ldr	x0, [x0, #:got_lo12:__libc_single_threaded]
	ldrb	w0, [x0]
	cbz	w0, .L441
	ldr	w0, [x19, 12]
	sub	w1, w0, #1
	str	w1, [x19, 12]
.L442:
	cmp	w0, 1
	beq	.L447
.L424:
	ldp	x19, x20, [sp, 16]
	ldr	x21, [sp, 32]
	ldp	x29, x30, [sp], 48
	.cfi_remember_state
	.cfi_restore 30
	.cfi_restore 29
	.cfi_restore 21
	.cfi_restore 19
	.cfi_restore 20
	.cfi_def_cfa_offset 0
	ret
	.p2align 2,,3
.L445:
	.cfi_restore_state
	ldr	x1, [x20]
	mov	x0, x20
	ldr	x1, [x1, 16]
	blr	x1
	ldr	x21, [x21, #:got_lo12:__libc_single_threaded]
	ldrb	w0, [x21]
	cbz	w0, .L430
	ldr	w0, [x20, 12]
	sub	w1, w0, #1
	str	w1, [x20, 12]
.L431:
	cmp	w0, 1
	bne	.L426
	ldr	x1, [x20]
	mov	x0, x20
	ldr	x1, [x1, 24]
	blr	x1
	b	.L426
	.p2align 2,,3
.L446:
	ldr	x1, [x20]
	mov	x0, x20
	ldr	x1, [x1, 16]
	blr	x1
	ldr	x21, [x21, #:got_lo12:__libc_single_threaded]
	ldrb	w0, [x21]
	cbz	w0, .L437
	ldr	w0, [x20, 12]
	sub	w1, w0, #1
	str	w1, [x20, 12]
.L438:
	cmp	w0, 1
	bne	.L433
	ldr	x1, [x20]
	mov	x0, x20
	ldr	x1, [x1, 24]
	blr	x1
	b	.L433
	.p2align 2,,3
.L447:
	ldr	x1, [x19]
	mov	x0, x19
	ldp	x19, x20, [sp, 16]
	ldr	x21, [sp, 32]
	ldp	x29, x30, [sp], 48
	.cfi_remember_state
	.cfi_restore 30
	.cfi_restore 29
	.cfi_restore 21
	.cfi_restore 19
	.cfi_restore 20
	.cfi_def_cfa_offset 0
	ldr	x1, [x1, 24]
	mov	x16, x1
	br	x16
	.p2align 2,,3
.L434:
	.cfi_restore_state
	add	x1, x20, 8
	mov	w0, -1
	bl	__aarch64_ldadd4_acq_rel
	b	.L435
	.p2align 2,,3
.L441:
	add	x1, x19, 12
	mov	w0, -1
	bl	__aarch64_ldadd4_acq_rel
	b	.L442
	.p2align 2,,3
.L427:
	add	x1, x20, 8
	mov	w0, -1
	bl	__aarch64_ldadd4_acq_rel
	b	.L428
	.p2align 2,,3
.L430:
	add	x1, x20, 12
	mov	w0, -1
	bl	__aarch64_ldadd4_acq_rel
	b	.L431
	.p2align 2,,3
.L437:
	add	x1, x20, 12
	mov	w0, -1
	bl	__aarch64_ldadd4_acq_rel
	b	.L438
	.cfi_endproc
.LFE10525:
	.section	.gcc_except_table._ZNSt23_Sp_counted_ptr_inplaceIN7asiopal13SocketChannelESaIS1_ELN9__gnu_cxx12_Lock_policyE2EE10_M_disposeEv,"aG",@progbits,_ZNSt23_Sp_counted_ptr_inplaceIN7asiopal13SocketChannelESaIS1_ELN9__gnu_cxx12_Lock_policyE2EE10_M_disposeEv,comdat
.LLSDA10525:
	.byte	0xff
	.byte	0xff
	.byte	0x1
	.uleb128 .LLSDACSE10525-.LLSDACSB10525
.LLSDACSB10525:
.LLSDACSE10525:
	.section	.text._ZNSt23_Sp_counted_ptr_inplaceIN7asiopal13SocketChannelESaIS1_ELN9__gnu_cxx12_Lock_policyE2EE10_M_disposeEv,"axG",@progbits,_ZNSt23_Sp_counted_ptr_inplaceIN7asiopal13SocketChannelESaIS1_ELN9__gnu_cxx12_Lock_policyE2EE10_M_disposeEv,comdat
	.size	_ZNSt23_Sp_counted_ptr_inplaceIN7asiopal13SocketChannelESaIS1_ELN9__gnu_cxx12_Lock_policyE2EE10_M_disposeEv, .-_ZNSt23_Sp_counted_ptr_inplaceIN7asiopal13SocketChannelESaIS1_ELN9__gnu_cxx12_Lock_policyE2EE10_M_disposeEv
	.section	.text._ZNSt23_Sp_counted_ptr_inplaceIN7asiopal9TCPClientESaIS1_ELN9__gnu_cxx12_Lock_policyE2EE10_M_disposeEv,"axG",@progbits,_ZNSt23_Sp_counted_ptr_inplaceIN7asiopal9TCPClientESaIS1_ELN9__gnu_cxx12_Lock_policyE2EE10_M_disposeEv,comdat
	.align	2
	.p2align 4,,11
	.weak	_ZNSt23_Sp_counted_ptr_inplaceIN7asiopal9TCPClientESaIS1_ELN9__gnu_cxx12_Lock_policyE2EE10_M_disposeEv
	.type	_ZNSt23_Sp_counted_ptr_inplaceIN7asiopal9TCPClientESaIS1_ELN9__gnu_cxx12_Lock_policyE2EE10_M_disposeEv, %function
_ZNSt23_Sp_counted_ptr_inplaceIN7asiopal9TCPClientESaIS1_ELN9__gnu_cxx12_Lock_policyE2EE10_M_disposeEv:
.LFB10539:
	.cfi_startproc
	.cfi_personality 0x9b,DW.ref.__gxx_personality_v0
	.cfi_lsda 0x1b,.LLSDA10539
	stp	x29, x30, [sp, -48]!
	.cfi_def_cfa_offset 48
	.cfi_offset 29, -48
	.cfi_offset 30, -40
	mov	x29, sp
	str	x21, [sp, 32]
	.cfi_offset 21, -16
	ldr	x21, [x0, 256]
	stp	x19, x20, [sp, 16]
	.cfi_offset 19, -32
	.cfi_offset 20, -24
	mov	x19, x0
	stp	xzr, xzr, [x0, 248]
	cbz	x21, .L450
	adrp	x20, :got:__libc_single_threaded
	ldr	x0, [x20, #:got_lo12:__libc_single_threaded]
	ldrb	w0, [x0]
	cbz	w0, .L451
	ldr	w0, [x21, 8]
	sub	w1, w0, #1
	str	w1, [x21, 8]
	cmp	w0, 1
	bne	.L450
.L455:
	ldr	x1, [x21]
	mov	x0, x21
	ldr	x1, [x1, 16]
	blr	x1
	ldr	x0, [x20, #:got_lo12:__libc_single_threaded]
	ldrb	w0, [x0]
	cbz	w0, .L499
	ldr	w0, [x21, 12]
	sub	w1, w0, #1
	str	w1, [x21, 12]
.L457:
	cmp	w0, 1
	bne	.L456
	ldr	x1, [x21]
	mov	x0, x21
	ldr	x1, [x1, 24]
	blr	x1
	b	.L456
	.p2align 2,,3
.L451:
	add	x1, x21, 8
	mov	w0, -1
	bl	__aarch64_ldadd4_acq_rel
	cmp	w0, 1
	beq	.L455
.L456:
	ldr	x21, [x19, 256]
	cbz	x21, .L450
	ldr	x0, [x20, #:got_lo12:__libc_single_threaded]
	ldrb	w0, [x0]
	cbz	w0, .L459
	ldr	w0, [x21, 8]
	sub	w1, w0, #1
	str	w1, [x21, 8]
.L460:
	cmp	w0, 1
	bne	.L450
	ldr	x1, [x21]
	mov	x0, x21
	ldr	x1, [x1, 16]
	blr	x1
	ldr	x20, [x20, #:got_lo12:__libc_single_threaded]
	ldrb	w0, [x20]
	cbz	w0, .L461
	ldr	w0, [x21, 12]
	sub	w1, w0, #1
	str	w1, [x21, 12]
.L462:
	cmp	w0, 1
	bne	.L450
	ldr	x1, [x21]
	mov	x0, x21
	ldr	x1, [x1, 24]
	blr	x1
	.p2align 3,,7
.L450:
	ldr	x0, [x19, 176]
	add	x1, x19, 152
	add	x0, x0, 40
	bl	_ZN4asio6detail28reactive_socket_service_base7destroyERNS1_24base_implementation_typeE
	ldr	x0, [x19, 120]
	add	x1, x19, 136
	cmp	x0, x1
	beq	.L463
	ldr	x1, [x19, 136]
	add	x1, x1, 1
	bl	_ZdlPvm
.L463:
	ldr	x0, [x19, 88]
	add	x1, x19, 104
	cmp	x0, x1
	beq	.L464
	ldr	x1, [x19, 104]
	add	x1, x1, 1
	bl	_ZdlPvm
.L464:
	ldr	x21, [x19, 80]
	cbz	x21, .L466
	adrp	x20, :got:__libc_single_threaded
	ldr	x0, [x20, #:got_lo12:__libc_single_threaded]
	ldrb	w0, [x0]
	cbz	w0, .L467
	ldr	w0, [x21, 8]
	sub	w1, w0, #1
	str	w1, [x21, 8]
.L468:
	cmp	w0, 1
	beq	.L500
.L466:
	ldr	x21, [x19, 64]
	cbz	x21, .L473
	adrp	x20, :got:__libc_single_threaded
	ldr	x0, [x20, #:got_lo12:__libc_single_threaded]
	ldrb	w0, [x0]
	cbz	w0, .L474
	ldr	w0, [x21, 8]
	sub	w1, w0, #1
	str	w1, [x21, 8]
.L475:
	cmp	w0, 1
	beq	.L501
.L473:
	ldr	x21, [x19, 48]
	cbz	x21, .L480
	adrp	x20, :got:__libc_single_threaded
	ldr	x0, [x20, #:got_lo12:__libc_single_threaded]
	ldrb	w0, [x0]
	cbz	w0, .L481
	ldr	w0, [x21, 8]
	sub	w1, w0, #1
	str	w1, [x21, 8]
.L482:
	cmp	w0, 1
	beq	.L502
.L480:
	ldr	x19, [x19, 24]
	cbz	x19, .L448
	adrp	x0, :got:__libc_single_threaded
	ldr	x0, [x0, #:got_lo12:__libc_single_threaded]
	ldrb	w0, [x0]
	cbz	w0, .L488
	ldr	w0, [x19, 12]
	sub	w1, w0, #1
	str	w1, [x19, 12]
.L489:
	cmp	w0, 1
	beq	.L503
.L448:
	ldp	x19, x20, [sp, 16]
	ldr	x21, [sp, 32]
	ldp	x29, x30, [sp], 48
	.cfi_remember_state
	.cfi_restore 30
	.cfi_restore 29
	.cfi_restore 21
	.cfi_restore 19
	.cfi_restore 20
	.cfi_def_cfa_offset 0
	ret
	.p2align 2,,3
.L500:
	.cfi_restore_state
	ldr	x1, [x21]
	mov	x0, x21
	ldr	x1, [x1, 16]
	blr	x1
	ldr	x20, [x20, #:got_lo12:__libc_single_threaded]
	ldrb	w0, [x20]
	cbz	w0, .L470
	ldr	w0, [x21, 12]
	sub	w1, w0, #1
	str	w1, [x21, 12]
.L471:
	cmp	w0, 1
	bne	.L466
	ldr	x1, [x21]
	mov	x0, x21
	ldr	x1, [x1, 24]
	blr	x1
	b	.L466
	.p2align 2,,3
.L501:
	ldr	x1, [x21]
	mov	x0, x21
	ldr	x1, [x1, 16]
	blr	x1
	ldr	x20, [x20, #:got_lo12:__libc_single_threaded]
	ldrb	w0, [x20]
	cbz	w0, .L477
	ldr	w0, [x21, 12]
	sub	w1, w0, #1
	str	w1, [x21, 12]
.L478:
	cmp	w0, 1
	bne	.L473
	ldr	x1, [x21]
	mov	x0, x21
	ldr	x1, [x1, 24]
	blr	x1
	b	.L473
	.p2align 2,,3
.L502:
	ldr	x1, [x21]
	mov	x0, x21
	ldr	x1, [x1, 16]
	blr	x1
	ldr	x20, [x20, #:got_lo12:__libc_single_threaded]
	ldrb	w0, [x20]
	cbz	w0, .L484
	ldr	w0, [x21, 12]
	sub	w1, w0, #1
	str	w1, [x21, 12]
.L485:
	cmp	w0, 1
	bne	.L480
	ldr	x1, [x21]
	mov	x0, x21
	ldr	x1, [x1, 24]
	blr	x1
	b	.L480
	.p2align 2,,3
.L503:
	ldr	x1, [x19]
	mov	x0, x19
	ldp	x19, x20, [sp, 16]
	ldr	x21, [sp, 32]
	ldp	x29, x30, [sp], 48
	.cfi_remember_state
	.cfi_restore 30
	.cfi_restore 29
	.cfi_restore 21
	.cfi_restore 19
	.cfi_restore 20
	.cfi_def_cfa_offset 0
	ldr	x1, [x1, 24]
	mov	x16, x1
	br	x16
	.p2align 2,,3
.L481:
	.cfi_restore_state
	add	x1, x21, 8
	mov	w0, -1
	bl	__aarch64_ldadd4_acq_rel
	b	.L482
	.p2align 2,,3
.L488:
	add	x1, x19, 12
	mov	w0, -1
	bl	__aarch64_ldadd4_acq_rel
	b	.L489
	.p2align 2,,3
.L467:
	add	x1, x21, 8
	mov	w0, -1
	bl	__aarch64_ldadd4_acq_rel
	b	.L468
	.p2align 2,,3
.L474:
	add	x1, x21, 8
	mov	w0, -1
	bl	__aarch64_ldadd4_acq_rel
	b	.L475
	.p2align 2,,3
.L459:
	add	x1, x21, 8
	mov	w0, -1
	bl	__aarch64_ldadd4_acq_rel
	b	.L460
	.p2align 2,,3
.L461:
	add	x1, x21, 12
	mov	w0, -1
	bl	__aarch64_ldadd4_acq_rel
	b	.L462
	.p2align 2,,3
.L484:
	add	x1, x21, 12
	mov	w0, -1
	bl	__aarch64_ldadd4_acq_rel
	b	.L485
	.p2align 2,,3
.L499:
	add	x1, x21, 12
	mov	w0, -1
	bl	__aarch64_ldadd4_acq_rel
	b	.L457
	.p2align 2,,3
.L470:
	add	x1, x21, 12
	mov	w0, -1
	bl	__aarch64_ldadd4_acq_rel
	b	.L471
	.p2align 2,,3
.L477:
	add	x1, x21, 12
	mov	w0, -1
	bl	__aarch64_ldadd4_acq_rel
	b	.L478
	.cfi_endproc
.LFE10539:
	.section	.gcc_except_table._ZNSt23_Sp_counted_ptr_inplaceIN7asiopal9TCPClientESaIS1_ELN9__gnu_cxx12_Lock_policyE2EE10_M_disposeEv,"aG",@progbits,_ZNSt23_Sp_counted_ptr_inplaceIN7asiopal9TCPClientESaIS1_ELN9__gnu_cxx12_Lock_policyE2EE10_M_disposeEv,comdat
.LLSDA10539:
	.byte	0xff
	.byte	0xff
	.byte	0x1
	.uleb128 .LLSDACSE10539-.LLSDACSB10539
.LLSDACSB10539:
.LLSDACSE10539:
	.section	.text._ZNSt23_Sp_counted_ptr_inplaceIN7asiopal9TCPClientESaIS1_ELN9__gnu_cxx12_Lock_policyE2EE10_M_disposeEv,"axG",@progbits,_ZNSt23_Sp_counted_ptr_inplaceIN7asiopal9TCPClientESaIS1_ELN9__gnu_cxx12_Lock_policyE2EE10_M_disposeEv,comdat
	.size	_ZNSt23_Sp_counted_ptr_inplaceIN7asiopal9TCPClientESaIS1_ELN9__gnu_cxx12_Lock_policyE2EE10_M_disposeEv, .-_ZNSt23_Sp_counted_ptr_inplaceIN7asiopal9TCPClientESaIS1_ELN9__gnu_cxx12_Lock_policyE2EE10_M_disposeEv
	.section	.text._ZN8asiodnp39IOHandlerD2Ev,"axG",@progbits,_ZN8asiodnp39IOHandlerD5Ev,comdat
	.align	2
	.p2align 4,,11
	.weak	_ZN8asiodnp39IOHandlerD2Ev
	.type	_ZN8asiodnp39IOHandlerD2Ev, %function
_ZN8asiodnp39IOHandlerD2Ev:
.LFB7647:
	.cfi_startproc
	stp	x29, x30, [sp, -112]!
	.cfi_def_cfa_offset 112
	.cfi_offset 29, -112
	.cfi_offset 30, -104
	adrp	x1, :got:_ZTVN8asiodnp39IOHandlerE
	adrp	x2, :got:_ZTVN8opendnp317MultidropTaskLockE
	mov	x29, sp
	ldr	x1, [x1, #:got_lo12:_ZTVN8asiodnp39IOHandlerE]
	stp	x23, x24, [sp, 48]
	.cfi_offset 23, -64
	.cfi_offset 24, -56
	mov	x23, x0
	ldr	x2, [x2, #:got_lo12:_ZTVN8opendnp317MultidropTaskLockE]
	stp	x21, x22, [sp, 32]
	.cfi_offset 21, -80
	.cfi_offset 22, -72
	add	x21, x0, 712
	ldr	x0, [x0, 712]
	stp	x19, x20, [sp, 16]
	add	x3, x1, 16
	stp	x25, x26, [sp, 64]
	add	x1, x1, 104
	add	x2, x2, 16
	stp	x3, x1, [x23]
	str	x2, [x23, 648]
	.cfi_offset 19, -96
	.cfi_offset 20, -88
	.cfi_offset 25, -48
	.cfi_offset 26, -40
	cbz	x0, .L505
	ldr	x20, [x21, 72]
	ldr	x19, [x21, 40]
	add	x20, x20, 8
	cmp	x19, x20
	bcs	.L506
	.p2align 3,,7
.L507:
	ldr	x0, [x19], 8
	mov	x1, 512
	bl	_ZdlPvm
	cmp	x20, x19
	bhi	.L507
	ldr	x0, [x23, 712]
.L506:
	ldr	x1, [x21, 8]
	lsl	x1, x1, 3
	bl	_ZdlPvm
.L505:
	ldr	x19, [x23, 680]
	cbz	x19, .L511
.L508:
	ldr	x0, [x19, 24]
	bl	_ZNSt8_Rb_treeIPN8opendnp317IScheduleCallbackES2_St9_IdentityIS2_ESt4lessIS2_ESaIS2_EE8_M_eraseEPSt13_Rb_tree_nodeIS2_E.isra.0
	mov	x0, x19
	mov	x1, 40
	ldr	x19, [x19, 16]
	bl	_ZdlPvm
	cbnz	x19, .L508
.L511:
	ldr	x20, [x23, 640]
	cbz	x20, .L512
	adrp	x19, :got:__libc_single_threaded
	ldr	x0, [x19, #:got_lo12:__libc_single_threaded]
	ldrb	w0, [x0]
	cbz	w0, .L513
	ldr	w0, [x20, 8]
	sub	w1, w0, #1
	str	w1, [x20, 8]
.L514:
	cmp	w0, 1
	beq	.L632
.L512:
	ldr	x20, [x23, 240]
	cbz	x20, .L518
	adrp	x19, :got:__libc_single_threaded
	ldr	x0, [x19, #:got_lo12:__libc_single_threaded]
	ldrb	w0, [x0]
	cbz	w0, .L519
	ldr	w0, [x20, 8]
	sub	w1, w0, #1
	str	w1, [x20, 8]
.L520:
	cmp	w0, 1
	beq	.L633
.L518:
	ldr	x20, [x23, 224]
	cbz	x20, .L525
	adrp	x19, :got:__libc_single_threaded
	ldr	x0, [x19, #:got_lo12:__libc_single_threaded]
	ldrb	w0, [x0]
	cbz	w0, .L526
	ldr	w0, [x20, 8]
	sub	w1, w0, #1
	str	w1, [x20, 8]
.L527:
	cmp	w0, 1
	beq	.L634
.L525:
	ldp	x0, x2, [x23, 168]
	adrp	x20, :got:__libc_single_threaded
	ldr	x25, [x23, 208]
	stp	x0, x2, [sp, 96]
	ldr	x20, [x20, #:got_lo12:__libc_single_threaded]
	add	x22, x2, 8
	ldr	x21, [x23, 152]
	ldp	x26, x24, [x23, 184]
	cmp	x25, x22
	bls	.L542
	stp	x27, x28, [sp, 80]
	.cfi_offset 28, -24
	.cfi_offset 27, -32
	.p2align 3,,7
.L531:
	ldr	x19, [x22]
	add	x28, x19, 512
	b	.L541
	.p2align 2,,3
.L535:
	add	x19, x19, 32
	cmp	x19, x28
	beq	.L635
.L541:
	ldr	x27, [x19, 24]
	cbz	x27, .L535
	ldrb	w0, [x20]
	cbz	w0, .L536
	ldr	w0, [x27, 8]
	sub	w1, w0, #1
	str	w1, [x27, 8]
.L537:
	cmp	w0, 1
	bne	.L535
	ldr	x1, [x27]
	mov	x0, x27
	ldr	x1, [x1, 16]
	blr	x1
	ldrb	w0, [x20]
	cbz	w0, .L539
	ldr	w0, [x27, 12]
	sub	w1, w0, #1
	str	w1, [x27, 12]
.L540:
	cmp	w0, 1
	bne	.L535
	ldr	x1, [x27]
	mov	x0, x27
	add	x19, x19, 32
	ldr	x1, [x1, 24]
	blr	x1
	cmp	x19, x28
	bne	.L541
	.p2align 3,,7
.L635:
	add	x22, x22, 8
	cmp	x25, x22
	bhi	.L531
	ldp	x27, x28, [sp, 80]
	.cfi_restore 28
	.cfi_restore 27
.L542:
	ldr	x0, [sp, 104]
	cmp	x0, x25
	beq	.L636
	ldr	x0, [sp, 96]
	adrp	x20, :got:__libc_single_threaded
	ldr	x20, [x20, #:got_lo12:__libc_single_threaded]
	cmp	x21, x0
	bne	.L546
	b	.L556
	.p2align 2,,3
.L550:
	ldr	x0, [sp, 96]
	add	x21, x21, 32
	cmp	x0, x21
	beq	.L556
.L546:
	ldr	x19, [x21, 24]
	cbz	x19, .L550
	ldrb	w0, [x20]
	cbz	w0, .L551
	ldr	w0, [x19, 8]
	sub	w1, w0, #1
	str	w1, [x19, 8]
.L552:
	cmp	w0, 1
	bne	.L550
	ldr	x1, [x19]
	mov	x0, x19
	ldr	x1, [x1, 16]
	blr	x1
	ldrb	w0, [x20]
	cbz	w0, .L554
	ldr	w0, [x19, 12]
	sub	w1, w0, #1
	str	w1, [x19, 12]
.L555:
	cmp	w0, 1
	bne	.L550
	ldr	x1, [x19]
	mov	x0, x19
	add	x21, x21, 32
	ldr	x1, [x1, 24]
	blr	x1
	ldr	x0, [sp, 96]
	cmp	x0, x21
	bne	.L546
.L556:
	adrp	x20, :got:__libc_single_threaded
	ldr	x20, [x20, #:got_lo12:__libc_single_threaded]
	cmp	x26, x24
	bne	.L547
	b	.L548
	.p2align 2,,3
.L558:
	add	x24, x24, 32
	cmp	x26, x24
	beq	.L548
.L547:
	ldr	x19, [x24, 24]
	cbz	x19, .L558
	ldrb	w0, [x20]
	cbz	w0, .L559
	ldr	w0, [x19, 8]
	sub	w1, w0, #1
	str	w1, [x19, 8]
.L560:
	cmp	w0, 1
	bne	.L558
	ldr	x1, [x19]
	mov	x0, x19
	ldr	x1, [x1, 16]
	blr	x1
	ldrb	w0, [x20]
	cbz	w0, .L562
	ldr	w0, [x19, 12]
	sub	w1, w0, #1
	str	w1, [x19, 12]
.L563:
	cmp	w0, 1
	bne	.L558
	ldr	x1, [x19]
	mov	x0, x19
	add	x24, x24, 32
	ldr	x1, [x1, 24]
	blr	x1
	cmp	x26, x24
	bne	.L547
	.p2align 3,,7
.L548:
	ldr	x0, [x23, 136]
	add	x21, x23, 136
	cbz	x0, .L545
	ldr	x20, [x21, 72]
	ldr	x19, [x21, 40]
	add	x20, x20, 8
	cmp	x19, x20
	bcs	.L571
	.p2align 3,,7
.L572:
	ldr	x0, [x19], 8
	mov	x1, 512
	bl	_ZdlPvm
	cmp	x20, x19
	bhi	.L572
	ldr	x0, [x23, 136]
.L571:
	ldr	x1, [x21, 8]
	lsl	x1, x1, 3
	bl	_ZdlPvm
.L545:
	ldr	x19, [x23, 112]
	add	x24, x23, 112
	ldr	x21, [x24, 8]
	cmp	x19, x21
	beq	.L573
	adrp	x22, :got:__libc_single_threaded
	ldr	x22, [x22, #:got_lo12:__libc_single_threaded]
	b	.L581
	.p2align 2,,3
.L575:
	add	x19, x19, 24
	cmp	x21, x19
	beq	.L637
.L581:
	ldr	x20, [x19, 16]
	cbz	x20, .L575
	ldrb	w0, [x22]
	cbz	w0, .L576
	ldr	w0, [x20, 8]
	sub	w1, w0, #1
	str	w1, [x20, 8]
.L577:
	cmp	w0, 1
	bne	.L575
	ldr	x1, [x20]
	mov	x0, x20
	ldr	x1, [x1, 16]
	blr	x1
	ldrb	w0, [x22]
	cbz	w0, .L579
	ldr	w0, [x20, 12]
	sub	w1, w0, #1
	str	w1, [x20, 12]
.L580:
	cmp	w0, 1
	bne	.L575
	ldr	x1, [x20]
	mov	x0, x20
	add	x19, x19, 24
	ldr	x1, [x1, 24]
	blr	x1
	cmp	x21, x19
	bne	.L581
	.p2align 3,,7
.L637:
	ldr	x21, [x23, 112]
.L573:
	cbz	x21, .L582
	ldr	x1, [x24, 16]
	mov	x0, x21
	sub	x1, x1, x21
	bl	_ZdlPvm
.L582:
	ldr	x20, [x23, 72]
	cbz	x20, .L584
	adrp	x19, :got:__libc_single_threaded
	ldr	x0, [x19, #:got_lo12:__libc_single_threaded]
	ldrb	w0, [x0]
	cbz	w0, .L585
	ldr	w0, [x20, 8]
	sub	w1, w0, #1
	str	w1, [x20, 8]
.L586:
	cmp	w0, 1
	beq	.L638
.L584:
	ldr	x20, [x23, 56]
	cbz	x20, .L591
	adrp	x19, :got:__libc_single_threaded
	ldr	x0, [x19, #:got_lo12:__libc_single_threaded]
	ldrb	w0, [x0]
	cbz	w0, .L592
	ldr	w0, [x20, 8]
	sub	w1, w0, #1
	str	w1, [x20, 8]
.L593:
	cmp	w0, 1
	beq	.L639
.L591:
	ldr	x20, [x23, 40]
	cbz	x20, .L598
	adrp	x19, :got:__libc_single_threaded
	ldr	x0, [x19, #:got_lo12:__libc_single_threaded]
	ldrb	w0, [x0]
	cbz	w0, .L599
	ldr	w0, [x20, 8]
	sub	w1, w0, #1
	str	w1, [x20, 8]
.L600:
	cmp	w0, 1
	beq	.L640
.L598:
	ldr	x19, [x23, 24]
	cbz	x19, .L504
	adrp	x0, :got:__libc_single_threaded
	ldr	x0, [x0, #:got_lo12:__libc_single_threaded]
	ldrb	w0, [x0]
	cbz	w0, .L606
	ldr	w0, [x19, 12]
	sub	w1, w0, #1
	str	w1, [x19, 12]
.L607:
	cmp	w0, 1
	beq	.L641
.L504:
	ldp	x19, x20, [sp, 16]
	ldp	x21, x22, [sp, 32]
	ldp	x23, x24, [sp, 48]
	ldp	x25, x26, [sp, 64]
	ldp	x29, x30, [sp], 112
	.cfi_restore 30
	.cfi_restore 29
	.cfi_restore 25
	.cfi_restore 26
	.cfi_restore 23
	.cfi_restore 24
	.cfi_restore 21
	.cfi_restore 22
	.cfi_restore 19
	.cfi_restore 20
	.cfi_def_cfa_offset 0
	ret
	.p2align 2,,3
.L536:
	.cfi_def_cfa_offset 112
	.cfi_offset 19, -96
	.cfi_offset 20, -88
	.cfi_offset 21, -80
	.cfi_offset 22, -72
	.cfi_offset 23, -64
	.cfi_offset 24, -56
	.cfi_offset 25, -48
	.cfi_offset 26, -40
	.cfi_offset 27, -32
	.cfi_offset 28, -24
	.cfi_offset 29, -112
	.cfi_offset 30, -104
	add	x1, x27, 8
	mov	w0, -1
	bl	__aarch64_ldadd4_acq_rel
	b	.L537
	.p2align 2,,3
.L539:
	add	x1, x27, 12
	mov	w0, -1
	bl	__aarch64_ldadd4_acq_rel
	b	.L540
	.p2align 2,,3
.L551:
	.cfi_restore 27
	.cfi_restore 28
	add	x1, x19, 8
	mov	w0, -1
	bl	__aarch64_ldadd4_acq_rel
	b	.L552
	.p2align 2,,3
.L576:
	add	x1, x20, 8
	mov	w0, -1
	bl	__aarch64_ldadd4_acq_rel
	b	.L577
	.p2align 2,,3
.L559:
	add	x1, x19, 8
	mov	w0, -1
	bl	__aarch64_ldadd4_acq_rel
	b	.L560
.L579:
	add	x1, x20, 12
	mov	w0, -1
	bl	__aarch64_ldadd4_acq_rel
	b	.L580
.L554:
	add	x1, x19, 12
	mov	w0, -1
	bl	__aarch64_ldadd4_acq_rel
	b	.L555
.L562:
	add	x1, x19, 12
	mov	w0, -1
	bl	__aarch64_ldadd4_acq_rel
	b	.L563
.L636:
	adrp	x20, :got:__libc_single_threaded
	ldr	x20, [x20, #:got_lo12:__libc_single_threaded]
	cmp	x21, x26
	bne	.L543
	b	.L548
	.p2align 2,,3
.L565:
	add	x21, x21, 32
	cmp	x26, x21
	beq	.L548
.L543:
	ldr	x19, [x21, 24]
	cbz	x19, .L565
	ldrb	w0, [x20]
	cbz	w0, .L566
	ldr	w0, [x19, 8]
	sub	w1, w0, #1
	str	w1, [x19, 8]
.L567:
	cmp	w0, 1
	bne	.L565
	ldr	x1, [x19]
	mov	x0, x19
	ldr	x1, [x1, 16]
	blr	x1
	ldrb	w0, [x20]
	cbz	w0, .L569
	ldr	w0, [x19, 12]
	sub	w1, w0, #1
	str	w1, [x19, 12]
.L570:
	cmp	w0, 1
	bne	.L565
	ldr	x1, [x19]
	mov	x0, x19
	ldr	x1, [x1, 24]
	blr	x1
	b	.L565
.L566:
	add	x1, x19, 8
	mov	w0, -1
	bl	__aarch64_ldadd4_acq_rel
	b	.L567
.L632:
	ldr	x1, [x20]
	mov	x0, x20
	ldr	x1, [x1, 16]
	blr	x1
	ldr	x19, [x19, #:got_lo12:__libc_single_threaded]
	ldrb	w0, [x19]
	cbz	w0, .L515
	ldr	w0, [x20, 12]
	sub	w1, w0, #1
	str	w1, [x20, 12]
.L516:
	cmp	w0, 1
	bne	.L512
	ldr	x1, [x20]
	mov	x0, x20
	ldr	x1, [x1, 24]
	blr	x1
	b	.L512
.L633:
	ldr	x1, [x20]
	mov	x0, x20
	ldr	x1, [x1, 16]
	blr	x1
	ldr	x19, [x19, #:got_lo12:__libc_single_threaded]
	ldrb	w0, [x19]
	cbz	w0, .L522
	ldr	w0, [x20, 12]
	sub	w1, w0, #1
	str	w1, [x20, 12]
.L523:
	cmp	w0, 1
	bne	.L518
	ldr	x1, [x20]
	mov	x0, x20
	ldr	x1, [x1, 24]
	blr	x1
	b	.L518
.L634:
	ldr	x1, [x20]
	mov	x0, x20
	ldr	x1, [x1, 16]
	blr	x1
	ldr	x19, [x19, #:got_lo12:__libc_single_threaded]
	ldrb	w0, [x19]
	cbz	w0, .L529
	ldr	w0, [x20, 12]
	sub	w1, w0, #1
	str	w1, [x20, 12]
.L530:
	cmp	w0, 1
	bne	.L525
	ldr	x1, [x20]
	mov	x0, x20
	ldr	x1, [x1, 24]
	blr	x1
	b	.L525
.L638:
	ldr	x1, [x20]
	mov	x0, x20
	ldr	x1, [x1, 16]
	blr	x1
	ldr	x19, [x19, #:got_lo12:__libc_single_threaded]
	ldrb	w0, [x19]
	cbz	w0, .L588
	ldr	w0, [x20, 12]
	sub	w1, w0, #1
	str	w1, [x20, 12]
.L589:
	cmp	w0, 1
	bne	.L584
	ldr	x1, [x20]
	mov	x0, x20
	ldr	x1, [x1, 24]
	blr	x1
	b	.L584
.L639:
	ldr	x1, [x20]
	mov	x0, x20
	ldr	x1, [x1, 16]
	blr	x1
	ldr	x19, [x19, #:got_lo12:__libc_single_threaded]
	ldrb	w0, [x19]
	cbz	w0, .L595
	ldr	w0, [x20, 12]
	sub	w1, w0, #1
	str	w1, [x20, 12]
.L596:
	cmp	w0, 1
	bne	.L591
	ldr	x1, [x20]
	mov	x0, x20
	ldr	x1, [x1, 24]
	blr	x1
	b	.L591
.L641:
	ldr	x1, [x19]
	mov	x0, x19
	ldp	x19, x20, [sp, 16]
	ldr	x1, [x1, 24]
	ldp	x21, x22, [sp, 32]
	mov	x16, x1
	ldp	x23, x24, [sp, 48]
	ldp	x25, x26, [sp, 64]
	ldp	x29, x30, [sp], 112
	.cfi_remember_state
	.cfi_restore 30
	.cfi_restore 29
	.cfi_restore 25
	.cfi_restore 26
	.cfi_restore 23
	.cfi_restore 24
	.cfi_restore 21
	.cfi_restore 22
	.cfi_restore 19
	.cfi_restore 20
	.cfi_def_cfa_offset 0
	br	x16
.L640:
	.cfi_restore_state
	ldr	x1, [x20]
	mov	x0, x20
	ldr	x1, [x1, 16]
	blr	x1
	ldr	x19, [x19, #:got_lo12:__libc_single_threaded]
	ldrb	w0, [x19]
	cbz	w0, .L602
	ldr	w0, [x20, 12]
	sub	w1, w0, #1
	str	w1, [x20, 12]
.L603:
	cmp	w0, 1
	bne	.L598
	ldr	x1, [x20]
	mov	x0, x20
	ldr	x1, [x1, 24]
	blr	x1
	b	.L598
.L592:
	add	x1, x20, 8
	mov	w0, -1
	bl	__aarch64_ldadd4_acq_rel
	b	.L593
.L513:
	add	x1, x20, 8
	mov	w0, -1
	bl	__aarch64_ldadd4_acq_rel
	b	.L514
.L519:
	add	x1, x20, 8
	mov	w0, -1
	bl	__aarch64_ldadd4_acq_rel
	b	.L520
.L526:
	add	x1, x20, 8
	mov	w0, -1
	bl	__aarch64_ldadd4_acq_rel
	b	.L527
.L606:
	add	x1, x19, 12
	mov	w0, -1
	bl	__aarch64_ldadd4_acq_rel
	b	.L607
.L599:
	add	x1, x20, 8
	mov	w0, -1
	bl	__aarch64_ldadd4_acq_rel
	b	.L600
.L585:
	add	x1, x20, 8
	mov	w0, -1
	bl	__aarch64_ldadd4_acq_rel
	b	.L586
.L569:
	add	x1, x19, 12
	mov	w0, -1
	bl	__aarch64_ldadd4_acq_rel
	b	.L570
.L515:
	add	x1, x20, 12
	mov	w0, -1
	bl	__aarch64_ldadd4_acq_rel
	b	.L516
.L588:
	add	x1, x20, 12
	mov	w0, -1
	bl	__aarch64_ldadd4_acq_rel
	b	.L589
.L595:
	add	x1, x20, 12
	mov	w0, -1
	bl	__aarch64_ldadd4_acq_rel
	b	.L596
.L602:
	add	x1, x20, 12
	mov	w0, -1
	bl	__aarch64_ldadd4_acq_rel
	b	.L603
.L522:
	add	x1, x20, 12
	mov	w0, -1
	bl	__aarch64_ldadd4_acq_rel
	b	.L523
.L529:
	add	x1, x20, 12
	mov	w0, -1
	bl	__aarch64_ldadd4_acq_rel
	b	.L530
	.cfi_endproc
.LFE7647:
	.size	_ZN8asiodnp39IOHandlerD2Ev, .-_ZN8asiodnp39IOHandlerD2Ev
	.set	.LTHUNK0,_ZN8asiodnp39IOHandlerD2Ev
	.align	2
	.p2align 4,,11
	.weak	_ZThn8_N8asiodnp39IOHandlerD1Ev
	.type	_ZThn8_N8asiodnp39IOHandlerD1Ev, %function
_ZThn8_N8asiodnp39IOHandlerD1Ev:
.LFB10690:
	.cfi_startproc
	sub	x0, x0, #8
	b	.LTHUNK0
	.cfi_endproc
.LFE10690:
	.size	_ZThn8_N8asiodnp39IOHandlerD1Ev, .-_ZThn8_N8asiodnp39IOHandlerD1Ev
	.weak	_ZN8asiodnp39IOHandlerD1Ev
	.set	_ZN8asiodnp39IOHandlerD1Ev,_ZN8asiodnp39IOHandlerD2Ev
	.section	.text._ZN8asiodnp318TCPClientIOHandlerD2Ev,"axG",@progbits,_ZN8asiodnp318TCPClientIOHandlerD5Ev,comdat
	.align	2
	.p2align 4,,11
	.weak	_ZN8asiodnp318TCPClientIOHandlerD2Ev
	.type	_ZN8asiodnp318TCPClientIOHandlerD2Ev, %function
_ZN8asiodnp318TCPClientIOHandlerD2Ev:
.LFB10434:
	.cfi_startproc
	stp	x29, x30, [sp, -48]!
	.cfi_def_cfa_offset 48
	.cfi_offset 29, -48
	.cfi_offset 30, -40
	adrp	x1, :got:_ZTVN8asiodnp318TCPClientIOHandlerE
	mov	x29, sp
	ldr	x1, [x1, #:got_lo12:_ZTVN8asiodnp318TCPClientIOHandlerE]
	stp	x19, x20, [sp, 16]
	.cfi_offset 19, -32
	.cfi_offset 20, -24
	mov	x19, x0
	add	x2, x1, 16
	add	x1, x1, 104
	str	x21, [sp, 32]
	.cfi_offset 21, -16
	add	x0, x0, 928
	stp	x2, x1, [x19]
	bl	_ZN7openpal8TimerRefD1Ev
	ldr	x20, [x19, 920]
	cbz	x20, .L644
	adrp	x21, :got:__libc_single_threaded
	ldr	x0, [x21, #:got_lo12:__libc_single_threaded]
	ldrb	w0, [x0]
	cbz	w0, .L645
	ldr	w0, [x20, 8]
	sub	w1, w0, #1
	str	w1, [x20, 8]
.L646:
	cmp	w0, 1
	beq	.L660
.L644:
	ldr	x0, [x19, 880]
	add	x1, x19, 896
	cmp	x0, x1
	beq	.L650
	ldr	x1, [x19, 896]
	add	x1, x1, 1
	bl	_ZdlPvm
.L650:
	ldr	x0, [x19, 840]
	add	x1, x19, 856
	cmp	x0, x1
	beq	.L651
	ldr	x1, [x19, 856]
	add	x1, x1, 1
	bl	_ZdlPvm
.L651:
	ldr	x20, [x19, 808]
	cbz	x20, .L653
	adrp	x21, :got:__libc_single_threaded
	ldr	x0, [x21, #:got_lo12:__libc_single_threaded]
	ldrb	w0, [x0]
	cbz	w0, .L654
	ldr	w0, [x20, 8]
	sub	w1, w0, #1
	str	w1, [x20, 8]
.L655:
	cmp	w0, 1
	beq	.L661
.L653:
	mov	x0, x19
	ldp	x19, x20, [sp, 16]
	ldr	x21, [sp, 32]
	ldp	x29, x30, [sp], 48
	.cfi_remember_state
	.cfi_restore 30
	.cfi_restore 29
	.cfi_restore 21
	.cfi_restore 19
	.cfi_restore 20
	.cfi_def_cfa_offset 0
	b	_ZN8asiodnp39IOHandlerD2Ev
	.p2align 2,,3
.L660:
	.cfi_restore_state
	ldr	x1, [x20]
	mov	x0, x20
	ldr	x1, [x1, 16]
	blr	x1
	ldr	x21, [x21, #:got_lo12:__libc_single_threaded]
	ldrb	w0, [x21]
	cbz	w0, .L648
	ldr	w0, [x20, 12]
	sub	w1, w0, #1
	str	w1, [x20, 12]
.L649:
	cmp	w0, 1
	bne	.L644
	ldr	x1, [x20]
	mov	x0, x20
	ldr	x1, [x1, 24]
	blr	x1
	b	.L644
	.p2align 2,,3
.L661:
	ldr	x1, [x20]
	mov	x0, x20
	ldr	x1, [x1, 16]
	blr	x1
	ldr	x21, [x21, #:got_lo12:__libc_single_threaded]
	ldrb	w0, [x21]
	cbz	w0, .L657
	ldr	w0, [x20, 12]
	sub	w1, w0, #1
	str	w1, [x20, 12]
.L658:
	cmp	w0, 1
	bne	.L653
	ldr	x1, [x20]
	mov	x0, x20
	ldr	x1, [x1, 24]
	blr	x1
	b	.L653
	.p2align 2,,3
.L654:
	add	x1, x20, 8
	mov	w0, -1
	bl	__aarch64_ldadd4_acq_rel
	b	.L655
	.p2align 2,,3
.L645:
	add	x1, x20, 8
	mov	w0, -1
	bl	__aarch64_ldadd4_acq_rel
	b	.L646
	.p2align 2,,3
.L648:
	add	x1, x20, 12
	mov	w0, -1
	bl	__aarch64_ldadd4_acq_rel
	b	.L649
	.p2align 2,,3
.L657:
	add	x1, x20, 12
	mov	w0, -1
	bl	__aarch64_ldadd4_acq_rel
	b	.L658
	.cfi_endproc
.LFE10434:
	.size	_ZN8asiodnp318TCPClientIOHandlerD2Ev, .-_ZN8asiodnp318TCPClientIOHandlerD2Ev
	.weak	_ZN8asiodnp318TCPClientIOHandlerD1Ev
	.set	_ZN8asiodnp318TCPClientIOHandlerD1Ev,_ZN8asiodnp318TCPClientIOHandlerD2Ev
	.section	.text._ZN8asiodnp318TCPClientIOHandlerD0Ev,"axG",@progbits,_ZN8asiodnp318TCPClientIOHandlerD5Ev,comdat
	.align	2
	.p2align 4,,11
	.weak	_ZN8asiodnp318TCPClientIOHandlerD0Ev
	.type	_ZN8asiodnp318TCPClientIOHandlerD0Ev, %function
_ZN8asiodnp318TCPClientIOHandlerD0Ev:
.LFB10436:
	.cfi_startproc
	stp	x29, x30, [sp, -48]!
	.cfi_def_cfa_offset 48
	.cfi_offset 29, -48
	.cfi_offset 30, -40
	adrp	x1, :got:_ZTVN8asiodnp318TCPClientIOHandlerE
	mov	x29, sp
	ldr	x1, [x1, #:got_lo12:_ZTVN8asiodnp318TCPClientIOHandlerE]
	stp	x19, x20, [sp, 16]
	.cfi_offset 19, -32
	.cfi_offset 20, -24
	mov	x19, x0
	add	x2, x1, 16
	add	x1, x1, 104
	str	x21, [sp, 32]
	.cfi_offset 21, -16
	add	x0, x0, 928
	stp	x2, x1, [x19]
	bl	_ZN7openpal8TimerRefD1Ev
	ldr	x20, [x19, 920]
	cbz	x20, .L664
	adrp	x21, :got:__libc_single_threaded
	ldr	x0, [x21, #:got_lo12:__libc_single_threaded]
	ldrb	w0, [x0]
	cbz	w0, .L665
	ldr	w0, [x20, 8]
	sub	w1, w0, #1
	str	w1, [x20, 8]
.L666:
	cmp	w0, 1
	beq	.L680
.L664:
	ldr	x0, [x19, 880]
	add	x1, x19, 896
	cmp	x0, x1
	beq	.L670
	ldr	x1, [x19, 896]
	add	x1, x1, 1
	bl	_ZdlPvm
.L670:
	ldr	x0, [x19, 840]
	add	x1, x19, 856
	cmp	x0, x1
	beq	.L671
	ldr	x1, [x19, 856]
	add	x1, x1, 1
	bl	_ZdlPvm
.L671:
	ldr	x20, [x19, 808]
	cbz	x20, .L673
	adrp	x21, :got:__libc_single_threaded
	ldr	x0, [x21, #:got_lo12:__libc_single_threaded]
	ldrb	w0, [x0]
	cbz	w0, .L674
	ldr	w0, [x20, 8]
	sub	w1, w0, #1
	str	w1, [x20, 8]
.L675:
	cmp	w0, 1
	beq	.L681
.L673:
	mov	x0, x19
	bl	_ZN8asiodnp39IOHandlerD2Ev
	mov	x0, x19
	mov	x1, 944
	ldp	x19, x20, [sp, 16]
	ldr	x21, [sp, 32]
	ldp	x29, x30, [sp], 48
	.cfi_remember_state
	.cfi_restore 30
	.cfi_restore 29
	.cfi_restore 21
	.cfi_restore 19
	.cfi_restore 20
	.cfi_def_cfa_offset 0
	b	_ZdlPvm
	.p2align 2,,3
.L680:
	.cfi_restore_state
	ldr	x1, [x20]
	mov	x0, x20
	ldr	x1, [x1, 16]
	blr	x1
	ldr	x21, [x21, #:got_lo12:__libc_single_threaded]
	ldrb	w0, [x21]
	cbz	w0, .L668
	ldr	w0, [x20, 12]
	sub	w1, w0, #1
	str	w1, [x20, 12]
.L669:
	cmp	w0, 1
	bne	.L664
	ldr	x1, [x20]
	mov	x0, x20
	ldr	x1, [x1, 24]
	blr	x1
	b	.L664
	.p2align 2,,3
.L681:
	ldr	x1, [x20]
	mov	x0, x20
	ldr	x1, [x1, 16]
	blr	x1
	ldr	x21, [x21, #:got_lo12:__libc_single_threaded]
	ldrb	w0, [x21]
	cbz	w0, .L677
	ldr	w0, [x20, 12]
	sub	w1, w0, #1
	str	w1, [x20, 12]
.L678:
	cmp	w0, 1
	bne	.L673
	ldr	x1, [x20]
	mov	x0, x20
	ldr	x1, [x1, 24]
	blr	x1
	b	.L673
	.p2align 2,,3
.L674:
	add	x1, x20, 8
	mov	w0, -1
	bl	__aarch64_ldadd4_acq_rel
	b	.L675
	.p2align 2,,3
.L665:
	add	x1, x20, 8
	mov	w0, -1
	bl	__aarch64_ldadd4_acq_rel
	b	.L666
	.p2align 2,,3
.L668:
	add	x1, x20, 12
	mov	w0, -1
	bl	__aarch64_ldadd4_acq_rel
	b	.L669
	.p2align 2,,3
.L677:
	add	x1, x20, 12
	mov	w0, -1
	bl	__aarch64_ldadd4_acq_rel
	b	.L678
	.cfi_endproc
.LFE10436:
	.size	_ZN8asiodnp318TCPClientIOHandlerD0Ev, .-_ZN8asiodnp318TCPClientIOHandlerD0Ev
	.align	2
	.p2align 4,,11
	.weak	_ZThn8_N8asiodnp318TCPClientIOHandlerD0Ev
	.type	_ZThn8_N8asiodnp318TCPClientIOHandlerD0Ev, %function
_ZThn8_N8asiodnp318TCPClientIOHandlerD0Ev:
.LFB10673:
	.cfi_startproc
	stp	x29, x30, [sp, -48]!
	.cfi_def_cfa_offset 48
	.cfi_offset 29, -48
	.cfi_offset 30, -40
	adrp	x1, :got:_ZTVN8asiodnp318TCPClientIOHandlerE
	mov	x29, sp
	ldr	x1, [x1, #:got_lo12:_ZTVN8asiodnp318TCPClientIOHandlerE]
	stp	x19, x20, [sp, 16]
	.cfi_offset 19, -32
	.cfi_offset 20, -24
	mov	x19, x0
	mov	x20, x0
	stp	x21, x22, [sp, 32]
	.cfi_offset 21, -16
	.cfi_offset 22, -8
	add	x2, x1, 16
	add	x1, x1, 104
	str	x2, [x19, -8]
	str	x1, [x20], -8
	add	x0, x0, 920
	bl	_ZN7openpal8TimerRefD1Ev
	ldr	x21, [x19, 912]
	cbz	x21, .L684
	adrp	x22, :got:__libc_single_threaded
	ldr	x0, [x22, #:got_lo12:__libc_single_threaded]
	ldrb	w0, [x0]
	cbz	w0, .L685
	ldr	w0, [x21, 8]
	sub	w1, w0, #1
	str	w1, [x21, 8]
.L686:
	cmp	w0, 1
	beq	.L700
.L684:
	ldr	x0, [x19, 872]
	add	x1, x19, 888
	cmp	x0, x1
	beq	.L690
	ldr	x1, [x19, 888]
	add	x1, x1, 1
	bl	_ZdlPvm
.L690:
	ldr	x0, [x19, 832]
	add	x1, x19, 848
	cmp	x0, x1
	beq	.L691
	ldr	x1, [x19, 848]
	add	x1, x1, 1
	bl	_ZdlPvm
.L691:
	ldr	x19, [x19, 800]
	cbz	x19, .L693
	adrp	x22, :got:__libc_single_threaded
	ldr	x0, [x22, #:got_lo12:__libc_single_threaded]
	ldrb	w0, [x0]
	cbz	w0, .L694
	ldr	w0, [x19, 8]
	sub	w1, w0, #1
	str	w1, [x19, 8]
.L695:
	cmp	w0, 1
	beq	.L701
.L693:
	mov	x0, x20
	bl	_ZN8asiodnp39IOHandlerD2Ev
	mov	x0, x20
	mov	x1, 944
	ldp	x19, x20, [sp, 16]
	ldp	x21, x22, [sp, 32]
	ldp	x29, x30, [sp], 48
	.cfi_remember_state
	.cfi_restore 30
	.cfi_restore 29
	.cfi_restore 21
	.cfi_restore 22
	.cfi_restore 19
	.cfi_restore 20
	.cfi_def_cfa_offset 0
	b	_ZdlPvm
	.p2align 2,,3
.L700:
	.cfi_restore_state
	ldr	x1, [x21]
	mov	x0, x21
	ldr	x1, [x1, 16]
	blr	x1
	ldr	x22, [x22, #:got_lo12:__libc_single_threaded]
	ldrb	w0, [x22]
	cbz	w0, .L688
	ldr	w0, [x21, 12]
	sub	w1, w0, #1
	str	w1, [x21, 12]
.L689:
	cmp	w0, 1
	bne	.L684
	ldr	x1, [x21]
	mov	x0, x21
	ldr	x1, [x1, 24]
	blr	x1
	b	.L684
	.p2align 2,,3
.L701:
	ldr	x1, [x19]
	mov	x0, x19
	ldr	x1, [x1, 16]
	blr	x1
	ldr	x22, [x22, #:got_lo12:__libc_single_threaded]
	ldrb	w0, [x22]
	cbz	w0, .L697
	ldr	w0, [x19, 12]
	sub	w1, w0, #1
	str	w1, [x19, 12]
.L698:
	cmp	w0, 1
	bne	.L693
	ldr	x1, [x19]
	mov	x0, x19
	ldr	x1, [x1, 24]
	blr	x1
	b	.L693
	.p2align 2,,3
.L694:
	add	x1, x19, 8
	mov	w0, -1
	bl	__aarch64_ldadd4_acq_rel
	b	.L695
	.p2align 2,,3
.L685:
	add	x1, x21, 8
	mov	w0, -1
	bl	__aarch64_ldadd4_acq_rel
	b	.L686
	.p2align 2,,3
.L688:
	add	x1, x21, 12
	mov	w0, -1
	bl	__aarch64_ldadd4_acq_rel
	b	.L689
	.p2align 2,,3
.L697:
	add	x1, x19, 12
	mov	w0, -1
	bl	__aarch64_ldadd4_acq_rel
	b	.L698
	.cfi_endproc
.LFE10673:
	.size	_ZThn8_N8asiodnp318TCPClientIOHandlerD0Ev, .-_ZThn8_N8asiodnp318TCPClientIOHandlerD0Ev
	.section	.text._ZN8asiodnp318TCPClientIOHandlerD2Ev,"axG",@progbits,_ZN8asiodnp318TCPClientIOHandlerD5Ev,comdat
	.align	2
	.p2align 4,,11
	.weak	_ZThn8_N8asiodnp318TCPClientIOHandlerD1Ev
	.type	_ZThn8_N8asiodnp318TCPClientIOHandlerD1Ev, %function
_ZThn8_N8asiodnp318TCPClientIOHandlerD1Ev:
.LFB10674:
	.cfi_startproc
	stp	x29, x30, [sp, -48]!
	.cfi_def_cfa_offset 48
	.cfi_offset 29, -48
	.cfi_offset 30, -40
	adrp	x1, :got:_ZTVN8asiodnp318TCPClientIOHandlerE
	mov	x29, sp
	ldr	x1, [x1, #:got_lo12:_ZTVN8asiodnp318TCPClientIOHandlerE]
	stp	x19, x20, [sp, 16]
	.cfi_offset 19, -32
	.cfi_offset 20, -24
	mov	x19, x0
	mov	x20, x0
	stp	x21, x22, [sp, 32]
	.cfi_offset 21, -16
	.cfi_offset 22, -8
	add	x2, x1, 16
	add	x1, x1, 104
	str	x2, [x19, -8]
	str	x1, [x20], -8
	add	x0, x0, 920
	bl	_ZN7openpal8TimerRefD1Ev
	ldr	x21, [x19, 912]
	cbz	x21, .L704
	adrp	x22, :got:__libc_single_threaded
	ldr	x0, [x22, #:got_lo12:__libc_single_threaded]
	ldrb	w0, [x0]
	cbz	w0, .L705
	ldr	w0, [x21, 8]
	sub	w1, w0, #1
	str	w1, [x21, 8]
.L706:
	cmp	w0, 1
	beq	.L720
.L704:
	ldr	x0, [x19, 872]
	add	x1, x19, 888
	cmp	x0, x1
	beq	.L710
	ldr	x1, [x19, 888]
	add	x1, x1, 1
	bl	_ZdlPvm
.L710:
	ldr	x0, [x19, 832]
	add	x1, x19, 848
	cmp	x0, x1
	beq	.L711
	ldr	x1, [x19, 848]
	add	x1, x1, 1
	bl	_ZdlPvm
.L711:
	ldr	x19, [x19, 800]
	cbz	x19, .L713
	adrp	x22, :got:__libc_single_threaded
	ldr	x0, [x22, #:got_lo12:__libc_single_threaded]
	ldrb	w0, [x0]
	cbz	w0, .L714
	ldr	w0, [x19, 8]
	sub	w1, w0, #1
	str	w1, [x19, 8]
.L715:
	cmp	w0, 1
	beq	.L721
.L713:
	mov	x0, x20
	ldp	x19, x20, [sp, 16]
	ldp	x21, x22, [sp, 32]
	ldp	x29, x30, [sp], 48
	.cfi_remember_state
	.cfi_restore 30
	.cfi_restore 29
	.cfi_restore 21
	.cfi_restore 22
	.cfi_restore 19
	.cfi_restore 20
	.cfi_def_cfa_offset 0
	b	_ZN8asiodnp39IOHandlerD2Ev
	.p2align 2,,3
.L720:
	.cfi_restore_state
	ldr	x1, [x21]
	mov	x0, x21
	ldr	x1, [x1, 16]
	blr	x1
	ldr	x22, [x22, #:got_lo12:__libc_single_threaded]
	ldrb	w0, [x22]
	cbz	w0, .L708
	ldr	w0, [x21, 12]
	sub	w1, w0, #1
	str	w1, [x21, 12]
.L709:
	cmp	w0, 1
	bne	.L704
	ldr	x1, [x21]
	mov	x0, x21
	ldr	x1, [x1, 24]
	blr	x1
	b	.L704
	.p2align 2,,3
.L721:
	ldr	x1, [x19]
	mov	x0, x19
	ldr	x1, [x1, 16]
	blr	x1
	ldr	x22, [x22, #:got_lo12:__libc_single_threaded]
	ldrb	w0, [x22]
	cbz	w0, .L717
	ldr	w0, [x19, 12]
	sub	w1, w0, #1
	str	w1, [x19, 12]
.L718:
	cmp	w0, 1
	bne	.L713
	ldr	x1, [x19]
	mov	x0, x19
	ldr	x1, [x1, 24]
	blr	x1
	b	.L713
	.p2align 2,,3
.L714:
	add	x1, x19, 8
	mov	w0, -1
	bl	__aarch64_ldadd4_acq_rel
	b	.L715
	.p2align 2,,3
.L705:
	add	x1, x21, 8
	mov	w0, -1
	bl	__aarch64_ldadd4_acq_rel
	b	.L706
	.p2align 2,,3
.L708:
	add	x1, x21, 12
	mov	w0, -1
	bl	__aarch64_ldadd4_acq_rel
	b	.L709
	.p2align 2,,3
.L717:
	add	x1, x19, 12
	mov	w0, -1
	bl	__aarch64_ldadd4_acq_rel
	b	.L718
	.cfi_endproc
.LFE10674:
	.size	_ZThn8_N8asiodnp318TCPClientIOHandlerD1Ev, .-_ZThn8_N8asiodnp318TCPClientIOHandlerD1Ev
	.section	.text._ZN8asiodnp39IOHandlerD0Ev,"axG",@progbits,_ZN8asiodnp39IOHandlerD5Ev,comdat
	.align	2
	.p2align 4,,11
	.weak	_ZN8asiodnp39IOHandlerD0Ev
	.type	_ZN8asiodnp39IOHandlerD0Ev, %function
_ZN8asiodnp39IOHandlerD0Ev:
.LFB7649:
	.cfi_startproc
	stp	x29, x30, [sp, -32]!
	.cfi_def_cfa_offset 32
	.cfi_offset 29, -32
	.cfi_offset 30, -24
	mov	x29, sp
	str	x19, [sp, 16]
	.cfi_offset 19, -16
	mov	x19, x0
	bl	_ZN8asiodnp39IOHandlerD1Ev
	mov	x0, x19
	mov	x1, 800
	ldr	x19, [sp, 16]
	ldp	x29, x30, [sp], 32
	.cfi_restore 30
	.cfi_restore 29
	.cfi_restore 19
	.cfi_def_cfa_offset 0
	b	_ZdlPvm
	.cfi_endproc
.LFE7649:
	.size	_ZN8asiodnp39IOHandlerD0Ev, .-_ZN8asiodnp39IOHandlerD0Ev
	.align	2
	.p2align 4,,11
	.weak	_ZThn8_N8asiodnp39IOHandlerD0Ev
	.type	_ZThn8_N8asiodnp39IOHandlerD0Ev, %function
_ZThn8_N8asiodnp39IOHandlerD0Ev:
.LFB10672:
	.cfi_startproc
	stp	x29, x30, [sp, -32]!
	.cfi_def_cfa_offset 32
	.cfi_offset 29, -32
	.cfi_offset 30, -24
	mov	x29, sp
	str	x19, [sp, 16]
	.cfi_offset 19, -16
	sub	x19, x0, #8
	mov	x0, x19
	bl	_ZN8asiodnp39IOHandlerD1Ev
	mov	x0, x19
	mov	x1, 800
	ldr	x19, [sp, 16]
	ldp	x29, x30, [sp], 32
	.cfi_restore 30
	.cfi_restore 29
	.cfi_restore 19
	.cfi_def_cfa_offset 0
	b	_ZdlPvm
	.cfi_endproc
.LFE10672:
	.size	_ZThn8_N8asiodnp39IOHandlerD0Ev, .-_ZThn8_N8asiodnp39IOHandlerD0Ev
	.section	.rodata.str1.8,"aMS",@progbits,1
	.align	3
.LC21:
	.string	"Connecting to: %s"
	.align	3
.LC22:
	.string	"/home/jaehyun/OpenPLC_v3/utils/dnp3_src/cpp/libs/src/asiodnp3/TCPClientIOHandler.cpp(70)"
	.global	__aarch64_cas4_acq_rel
	.text
	.align	2
	.p2align 4,,11
	.global	_ZN8asiodnp318TCPClientIOHandler12StartConnectERKSt10shared_ptrIN7asiopal9TCPClientEERKN7openpal12TimeDurationE
	.type	_ZN8asiodnp318TCPClientIOHandler12StartConnectERKSt10shared_ptrIN7asiopal9TCPClientEERKN7openpal12TimeDurationE, %function
_ZN8asiodnp318TCPClientIOHandler12StartConnectERKSt10shared_ptrIN7asiopal9TCPClientEERKN7openpal12TimeDurationE:
.LFB7737:
	.cfi_startproc
	.cfi_personality 0x9b,DW.ref.__gxx_personality_v0
	.cfi_lsda 0x1b,.LLSDA7737
	stp	x29, x30, [sp, -304]!
	.cfi_def_cfa_offset 304
	.cfi_offset 29, -304
	.cfi_offset 30, -296
	adrp	x3, :got:__stack_chk_guard
	mov	x29, sp
	ldr	x3, [x3, #:got_lo12:__stack_chk_guard]
	stp	x19, x20, [sp, 16]
	.cfi_offset 19, -288
	.cfi_offset 20, -280
	add	x20, x0, 32
	stp	x21, x22, [sp, 32]
	.cfi_offset 21, -272
	.cfi_offset 22, -264
	add	x22, sp, 96
	mov	x21, x0
	stp	x23, x24, [sp, 48]
	.cfi_offset 23, -256
	.cfi_offset 24, -248
	mov	x23, x1
	mov	w19, 8
	stp	x25, x26, [sp, 64]
	mov	x24, x2
	mov	x0, x20
	str	x27, [sp, 80]
	.cfi_offset 25, -240
	.cfi_offset 26, -232
	.cfi_offset 27, -224
	ldr	x1, [x3]
	str	x1, [sp, 296]
	mov	x1, 0
	str	w19, [sp, 96]
	mov	x1, x22
.LEHB8:
	bl	_ZNK7openpal6Logger9IsEnabledERKNS_10LogFiltersE
.LEHE8:
	tst	w0, 255
	bne	.L801
.L727:
	ldr	x22, [x21, 24]
	cbz	x22, .L728
	add	x25, x22, 8
	ldr	w19, [x25]
.L730:
	cbz	w19, .L728
	add	w1, w19, 1
	mov	w0, w19
	mov	x2, x25
	bl	__aarch64_cas4_acq_rel
	cmp	w0, w19
	mov	w19, w0
	bne	.L730
	ldp	x27, x20, [x23]
	adrp	x23, :got:__libc_single_threaded
	ldr	x0, [x24]
	str	x0, [sp, 120]
	ldr	x24, [x21, 16]
	cbz	x20, .L732
	ldr	x0, [x23, #:got_lo12:__libc_single_threaded]
	ldrb	w0, [x0]
	cbz	w0, .L731
	ldr	w0, [x20, 8]
	add	w0, w0, 1
	str	w0, [x20, 8]
.L732:
	mov	x0, 48
	stp	xzr, xzr, [sp, 144]
	stp	xzr, xzr, [sp, 160]
	ldr	x26, [x21, 912]
.LEHB9:
	bl	_Znwm
.LEHE9:
	ldr	x1, [x23, #:got_lo12:__libc_single_threaded]
	mov	x19, x0
	ldrb	w0, [x1]
	stp	x24, x22, [x19]
	cbz	w0, .L733
	ldr	w0, [x22, 8]
	add	w0, w0, 1
	str	w0, [x22, 8]
.L734:
	ldr	x0, [sp, 120]
	stp	x21, x0, [x19, 16]
	stp	x27, x20, [x19, 32]
	cbz	x20, .L735
	ldr	x0, [x23, #:got_lo12:__libc_single_threaded]
	ldrb	w0, [x0]
	cbz	w0, .L736
	ldr	w0, [x20, 8]
	add	w0, w0, 1
	str	w0, [x20, 8]
.L735:
	adrp	x2, _ZNSt17_Function_handlerIFvRKSt10shared_ptrIN7asiopal8ExecutorEEN4asio19basic_stream_socketINS6_2ip3tcpENS6_21stream_socket_serviceIS9_EEEERKSt10error_codeEZN8asiodnp318TCPClientIOHandler12StartConnectERKS0_INS1_9TCPClientEERKN7openpal12TimeDurationEEUlS5_SC_SF_E_E9_M_invokeERKSt9_Any_dataS5_OSC_SF_
	adrp	x3, _ZNSt17_Function_handlerIFvRKSt10shared_ptrIN7asiopal8ExecutorEEN4asio19basic_stream_socketINS6_2ip3tcpENS6_21stream_socket_serviceIS9_EEEERKSt10error_codeEZN8asiodnp318TCPClientIOHandler12StartConnectERKS0_INS1_9TCPClientEERKN7openpal12TimeDurationEEUlS5_SC_SF_E_E10_M_managerERSt9_Any_dataRKST_St18_Manager_operation
	add	x2, x2, :lo12:_ZNSt17_Function_handlerIFvRKSt10shared_ptrIN7asiopal8ExecutorEEN4asio19basic_stream_socketINS6_2ip3tcpENS6_21stream_socket_serviceIS9_EEEERKSt10error_codeEZN8asiodnp318TCPClientIOHandler12StartConnectERKS0_INS1_9TCPClientEERKN7openpal12TimeDurationEEUlS5_SC_SF_E_E9_M_invokeERKSt9_Any_dataS5_OSC_SF_
	add	x3, x3, :lo12:_ZNSt17_Function_handlerIFvRKSt10shared_ptrIN7asiopal8ExecutorEEN4asio19basic_stream_socketINS6_2ip3tcpENS6_21stream_socket_serviceIS9_EEEERKSt10error_codeEZN8asiodnp318TCPClientIOHandler12StartConnectERKS0_INS1_9TCPClientEERKN7openpal12TimeDurationEEUlS5_SC_SF_E_E10_M_managerERSt9_Any_dataRKST_St18_Manager_operation
	add	x21, sp, 144
	mov	x0, x26
	mov	x1, x21
	str	x19, [sp, 144]
	stp	x3, x2, [sp, 160]
.LEHB10:
	bl	_ZN7asiopal9TCPClient12BeginConnectERKSt8functionIFvRKSt10shared_ptrINS_8ExecutorEEN4asio19basic_stream_socketINS7_2ip3tcpENS7_21stream_socket_serviceISA_EEEERKSt10error_codeEE
.LEHE10:
	ldr	x3, [sp, 160]
	cbz	x3, .L741
	mov	x1, x21
	mov	x0, x21
	mov	w2, 3
	blr	x3
.L741:
	ldr	x0, [x23, #:got_lo12:__libc_single_threaded]
	ldrb	w0, [x0]
	cbz	x20, .L743
	cbz	w0, .L744
	ldr	w0, [x20, 8]
	sub	w1, w0, #1
	str	w1, [x20, 8]
.L745:
	cmp	w0, 1
	beq	.L802
.L743:
	ldr	x0, [x23, #:got_lo12:__libc_single_threaded]
	ldrb	w0, [x0]
	cbz	w0, .L749
	ldr	w0, [x22, 8]
	sub	w1, w0, #1
	str	w1, [x22, 8]
	cmp	w0, 1
	beq	.L803
.L726:
	adrp	x0, :got:__stack_chk_guard
	ldr	x0, [x0, #:got_lo12:__stack_chk_guard]
	ldr	x2, [sp, 296]
	ldr	x1, [x0]
	subs	x2, x2, x1
	mov	x1, 0
	bne	.L800
	ldp	x19, x20, [sp, 16]
	ldp	x21, x22, [sp, 32]
	ldp	x23, x24, [sp, 48]
	ldp	x25, x26, [sp, 64]
	ldr	x27, [sp, 80]
	ldp	x29, x30, [sp], 304
	.cfi_remember_state
	.cfi_restore 30
	.cfi_restore 29
	.cfi_restore 27
	.cfi_restore 25
	.cfi_restore 26
	.cfi_restore 23
	.cfi_restore 24
	.cfi_restore 21
	.cfi_restore 22
	.cfi_restore 19
	.cfi_restore 20
	.cfi_def_cfa_offset 0
	ret
	.p2align 2,,3
.L736:
	.cfi_restore_state
	add	x1, x20, 8
	mov	w0, 1
	bl	__aarch64_ldadd4_acq_rel
	b	.L735
	.p2align 2,,3
.L731:
	add	x1, x20, 8
	mov	w0, 1
	bl	__aarch64_ldadd4_acq_rel
	b	.L732
	.p2align 2,,3
.L801:
	ldr	x5, [x21, 840]
	adrp	x4, .LC21
	add	x4, x4, :lo12:.LC21
	add	x25, sp, 176
	mov	x3, 120
	mov	x0, x25
	mov	x1, x3
	mov	w2, 1
	bl	__snprintf_chk
	str	w19, [sp, 96]
	mov	x3, x25
	mov	x1, x22
	mov	x0, x20
	adrp	x2, .LC22
	add	x2, x2, :lo12:.LC22
.LEHB11:
	bl	_ZN7openpal6Logger3LogERKNS_10LogFiltersEPKcS5_
.LEHE11:
	b	.L727
	.p2align 2,,3
.L733:
	mov	x1, x25
	mov	w0, 1
	bl	__aarch64_ldadd4_acq_rel
	b	.L734
	.p2align 2,,3
.L802:
	ldr	x1, [x20]
	mov	x0, x20
	ldr	x1, [x1, 16]
	blr	x1
	ldr	x0, [x23, #:got_lo12:__libc_single_threaded]
	ldrb	w0, [x0]
	cbz	w0, .L747
	ldr	w0, [x20, 12]
	sub	w1, w0, #1
	str	w1, [x20, 12]
.L748:
	cmp	w0, 1
	bne	.L743
	ldr	x1, [x20]
	mov	x0, x20
	ldr	x1, [x1, 24]
	blr	x1
	b	.L743
	.p2align 2,,3
.L803:
	ldr	x1, [x22]
	mov	x0, x22
	ldr	x1, [x1, 16]
	blr	x1
	ldr	x23, [x23, #:got_lo12:__libc_single_threaded]
	ldrb	w0, [x23]
	cbz	w0, .L753
	ldr	w0, [x22, 12]
	sub	w1, w0, #1
	str	w1, [x22, 12]
.L754:
	cmp	w0, 1
	bne	.L726
	adrp	x0, :got:__stack_chk_guard
	ldr	x0, [x0, #:got_lo12:__stack_chk_guard]
	ldr	x2, [sp, 296]
	ldr	x1, [x0]
	subs	x2, x2, x1
	mov	x1, 0
	bne	.L800
	ldr	x1, [x22]
	mov	x0, x22
	ldp	x19, x20, [sp, 16]
	ldr	x1, [x1, 24]
	ldp	x21, x22, [sp, 32]
	mov	x16, x1
	ldp	x23, x24, [sp, 48]
	ldp	x25, x26, [sp, 64]
	ldr	x27, [sp, 80]
	ldp	x29, x30, [sp], 304
	.cfi_remember_state
	.cfi_restore 30
	.cfi_restore 29
	.cfi_restore 27
	.cfi_restore 25
	.cfi_restore 26
	.cfi_restore 23
	.cfi_restore 24
	.cfi_restore 21
	.cfi_restore 22
	.cfi_restore 19
	.cfi_restore 20
	.cfi_def_cfa_offset 0
	br	x16
	.p2align 2,,3
.L744:
	.cfi_restore_state
	add	x1, x20, 8
	mov	w0, -1
	bl	__aarch64_ldadd4_acq_rel
	b	.L745
	.p2align 2,,3
.L749:
	mov	x1, x25
	mov	w0, -1
	bl	__aarch64_ldadd4_acq_rel
	cmp	w0, 1
	bne	.L726
	b	.L803
	.p2align 2,,3
.L747:
	add	x1, x20, 12
	mov	w0, -1
	bl	__aarch64_ldadd4_acq_rel
	b	.L748
	.p2align 2,,3
.L753:
	add	x1, x22, 12
	mov	w0, -1
	bl	__aarch64_ldadd4_acq_rel
	b	.L754
.L800:
	bl	__stack_chk_fail
.L775:
	ldr	x3, [sp, 160]
	mov	x19, x0
	cbz	x3, .L740
	mov	x1, x21
	mov	x0, x21
	mov	w2, 3
	blr	x3
.L740:
	ldr	x0, [x23, #:got_lo12:__libc_single_threaded]
	ldrb	w0, [x0]
	cbz	x20, .L760
	add	x1, x20, 8
	cbnz	w0, .L804
	mov	w0, -1
	bl	__aarch64_ldadd4_acq_rel
.L762:
	cmp	w0, 1
	bne	.L760
	ldr	x1, [x20]
	mov	x0, x20
	ldr	x1, [x1, 16]
	blr	x1
	ldr	x0, [x23, #:got_lo12:__libc_single_threaded]
	add	x1, x20, 12
	ldrb	w0, [x0]
	cbnz	w0, .L805
	mov	w0, -1
	bl	__aarch64_ldadd4_acq_rel
.L765:
	cmp	w0, 1
	bne	.L760
	ldr	x1, [x20]
	mov	x0, x20
	ldr	x1, [x1, 24]
	blr	x1
.L760:
	ldr	x0, [x23, #:got_lo12:__libc_single_threaded]
	ldrb	w0, [x0]
	cbnz	w0, .L806
	mov	x1, x25
	mov	w0, -1
	bl	__aarch64_ldadd4_acq_rel
.L767:
	cmp	w0, 1
	bne	.L769
	ldr	x1, [x22]
	mov	x0, x22
	ldr	x1, [x1, 16]
	blr	x1
	ldr	x23, [x23, #:got_lo12:__libc_single_threaded]
	add	x1, x22, 12
	ldrb	w0, [x23]
	cbnz	w0, .L807
	mov	w0, -1
	bl	__aarch64_ldadd4_acq_rel
.L771:
	cmp	w0, 1
	bne	.L769
	ldr	x1, [x22]
	mov	x0, x22
	ldr	x1, [x1, 24]
	blr	x1
.L769:
	mov	x0, x19
.LEHB12:
	bl	_Unwind_Resume
.L728:
	mov	x0, 8
	bl	__cxa_allocate_exception
	adrp	x3, :got:_ZTVSt12bad_weak_ptr
	adrp	x2, :got:_ZNSt12bad_weak_ptrD1Ev
	adrp	x1, :got:_ZTISt12bad_weak_ptr
	ldr	x3, [x3, #:got_lo12:_ZTVSt12bad_weak_ptr]
	ldr	x2, [x2, #:got_lo12:_ZNSt12bad_weak_ptrD1Ev]
	add	x3, x3, 16
	ldr	x1, [x1, #:got_lo12:_ZTISt12bad_weak_ptr]
	str	x3, [x0]
	bl	__cxa_throw
.LEHE12:
.L776:
	ldr	x3, [sp, 160]
	mov	x19, x0
	cbz	x3, .L740
	add	x1, sp, 144
	mov	w2, 3
	mov	x0, x1
	blr	x3
	b	.L740
.L806:
	ldr	w0, [x22, 8]
	sub	w1, w0, #1
	str	w1, [x22, 8]
	b	.L767
.L804:
	ldr	w0, [x20, 8]
	sub	w1, w0, #1
	str	w1, [x20, 8]
	b	.L762
.L807:
	ldr	w0, [x22, 12]
	sub	w1, w0, #1
	str	w1, [x22, 12]
	b	.L771
.L805:
	ldr	w0, [x20, 12]
	sub	w1, w0, #1
	str	w1, [x20, 12]
	b	.L765
	.cfi_endproc
.LFE7737:
	.section	.gcc_except_table,"a",@progbits
.LLSDA7737:
	.byte	0xff
	.byte	0xff
	.byte	0x1
	.uleb128 .LLSDACSE7737-.LLSDACSB7737
.LLSDACSB7737:
	.uleb128 .LEHB8-.LFB7737
	.uleb128 .LEHE8-.LEHB8
	.uleb128 0
	.uleb128 0
	.uleb128 .LEHB9-.LFB7737
	.uleb128 .LEHE9-.LEHB9
	.uleb128 .L776-.LFB7737
	.uleb128 0
	.uleb128 .LEHB10-.LFB7737
	.uleb128 .LEHE10-.LEHB10
	.uleb128 .L775-.LFB7737
	.uleb128 0
	.uleb128 .LEHB11-.LFB7737
	.uleb128 .LEHE11-.LEHB11
	.uleb128 0
	.uleb128 0
	.uleb128 .LEHB12-.LFB7737
	.uleb128 .LEHE12-.LEHB12
	.uleb128 0
	.uleb128 0
.LLSDACSE7737:
	.text
	.size	_ZN8asiodnp318TCPClientIOHandler12StartConnectERKSt10shared_ptrIN7asiopal9TCPClientEERKN7openpal12TimeDurationE, .-_ZN8asiodnp318TCPClientIOHandler12StartConnectERKSt10shared_ptrIN7asiopal9TCPClientEERKN7openpal12TimeDurationE
	.align	2
	.p2align 4,,11
	.type	_ZNSt17_Function_handlerIFvvEZN7openpal8TimerRef5StartIZZN8asiodnp318TCPClientIOHandler12StartConnectERKSt10shared_ptrIN7asiopal9TCPClientEERKNS1_12TimeDurationEENKUlRKS6_INS7_8ExecutorEEN4asio19basic_stream_socketINSJ_2ip3tcpENSJ_21stream_socket_serviceISM_EEEERKSt10error_codeE_clESI_SP_SS_EUlvE_EEbSE_RKT_EUlvE_E9_M_invokeERKSt9_Any_data, %function
_ZNSt17_Function_handlerIFvvEZN7openpal8TimerRef5StartIZZN8asiodnp318TCPClientIOHandler12StartConnectERKSt10shared_ptrIN7asiopal9TCPClientEERKNS1_12TimeDurationEENKUlRKS6_INS7_8ExecutorEEN4asio19basic_stream_socketINSJ_2ip3tcpENSJ_21stream_socket_serviceISM_EEEERKSt10error_codeE_clESI_SP_SS_EUlvE_EEbSE_RKT_EUlvE_E9_M_invokeERKSt9_Any_data:
.LFB9508:
	.cfi_startproc
	ldr	x0, [x0]
	add	x2, x0, 24
	add	x1, x0, 32
	ldr	x3, [x0], 8
	ldr	x0, [x0, 40]
	str	xzr, [x3, 8]
	b	_ZN8asiodnp318TCPClientIOHandler12StartConnectERKSt10shared_ptrIN7asiopal9TCPClientEERKN7openpal12TimeDurationE
	.cfi_endproc
.LFE9508:
	.size	_ZNSt17_Function_handlerIFvvEZN7openpal8TimerRef5StartIZZN8asiodnp318TCPClientIOHandler12StartConnectERKSt10shared_ptrIN7asiopal9TCPClientEERKNS1_12TimeDurationEENKUlRKS6_INS7_8ExecutorEEN4asio19basic_stream_socketINSJ_2ip3tcpENSJ_21stream_socket_serviceISM_EEEERKSt10error_codeE_clESI_SP_SS_EUlvE_EEbSE_RKT_EUlvE_E9_M_invokeERKSt9_Any_data, .-_ZNSt17_Function_handlerIFvvEZN7openpal8TimerRef5StartIZZN8asiodnp318TCPClientIOHandler12StartConnectERKSt10shared_ptrIN7asiopal9TCPClientEERKNS1_12TimeDurationEENKUlRKS6_INS7_8ExecutorEEN4asio19basic_stream_socketINSJ_2ip3tcpENSJ_21stream_socket_serviceISM_EEEERKSt10error_codeE_clESI_SP_SS_EUlvE_EEbSE_RKT_EUlvE_E9_M_invokeERKSt9_Any_data
	.align	2
	.p2align 4,,11
	.global	_ZN8asiodnp318TCPClientIOHandler18BeginChannelAcceptEv
	.type	_ZN8asiodnp318TCPClientIOHandler18BeginChannelAcceptEv, %function
_ZN8asiodnp318TCPClientIOHandler18BeginChannelAcceptEv:
.LFB7734:
	.cfi_startproc
	.cfi_personality 0x9b,DW.ref.__gxx_personality_v0
	.cfi_lsda 0x1b,.LLSDA7734
	stp	x29, x30, [sp, -64]!
	.cfi_def_cfa_offset 64
	.cfi_offset 29, -64
	.cfi_offset 30, -56
	mov	x29, sp
	stp	x19, x20, [sp, 16]
	.cfi_offset 19, -48
	.cfi_offset 20, -40
	mov	x19, x0
	mov	x0, 264
	stp	x21, x22, [sp, 32]
	stp	x23, x24, [sp, 48]
	.cfi_offset 21, -32
	.cfi_offset 22, -24
	.cfi_offset 23, -16
	.cfi_offset 24, -8
.LEHB13:
	bl	_Znwm
.LEHE13:
	adrp	x1, :got:_ZTVSt23_Sp_counted_ptr_inplaceIN7asiopal9TCPClientESaIS1_ELN9__gnu_cxx12_Lock_policyE2EE
	movi	v0.2s, 0x1
	mov	x20, x0
	mov	x21, x0
	add	x4, x19, 880
	ldr	x0, [x1, #:got_lo12:_ZTVSt23_Sp_counted_ptr_inplaceIN7asiopal9TCPClientESaIS1_ELN9__gnu_cxx12_Lock_policyE2EE]
	add	x3, x19, 840
	str	d0, [x20, 8]
	add	x2, x19, 800
	add	x0, x0, 16
	str	x0, [x21], 16
	add	x1, x19, 32
	mov	x0, x21
.LEHB14:
	bl	_ZN7asiopal9TCPClientC1ERKN7openpal6LoggerERKSt10shared_ptrINS_8ExecutorEERKNS_10IPEndpointERKNSt7__cxx1112basic_stringIcSt11char_traitsIcESaIcEEE
.LEHE14:
	ldr	x0, [x20, 24]
	add	x23, x19, 912
	cbz	x0, .L811
	add	x1, x0, 8
	ldr	w1, [x1]
	cbz	w1, .L811
.L813:
	ldr	x22, [x19, 920]
	str	x21, [x19, 912]
	str	x20, [x19, 920]
	cbz	x22, .L820
	adrp	x20, :got:__libc_single_threaded
	ldr	x0, [x20, #:got_lo12:__libc_single_threaded]
	ldrb	w0, [x0]
	cbz	w0, .L821
	ldr	w0, [x22, 8]
	sub	w1, w0, #1
	str	w1, [x22, 8]
.L822:
	cmp	w0, 1
	beq	.L837
.L820:
	mov	x1, x23
	add	x2, x19, 816
	mov	x0, x19
	ldp	x19, x20, [sp, 16]
	ldp	x21, x22, [sp, 32]
	ldp	x23, x24, [sp, 48]
	ldp	x29, x30, [sp], 64
	.cfi_remember_state
	.cfi_restore 30
	.cfi_restore 29
	.cfi_restore 23
	.cfi_restore 24
	.cfi_restore 21
	.cfi_restore 22
	.cfi_restore 19
	.cfi_restore 20
	.cfi_def_cfa_offset 0
.LEHB15:
	b	_ZN8asiodnp318TCPClientIOHandler12StartConnectERKSt10shared_ptrIN7asiopal9TCPClientEERKN7openpal12TimeDurationE
	.p2align 2,,3
.L811:
	.cfi_restore_state
	adrp	x24, :got:__libc_single_threaded
	str	x21, [x20, 16]
	add	x1, x20, 12
	ldr	x24, [x24, #:got_lo12:__libc_single_threaded]
	ldrb	w2, [x24]
	cbz	w2, .L838
	ldr	w1, [x20, 12]
	mov	x22, x0
	add	w0, w1, 1
	str	w0, [x20, 12]
	cbz	x22, .L815
.L814:
	ldr	w0, [x22, 12]
	sub	w1, w0, #1
	str	w1, [x22, 12]
.L818:
	cmp	w0, 1
	beq	.L839
.L815:
	str	x20, [x20, 24]
	b	.L813
	.p2align 2,,3
.L838:
	mov	w0, 1
	bl	__aarch64_ldadd4_acq_rel
	ldr	x22, [x20, 24]
	cbz	x22, .L815
	ldrb	w0, [x24]
	cbnz	w0, .L814
	add	x1, x22, 12
	mov	w0, -1
	bl	__aarch64_ldadd4_acq_rel
	b	.L818
	.p2align 2,,3
.L839:
	ldr	x1, [x22]
	mov	x0, x22
	ldr	x1, [x1, 24]
	blr	x1
	str	x20, [x20, 24]
	b	.L813
	.p2align 2,,3
.L837:
	ldr	x1, [x22]
	mov	x0, x22
	ldr	x1, [x1, 16]
	blr	x1
	ldr	x20, [x20, #:got_lo12:__libc_single_threaded]
	ldrb	w0, [x20]
	cbz	w0, .L824
	ldr	w0, [x22, 12]
	sub	w1, w0, #1
	str	w1, [x22, 12]
.L825:
	cmp	w0, 1
	bne	.L820
	ldr	x1, [x22]
	mov	x0, x22
	ldr	x1, [x1, 24]
	blr	x1
	b	.L820
	.p2align 2,,3
.L821:
	add	x1, x22, 8
	mov	w0, -1
	bl	__aarch64_ldadd4_acq_rel
	b	.L822
	.p2align 2,,3
.L824:
	add	x1, x22, 12
	mov	w0, -1
	bl	__aarch64_ldadd4_acq_rel
	b	.L825
.L828:
	mov	x1, 264
	mov	x19, x0
	mov	x0, x20
	bl	_ZdlPvm
	mov	x0, x19
	bl	_Unwind_Resume
.LEHE15:
	.cfi_endproc
.LFE7734:
	.section	.gcc_except_table
.LLSDA7734:
	.byte	0xff
	.byte	0xff
	.byte	0x1
	.uleb128 .LLSDACSE7734-.LLSDACSB7734
.LLSDACSB7734:
	.uleb128 .LEHB13-.LFB7734
	.uleb128 .LEHE13-.LEHB13
	.uleb128 0
	.uleb128 0
	.uleb128 .LEHB14-.LFB7734
	.uleb128 .LEHE14-.LEHB14
	.uleb128 .L828-.LFB7734
	.uleb128 0
	.uleb128 .LEHB15-.LFB7734
	.uleb128 .LEHE15-.LEHB15
	.uleb128 0
	.uleb128 0
.LLSDACSE7734:
	.text
	.size	_ZN8asiodnp318TCPClientIOHandler18BeginChannelAcceptEv, .-_ZN8asiodnp318TCPClientIOHandler18BeginChannelAcceptEv
	.align	2
	.p2align 4,,11
	.global	_ZN8asiodnp318TCPClientIOHandler17OnChannelShutdownEv
	.type	_ZN8asiodnp318TCPClientIOHandler17OnChannelShutdownEv, %function
_ZN8asiodnp318TCPClientIOHandler17OnChannelShutdownEv:
.LFB7736:
	.cfi_startproc
	b	_ZN8asiodnp318TCPClientIOHandler18BeginChannelAcceptEv
	.cfi_endproc
.LFE7736:
	.size	_ZN8asiodnp318TCPClientIOHandler17OnChannelShutdownEv, .-_ZN8asiodnp318TCPClientIOHandler17OnChannelShutdownEv
	.align	2
	.p2align 4,,11
	.global	_ZN8asiodnp318TCPClientIOHandler10ResetStateEv
	.type	_ZN8asiodnp318TCPClientIOHandler10ResetStateEv, %function
_ZN8asiodnp318TCPClientIOHandler10ResetStateEv:
.LFB7780:
	.cfi_startproc
	stp	x29, x30, [sp, -48]!
	.cfi_def_cfa_offset 48
	.cfi_offset 29, -48
	.cfi_offset 30, -40
	mov	x29, sp
	stp	x19, x20, [sp, 16]
	.cfi_offset 19, -32
	.cfi_offset 20, -24
	mov	x19, x0
	ldr	x0, [x0, 912]
	cbz	x0, .L843
	bl	_ZN7asiopal9TCPClient6CancelEv
	add	x0, x19, 912
	ldr	x20, [x19, 920]
	stp	xzr, xzr, [x0]
	cbz	x20, .L843
	str	x21, [sp, 32]
	.cfi_offset 21, -16
	adrp	x21, :got:__libc_single_threaded
	ldr	x0, [x21, #:got_lo12:__libc_single_threaded]
	ldrb	w0, [x0]
	cbz	w0, .L845
	ldr	w0, [x20, 8]
	sub	w1, w0, #1
	str	w1, [x20, 8]
.L846:
	cmp	w0, 1
	beq	.L855
.L854:
	ldr	x21, [sp, 32]
	.cfi_restore 21
.L843:
	add	x0, x19, 928
	ldp	x19, x20, [sp, 16]
	ldp	x29, x30, [sp], 48
	.cfi_restore 30
	.cfi_restore 29
	.cfi_restore 19
	.cfi_restore 20
	.cfi_def_cfa_offset 0
	b	_ZN7openpal8TimerRef6CancelEv
	.p2align 2,,3
.L855:
	.cfi_def_cfa_offset 48
	.cfi_offset 19, -32
	.cfi_offset 20, -24
	.cfi_offset 21, -16
	.cfi_offset 29, -48
	.cfi_offset 30, -40
	ldr	x1, [x20]
	mov	x0, x20
	ldr	x1, [x1, 16]
	blr	x1
	ldr	x21, [x21, #:got_lo12:__libc_single_threaded]
	ldrb	w0, [x21]
	cbz	w0, .L847
	ldr	w0, [x20, 12]
	sub	w1, w0, #1
	str	w1, [x20, 12]
.L848:
	cmp	w0, 1
	bne	.L854
	ldr	x1, [x20]
	mov	x0, x20
	ldr	x1, [x1, 24]
	blr	x1
	ldr	x21, [sp, 32]
	.cfi_remember_state
	.cfi_restore 21
	b	.L843
	.p2align 2,,3
.L845:
	.cfi_restore_state
	add	x1, x20, 8
	mov	w0, -1
	bl	__aarch64_ldadd4_acq_rel
	b	.L846
	.p2align 2,,3
.L847:
	add	x1, x20, 12
	mov	w0, -1
	bl	__aarch64_ldadd4_acq_rel
	b	.L848
	.cfi_endproc
.LFE7780:
	.size	_ZN8asiodnp318TCPClientIOHandler10ResetStateEv, .-_ZN8asiodnp318TCPClientIOHandler10ResetStateEv
	.align	2
	.p2align 4,,11
	.global	_ZN8asiodnp318TCPClientIOHandler12ShutdownImplEv
	.type	_ZN8asiodnp318TCPClientIOHandler12ShutdownImplEv, %function
_ZN8asiodnp318TCPClientIOHandler12ShutdownImplEv:
.LFB7733:
	.cfi_startproc
	b	_ZN8asiodnp318TCPClientIOHandler10ResetStateEv
	.cfi_endproc
.LFE7733:
	.size	_ZN8asiodnp318TCPClientIOHandler12ShutdownImplEv, .-_ZN8asiodnp318TCPClientIOHandler12ShutdownImplEv
	.global	_ZN8asiodnp318TCPClientIOHandler20SuspendChannelAcceptEv
	.set	_ZN8asiodnp318TCPClientIOHandler20SuspendChannelAcceptEv,_ZN8asiodnp318TCPClientIOHandler12ShutdownImplEv
	.section	.text._ZNSt16_Sp_counted_baseILN9__gnu_cxx12_Lock_policyE2EE10_M_releaseEv,"axG",@progbits,_ZNSt16_Sp_counted_baseILN9__gnu_cxx12_Lock_policyE2EE10_M_releaseEv,comdat
	.align	2
	.p2align 4,,11
	.weak	_ZNSt16_Sp_counted_baseILN9__gnu_cxx12_Lock_policyE2EE10_M_releaseEv
	.type	_ZNSt16_Sp_counted_baseILN9__gnu_cxx12_Lock_policyE2EE10_M_releaseEv, %function
_ZNSt16_Sp_counted_baseILN9__gnu_cxx12_Lock_policyE2EE10_M_releaseEv:
.LFB8801:
	.cfi_startproc
	stp	x29, x30, [sp, -32]!
	.cfi_def_cfa_offset 32
	.cfi_offset 29, -32
	.cfi_offset 30, -24
	mov	x29, sp
	stp	x19, x20, [sp, 16]
	.cfi_offset 19, -16
	.cfi_offset 20, -8
	adrp	x20, :got:__libc_single_threaded
	mov	x19, x0
	ldr	x0, [x20, #:got_lo12:__libc_single_threaded]
	ldrb	w0, [x0]
	cbz	w0, .L858
	ldr	w0, [x19, 8]
	sub	w1, w0, #1
	str	w1, [x19, 8]
.L859:
	cmp	w0, 1
	beq	.L866
.L857:
	ldp	x19, x20, [sp, 16]
	ldp	x29, x30, [sp], 32
	.cfi_remember_state
	.cfi_restore 30
	.cfi_restore 29
	.cfi_restore 19
	.cfi_restore 20
	.cfi_def_cfa_offset 0
	ret
	.p2align 2,,3
.L866:
	.cfi_restore_state
	ldr	x1, [x19]
	mov	x0, x19
	ldr	x1, [x1, 16]
	blr	x1
	ldr	x20, [x20, #:got_lo12:__libc_single_threaded]
	ldrb	w0, [x20]
	cbz	w0, .L862
	ldr	w0, [x19, 12]
	sub	w1, w0, #1
	str	w1, [x19, 12]
.L863:
	cmp	w0, 1
	bne	.L857
	ldr	x1, [x19]
	mov	x0, x19
	ldp	x19, x20, [sp, 16]
	ldp	x29, x30, [sp], 32
	.cfi_remember_state
	.cfi_restore 30
	.cfi_restore 29
	.cfi_restore 19
	.cfi_restore 20
	.cfi_def_cfa_offset 0
	ldr	x1, [x1, 24]
	mov	x16, x1
	br	x16
	.p2align 2,,3
.L858:
	.cfi_restore_state
	add	x1, x19, 8
	mov	w0, -1
	bl	__aarch64_ldadd4_acq_rel
	b	.L859
	.p2align 2,,3
.L862:
	add	x1, x19, 12
	mov	w0, -1
	bl	__aarch64_ldadd4_acq_rel
	b	.L863
	.cfi_endproc
.LFE8801:
	.size	_ZNSt16_Sp_counted_baseILN9__gnu_cxx12_Lock_policyE2EE10_M_releaseEv, .-_ZNSt16_Sp_counted_baseILN9__gnu_cxx12_Lock_policyE2EE10_M_releaseEv
	.text
	.align	2
	.p2align 4,,11
	.global	_ZN8asiodnp318TCPClientIOHandlerC2ERKN7openpal6LoggerERKSt10shared_ptrINS_16IChannelListenerEERKS5_IN7asiopal8ExecutorEERKNSA_12ChannelRetryERKNSA_10IPEndpointERKNSt7__cxx1112basic_stringIcSt11char_traitsIcESaIcEEE
	.type	_ZN8asiodnp318TCPClientIOHandlerC2ERKN7openpal6LoggerERKSt10shared_ptrINS_16IChannelListenerEERKS5_IN7asiopal8ExecutorEERKNSA_12ChannelRetryERKNSA_10IPEndpointERKNSt7__cxx1112basic_stringIcSt11char_traitsIcESaIcEEE, %function
_ZN8asiodnp318TCPClientIOHandlerC2ERKN7openpal6LoggerERKSt10shared_ptrINS_16IChannelListenerEERKS5_IN7asiopal8ExecutorEERKNSA_12ChannelRetryERKNSA_10IPEndpointERKNSt7__cxx1112basic_stringIcSt11char_traitsIcESaIcEEE:
.LFB7731:
	.cfi_startproc
	.cfi_personality 0x9b,DW.ref.__gxx_personality_v0
	.cfi_lsda 0x1b,.LLSDA7731
	stp	x29, x30, [sp, -112]!
	.cfi_def_cfa_offset 112
	.cfi_offset 29, -112
	.cfi_offset 30, -104
	adrp	x7, :got:__stack_chk_guard
	mov	x29, sp
	ldr	x7, [x7, #:got_lo12:__stack_chk_guard]
	stp	x19, x20, [sp, 16]
	.cfi_offset 19, -96
	.cfi_offset 20, -88
	mov	x19, x0
	stp	x21, x22, [sp, 32]
	.cfi_offset 21, -80
	.cfi_offset 22, -72
	mov	x22, x3
	mov	x20, x4
	stp	x23, x24, [sp, 48]
	mov	x21, x5
	.cfi_offset 23, -64
	.cfi_offset 24, -56
	mov	x23, x6
	stp	x25, x26, [sp, 64]
	str	x27, [sp, 80]
	.cfi_offset 25, -48
	.cfi_offset 26, -40
	.cfi_offset 27, -32
	ldr	x3, [x7]
	str	x3, [sp, 104]
	mov	x3, 0
.LEHB16:
	bl	_ZN8asiodnp39IOHandlerC2ERKN7openpal6LoggerERKSt10shared_ptrINS_16IChannelListenerEE
.LEHE16:
	adrp	x0, :got:_ZTVN8asiodnp318TCPClientIOHandlerE
	ldr	x0, [x0, #:got_lo12:_ZTVN8asiodnp318TCPClientIOHandlerE]
	add	x1, x0, 16
	add	x0, x0, 104
	stp	x1, x0, [x19]
	ldr	q0, [x22]
	umov	x1, v0.d[1]
	str	q0, [x19, 800]
	cbz	x1, .L868
	adrp	x0, :got:__libc_single_threaded
	ldr	x0, [x0, #:got_lo12:__libc_single_threaded]
	ldrb	w0, [x0]
	cbz	w0, .L869
	ldr	w0, [x1, 8]
	add	w0, w0, 1
	str	w0, [x1, 8]
.L868:
	add	x0, x19, 816
	add	x25, x19, 856
	ldp	x2, x3, [x20]
	add	x24, x19, 840
	stp	x2, x3, [x0]
	ldr	x1, [x20, 16]
	str	x1, [x19, 832]
	str	x25, [x19, 840]
	ldp	x26, x20, [x21]
	cmn	x26, x20
	ccmp	x26, 0, 0, ne
	beq	.L906
	str	x20, [sp, 96]
	cmp	x20, 15
	bhi	.L907
	cmp	x20, 1
	bne	.L873
	ldrb	w1, [x26]
	mov	x0, x25
	strb	w1, [x19, 856]
.L874:
	str	x20, [x24, 8]
	add	x26, x19, 896
	strb	wzr, [x0, x20]
	add	x27, x19, 880
	ldrh	w0, [x21, 32]
	strh	w0, [x24, 32]
	ldr	x20, [x23, 8]
	str	x26, [x19, 880]
	ldr	x21, [x23]
	cmn	x21, x20
	ccmp	x21, 0, 0, ne
	beq	.L908
	str	x20, [sp, 96]
	cmp	x20, 15
	bhi	.L909
	cmp	x20, 1
	bne	.L878
	ldrb	w1, [x21]
	mov	x0, x26
	strb	w1, [x19, 896]
.L879:
	add	x1, x19, 912
	str	x20, [x27, 8]
	strb	wzr, [x0, x20]
	add	x0, x19, 928
	stp	xzr, xzr, [x1]
	ldr	x1, [x22]
.LEHB17:
	bl	_ZN7openpal8TimerRefC1ERNS_9IExecutorE
.LEHE17:
	adrp	x0, :got:__stack_chk_guard
	ldr	x0, [x0, #:got_lo12:__stack_chk_guard]
	ldr	x2, [sp, 104]
	ldr	x1, [x0]
	subs	x2, x2, x1
	mov	x1, 0
	bne	.L910
	ldp	x19, x20, [sp, 16]
	ldp	x21, x22, [sp, 32]
	ldp	x23, x24, [sp, 48]
	ldp	x25, x26, [sp, 64]
	ldr	x27, [sp, 80]
	ldp	x29, x30, [sp], 112
	.cfi_remember_state
	.cfi_restore 30
	.cfi_restore 29
	.cfi_restore 27
	.cfi_restore 25
	.cfi_restore 26
	.cfi_restore 23
	.cfi_restore 24
	.cfi_restore 21
	.cfi_restore 22
	.cfi_restore 19
	.cfi_restore 20
	.cfi_def_cfa_offset 0
	ret
	.p2align 2,,3
.L873:
	.cfi_restore_state
	mov	x0, x25
	cbz	x20, .L874
	b	.L872
	.p2align 2,,3
.L869:
	add	x1, x1, 8
	mov	w0, 1
	bl	__aarch64_ldadd4_acq_rel
	b	.L868
	.p2align 2,,3
.L878:
	mov	x0, x26
	cbz	x20, .L879
	b	.L877
	.p2align 2,,3
.L907:
	add	x1, sp, 96
	mov	x0, x24
	mov	x2, 0
.LEHB18:
	bl	_ZNSt7__cxx1112basic_stringIcSt11char_traitsIcESaIcEE9_M_createERmm
.LEHE18:
	str	x0, [x19, 840]
	ldr	x1, [sp, 96]
	str	x1, [x24, 16]
.L872:
	mov	x2, x20
	mov	x1, x26
	bl	memcpy
	ldr	x20, [sp, 96]
	ldr	x0, [x19, 840]
	b	.L874
	.p2align 2,,3
.L909:
	add	x1, sp, 96
	mov	x0, x27
	mov	x2, 0
.LEHB19:
	bl	_ZNSt7__cxx1112basic_stringIcSt11char_traitsIcESaIcEE9_M_createERmm
.LEHE19:
	str	x0, [x19, 880]
	ldr	x1, [sp, 96]
	str	x1, [x27, 16]
.L877:
	mov	x2, x20
	mov	x1, x21
	bl	memcpy
	ldr	x20, [sp, 96]
	ldr	x0, [x19, 880]
	b	.L879
.L910:
	bl	__stack_chk_fail
.L906:
	adrp	x0, .LC5
	add	x0, x0, :lo12:.LC5
.LEHB20:
	bl	_ZSt19__throw_logic_errorPKc
.LEHE20:
.L908:
	adrp	x0, .LC5
	add	x0, x0, :lo12:.LC5
.LEHB21:
	bl	_ZSt19__throw_logic_errorPKc
.LEHE21:
.L890:
	mov	x20, x0
.L885:
	ldr	x0, [x19, 808]
	cbz	x0, .L886
	bl	_ZNSt16_Sp_counted_baseILN9__gnu_cxx12_Lock_policyE2EE10_M_releaseEv
.L886:
	mov	x0, x19
	bl	_ZN8asiodnp39IOHandlerD2Ev
	mov	x0, x20
.LEHB22:
	bl	_Unwind_Resume
.LEHE22:
.L891:
	mov	x20, x0
.L883:
	ldr	x0, [x19, 840]
	cmp	x25, x0
	beq	.L885
	ldr	x1, [x24, 16]
	add	x1, x1, 1
	bl	_ZdlPvm
	b	.L885
.L892:
	ldr	x1, [x19, 920]
	mov	x20, x0
	cbz	x1, .L881
	mov	x0, x1
	bl	_ZNSt16_Sp_counted_baseILN9__gnu_cxx12_Lock_policyE2EE10_M_releaseEv
.L881:
	ldr	x0, [x19, 880]
	cmp	x26, x0
	beq	.L883
	ldr	x1, [x27, 16]
	add	x1, x1, 1
	bl	_ZdlPvm
	b	.L883
	.cfi_endproc
.LFE7731:
	.section	.gcc_except_table
.LLSDA7731:
	.byte	0xff
	.byte	0xff
	.byte	0x1
	.uleb128 .LLSDACSE7731-.LLSDACSB7731
.LLSDACSB7731:
	.uleb128 .LEHB16-.LFB7731
	.uleb128 .LEHE16-.LEHB16
	.uleb128 0
	.uleb128 0
	.uleb128 .LEHB17-.LFB7731
	.uleb128 .LEHE17-.LEHB17
	.uleb128 .L892-.LFB7731
	.uleb128 0
	.uleb128 .LEHB18-.LFB7731
	.uleb128 .LEHE18-.LEHB18
	.uleb128 .L890-.LFB7731
	.uleb128 0
	.uleb128 .LEHB19-.LFB7731
	.uleb128 .LEHE19-.LEHB19
	.uleb128 .L891-.LFB7731
	.uleb128 0
	.uleb128 .LEHB20-.LFB7731
	.uleb128 .LEHE20-.LEHB20
	.uleb128 .L890-.LFB7731
	.uleb128 0
	.uleb128 .LEHB21-.LFB7731
	.uleb128 .LEHE21-.LEHB21
	.uleb128 .L891-.LFB7731
	.uleb128 0
	.uleb128 .LEHB22-.LFB7731
	.uleb128 .LEHE22-.LEHB22
	.uleb128 0
	.uleb128 0
.LLSDACSE7731:
	.text
	.size	_ZN8asiodnp318TCPClientIOHandlerC2ERKN7openpal6LoggerERKSt10shared_ptrINS_16IChannelListenerEERKS5_IN7asiopal8ExecutorEERKNSA_12ChannelRetryERKNSA_10IPEndpointERKNSt7__cxx1112basic_stringIcSt11char_traitsIcESaIcEEE, .-_ZN8asiodnp318TCPClientIOHandlerC2ERKN7openpal6LoggerERKSt10shared_ptrINS_16IChannelListenerEERKS5_IN7asiopal8ExecutorEERKNSA_12ChannelRetryERKNSA_10IPEndpointERKNSt7__cxx1112basic_stringIcSt11char_traitsIcESaIcEEE
	.global	_ZN8asiodnp318TCPClientIOHandlerC1ERKN7openpal6LoggerERKSt10shared_ptrINS_16IChannelListenerEERKS5_IN7asiopal8ExecutorEERKNSA_12ChannelRetryERKNSA_10IPEndpointERKNSt7__cxx1112basic_stringIcSt11char_traitsIcESaIcEEE
	.set	_ZN8asiodnp318TCPClientIOHandlerC1ERKN7openpal6LoggerERKSt10shared_ptrINS_16IChannelListenerEERKS5_IN7asiopal8ExecutorEERKNSA_12ChannelRetryERKNSA_10IPEndpointERKNSt7__cxx1112basic_stringIcSt11char_traitsIcESaIcEEE,_ZN8asiodnp318TCPClientIOHandlerC2ERKN7openpal6LoggerERKSt10shared_ptrINS_16IChannelListenerEERKS5_IN7asiopal8ExecutorEERKNSA_12ChannelRetryERKNSA_10IPEndpointERKNSt7__cxx1112basic_stringIcSt11char_traitsIcESaIcEEE
	.section	.rodata.str1.8
	.align	3
.LC23:
	.string	"Error Connecting: %s"
	.align	3
.LC24:
	.string	"/home/jaehyun/OpenPLC_v3/utils/dnp3_src/cpp/libs/src/asiodnp3/TCPClientIOHandler.cpp(76)"
	.align	3
.LC25:
	.string	"Connected to: %s"
	.align	3
.LC26:
	.string	"/home/jaehyun/OpenPLC_v3/utils/dnp3_src/cpp/libs/src/asiodnp3/TCPClientIOHandler.cpp(91)"
	.text
	.align	2
	.p2align 4,,11
	.type	_ZZN8asiodnp318TCPClientIOHandler12StartConnectERKSt10shared_ptrIN7asiopal9TCPClientEERKN7openpal12TimeDurationEENKUlRKS1_INS2_8ExecutorEEN4asio19basic_stream_socketINSF_2ip3tcpENSF_21stream_socket_serviceISI_EEEERKSt10error_codeE_clESE_SL_SO_, %function
_ZZN8asiodnp318TCPClientIOHandler12StartConnectERKSt10shared_ptrIN7asiopal9TCPClientEERKN7openpal12TimeDurationEENKUlRKS1_INS2_8ExecutorEEN4asio19basic_stream_socketINSF_2ip3tcpENSF_21stream_socket_serviceISI_EEEERKSt10error_codeE_clESE_SL_SO_:
.LFB7744:
	.cfi_startproc
	.cfi_personality 0x9b,DW.ref.__gxx_personality_v0
	.cfi_lsda 0x1b,.LLSDA7744
	stp	x29, x30, [sp, -384]!
	.cfi_def_cfa_offset 384
	.cfi_offset 29, -384
	.cfi_offset 30, -376
	adrp	x4, :got:__stack_chk_guard
	mov	x29, sp
	ldr	x4, [x4, #:got_lo12:__stack_chk_guard]
	stp	x19, x20, [sp, 16]
	.cfi_offset 19, -368
	.cfi_offset 20, -360
	mov	x19, x0
	stp	x21, x22, [sp, 32]
	.cfi_offset 21, -352
	.cfi_offset 22, -344
	mov	x21, x3
	ldr	w3, [x3]
	stp	x23, x24, [sp, 48]
	ldr	x0, [x4]
	str	x0, [sp, 376]
	mov	x0, 0
	ldr	x0, [x19, 16]
	add	x0, x0, 32
	.cfi_offset 23, -336
	.cfi_offset 24, -328
	cbz	w3, .L912
	mov	w2, 4
	add	x23, sp, 160
	mov	x1, x23
	str	w2, [sp, 160]
.LEHB23:
	bl	_ZNK7openpal6Logger9IsEnabledERKNS_10LogFiltersE
	tst	w0, 255
	beq	.L913
	ldr	x0, [x21, 8]
	add	x8, sp, 224
	ldr	w1, [x21]
	add	x20, sp, 256
	ldr	x2, [x0]
	ldr	x2, [x2, 32]
	blr	x2
	ldr	x5, [sp, 224]
	mov	x3, 120
	mov	x0, x20
	mov	x1, x3
	adrp	x4, .LC23
	mov	w2, 1
	add	x4, x4, :lo12:.LC23
	bl	__snprintf_chk
	ldr	x0, [sp, 224]
	add	x1, sp, 240
	cmp	x0, x1
	beq	.L914
	ldr	x1, [sp, 240]
	add	x1, x1, 1
	bl	_ZdlPvm
.L914:
	ldr	x0, [x19, 16]
	mov	w4, 4
	adrp	x2, .LC24
	mov	x3, x20
	mov	x1, x23
	add	x2, x2, :lo12:.LC24
	add	x0, x0, 32
	str	w4, [sp, 160]
	bl	_ZN7openpal6Logger3LogERKNS_10LogFiltersEPKcS5_
.L913:
	ldr	x3, [x19, 16]
	add	x21, x19, 24
	mov	x1, x21
	add	x2, x3, 824
	ldr	x0, [x3, 832]
	ldr	w4, [x3, 84]
	ldr	x5, [x0]
	add	w4, w4, 1
	str	w4, [x3, 84]
	ldr	x3, [x5, 16]
	blr	x3
.LEHE23:
	mov	x20, x0
	ldr	q0, [x19]
	umov	x1, v0.d[1]
	str	q0, [sp, 112]
	cbz	x1, .L915
	adrp	x0, :got:__libc_single_threaded
	ldr	x0, [x0, #:got_lo12:__libc_single_threaded]
	ldrb	w0, [x0]
	cbz	w0, .L916
	ldr	w0, [x1, 8]
	add	w0, w0, 1
	str	w0, [x1, 8]
.L915:
	ldr	q0, [x19, 32]
	str	x20, [sp, 128]
	umov	x1, v0.d[1]
	str	q0, [sp, 136]
	cbz	x1, .L917
.L1089:
	adrp	x0, :got:__libc_single_threaded
	ldr	x0, [x0, #:got_lo12:__libc_single_threaded]
	ldrb	w0, [x0]
	cbz	w0, .L918
	ldr	w0, [x1, 8]
	add	w0, w0, 1
	str	w0, [x1, 8]
.L917:
	ldp	x0, x1, [sp, 112]
	stp	x0, x1, [sp, 168]
	ldr	x20, [x19, 16]
	str	x20, [sp, 152]
	add	x20, x20, 928
	str	x20, [sp, 160]
	cbz	x1, .L919
.L1090:
	adrp	x0, :got:__libc_single_threaded
	ldr	x0, [x0, #:got_lo12:__libc_single_threaded]
	ldrb	w0, [x0]
	cbz	w0, .L920
	ldr	w0, [x1, 8]
	add	w0, w0, 1
	str	w0, [x1, 8]
.L919:
	ldr	q0, [sp, 136]
	ldr	x0, [sp, 128]
	str	x0, [sp, 184]
	umov	x1, v0.d[1]
	str	q0, [sp, 192]
	cbz	x1, .L921
.L1091:
	adrp	x0, :got:__libc_single_threaded
	ldr	x0, [x0, #:got_lo12:__libc_single_threaded]
	ldrb	w0, [x0]
	cbz	w0, .L922
	ldr	w0, [x1, 8]
	add	w0, w0, 1
	str	w0, [x1, 8]
.L921:
	ldr	x1, [sp, 152]
	mov	x0, 56
	str	x1, [sp, 208]
	stp	xzr, xzr, [sp, 224]
	stp	xzr, xzr, [sp, 240]
.LEHB24:
	bl	_Znwm
.LEHE24:
	mov	x19, x0
	ldr	q0, [sp, 160]
	ldr	x1, [sp, 176]
	str	x1, [x0, 16]
	str	q0, [x0]
	cbz	x1, .L923
	adrp	x0, :got:__libc_single_threaded
	ldr	x0, [x0, #:got_lo12:__libc_single_threaded]
	ldrb	w0, [x0]
	cbz	w0, .L924
	ldr	w0, [x1, 8]
	add	w0, w0, 1
	str	w0, [x1, 8]
.L923:
	ldr	q0, [sp, 192]
	ldr	x0, [sp, 184]
	str	x0, [x19, 24]
	umov	x1, v0.d[1]
	str	q0, [x19, 32]
	cbz	x1, .L925
.L1092:
	adrp	x0, :got:__libc_single_threaded
	ldr	x0, [x0, #:got_lo12:__libc_single_threaded]
	ldrb	w0, [x0]
	cbz	w0, .L926
	ldr	w0, [x1, 8]
	add	w0, w0, 1
	str	w0, [x1, 8]
.L925:
	ldr	x5, [sp, 208]
	adrp	x3, _ZNSt17_Function_handlerIFvvEZN7openpal8TimerRef5StartIZZN8asiodnp318TCPClientIOHandler12StartConnectERKSt10shared_ptrIN7asiopal9TCPClientEERKNS1_12TimeDurationEENKUlRKS6_INS7_8ExecutorEEN4asio19basic_stream_socketINSJ_2ip3tcpENSJ_21stream_socket_serviceISM_EEEERKSt10error_codeE_clESI_SP_SS_EUlvE_EEbSE_RKT_EUlvE_E9_M_invokeERKSt9_Any_data
	adrp	x4, _ZNSt17_Function_handlerIFvvEZN7openpal8TimerRef5StartIZZN8asiodnp318TCPClientIOHandler12StartConnectERKSt10shared_ptrIN7asiopal9TCPClientEERKNS1_12TimeDurationEENKUlRKS6_INS7_8ExecutorEEN4asio19basic_stream_socketINSJ_2ip3tcpENSJ_21stream_socket_serviceISM_EEEERKSt10error_codeE_clESI_SP_SS_EUlvE_EEbSE_RKT_EUlvE_E10_M_managerERSt9_Any_dataRKS10_St18_Manager_operation
	add	x3, x3, :lo12:_ZNSt17_Function_handlerIFvvEZN7openpal8TimerRef5StartIZZN8asiodnp318TCPClientIOHandler12StartConnectERKSt10shared_ptrIN7asiopal9TCPClientEERKNS1_12TimeDurationEENKUlRKS6_INS7_8ExecutorEEN4asio19basic_stream_socketINSJ_2ip3tcpENSJ_21stream_socket_serviceISM_EEEERKSt10error_codeE_clESI_SP_SS_EUlvE_EEbSE_RKT_EUlvE_E9_M_invokeERKSt9_Any_data
	add	x4, x4, :lo12:_ZNSt17_Function_handlerIFvvEZN7openpal8TimerRef5StartIZZN8asiodnp318TCPClientIOHandler12StartConnectERKSt10shared_ptrIN7asiopal9TCPClientEERKNS1_12TimeDurationEENKUlRKS6_INS7_8ExecutorEEN4asio19basic_stream_socketINSJ_2ip3tcpENSJ_21stream_socket_serviceISM_EEEERKSt10error_codeE_clESI_SP_SS_EUlvE_EEbSE_RKT_EUlvE_E10_M_managerERSt9_Any_dataRKS10_St18_Manager_operation
	str	x5, [x19, 48]
	add	x22, sp, 224
	mov	x1, x21
	mov	x0, x20
	mov	x2, x22
	str	x19, [sp, 224]
	stp	x4, x3, [sp, 240]
.LEHB25:
	bl	_ZN7openpal8TimerRef11StartActionERKNS_12TimeDurationERKSt8functionIFvvEE
.LEHE25:
	ldr	x3, [sp, 240]
	cbz	x3, .L931
	mov	x1, x22
	mov	x0, x22
	mov	w2, 3
	blr	x3
.L931:
	ldr	x20, [sp, 200]
	cbz	x20, .L933
	adrp	x19, :got:__libc_single_threaded
	ldr	x0, [x19, #:got_lo12:__libc_single_threaded]
	ldrb	w0, [x0]
	cbz	w0, .L934
	ldr	w0, [x20, 8]
	sub	w1, w0, #1
	str	w1, [x20, 8]
.L935:
	cmp	w0, 1
	bne	.L933
	ldr	x1, [x20]
	mov	x0, x20
	ldr	x1, [x1, 16]
	blr	x1
	ldr	x19, [x19, #:got_lo12:__libc_single_threaded]
	ldrb	w0, [x19]
	cbz	w0, .L937
	ldr	w0, [x20, 12]
	sub	w1, w0, #1
	str	w1, [x20, 12]
.L938:
	cmp	w0, 1
	beq	.L1078
	.p2align 3,,7
.L933:
	ldr	x20, [sp, 176]
	cbz	x20, .L940
	adrp	x19, :got:__libc_single_threaded
	ldr	x0, [x19, #:got_lo12:__libc_single_threaded]
	ldrb	w0, [x0]
	cbz	w0, .L941
	ldr	w0, [x20, 8]
	sub	w1, w0, #1
	str	w1, [x20, 8]
.L942:
	cmp	w0, 1
	bne	.L940
	ldr	x1, [x20]
	mov	x0, x20
	ldr	x1, [x1, 16]
	blr	x1
	ldr	x19, [x19, #:got_lo12:__libc_single_threaded]
	ldrb	w0, [x19]
	cbz	w0, .L944
	ldr	w0, [x20, 12]
	sub	w1, w0, #1
	str	w1, [x20, 12]
.L945:
	cmp	w0, 1
	beq	.L1079
	.p2align 3,,7
.L940:
	ldr	x20, [sp, 144]
	cbz	x20, .L947
	adrp	x19, :got:__libc_single_threaded
	ldr	x0, [x19, #:got_lo12:__libc_single_threaded]
	ldrb	w0, [x0]
	cbz	w0, .L950
	ldr	w0, [x20, 8]
	sub	w1, w0, #1
	str	w1, [x20, 8]
.L951:
	cmp	w0, 1
	bne	.L947
	ldr	x1, [x20]
	mov	x0, x20
	ldr	x1, [x1, 16]
	blr	x1
	ldr	x19, [x19, #:got_lo12:__libc_single_threaded]
	ldrb	w0, [x19]
	cbz	w0, .L953
	ldr	w0, [x20, 12]
	sub	w1, w0, #1
	str	w1, [x20, 12]
.L954:
	cmp	w0, 1
	beq	.L1080
	.p2align 3,,7
.L947:
	ldr	x20, [sp, 120]
	cbz	x20, .L911
	adrp	x19, :got:__libc_single_threaded
	ldr	x0, [x19, #:got_lo12:__libc_single_threaded]
	ldrb	w0, [x0]
	cbz	w0, .L957
	ldr	w0, [x20, 8]
	sub	w1, w0, #1
	str	w1, [x20, 8]
.L958:
	cmp	w0, 1
	bne	.L911
	ldr	x1, [x20]
	mov	x0, x20
	ldr	x1, [x1, 16]
	blr	x1
	ldr	x19, [x19, #:got_lo12:__libc_single_threaded]
	ldrb	w0, [x19]
	cbz	w0, .L960
	ldr	w0, [x20, 12]
	sub	w1, w0, #1
	str	w1, [x20, 12]
.L961:
	cmp	w0, 1
	beq	.L1081
	.p2align 3,,7
.L911:
	adrp	x0, :got:__stack_chk_guard
	ldr	x0, [x0, #:got_lo12:__stack_chk_guard]
	ldr	x2, [sp, 376]
	ldr	x1, [x0]
	subs	x2, x2, x1
	mov	x1, 0
	bne	.L1076
	ldp	x19, x20, [sp, 16]
	ldp	x21, x22, [sp, 32]
	ldp	x23, x24, [sp, 48]
	ldp	x29, x30, [sp], 384
	.cfi_remember_state
	.cfi_restore 30
	.cfi_restore 29
	.cfi_restore 23
	.cfi_restore 24
	.cfi_restore 21
	.cfi_restore 22
	.cfi_restore 19
	.cfi_restore 20
	.cfi_def_cfa_offset 0
	ret
	.p2align 2,,3
.L912:
	.cfi_restore_state
	add	x23, sp, 160
	mov	x22, x1
	mov	w21, 8
	mov	x20, x2
	mov	x1, x23
	stp	x25, x26, [sp, 64]
	.cfi_offset 26, -312
	.cfi_offset 25, -320
	stp	x27, x28, [sp, 80]
	.cfi_offset 28, -296
	.cfi_offset 27, -304
	str	w21, [sp, 160]
.LEHB26:
	bl	_ZNK7openpal6Logger9IsEnabledERKNS_10LogFiltersE
.LEHE26:
	tst	w0, 255
	bne	.L1082
	ldp	x25, x21, [x22]
	ldr	x26, [x19, 16]
	cbz	x21, .L965
.L1088:
	adrp	x0, :got:__libc_single_threaded
	ldr	x0, [x0, #:got_lo12:__libc_single_threaded]
	ldrb	w0, [x0]
	cbz	w0, .L966
	ldr	w0, [x21, 8]
	add	w0, w0, 1
	str	w0, [x21, 8]
.L965:
	mov	w1, -1
	ldr	w27, [x20]
	str	w1, [x20]
	mov	w2, 2
	ldr	w1, [x20, 16]
	mov	x0, 112
	ldrb	w24, [x20, 4]
	strb	wzr, [x20, 4]
	str	w2, [x20, 16]
	ldr	x19, [x20, 8]
	str	xzr, [x20, 8]
	ldr	x28, [x20, 24]
	str	w27, [sp, 112]
	strb	w24, [sp, 116]
	str	x19, [sp, 120]
	str	w1, [sp, 128]
	str	x28, [sp, 136]
.LEHB27:
	bl	_Znwm
.LEHE27:
	movi	v0.2s, 0x1
	adrp	x1, :got:_ZTVSt23_Sp_counted_ptr_inplaceIN7asiopal13SocketChannelESaIS1_ELN9__gnu_cxx12_Lock_policyE2EE
	mov	x22, x0
	stp	x25, x21, [sp, 96]
	mov	x20, x0
	ldr	x1, [x1, #:got_lo12:_ZTVSt23_Sp_counted_ptr_inplaceIN7asiopal13SocketChannelESaIS1_ELN9__gnu_cxx12_Lock_policyE2EE]
	str	d0, [x0, 8]
	add	x1, x1, 16
	str	x1, [x22], 16
	cbz	x21, .L967
	adrp	x0, :got:__libc_single_threaded
	ldr	x0, [x0, #:got_lo12:__libc_single_threaded]
	ldrb	w0, [x0]
	cbz	w0, .L968
	ldr	w0, [x21, 8]
	add	w0, w0, 1
	str	w0, [x21, 8]
.L967:
	ldr	w3, [sp, 128]
	mov	w5, -1
	mov	w4, 2
	mov	x2, x23
	add	x1, sp, 96
	mov	x0, x22
	str	w5, [sp, 112]
	strb	wzr, [sp, 116]
	str	xzr, [sp, 120]
	str	w4, [sp, 128]
	str	w27, [sp, 160]
	strb	w24, [sp, 164]
	str	x19, [sp, 168]
	str	w3, [sp, 176]
	str	x28, [sp, 184]
.LEHB28:
	bl	_ZN7asiopal13SocketChannelC1ESt10shared_ptrINS_8ExecutorEEN4asio19basic_stream_socketINS4_2ip3tcpENS4_21stream_socket_serviceIS7_EEEE
.LEHE28:
	ldr	x0, [sp, 184]
	mov	x1, x23
	add	x0, x0, 40
	bl	_ZN4asio6detail28reactive_socket_service_base7destroyERNS1_24base_implementation_typeE
	ldr	x24, [sp, 104]
	cbz	x24, .L974
	adrp	x19, :got:__libc_single_threaded
	ldr	x0, [x19, #:got_lo12:__libc_single_threaded]
	ldrb	w0, [x0]
	cbz	w0, .L970
	ldr	w0, [x24, 8]
	sub	w1, w0, #1
	str	w1, [x24, 8]
.L971:
	cmp	w0, 1
	bne	.L974
	ldr	x1, [x24]
	mov	x0, x24
	ldr	x1, [x1, 16]
	blr	x1
	ldr	x19, [x19, #:got_lo12:__libc_single_threaded]
	ldrb	w0, [x19]
	cbz	w0, .L972
	ldr	w0, [x24, 12]
	sub	w1, w0, #1
	str	w1, [x24, 12]
.L973:
	cmp	w0, 1
	beq	.L1083
	.p2align 3,,7
.L974:
	ldr	x0, [x20, 32]
	cbz	x0, .L978
	add	x1, x0, 8
	ldr	w1, [x1]
	cbnz	w1, .L979
.L978:
	adrp	x24, :got:__libc_single_threaded
	str	x22, [x20, 24]
	ldr	x24, [x24, #:got_lo12:__libc_single_threaded]
	ldrb	w1, [x24]
	cbz	w1, .L1084
	ldr	w1, [x20, 12]
	mov	x19, x0
	add	w0, w1, 1
	str	w0, [x20, 12]
	cbz	x19, .L981
.L980:
	ldr	w0, [x19, 12]
	sub	w1, w0, #1
	str	w1, [x19, 12]
.L984:
	cmp	w0, 1
	beq	.L1085
.L981:
	str	x20, [x20, 32]
.L979:
	mov	x1, x23
	mov	x0, x26
	stp	x22, x20, [sp, 160]
.LEHB29:
	bl	_ZN8asiodnp39IOHandler12OnNewChannelERKSt10shared_ptrIN7asiopal13IAsyncChannelEE
.LEHE29:
	ldr	x20, [sp, 168]
	cbz	x20, .L986
	adrp	x19, :got:__libc_single_threaded
	ldr	x0, [x19, #:got_lo12:__libc_single_threaded]
	ldrb	w0, [x0]
	cbz	w0, .L987
	ldr	w0, [x20, 8]
	sub	w1, w0, #1
	str	w1, [x20, 8]
.L988:
	cmp	w0, 1
	beq	.L1086
.L986:
	ldr	x0, [sp, 136]
	add	x1, sp, 112
	add	x0, x0, 40
	bl	_ZN4asio6detail28reactive_socket_service_base7destroyERNS1_24base_implementation_typeE
	cbz	x21, .L1074
	adrp	x19, :got:__libc_single_threaded
	ldr	x0, [x19, #:got_lo12:__libc_single_threaded]
	ldrb	w0, [x0]
	cbz	w0, .L994
	ldr	w0, [x21, 8]
	sub	w1, w0, #1
	str	w1, [x21, 8]
.L995:
	cmp	w0, 1
	beq	.L1087
.L1074:
	ldp	x25, x26, [sp, 64]
	.cfi_remember_state
	.cfi_restore 26
	.cfi_restore 25
	ldp	x27, x28, [sp, 80]
	.cfi_restore 28
	.cfi_restore 27
	b	.L911
	.p2align 2,,3
.L1082:
	.cfi_restore_state
	ldr	x1, [x19, 16]
	add	x24, sp, 256
	mov	x3, 120
	mov	w2, 1
	mov	x0, x24
	adrp	x4, .LC25
	ldr	x5, [x1, 840]
	add	x4, x4, :lo12:.LC25
	mov	x1, x3
	bl	__snprintf_chk
	str	w21, [sp, 160]
	ldr	x0, [x19, 16]
	mov	x3, x24
	mov	x1, x23
	adrp	x2, .LC26
	add	x0, x0, 32
	add	x2, x2, :lo12:.LC26
.LEHB30:
	bl	_ZN7openpal6Logger3LogERKNS_10LogFiltersEPKcS5_
.LEHE30:
	ldp	x25, x21, [x22]
	ldr	x26, [x19, 16]
	cbnz	x21, .L1088
	b	.L965
	.p2align 2,,3
.L957:
	.cfi_restore 25
	.cfi_restore 26
	.cfi_restore 27
	.cfi_restore 28
	add	x1, x20, 8
	mov	w0, -1
	bl	__aarch64_ldadd4_acq_rel
	b	.L958
	.p2align 2,,3
.L941:
	add	x1, x20, 8
	mov	w0, -1
	bl	__aarch64_ldadd4_acq_rel
	b	.L942
	.p2align 2,,3
.L950:
	add	x1, x20, 8
	mov	w0, -1
	bl	__aarch64_ldadd4_acq_rel
	b	.L951
	.p2align 2,,3
.L934:
	add	x1, x20, 8
	mov	w0, -1
	bl	__aarch64_ldadd4_acq_rel
	b	.L935
	.p2align 2,,3
.L970:
	.cfi_offset 25, -320
	.cfi_offset 26, -312
	.cfi_offset 27, -304
	.cfi_offset 28, -296
	add	x1, x24, 8
	mov	w0, -1
	bl	__aarch64_ldadd4_acq_rel
	b	.L971
	.p2align 2,,3
.L916:
	.cfi_restore 25
	.cfi_restore 26
	.cfi_restore 27
	.cfi_restore 28
	add	x1, x1, 8
	mov	w0, 1
	bl	__aarch64_ldadd4_acq_rel
	str	x20, [sp, 128]
	ldr	q0, [x19, 32]
	umov	x1, v0.d[1]
	str	q0, [sp, 136]
	cbnz	x1, .L1089
	b	.L917
	.p2align 2,,3
.L918:
	add	x1, x1, 8
	mov	w0, 1
	bl	__aarch64_ldadd4_acq_rel
	ldp	x0, x1, [sp, 112]
	stp	x0, x1, [sp, 168]
	ldr	x20, [x19, 16]
	str	x20, [sp, 152]
	add	x20, x20, 928
	str	x20, [sp, 160]
	cbnz	x1, .L1090
	b	.L919
	.p2align 2,,3
.L920:
	add	x1, x1, 8
	mov	w0, 1
	bl	__aarch64_ldadd4_acq_rel
	ldr	q0, [sp, 136]
	ldr	x0, [sp, 128]
	str	x0, [sp, 184]
	umov	x1, v0.d[1]
	str	q0, [sp, 192]
	cbnz	x1, .L1091
	b	.L921
	.p2align 2,,3
.L922:
	add	x1, x1, 8
	mov	w0, 1
	bl	__aarch64_ldadd4_acq_rel
	b	.L921
	.p2align 2,,3
.L924:
	add	x1, x1, 8
	mov	w0, 1
	bl	__aarch64_ldadd4_acq_rel
	ldr	q0, [sp, 192]
	ldr	x0, [sp, 184]
	str	x0, [x19, 24]
	umov	x1, v0.d[1]
	str	q0, [x19, 32]
	cbnz	x1, .L1092
	b	.L925
	.p2align 2,,3
.L926:
	add	x1, x1, 8
	mov	w0, 1
	bl	__aarch64_ldadd4_acq_rel
	b	.L925
	.p2align 2,,3
.L966:
	.cfi_offset 25, -320
	.cfi_offset 26, -312
	.cfi_offset 27, -304
	.cfi_offset 28, -296
	add	x1, x21, 8
	mov	w0, 1
	bl	__aarch64_ldadd4_acq_rel
	b	.L965
	.p2align 2,,3
.L968:
	add	x1, x21, 8
	mov	w0, 1
	bl	__aarch64_ldadd4_acq_rel
	ldrb	w24, [sp, 116]
	ldr	w27, [sp, 112]
	ldr	x19, [sp, 120]
	ldr	x28, [sp, 136]
	b	.L967
	.p2align 2,,3
.L1084:
	add	x1, x20, 12
	mov	w0, 1
	bl	__aarch64_ldadd4_acq_rel
	ldr	x19, [x20, 32]
	cbz	x19, .L981
	ldrb	w0, [x24]
	cbnz	w0, .L980
	add	x1, x19, 12
	mov	w0, -1
	bl	__aarch64_ldadd4_acq_rel
	b	.L984
	.p2align 2,,3
.L1087:
	ldr	x1, [x21]
	mov	x0, x21
	ldr	x1, [x1, 16]
	blr	x1
	ldr	x19, [x19, #:got_lo12:__libc_single_threaded]
	ldrb	w0, [x19]
	cbz	w0, .L997
	ldr	w0, [x21, 12]
	sub	w1, w0, #1
	str	w1, [x21, 12]
.L998:
	cmp	w0, 1
	bne	.L1074
	adrp	x0, :got:__stack_chk_guard
	ldr	x0, [x0, #:got_lo12:__stack_chk_guard]
	ldr	x2, [sp, 376]
	ldr	x1, [x0]
	subs	x2, x2, x1
	mov	x1, 0
	bne	.L1077
	ldr	x1, [x21]
	mov	x0, x21
	ldp	x25, x26, [sp, 64]
	.cfi_remember_state
	.cfi_restore 26
	.cfi_restore 25
	ldr	x1, [x1, 24]
	ldp	x27, x28, [sp, 80]
	.cfi_restore 28
	.cfi_restore 27
	mov	x16, x1
	b	.L1075
	.p2align 2,,3
.L1086:
	.cfi_restore_state
	ldr	x1, [x20]
	mov	x0, x20
	ldr	x1, [x1, 16]
	blr	x1
	ldr	x19, [x19, #:got_lo12:__libc_single_threaded]
	ldrb	w0, [x19]
	cbz	w0, .L990
	ldr	w0, [x20, 12]
	sub	w1, w0, #1
	str	w1, [x20, 12]
.L991:
	cmp	w0, 1
	bne	.L986
	ldr	x1, [x20]
	mov	x0, x20
	ldr	x1, [x1, 24]
	blr	x1
	b	.L986
	.p2align 2,,3
.L987:
	add	x1, x20, 8
	mov	w0, -1
	bl	__aarch64_ldadd4_acq_rel
	b	.L988
	.p2align 2,,3
.L994:
	add	x1, x21, 8
	mov	w0, -1
	bl	__aarch64_ldadd4_acq_rel
	b	.L995
	.p2align 2,,3
.L1085:
	ldr	x1, [x19]
	mov	x0, x19
	ldr	x1, [x1, 24]
	blr	x1
	b	.L981
	.p2align 2,,3
.L1081:
	.cfi_restore 25
	.cfi_restore 26
	.cfi_restore 27
	.cfi_restore 28
	adrp	x0, :got:__stack_chk_guard
	ldr	x0, [x0, #:got_lo12:__stack_chk_guard]
	ldr	x2, [sp, 376]
	ldr	x1, [x0]
	subs	x2, x2, x1
	mov	x1, 0
	bne	.L1076
	ldr	x1, [x20]
	mov	x0, x20
	ldr	x1, [x1, 24]
	mov	x16, x1
.L1075:
	ldp	x19, x20, [sp, 16]
	ldp	x21, x22, [sp, 32]
	ldp	x23, x24, [sp, 48]
	ldp	x29, x30, [sp], 384
	.cfi_remember_state
	.cfi_restore 30
	.cfi_restore 29
	.cfi_restore 23
	.cfi_restore 24
	.cfi_restore 21
	.cfi_restore 22
	.cfi_restore 19
	.cfi_restore 20
	.cfi_def_cfa_offset 0
	br	x16
	.p2align 2,,3
.L1078:
	.cfi_restore_state
	ldr	x1, [x20]
	mov	x0, x20
	ldr	x1, [x1, 24]
	blr	x1
	b	.L933
	.p2align 2,,3
.L1080:
	ldr	x1, [x20]
	mov	x0, x20
	ldr	x1, [x1, 24]
	blr	x1
	b	.L947
	.p2align 2,,3
.L1079:
	ldr	x1, [x20]
	mov	x0, x20
	ldr	x1, [x1, 24]
	blr	x1
	b	.L940
	.p2align 2,,3
.L1083:
	.cfi_offset 25, -320
	.cfi_offset 26, -312
	.cfi_offset 27, -304
	.cfi_offset 28, -296
	ldr	x1, [x24]
	mov	x0, x24
	ldr	x1, [x1, 24]
	blr	x1
	b	.L974
	.p2align 2,,3
.L937:
	.cfi_restore 25
	.cfi_restore 26
	.cfi_restore 27
	.cfi_restore 28
	add	x1, x20, 12
	mov	w0, -1
	bl	__aarch64_ldadd4_acq_rel
	b	.L938
	.p2align 2,,3
.L953:
	add	x1, x20, 12
	mov	w0, -1
	bl	__aarch64_ldadd4_acq_rel
	b	.L954
	.p2align 2,,3
.L960:
	add	x1, x20, 12
	mov	w0, -1
	bl	__aarch64_ldadd4_acq_rel
	b	.L961
	.p2align 2,,3
.L944:
	add	x1, x20, 12
	mov	w0, -1
	bl	__aarch64_ldadd4_acq_rel
	b	.L945
	.p2align 2,,3
.L997:
	.cfi_offset 25, -320
	.cfi_offset 26, -312
	.cfi_offset 27, -304
	.cfi_offset 28, -296
	add	x1, x21, 12
	mov	w0, -1
	bl	__aarch64_ldadd4_acq_rel
	b	.L998
	.p2align 2,,3
.L972:
	add	x1, x24, 12
	mov	w0, -1
	bl	__aarch64_ldadd4_acq_rel
	b	.L973
	.p2align 2,,3
.L990:
	add	x1, x20, 12
	mov	w0, -1
	bl	__aarch64_ldadd4_acq_rel
	b	.L991
.L1076:
	.cfi_restore 25
	.cfi_restore 26
	.cfi_restore 27
	.cfi_restore 28
	stp	x25, x26, [sp, 64]
	.cfi_offset 26, -312
	.cfi_offset 25, -320
	stp	x27, x28, [sp, 80]
	.cfi_offset 28, -296
	.cfi_offset 27, -304
.L1077:
	bl	__stack_chk_fail
.L1010:
	.cfi_restore 25
	.cfi_restore 26
	.cfi_restore 27
	.cfi_restore 28
	ldr	x3, [sp, 240]
	mov	x19, x0
	cbz	x3, .L930
	add	x1, sp, 224
	mov	w2, 3
	mov	x0, x1
	blr	x3
	b	.L930
.L1008:
	.cfi_offset 25, -320
	.cfi_offset 26, -312
	.cfi_offset 27, -304
	.cfi_offset 28, -296
	ldr	x1, [sp, 168]
	mov	x19, x0
	cbz	x1, .L977
	mov	x0, x1
	bl	_ZNSt16_Sp_counted_baseILN9__gnu_cxx12_Lock_policyE2EE10_M_releaseEv
.L977:
	ldr	x0, [sp, 136]
	add	x1, sp, 112
	add	x0, x0, 40
	bl	_ZN4asio6detail28reactive_socket_service_base7destroyERNS1_24base_implementation_typeE
	cbz	x21, .L1002
	mov	x0, x21
	bl	_ZNSt16_Sp_counted_baseILN9__gnu_cxx12_Lock_policyE2EE10_M_releaseEv
.L1002:
	mov	x0, x19
.LEHB31:
	bl	_Unwind_Resume
.LEHE31:
.L1007:
	mov	x19, x0
	b	.L977
.L1009:
	.cfi_restore 25
	.cfi_restore 26
	.cfi_restore 27
	.cfi_restore 28
	ldr	x3, [sp, 240]
	mov	x19, x0
	cbz	x3, .L930
	mov	x1, x22
	mov	x0, x22
	mov	w2, 3
	blr	x3
.L930:
	add	x0, sp, 168
	stp	x25, x26, [sp, 64]
	.cfi_offset 26, -312
	.cfi_offset 25, -320
	stp	x27, x28, [sp, 80]
	.cfi_offset 28, -296
	.cfi_offset 27, -304
	bl	_ZZZN8asiodnp318TCPClientIOHandler12StartConnectERKSt10shared_ptrIN7asiopal9TCPClientEERKN7openpal12TimeDurationEENKUlRKS1_INS2_8ExecutorEEN4asio19basic_stream_socketINSF_2ip3tcpENSF_21stream_socket_serviceISI_EEEERKSt10error_codeE_clESE_SL_SO_ENUlvE_D1Ev
	add	x0, sp, 112
	bl	_ZZZN8asiodnp318TCPClientIOHandler12StartConnectERKSt10shared_ptrIN7asiopal9TCPClientEERKN7openpal12TimeDurationEENKUlRKS1_INS2_8ExecutorEEN4asio19basic_stream_socketINSF_2ip3tcpENSF_21stream_socket_serviceISI_EEEERKSt10error_codeE_clESE_SL_SO_ENUlvE_D1Ev
	mov	x0, x19
.LEHB32:
	bl	_Unwind_Resume
.LEHE32:
.L1011:
	ldr	x2, [sp, 184]
	mov	x19, x0
	mov	x1, x23
	add	x0, x2, 40
	bl	_ZN4asio6detail28reactive_socket_service_base7destroyERNS1_24base_implementation_typeE
	ldr	x0, [sp, 104]
	cbz	x0, .L976
	bl	_ZNSt16_Sp_counted_baseILN9__gnu_cxx12_Lock_policyE2EE10_M_releaseEv
.L976:
	mov	x0, x20
	mov	x1, 112
	bl	_ZdlPvm
	b	.L977
	.cfi_endproc
.LFE7744:
	.section	.gcc_except_table
.LLSDA7744:
	.byte	0xff
	.byte	0xff
	.byte	0x1
	.uleb128 .LLSDACSE7744-.LLSDACSB7744
.LLSDACSB7744:
	.uleb128 .LEHB23-.LFB7744
	.uleb128 .LEHE23-.LEHB23
	.uleb128 0
	.uleb128 0
	.uleb128 .LEHB24-.LFB7744
	.uleb128 .LEHE24-.LEHB24
	.uleb128 .L1010-.LFB7744
	.uleb128 0
	.uleb128 .LEHB25-.LFB7744
	.uleb128 .LEHE25-.LEHB25
	.uleb128 .L1009-.LFB7744
	.uleb128 0
	.uleb128 .LEHB26-.LFB7744
	.uleb128 .LEHE26-.LEHB26
	.uleb128 0
	.uleb128 0
	.uleb128 .LEHB27-.LFB7744
	.uleb128 .LEHE27-.LEHB27
	.uleb128 .L1007-.LFB7744
	.uleb128 0
	.uleb128 .LEHB28-.LFB7744
	.uleb128 .LEHE28-.LEHB28
	.uleb128 .L1011-.LFB7744
	.uleb128 0
	.uleb128 .LEHB29-.LFB7744
	.uleb128 .LEHE29-.LEHB29
	.uleb128 .L1008-.LFB7744
	.uleb128 0
	.uleb128 .LEHB30-.LFB7744
	.uleb128 .LEHE30-.LEHB30
	.uleb128 0
	.uleb128 0
	.uleb128 .LEHB31-.LFB7744
	.uleb128 .LEHE31-.LEHB31
	.uleb128 0
	.uleb128 0
	.uleb128 .LEHB32-.LFB7744
	.uleb128 .LEHE32-.LEHB32
	.uleb128 0
	.uleb128 0
.LLSDACSE7744:
	.text
	.size	_ZZN8asiodnp318TCPClientIOHandler12StartConnectERKSt10shared_ptrIN7asiopal9TCPClientEERKN7openpal12TimeDurationEENKUlRKS1_INS2_8ExecutorEEN4asio19basic_stream_socketINSF_2ip3tcpENSF_21stream_socket_serviceISI_EEEERKSt10error_codeE_clESE_SL_SO_, .-_ZZN8asiodnp318TCPClientIOHandler12StartConnectERKSt10shared_ptrIN7asiopal9TCPClientEERKN7openpal12TimeDurationEENKUlRKS1_INS2_8ExecutorEEN4asio19basic_stream_socketINSF_2ip3tcpENSF_21stream_socket_serviceISI_EEEERKSt10error_codeE_clESE_SL_SO_
	.align	2
	.p2align 4,,11
	.type	_ZNSt17_Function_handlerIFvRKSt10shared_ptrIN7asiopal8ExecutorEEN4asio19basic_stream_socketINS6_2ip3tcpENS6_21stream_socket_serviceIS9_EEEERKSt10error_codeEZN8asiodnp318TCPClientIOHandler12StartConnectERKS0_INS1_9TCPClientEERKN7openpal12TimeDurationEEUlS5_SC_SF_E_E9_M_invokeERKSt9_Any_dataS5_OSC_SF_, %function
_ZNSt17_Function_handlerIFvRKSt10shared_ptrIN7asiopal8ExecutorEEN4asio19basic_stream_socketINS6_2ip3tcpENS6_21stream_socket_serviceIS9_EEEERKSt10error_codeEZN8asiodnp318TCPClientIOHandler12StartConnectERKS0_INS1_9TCPClientEERKN7openpal12TimeDurationEEUlS5_SC_SF_E_E9_M_invokeERKSt9_Any_dataS5_OSC_SF_:
.LFB9180:
	.cfi_startproc
	.cfi_personality 0x9b,DW.ref.__gxx_personality_v0
	.cfi_lsda 0x1b,.LLSDA9180
	stp	x29, x30, [sp, -80]!
	.cfi_def_cfa_offset 80
	.cfi_offset 29, -80
	.cfi_offset 30, -72
	mov	x4, x2
	adrp	x5, :got:__stack_chk_guard
	mov	x29, sp
	ldr	x5, [x5, #:got_lo12:__stack_chk_guard]
	mov	w2, -1
	ldr	w8, [x4]
	mov	w9, 2
	ldr	x0, [x0]
	str	x19, [sp, 16]
	.cfi_offset 19, -64
	add	x19, sp, 40
	ldr	x6, [x5]
	str	x6, [sp, 72]
	mov	x6, 0
	ldrb	w7, [x4, 4]
	ldr	w5, [x4, 16]
	str	w2, [x4]
	mov	x2, x19
	strb	wzr, [x4, 4]
	str	w9, [x4, 16]
	ldr	x6, [x4, 8]
	str	xzr, [x4, 8]
	ldr	x4, [x4, 24]
	str	w8, [sp, 40]
	strb	w7, [sp, 44]
	str	x6, [sp, 48]
	str	w5, [sp, 56]
	str	x4, [sp, 64]
.LEHB33:
	bl	_ZZN8asiodnp318TCPClientIOHandler12StartConnectERKSt10shared_ptrIN7asiopal9TCPClientEERKN7openpal12TimeDurationEENKUlRKS1_INS2_8ExecutorEEN4asio19basic_stream_socketINSF_2ip3tcpENSF_21stream_socket_serviceISI_EEEERKSt10error_codeE_clESE_SL_SO_
.LEHE33:
	ldr	x0, [sp, 64]
	mov	x1, x19
	add	x0, x0, 40
	bl	_ZN4asio6detail28reactive_socket_service_base7destroyERNS1_24base_implementation_typeE
	adrp	x0, :got:__stack_chk_guard
	ldr	x0, [x0, #:got_lo12:__stack_chk_guard]
	ldr	x2, [sp, 72]
	ldr	x1, [x0]
	subs	x2, x2, x1
	mov	x1, 0
	bne	.L1099
	ldr	x19, [sp, 16]
	ldp	x29, x30, [sp], 80
	.cfi_remember_state
	.cfi_restore 30
	.cfi_restore 29
	.cfi_restore 19
	.cfi_def_cfa_offset 0
	ret
.L1099:
	.cfi_restore_state
	bl	__stack_chk_fail
.L1096:
	ldr	x2, [sp, 64]
	mov	x1, x19
	mov	x19, x0
	add	x0, x2, 40
	bl	_ZN4asio6detail28reactive_socket_service_base7destroyERNS1_24base_implementation_typeE
	mov	x0, x19
.LEHB34:
	bl	_Unwind_Resume
.LEHE34:
	.cfi_endproc
.LFE9180:
	.section	.gcc_except_table
.LLSDA9180:
	.byte	0xff
	.byte	0xff
	.byte	0x1
	.uleb128 .LLSDACSE9180-.LLSDACSB9180
.LLSDACSB9180:
	.uleb128 .LEHB33-.LFB9180
	.uleb128 .LEHE33-.LEHB33
	.uleb128 .L1096-.LFB9180
	.uleb128 0
	.uleb128 .LEHB34-.LFB9180
	.uleb128 .LEHE34-.LEHB34
	.uleb128 0
	.uleb128 0
.LLSDACSE9180:
	.text
	.size	_ZNSt17_Function_handlerIFvRKSt10shared_ptrIN7asiopal8ExecutorEEN4asio19basic_stream_socketINS6_2ip3tcpENS6_21stream_socket_serviceIS9_EEEERKSt10error_codeEZN8asiodnp318TCPClientIOHandler12StartConnectERKS0_INS1_9TCPClientEERKN7openpal12TimeDurationEEUlS5_SC_SF_E_E9_M_invokeERKSt9_Any_dataS5_OSC_SF_, .-_ZNSt17_Function_handlerIFvRKSt10shared_ptrIN7asiopal8ExecutorEEN4asio19basic_stream_socketINS6_2ip3tcpENS6_21stream_socket_serviceIS9_EEEERKSt10error_codeEZN8asiodnp318TCPClientIOHandler12StartConnectERKS0_INS1_9TCPClientEERKN7openpal12TimeDurationEEUlS5_SC_SF_E_E9_M_invokeERKSt9_Any_dataS5_OSC_SF_
	.section	.text.startup,"ax",@progbits
	.align	2
	.p2align 4,,11
	.type	_GLOBAL__sub_I_TCPClientIOHandler.cpp, %function
_GLOBAL__sub_I_TCPClientIOHandler.cpp:
.LFB10662:
	.cfi_startproc
	stp	x29, x30, [sp, -32]!
	.cfi_def_cfa_offset 32
	.cfi_offset 29, -32
	.cfi_offset 30, -24
	mov	x29, sp
	str	x19, [sp, 16]
	.cfi_offset 19, -16
	adrp	x19, :got:_ZGVZN4asio5error18get_netdb_categoryEvE8instance
	bl	_ZN4asio15system_categoryEv
	ldr	x19, [x19, #:got_lo12:_ZGVZN4asio5error18get_netdb_categoryEvE8instance]
	ldar	x0, [x19]
	tbz	x0, 0, .L1125
.L1102:
	adrp	x19, :got:_ZGVZN4asio5error21get_addrinfo_categoryEvE8instance
	ldr	x19, [x19, #:got_lo12:_ZGVZN4asio5error21get_addrinfo_categoryEvE8instance]
	ldar	x0, [x19]
	tbz	x0, 0, .L1126
.L1105:
	adrp	x19, :got:_ZGVZN4asio5error17get_misc_categoryEvE8instance
	ldr	x19, [x19, #:got_lo12:_ZGVZN4asio5error17get_misc_categoryEvE8instance]
	ldar	x0, [x19]
	tbz	x0, 0, .L1127
.L1108:
	adrp	x2, :got:_ZGVN4asio6detail10call_stackINS0_15task_io_serviceENS0_27task_io_service_thread_infoEE4top_E
	ldr	x2, [x2, #:got_lo12:_ZGVN4asio6detail10call_stackINS0_15task_io_serviceENS0_27task_io_service_thread_infoEE4top_E]
	ldr	x0, [x2]
	tbz	x0, 0, .L1128
.L1110:
	adrp	x3, :got:_ZGVN4asio6detail12service_baseINS0_13epoll_reactorEE2idE
	ldr	x3, [x3, #:got_lo12:_ZGVN4asio6detail12service_baseINS0_13epoll_reactorEE2idE]
	ldr	x0, [x3]
	tbz	x0, 0, .L1129
.L1111:
	adrp	x3, :got:_ZGVN4asio6detail12service_baseINS0_15task_io_serviceEE2idE
	ldr	x3, [x3, #:got_lo12:_ZGVN4asio6detail12service_baseINS0_15task_io_serviceEE2idE]
	ldr	x0, [x3]
	tbz	x0, 0, .L1130
.L1112:
	adrp	x2, :got:_ZGVN4asio6detail10call_stackINS0_14strand_service11strand_implEhE4top_E
	ldr	x2, [x2, #:got_lo12:_ZGVN4asio6detail10call_stackINS0_14strand_service11strand_implEhE4top_E]
	ldr	x0, [x2]
	tbz	x0, 0, .L1131
.L1113:
	adrp	x3, :got:_ZGVN4asio6detail12service_baseINS0_14strand_serviceEE2idE
	ldr	x3, [x3, #:got_lo12:_ZGVN4asio6detail12service_baseINS0_14strand_serviceEE2idE]
	ldr	x0, [x3]
	tbz	x0, 0, .L1132
	ldr	x19, [sp, 16]
	ldp	x29, x30, [sp], 32
	.cfi_remember_state
	.cfi_restore 30
	.cfi_restore 29
	.cfi_restore 19
	.cfi_def_cfa_offset 0
	ret
.L1125:
	.cfi_restore_state
	mov	x0, x19
	bl	__cxa_guard_acquire
	cbz	w0, .L1102
	adrp	x1, :got:_ZZN4asio5error18get_netdb_categoryEvE8instance
	adrp	x0, :got:_ZN4asio5error6detail14netdb_categoryD1Ev
	adrp	x2, __dso_handle
	add	x2, x2, :lo12:__dso_handle
	ldr	x1, [x1, #:got_lo12:_ZZN4asio5error18get_netdb_categoryEvE8instance]
	ldr	x0, [x0, #:got_lo12:_ZN4asio5error6detail14netdb_categoryD1Ev]
	bl	__cxa_atexit
	mov	x0, x19
	bl	__cxa_guard_release
	b	.L1102
.L1132:
	mov	x4, 1
	adrp	x1, :got:_ZN4asio6detail12service_baseINS0_14strand_serviceEE2idE
	ldr	x19, [sp, 16]
	str	x4, [x3]
	adrp	x0, :got:_ZN4asio6detail10service_idINS0_14strand_serviceEED1Ev
	adrp	x2, __dso_handle
	ldp	x29, x30, [sp], 32
	.cfi_remember_state
	.cfi_restore 30
	.cfi_restore 29
	.cfi_restore 19
	.cfi_def_cfa_offset 0
	add	x2, x2, :lo12:__dso_handle
	ldr	x1, [x1, #:got_lo12:_ZN4asio6detail12service_baseINS0_14strand_serviceEE2idE]
	ldr	x0, [x0, #:got_lo12:_ZN4asio6detail10service_idINS0_14strand_serviceEED1Ev]
	b	__cxa_atexit
.L1131:
	.cfi_restore_state
	adrp	x19, :got:_ZN4asio6detail10call_stackINS0_14strand_service11strand_implEhE4top_E
	mov	x0, 1
	str	x0, [x2]
	ldr	x19, [x19, #:got_lo12:_ZN4asio6detail10call_stackINS0_14strand_service11strand_implEhE4top_E]
	mov	x0, x19
	bl	_ZN4asio6detail20posix_tss_ptr_createERj
	adrp	x0, :got:_ZN4asio6detail7tss_ptrINS0_10call_stackINS0_14strand_service11strand_implEhE7contextEED1Ev
	mov	x1, x19
	adrp	x2, __dso_handle
	add	x2, x2, :lo12:__dso_handle
	ldr	x0, [x0, #:got_lo12:_ZN4asio6detail7tss_ptrINS0_10call_stackINS0_14strand_service11strand_implEhE7contextEED1Ev]
	bl	__cxa_atexit
	b	.L1113
.L1130:
	adrp	x1, :got:_ZN4asio6detail12service_baseINS0_15task_io_serviceEE2idE
	adrp	x0, :got:_ZN4asio6detail10service_idINS0_15task_io_serviceEED1Ev
	mov	x4, 1
	adrp	x2, __dso_handle
	ldr	x1, [x1, #:got_lo12:_ZN4asio6detail12service_baseINS0_15task_io_serviceEE2idE]
	add	x2, x2, :lo12:__dso_handle
	ldr	x0, [x0, #:got_lo12:_ZN4asio6detail10service_idINS0_15task_io_serviceEED1Ev]
	str	x4, [x3]
	bl	__cxa_atexit
	b	.L1112
.L1129:
	adrp	x1, :got:_ZN4asio6detail12service_baseINS0_13epoll_reactorEE2idE
	adrp	x0, :got:_ZN4asio6detail10service_idINS0_13epoll_reactorEED1Ev
	mov	x4, 1
	adrp	x2, __dso_handle
	ldr	x1, [x1, #:got_lo12:_ZN4asio6detail12service_baseINS0_13epoll_reactorEE2idE]
	add	x2, x2, :lo12:__dso_handle
	ldr	x0, [x0, #:got_lo12:_ZN4asio6detail10service_idINS0_13epoll_reactorEED1Ev]
	str	x4, [x3]
	bl	__cxa_atexit
	b	.L1111
.L1128:
	adrp	x19, :got:_ZN4asio6detail10call_stackINS0_15task_io_serviceENS0_27task_io_service_thread_infoEE4top_E
	mov	x0, 1
	str	x0, [x2]
	ldr	x19, [x19, #:got_lo12:_ZN4asio6detail10call_stackINS0_15task_io_serviceENS0_27task_io_service_thread_infoEE4top_E]
	mov	x0, x19
	bl	_ZN4asio6detail20posix_tss_ptr_createERj
	adrp	x0, :got:_ZN4asio6detail7tss_ptrINS0_10call_stackINS0_15task_io_serviceENS0_27task_io_service_thread_infoEE7contextEED1Ev
	mov	x1, x19
	adrp	x2, __dso_handle
	add	x2, x2, :lo12:__dso_handle
	ldr	x0, [x0, #:got_lo12:_ZN4asio6detail7tss_ptrINS0_10call_stackINS0_15task_io_serviceENS0_27task_io_service_thread_infoEE7contextEED1Ev]
	bl	__cxa_atexit
	b	.L1110
.L1127:
	mov	x0, x19
	bl	__cxa_guard_acquire
	cbz	w0, .L1108
	adrp	x1, :got:_ZZN4asio5error17get_misc_categoryEvE8instance
	adrp	x0, :got:_ZN4asio5error6detail13misc_categoryD1Ev
	adrp	x2, __dso_handle
	add	x2, x2, :lo12:__dso_handle
	ldr	x1, [x1, #:got_lo12:_ZZN4asio5error17get_misc_categoryEvE8instance]
	ldr	x0, [x0, #:got_lo12:_ZN4asio5error6detail13misc_categoryD1Ev]
	bl	__cxa_atexit
	mov	x0, x19
	bl	__cxa_guard_release
	b	.L1108
.L1126:
	mov	x0, x19
	bl	__cxa_guard_acquire
	cbz	w0, .L1105
	adrp	x1, :got:_ZZN4asio5error21get_addrinfo_categoryEvE8instance
	adrp	x0, :got:_ZN4asio5error6detail17addrinfo_categoryD1Ev
	adrp	x2, __dso_handle
	add	x2, x2, :lo12:__dso_handle
	ldr	x1, [x1, #:got_lo12:_ZZN4asio5error21get_addrinfo_categoryEvE8instance]
	ldr	x0, [x0, #:got_lo12:_ZN4asio5error6detail17addrinfo_categoryD1Ev]
	bl	__cxa_atexit
	mov	x0, x19
	bl	__cxa_guard_release
	b	.L1105
	.cfi_endproc
.LFE10662:
	.size	_GLOBAL__sub_I_TCPClientIOHandler.cpp, .-_GLOBAL__sub_I_TCPClientIOHandler.cpp
	.section	.init_array,"aw"
	.align	3
	.xword	_GLOBAL__sub_I_TCPClientIOHandler.cpp
	.weak	_ZTSSt11_Mutex_baseILN9__gnu_cxx12_Lock_policyE2EE
	.section	.rodata._ZTSSt11_Mutex_baseILN9__gnu_cxx12_Lock_policyE2EE,"aG",@progbits,_ZTSSt11_Mutex_baseILN9__gnu_cxx12_Lock_policyE2EE,comdat
	.align	3
	.type	_ZTSSt11_Mutex_baseILN9__gnu_cxx12_Lock_policyE2EE, %object
	.size	_ZTSSt11_Mutex_baseILN9__gnu_cxx12_Lock_policyE2EE, 47
_ZTSSt11_Mutex_baseILN9__gnu_cxx12_Lock_policyE2EE:
	.string	"St11_Mutex_baseILN9__gnu_cxx12_Lock_policyE2EE"
	.weak	_ZTISt11_Mutex_baseILN9__gnu_cxx12_Lock_policyE2EE
	.section	.data.rel.ro._ZTISt11_Mutex_baseILN9__gnu_cxx12_Lock_policyE2EE,"awG",@progbits,_ZTISt11_Mutex_baseILN9__gnu_cxx12_Lock_policyE2EE,comdat
	.align	3
	.type	_ZTISt11_Mutex_baseILN9__gnu_cxx12_Lock_policyE2EE, %object
	.size	_ZTISt11_Mutex_baseILN9__gnu_cxx12_Lock_policyE2EE, 16
_ZTISt11_Mutex_baseILN9__gnu_cxx12_Lock_policyE2EE:
	.xword	_ZTVN10__cxxabiv117__class_type_infoE+16
	.xword	_ZTSSt11_Mutex_baseILN9__gnu_cxx12_Lock_policyE2EE
	.weak	_ZTSSt23enable_shared_from_thisIN7asiopal13IAsyncChannelEE
	.section	.rodata._ZTSSt23enable_shared_from_thisIN7asiopal13IAsyncChannelEE,"aG",@progbits,_ZTSSt23enable_shared_from_thisIN7asiopal13IAsyncChannelEE,comdat
	.align	3
	.type	_ZTSSt23enable_shared_from_thisIN7asiopal13IAsyncChannelEE, %object
	.size	_ZTSSt23enable_shared_from_thisIN7asiopal13IAsyncChannelEE, 55
_ZTSSt23enable_shared_from_thisIN7asiopal13IAsyncChannelEE:
	.string	"St23enable_shared_from_thisIN7asiopal13IAsyncChannelEE"
	.weak	_ZTISt23enable_shared_from_thisIN7asiopal13IAsyncChannelEE
	.section	.data.rel.ro._ZTISt23enable_shared_from_thisIN7asiopal13IAsyncChannelEE,"awG",@progbits,_ZTISt23enable_shared_from_thisIN7asiopal13IAsyncChannelEE,comdat
	.align	3
	.type	_ZTISt23enable_shared_from_thisIN7asiopal13IAsyncChannelEE, %object
	.size	_ZTISt23enable_shared_from_thisIN7asiopal13IAsyncChannelEE, 16
_ZTISt23enable_shared_from_thisIN7asiopal13IAsyncChannelEE:
	.xword	_ZTVN10__cxxabiv117__class_type_infoE+16
	.xword	_ZTSSt23enable_shared_from_thisIN7asiopal13IAsyncChannelEE
	.weak	_ZTSN7openpal10UncopyableE
	.section	.rodata._ZTSN7openpal10UncopyableE,"aG",@progbits,_ZTSN7openpal10UncopyableE,comdat
	.align	3
	.type	_ZTSN7openpal10UncopyableE, %object
	.size	_ZTSN7openpal10UncopyableE, 23
_ZTSN7openpal10UncopyableE:
	.string	"N7openpal10UncopyableE"
	.weak	_ZTIN7openpal10UncopyableE
	.section	.data.rel.ro._ZTIN7openpal10UncopyableE,"awG",@progbits,_ZTIN7openpal10UncopyableE,comdat
	.align	3
	.type	_ZTIN7openpal10UncopyableE, %object
	.size	_ZTIN7openpal10UncopyableE, 16
_ZTIN7openpal10UncopyableE:
	.xword	_ZTVN10__cxxabiv117__class_type_infoE+16
	.xword	_ZTSN7openpal10UncopyableE
	.weak	_ZTSSt19_Sp_make_shared_tag
	.section	.rodata._ZTSSt19_Sp_make_shared_tag,"aG",@progbits,_ZTSSt19_Sp_make_shared_tag,comdat
	.align	3
	.type	_ZTSSt19_Sp_make_shared_tag, %object
	.size	_ZTSSt19_Sp_make_shared_tag, 24
_ZTSSt19_Sp_make_shared_tag:
	.string	"St19_Sp_make_shared_tag"
	.weak	_ZGVN4asio6detail12service_baseINS0_14strand_serviceEE2idE
	.section	.bss._ZGVN4asio6detail12service_baseINS0_14strand_serviceEE2idE,"awG",@nobits,_ZGVN4asio6detail12service_baseINS0_14strand_serviceEE2idE,comdat
	.align	3
	.type	_ZGVN4asio6detail12service_baseINS0_14strand_serviceEE2idE, %gnu_unique_object
	.size	_ZGVN4asio6detail12service_baseINS0_14strand_serviceEE2idE, 8
_ZGVN4asio6detail12service_baseINS0_14strand_serviceEE2idE:
	.zero	8
	.weak	_ZGVN4asio6detail10call_stackINS0_14strand_service11strand_implEhE4top_E
	.section	.bss._ZGVN4asio6detail10call_stackINS0_14strand_service11strand_implEhE4top_E,"awG",@nobits,_ZGVN4asio6detail10call_stackINS0_14strand_service11strand_implEhE4top_E,comdat
	.align	3
	.type	_ZGVN4asio6detail10call_stackINS0_14strand_service11strand_implEhE4top_E, %gnu_unique_object
	.size	_ZGVN4asio6detail10call_stackINS0_14strand_service11strand_implEhE4top_E, 8
_ZGVN4asio6detail10call_stackINS0_14strand_service11strand_implEhE4top_E:
	.zero	8
	.weak	_ZGVN4asio6detail12service_baseINS0_15task_io_serviceEE2idE
	.section	.bss._ZGVN4asio6detail12service_baseINS0_15task_io_serviceEE2idE,"awG",@nobits,_ZGVN4asio6detail12service_baseINS0_15task_io_serviceEE2idE,comdat
	.align	3
	.type	_ZGVN4asio6detail12service_baseINS0_15task_io_serviceEE2idE, %gnu_unique_object
	.size	_ZGVN4asio6detail12service_baseINS0_15task_io_serviceEE2idE, 8
_ZGVN4asio6detail12service_baseINS0_15task_io_serviceEE2idE:
	.zero	8
	.weak	_ZGVN4asio6detail12service_baseINS0_13epoll_reactorEE2idE
	.section	.bss._ZGVN4asio6detail12service_baseINS0_13epoll_reactorEE2idE,"awG",@nobits,_ZGVN4asio6detail12service_baseINS0_13epoll_reactorEE2idE,comdat
	.align	3
	.type	_ZGVN4asio6detail12service_baseINS0_13epoll_reactorEE2idE, %gnu_unique_object
	.size	_ZGVN4asio6detail12service_baseINS0_13epoll_reactorEE2idE, 8
_ZGVN4asio6detail12service_baseINS0_13epoll_reactorEE2idE:
	.zero	8
	.weak	_ZGVN4asio6detail10call_stackINS0_15task_io_serviceENS0_27task_io_service_thread_infoEE4top_E
	.section	.bss._ZGVN4asio6detail10call_stackINS0_15task_io_serviceENS0_27task_io_service_thread_infoEE4top_E,"awG",@nobits,_ZGVN4asio6detail10call_stackINS0_15task_io_serviceENS0_27task_io_service_thread_infoEE4top_E,comdat
	.align	3
	.type	_ZGVN4asio6detail10call_stackINS0_15task_io_serviceENS0_27task_io_service_thread_infoEE4top_E, %gnu_unique_object
	.size	_ZGVN4asio6detail10call_stackINS0_15task_io_serviceENS0_27task_io_service_thread_infoEE4top_E, 8
_ZGVN4asio6detail10call_stackINS0_15task_io_serviceENS0_27task_io_service_thread_infoEE4top_E:
	.zero	8
	.weak	_ZN4asio6detail12service_baseINS0_14strand_serviceEE2idE
	.section	.bss._ZN4asio6detail12service_baseINS0_14strand_serviceEE2idE,"awG",@nobits,_ZN4asio6detail12service_baseINS0_14strand_serviceEE2idE,comdat
	.align	3
	.type	_ZN4asio6detail12service_baseINS0_14strand_serviceEE2idE, %gnu_unique_object
	.size	_ZN4asio6detail12service_baseINS0_14strand_serviceEE2idE, 1
_ZN4asio6detail12service_baseINS0_14strand_serviceEE2idE:
	.zero	1
	.weak	_ZN4asio6detail10call_stackINS0_14strand_service11strand_implEhE4top_E
	.section	.bss._ZN4asio6detail10call_stackINS0_14strand_service11strand_implEhE4top_E,"awG",@nobits,_ZN4asio6detail10call_stackINS0_14strand_service11strand_implEhE4top_E,comdat
	.align	3
	.type	_ZN4asio6detail10call_stackINS0_14strand_service11strand_implEhE4top_E, %gnu_unique_object
	.size	_ZN4asio6detail10call_stackINS0_14strand_service11strand_implEhE4top_E, 4
_ZN4asio6detail10call_stackINS0_14strand_service11strand_implEhE4top_E:
	.zero	4
	.weak	_ZN4asio6detail12service_baseINS0_15task_io_serviceEE2idE
	.section	.bss._ZN4asio6detail12service_baseINS0_15task_io_serviceEE2idE,"awG",@nobits,_ZN4asio6detail12service_baseINS0_15task_io_serviceEE2idE,comdat
	.align	3
	.type	_ZN4asio6detail12service_baseINS0_15task_io_serviceEE2idE, %gnu_unique_object
	.size	_ZN4asio6detail12service_baseINS0_15task_io_serviceEE2idE, 1
_ZN4asio6detail12service_baseINS0_15task_io_serviceEE2idE:
	.zero	1
	.weak	_ZN4asio6detail12service_baseINS0_13epoll_reactorEE2idE
	.section	.bss._ZN4asio6detail12service_baseINS0_13epoll_reactorEE2idE,"awG",@nobits,_ZN4asio6detail12service_baseINS0_13epoll_reactorEE2idE,comdat
	.align	3
	.type	_ZN4asio6detail12service_baseINS0_13epoll_reactorEE2idE, %gnu_unique_object
	.size	_ZN4asio6detail12service_baseINS0_13epoll_reactorEE2idE, 1
_ZN4asio6detail12service_baseINS0_13epoll_reactorEE2idE:
	.zero	1
	.weak	_ZN4asio6detail10call_stackINS0_15task_io_serviceENS0_27task_io_service_thread_infoEE4top_E
	.section	.bss._ZN4asio6detail10call_stackINS0_15task_io_serviceENS0_27task_io_service_thread_infoEE4top_E,"awG",@nobits,_ZN4asio6detail10call_stackINS0_15task_io_serviceENS0_27task_io_service_thread_infoEE4top_E,comdat
	.align	3
	.type	_ZN4asio6detail10call_stackINS0_15task_io_serviceENS0_27task_io_service_thread_infoEE4top_E, %gnu_unique_object
	.size	_ZN4asio6detail10call_stackINS0_15task_io_serviceENS0_27task_io_service_thread_infoEE4top_E, 4
_ZN4asio6detail10call_stackINS0_15task_io_serviceENS0_27task_io_service_thread_infoEE4top_E:
	.zero	4
	.weak	_ZTSSt16_Sp_counted_baseILN9__gnu_cxx12_Lock_policyE2EE
	.section	.rodata._ZTSSt16_Sp_counted_baseILN9__gnu_cxx12_Lock_policyE2EE,"aG",@progbits,_ZTSSt16_Sp_counted_baseILN9__gnu_cxx12_Lock_policyE2EE,comdat
	.align	3
	.type	_ZTSSt16_Sp_counted_baseILN9__gnu_cxx12_Lock_policyE2EE, %object
	.size	_ZTSSt16_Sp_counted_baseILN9__gnu_cxx12_Lock_policyE2EE, 52
_ZTSSt16_Sp_counted_baseILN9__gnu_cxx12_Lock_policyE2EE:
	.string	"St16_Sp_counted_baseILN9__gnu_cxx12_Lock_policyE2EE"
	.weak	_ZTISt16_Sp_counted_baseILN9__gnu_cxx12_Lock_policyE2EE
	.section	.data.rel.ro._ZTISt16_Sp_counted_baseILN9__gnu_cxx12_Lock_policyE2EE,"awG",@progbits,_ZTISt16_Sp_counted_baseILN9__gnu_cxx12_Lock_policyE2EE,comdat
	.align	3
	.type	_ZTISt16_Sp_counted_baseILN9__gnu_cxx12_Lock_policyE2EE, %object
	.size	_ZTISt16_Sp_counted_baseILN9__gnu_cxx12_Lock_policyE2EE, 24
_ZTISt16_Sp_counted_baseILN9__gnu_cxx12_Lock_policyE2EE:
	.xword	_ZTVN10__cxxabiv120__si_class_type_infoE+16
	.xword	_ZTSSt16_Sp_counted_baseILN9__gnu_cxx12_Lock_policyE2EE
	.xword	_ZTISt11_Mutex_baseILN9__gnu_cxx12_Lock_policyE2EE
	.weak	_ZTSN4asio6detail15system_categoryE
	.section	.rodata._ZTSN4asio6detail15system_categoryE,"aG",@progbits,_ZTSN4asio6detail15system_categoryE,comdat
	.align	3
	.type	_ZTSN4asio6detail15system_categoryE, %object
	.size	_ZTSN4asio6detail15system_categoryE, 32
_ZTSN4asio6detail15system_categoryE:
	.string	"N4asio6detail15system_categoryE"
	.weak	_ZTIN4asio6detail15system_categoryE
	.section	.data.rel.ro._ZTIN4asio6detail15system_categoryE,"awG",@progbits,_ZTIN4asio6detail15system_categoryE,comdat
	.align	3
	.type	_ZTIN4asio6detail15system_categoryE, %object
	.size	_ZTIN4asio6detail15system_categoryE, 24
_ZTIN4asio6detail15system_categoryE:
	.xword	_ZTVN10__cxxabiv120__si_class_type_infoE+16
	.xword	_ZTSN4asio6detail15system_categoryE
	.xword	_ZTINSt3_V214error_categoryE
	.weak	_ZTSN4asio5error6detail14netdb_categoryE
	.section	.rodata._ZTSN4asio5error6detail14netdb_categoryE,"aG",@progbits,_ZTSN4asio5error6detail14netdb_categoryE,comdat
	.align	3
	.type	_ZTSN4asio5error6detail14netdb_categoryE, %object
	.size	_ZTSN4asio5error6detail14netdb_categoryE, 37
_ZTSN4asio5error6detail14netdb_categoryE:
	.string	"N4asio5error6detail14netdb_categoryE"
	.weak	_ZTIN4asio5error6detail14netdb_categoryE
	.section	.data.rel.ro._ZTIN4asio5error6detail14netdb_categoryE,"awG",@progbits,_ZTIN4asio5error6detail14netdb_categoryE,comdat
	.align	3
	.type	_ZTIN4asio5error6detail14netdb_categoryE, %object
	.size	_ZTIN4asio5error6detail14netdb_categoryE, 24
_ZTIN4asio5error6detail14netdb_categoryE:
	.xword	_ZTVN10__cxxabiv120__si_class_type_infoE+16
	.xword	_ZTSN4asio5error6detail14netdb_categoryE
	.xword	_ZTINSt3_V214error_categoryE
	.weak	_ZTSN4asio5error6detail17addrinfo_categoryE
	.section	.rodata._ZTSN4asio5error6detail17addrinfo_categoryE,"aG",@progbits,_ZTSN4asio5error6detail17addrinfo_categoryE,comdat
	.align	3
	.type	_ZTSN4asio5error6detail17addrinfo_categoryE, %object
	.size	_ZTSN4asio5error6detail17addrinfo_categoryE, 40
_ZTSN4asio5error6detail17addrinfo_categoryE:
	.string	"N4asio5error6detail17addrinfo_categoryE"
	.weak	_ZTIN4asio5error6detail17addrinfo_categoryE
	.section	.data.rel.ro._ZTIN4asio5error6detail17addrinfo_categoryE,"awG",@progbits,_ZTIN4asio5error6detail17addrinfo_categoryE,comdat
	.align	3
	.type	_ZTIN4asio5error6detail17addrinfo_categoryE, %object
	.size	_ZTIN4asio5error6detail17addrinfo_categoryE, 24
_ZTIN4asio5error6detail17addrinfo_categoryE:
	.xword	_ZTVN10__cxxabiv120__si_class_type_infoE+16
	.xword	_ZTSN4asio5error6detail17addrinfo_categoryE
	.xword	_ZTINSt3_V214error_categoryE
	.weak	_ZTSN4asio5error6detail13misc_categoryE
	.section	.rodata._ZTSN4asio5error6detail13misc_categoryE,"aG",@progbits,_ZTSN4asio5error6detail13misc_categoryE,comdat
	.align	3
	.type	_ZTSN4asio5error6detail13misc_categoryE, %object
	.size	_ZTSN4asio5error6detail13misc_categoryE, 36
_ZTSN4asio5error6detail13misc_categoryE:
	.string	"N4asio5error6detail13misc_categoryE"
	.weak	_ZTIN4asio5error6detail13misc_categoryE
	.section	.data.rel.ro._ZTIN4asio5error6detail13misc_categoryE,"awG",@progbits,_ZTIN4asio5error6detail13misc_categoryE,comdat
	.align	3
	.type	_ZTIN4asio5error6detail13misc_categoryE, %object
	.size	_ZTIN4asio5error6detail13misc_categoryE, 24
_ZTIN4asio5error6detail13misc_categoryE:
	.xword	_ZTVN10__cxxabiv120__si_class_type_infoE+16
	.xword	_ZTSN4asio5error6detail13misc_categoryE
	.xword	_ZTINSt3_V214error_categoryE
	.weak	_ZTSN7asiopal13IAsyncChannelE
	.section	.rodata._ZTSN7asiopal13IAsyncChannelE,"aG",@progbits,_ZTSN7asiopal13IAsyncChannelE,comdat
	.align	3
	.type	_ZTSN7asiopal13IAsyncChannelE, %object
	.size	_ZTSN7asiopal13IAsyncChannelE, 26
_ZTSN7asiopal13IAsyncChannelE:
	.string	"N7asiopal13IAsyncChannelE"
	.weak	_ZTIN7asiopal13IAsyncChannelE
	.section	.data.rel.ro._ZTIN7asiopal13IAsyncChannelE,"awG",@progbits,_ZTIN7asiopal13IAsyncChannelE,comdat
	.align	3
	.type	_ZTIN7asiopal13IAsyncChannelE, %object
	.size	_ZTIN7asiopal13IAsyncChannelE, 56
_ZTIN7asiopal13IAsyncChannelE:
	.xword	_ZTVN10__cxxabiv121__vmi_class_type_infoE+16
	.xword	_ZTSN7asiopal13IAsyncChannelE
	.word	0
	.word	2
	.xword	_ZTISt23enable_shared_from_thisIN7asiopal13IAsyncChannelEE
	.xword	2050
	.xword	_ZTIN7openpal10UncopyableE
	.xword	0
	.weak	_ZTSN8asiodnp318TCPClientIOHandlerE
	.section	.rodata._ZTSN8asiodnp318TCPClientIOHandlerE,"aG",@progbits,_ZTSN8asiodnp318TCPClientIOHandlerE,comdat
	.align	3
	.type	_ZTSN8asiodnp318TCPClientIOHandlerE, %object
	.size	_ZTSN8asiodnp318TCPClientIOHandlerE, 32
_ZTSN8asiodnp318TCPClientIOHandlerE:
	.string	"N8asiodnp318TCPClientIOHandlerE"
	.weak	_ZTIN8asiodnp318TCPClientIOHandlerE
	.section	.data.rel.ro._ZTIN8asiodnp318TCPClientIOHandlerE,"awG",@progbits,_ZTIN8asiodnp318TCPClientIOHandlerE,comdat
	.align	3
	.type	_ZTIN8asiodnp318TCPClientIOHandlerE, %object
	.size	_ZTIN8asiodnp318TCPClientIOHandlerE, 24
_ZTIN8asiodnp318TCPClientIOHandlerE:
	.xword	_ZTVN10__cxxabiv120__si_class_type_infoE+16
	.xword	_ZTSN8asiodnp318TCPClientIOHandlerE
	.xword	_ZTIN8asiodnp39IOHandlerE
	.weak	_ZTSSt23_Sp_counted_ptr_inplaceIN7asiopal9TCPClientESaIS1_ELN9__gnu_cxx12_Lock_policyE2EE
	.section	.rodata._ZTSSt23_Sp_counted_ptr_inplaceIN7asiopal9TCPClientESaIS1_ELN9__gnu_cxx12_Lock_policyE2EE,"aG",@progbits,_ZTSSt23_Sp_counted_ptr_inplaceIN7asiopal9TCPClientESaIS1_ELN9__gnu_cxx12_Lock_policyE2EE,comdat
	.align	3
	.type	_ZTSSt23_Sp_counted_ptr_inplaceIN7asiopal9TCPClientESaIS1_ELN9__gnu_cxx12_Lock_policyE2EE, %object
	.size	_ZTSSt23_Sp_counted_ptr_inplaceIN7asiopal9TCPClientESaIS1_ELN9__gnu_cxx12_Lock_policyE2EE, 86
_ZTSSt23_Sp_counted_ptr_inplaceIN7asiopal9TCPClientESaIS1_ELN9__gnu_cxx12_Lock_policyE2EE:
	.string	"St23_Sp_counted_ptr_inplaceIN7asiopal9TCPClientESaIS1_ELN9__gnu_cxx12_Lock_policyE2EE"
	.weak	_ZTISt23_Sp_counted_ptr_inplaceIN7asiopal9TCPClientESaIS1_ELN9__gnu_cxx12_Lock_policyE2EE
	.section	.data.rel.ro._ZTISt23_Sp_counted_ptr_inplaceIN7asiopal9TCPClientESaIS1_ELN9__gnu_cxx12_Lock_policyE2EE,"awG",@progbits,_ZTISt23_Sp_counted_ptr_inplaceIN7asiopal9TCPClientESaIS1_ELN9__gnu_cxx12_Lock_policyE2EE,comdat
	.align	3
	.type	_ZTISt23_Sp_counted_ptr_inplaceIN7asiopal9TCPClientESaIS1_ELN9__gnu_cxx12_Lock_policyE2EE, %object
	.size	_ZTISt23_Sp_counted_ptr_inplaceIN7asiopal9TCPClientESaIS1_ELN9__gnu_cxx12_Lock_policyE2EE, 24
_ZTISt23_Sp_counted_ptr_inplaceIN7asiopal9TCPClientESaIS1_ELN9__gnu_cxx12_Lock_policyE2EE:
	.xword	_ZTVN10__cxxabiv120__si_class_type_infoE+16
	.xword	_ZTSSt23_Sp_counted_ptr_inplaceIN7asiopal9TCPClientESaIS1_ELN9__gnu_cxx12_Lock_policyE2EE
	.xword	_ZTISt16_Sp_counted_baseILN9__gnu_cxx12_Lock_policyE2EE
	.weak	_ZTSSt23_Sp_counted_ptr_inplaceIN7asiopal13SocketChannelESaIS1_ELN9__gnu_cxx12_Lock_policyE2EE
	.section	.rodata._ZTSSt23_Sp_counted_ptr_inplaceIN7asiopal13SocketChannelESaIS1_ELN9__gnu_cxx12_Lock_policyE2EE,"aG",@progbits,_ZTSSt23_Sp_counted_ptr_inplaceIN7asiopal13SocketChannelESaIS1_ELN9__gnu_cxx12_Lock_policyE2EE,comdat
	.align	3
	.type	_ZTSSt23_Sp_counted_ptr_inplaceIN7asiopal13SocketChannelESaIS1_ELN9__gnu_cxx12_Lock_policyE2EE, %object
	.size	_ZTSSt23_Sp_counted_ptr_inplaceIN7asiopal13SocketChannelESaIS1_ELN9__gnu_cxx12_Lock_policyE2EE, 91
_ZTSSt23_Sp_counted_ptr_inplaceIN7asiopal13SocketChannelESaIS1_ELN9__gnu_cxx12_Lock_policyE2EE:
	.string	"St23_Sp_counted_ptr_inplaceIN7asiopal13SocketChannelESaIS1_ELN9__gnu_cxx12_Lock_policyE2EE"
	.weak	_ZTISt23_Sp_counted_ptr_inplaceIN7asiopal13SocketChannelESaIS1_ELN9__gnu_cxx12_Lock_policyE2EE
	.section	.data.rel.ro._ZTISt23_Sp_counted_ptr_inplaceIN7asiopal13SocketChannelESaIS1_ELN9__gnu_cxx12_Lock_policyE2EE,"awG",@progbits,_ZTISt23_Sp_counted_ptr_inplaceIN7asiopal13SocketChannelESaIS1_ELN9__gnu_cxx12_Lock_policyE2EE,comdat
	.align	3
	.type	_ZTISt23_Sp_counted_ptr_inplaceIN7asiopal13SocketChannelESaIS1_ELN9__gnu_cxx12_Lock_policyE2EE, %object
	.size	_ZTISt23_Sp_counted_ptr_inplaceIN7asiopal13SocketChannelESaIS1_ELN9__gnu_cxx12_Lock_policyE2EE, 24
_ZTISt23_Sp_counted_ptr_inplaceIN7asiopal13SocketChannelESaIS1_ELN9__gnu_cxx12_Lock_policyE2EE:
	.xword	_ZTVN10__cxxabiv120__si_class_type_infoE+16
	.xword	_ZTSSt23_Sp_counted_ptr_inplaceIN7asiopal13SocketChannelESaIS1_ELN9__gnu_cxx12_Lock_policyE2EE
	.xword	_ZTISt16_Sp_counted_baseILN9__gnu_cxx12_Lock_policyE2EE
	.weak	_ZTVN4asio6detail15system_categoryE
	.section	.data.rel.ro._ZTVN4asio6detail15system_categoryE,"awG",@progbits,_ZTVN4asio6detail15system_categoryE,comdat
	.align	3
	.type	_ZTVN4asio6detail15system_categoryE, %object
	.size	_ZTVN4asio6detail15system_categoryE, 80
_ZTVN4asio6detail15system_categoryE:
	.xword	0
	.xword	_ZTIN4asio6detail15system_categoryE
	.xword	_ZN4asio6detail15system_categoryD1Ev
	.xword	_ZN4asio6detail15system_categoryD0Ev
	.xword	_ZNK4asio6detail15system_category4nameEv
	.xword	_ZNKSt3_V214error_category10_M_messageB5cxx11Ei
	.xword	_ZNK4asio6detail15system_category7messageB5cxx11Ei
	.xword	_ZNKSt3_V214error_category23default_error_conditionEi
	.xword	_ZNKSt3_V214error_category10equivalentEiRKSt15error_condition
	.xword	_ZNKSt3_V214error_category10equivalentERKSt10error_codei
	.weak	_ZTVN4asio5error6detail14netdb_categoryE
	.section	.data.rel.ro._ZTVN4asio5error6detail14netdb_categoryE,"awG",@progbits,_ZTVN4asio5error6detail14netdb_categoryE,comdat
	.align	3
	.type	_ZTVN4asio5error6detail14netdb_categoryE, %object
	.size	_ZTVN4asio5error6detail14netdb_categoryE, 80
_ZTVN4asio5error6detail14netdb_categoryE:
	.xword	0
	.xword	_ZTIN4asio5error6detail14netdb_categoryE
	.xword	_ZN4asio5error6detail14netdb_categoryD1Ev
	.xword	_ZN4asio5error6detail14netdb_categoryD0Ev
	.xword	_ZNK4asio5error6detail14netdb_category4nameEv
	.xword	_ZNKSt3_V214error_category10_M_messageB5cxx11Ei
	.xword	_ZNK4asio5error6detail14netdb_category7messageB5cxx11Ei
	.xword	_ZNKSt3_V214error_category23default_error_conditionEi
	.xword	_ZNKSt3_V214error_category10equivalentEiRKSt15error_condition
	.xword	_ZNKSt3_V214error_category10equivalentERKSt10error_codei
	.weak	_ZTVN4asio5error6detail17addrinfo_categoryE
	.section	.data.rel.ro._ZTVN4asio5error6detail17addrinfo_categoryE,"awG",@progbits,_ZTVN4asio5error6detail17addrinfo_categoryE,comdat
	.align	3
	.type	_ZTVN4asio5error6detail17addrinfo_categoryE, %object
	.size	_ZTVN4asio5error6detail17addrinfo_categoryE, 80
_ZTVN4asio5error6detail17addrinfo_categoryE:
	.xword	0
	.xword	_ZTIN4asio5error6detail17addrinfo_categoryE
	.xword	_ZN4asio5error6detail17addrinfo_categoryD1Ev
	.xword	_ZN4asio5error6detail17addrinfo_categoryD0Ev
	.xword	_ZNK4asio5error6detail17addrinfo_category4nameEv
	.xword	_ZNKSt3_V214error_category10_M_messageB5cxx11Ei
	.xword	_ZNK4asio5error6detail17addrinfo_category7messageB5cxx11Ei
	.xword	_ZNKSt3_V214error_category23default_error_conditionEi
	.xword	_ZNKSt3_V214error_category10equivalentEiRKSt15error_condition
	.xword	_ZNKSt3_V214error_category10equivalentERKSt10error_codei
	.weak	_ZTVN4asio5error6detail13misc_categoryE
	.section	.data.rel.ro._ZTVN4asio5error6detail13misc_categoryE,"awG",@progbits,_ZTVN4asio5error6detail13misc_categoryE,comdat
	.align	3
	.type	_ZTVN4asio5error6detail13misc_categoryE, %object
	.size	_ZTVN4asio5error6detail13misc_categoryE, 80
_ZTVN4asio5error6detail13misc_categoryE:
	.xword	0
	.xword	_ZTIN4asio5error6detail13misc_categoryE
	.xword	_ZN4asio5error6detail13misc_categoryD1Ev
	.xword	_ZN4asio5error6detail13misc_categoryD0Ev
	.xword	_ZNK4asio5error6detail13misc_category4nameEv
	.xword	_ZNKSt3_V214error_category10_M_messageB5cxx11Ei
	.xword	_ZNK4asio5error6detail13misc_category7messageB5cxx11Ei
	.xword	_ZNKSt3_V214error_category23default_error_conditionEi
	.xword	_ZNKSt3_V214error_category10equivalentEiRKSt15error_condition
	.xword	_ZNKSt3_V214error_category10equivalentERKSt10error_codei
	.weak	_ZTVN7asiopal13IAsyncChannelE
	.section	.data.rel.ro._ZTVN7asiopal13IAsyncChannelE,"awG",@progbits,_ZTVN7asiopal13IAsyncChannelE,comdat
	.align	3
	.type	_ZTVN7asiopal13IAsyncChannelE, %object
	.size	_ZTVN7asiopal13IAsyncChannelE, 56
_ZTVN7asiopal13IAsyncChannelE:
	.xword	0
	.xword	_ZTIN7asiopal13IAsyncChannelE
	.xword	0
	.xword	0
	.xword	__cxa_pure_virtual
	.xword	__cxa_pure_virtual
	.xword	__cxa_pure_virtual
	.weak	_ZTVN8asiodnp318TCPClientIOHandlerE
	.section	.data.rel.ro._ZTVN8asiodnp318TCPClientIOHandlerE,"awG",@progbits,_ZTVN8asiodnp318TCPClientIOHandlerE,comdat
	.align	3
	.type	_ZTVN8asiodnp318TCPClientIOHandlerE, %object
	.size	_ZTVN8asiodnp318TCPClientIOHandlerE, 136
_ZTVN8asiodnp318TCPClientIOHandlerE:
	.xword	0
	.xword	_ZTIN8asiodnp318TCPClientIOHandlerE
	.xword	_ZN8asiodnp318TCPClientIOHandlerD1Ev
	.xword	_ZN8asiodnp318TCPClientIOHandlerD0Ev
	.xword	_ZN8asiodnp39IOHandler7OnFrameERKN8opendnp316LinkHeaderFieldsERKN7openpal6RSliceE
	.xword	_ZN8asiodnp39IOHandler14OnReadCompleteERKSt10error_codem
	.xword	_ZN8asiodnp39IOHandler15OnWriteCompleteERKSt10error_codem
	.xword	_ZN8asiodnp318TCPClientIOHandler18BeginChannelAcceptEv
	.xword	_ZN8asiodnp318TCPClientIOHandler20SuspendChannelAcceptEv
	.xword	_ZN8asiodnp318TCPClientIOHandler12ShutdownImplEv
	.xword	_ZN8asiodnp318TCPClientIOHandler17OnChannelShutdownEv
	.xword	-8
	.xword	_ZTIN8asiodnp318TCPClientIOHandlerE
	.xword	_ZThn8_N8asiodnp318TCPClientIOHandlerD1Ev
	.xword	_ZThn8_N8asiodnp318TCPClientIOHandlerD0Ev
	.xword	_ZThn8_N8asiodnp39IOHandler14OnReadCompleteERKSt10error_codem
	.xword	_ZThn8_N8asiodnp39IOHandler15OnWriteCompleteERKSt10error_codem
	.weak	_ZTVSt23_Sp_counted_ptr_inplaceIN7asiopal9TCPClientESaIS1_ELN9__gnu_cxx12_Lock_policyE2EE
	.section	.data.rel.ro._ZTVSt23_Sp_counted_ptr_inplaceIN7asiopal9TCPClientESaIS1_ELN9__gnu_cxx12_Lock_policyE2EE,"awG",@progbits,_ZTVSt23_Sp_counted_ptr_inplaceIN7asiopal9TCPClientESaIS1_ELN9__gnu_cxx12_Lock_policyE2EE,comdat
	.align	3
	.type	_ZTVSt23_Sp_counted_ptr_inplaceIN7asiopal9TCPClientESaIS1_ELN9__gnu_cxx12_Lock_policyE2EE, %object
	.size	_ZTVSt23_Sp_counted_ptr_inplaceIN7asiopal9TCPClientESaIS1_ELN9__gnu_cxx12_Lock_policyE2EE, 56
_ZTVSt23_Sp_counted_ptr_inplaceIN7asiopal9TCPClientESaIS1_ELN9__gnu_cxx12_Lock_policyE2EE:
	.xword	0
	.xword	_ZTISt23_Sp_counted_ptr_inplaceIN7asiopal9TCPClientESaIS1_ELN9__gnu_cxx12_Lock_policyE2EE
	.xword	_ZNSt23_Sp_counted_ptr_inplaceIN7asiopal9TCPClientESaIS1_ELN9__gnu_cxx12_Lock_policyE2EED1Ev
	.xword	_ZNSt23_Sp_counted_ptr_inplaceIN7asiopal9TCPClientESaIS1_ELN9__gnu_cxx12_Lock_policyE2EED0Ev
	.xword	_ZNSt23_Sp_counted_ptr_inplaceIN7asiopal9TCPClientESaIS1_ELN9__gnu_cxx12_Lock_policyE2EE10_M_disposeEv
	.xword	_ZNSt23_Sp_counted_ptr_inplaceIN7asiopal9TCPClientESaIS1_ELN9__gnu_cxx12_Lock_policyE2EE10_M_destroyEv
	.xword	_ZNSt23_Sp_counted_ptr_inplaceIN7asiopal9TCPClientESaIS1_ELN9__gnu_cxx12_Lock_policyE2EE14_M_get_deleterERKSt9type_info
	.weak	_ZTVSt23_Sp_counted_ptr_inplaceIN7asiopal13SocketChannelESaIS1_ELN9__gnu_cxx12_Lock_policyE2EE
	.section	.data.rel.ro._ZTVSt23_Sp_counted_ptr_inplaceIN7asiopal13SocketChannelESaIS1_ELN9__gnu_cxx12_Lock_policyE2EE,"awG",@progbits,_ZTVSt23_Sp_counted_ptr_inplaceIN7asiopal13SocketChannelESaIS1_ELN9__gnu_cxx12_Lock_policyE2EE,comdat
	.align	3
	.type	_ZTVSt23_Sp_counted_ptr_inplaceIN7asiopal13SocketChannelESaIS1_ELN9__gnu_cxx12_Lock_policyE2EE, %object
	.size	_ZTVSt23_Sp_counted_ptr_inplaceIN7asiopal13SocketChannelESaIS1_ELN9__gnu_cxx12_Lock_policyE2EE, 56
_ZTVSt23_Sp_counted_ptr_inplaceIN7asiopal13SocketChannelESaIS1_ELN9__gnu_cxx12_Lock_policyE2EE:
	.xword	0
	.xword	_ZTISt23_Sp_counted_ptr_inplaceIN7asiopal13SocketChannelESaIS1_ELN9__gnu_cxx12_Lock_policyE2EE
	.xword	_ZNSt23_Sp_counted_ptr_inplaceIN7asiopal13SocketChannelESaIS1_ELN9__gnu_cxx12_Lock_policyE2EED1Ev
	.xword	_ZNSt23_Sp_counted_ptr_inplaceIN7asiopal13SocketChannelESaIS1_ELN9__gnu_cxx12_Lock_policyE2EED0Ev
	.xword	_ZNSt23_Sp_counted_ptr_inplaceIN7asiopal13SocketChannelESaIS1_ELN9__gnu_cxx12_Lock_policyE2EE10_M_disposeEv
	.xword	_ZNSt23_Sp_counted_ptr_inplaceIN7asiopal13SocketChannelESaIS1_ELN9__gnu_cxx12_Lock_policyE2EE10_M_destroyEv
	.xword	_ZNSt23_Sp_counted_ptr_inplaceIN7asiopal13SocketChannelESaIS1_ELN9__gnu_cxx12_Lock_policyE2EE14_M_get_deleterERKSt9type_info
	.weak	_ZGVZN4asio5error17get_misc_categoryEvE8instance
	.section	.bss._ZGVZN4asio5error17get_misc_categoryEvE8instance,"awG",@nobits,_ZGVZN4asio5error17get_misc_categoryEvE8instance,comdat
	.align	3
	.type	_ZGVZN4asio5error17get_misc_categoryEvE8instance, %gnu_unique_object
	.size	_ZGVZN4asio5error17get_misc_categoryEvE8instance, 8
_ZGVZN4asio5error17get_misc_categoryEvE8instance:
	.zero	8
	.weak	_ZZN4asio5error17get_misc_categoryEvE8instance
	.section	.data.rel._ZZN4asio5error17get_misc_categoryEvE8instance,"awG",@progbits,_ZZN4asio5error17get_misc_categoryEvE8instance,comdat
	.align	3
	.type	_ZZN4asio5error17get_misc_categoryEvE8instance, %gnu_unique_object
	.size	_ZZN4asio5error17get_misc_categoryEvE8instance, 8
_ZZN4asio5error17get_misc_categoryEvE8instance:
	.xword	_ZTVN4asio5error6detail13misc_categoryE+16
	.weak	_ZGVZN4asio5error21get_addrinfo_categoryEvE8instance
	.section	.bss._ZGVZN4asio5error21get_addrinfo_categoryEvE8instance,"awG",@nobits,_ZGVZN4asio5error21get_addrinfo_categoryEvE8instance,comdat
	.align	3
	.type	_ZGVZN4asio5error21get_addrinfo_categoryEvE8instance, %gnu_unique_object
	.size	_ZGVZN4asio5error21get_addrinfo_categoryEvE8instance, 8
_ZGVZN4asio5error21get_addrinfo_categoryEvE8instance:
	.zero	8
	.weak	_ZZN4asio5error21get_addrinfo_categoryEvE8instance
	.section	.data.rel._ZZN4asio5error21get_addrinfo_categoryEvE8instance,"awG",@progbits,_ZZN4asio5error21get_addrinfo_categoryEvE8instance,comdat
	.align	3
	.type	_ZZN4asio5error21get_addrinfo_categoryEvE8instance, %gnu_unique_object
	.size	_ZZN4asio5error21get_addrinfo_categoryEvE8instance, 8
_ZZN4asio5error21get_addrinfo_categoryEvE8instance:
	.xword	_ZTVN4asio5error6detail17addrinfo_categoryE+16
	.weak	_ZGVZN4asio5error18get_netdb_categoryEvE8instance
	.section	.bss._ZGVZN4asio5error18get_netdb_categoryEvE8instance,"awG",@nobits,_ZGVZN4asio5error18get_netdb_categoryEvE8instance,comdat
	.align	3
	.type	_ZGVZN4asio5error18get_netdb_categoryEvE8instance, %gnu_unique_object
	.size	_ZGVZN4asio5error18get_netdb_categoryEvE8instance, 8
_ZGVZN4asio5error18get_netdb_categoryEvE8instance:
	.zero	8
	.weak	_ZZN4asio5error18get_netdb_categoryEvE8instance
	.section	.data.rel._ZZN4asio5error18get_netdb_categoryEvE8instance,"awG",@progbits,_ZZN4asio5error18get_netdb_categoryEvE8instance,comdat
	.align	3
	.type	_ZZN4asio5error18get_netdb_categoryEvE8instance, %gnu_unique_object
	.size	_ZZN4asio5error18get_netdb_categoryEvE8instance, 8
_ZZN4asio5error18get_netdb_categoryEvE8instance:
	.xword	_ZTVN4asio5error6detail14netdb_categoryE+16
	.weak	_ZGVZN4asio15system_categoryEvE8instance
	.section	.bss._ZGVZN4asio15system_categoryEvE8instance,"awG",@nobits,_ZGVZN4asio15system_categoryEvE8instance,comdat
	.align	3
	.type	_ZGVZN4asio15system_categoryEvE8instance, %gnu_unique_object
	.size	_ZGVZN4asio15system_categoryEvE8instance, 8
_ZGVZN4asio15system_categoryEvE8instance:
	.zero	8
	.weak	_ZZN4asio15system_categoryEvE8instance
	.section	.data.rel._ZZN4asio15system_categoryEvE8instance,"awG",@progbits,_ZZN4asio15system_categoryEvE8instance,comdat
	.align	3
	.type	_ZZN4asio15system_categoryEvE8instance, %gnu_unique_object
	.size	_ZZN4asio15system_categoryEvE8instance, 8
_ZZN4asio15system_categoryEvE8instance:
	.xword	_ZTVN4asio6detail15system_categoryE+16
	.weak	_ZZNSt19_Sp_make_shared_tag5_S_tiEvE5__tag
	.section	.rodata._ZZNSt19_Sp_make_shared_tag5_S_tiEvE5__tag,"aG",@progbits,_ZZNSt19_Sp_make_shared_tag5_S_tiEvE5__tag,comdat
	.align	3
	.type	_ZZNSt19_Sp_make_shared_tag5_S_tiEvE5__tag, %gnu_unique_object
	.size	_ZZNSt19_Sp_make_shared_tag5_S_tiEvE5__tag, 16
_ZZNSt19_Sp_make_shared_tag5_S_tiEvE5__tag:
	.zero	16
	.section	.rodata
	.align	3
	.type	_ZTSZN8asiodnp318TCPClientIOHandler12StartConnectERKSt10shared_ptrIN7asiopal9TCPClientEERKN7openpal12TimeDurationEEUlRKS1_INS2_8ExecutorEEN4asio19basic_stream_socketINSF_2ip3tcpENSF_21stream_socket_serviceISI_EEEERKSt10error_codeE_, %object
	.size	_ZTSZN8asiodnp318TCPClientIOHandler12StartConnectERKSt10shared_ptrIN7asiopal9TCPClientEERKN7openpal12TimeDurationEEUlRKS1_INS2_8ExecutorEEN4asio19basic_stream_socketINSF_2ip3tcpENSF_21stream_socket_serviceISI_EEEERKSt10error_codeE_, 229
_ZTSZN8asiodnp318TCPClientIOHandler12StartConnectERKSt10shared_ptrIN7asiopal9TCPClientEERKN7openpal12TimeDurationEEUlRKS1_INS2_8ExecutorEEN4asio19basic_stream_socketINSF_2ip3tcpENSF_21stream_socket_serviceISI_EEEERKSt10error_codeE_:
	.string	"*ZN8asiodnp318TCPClientIOHandler12StartConnectERKSt10shared_ptrIN7asiopal9TCPClientEERKN7openpal12TimeDurationEEUlRKS1_INS2_8ExecutorEEN4asio19basic_stream_socketINSF_2ip3tcpENSF_21stream_socket_serviceISI_EEEERKSt10error_codeE_"
	.zero	3
	.type	_ZTSZN7openpal8TimerRef5StartIZZN8asiodnp318TCPClientIOHandler12StartConnectERKSt10shared_ptrIN7asiopal9TCPClientEERKNS_12TimeDurationEENKUlRKS4_INS5_8ExecutorEEN4asio19basic_stream_socketINSH_2ip3tcpENSH_21stream_socket_serviceISK_EEEERKSt10error_codeE_clESG_SN_SQ_EUlvE_EEbSC_RKT_EUlvE_, %object
	.size	_ZTSZN7openpal8TimerRef5StartIZZN8asiodnp318TCPClientIOHandler12StartConnectERKSt10shared_ptrIN7asiopal9TCPClientEERKNS_12TimeDurationEENKUlRKS4_INS5_8ExecutorEEN4asio19basic_stream_socketINSH_2ip3tcpENSH_21stream_socket_serviceISK_EEEERKSt10error_codeE_clESG_SN_SQ_EUlvE_EEbSC_RKT_EUlvE_, 286
_ZTSZN7openpal8TimerRef5StartIZZN8asiodnp318TCPClientIOHandler12StartConnectERKSt10shared_ptrIN7asiopal9TCPClientEERKNS_12TimeDurationEENKUlRKS4_INS5_8ExecutorEEN4asio19basic_stream_socketINSH_2ip3tcpENSH_21stream_socket_serviceISK_EEEERKSt10error_codeE_clESG_SN_SQ_EUlvE_EEbSC_RKT_EUlvE_:
	.ascii	"*ZN7openpal8TimerRef5StartIZZ"
	.string	"N8asiodnp318TCPClientIOHandler12StartConnectERKSt10shared_ptrIN7asiopal9TCPClientEERKNS_12TimeDurationEENKUlRKS4_INS5_8ExecutorEEN4asio19basic_stream_socketINSH_2ip3tcpENSH_21stream_socket_serviceISK_EEEERKSt10error_codeE_clESG_SN_SQ_EUlvE_EEbSC_RKT_EUlvE_"
	.section	.data.rel.ro,"aw"
	.align	3
	.set	.LANCHOR0,. + 0
	.type	_ZTIZN8asiodnp318TCPClientIOHandler12StartConnectERKSt10shared_ptrIN7asiopal9TCPClientEERKN7openpal12TimeDurationEEUlRKS1_INS2_8ExecutorEEN4asio19basic_stream_socketINSF_2ip3tcpENSF_21stream_socket_serviceISI_EEEERKSt10error_codeE_, %object
	.size	_ZTIZN8asiodnp318TCPClientIOHandler12StartConnectERKSt10shared_ptrIN7asiopal9TCPClientEERKN7openpal12TimeDurationEEUlRKS1_INS2_8ExecutorEEN4asio19basic_stream_socketINSF_2ip3tcpENSF_21stream_socket_serviceISI_EEEERKSt10error_codeE_, 16
_ZTIZN8asiodnp318TCPClientIOHandler12StartConnectERKSt10shared_ptrIN7asiopal9TCPClientEERKN7openpal12TimeDurationEEUlRKS1_INS2_8ExecutorEEN4asio19basic_stream_socketINSF_2ip3tcpENSF_21stream_socket_serviceISI_EEEERKSt10error_codeE_:
	.xword	_ZTVN10__cxxabiv117__class_type_infoE+16
	.xword	_ZTSZN8asiodnp318TCPClientIOHandler12StartConnectERKSt10shared_ptrIN7asiopal9TCPClientEERKN7openpal12TimeDurationEEUlRKS1_INS2_8ExecutorEEN4asio19basic_stream_socketINSF_2ip3tcpENSF_21stream_socket_serviceISI_EEEERKSt10error_codeE_
	.type	_ZTIZN7openpal8TimerRef5StartIZZN8asiodnp318TCPClientIOHandler12StartConnectERKSt10shared_ptrIN7asiopal9TCPClientEERKNS_12TimeDurationEENKUlRKS4_INS5_8ExecutorEEN4asio19basic_stream_socketINSH_2ip3tcpENSH_21stream_socket_serviceISK_EEEERKSt10error_codeE_clESG_SN_SQ_EUlvE_EEbSC_RKT_EUlvE_, %object
	.size	_ZTIZN7openpal8TimerRef5StartIZZN8asiodnp318TCPClientIOHandler12StartConnectERKSt10shared_ptrIN7asiopal9TCPClientEERKNS_12TimeDurationEENKUlRKS4_INS5_8ExecutorEEN4asio19basic_stream_socketINSH_2ip3tcpENSH_21stream_socket_serviceISK_EEEERKSt10error_codeE_clESG_SN_SQ_EUlvE_EEbSC_RKT_EUlvE_, 16
_ZTIZN7openpal8TimerRef5StartIZZN8asiodnp318TCPClientIOHandler12StartConnectERKSt10shared_ptrIN7asiopal9TCPClientEERKNS_12TimeDurationEENKUlRKS4_INS5_8ExecutorEEN4asio19basic_stream_socketINSH_2ip3tcpENSH_21stream_socket_serviceISK_EEEERKSt10error_codeE_clESG_SN_SQ_EUlvE_EEbSC_RKT_EUlvE_:
	.xword	_ZTVN10__cxxabiv117__class_type_infoE+16
	.xword	_ZTSZN7openpal8TimerRef5StartIZZN8asiodnp318TCPClientIOHandler12StartConnectERKSt10shared_ptrIN7asiopal9TCPClientEERKNS_12TimeDurationEENKUlRKS4_INS5_8ExecutorEEN4asio19basic_stream_socketINSH_2ip3tcpENSH_21stream_socket_serviceISK_EEEERKSt10error_codeE_clESG_SN_SQ_EUlvE_EEbSC_RKT_EUlvE_
	.weak	__cxa_pure_virtual
	.hidden	DW.ref.__gxx_personality_v0
	.weak	DW.ref.__gxx_personality_v0
	.section	.data.rel.local.DW.ref.__gxx_personality_v0,"awG",@progbits,DW.ref.__gxx_personality_v0,comdat
	.align	3
	.type	DW.ref.__gxx_personality_v0, %object
	.size	DW.ref.__gxx_personality_v0, 8
DW.ref.__gxx_personality_v0:
	.xword	__gxx_personality_v0
	.hidden	__dso_handle
	.ident	"GCC: (Ubuntu 11.4.0-1ubuntu1~22.04) 11.4.0"
	.section	.note.GNU-stack,"",@progbits
