	.arch armv8-a
	.file	"TCPServerIOHandler.cpp"
	.text
	.section	.rodata._ZNK4asio6detail15system_category4nameEv.str1.8,"aMS",@progbits,1
	.align	3
.LC0:
	.string	"asio.system"
	.section	.text._ZNK4asio6detail15system_category4nameEv,"axG",@progbits,_ZNK4asio6detail15system_category4nameEv,comdat
	.align	2
	.p2align 4,,11
	.weak	_ZNK4asio6detail15system_category4nameEv
	.type	_ZNK4asio6detail15system_category4nameEv, %function
_ZNK4asio6detail15system_category4nameEv:
.LFB2874:
	.cfi_startproc
	adrp	x0, .LC0
	add	x0, x0, :lo12:.LC0
	ret
	.cfi_endproc
.LFE2874:
	.size	_ZNK4asio6detail15system_category4nameEv, .-_ZNK4asio6detail15system_category4nameEv
	.section	.rodata._ZNK4asio5error6detail14netdb_category4nameEv.str1.8,"aMS",@progbits,1
	.align	3
.LC1:
	.string	"asio.netdb"
	.section	.text._ZNK4asio5error6detail14netdb_category4nameEv,"axG",@progbits,_ZNK4asio5error6detail14netdb_category4nameEv,comdat
	.align	2
	.p2align 4,,11
	.weak	_ZNK4asio5error6detail14netdb_category4nameEv
	.type	_ZNK4asio5error6detail14netdb_category4nameEv, %function
_ZNK4asio5error6detail14netdb_category4nameEv:
.LFB2895:
	.cfi_startproc
	adrp	x0, .LC1
	add	x0, x0, :lo12:.LC1
	ret
	.cfi_endproc
.LFE2895:
	.size	_ZNK4asio5error6detail14netdb_category4nameEv, .-_ZNK4asio5error6detail14netdb_category4nameEv
	.section	.rodata._ZNK4asio5error6detail17addrinfo_category4nameEv.str1.8,"aMS",@progbits,1
	.align	3
.LC2:
	.string	"asio.addrinfo"
	.section	.text._ZNK4asio5error6detail17addrinfo_category4nameEv,"axG",@progbits,_ZNK4asio5error6detail17addrinfo_category4nameEv,comdat
	.align	2
	.p2align 4,,11
	.weak	_ZNK4asio5error6detail17addrinfo_category4nameEv
	.type	_ZNK4asio5error6detail17addrinfo_category4nameEv, %function
_ZNK4asio5error6detail17addrinfo_category4nameEv:
.LFB2901:
	.cfi_startproc
	adrp	x0, .LC2
	add	x0, x0, :lo12:.LC2
	ret
	.cfi_endproc
.LFE2901:
	.size	_ZNK4asio5error6detail17addrinfo_category4nameEv, .-_ZNK4asio5error6detail17addrinfo_category4nameEv
	.section	.rodata._ZNK4asio5error6detail13misc_category4nameEv.str1.8,"aMS",@progbits,1
	.align	3
.LC3:
	.string	"asio.misc"
	.section	.text._ZNK4asio5error6detail13misc_category4nameEv,"axG",@progbits,_ZNK4asio5error6detail13misc_category4nameEv,comdat
	.align	2
	.p2align 4,,11
	.weak	_ZNK4asio5error6detail13misc_category4nameEv
	.type	_ZNK4asio5error6detail13misc_category4nameEv, %function
_ZNK4asio5error6detail13misc_category4nameEv:
.LFB2907:
	.cfi_startproc
	adrp	x0, .LC3
	add	x0, x0, :lo12:.LC3
	ret
	.cfi_endproc
.LFE2907:
	.size	_ZNK4asio5error6detail13misc_category4nameEv, .-_ZNK4asio5error6detail13misc_category4nameEv
	.section	.text._ZN8asiodnp318TCPServerIOHandler6Server10OnShutdownEv,"axG",@progbits,_ZN8asiodnp318TCPServerIOHandler6Server10OnShutdownEv,comdat
	.align	2
	.p2align 4,,11
	.weak	_ZN8asiodnp318TCPServerIOHandler6Server10OnShutdownEv
	.type	_ZN8asiodnp318TCPServerIOHandler6Server10OnShutdownEv, %function
_ZN8asiodnp318TCPServerIOHandler6Server10OnShutdownEv:
.LFB7729:
	.cfi_startproc
	ret
	.cfi_endproc
.LFE7729:
	.size	_ZN8asiodnp318TCPServerIOHandler6Server10OnShutdownEv, .-_ZN8asiodnp318TCPServerIOHandler6Server10OnShutdownEv
	.section	.text._ZN8asiodnp318TCPServerIOHandler17OnChannelShutdownEv,"axG",@progbits,_ZN8asiodnp318TCPServerIOHandler17OnChannelShutdownEv,comdat
	.align	2
	.p2align 4,,11
	.weak	_ZN8asiodnp318TCPServerIOHandler17OnChannelShutdownEv
	.type	_ZN8asiodnp318TCPServerIOHandler17OnChannelShutdownEv, %function
_ZN8asiodnp318TCPServerIOHandler17OnChannelShutdownEv:
.LFB7737:
	.cfi_startproc
	ret
	.cfi_endproc
.LFE7737:
	.size	_ZN8asiodnp318TCPServerIOHandler17OnChannelShutdownEv, .-_ZN8asiodnp318TCPServerIOHandler17OnChannelShutdownEv
	.section	.text._ZN4asio6detail10service_idINS0_13epoll_reactorEED2Ev,"axG",@progbits,_ZN4asio6detail10service_idINS0_13epoll_reactorEED5Ev,comdat
	.align	2
	.p2align 4,,11
	.weak	_ZN4asio6detail10service_idINS0_13epoll_reactorEED2Ev
	.type	_ZN4asio6detail10service_idINS0_13epoll_reactorEED2Ev, %function
_ZN4asio6detail10service_idINS0_13epoll_reactorEED2Ev:
.LFB10507:
	.cfi_startproc
	ret
	.cfi_endproc
.LFE10507:
	.size	_ZN4asio6detail10service_idINS0_13epoll_reactorEED2Ev, .-_ZN4asio6detail10service_idINS0_13epoll_reactorEED2Ev
	.weak	_ZN4asio6detail10service_idINS0_13epoll_reactorEED1Ev
	.set	_ZN4asio6detail10service_idINS0_13epoll_reactorEED1Ev,_ZN4asio6detail10service_idINS0_13epoll_reactorEED2Ev
	.section	.text._ZN4asio6detail10service_idINS0_15task_io_serviceEED2Ev,"axG",@progbits,_ZN4asio6detail10service_idINS0_15task_io_serviceEED5Ev,comdat
	.align	2
	.p2align 4,,11
	.weak	_ZN4asio6detail10service_idINS0_15task_io_serviceEED2Ev
	.type	_ZN4asio6detail10service_idINS0_15task_io_serviceEED2Ev, %function
_ZN4asio6detail10service_idINS0_15task_io_serviceEED2Ev:
.LFB10510:
	.cfi_startproc
	ret
	.cfi_endproc
.LFE10510:
	.size	_ZN4asio6detail10service_idINS0_15task_io_serviceEED2Ev, .-_ZN4asio6detail10service_idINS0_15task_io_serviceEED2Ev
	.weak	_ZN4asio6detail10service_idINS0_15task_io_serviceEED1Ev
	.set	_ZN4asio6detail10service_idINS0_15task_io_serviceEED1Ev,_ZN4asio6detail10service_idINS0_15task_io_serviceEED2Ev
	.section	.text._ZN4asio6detail10service_idINS0_14strand_serviceEED2Ev,"axG",@progbits,_ZN4asio6detail10service_idINS0_14strand_serviceEED5Ev,comdat
	.align	2
	.p2align 4,,11
	.weak	_ZN4asio6detail10service_idINS0_14strand_serviceEED2Ev
	.type	_ZN4asio6detail10service_idINS0_14strand_serviceEED2Ev, %function
_ZN4asio6detail10service_idINS0_14strand_serviceEED2Ev:
.LFB10516:
	.cfi_startproc
	ret
	.cfi_endproc
.LFE10516:
	.size	_ZN4asio6detail10service_idINS0_14strand_serviceEED2Ev, .-_ZN4asio6detail10service_idINS0_14strand_serviceEED2Ev
	.weak	_ZN4asio6detail10service_idINS0_14strand_serviceEED1Ev
	.set	_ZN4asio6detail10service_idINS0_14strand_serviceEED1Ev,_ZN4asio6detail10service_idINS0_14strand_serviceEED2Ev
	.section	.text._ZNSt23_Sp_counted_ptr_inplaceIN8asiodnp318TCPServerIOHandler6ServerESaIS2_ELN9__gnu_cxx12_Lock_policyE2EED2Ev,"axG",@progbits,_ZNSt23_Sp_counted_ptr_inplaceIN8asiodnp318TCPServerIOHandler6ServerESaIS2_ELN9__gnu_cxx12_Lock_policyE2EED5Ev,comdat
	.align	2
	.p2align 4,,11
	.weak	_ZNSt23_Sp_counted_ptr_inplaceIN8asiodnp318TCPServerIOHandler6ServerESaIS2_ELN9__gnu_cxx12_Lock_policyE2EED2Ev
	.type	_ZNSt23_Sp_counted_ptr_inplaceIN8asiodnp318TCPServerIOHandler6ServerESaIS2_ELN9__gnu_cxx12_Lock_policyE2EED2Ev, %function
_ZNSt23_Sp_counted_ptr_inplaceIN8asiodnp318TCPServerIOHandler6ServerESaIS2_ELN9__gnu_cxx12_Lock_policyE2EED2Ev:
.LFB10519:
	.cfi_startproc
	ret
	.cfi_endproc
.LFE10519:
	.size	_ZNSt23_Sp_counted_ptr_inplaceIN8asiodnp318TCPServerIOHandler6ServerESaIS2_ELN9__gnu_cxx12_Lock_policyE2EED2Ev, .-_ZNSt23_Sp_counted_ptr_inplaceIN8asiodnp318TCPServerIOHandler6ServerESaIS2_ELN9__gnu_cxx12_Lock_policyE2EED2Ev
	.weak	_ZNSt23_Sp_counted_ptr_inplaceIN8asiodnp318TCPServerIOHandler6ServerESaIS2_ELN9__gnu_cxx12_Lock_policyE2EED1Ev
	.set	_ZNSt23_Sp_counted_ptr_inplaceIN8asiodnp318TCPServerIOHandler6ServerESaIS2_ELN9__gnu_cxx12_Lock_policyE2EED1Ev,_ZNSt23_Sp_counted_ptr_inplaceIN8asiodnp318TCPServerIOHandler6ServerESaIS2_ELN9__gnu_cxx12_Lock_policyE2EED2Ev
	.section	.text._ZNSt23_Sp_counted_ptr_inplaceIN7asiopal13SocketChannelESaIS1_ELN9__gnu_cxx12_Lock_policyE2EED2Ev,"axG",@progbits,_ZNSt23_Sp_counted_ptr_inplaceIN7asiopal13SocketChannelESaIS1_ELN9__gnu_cxx12_Lock_policyE2EED5Ev,comdat
	.align	2
	.p2align 4,,11
	.weak	_ZNSt23_Sp_counted_ptr_inplaceIN7asiopal13SocketChannelESaIS1_ELN9__gnu_cxx12_Lock_policyE2EED2Ev
	.type	_ZNSt23_Sp_counted_ptr_inplaceIN7asiopal13SocketChannelESaIS1_ELN9__gnu_cxx12_Lock_policyE2EED2Ev, %function
_ZNSt23_Sp_counted_ptr_inplaceIN7asiopal13SocketChannelESaIS1_ELN9__gnu_cxx12_Lock_policyE2EED2Ev:
.LFB10526:
	.cfi_startproc
	ret
	.cfi_endproc
.LFE10526:
	.size	_ZNSt23_Sp_counted_ptr_inplaceIN7asiopal13SocketChannelESaIS1_ELN9__gnu_cxx12_Lock_policyE2EED2Ev, .-_ZNSt23_Sp_counted_ptr_inplaceIN7asiopal13SocketChannelESaIS1_ELN9__gnu_cxx12_Lock_policyE2EED2Ev
	.weak	_ZNSt23_Sp_counted_ptr_inplaceIN7asiopal13SocketChannelESaIS1_ELN9__gnu_cxx12_Lock_policyE2EED1Ev
	.set	_ZNSt23_Sp_counted_ptr_inplaceIN7asiopal13SocketChannelESaIS1_ELN9__gnu_cxx12_Lock_policyE2EED1Ev,_ZNSt23_Sp_counted_ptr_inplaceIN7asiopal13SocketChannelESaIS1_ELN9__gnu_cxx12_Lock_policyE2EED2Ev
	.section	.text._ZN4asio6detail15system_categoryD2Ev,"axG",@progbits,_ZN4asio6detail15system_categoryD5Ev,comdat
	.align	2
	.p2align 4,,11
	.weak	_ZN4asio6detail15system_categoryD2Ev
	.type	_ZN4asio6detail15system_categoryD2Ev, %function
_ZN4asio6detail15system_categoryD2Ev:
.LFB10483:
	.cfi_startproc
	adrp	x1, :got:_ZTVN4asio6detail15system_categoryE
	ldr	x1, [x1, #:got_lo12:_ZTVN4asio6detail15system_categoryE]
	add	x1, x1, 16
	str	x1, [x0]
	b	_ZNSt3_V214error_categoryD2Ev
	.cfi_endproc
.LFE10483:
	.size	_ZN4asio6detail15system_categoryD2Ev, .-_ZN4asio6detail15system_categoryD2Ev
	.weak	_ZN4asio6detail15system_categoryD1Ev
	.set	_ZN4asio6detail15system_categoryD1Ev,_ZN4asio6detail15system_categoryD2Ev
	.section	.text._ZN4asio5error6detail14netdb_categoryD2Ev,"axG",@progbits,_ZN4asio5error6detail14netdb_categoryD5Ev,comdat
	.align	2
	.p2align 4,,11
	.weak	_ZN4asio5error6detail14netdb_categoryD2Ev
	.type	_ZN4asio5error6detail14netdb_categoryD2Ev, %function
_ZN4asio5error6detail14netdb_categoryD2Ev:
.LFB10479:
	.cfi_startproc
	adrp	x1, :got:_ZTVN4asio5error6detail14netdb_categoryE
	ldr	x1, [x1, #:got_lo12:_ZTVN4asio5error6detail14netdb_categoryE]
	add	x1, x1, 16
	str	x1, [x0]
	b	_ZNSt3_V214error_categoryD2Ev
	.cfi_endproc
.LFE10479:
	.size	_ZN4asio5error6detail14netdb_categoryD2Ev, .-_ZN4asio5error6detail14netdb_categoryD2Ev
	.weak	_ZN4asio5error6detail14netdb_categoryD1Ev
	.set	_ZN4asio5error6detail14netdb_categoryD1Ev,_ZN4asio5error6detail14netdb_categoryD2Ev
	.section	.text._ZN4asio5error6detail17addrinfo_categoryD2Ev,"axG",@progbits,_ZN4asio5error6detail17addrinfo_categoryD5Ev,comdat
	.align	2
	.p2align 4,,11
	.weak	_ZN4asio5error6detail17addrinfo_categoryD2Ev
	.type	_ZN4asio5error6detail17addrinfo_categoryD2Ev, %function
_ZN4asio5error6detail17addrinfo_categoryD2Ev:
.LFB10475:
	.cfi_startproc
	adrp	x1, :got:_ZTVN4asio5error6detail17addrinfo_categoryE
	ldr	x1, [x1, #:got_lo12:_ZTVN4asio5error6detail17addrinfo_categoryE]
	add	x1, x1, 16
	str	x1, [x0]
	b	_ZNSt3_V214error_categoryD2Ev
	.cfi_endproc
.LFE10475:
	.size	_ZN4asio5error6detail17addrinfo_categoryD2Ev, .-_ZN4asio5error6detail17addrinfo_categoryD2Ev
	.weak	_ZN4asio5error6detail17addrinfo_categoryD1Ev
	.set	_ZN4asio5error6detail17addrinfo_categoryD1Ev,_ZN4asio5error6detail17addrinfo_categoryD2Ev
	.section	.text._ZN4asio5error6detail13misc_categoryD2Ev,"axG",@progbits,_ZN4asio5error6detail13misc_categoryD5Ev,comdat
	.align	2
	.p2align 4,,11
	.weak	_ZN4asio5error6detail13misc_categoryD2Ev
	.type	_ZN4asio5error6detail13misc_categoryD2Ev, %function
_ZN4asio5error6detail13misc_categoryD2Ev:
.LFB10471:
	.cfi_startproc
	adrp	x1, :got:_ZTVN4asio5error6detail13misc_categoryE
	ldr	x1, [x1, #:got_lo12:_ZTVN4asio5error6detail13misc_categoryE]
	add	x1, x1, 16
	str	x1, [x0]
	b	_ZNSt3_V214error_categoryD2Ev
	.cfi_endproc
.LFE10471:
	.size	_ZN4asio5error6detail13misc_categoryD2Ev, .-_ZN4asio5error6detail13misc_categoryD2Ev
	.weak	_ZN4asio5error6detail13misc_categoryD1Ev
	.set	_ZN4asio5error6detail13misc_categoryD1Ev,_ZN4asio5error6detail13misc_categoryD2Ev
	.section	.text._ZN4asio6detail15system_categoryD0Ev,"axG",@progbits,_ZN4asio6detail15system_categoryD5Ev,comdat
	.align	2
	.p2align 4,,11
	.weak	_ZN4asio6detail15system_categoryD0Ev
	.type	_ZN4asio6detail15system_categoryD0Ev, %function
_ZN4asio6detail15system_categoryD0Ev:
.LFB10485:
	.cfi_startproc
	stp	x29, x30, [sp, -32]!
	.cfi_def_cfa_offset 32
	.cfi_offset 29, -32
	.cfi_offset 30, -24
	adrp	x1, :got:_ZTVN4asio6detail15system_categoryE
	mov	x29, sp
	ldr	x1, [x1, #:got_lo12:_ZTVN4asio6detail15system_categoryE]
	str	x19, [sp, 16]
	.cfi_offset 19, -16
	mov	x19, x0
	add	x1, x1, 16
	str	x1, [x0]
	bl	_ZNSt3_V214error_categoryD2Ev
	mov	x0, x19
	mov	x1, 8
	ldr	x19, [sp, 16]
	ldp	x29, x30, [sp], 32
	.cfi_restore 30
	.cfi_restore 29
	.cfi_restore 19
	.cfi_def_cfa_offset 0
	b	_ZdlPvm
	.cfi_endproc
.LFE10485:
	.size	_ZN4asio6detail15system_categoryD0Ev, .-_ZN4asio6detail15system_categoryD0Ev
	.section	.text._ZN4asio5error6detail14netdb_categoryD0Ev,"axG",@progbits,_ZN4asio5error6detail14netdb_categoryD5Ev,comdat
	.align	2
	.p2align 4,,11
	.weak	_ZN4asio5error6detail14netdb_categoryD0Ev
	.type	_ZN4asio5error6detail14netdb_categoryD0Ev, %function
_ZN4asio5error6detail14netdb_categoryD0Ev:
.LFB10481:
	.cfi_startproc
	stp	x29, x30, [sp, -32]!
	.cfi_def_cfa_offset 32
	.cfi_offset 29, -32
	.cfi_offset 30, -24
	adrp	x1, :got:_ZTVN4asio5error6detail14netdb_categoryE
	mov	x29, sp
	ldr	x1, [x1, #:got_lo12:_ZTVN4asio5error6detail14netdb_categoryE]
	str	x19, [sp, 16]
	.cfi_offset 19, -16
	mov	x19, x0
	add	x1, x1, 16
	str	x1, [x0]
	bl	_ZNSt3_V214error_categoryD2Ev
	mov	x0, x19
	mov	x1, 8
	ldr	x19, [sp, 16]
	ldp	x29, x30, [sp], 32
	.cfi_restore 30
	.cfi_restore 29
	.cfi_restore 19
	.cfi_def_cfa_offset 0
	b	_ZdlPvm
	.cfi_endproc
.LFE10481:
	.size	_ZN4asio5error6detail14netdb_categoryD0Ev, .-_ZN4asio5error6detail14netdb_categoryD0Ev
	.section	.text._ZN4asio5error6detail17addrinfo_categoryD0Ev,"axG",@progbits,_ZN4asio5error6detail17addrinfo_categoryD5Ev,comdat
	.align	2
	.p2align 4,,11
	.weak	_ZN4asio5error6detail17addrinfo_categoryD0Ev
	.type	_ZN4asio5error6detail17addrinfo_categoryD0Ev, %function
_ZN4asio5error6detail17addrinfo_categoryD0Ev:
.LFB10477:
	.cfi_startproc
	stp	x29, x30, [sp, -32]!
	.cfi_def_cfa_offset 32
	.cfi_offset 29, -32
	.cfi_offset 30, -24
	adrp	x1, :got:_ZTVN4asio5error6detail17addrinfo_categoryE
	mov	x29, sp
	ldr	x1, [x1, #:got_lo12:_ZTVN4asio5error6detail17addrinfo_categoryE]
	str	x19, [sp, 16]
	.cfi_offset 19, -16
	mov	x19, x0
	add	x1, x1, 16
	str	x1, [x0]
	bl	_ZNSt3_V214error_categoryD2Ev
	mov	x0, x19
	mov	x1, 8
	ldr	x19, [sp, 16]
	ldp	x29, x30, [sp], 32
	.cfi_restore 30
	.cfi_restore 29
	.cfi_restore 19
	.cfi_def_cfa_offset 0
	b	_ZdlPvm
	.cfi_endproc
.LFE10477:
	.size	_ZN4asio5error6detail17addrinfo_categoryD0Ev, .-_ZN4asio5error6detail17addrinfo_categoryD0Ev
	.section	.text._ZN4asio5error6detail13misc_categoryD0Ev,"axG",@progbits,_ZN4asio5error6detail13misc_categoryD5Ev,comdat
	.align	2
	.p2align 4,,11
	.weak	_ZN4asio5error6detail13misc_categoryD0Ev
	.type	_ZN4asio5error6detail13misc_categoryD0Ev, %function
_ZN4asio5error6detail13misc_categoryD0Ev:
.LFB10473:
	.cfi_startproc
	stp	x29, x30, [sp, -32]!
	.cfi_def_cfa_offset 32
	.cfi_offset 29, -32
	.cfi_offset 30, -24
	adrp	x1, :got:_ZTVN4asio5error6detail13misc_categoryE
	mov	x29, sp
	ldr	x1, [x1, #:got_lo12:_ZTVN4asio5error6detail13misc_categoryE]
	str	x19, [sp, 16]
	.cfi_offset 19, -16
	mov	x19, x0
	add	x1, x1, 16
	str	x1, [x0]
	bl	_ZNSt3_V214error_categoryD2Ev
	mov	x0, x19
	mov	x1, 8
	ldr	x19, [sp, 16]
	ldp	x29, x30, [sp], 32
	.cfi_restore 30
	.cfi_restore 29
	.cfi_restore 19
	.cfi_def_cfa_offset 0
	b	_ZdlPvm
	.cfi_endproc
.LFE10473:
	.size	_ZN4asio5error6detail13misc_categoryD0Ev, .-_ZN4asio5error6detail13misc_categoryD0Ev
	.section	.text._ZNSt23_Sp_counted_ptr_inplaceIN7asiopal13SocketChannelESaIS1_ELN9__gnu_cxx12_Lock_policyE2EED0Ev,"axG",@progbits,_ZNSt23_Sp_counted_ptr_inplaceIN7asiopal13SocketChannelESaIS1_ELN9__gnu_cxx12_Lock_policyE2EED5Ev,comdat
	.align	2
	.p2align 4,,11
	.weak	_ZNSt23_Sp_counted_ptr_inplaceIN7asiopal13SocketChannelESaIS1_ELN9__gnu_cxx12_Lock_policyE2EED0Ev
	.type	_ZNSt23_Sp_counted_ptr_inplaceIN7asiopal13SocketChannelESaIS1_ELN9__gnu_cxx12_Lock_policyE2EED0Ev, %function
_ZNSt23_Sp_counted_ptr_inplaceIN7asiopal13SocketChannelESaIS1_ELN9__gnu_cxx12_Lock_policyE2EED0Ev:
.LFB10528:
	.cfi_startproc
	mov	x1, 112
	b	_ZdlPvm
	.cfi_endproc
.LFE10528:
	.size	_ZNSt23_Sp_counted_ptr_inplaceIN7asiopal13SocketChannelESaIS1_ELN9__gnu_cxx12_Lock_policyE2EED0Ev, .-_ZNSt23_Sp_counted_ptr_inplaceIN7asiopal13SocketChannelESaIS1_ELN9__gnu_cxx12_Lock_policyE2EED0Ev
	.section	.text._ZNSt23_Sp_counted_ptr_inplaceIN8asiodnp318TCPServerIOHandler6ServerESaIS2_ELN9__gnu_cxx12_Lock_policyE2EED0Ev,"axG",@progbits,_ZNSt23_Sp_counted_ptr_inplaceIN8asiodnp318TCPServerIOHandler6ServerESaIS2_ELN9__gnu_cxx12_Lock_policyE2EED5Ev,comdat
	.align	2
	.p2align 4,,11
	.weak	_ZNSt23_Sp_counted_ptr_inplaceIN8asiodnp318TCPServerIOHandler6ServerESaIS2_ELN9__gnu_cxx12_Lock_policyE2EED0Ev
	.type	_ZNSt23_Sp_counted_ptr_inplaceIN8asiodnp318TCPServerIOHandler6ServerESaIS2_ELN9__gnu_cxx12_Lock_policyE2EED0Ev, %function
_ZNSt23_Sp_counted_ptr_inplaceIN8asiodnp318TCPServerIOHandler6ServerESaIS2_ELN9__gnu_cxx12_Lock_policyE2EED0Ev:
.LFB10521:
	.cfi_startproc
	mov	x1, 256
	b	_ZdlPvm
	.cfi_endproc
.LFE10521:
	.size	_ZNSt23_Sp_counted_ptr_inplaceIN8asiodnp318TCPServerIOHandler6ServerESaIS2_ELN9__gnu_cxx12_Lock_policyE2EED0Ev, .-_ZNSt23_Sp_counted_ptr_inplaceIN8asiodnp318TCPServerIOHandler6ServerESaIS2_ELN9__gnu_cxx12_Lock_policyE2EED0Ev
	.section	.text._ZNSt23_Sp_counted_ptr_inplaceIN8asiodnp318TCPServerIOHandler6ServerESaIS2_ELN9__gnu_cxx12_Lock_policyE2EE10_M_destroyEv,"axG",@progbits,_ZNSt23_Sp_counted_ptr_inplaceIN8asiodnp318TCPServerIOHandler6ServerESaIS2_ELN9__gnu_cxx12_Lock_policyE2EE10_M_destroyEv,comdat
	.align	2
	.p2align 4,,11
	.weak	_ZNSt23_Sp_counted_ptr_inplaceIN8asiodnp318TCPServerIOHandler6ServerESaIS2_ELN9__gnu_cxx12_Lock_policyE2EE10_M_destroyEv
	.type	_ZNSt23_Sp_counted_ptr_inplaceIN8asiodnp318TCPServerIOHandler6ServerESaIS2_ELN9__gnu_cxx12_Lock_policyE2EE10_M_destroyEv, %function
_ZNSt23_Sp_counted_ptr_inplaceIN8asiodnp318TCPServerIOHandler6ServerESaIS2_ELN9__gnu_cxx12_Lock_policyE2EE10_M_destroyEv:
.LFB10523:
	.cfi_startproc
	mov	x1, 256
	b	_ZdlPvm
	.cfi_endproc
.LFE10523:
	.size	_ZNSt23_Sp_counted_ptr_inplaceIN8asiodnp318TCPServerIOHandler6ServerESaIS2_ELN9__gnu_cxx12_Lock_policyE2EE10_M_destroyEv, .-_ZNSt23_Sp_counted_ptr_inplaceIN8asiodnp318TCPServerIOHandler6ServerESaIS2_ELN9__gnu_cxx12_Lock_policyE2EE10_M_destroyEv
	.section	.text._ZNSt23_Sp_counted_ptr_inplaceIN7asiopal13SocketChannelESaIS1_ELN9__gnu_cxx12_Lock_policyE2EE10_M_destroyEv,"axG",@progbits,_ZNSt23_Sp_counted_ptr_inplaceIN7asiopal13SocketChannelESaIS1_ELN9__gnu_cxx12_Lock_policyE2EE10_M_destroyEv,comdat
	.align	2
	.p2align 4,,11
	.weak	_ZNSt23_Sp_counted_ptr_inplaceIN7asiopal13SocketChannelESaIS1_ELN9__gnu_cxx12_Lock_policyE2EE10_M_destroyEv
	.type	_ZNSt23_Sp_counted_ptr_inplaceIN7asiopal13SocketChannelESaIS1_ELN9__gnu_cxx12_Lock_policyE2EE10_M_destroyEv, %function
_ZNSt23_Sp_counted_ptr_inplaceIN7asiopal13SocketChannelESaIS1_ELN9__gnu_cxx12_Lock_policyE2EE10_M_destroyEv:
.LFB10530:
	.cfi_startproc
	mov	x1, 112
	b	_ZdlPvm
	.cfi_endproc
.LFE10530:
	.size	_ZNSt23_Sp_counted_ptr_inplaceIN7asiopal13SocketChannelESaIS1_ELN9__gnu_cxx12_Lock_policyE2EE10_M_destroyEv, .-_ZNSt23_Sp_counted_ptr_inplaceIN7asiopal13SocketChannelESaIS1_ELN9__gnu_cxx12_Lock_policyE2EE10_M_destroyEv
	.section	.text._ZNSt23_Sp_counted_ptr_inplaceIN7asiopal13SocketChannelESaIS1_ELN9__gnu_cxx12_Lock_policyE2EE14_M_get_deleterERKSt9type_info,"axG",@progbits,_ZNSt23_Sp_counted_ptr_inplaceIN7asiopal13SocketChannelESaIS1_ELN9__gnu_cxx12_Lock_policyE2EE14_M_get_deleterERKSt9type_info,comdat
	.align	2
	.p2align 4,,11
	.weak	_ZNSt23_Sp_counted_ptr_inplaceIN7asiopal13SocketChannelESaIS1_ELN9__gnu_cxx12_Lock_policyE2EE14_M_get_deleterERKSt9type_info
	.type	_ZNSt23_Sp_counted_ptr_inplaceIN7asiopal13SocketChannelESaIS1_ELN9__gnu_cxx12_Lock_policyE2EE14_M_get_deleterERKSt9type_info, %function
_ZNSt23_Sp_counted_ptr_inplaceIN7asiopal13SocketChannelESaIS1_ELN9__gnu_cxx12_Lock_policyE2EE14_M_get_deleterERKSt9type_info:
.LFB10531:
	.cfi_startproc
	stp	x29, x30, [sp, -32]!
	.cfi_def_cfa_offset 32
	.cfi_offset 29, -32
	.cfi_offset 30, -24
	adrp	x2, :got:_ZZNSt19_Sp_make_shared_tag5_S_tiEvE5__tag
	mov	x29, sp
	ldr	x2, [x2, #:got_lo12:_ZZNSt19_Sp_make_shared_tag5_S_tiEvE5__tag]
	str	x19, [sp, 16]
	.cfi_offset 19, -16
	add	x19, x0, 16
	cmp	x1, x2
	beq	.L29
	adrp	x2, :got:_ZTSSt19_Sp_make_shared_tag
	ldr	x0, [x1, 8]
	ldr	x1, [x2, #:got_lo12:_ZTSSt19_Sp_make_shared_tag]
	cmp	x0, x1
	beq	.L29
	ldrb	w2, [x0]
	cmp	w2, 42
	beq	.L31
	bl	strcmp
	cmp	w0, 0
	csel	x19, x19, xzr, eq
.L29:
	mov	x0, x19
	ldr	x19, [sp, 16]
	ldp	x29, x30, [sp], 32
	.cfi_remember_state
	.cfi_restore 30
	.cfi_restore 29
	.cfi_restore 19
	.cfi_def_cfa_offset 0
	ret
	.p2align 2,,3
.L31:
	.cfi_restore_state
	mov	x19, 0
	mov	x0, x19
	ldr	x19, [sp, 16]
	ldp	x29, x30, [sp], 32
	.cfi_restore 30
	.cfi_restore 29
	.cfi_restore 19
	.cfi_def_cfa_offset 0
	ret
	.cfi_endproc
.LFE10531:
	.size	_ZNSt23_Sp_counted_ptr_inplaceIN7asiopal13SocketChannelESaIS1_ELN9__gnu_cxx12_Lock_policyE2EE14_M_get_deleterERKSt9type_info, .-_ZNSt23_Sp_counted_ptr_inplaceIN7asiopal13SocketChannelESaIS1_ELN9__gnu_cxx12_Lock_policyE2EE14_M_get_deleterERKSt9type_info
	.section	.text._ZN4asio6detail7tss_ptrINS0_10call_stackINS0_15task_io_serviceENS0_27task_io_service_thread_infoEE7contextEED2Ev,"axG",@progbits,_ZN4asio6detail7tss_ptrINS0_10call_stackINS0_15task_io_serviceENS0_27task_io_service_thread_infoEE7contextEED5Ev,comdat
	.align	2
	.p2align 4,,11
	.weak	_ZN4asio6detail7tss_ptrINS0_10call_stackINS0_15task_io_serviceENS0_27task_io_service_thread_infoEE7contextEED2Ev
	.type	_ZN4asio6detail7tss_ptrINS0_10call_stackINS0_15task_io_serviceENS0_27task_io_service_thread_infoEE7contextEED2Ev, %function
_ZN4asio6detail7tss_ptrINS0_10call_stackINS0_15task_io_serviceENS0_27task_io_service_thread_infoEE7contextEED2Ev:
.LFB10504:
	.cfi_startproc
	ldr	w0, [x0]
	b	pthread_key_delete
	.cfi_endproc
.LFE10504:
	.size	_ZN4asio6detail7tss_ptrINS0_10call_stackINS0_15task_io_serviceENS0_27task_io_service_thread_infoEE7contextEED2Ev, .-_ZN4asio6detail7tss_ptrINS0_10call_stackINS0_15task_io_serviceENS0_27task_io_service_thread_infoEE7contextEED2Ev
	.weak	_ZN4asio6detail7tss_ptrINS0_10call_stackINS0_15task_io_serviceENS0_27task_io_service_thread_infoEE7contextEED1Ev
	.set	_ZN4asio6detail7tss_ptrINS0_10call_stackINS0_15task_io_serviceENS0_27task_io_service_thread_infoEE7contextEED1Ev,_ZN4asio6detail7tss_ptrINS0_10call_stackINS0_15task_io_serviceENS0_27task_io_service_thread_infoEE7contextEED2Ev
	.section	.text._ZN4asio6detail7tss_ptrINS0_10call_stackINS0_14strand_service11strand_implEhE7contextEED2Ev,"axG",@progbits,_ZN4asio6detail7tss_ptrINS0_10call_stackINS0_14strand_service11strand_implEhE7contextEED5Ev,comdat
	.align	2
	.p2align 4,,11
	.weak	_ZN4asio6detail7tss_ptrINS0_10call_stackINS0_14strand_service11strand_implEhE7contextEED2Ev
	.type	_ZN4asio6detail7tss_ptrINS0_10call_stackINS0_14strand_service11strand_implEhE7contextEED2Ev, %function
_ZN4asio6detail7tss_ptrINS0_10call_stackINS0_14strand_service11strand_implEhE7contextEED2Ev:
.LFB10513:
	.cfi_startproc
	ldr	w0, [x0]
	b	pthread_key_delete
	.cfi_endproc
.LFE10513:
	.size	_ZN4asio6detail7tss_ptrINS0_10call_stackINS0_14strand_service11strand_implEhE7contextEED2Ev, .-_ZN4asio6detail7tss_ptrINS0_10call_stackINS0_14strand_service11strand_implEhE7contextEED2Ev
	.weak	_ZN4asio6detail7tss_ptrINS0_10call_stackINS0_14strand_service11strand_implEhE7contextEED1Ev
	.set	_ZN4asio6detail7tss_ptrINS0_10call_stackINS0_14strand_service11strand_implEhE7contextEED1Ev,_ZN4asio6detail7tss_ptrINS0_10call_stackINS0_14strand_service11strand_implEhE7contextEED2Ev
	.section	.text._ZNSt23_Sp_counted_ptr_inplaceIN8asiodnp318TCPServerIOHandler6ServerESaIS2_ELN9__gnu_cxx12_Lock_policyE2EE14_M_get_deleterERKSt9type_info,"axG",@progbits,_ZNSt23_Sp_counted_ptr_inplaceIN8asiodnp318TCPServerIOHandler6ServerESaIS2_ELN9__gnu_cxx12_Lock_policyE2EE14_M_get_deleterERKSt9type_info,comdat
	.align	2
	.p2align 4,,11
	.weak	_ZNSt23_Sp_counted_ptr_inplaceIN8asiodnp318TCPServerIOHandler6ServerESaIS2_ELN9__gnu_cxx12_Lock_policyE2EE14_M_get_deleterERKSt9type_info
	.type	_ZNSt23_Sp_counted_ptr_inplaceIN8asiodnp318TCPServerIOHandler6ServerESaIS2_ELN9__gnu_cxx12_Lock_policyE2EE14_M_get_deleterERKSt9type_info, %function
_ZNSt23_Sp_counted_ptr_inplaceIN8asiodnp318TCPServerIOHandler6ServerESaIS2_ELN9__gnu_cxx12_Lock_policyE2EE14_M_get_deleterERKSt9type_info:
.LFB10524:
	.cfi_startproc
	stp	x29, x30, [sp, -32]!
	.cfi_def_cfa_offset 32
	.cfi_offset 29, -32
	.cfi_offset 30, -24
	adrp	x2, :got:_ZZNSt19_Sp_make_shared_tag5_S_tiEvE5__tag
	mov	x29, sp
	ldr	x2, [x2, #:got_lo12:_ZZNSt19_Sp_make_shared_tag5_S_tiEvE5__tag]
	str	x19, [sp, 16]
	.cfi_offset 19, -16
	add	x19, x0, 16
	cmp	x1, x2
	beq	.L36
	adrp	x2, :got:_ZTSSt19_Sp_make_shared_tag
	ldr	x0, [x1, 8]
	ldr	x1, [x2, #:got_lo12:_ZTSSt19_Sp_make_shared_tag]
	cmp	x0, x1
	beq	.L36
	ldrb	w2, [x0]
	cmp	w2, 42
	beq	.L38
	bl	strcmp
	cmp	w0, 0
	csel	x19, x19, xzr, eq
.L36:
	mov	x0, x19
	ldr	x19, [sp, 16]
	ldp	x29, x30, [sp], 32
	.cfi_remember_state
	.cfi_restore 30
	.cfi_restore 29
	.cfi_restore 19
	.cfi_def_cfa_offset 0
	ret
	.p2align 2,,3
.L38:
	.cfi_restore_state
	mov	x19, 0
	mov	x0, x19
	ldr	x19, [sp, 16]
	ldp	x29, x30, [sp], 32
	.cfi_restore 30
	.cfi_restore 29
	.cfi_restore 19
	.cfi_def_cfa_offset 0
	ret
	.cfi_endproc
.LFE10524:
	.size	_ZNSt23_Sp_counted_ptr_inplaceIN8asiodnp318TCPServerIOHandler6ServerESaIS2_ELN9__gnu_cxx12_Lock_policyE2EE14_M_get_deleterERKSt9type_info, .-_ZNSt23_Sp_counted_ptr_inplaceIN8asiodnp318TCPServerIOHandler6ServerESaIS2_ELN9__gnu_cxx12_Lock_policyE2EE14_M_get_deleterERKSt9type_info
	.section	.text._ZNSt8_Rb_treeIPN8opendnp317IScheduleCallbackES2_St9_IdentityIS2_ESt4lessIS2_ESaIS2_EE8_M_eraseEPSt13_Rb_tree_nodeIS2_E.isra.0,"axG",@progbits,_ZN8asiodnp39IOHandlerD5Ev,comdat
	.align	2
	.p2align 4,,11
	.type	_ZNSt8_Rb_treeIPN8opendnp317IScheduleCallbackES2_St9_IdentityIS2_ESt4lessIS2_ESaIS2_EE8_M_eraseEPSt13_Rb_tree_nodeIS2_E.isra.0, %function
_ZNSt8_Rb_treeIPN8opendnp317IScheduleCallbackES2_St9_IdentityIS2_ESt4lessIS2_ESaIS2_EE8_M_eraseEPSt13_Rb_tree_nodeIS2_E.isra.0:
.LFB10647:
	.cfi_startproc
	cbz	x0, .L102
	stp	x29, x30, [sp, -96]!
	.cfi_def_cfa_offset 96
	.cfi_offset 29, -96
	.cfi_offset 30, -88
	mov	x29, sp
	stp	x23, x24, [sp, 48]
	.cfi_offset 23, -48
	.cfi_offset 24, -40
	mov	x23, x0
	stp	x19, x20, [sp, 16]
	.cfi_offset 19, -80
	.cfi_offset 20, -72
.L59:
	ldr	x24, [x23, 24]
	cbz	x24, .L43
	stp	x25, x26, [sp, 64]
	.cfi_offset 26, -24
	.cfi_offset 25, -32
.L58:
	ldr	x25, [x24, 24]
	cbz	x25, .L44
.L57:
	ldr	x26, [x25, 24]
	cbz	x26, .L45
.L56:
	ldr	x19, [x26, 24]
	cbz	x19, .L46
.L55:
	ldr	x20, [x19, 24]
	cbz	x20, .L47
	stp	x21, x22, [sp, 32]
	.cfi_offset 22, -56
	.cfi_offset 21, -64
	str	x27, [sp, 80]
	.cfi_offset 27, -16
.L54:
	ldr	x27, [x20, 24]
	cbz	x27, .L48
.L53:
	ldr	x21, [x27, 24]
	cbz	x21, .L49
.L52:
	ldr	x22, [x21, 24]
	cbz	x22, .L50
.L51:
	ldr	x0, [x22, 24]
	bl	_ZNSt8_Rb_treeIPN8opendnp317IScheduleCallbackES2_St9_IdentityIS2_ESt4lessIS2_ESaIS2_EE8_M_eraseEPSt13_Rb_tree_nodeIS2_E.isra.0
	mov	x0, x22
	mov	x1, 40
	ldr	x22, [x22, 16]
	bl	_ZdlPvm
	cbnz	x22, .L51
.L50:
	ldr	x22, [x21, 16]
	mov	x0, x21
	mov	x1, 40
	bl	_ZdlPvm
	cbz	x22, .L49
	mov	x21, x22
	b	.L52
.L103:
	ldp	x21, x22, [sp, 32]
	.cfi_restore 22
	.cfi_restore 21
	ldr	x27, [sp, 80]
	.cfi_restore 27
.L47:
	mov	x0, x19
	ldr	x20, [x19, 16]
	mov	x1, 40
	bl	_ZdlPvm
	cbz	x20, .L46
	mov	x19, x20
	b	.L55
	.p2align 2,,3
.L48:
	.cfi_offset 21, -64
	.cfi_offset 22, -56
	.cfi_offset 27, -16
	ldr	x21, [x20, 16]
	mov	x0, x20
	mov	x1, 40
	bl	_ZdlPvm
	cbz	x21, .L103
	mov	x20, x21
	b	.L54
.L46:
	.cfi_restore 21
	.cfi_restore 22
	.cfi_restore 27
	ldr	x19, [x26, 16]
	mov	x0, x26
	mov	x1, 40
	bl	_ZdlPvm
	cbz	x19, .L45
	mov	x26, x19
	b	.L56
	.p2align 2,,3
.L49:
	.cfi_offset 21, -64
	.cfi_offset 22, -56
	.cfi_offset 27, -16
	ldr	x21, [x27, 16]
	mov	x0, x27
	mov	x1, 40
	bl	_ZdlPvm
	cbz	x21, .L48
	mov	x27, x21
	b	.L53
.L45:
	.cfi_restore 21
	.cfi_restore 22
	.cfi_restore 27
	ldr	x19, [x25, 16]
	mov	x0, x25
	mov	x1, 40
	bl	_ZdlPvm
	cbz	x19, .L44
	mov	x25, x19
	b	.L57
.L44:
	ldr	x19, [x24, 16]
	mov	x0, x24
	mov	x1, 40
	bl	_ZdlPvm
	cbz	x19, .L104
	mov	x24, x19
	b	.L58
.L104:
	ldp	x25, x26, [sp, 64]
	.cfi_restore 26
	.cfi_restore 25
.L43:
	mov	x0, x23
	ldr	x19, [x23, 16]
	mov	x1, 40
	bl	_ZdlPvm
	cbz	x19, .L105
	mov	x23, x19
	b	.L59
.L105:
	ldp	x19, x20, [sp, 16]
	ldp	x23, x24, [sp, 48]
	ldp	x29, x30, [sp], 96
	.cfi_restore 30
	.cfi_restore 29
	.cfi_restore 23
	.cfi_restore 24
	.cfi_restore 19
	.cfi_restore 20
	.cfi_def_cfa_offset 0
	ret
.L102:
	ret
	.cfi_endproc
.LFE10647:
	.size	_ZNSt8_Rb_treeIPN8opendnp317IScheduleCallbackES2_St9_IdentityIS2_ESt4lessIS2_ESaIS2_EE8_M_eraseEPSt13_Rb_tree_nodeIS2_E.isra.0, .-_ZNSt8_Rb_treeIPN8opendnp317IScheduleCallbackES2_St9_IdentityIS2_ESt4lessIS2_ESaIS2_EE8_M_eraseEPSt13_Rb_tree_nodeIS2_E.isra.0
	.section	.rodata._ZNK4asio6detail15system_category7messageB5cxx11Ei.str1.8,"aMS",@progbits,1
	.align	3
.LC4:
	.string	"Operation aborted."
	.align	3
.LC5:
	.string	"basic_string::_M_construct null not valid"
	.section	.text._ZNK4asio6detail15system_category7messageB5cxx11Ei,"axG",@progbits,_ZNK4asio6detail15system_category7messageB5cxx11Ei,comdat
	.align	2
	.p2align 4,,11
	.weak	_ZNK4asio6detail15system_category7messageB5cxx11Ei
	.type	_ZNK4asio6detail15system_category7messageB5cxx11Ei, %function
_ZNK4asio6detail15system_category7messageB5cxx11Ei:
.LFB2875:
	.cfi_startproc
	stp	x29, x30, [sp, -320]!
	.cfi_def_cfa_offset 320
	.cfi_offset 29, -320
	.cfi_offset 30, -312
	adrp	x0, :got:__stack_chk_guard
	mov	x29, sp
	ldr	x2, [x0, #:got_lo12:__stack_chk_guard]
	stp	x19, x20, [sp, 16]
	mov	w0, w1
	stp	x21, x22, [sp, 32]
	.cfi_offset 19, -304
	.cfi_offset 20, -296
	.cfi_offset 21, -288
	.cfi_offset 22, -280
	mov	x19, x8
	add	x21, x8, 16
	ldr	x1, [x2]
	str	x1, [sp, 312]
	mov	x1, 0
	cmp	w0, 125
	beq	.L121
	movi	v0.4s, 0
	add	x3, sp, 72
	add	x1, sp, 56
	mov	x2, 256
	stp	xzr, xzr, [sp, 56]
	stp	q0, q0, [x3]
	stp	q0, q0, [x3, 32]
	stp	q0, q0, [x3, 64]
	stp	q0, q0, [x3, 96]
	stp	q0, q0, [x3, 128]
	stp	q0, q0, [x3, 160]
	stp	q0, q0, [x3, 192]
	str	q0, [x3, 224]
	bl	strerror_r
	mov	x22, x0
	str	x21, [x19]
	cbz	x0, .L109
	bl	strlen
	str	x0, [sp, 48]
	mov	x20, x0
	cmp	x0, 15
	bhi	.L122
	cmp	x0, 1
	bne	.L113
	ldrb	w0, [x22]
	strb	w0, [x19, 16]
.L114:
	str	x20, [x19, 8]
	strb	wzr, [x21, x20]
.L106:
	adrp	x0, :got:__stack_chk_guard
	ldr	x0, [x0, #:got_lo12:__stack_chk_guard]
	ldr	x2, [sp, 312]
	ldr	x1, [x0]
	subs	x2, x2, x1
	mov	x1, 0
	bne	.L123
	mov	x0, x19
	ldp	x19, x20, [sp, 16]
	ldp	x21, x22, [sp, 32]
	ldp	x29, x30, [sp], 320
	.cfi_remember_state
	.cfi_restore 30
	.cfi_restore 29
	.cfi_restore 21
	.cfi_restore 22
	.cfi_restore 19
	.cfi_restore 20
	.cfi_def_cfa_offset 0
	ret
	.p2align 2,,3
.L122:
	.cfi_restore_state
	add	x1, sp, 48
	mov	x0, x19
	mov	x2, 0
	bl	_ZNSt7__cxx1112basic_stringIcSt11char_traitsIcESaIcEE9_M_createERmm
	mov	x21, x0
	str	x0, [x19]
	ldr	x1, [sp, 48]
	str	x1, [x19, 16]
.L112:
	mov	x2, x20
	mov	x0, x21
	mov	x1, x22
	bl	memcpy
	ldr	x21, [x19]
	ldr	x20, [sp, 48]
	b	.L114
	.p2align 2,,3
.L121:
	mov	x3, 18
	str	x21, [x8]
	add	x1, sp, 48
	mov	x2, 0
	mov	x0, x8
	str	x3, [sp, 48]
	bl	_ZNSt7__cxx1112basic_stringIcSt11char_traitsIcESaIcEE9_M_createERmm
	str	x0, [x19]
	adrp	x1, .LC4
	add	x1, x1, :lo12:.LC4
	ldr	x2, [sp, 48]
	str	x2, [x19, 16]
	ldp	x2, x3, [x1]
	stp	x2, x3, [x0]
	ldrh	w1, [x1, 16]
	strh	w1, [x0, 16]
	ldr	x1, [x19]
	ldr	x0, [sp, 48]
	str	x0, [x19, 8]
	strb	wzr, [x1, x0]
	b	.L106
	.p2align 2,,3
.L113:
	cbz	x0, .L114
	b	.L112
.L109:
	adrp	x0, .LC5
	add	x0, x0, :lo12:.LC5
	bl	_ZSt19__throw_logic_errorPKc
.L123:
	bl	__stack_chk_fail
	.cfi_endproc
.LFE2875:
	.size	_ZNK4asio6detail15system_category7messageB5cxx11Ei, .-_ZNK4asio6detail15system_category7messageB5cxx11Ei
	.section	.rodata._ZNK4asio5error6detail17addrinfo_category7messageB5cxx11Ei.str1.8,"aMS",@progbits,1
	.align	3
.LC6:
	.string	"Service not found"
	.align	3
.LC7:
	.string	"Socket type not supported"
	.align	3
.LC8:
	.string	"asio.addrinfo error"
	.section	.text._ZNK4asio5error6detail17addrinfo_category7messageB5cxx11Ei,"axG",@progbits,_ZNK4asio5error6detail17addrinfo_category7messageB5cxx11Ei,comdat
	.align	2
	.p2align 4,,11
	.weak	_ZNK4asio5error6detail17addrinfo_category7messageB5cxx11Ei
	.type	_ZNK4asio5error6detail17addrinfo_category7messageB5cxx11Ei, %function
_ZNK4asio5error6detail17addrinfo_category7messageB5cxx11Ei:
.LFB2902:
	.cfi_startproc
	stp	x29, x30, [sp, -48]!
	.cfi_def_cfa_offset 48
	.cfi_offset 29, -48
	.cfi_offset 30, -40
	adrp	x0, :got:__stack_chk_guard
	add	x2, x8, 16
	mov	x29, sp
	ldr	x0, [x0, #:got_lo12:__stack_chk_guard]
	str	x19, [sp, 16]
	.cfi_offset 19, -32
	mov	x19, x8
	ldr	x3, [x0]
	str	x3, [sp, 40]
	mov	x3, 0
	str	x2, [x8]
	cmn	w1, #8
	beq	.L130
	cmn	w1, #7
	beq	.L131
	mov	x3, 19
	add	x1, sp, 32
	mov	x2, 0
	mov	x0, x8
	str	x3, [sp, 32]
	bl	_ZNSt7__cxx1112basic_stringIcSt11char_traitsIcESaIcEE9_M_createERmm
	adrp	x1, .LC8
	add	x1, x1, :lo12:.LC8
	ldr	x2, [sp, 32]
	str	x0, [x19]
	str	x2, [x19, 16]
	ldp	x2, x3, [x1]
	stp	x2, x3, [x0]
	ldr	w1, [x1, 15]
	str	w1, [x0, 15]
	ldr	x1, [x19]
	ldr	x0, [sp, 32]
	str	x0, [x19, 8]
	strb	wzr, [x1, x0]
.L124:
	adrp	x0, :got:__stack_chk_guard
	ldr	x0, [x0, #:got_lo12:__stack_chk_guard]
	ldr	x2, [sp, 40]
	ldr	x1, [x0]
	subs	x2, x2, x1
	mov	x1, 0
	bne	.L132
	mov	x0, x19
	ldr	x19, [sp, 16]
	ldp	x29, x30, [sp], 48
	.cfi_remember_state
	.cfi_restore 30
	.cfi_restore 29
	.cfi_restore 19
	.cfi_def_cfa_offset 0
	ret
	.p2align 2,,3
.L131:
	.cfi_restore_state
	mov	x3, 25
	add	x1, sp, 32
	mov	x2, 0
	mov	x0, x8
	str	x3, [sp, 32]
	bl	_ZNSt7__cxx1112basic_stringIcSt11char_traitsIcESaIcEE9_M_createERmm
	adrp	x1, .LC7
	add	x1, x1, :lo12:.LC7
	ldr	x2, [sp, 32]
	str	x0, [x19]
	ldr	q1, [x1]
	str	x2, [x19, 16]
	ldr	q0, [x1, 9]
	str	q1, [x0]
	str	q0, [x0, 9]
	ldr	x1, [x19]
	ldr	x0, [sp, 32]
	str	x0, [x19, 8]
	strb	wzr, [x1, x0]
	b	.L124
	.p2align 2,,3
.L130:
	mov	x3, 17
	add	x1, sp, 32
	mov	x2, 0
	mov	x0, x8
	str	x3, [sp, 32]
	bl	_ZNSt7__cxx1112basic_stringIcSt11char_traitsIcESaIcEE9_M_createERmm
	adrp	x1, .LC6
	add	x1, x1, :lo12:.LC6
	ldr	x2, [sp, 32]
	str	x0, [x19]
	str	x2, [x19, 16]
	ldp	x2, x3, [x1]
	stp	x2, x3, [x0]
	ldrb	w1, [x1, 16]
	strb	w1, [x0, 16]
	ldr	x1, [x19]
	ldr	x0, [sp, 32]
	str	x0, [x19, 8]
	strb	wzr, [x1, x0]
	b	.L124
.L132:
	bl	__stack_chk_fail
	.cfi_endproc
.LFE2902:
	.size	_ZNK4asio5error6detail17addrinfo_category7messageB5cxx11Ei, .-_ZNK4asio5error6detail17addrinfo_category7messageB5cxx11Ei
	.section	.rodata._ZNK4asio5error6detail14netdb_category7messageB5cxx11Ei.str1.8,"aMS",@progbits,1
	.align	3
.LC9:
	.string	"Host not found (authoritative)"
	.align	3
.LC10:
	.string	"Host not found (non-authoritative), try again later"
	.align	3
.LC11:
	.string	"The query is valid, but it does not have associated data"
	.align	3
.LC12:
	.string	"A non-recoverable error occurred during database lookup"
	.align	3
.LC13:
	.string	"asio.netdb error"
	.section	.text._ZNK4asio5error6detail14netdb_category7messageB5cxx11Ei,"axG",@progbits,_ZNK4asio5error6detail14netdb_category7messageB5cxx11Ei,comdat
	.align	2
	.p2align 4,,11
	.weak	_ZNK4asio5error6detail14netdb_category7messageB5cxx11Ei
	.type	_ZNK4asio5error6detail14netdb_category7messageB5cxx11Ei, %function
_ZNK4asio5error6detail14netdb_category7messageB5cxx11Ei:
.LFB2896:
	.cfi_startproc
	stp	x29, x30, [sp, -48]!
	.cfi_def_cfa_offset 48
	.cfi_offset 29, -48
	.cfi_offset 30, -40
	adrp	x0, :got:__stack_chk_guard
	add	x2, x8, 16
	mov	x29, sp
	ldr	x0, [x0, #:got_lo12:__stack_chk_guard]
	str	x19, [sp, 16]
	.cfi_offset 19, -32
	mov	x19, x8
	ldr	x3, [x0]
	str	x3, [sp, 40]
	mov	x3, 0
	str	x2, [x8]
	cmp	w1, 1
	beq	.L142
	cmp	w1, 2
	beq	.L143
	cmp	w1, 4
	beq	.L144
	cmp	w1, 3
	beq	.L145
	mov	x3, 16
	add	x1, sp, 32
	mov	x2, 0
	mov	x0, x8
	str	x3, [sp, 32]
	bl	_ZNSt7__cxx1112basic_stringIcSt11char_traitsIcESaIcEE9_M_createERmm
	adrp	x1, .LC13
	add	x1, x1, :lo12:.LC13
	ldr	x2, [sp, 32]
	str	x0, [x19]
	str	x2, [x19, 16]
	ldp	x2, x3, [x1]
	stp	x2, x3, [x0]
	ldr	x1, [x19]
	ldr	x0, [sp, 32]
	str	x0, [x19, 8]
	strb	wzr, [x1, x0]
.L133:
	adrp	x0, :got:__stack_chk_guard
	ldr	x0, [x0, #:got_lo12:__stack_chk_guard]
	ldr	x2, [sp, 40]
	ldr	x1, [x0]
	subs	x2, x2, x1
	mov	x1, 0
	bne	.L146
	mov	x0, x19
	ldr	x19, [sp, 16]
	ldp	x29, x30, [sp], 48
	.cfi_remember_state
	.cfi_restore 30
	.cfi_restore 29
	.cfi_restore 19
	.cfi_def_cfa_offset 0
	ret
	.p2align 2,,3
.L142:
	.cfi_restore_state
	mov	x3, 30
	add	x1, sp, 32
	mov	x2, 0
	mov	x0, x8
	str	x3, [sp, 32]
	bl	_ZNSt7__cxx1112basic_stringIcSt11char_traitsIcESaIcEE9_M_createERmm
	adrp	x1, .LC9
	add	x1, x1, :lo12:.LC9
	ldr	x2, [sp, 32]
	str	x0, [x19]
	ldr	q1, [x1]
	str	x2, [x19, 16]
	ldr	q0, [x1, 14]
	str	q1, [x0]
	str	q0, [x0, 14]
	ldr	x1, [x19]
	ldr	x0, [sp, 32]
	str	x0, [x19, 8]
	strb	wzr, [x1, x0]
	b	.L133
	.p2align 2,,3
.L145:
	mov	x3, 55
	add	x1, sp, 32
	mov	x2, 0
	mov	x0, x8
	str	x3, [sp, 32]
	bl	_ZNSt7__cxx1112basic_stringIcSt11char_traitsIcESaIcEE9_M_createERmm
	adrp	x1, .LC12
	add	x1, x1, :lo12:.LC12
	ldr	x2, [sp, 32]
	str	x0, [x19]
	ldr	q2, [x1, 32]
	str	x2, [x19, 16]
	ldp	q0, q1, [x1]
	str	q2, [x0, 32]
	ldr	x1, [x1, 47]
	str	x1, [x0, 47]
.L141:
	stp	q0, q1, [x0]
	ldr	x1, [x19]
	ldr	x0, [sp, 32]
	str	x0, [x19, 8]
	strb	wzr, [x1, x0]
	b	.L133
	.p2align 2,,3
.L143:
	mov	x3, 51
	add	x1, sp, 32
	mov	x2, 0
	mov	x0, x8
	str	x3, [sp, 32]
	bl	_ZNSt7__cxx1112basic_stringIcSt11char_traitsIcESaIcEE9_M_createERmm
	adrp	x1, .LC10
	add	x1, x1, :lo12:.LC10
	ldr	x2, [sp, 32]
	str	x0, [x19]
	ldr	q2, [x1, 32]
	str	x2, [x19, 16]
	ldp	q0, q1, [x1]
	ldr	w1, [x1, 47]
	str	q2, [x0, 32]
	str	w1, [x0, 47]
	b	.L141
	.p2align 2,,3
.L144:
	mov	x3, 56
	add	x1, sp, 32
	mov	x2, 0
	mov	x0, x8
	str	x3, [sp, 32]
	bl	_ZNSt7__cxx1112basic_stringIcSt11char_traitsIcESaIcEE9_M_createERmm
	adrp	x1, .LC11
	add	x1, x1, :lo12:.LC11
	ldr	x2, [sp, 32]
	str	x0, [x19]
	ldp	q1, q2, [x1]
	str	x2, [x19, 16]
	ldr	q0, [x1, 32]
	ldr	x1, [x1, 48]
	str	x1, [x0, 48]
	stp	q1, q2, [x0]
	str	q0, [x0, 32]
	ldr	x1, [x19]
	ldr	x0, [sp, 32]
	str	x0, [x19, 8]
	strb	wzr, [x1, x0]
	b	.L133
.L146:
	bl	__stack_chk_fail
	.cfi_endproc
.LFE2896:
	.size	_ZNK4asio5error6detail14netdb_category7messageB5cxx11Ei, .-_ZNK4asio5error6detail14netdb_category7messageB5cxx11Ei
	.section	.rodata._ZNK4asio5error6detail13misc_category7messageB5cxx11Ei.str1.8,"aMS",@progbits,1
	.align	3
.LC14:
	.string	"Already open"
	.align	3
.LC15:
	.string	"End of file"
	.align	3
.LC16:
	.string	"Element not found"
	.align	3
.LC17:
	.string	"The descriptor does not fit into the select call's fd_set"
	.align	3
.LC18:
	.string	"asio.misc error"
	.section	.text._ZNK4asio5error6detail13misc_category7messageB5cxx11Ei,"axG",@progbits,_ZNK4asio5error6detail13misc_category7messageB5cxx11Ei,comdat
	.align	2
	.p2align 4,,11
	.weak	_ZNK4asio5error6detail13misc_category7messageB5cxx11Ei
	.type	_ZNK4asio5error6detail13misc_category7messageB5cxx11Ei, %function
_ZNK4asio5error6detail13misc_category7messageB5cxx11Ei:
.LFB2908:
	.cfi_startproc
	stp	x29, x30, [sp, -48]!
	.cfi_def_cfa_offset 48
	.cfi_offset 29, -48
	.cfi_offset 30, -40
	adrp	x0, :got:__stack_chk_guard
	add	x2, x8, 16
	mov	x29, sp
	ldr	x0, [x0, #:got_lo12:__stack_chk_guard]
	str	x19, [sp, 16]
	.cfi_offset 19, -32
	mov	x19, x8
	ldr	x3, [x0]
	str	x3, [sp, 40]
	mov	x3, 0
	cmp	w1, 1
	beq	.L155
	cmp	w1, 2
	beq	.L156
	cmp	w1, 3
	beq	.L157
	cmp	w1, 4
	beq	.L158
	adrp	x0, .LC18
	add	x0, x0, :lo12:.LC18
	str	x2, [x8]
	mov	x1, 15
	ldr	x3, [x0]
	str	x3, [x8, 16]
	ldr	x0, [x0, 7]
	str	x0, [x2, 7]
	str	x1, [x8, 8]
	strb	wzr, [x8, 31]
.L147:
	adrp	x0, :got:__stack_chk_guard
	ldr	x0, [x0, #:got_lo12:__stack_chk_guard]
	ldr	x2, [sp, 40]
	ldr	x1, [x0]
	subs	x2, x2, x1
	mov	x1, 0
	bne	.L159
	mov	x0, x19
	ldr	x19, [sp, 16]
	ldp	x29, x30, [sp], 48
	.cfi_remember_state
	.cfi_restore 30
	.cfi_restore 29
	.cfi_restore 19
	.cfi_def_cfa_offset 0
	ret
	.p2align 2,,3
.L155:
	.cfi_restore_state
	adrp	x0, .LC14
	add	x0, x0, :lo12:.LC14
	str	x2, [x8]
	mov	x1, 12
	ldr	x3, [x0]
	str	x3, [x8, 16]
	ldr	w0, [x0, 8]
	str	w0, [x2, 8]
	str	x1, [x8, 8]
	strb	wzr, [x8, 28]
	b	.L147
	.p2align 2,,3
.L158:
	mov	x3, 57
	str	x2, [x8]
	add	x1, sp, 32
	mov	x2, 0
	mov	x0, x8
	str	x3, [sp, 32]
	bl	_ZNSt7__cxx1112basic_stringIcSt11char_traitsIcESaIcEE9_M_createERmm
	str	x0, [x19]
	adrp	x1, .LC17
	add	x1, x1, :lo12:.LC17
	ldr	x2, [sp, 32]
	str	x2, [x19, 16]
	ldr	q3, [x1, 32]
	ldp	q1, q2, [x1]
	ldr	q0, [x1, 41]
	str	q3, [x0, 32]
	stp	q1, q2, [x0]
	str	q0, [x0, 41]
	ldr	x1, [x19]
	ldr	x0, [sp, 32]
	str	x0, [x19, 8]
	strb	wzr, [x1, x0]
	b	.L147
	.p2align 2,,3
.L156:
	adrp	x0, .LC15
	add	x0, x0, :lo12:.LC15
	str	x2, [x8]
	mov	x1, 11
	ldr	x3, [x0]
	str	x3, [x8, 16]
	ldr	w0, [x0, 7]
	str	w0, [x2, 7]
	str	x1, [x8, 8]
	strb	wzr, [x8, 27]
	b	.L147
	.p2align 2,,3
.L157:
	mov	x3, 17
	str	x2, [x8]
	add	x1, sp, 32
	mov	x2, 0
	mov	x0, x8
	str	x3, [sp, 32]
	bl	_ZNSt7__cxx1112basic_stringIcSt11char_traitsIcESaIcEE9_M_createERmm
	str	x0, [x19]
	adrp	x1, .LC16
	add	x1, x1, :lo12:.LC16
	ldr	x2, [sp, 32]
	str	x2, [x19, 16]
	ldp	x2, x3, [x1]
	stp	x2, x3, [x0]
	ldrb	w1, [x1, 16]
	strb	w1, [x0, 16]
	ldr	x1, [x19]
	ldr	x0, [sp, 32]
	str	x0, [x19, 8]
	strb	wzr, [x1, x0]
	b	.L147
.L159:
	bl	__stack_chk_fail
	.cfi_endproc
.LFE2908:
	.size	_ZNK4asio5error6detail13misc_category7messageB5cxx11Ei, .-_ZNK4asio5error6detail13misc_category7messageB5cxx11Ei
	.global	__aarch64_ldadd4_acq_rel
	.text
	.align	2
	.p2align 4,,11
	.global	_ZN8asiodnp318TCPServerIOHandler12ShutdownImplEv
	.type	_ZN8asiodnp318TCPServerIOHandler12ShutdownImplEv, %function
_ZN8asiodnp318TCPServerIOHandler12ShutdownImplEv:
.LFB7760:
	.cfi_startproc
	stp	x29, x30, [sp, -32]!
	.cfi_def_cfa_offset 32
	.cfi_offset 29, -32
	.cfi_offset 30, -24
	mov	x29, sp
	stp	x19, x20, [sp, 16]
	.cfi_offset 19, -16
	.cfi_offset 20, -8
	mov	x19, x0
	add	x20, x0, 1024
	ldr	x0, [x0, 856]
	cbz	x0, .L160
	bl	_ZN7asiopal9TCPServer8ShutdownEv
	ldr	x19, [x19, 864]
	stp	xzr, xzr, [x20, -168]
	cbz	x19, .L160
	adrp	x20, :got:__libc_single_threaded
	ldr	x0, [x20, #:got_lo12:__libc_single_threaded]
	ldrb	w0, [x0]
	cbz	w0, .L164
	ldr	w0, [x19, 8]
	sub	w1, w0, #1
	str	w1, [x19, 8]
.L165:
	cmp	w0, 1
	bne	.L160
	ldr	x1, [x19]
	mov	x0, x19
	ldr	x1, [x1, 16]
	blr	x1
	ldr	x20, [x20, #:got_lo12:__libc_single_threaded]
	ldrb	w0, [x20]
	cbz	w0, .L166
	ldr	w0, [x19, 12]
	sub	w1, w0, #1
	str	w1, [x19, 12]
.L167:
	cmp	w0, 1
	beq	.L172
.L160:
	ldp	x19, x20, [sp, 16]
	ldp	x29, x30, [sp], 32
	.cfi_remember_state
	.cfi_restore 30
	.cfi_restore 29
	.cfi_restore 19
	.cfi_restore 20
	.cfi_def_cfa_offset 0
	ret
	.p2align 2,,3
.L164:
	.cfi_restore_state
	add	x1, x19, 8
	mov	w0, -1
	bl	__aarch64_ldadd4_acq_rel
	b	.L165
	.p2align 2,,3
.L172:
	ldr	x1, [x19]
	mov	x0, x19
	ldp	x19, x20, [sp, 16]
	ldp	x29, x30, [sp], 32
	.cfi_remember_state
	.cfi_restore 30
	.cfi_restore 29
	.cfi_restore 19
	.cfi_restore 20
	.cfi_def_cfa_offset 0
	ldr	x1, [x1, 24]
	mov	x16, x1
	br	x16
	.p2align 2,,3
.L166:
	.cfi_restore_state
	add	x1, x19, 12
	mov	w0, -1
	bl	__aarch64_ldadd4_acq_rel
	b	.L167
	.cfi_endproc
.LFE7760:
	.size	_ZN8asiodnp318TCPServerIOHandler12ShutdownImplEv, .-_ZN8asiodnp318TCPServerIOHandler12ShutdownImplEv
	.global	_ZN8asiodnp318TCPServerIOHandler20SuspendChannelAcceptEv
	.set	_ZN8asiodnp318TCPServerIOHandler20SuspendChannelAcceptEv,_ZN8asiodnp318TCPServerIOHandler12ShutdownImplEv
	.align	2
	.p2align 4,,11
	.type	_ZNSt17_Function_handlerIFvRKSt10shared_ptrIN7asiopal8ExecutorEEN4asio19basic_stream_socketINS6_2ip3tcpENS6_21stream_socket_serviceIS9_EEEEEZN8asiodnp318TCPServerIOHandler18BeginChannelAcceptEvEUlS5_SC_E_E10_M_managerERSt9_Any_dataRKSI_St18_Manager_operation, %function
_ZNSt17_Function_handlerIFvRKSt10shared_ptrIN7asiopal8ExecutorEEN4asio19basic_stream_socketINS6_2ip3tcpENS6_21stream_socket_serviceIS9_EEEEEZN8asiodnp318TCPServerIOHandler18BeginChannelAcceptEvEUlS5_SC_E_E10_M_managerERSt9_Any_dataRKSI_St18_Manager_operation:
.LFB9169:
	.cfi_startproc
	stp	x29, x30, [sp, -48]!
	.cfi_def_cfa_offset 48
	.cfi_offset 29, -48
	.cfi_offset 30, -40
	mov	x29, sp
	stp	x19, x20, [sp, 16]
	.cfi_offset 19, -32
	.cfi_offset 20, -24
	mov	x19, x0
	cbz	w2, .L174
	cmp	w2, 1
	beq	.L175
	cmp	w2, 2
	beq	.L178
	cmp	w2, 3
	bne	.L177
	ldr	x19, [x0]
	cbz	x19, .L177
	ldr	x20, [x19, 8]
	cbz	x20, .L183
	str	x21, [sp, 32]
	.cfi_offset 21, -16
	adrp	x21, :got:__libc_single_threaded
	ldr	x0, [x21, #:got_lo12:__libc_single_threaded]
	ldrb	w0, [x0]
	cbz	w0, .L184
	ldr	w0, [x20, 8]
	sub	w1, w0, #1
	str	w1, [x20, 8]
.L185:
	cmp	w0, 1
	beq	.L199
.L198:
	ldr	x21, [sp, 32]
	.cfi_restore 21
.L183:
	mov	x0, x19
	mov	x1, 24
	bl	_ZdlPvm
.L177:
	mov	w0, 0
	ldp	x19, x20, [sp, 16]
	ldp	x29, x30, [sp], 48
	.cfi_remember_state
	.cfi_restore 30
	.cfi_restore 29
	.cfi_restore 19
	.cfi_restore 20
	.cfi_def_cfa_offset 0
	ret
	.p2align 2,,3
.L174:
	.cfi_restore_state
	adrp	x0, .LANCHOR0
	add	x0, x0, :lo12:.LANCHOR0
	str	x0, [x19]
	mov	w0, 0
	ldp	x19, x20, [sp, 16]
	ldp	x29, x30, [sp], 48
	.cfi_remember_state
	.cfi_restore 30
	.cfi_restore 29
	.cfi_restore 19
	.cfi_restore 20
	.cfi_def_cfa_offset 0
	ret
	.p2align 2,,3
.L175:
	.cfi_restore_state
	ldr	x0, [x1]
	str	x0, [x19]
	mov	w0, 0
	ldp	x19, x20, [sp, 16]
	ldp	x29, x30, [sp], 48
	.cfi_remember_state
	.cfi_restore 30
	.cfi_restore 29
	.cfi_restore 19
	.cfi_restore 20
	.cfi_def_cfa_offset 0
	ret
	.p2align 2,,3
.L178:
	.cfi_restore_state
	str	x21, [sp, 32]
	.cfi_offset 21, -16
	mov	x0, 24
	ldr	x21, [x1]
	bl	_Znwm
	mov	x20, x0
	ldr	q0, [x21]
	umov	x1, v0.d[1]
	str	q0, [x0]
	cbz	x1, .L180
	adrp	x0, :got:__libc_single_threaded
	ldr	x0, [x0, #:got_lo12:__libc_single_threaded]
	ldrb	w0, [x0]
	cbz	w0, .L181
	ldr	w0, [x1, 8]
	add	w0, w0, 1
	str	w0, [x1, 8]
.L180:
	ldr	x0, [x21, 16]
	ldr	x21, [sp, 32]
	.cfi_remember_state
	.cfi_restore 21
	str	x20, [x19]
	str	x0, [x20, 16]
	b	.L177
.L199:
	.cfi_restore_state
	ldr	x1, [x20]
	mov	x0, x20
	ldr	x1, [x1, 16]
	blr	x1
	ldr	x21, [x21, #:got_lo12:__libc_single_threaded]
	ldrb	w0, [x21]
	cbz	w0, .L187
	ldr	w0, [x20, 12]
	sub	w1, w0, #1
	str	w1, [x20, 12]
.L188:
	cmp	w0, 1
	bne	.L198
	ldr	x1, [x20]
	mov	x0, x20
	ldr	x1, [x1, 24]
	blr	x1
	ldr	x21, [sp, 32]
	.cfi_remember_state
	.cfi_restore 21
	b	.L183
	.p2align 2,,3
.L181:
	.cfi_restore_state
	add	x1, x1, 8
	mov	w0, 1
	bl	__aarch64_ldadd4_acq_rel
	b	.L180
.L184:
	add	x1, x20, 8
	mov	w0, -1
	bl	__aarch64_ldadd4_acq_rel
	b	.L185
.L187:
	add	x1, x20, 12
	mov	w0, -1
	bl	__aarch64_ldadd4_acq_rel
	b	.L188
	.cfi_endproc
.LFE9169:
	.size	_ZNSt17_Function_handlerIFvRKSt10shared_ptrIN7asiopal8ExecutorEEN4asio19basic_stream_socketINS6_2ip3tcpENS6_21stream_socket_serviceIS9_EEEEEZN8asiodnp318TCPServerIOHandler18BeginChannelAcceptEvEUlS5_SC_E_E10_M_managerERSt9_Any_dataRKSI_St18_Manager_operation, .-_ZNSt17_Function_handlerIFvRKSt10shared_ptrIN7asiopal8ExecutorEEN4asio19basic_stream_socketINS6_2ip3tcpENS6_21stream_socket_serviceIS9_EEEEEZN8asiodnp318TCPServerIOHandler18BeginChannelAcceptEvEUlS5_SC_E_E10_M_managerERSt9_Any_dataRKSI_St18_Manager_operation
	.section	.rodata._ZNSt12system_errorC2ESt10error_codePKc.str1.8,"aMS",@progbits,1
	.align	3
.LC19:
	.string	": "
	.section	.text._ZNSt12system_errorC2ESt10error_codePKc,"axG",@progbits,_ZNSt12system_errorC5ESt10error_codePKc,comdat
	.align	2
	.p2align 4,,11
	.weak	_ZNSt12system_errorC2ESt10error_codePKc
	.type	_ZNSt12system_errorC2ESt10error_codePKc, %function
_ZNSt12system_errorC2ESt10error_codePKc:
.LFB2825:
	.cfi_startproc
	.cfi_personality 0x9b,DW.ref.__gxx_personality_v0
	.cfi_lsda 0x1b,.LLSDA2825
	stp	x29, x30, [sp, -176]!
	.cfi_def_cfa_offset 176
	.cfi_offset 29, -176
	.cfi_offset 30, -168
	adrp	x4, :got:__stack_chk_guard
	mov	x29, sp
	stp	x19, x20, [sp, 16]
	.cfi_offset 19, -160
	.cfi_offset 20, -152
	mov	x20, x2
	mov	x19, x0
	ldr	x2, [x4, #:got_lo12:__stack_chk_guard]
	stp	x21, x22, [sp, 32]
	mov	x0, x20
	ldr	x4, [x20]
	.cfi_offset 21, -144
	.cfi_offset 22, -136
	mov	x21, x1
	mov	x22, x3
	ldr	x4, [x4, 32]
	str	x23, [sp, 48]
	.cfi_offset 23, -128
	add	x23, sp, 136
	mov	x8, x23
	ldr	x3, [x2]
	str	x3, [sp, 168]
	mov	x3, 0
.LEHB0:
	blr	x4
.LEHE0:
	adrp	x3, .LC19
	mov	x0, x23
	add	x3, x3, :lo12:.LC19
	mov	x4, 2
	mov	x2, 0
	mov	x1, 0
.LEHB1:
	bl	_ZNSt7__cxx1112basic_stringIcSt11char_traitsIcESaIcEE10_M_replaceEmmPKcm
.LEHE1:
	add	x23, sp, 120
	str	x23, [sp, 104]
	mov	x4, x0
	ldr	x1, [x0], 16
	cmp	x1, x0
	beq	.L220
	ldr	x2, [x4, 16]
	str	x1, [sp, 104]
	str	x2, [sp, 120]
.L202:
	ldr	x1, [x4, 8]
	str	x1, [sp, 112]
	stp	x0, xzr, [x4]
	mov	x0, x22
	strb	wzr, [x4, 16]
	bl	strlen
	mov	x4, x0
	mov	x3, x22
	add	x0, sp, 104
	mov	x2, 0
	mov	x1, 0
.LEHB2:
	bl	_ZNSt7__cxx1112basic_stringIcSt11char_traitsIcESaIcEE10_M_replaceEmmPKcm
.LEHE2:
	add	x22, sp, 88
	str	x22, [sp, 72]
	mov	x3, x0
	ldr	x1, [x0], 16
	cmp	x1, x0
	beq	.L221
	ldr	x2, [x3, 16]
	str	x1, [sp, 72]
	str	x2, [sp, 88]
.L204:
	ldr	x1, [x3, 8]
	str	x1, [sp, 80]
	stp	x0, xzr, [x3]
	add	x1, sp, 72
	mov	x0, x19
	strb	wzr, [x3, 16]
.LEHB3:
	bl	_ZNSt13runtime_errorC2ERKNSt7__cxx1112basic_stringIcSt11char_traitsIcESaIcEEE
.LEHE3:
	ldr	x0, [sp, 72]
	cmp	x0, x22
	beq	.L205
	ldr	x1, [sp, 88]
	add	x1, x1, 1
	bl	_ZdlPvm
.L205:
	ldr	x0, [sp, 104]
	cmp	x0, x23
	beq	.L206
	ldr	x1, [sp, 120]
	add	x1, x1, 1
	bl	_ZdlPvm
.L206:
	ldr	x0, [sp, 136]
	add	x1, sp, 152
	cmp	x0, x1
	beq	.L207
	ldr	x1, [sp, 152]
	add	x1, x1, 1
	bl	_ZdlPvm
.L207:
	adrp	x0, :got:_ZTVSt12system_error
	adrp	x1, :got:__stack_chk_guard
	stp	x21, x20, [x19, 16]
	ldr	x0, [x0, #:got_lo12:_ZTVSt12system_error]
	ldr	x1, [x1, #:got_lo12:__stack_chk_guard]
	add	x0, x0, 16
	str	x0, [x19]
	ldr	x0, [sp, 168]
	ldr	x2, [x1]
	subs	x0, x0, x2
	mov	x2, 0
	bne	.L222
	ldp	x19, x20, [sp, 16]
	ldp	x21, x22, [sp, 32]
	ldr	x23, [sp, 48]
	ldp	x29, x30, [sp], 176
	.cfi_remember_state
	.cfi_restore 30
	.cfi_restore 29
	.cfi_restore 23
	.cfi_restore 21
	.cfi_restore 22
	.cfi_restore 19
	.cfi_restore 20
	.cfi_def_cfa_offset 0
	ret
	.p2align 2,,3
.L220:
	.cfi_restore_state
	ldp	x2, x3, [x4, 16]
	stp	x2, x3, [sp, 120]
	b	.L202
	.p2align 2,,3
.L221:
	ldp	x4, x5, [x3, 16]
	stp	x4, x5, [sp, 88]
	b	.L204
.L222:
	bl	__stack_chk_fail
.L217:
	ldr	x2, [sp, 72]
	mov	x19, x0
	cmp	x2, x22
	beq	.L210
	ldr	x1, [sp, 88]
	mov	x0, x2
	add	x1, x1, 1
	bl	_ZdlPvm
.L210:
	ldr	x0, [sp, 104]
	cmp	x0, x23
	beq	.L212
	ldr	x1, [sp, 120]
	add	x1, x1, 1
	bl	_ZdlPvm
.L212:
	ldr	x0, [sp, 136]
	add	x1, sp, 152
	cmp	x0, x1
	beq	.L213
	ldr	x1, [sp, 152]
	add	x1, x1, 1
	bl	_ZdlPvm
.L213:
	mov	x0, x19
.LEHB4:
	bl	_Unwind_Resume
.LEHE4:
.L215:
	mov	x19, x0
	b	.L212
.L216:
	mov	x19, x0
	b	.L210
	.cfi_endproc
.LFE2825:
	.global	__gxx_personality_v0
	.section	.gcc_except_table._ZNSt12system_errorC2ESt10error_codePKc,"aG",@progbits,_ZNSt12system_errorC5ESt10error_codePKc,comdat
.LLSDA2825:
	.byte	0xff
	.byte	0xff
	.byte	0x1
	.uleb128 .LLSDACSE2825-.LLSDACSB2825
.LLSDACSB2825:
	.uleb128 .LEHB0-.LFB2825
	.uleb128 .LEHE0-.LEHB0
	.uleb128 0
	.uleb128 0
	.uleb128 .LEHB1-.LFB2825
	.uleb128 .LEHE1-.LEHB1
	.uleb128 .L215-.LFB2825
	.uleb128 0
	.uleb128 .LEHB2-.LFB2825
	.uleb128 .LEHE2-.LEHB2
	.uleb128 .L216-.LFB2825
	.uleb128 0
	.uleb128 .LEHB3-.LFB2825
	.uleb128 .LEHE3-.LEHB3
	.uleb128 .L217-.LFB2825
	.uleb128 0
	.uleb128 .LEHB4-.LFB2825
	.uleb128 .LEHE4-.LEHB4
	.uleb128 0
	.uleb128 0
.LLSDACSE2825:
	.section	.text._ZNSt12system_errorC2ESt10error_codePKc,"axG",@progbits,_ZNSt12system_errorC5ESt10error_codePKc,comdat
	.size	_ZNSt12system_errorC2ESt10error_codePKc, .-_ZNSt12system_errorC2ESt10error_codePKc
	.weak	_ZNSt12system_errorC1ESt10error_codePKc
	.set	_ZNSt12system_errorC1ESt10error_codePKc,_ZNSt12system_errorC2ESt10error_codePKc
	.section	.text._ZN4asio15system_categoryEv,"axG",@progbits,_ZN4asio15system_categoryEv,comdat
	.align	2
	.p2align 4,,11
	.weak	_ZN4asio15system_categoryEv
	.type	_ZN4asio15system_categoryEv, %function
_ZN4asio15system_categoryEv:
.LFB2878:
	.cfi_startproc
	stp	x29, x30, [sp, -32]!
	.cfi_def_cfa_offset 32
	.cfi_offset 29, -32
	.cfi_offset 30, -24
	mov	x29, sp
	stp	x19, x20, [sp, 16]
	.cfi_offset 19, -16
	.cfi_offset 20, -8
	adrp	x19, :got:_ZGVZN4asio15system_categoryEvE8instance
	ldr	x19, [x19, #:got_lo12:_ZGVZN4asio15system_categoryEvE8instance]
	ldar	x0, [x19]
	adrp	x20, :got:_ZZN4asio15system_categoryEvE8instance
	tbz	x0, 0, .L231
.L225:
	ldr	x0, [x20, #:got_lo12:_ZZN4asio15system_categoryEvE8instance]
	ldp	x19, x20, [sp, 16]
	ldp	x29, x30, [sp], 32
	.cfi_remember_state
	.cfi_restore 30
	.cfi_restore 29
	.cfi_restore 19
	.cfi_restore 20
	.cfi_def_cfa_offset 0
	ret
	.p2align 2,,3
.L231:
	.cfi_restore_state
	mov	x0, x19
	adrp	x20, :got:_ZZN4asio15system_categoryEvE8instance
	bl	__cxa_guard_acquire
	cbz	w0, .L225
	adrp	x0, :got:_ZN4asio6detail15system_categoryD1Ev
	adrp	x2, __dso_handle
	ldr	x1, [x20, #:got_lo12:_ZZN4asio15system_categoryEvE8instance]
	add	x2, x2, :lo12:__dso_handle
	ldr	x0, [x0, #:got_lo12:_ZN4asio6detail15system_categoryD1Ev]
	bl	__cxa_atexit
	mov	x0, x19
	bl	__cxa_guard_release
	ldr	x0, [x20, #:got_lo12:_ZZN4asio15system_categoryEvE8instance]
	ldp	x19, x20, [sp, 16]
	ldp	x29, x30, [sp], 32
	.cfi_restore 30
	.cfi_restore 29
	.cfi_restore 19
	.cfi_restore 20
	.cfi_def_cfa_offset 0
	ret
	.cfi_endproc
.LFE2878:
	.size	_ZN4asio15system_categoryEv, .-_ZN4asio15system_categoryEv
	.section	.rodata._ZN4asio6detail20posix_tss_ptr_createERj.str1.8,"aMS",@progbits,1
	.align	3
.LC20:
	.string	"tss"
	.section	.text._ZN4asio6detail20posix_tss_ptr_createERj,"axG",@progbits,_ZN4asio6detail20posix_tss_ptr_createERj,comdat
	.align	2
	.p2align 4,,11
	.weak	_ZN4asio6detail20posix_tss_ptr_createERj
	.type	_ZN4asio6detail20posix_tss_ptr_createERj, %function
_ZN4asio6detail20posix_tss_ptr_createERj:
.LFB2913:
	.cfi_startproc
	.cfi_personality 0x9b,DW.ref.__gxx_personality_v0
	.cfi_lsda 0x1b,.LLSDA2913
	stp	x29, x30, [sp, -96]!
	.cfi_def_cfa_offset 96
	.cfi_offset 29, -96
	.cfi_offset 30, -88
	adrp	x2, :got:__stack_chk_guard
	mov	x1, 0
	mov	x29, sp
	ldr	x2, [x2, #:got_lo12:__stack_chk_guard]
	stp	x19, x20, [sp, 16]
	.cfi_offset 19, -80
	.cfi_offset 20, -72
	adrp	x20, :got:_ZGVZN4asio15system_categoryEvE8instance
	str	x21, [sp, 32]
	.cfi_offset 21, -64
	ldr	x3, [x2]
	str	x3, [sp, 88]
	mov	x3, 0
	bl	pthread_key_create
	mov	w19, w0
	ldr	x20, [x20, #:got_lo12:_ZGVZN4asio15system_categoryEvE8instance]
	ldar	x0, [x20]
	adrp	x21, :got:_ZZN4asio15system_categoryEvE8instance
	tbz	x0, 0, .L244
.L234:
	mov	x1, 0
	ldr	x21, [x21, #:got_lo12:_ZZN4asio15system_categoryEvE8instance]
	bfi	x1, x19, 0, 32
	cbnz	w19, .L245
	adrp	x0, :got:__stack_chk_guard
	ldr	x0, [x0, #:got_lo12:__stack_chk_guard]
	ldr	x2, [sp, 88]
	ldr	x1, [x0]
	subs	x2, x2, x1
	mov	x1, 0
	bne	.L246
	ldp	x19, x20, [sp, 16]
	ldr	x21, [sp, 32]
	ldp	x29, x30, [sp], 96
	.cfi_remember_state
	.cfi_restore 30
	.cfi_restore 29
	.cfi_restore 21
	.cfi_restore 19
	.cfi_restore 20
	.cfi_def_cfa_offset 0
	ret
	.p2align 2,,3
.L244:
	.cfi_restore_state
	mov	x0, x20
	adrp	x21, :got:_ZZN4asio15system_categoryEvE8instance
	bl	__cxa_guard_acquire
	cbz	w0, .L234
	adrp	x0, :got:_ZN4asio6detail15system_categoryD1Ev
	adrp	x2, __dso_handle
	ldr	x1, [x21, #:got_lo12:_ZZN4asio15system_categoryEvE8instance]
	add	x2, x2, :lo12:__dso_handle
	ldr	x0, [x0, #:got_lo12:_ZN4asio6detail15system_categoryD1Ev]
	bl	__cxa_atexit
	mov	x0, x20
	bl	__cxa_guard_release
	b	.L234
.L246:
	bl	__stack_chk_fail
.L245:
	mov	x2, x21
	adrp	x3, .LC20
	add	x3, x3, :lo12:.LC20
	add	x20, sp, 56
	mov	x0, x20
.LEHB5:
	bl	_ZNSt12system_errorC1ESt10error_codePKc
.LEHE5:
	mov	x0, 32
	bl	__cxa_allocate_exception
	mov	x19, x0
	mov	x1, x20
	bl	_ZNSt13runtime_errorC2ERKS_
	adrp	x3, :got:_ZTVSt12system_error
	adrp	x2, :got:_ZNSt12system_errorD1Ev
	adrp	x1, :got:_ZTISt12system_error
	mov	x0, x19
	ldr	x3, [x3, #:got_lo12:_ZTVSt12system_error]
	ldp	x4, x5, [sp, 72]
	add	x3, x3, 16
	ldr	x2, [x2, #:got_lo12:_ZNSt12system_errorD1Ev]
	str	x3, [x19]
	ldr	x1, [x1, #:got_lo12:_ZTISt12system_error]
	stp	x4, x5, [x19, 16]
.LEHB6:
	bl	__cxa_throw
.LEHE6:
.L239:
	mov	x19, x0
	mov	x0, x20
	bl	_ZNSt12system_errorD1Ev
	mov	x0, x19
.LEHB7:
	bl	_Unwind_Resume
.LEHE7:
	.cfi_endproc
.LFE2913:
	.section	.gcc_except_table._ZN4asio6detail20posix_tss_ptr_createERj,"aG",@progbits,_ZN4asio6detail20posix_tss_ptr_createERj,comdat
.LLSDA2913:
	.byte	0xff
	.byte	0xff
	.byte	0x1
	.uleb128 .LLSDACSE2913-.LLSDACSB2913
.LLSDACSB2913:
	.uleb128 .LEHB5-.LFB2913
	.uleb128 .LEHE5-.LEHB5
	.uleb128 0
	.uleb128 0
	.uleb128 .LEHB6-.LFB2913
	.uleb128 .LEHE6-.LEHB6
	.uleb128 .L239-.LFB2913
	.uleb128 0
	.uleb128 .LEHB7-.LFB2913
	.uleb128 .LEHE7-.LEHB7
	.uleb128 0
	.uleb128 0
.LLSDACSE2913:
	.section	.text._ZN4asio6detail20posix_tss_ptr_createERj,"axG",@progbits,_ZN4asio6detail20posix_tss_ptr_createERj,comdat
	.size	_ZN4asio6detail20posix_tss_ptr_createERj, .-_ZN4asio6detail20posix_tss_ptr_createERj
	.section	.text._ZN4asio6detail28reactive_socket_service_base7destroyERNS1_24base_implementation_typeE,"axG",@progbits,_ZN4asio6detail28reactive_socket_service_base7destroyERNS1_24base_implementation_typeE,comdat
	.align	2
	.p2align 4,,11
	.weak	_ZN4asio6detail28reactive_socket_service_base7destroyERNS1_24base_implementation_typeE
	.type	_ZN4asio6detail28reactive_socket_service_base7destroyERNS1_24base_implementation_typeE, %function
_ZN4asio6detail28reactive_socket_service_base7destroyERNS1_24base_implementation_typeE:
.LFB4466:
	.cfi_startproc
	stp	x29, x30, [sp, -144]!
	.cfi_def_cfa_offset 144
	.cfi_offset 29, -144
	.cfi_offset 30, -136
	adrp	x2, :got:__stack_chk_guard
	mov	x29, sp
	stp	x25, x26, [sp, 64]
	.cfi_offset 25, -80
	.cfi_offset 26, -72
	mov	x26, x1
	mov	x1, x0
	ldr	x2, [x2, #:got_lo12:__stack_chk_guard]
	stp	x19, x20, [sp, 16]
	.cfi_offset 19, -128
	.cfi_offset 20, -120
	ldr	w19, [x26]
	ldr	x0, [x2]
	str	x0, [sp, 136]
	mov	x0, 0
	cmn	w19, #1
	bne	.L361
.L247:
	adrp	x0, :got:__stack_chk_guard
	ldr	x0, [x0, #:got_lo12:__stack_chk_guard]
	ldr	x2, [sp, 136]
	ldr	x1, [x0]
	subs	x2, x2, x1
	mov	x1, 0
	bne	.L362
	ldp	x19, x20, [sp, 16]
	ldp	x25, x26, [sp, 64]
	ldp	x29, x30, [sp], 144
	.cfi_remember_state
	.cfi_restore 30
	.cfi_restore 29
	.cfi_restore 25
	.cfi_restore 26
	.cfi_restore 19
	.cfi_restore 20
	.cfi_def_cfa_offset 0
	ret
	.p2align 2,,3
.L361:
	.cfi_restore_state
	stp	x21, x22, [sp, 32]
	.cfi_offset 22, -104
	.cfi_offset 21, -112
	ldr	x21, [x26, 8]
	stp	x23, x24, [sp, 48]
	.cfi_offset 24, -88
	.cfi_offset 23, -96
	cbz	x21, .L278
	ldr	x1, [x1]
	add	x21, x21, 40
	ldrb	w20, [x26, 4]
	mov	x0, x21
	str	x1, [sp, 96]
	bl	pthread_mutex_lock
	ldr	x1, [x26, 8]
	ldrb	w0, [x1, 152]
	cbnz	w0, .L250
	stp	x27, x28, [sp, 80]
	.cfi_offset 28, -56
	.cfi_offset 27, -64
	tbnz	x20, 6, .L363
.L251:
	adrp	x28, :got:_ZGVZN4asio15system_categoryEvE8instance
	adrp	x25, __dso_handle
	mov	x27, 0
	add	x0, x25, :lo12:__dso_handle
	ldr	x28, [x28, #:got_lo12:_ZGVZN4asio15system_categoryEvE8instance]
	mov	x23, 0
	mov	w20, 0
	str	x0, [sp, 104]
.L252:
	add	x0, x1, w20, sxtw 4
	sxtw	x24, w20
	ldr	x19, [x0, 104]
	cbz	x19, .L299
	adrp	x22, :got:_ZN4asio6detail15system_categoryD1Ev
	adrp	x25, :got:_ZZN4asio15system_categoryEvE8instance
	ldr	x22, [x22, #:got_lo12:_ZN4asio6detail15system_categoryD1Ev]
	ldar	x0, [x28]
	tbz	x0, 0, .L364
	.p2align 3,,7
.L254:
	ldr	x1, [x26, 8]
	mov	w2, 125
	ldr	x0, [x25, #:got_lo12:_ZZN4asio15system_categoryEvE8instance]
	str	x0, [x19, 32]
	add	x3, x1, x24, lsl 4
	str	w2, [x19, 24]
	ldr	x0, [x3, 104]
	cbz	x0, .L256
.L367:
	ldr	x2, [x0]
	str	x2, [x3, 104]
	cbz	x2, .L365
	str	xzr, [x0]
	str	xzr, [x19]
	cbz	x27, .L366
.L296:
	str	x19, [x27]
	cbz	x2, .L258
.L259:
	mov	x27, x19
	mov	x19, x2
	ldar	x0, [x28]
	tbnz	x0, 0, .L254
.L364:
	mov	x0, x28
	bl	__cxa_guard_acquire
	cbz	w0, .L254
	ldr	x1, [x25, #:got_lo12:_ZZN4asio15system_categoryEvE8instance]
	mov	x0, x22
	ldr	x2, [sp, 104]
	bl	__cxa_atexit
	mov	x0, x28
	bl	__cxa_guard_release
	ldr	x1, [x26, 8]
	mov	w2, 125
	ldr	x0, [x25, #:got_lo12:_ZZN4asio15system_categoryEvE8instance]
	str	x0, [x19, 32]
	add	x3, x1, x24, lsl 4
	str	w2, [x19, 24]
	ldr	x0, [x3, 104]
	cbnz	x0, .L367
	.p2align 3,,7
.L256:
	str	xzr, [x19]
	cbz	x27, .L300
	str	x19, [x27]
.L258:
	add	w20, w20, 1
	cmp	w20, 3
	beq	.L260
.L372:
	mov	x27, x19
	b	.L252
	.p2align 2,,3
.L250:
	.cfi_restore 27
	.cfi_restore 28
	mov	x0, x21
	bl	pthread_mutex_unlock
	ldr	w19, [x26]
.L272:
	cmn	w19, #1
	beq	.L359
.L278:
	ldrb	w21, [x26, 4]
	bl	__errno_location
	adrp	x22, :got:_ZGVZN4asio15system_categoryEvE8instance
	mov	x20, x0
	tbnz	x21, 3, .L368
.L280:
	str	wzr, [x20]
	mov	w0, w19
	bl	close
	ldr	w24, [x20]
	ldr	x23, [x22, #:got_lo12:_ZGVZN4asio15system_categoryEvE8instance]
	mov	w21, w0
	ldar	x0, [x23]
	tbz	x0, 0, .L369
.L285:
	cbnz	w21, .L370
.L359:
	ldp	x21, x22, [sp, 32]
	.cfi_remember_state
	.cfi_restore 22
	.cfi_restore 21
	ldp	x23, x24, [sp, 48]
	.cfi_restore 24
	.cfi_restore 23
	b	.L247
	.p2align 2,,3
.L369:
	.cfi_restore_state
	mov	x0, x23
	bl	__cxa_guard_acquire
	cbz	w0, .L285
	adrp	x1, :got:_ZZN4asio15system_categoryEvE8instance
	adrp	x0, :got:_ZN4asio6detail15system_categoryD1Ev
	adrp	x2, __dso_handle
	add	x2, x2, :lo12:__dso_handle
	ldr	x1, [x1, #:got_lo12:_ZZN4asio15system_categoryEvE8instance]
	ldr	x0, [x0, #:got_lo12:_ZN4asio6detail15system_categoryD1Ev]
	bl	__cxa_atexit
	mov	x0, x23
	bl	__cxa_guard_release
	cbz	w21, .L359
	.p2align 3,,7
.L370:
	ldr	x21, [x22, #:got_lo12:_ZGVZN4asio15system_categoryEvE8instance]
	ldar	x0, [x21]
	tbz	x0, 0, .L371
.L289:
	cmp	w24, 11
	beq	.L291
	ldr	x22, [x22, #:got_lo12:_ZGVZN4asio15system_categoryEvE8instance]
	ldar	x0, [x22]
	tbnz	x0, 0, .L359
	mov	x0, x22
	bl	__cxa_guard_acquire
	cbz	w0, .L359
	adrp	x1, :got:_ZZN4asio15system_categoryEvE8instance
	adrp	x0, :got:_ZN4asio6detail15system_categoryD1Ev
	adrp	x2, __dso_handle
	add	x2, x2, :lo12:__dso_handle
	ldr	x1, [x1, #:got_lo12:_ZZN4asio15system_categoryEvE8instance]
	ldr	x0, [x0, #:got_lo12:_ZN4asio6detail15system_categoryD1Ev]
	bl	__cxa_atexit
	adrp	x0, :got:__stack_chk_guard
	ldr	x0, [x0, #:got_lo12:__stack_chk_guard]
	ldr	x2, [sp, 136]
	ldr	x1, [x0]
	subs	x2, x2, x1
	mov	x1, 0
	bne	.L360
	mov	x0, x22
	ldp	x19, x20, [sp, 16]
	ldp	x21, x22, [sp, 32]
	.cfi_restore 22
	.cfi_restore 21
	ldp	x23, x24, [sp, 48]
	.cfi_restore 24
	.cfi_restore 23
	ldp	x25, x26, [sp, 64]
	ldp	x29, x30, [sp], 144
	.cfi_restore 30
	.cfi_restore 29
	.cfi_restore 25
	.cfi_restore 26
	.cfi_restore 19
	.cfi_restore 20
	.cfi_def_cfa_offset 0
	b	__cxa_guard_release
	.p2align 2,,3
.L365:
	.cfi_def_cfa_offset 144
	.cfi_offset 19, -128
	.cfi_offset 20, -120
	.cfi_offset 21, -112
	.cfi_offset 22, -104
	.cfi_offset 23, -96
	.cfi_offset 24, -88
	.cfi_offset 25, -80
	.cfi_offset 26, -72
	.cfi_offset 27, -64
	.cfi_offset 28, -56
	.cfi_offset 29, -144
	.cfi_offset 30, -136
	str	xzr, [x3, 112]
	str	xzr, [x0]
	str	xzr, [x19]
	cbnz	x27, .L296
	.p2align 3,,7
.L300:
	add	w20, w20, 1
	mov	x23, x19
	cmp	w20, 3
	bne	.L372
.L260:
	ldr	x22, [sp, 96]
	mov	w2, 1
	mov	w0, -1
	str	w0, [x1, 96]
	strb	w2, [x1, 152]
	mov	x0, x21
	add	x21, x22, 128
	bl	pthread_mutex_unlock
	mov	x0, x21
	ldr	x20, [x26, 8]
	bl	pthread_mutex_lock
	ldr	x0, [x22, 176]
	cmp	x20, x0
	beq	.L373
.L262:
	ldr	x0, [x20, 32]
	cbz	x0, .L263
	ldr	x1, [x20, 24]
	str	x1, [x0, 24]
.L263:
	ldr	x0, [x20, 24]
	cbz	x0, .L264
	ldr	x1, [x20, 32]
	str	x1, [x0, 32]
.L264:
	ldr	x22, [sp, 96]
	mov	x0, x21
	ldr	x2, [x22, 184]
	stp	x2, xzr, [x20, 24]
	str	x20, [x22, 184]
	bl	pthread_mutex_unlock
	str	xzr, [x26, 8]
	cbz	x23, .L265
	ldr	x20, [x22, 40]
	ldrb	w0, [x20, 40]
	cbz	w0, .L266
	adrp	x0, :got:_ZN4asio6detail10call_stackINS0_15task_io_serviceENS0_27task_io_service_thread_infoEE4top_E
	ldr	x0, [x0, #:got_lo12:_ZN4asio6detail10call_stackINS0_15task_io_serviceENS0_27task_io_service_thread_infoEE4top_E]
	ldr	w0, [x0]
	bl	pthread_getspecific
	cbnz	x0, .L269
	b	.L266
	.p2align 2,,3
.L267:
	ldr	x0, [x0, 16]
	cbz	x0, .L266
.L269:
	ldr	x1, [x0]
	cmp	x20, x1
	bne	.L267
	ldr	x0, [x0, 8]
	cbz	x0, .L266
	ldr	x2, [x0, 16]
	add	x1, x0, 8
	cbz	x2, .L270
	str	x23, [x2]
	str	x19, [x1, 8]
	.p2align 3,,7
.L265:
	ldr	w19, [x26]
	ldp	x27, x28, [sp, 80]
	.cfi_remember_state
	.cfi_restore 28
	.cfi_restore 27
	b	.L272
	.p2align 2,,3
.L366:
	.cfi_restore_state
	mov	x23, x19
	b	.L259
	.p2align 2,,3
.L368:
	.cfi_restore 27
	.cfi_restore 28
	orr	w21, w21, 8
	strb	w21, [x26, 4]
	str	wzr, [x20]
	add	x3, sp, 120
	mov	w0, w19
	mov	w4, 8
	mov	w2, 13
	mov	w1, 1
	str	xzr, [sp, 120]
	bl	setsockopt
	ldr	x21, [x22, #:got_lo12:_ZGVZN4asio15system_categoryEvE8instance]
	ldar	x0, [x21]
	tbnz	x0, 0, .L280
	mov	x0, x21
	bl	__cxa_guard_acquire
	cbz	w0, .L280
	adrp	x1, :got:_ZZN4asio15system_categoryEvE8instance
	adrp	x0, :got:_ZN4asio6detail15system_categoryD1Ev
	adrp	x2, __dso_handle
	add	x2, x2, :lo12:__dso_handle
	ldr	x1, [x1, #:got_lo12:_ZZN4asio15system_categoryEvE8instance]
	ldr	x0, [x0, #:got_lo12:_ZN4asio6detail15system_categoryD1Ev]
	bl	__cxa_atexit
	mov	x0, x21
	bl	__cxa_guard_release
	b	.L280
	.p2align 2,,3
.L266:
	.cfi_offset 27, -64
	.cfi_offset 28, -56
	add	x22, x20, 48
	mov	x0, x22
	bl	pthread_mutex_lock
	ldr	x1, [x20, 208]
	add	x0, x20, 200
	cbz	x1, .L273
	str	x23, [x1]
.L274:
	str	x19, [x0, 8]
	add	x21, x20, 96
	ldr	x0, [x20, 144]
	orr	x0, x0, 1
	str	x0, [x20, 144]
	cmp	x0, 1
	beq	.L275
	mov	x0, x22
	bl	pthread_mutex_unlock
	mov	x0, x21
	bl	pthread_cond_signal
	b	.L265
.L275:
	ldrb	w1, [x20, 184]
	cbnz	w1, .L277
	ldr	x4, [x20, 152]
	cbz	x4, .L277
	mov	w1, 9
	strb	w0, [x20, 184]
	ldr	w2, [x4, 96]
	add	x0, x4, 96
	movk	w1, 0x8000, lsl 16
	str	w1, [sp, 120]
	str	x0, [sp, 128]
	add	x3, sp, 120
	mov	w1, 3
	ldr	w0, [x4, 104]
	bl	epoll_ctl
.L277:
	mov	x0, x22
	bl	pthread_mutex_unlock
	b	.L265
	.p2align 2,,3
.L299:
	mov	x19, x27
	b	.L258
	.p2align 2,,3
.L363:
	ldr	x0, [sp, 96]
	str	wzr, [sp, 120]
	str	xzr, [sp, 128]
	mov	w1, 2
	mov	w2, w19
	add	x3, sp, 120
	ldr	w0, [x0, 104]
	bl	epoll_ctl
	ldr	x1, [x26, 8]
	b	.L251
	.p2align 2,,3
.L373:
	ldr	x1, [sp, 96]
	ldr	x0, [x20, 24]
	str	x0, [x1, 176]
	b	.L262
.L371:
	.cfi_restore 27
	.cfi_restore 28
	mov	x0, x21
	bl	__cxa_guard_acquire
	cbz	w0, .L289
	adrp	x1, :got:_ZZN4asio15system_categoryEvE8instance
	adrp	x0, :got:_ZN4asio6detail15system_categoryD1Ev
	adrp	x2, __dso_handle
	add	x2, x2, :lo12:__dso_handle
	ldr	x1, [x1, #:got_lo12:_ZZN4asio15system_categoryEvE8instance]
	ldr	x0, [x0, #:got_lo12:_ZN4asio6detail15system_categoryD1Ev]
	bl	__cxa_atexit
	mov	x0, x21
	bl	__cxa_guard_release
	b	.L289
.L291:
	add	x2, sp, 120
	mov	w0, w19
	mov	x1, 21537
	str	wzr, [sp, 120]
	bl	ioctl
	ldrb	w1, [x26, 4]
	mov	w0, w19
	and	w1, w1, -4
	strb	w1, [x26, 4]
	str	wzr, [x20]
	bl	close
	ldr	x22, [x22, #:got_lo12:_ZGVZN4asio15system_categoryEvE8instance]
	ldar	x0, [x22]
	tbnz	x0, 0, .L359
	mov	x0, x22
	bl	__cxa_guard_acquire
	cbz	w0, .L359
	adrp	x1, :got:_ZZN4asio15system_categoryEvE8instance
	adrp	x0, :got:_ZN4asio6detail15system_categoryD1Ev
	adrp	x2, __dso_handle
	add	x2, x2, :lo12:__dso_handle
	ldr	x1, [x1, #:got_lo12:_ZZN4asio15system_categoryEvE8instance]
	ldr	x0, [x0, #:got_lo12:_ZN4asio6detail15system_categoryD1Ev]
	bl	__cxa_atexit
	mov	x0, x22
	bl	__cxa_guard_release
	ldp	x21, x22, [sp, 32]
	.cfi_restore 22
	.cfi_restore 21
	ldp	x23, x24, [sp, 48]
	.cfi_restore 24
	.cfi_restore 23
	b	.L247
.L273:
	.cfi_offset 21, -112
	.cfi_offset 22, -104
	.cfi_offset 23, -96
	.cfi_offset 24, -88
	.cfi_offset 27, -64
	.cfi_offset 28, -56
	str	x23, [x20, 200]
	b	.L274
.L270:
	str	x23, [x0, 8]
	str	x19, [x1, 8]
	b	.L265
.L362:
	.cfi_restore 21
	.cfi_restore 22
	.cfi_restore 23
	.cfi_restore 24
	.cfi_restore 27
	.cfi_restore 28
	stp	x21, x22, [sp, 32]
	.cfi_offset 22, -104
	.cfi_offset 21, -112
	stp	x23, x24, [sp, 48]
	.cfi_offset 24, -88
	.cfi_offset 23, -96
.L360:
	stp	x27, x28, [sp, 80]
	.cfi_offset 28, -56
	.cfi_offset 27, -64
	bl	__stack_chk_fail
	.cfi_endproc
.LFE4466:
	.size	_ZN4asio6detail28reactive_socket_service_base7destroyERNS1_24base_implementation_typeE, .-_ZN4asio6detail28reactive_socket_service_base7destroyERNS1_24base_implementation_typeE
	.text
	.align	2
	.p2align 4,,11
	.global	_ZN8asiodnp318TCPServerIOHandler6Server16AcceptConnectionEmRKSt10shared_ptrIN7asiopal8ExecutorEEN4asio19basic_stream_socketINS8_2ip3tcpENS8_21stream_socket_serviceISB_EEEE
	.type	_ZN8asiodnp318TCPServerIOHandler6Server16AcceptConnectionEmRKSt10shared_ptrIN7asiopal8ExecutorEEN4asio19basic_stream_socketINS8_2ip3tcpENS8_21stream_socket_serviceISB_EEEE, %function
_ZN8asiodnp318TCPServerIOHandler6Server16AcceptConnectionEmRKSt10shared_ptrIN7asiopal8ExecutorEEN4asio19basic_stream_socketINS8_2ip3tcpENS8_21stream_socket_serviceISB_EEEE:
.LFB7746:
	.cfi_startproc
	.cfi_personality 0x9b,DW.ref.__gxx_personality_v0
	.cfi_lsda 0x1b,.LLSDA7746
	stp	x29, x30, [sp, -80]!
	.cfi_def_cfa_offset 80
	.cfi_offset 29, -80
	.cfi_offset 30, -72
	adrp	x1, :got:__stack_chk_guard
	add	x0, x0, 208
	mov	x29, sp
	ldr	x1, [x1, #:got_lo12:__stack_chk_guard]
	mov	w6, -1
	ldr	x8, [x3, 8]
	str	x19, [sp, 16]
	.cfi_offset 19, -64
	mov	w5, 2
	ldr	x4, [x1]
	str	x4, [sp, 72]
	mov	x4, 0
	ldrb	w7, [x3, 4]
	strb	wzr, [x3, 4]
	ldr	w1, [x3]
	ldr	x4, [x0, 16]
	str	w1, [sp, 40]
	ldr	w1, [x3, 16]
	strb	w7, [sp, 44]
	ldr	x7, [x3, 24]
	str	w6, [x3]
	str	xzr, [x3, 8]
	str	w5, [x3, 16]
	str	x8, [sp, 48]
	str	w1, [sp, 56]
	str	x7, [sp, 64]
	cbz	x4, .L381
	ldr	x3, [x0, 24]
	add	x19, sp, 40
	mov	x1, x2
	mov	x2, x19
.LEHB8:
	blr	x3
.LEHE8:
	ldr	x0, [sp, 64]
	mov	x1, x19
	add	x0, x0, 40
	bl	_ZN4asio6detail28reactive_socket_service_base7destroyERNS1_24base_implementation_typeE
	adrp	x0, :got:__stack_chk_guard
	ldr	x0, [x0, #:got_lo12:__stack_chk_guard]
	ldr	x2, [sp, 72]
	ldr	x1, [x0]
	subs	x2, x2, x1
	mov	x1, 0
	bne	.L382
	ldr	x19, [sp, 16]
	ldp	x29, x30, [sp], 80
	.cfi_remember_state
	.cfi_restore 30
	.cfi_restore 29
	.cfi_restore 19
	.cfi_def_cfa_offset 0
	ret
.L381:
	.cfi_restore_state
	add	x19, sp, 40
.LEHB9:
	bl	_ZSt25__throw_bad_function_callv
.LEHE9:
.L382:
	bl	__stack_chk_fail
.L378:
	ldr	x2, [sp, 64]
	mov	x1, x19
	mov	x19, x0
	add	x0, x2, 40
	bl	_ZN4asio6detail28reactive_socket_service_base7destroyERNS1_24base_implementation_typeE
	mov	x0, x19
.LEHB10:
	bl	_Unwind_Resume
.LEHE10:
	.cfi_endproc
.LFE7746:
	.section	.gcc_except_table,"a",@progbits
.LLSDA7746:
	.byte	0xff
	.byte	0xff
	.byte	0x1
	.uleb128 .LLSDACSE7746-.LLSDACSB7746
.LLSDACSB7746:
	.uleb128 .LEHB8-.LFB7746
	.uleb128 .LEHE8-.LEHB8
	.uleb128 .L378-.LFB7746
	.uleb128 0
	.uleb128 .LEHB9-.LFB7746
	.uleb128 .LEHE9-.LEHB9
	.uleb128 .L378-.LFB7746
	.uleb128 0
	.uleb128 .LEHB10-.LFB7746
	.uleb128 .LEHE10-.LEHB10
	.uleb128 0
	.uleb128 0
.LLSDACSE7746:
	.text
	.size	_ZN8asiodnp318TCPServerIOHandler6Server16AcceptConnectionEmRKSt10shared_ptrIN7asiopal8ExecutorEEN4asio19basic_stream_socketINS8_2ip3tcpENS8_21stream_socket_serviceISB_EEEE, .-_ZN8asiodnp318TCPServerIOHandler6Server16AcceptConnectionEmRKSt10shared_ptrIN7asiopal8ExecutorEEN4asio19basic_stream_socketINS8_2ip3tcpENS8_21stream_socket_serviceISB_EEEE
	.section	.text._ZNSt23_Sp_counted_ptr_inplaceIN7asiopal13SocketChannelESaIS1_ELN9__gnu_cxx12_Lock_policyE2EE10_M_disposeEv,"axG",@progbits,_ZNSt23_Sp_counted_ptr_inplaceIN7asiopal13SocketChannelESaIS1_ELN9__gnu_cxx12_Lock_policyE2EE10_M_disposeEv,comdat
	.align	2
	.p2align 4,,11
	.weak	_ZNSt23_Sp_counted_ptr_inplaceIN7asiopal13SocketChannelESaIS1_ELN9__gnu_cxx12_Lock_policyE2EE10_M_disposeEv
	.type	_ZNSt23_Sp_counted_ptr_inplaceIN7asiopal13SocketChannelESaIS1_ELN9__gnu_cxx12_Lock_policyE2EE10_M_disposeEv, %function
_ZNSt23_Sp_counted_ptr_inplaceIN7asiopal13SocketChannelESaIS1_ELN9__gnu_cxx12_Lock_policyE2EE10_M_disposeEv:
.LFB10529:
	.cfi_startproc
	.cfi_personality 0x9b,DW.ref.__gxx_personality_v0
	.cfi_lsda 0x1b,.LLSDA10529
	stp	x29, x30, [sp, -48]!
	.cfi_def_cfa_offset 48
	.cfi_offset 29, -48
	.cfi_offset 30, -40
	adrp	x2, :got:_ZTVN7asiopal13SocketChannelE
	add	x1, x0, 80
	mov	x29, sp
	ldr	x2, [x2, #:got_lo12:_ZTVN7asiopal13SocketChannelE]
	stp	x19, x20, [sp, 16]
	.cfi_offset 19, -32
	.cfi_offset 20, -24
	mov	x19, x0
	add	x2, x2, 16
	ldr	x0, [x1, 24]
	str	x21, [sp, 32]
	.cfi_offset 21, -16
	str	x2, [x19, 16]
	add	x0, x0, 40
	bl	_ZN4asio6detail28reactive_socket_service_base7destroyERNS1_24base_implementation_typeE
	adrp	x0, :got:_ZTVN7asiopal13IAsyncChannelE
	ldr	x20, [x19, 64]
	ldr	x0, [x0, #:got_lo12:_ZTVN7asiopal13IAsyncChannelE]
	add	x0, x0, 16
	str	x0, [x19, 16]
	cbz	x20, .L385
	adrp	x21, :got:__libc_single_threaded
	ldr	x0, [x21, #:got_lo12:__libc_single_threaded]
	ldrb	w0, [x0]
	cbz	w0, .L386
	ldr	w0, [x20, 8]
	sub	w1, w0, #1
	str	w1, [x20, 8]
.L387:
	cmp	w0, 1
	beq	.L404
.L385:
	ldr	x20, [x19, 48]
	cbz	x20, .L392
	adrp	x21, :got:__libc_single_threaded
	ldr	x0, [x21, #:got_lo12:__libc_single_threaded]
	ldrb	w0, [x0]
	cbz	w0, .L393
	ldr	w0, [x20, 8]
	sub	w1, w0, #1
	str	w1, [x20, 8]
.L394:
	cmp	w0, 1
	beq	.L405
.L392:
	ldr	x19, [x19, 32]
	cbz	x19, .L383
	adrp	x0, :got:__libc_single_threaded
	ldr	x0, [x0, #:got_lo12:__libc_single_threaded]
	ldrb	w0, [x0]
	cbz	w0, .L400
	ldr	w0, [x19, 12]
	sub	w1, w0, #1
	str	w1, [x19, 12]
.L401:
	cmp	w0, 1
	beq	.L406
.L383:
	ldp	x19, x20, [sp, 16]
	ldr	x21, [sp, 32]
	ldp	x29, x30, [sp], 48
	.cfi_remember_state
	.cfi_restore 30
	.cfi_restore 29
	.cfi_restore 21
	.cfi_restore 19
	.cfi_restore 20
	.cfi_def_cfa_offset 0
	ret
	.p2align 2,,3
.L404:
	.cfi_restore_state
	ldr	x1, [x20]
	mov	x0, x20
	ldr	x1, [x1, 16]
	blr	x1
	ldr	x21, [x21, #:got_lo12:__libc_single_threaded]
	ldrb	w0, [x21]
	cbz	w0, .L389
	ldr	w0, [x20, 12]
	sub	w1, w0, #1
	str	w1, [x20, 12]
.L390:
	cmp	w0, 1
	bne	.L385
	ldr	x1, [x20]
	mov	x0, x20
	ldr	x1, [x1, 24]
	blr	x1
	b	.L385
	.p2align 2,,3
.L405:
	ldr	x1, [x20]
	mov	x0, x20
	ldr	x1, [x1, 16]
	blr	x1
	ldr	x21, [x21, #:got_lo12:__libc_single_threaded]
	ldrb	w0, [x21]
	cbz	w0, .L396
	ldr	w0, [x20, 12]
	sub	w1, w0, #1
	str	w1, [x20, 12]
.L397:
	cmp	w0, 1
	bne	.L392
	ldr	x1, [x20]
	mov	x0, x20
	ldr	x1, [x1, 24]
	blr	x1
	b	.L392
	.p2align 2,,3
.L406:
	ldr	x1, [x19]
	mov	x0, x19
	ldp	x19, x20, [sp, 16]
	ldr	x21, [sp, 32]
	ldp	x29, x30, [sp], 48
	.cfi_remember_state
	.cfi_restore 30
	.cfi_restore 29
	.cfi_restore 21
	.cfi_restore 19
	.cfi_restore 20
	.cfi_def_cfa_offset 0
	ldr	x1, [x1, 24]
	mov	x16, x1
	br	x16
	.p2align 2,,3
.L393:
	.cfi_restore_state
	add	x1, x20, 8
	mov	w0, -1
	bl	__aarch64_ldadd4_acq_rel
	b	.L394
	.p2align 2,,3
.L400:
	add	x1, x19, 12
	mov	w0, -1
	bl	__aarch64_ldadd4_acq_rel
	b	.L401
	.p2align 2,,3
.L386:
	add	x1, x20, 8
	mov	w0, -1
	bl	__aarch64_ldadd4_acq_rel
	b	.L387
	.p2align 2,,3
.L389:
	add	x1, x20, 12
	mov	w0, -1
	bl	__aarch64_ldadd4_acq_rel
	b	.L390
	.p2align 2,,3
.L396:
	add	x1, x20, 12
	mov	w0, -1
	bl	__aarch64_ldadd4_acq_rel
	b	.L397
	.cfi_endproc
.LFE10529:
	.section	.gcc_except_table
.LLSDA10529:
	.byte	0xff
	.byte	0xff
	.byte	0x1
	.uleb128 .LLSDACSE10529-.LLSDACSB10529
.LLSDACSB10529:
.LLSDACSE10529:
	.section	.text._ZNSt23_Sp_counted_ptr_inplaceIN7asiopal13SocketChannelESaIS1_ELN9__gnu_cxx12_Lock_policyE2EE10_M_disposeEv,"axG",@progbits,_ZNSt23_Sp_counted_ptr_inplaceIN7asiopal13SocketChannelESaIS1_ELN9__gnu_cxx12_Lock_policyE2EE10_M_disposeEv,comdat
	.size	_ZNSt23_Sp_counted_ptr_inplaceIN7asiopal13SocketChannelESaIS1_ELN9__gnu_cxx12_Lock_policyE2EE10_M_disposeEv, .-_ZNSt23_Sp_counted_ptr_inplaceIN7asiopal13SocketChannelESaIS1_ELN9__gnu_cxx12_Lock_policyE2EE10_M_disposeEv
	.section	.text._ZNSt23_Sp_counted_ptr_inplaceIN8asiodnp318TCPServerIOHandler6ServerESaIS2_ELN9__gnu_cxx12_Lock_policyE2EE10_M_disposeEv,"axG",@progbits,_ZNSt23_Sp_counted_ptr_inplaceIN8asiodnp318TCPServerIOHandler6ServerESaIS2_ELN9__gnu_cxx12_Lock_policyE2EE10_M_disposeEv,comdat
	.align	2
	.p2align 4,,11
	.weak	_ZNSt23_Sp_counted_ptr_inplaceIN8asiodnp318TCPServerIOHandler6ServerESaIS2_ELN9__gnu_cxx12_Lock_policyE2EE10_M_disposeEv
	.type	_ZNSt23_Sp_counted_ptr_inplaceIN8asiodnp318TCPServerIOHandler6ServerESaIS2_ELN9__gnu_cxx12_Lock_policyE2EE10_M_disposeEv, %function
_ZNSt23_Sp_counted_ptr_inplaceIN8asiodnp318TCPServerIOHandler6ServerESaIS2_ELN9__gnu_cxx12_Lock_policyE2EE10_M_disposeEv:
.LFB10522:
	.cfi_startproc
	.cfi_personality 0x9b,DW.ref.__gxx_personality_v0
	.cfi_lsda 0x1b,.LLSDA10522
	stp	x29, x30, [sp, -48]!
	.cfi_def_cfa_offset 48
	.cfi_offset 29, -48
	.cfi_offset 30, -40
	add	x1, x0, 224
	adrp	x2, :got:_ZTVN8asiodnp318TCPServerIOHandler6ServerE
	mov	x29, sp
	ldr	x2, [x2, #:got_lo12:_ZTVN8asiodnp318TCPServerIOHandler6ServerE]
	stp	x19, x20, [sp, 16]
	.cfi_offset 19, -32
	.cfi_offset 20, -24
	mov	x19, x0
	ldr	x3, [x1, 16]
	str	x21, [sp, 32]
	.cfi_offset 21, -16
	add	x2, x2, 16
	str	x2, [x0, 16]
	cbz	x3, .L408
	mov	x0, x1
	mov	w2, 3
	blr	x3
.L408:
	adrp	x2, :got:_ZTVN7asiopal9TCPServerE
	add	x1, x19, 152
	ldr	x0, [x1, 24]
	ldr	x2, [x2, #:got_lo12:_ZTVN7asiopal9TCPServerE]
	add	x0, x0, 40
	add	x2, x2, 16
	str	x2, [x19, 16]
	bl	_ZN4asio6detail28reactive_socket_service_base7destroyERNS1_24base_implementation_typeE
	ldr	x0, [x19, 144]
	add	x1, x19, 120
	add	x0, x0, 40
	bl	_ZN4asio6detail28reactive_socket_service_base7destroyERNS1_24base_implementation_typeE
	ldr	x21, [x19, 80]
	cbz	x21, .L410
	adrp	x20, :got:__libc_single_threaded
	ldr	x0, [x20, #:got_lo12:__libc_single_threaded]
	ldrb	w0, [x0]
	cbz	w0, .L411
	ldr	w0, [x21, 8]
	sub	w1, w0, #1
	str	w1, [x21, 8]
.L412:
	cmp	w0, 1
	beq	.L439
.L410:
	ldr	x21, [x19, 64]
	cbz	x21, .L417
	adrp	x20, :got:__libc_single_threaded
	ldr	x0, [x20, #:got_lo12:__libc_single_threaded]
	ldrb	w0, [x0]
	cbz	w0, .L418
	ldr	w0, [x21, 8]
	sub	w1, w0, #1
	str	w1, [x21, 8]
.L419:
	cmp	w0, 1
	beq	.L440
.L417:
	ldr	x21, [x19, 48]
	cbz	x21, .L424
	adrp	x20, :got:__libc_single_threaded
	ldr	x0, [x20, #:got_lo12:__libc_single_threaded]
	ldrb	w0, [x0]
	cbz	w0, .L425
	ldr	w0, [x21, 8]
	sub	w1, w0, #1
	str	w1, [x21, 8]
.L426:
	cmp	w0, 1
	beq	.L441
.L424:
	ldr	x19, [x19, 32]
	cbz	x19, .L407
	adrp	x0, :got:__libc_single_threaded
	ldr	x0, [x0, #:got_lo12:__libc_single_threaded]
	ldrb	w0, [x0]
	cbz	w0, .L432
	ldr	w0, [x19, 12]
	sub	w1, w0, #1
	str	w1, [x19, 12]
.L433:
	cmp	w0, 1
	beq	.L442
.L407:
	ldp	x19, x20, [sp, 16]
	ldr	x21, [sp, 32]
	ldp	x29, x30, [sp], 48
	.cfi_remember_state
	.cfi_restore 30
	.cfi_restore 29
	.cfi_restore 21
	.cfi_restore 19
	.cfi_restore 20
	.cfi_def_cfa_offset 0
	ret
	.p2align 2,,3
.L439:
	.cfi_restore_state
	ldr	x1, [x21]
	mov	x0, x21
	ldr	x1, [x1, 16]
	blr	x1
	ldr	x20, [x20, #:got_lo12:__libc_single_threaded]
	ldrb	w0, [x20]
	cbz	w0, .L414
	ldr	w0, [x21, 12]
	sub	w1, w0, #1
	str	w1, [x21, 12]
.L415:
	cmp	w0, 1
	bne	.L410
	ldr	x1, [x21]
	mov	x0, x21
	ldr	x1, [x1, 24]
	blr	x1
	b	.L410
	.p2align 2,,3
.L440:
	ldr	x1, [x21]
	mov	x0, x21
	ldr	x1, [x1, 16]
	blr	x1
	ldr	x20, [x20, #:got_lo12:__libc_single_threaded]
	ldrb	w0, [x20]
	cbz	w0, .L421
	ldr	w0, [x21, 12]
	sub	w1, w0, #1
	str	w1, [x21, 12]
.L422:
	cmp	w0, 1
	bne	.L417
	ldr	x1, [x21]
	mov	x0, x21
	ldr	x1, [x1, 24]
	blr	x1
	b	.L417
	.p2align 2,,3
.L441:
	ldr	x1, [x21]
	mov	x0, x21
	ldr	x1, [x1, 16]
	blr	x1
	ldr	x20, [x20, #:got_lo12:__libc_single_threaded]
	ldrb	w0, [x20]
	cbz	w0, .L428
	ldr	w0, [x21, 12]
	sub	w1, w0, #1
	str	w1, [x21, 12]
.L429:
	cmp	w0, 1
	bne	.L424
	ldr	x1, [x21]
	mov	x0, x21
	ldr	x1, [x1, 24]
	blr	x1
	b	.L424
	.p2align 2,,3
.L442:
	ldr	x1, [x19]
	mov	x0, x19
	ldp	x19, x20, [sp, 16]
	ldr	x21, [sp, 32]
	ldp	x29, x30, [sp], 48
	.cfi_remember_state
	.cfi_restore 30
	.cfi_restore 29
	.cfi_restore 21
	.cfi_restore 19
	.cfi_restore 20
	.cfi_def_cfa_offset 0
	ldr	x1, [x1, 24]
	mov	x16, x1
	br	x16
	.p2align 2,,3
.L418:
	.cfi_restore_state
	add	x1, x21, 8
	mov	w0, -1
	bl	__aarch64_ldadd4_acq_rel
	b	.L419
	.p2align 2,,3
.L425:
	add	x1, x21, 8
	mov	w0, -1
	bl	__aarch64_ldadd4_acq_rel
	b	.L426
	.p2align 2,,3
.L432:
	add	x1, x19, 12
	mov	w0, -1
	bl	__aarch64_ldadd4_acq_rel
	b	.L433
	.p2align 2,,3
.L411:
	add	x1, x21, 8
	mov	w0, -1
	bl	__aarch64_ldadd4_acq_rel
	b	.L412
	.p2align 2,,3
.L414:
	add	x1, x21, 12
	mov	w0, -1
	bl	__aarch64_ldadd4_acq_rel
	b	.L415
	.p2align 2,,3
.L421:
	add	x1, x21, 12
	mov	w0, -1
	bl	__aarch64_ldadd4_acq_rel
	b	.L422
	.p2align 2,,3
.L428:
	add	x1, x21, 12
	mov	w0, -1
	bl	__aarch64_ldadd4_acq_rel
	b	.L429
	.cfi_endproc
.LFE10522:
	.section	.gcc_except_table
.LLSDA10522:
	.byte	0xff
	.byte	0xff
	.byte	0x1
	.uleb128 .LLSDACSE10522-.LLSDACSB10522
.LLSDACSB10522:
.LLSDACSE10522:
	.section	.text._ZNSt23_Sp_counted_ptr_inplaceIN8asiodnp318TCPServerIOHandler6ServerESaIS2_ELN9__gnu_cxx12_Lock_policyE2EE10_M_disposeEv,"axG",@progbits,_ZNSt23_Sp_counted_ptr_inplaceIN8asiodnp318TCPServerIOHandler6ServerESaIS2_ELN9__gnu_cxx12_Lock_policyE2EE10_M_disposeEv,comdat
	.size	_ZNSt23_Sp_counted_ptr_inplaceIN8asiodnp318TCPServerIOHandler6ServerESaIS2_ELN9__gnu_cxx12_Lock_policyE2EE10_M_disposeEv, .-_ZNSt23_Sp_counted_ptr_inplaceIN8asiodnp318TCPServerIOHandler6ServerESaIS2_ELN9__gnu_cxx12_Lock_policyE2EE10_M_disposeEv
	.section	.text._ZN8asiodnp318TCPServerIOHandler6ServerD2Ev,"axG",@progbits,_ZN8asiodnp318TCPServerIOHandler6ServerD5Ev,comdat
	.align	2
	.p2align 4,,11
	.weak	_ZN8asiodnp318TCPServerIOHandler6ServerD2Ev
	.type	_ZN8asiodnp318TCPServerIOHandler6ServerD2Ev, %function
_ZN8asiodnp318TCPServerIOHandler6ServerD2Ev:
.LFB10431:
	.cfi_startproc
	.cfi_personality 0x9b,DW.ref.__gxx_personality_v0
	.cfi_lsda 0x1b,.LLSDA10431
	stp	x29, x30, [sp, -48]!
	.cfi_def_cfa_offset 48
	.cfi_offset 29, -48
	.cfi_offset 30, -40
	adrp	x2, :got:_ZTVN8asiodnp318TCPServerIOHandler6ServerE
	mov	x1, x0
	mov	x29, sp
	ldr	x2, [x2, #:got_lo12:_ZTVN8asiodnp318TCPServerIOHandler6ServerE]
	stp	x19, x20, [sp, 16]
	.cfi_offset 19, -32
	.cfi_offset 20, -24
	mov	x19, x0
	str	x21, [sp, 32]
	.cfi_offset 21, -16
	add	x2, x2, 16
	str	x2, [x1], 208
	ldr	x3, [x1, 16]
	cbz	x3, .L444
	mov	x0, x1
	mov	w2, 3
	blr	x3
.L444:
	adrp	x0, :got:_ZTVN7asiopal9TCPServerE
	mov	x1, x19
	ldr	x0, [x0, #:got_lo12:_ZTVN7asiopal9TCPServerE]
	add	x0, x0, 16
	str	x0, [x1], 136
	ldr	x0, [x1, 24]
	add	x0, x0, 40
	bl	_ZN4asio6detail28reactive_socket_service_base7destroyERNS1_24base_implementation_typeE
	ldr	x0, [x19, 128]
	add	x1, x19, 104
	add	x0, x0, 40
	bl	_ZN4asio6detail28reactive_socket_service_base7destroyERNS1_24base_implementation_typeE
	ldr	x21, [x19, 64]
	cbz	x21, .L446
	adrp	x20, :got:__libc_single_threaded
	ldr	x0, [x20, #:got_lo12:__libc_single_threaded]
	ldrb	w0, [x0]
	cbz	w0, .L447
	ldr	w0, [x21, 8]
	sub	w1, w0, #1
	str	w1, [x21, 8]
.L448:
	cmp	w0, 1
	beq	.L475
.L446:
	ldr	x21, [x19, 48]
	cbz	x21, .L453
	adrp	x20, :got:__libc_single_threaded
	ldr	x0, [x20, #:got_lo12:__libc_single_threaded]
	ldrb	w0, [x0]
	cbz	w0, .L454
	ldr	w0, [x21, 8]
	sub	w1, w0, #1
	str	w1, [x21, 8]
.L455:
	cmp	w0, 1
	beq	.L476
.L453:
	ldr	x21, [x19, 32]
	cbz	x21, .L460
	adrp	x20, :got:__libc_single_threaded
	ldr	x0, [x20, #:got_lo12:__libc_single_threaded]
	ldrb	w0, [x0]
	cbz	w0, .L461
	ldr	w0, [x21, 8]
	sub	w1, w0, #1
	str	w1, [x21, 8]
.L462:
	cmp	w0, 1
	beq	.L477
.L460:
	ldr	x19, [x19, 16]
	cbz	x19, .L443
	adrp	x0, :got:__libc_single_threaded
	ldr	x0, [x0, #:got_lo12:__libc_single_threaded]
	ldrb	w0, [x0]
	cbz	w0, .L468
	ldr	w0, [x19, 12]
	sub	w1, w0, #1
	str	w1, [x19, 12]
.L469:
	cmp	w0, 1
	beq	.L478
.L443:
	ldp	x19, x20, [sp, 16]
	ldr	x21, [sp, 32]
	ldp	x29, x30, [sp], 48
	.cfi_remember_state
	.cfi_restore 30
	.cfi_restore 29
	.cfi_restore 21
	.cfi_restore 19
	.cfi_restore 20
	.cfi_def_cfa_offset 0
	ret
	.p2align 2,,3
.L475:
	.cfi_restore_state
	ldr	x1, [x21]
	mov	x0, x21
	ldr	x1, [x1, 16]
	blr	x1
	ldr	x20, [x20, #:got_lo12:__libc_single_threaded]
	ldrb	w0, [x20]
	cbz	w0, .L450
	ldr	w0, [x21, 12]
	sub	w1, w0, #1
	str	w1, [x21, 12]
.L451:
	cmp	w0, 1
	bne	.L446
	ldr	x1, [x21]
	mov	x0, x21
	ldr	x1, [x1, 24]
	blr	x1
	b	.L446
	.p2align 2,,3
.L476:
	ldr	x1, [x21]
	mov	x0, x21
	ldr	x1, [x1, 16]
	blr	x1
	ldr	x20, [x20, #:got_lo12:__libc_single_threaded]
	ldrb	w0, [x20]
	cbz	w0, .L457
	ldr	w0, [x21, 12]
	sub	w1, w0, #1
	str	w1, [x21, 12]
.L458:
	cmp	w0, 1
	bne	.L453
	ldr	x1, [x21]
	mov	x0, x21
	ldr	x1, [x1, 24]
	blr	x1
	b	.L453
	.p2align 2,,3
.L477:
	ldr	x1, [x21]
	mov	x0, x21
	ldr	x1, [x1, 16]
	blr	x1
	ldr	x20, [x20, #:got_lo12:__libc_single_threaded]
	ldrb	w0, [x20]
	cbz	w0, .L464
	ldr	w0, [x21, 12]
	sub	w1, w0, #1
	str	w1, [x21, 12]
.L465:
	cmp	w0, 1
	bne	.L460
	ldr	x1, [x21]
	mov	x0, x21
	ldr	x1, [x1, 24]
	blr	x1
	b	.L460
	.p2align 2,,3
.L478:
	ldr	x1, [x19]
	mov	x0, x19
	ldp	x19, x20, [sp, 16]
	ldr	x21, [sp, 32]
	ldp	x29, x30, [sp], 48
	.cfi_remember_state
	.cfi_restore 30
	.cfi_restore 29
	.cfi_restore 21
	.cfi_restore 19
	.cfi_restore 20
	.cfi_def_cfa_offset 0
	ldr	x1, [x1, 24]
	mov	x16, x1
	br	x16
	.p2align 2,,3
.L454:
	.cfi_restore_state
	add	x1, x21, 8
	mov	w0, -1
	bl	__aarch64_ldadd4_acq_rel
	b	.L455
	.p2align 2,,3
.L461:
	add	x1, x21, 8
	mov	w0, -1
	bl	__aarch64_ldadd4_acq_rel
	b	.L462
	.p2align 2,,3
.L468:
	add	x1, x19, 12
	mov	w0, -1
	bl	__aarch64_ldadd4_acq_rel
	b	.L469
	.p2align 2,,3
.L447:
	add	x1, x21, 8
	mov	w0, -1
	bl	__aarch64_ldadd4_acq_rel
	b	.L448
	.p2align 2,,3
.L450:
	add	x1, x21, 12
	mov	w0, -1
	bl	__aarch64_ldadd4_acq_rel
	b	.L451
	.p2align 2,,3
.L457:
	add	x1, x21, 12
	mov	w0, -1
	bl	__aarch64_ldadd4_acq_rel
	b	.L458
	.p2align 2,,3
.L464:
	add	x1, x21, 12
	mov	w0, -1
	bl	__aarch64_ldadd4_acq_rel
	b	.L465
	.cfi_endproc
.LFE10431:
	.section	.gcc_except_table
.LLSDA10431:
	.byte	0xff
	.byte	0xff
	.byte	0x1
	.uleb128 .LLSDACSE10431-.LLSDACSB10431
.LLSDACSB10431:
.LLSDACSE10431:
	.section	.text._ZN8asiodnp318TCPServerIOHandler6ServerD2Ev,"axG",@progbits,_ZN8asiodnp318TCPServerIOHandler6ServerD5Ev,comdat
	.size	_ZN8asiodnp318TCPServerIOHandler6ServerD2Ev, .-_ZN8asiodnp318TCPServerIOHandler6ServerD2Ev
	.weak	_ZN8asiodnp318TCPServerIOHandler6ServerD1Ev
	.set	_ZN8asiodnp318TCPServerIOHandler6ServerD1Ev,_ZN8asiodnp318TCPServerIOHandler6ServerD2Ev
	.section	.text._ZN8asiodnp318TCPServerIOHandler6ServerD0Ev,"axG",@progbits,_ZN8asiodnp318TCPServerIOHandler6ServerD5Ev,comdat
	.align	2
	.p2align 4,,11
	.weak	_ZN8asiodnp318TCPServerIOHandler6ServerD0Ev
	.type	_ZN8asiodnp318TCPServerIOHandler6ServerD0Ev, %function
_ZN8asiodnp318TCPServerIOHandler6ServerD0Ev:
.LFB10433:
	.cfi_startproc
	.cfi_personality 0x9b,DW.ref.__gxx_personality_v0
	.cfi_lsda 0x1b,.LLSDA10433
	stp	x29, x30, [sp, -48]!
	.cfi_def_cfa_offset 48
	.cfi_offset 29, -48
	.cfi_offset 30, -40
	adrp	x2, :got:_ZTVN8asiodnp318TCPServerIOHandler6ServerE
	mov	x1, x0
	mov	x29, sp
	ldr	x2, [x2, #:got_lo12:_ZTVN8asiodnp318TCPServerIOHandler6ServerE]
	stp	x19, x20, [sp, 16]
	.cfi_offset 19, -32
	.cfi_offset 20, -24
	mov	x19, x0
	str	x21, [sp, 32]
	.cfi_offset 21, -16
	add	x2, x2, 16
	str	x2, [x1], 208
	ldr	x3, [x1, 16]
	cbz	x3, .L480
	mov	x0, x1
	mov	w2, 3
	blr	x3
.L480:
	adrp	x0, :got:_ZTVN7asiopal9TCPServerE
	mov	x1, x19
	ldr	x0, [x0, #:got_lo12:_ZTVN7asiopal9TCPServerE]
	add	x0, x0, 16
	str	x0, [x1], 136
	ldr	x0, [x1, 24]
	add	x0, x0, 40
	bl	_ZN4asio6detail28reactive_socket_service_base7destroyERNS1_24base_implementation_typeE
	ldr	x0, [x19, 128]
	add	x1, x19, 104
	add	x0, x0, 40
	bl	_ZN4asio6detail28reactive_socket_service_base7destroyERNS1_24base_implementation_typeE
	ldr	x21, [x19, 64]
	cbz	x21, .L482
	adrp	x20, :got:__libc_single_threaded
	ldr	x0, [x20, #:got_lo12:__libc_single_threaded]
	ldrb	w0, [x0]
	cbz	w0, .L483
	ldr	w0, [x21, 8]
	sub	w1, w0, #1
	str	w1, [x21, 8]
.L484:
	cmp	w0, 1
	beq	.L511
.L482:
	ldr	x21, [x19, 48]
	cbz	x21, .L489
	adrp	x20, :got:__libc_single_threaded
	ldr	x0, [x20, #:got_lo12:__libc_single_threaded]
	ldrb	w0, [x0]
	cbz	w0, .L490
	ldr	w0, [x21, 8]
	sub	w1, w0, #1
	str	w1, [x21, 8]
.L491:
	cmp	w0, 1
	beq	.L512
.L489:
	ldr	x21, [x19, 32]
	cbz	x21, .L496
	adrp	x20, :got:__libc_single_threaded
	ldr	x0, [x20, #:got_lo12:__libc_single_threaded]
	ldrb	w0, [x0]
	cbz	w0, .L497
	ldr	w0, [x21, 8]
	sub	w1, w0, #1
	str	w1, [x21, 8]
.L498:
	cmp	w0, 1
	beq	.L513
.L496:
	ldr	x20, [x19, 16]
	cbz	x20, .L503
	adrp	x0, :got:__libc_single_threaded
	ldr	x0, [x0, #:got_lo12:__libc_single_threaded]
	ldrb	w0, [x0]
	cbz	w0, .L504
	ldr	w0, [x20, 12]
	sub	w1, w0, #1
	str	w1, [x20, 12]
.L505:
	cmp	w0, 1
	beq	.L514
.L503:
	mov	x0, x19
	mov	x1, 240
	ldp	x19, x20, [sp, 16]
	ldr	x21, [sp, 32]
	ldp	x29, x30, [sp], 48
	.cfi_remember_state
	.cfi_restore 30
	.cfi_restore 29
	.cfi_restore 21
	.cfi_restore 19
	.cfi_restore 20
	.cfi_def_cfa_offset 0
	b	_ZdlPvm
	.p2align 2,,3
.L511:
	.cfi_restore_state
	ldr	x1, [x21]
	mov	x0, x21
	ldr	x1, [x1, 16]
	blr	x1
	ldr	x20, [x20, #:got_lo12:__libc_single_threaded]
	ldrb	w0, [x20]
	cbz	w0, .L486
	ldr	w0, [x21, 12]
	sub	w1, w0, #1
	str	w1, [x21, 12]
.L487:
	cmp	w0, 1
	bne	.L482
	ldr	x1, [x21]
	mov	x0, x21
	ldr	x1, [x1, 24]
	blr	x1
	b	.L482
	.p2align 2,,3
.L512:
	ldr	x1, [x21]
	mov	x0, x21
	ldr	x1, [x1, 16]
	blr	x1
	ldr	x20, [x20, #:got_lo12:__libc_single_threaded]
	ldrb	w0, [x20]
	cbz	w0, .L493
	ldr	w0, [x21, 12]
	sub	w1, w0, #1
	str	w1, [x21, 12]
.L494:
	cmp	w0, 1
	bne	.L489
	ldr	x1, [x21]
	mov	x0, x21
	ldr	x1, [x1, 24]
	blr	x1
	b	.L489
	.p2align 2,,3
.L513:
	ldr	x1, [x21]
	mov	x0, x21
	ldr	x1, [x1, 16]
	blr	x1
	ldr	x20, [x20, #:got_lo12:__libc_single_threaded]
	ldrb	w0, [x20]
	cbz	w0, .L500
	ldr	w0, [x21, 12]
	sub	w1, w0, #1
	str	w1, [x21, 12]
.L501:
	cmp	w0, 1
	bne	.L496
	ldr	x1, [x21]
	mov	x0, x21
	ldr	x1, [x1, 24]
	blr	x1
	b	.L496
	.p2align 2,,3
.L514:
	ldr	x1, [x20]
	mov	x0, x20
	ldr	x1, [x1, 24]
	blr	x1
	mov	x0, x19
	mov	x1, 240
	ldp	x19, x20, [sp, 16]
	ldr	x21, [sp, 32]
	ldp	x29, x30, [sp], 48
	.cfi_remember_state
	.cfi_restore 30
	.cfi_restore 29
	.cfi_restore 21
	.cfi_restore 19
	.cfi_restore 20
	.cfi_def_cfa_offset 0
	b	_ZdlPvm
	.p2align 2,,3
.L490:
	.cfi_restore_state
	add	x1, x21, 8
	mov	w0, -1
	bl	__aarch64_ldadd4_acq_rel
	b	.L491
	.p2align 2,,3
.L497:
	add	x1, x21, 8
	mov	w0, -1
	bl	__aarch64_ldadd4_acq_rel
	b	.L498
	.p2align 2,,3
.L504:
	add	x1, x20, 12
	mov	w0, -1
	bl	__aarch64_ldadd4_acq_rel
	b	.L505
	.p2align 2,,3
.L483:
	add	x1, x21, 8
	mov	w0, -1
	bl	__aarch64_ldadd4_acq_rel
	b	.L484
	.p2align 2,,3
.L486:
	add	x1, x21, 12
	mov	w0, -1
	bl	__aarch64_ldadd4_acq_rel
	b	.L487
	.p2align 2,,3
.L493:
	add	x1, x21, 12
	mov	w0, -1
	bl	__aarch64_ldadd4_acq_rel
	b	.L494
	.p2align 2,,3
.L500:
	add	x1, x21, 12
	mov	w0, -1
	bl	__aarch64_ldadd4_acq_rel
	b	.L501
	.cfi_endproc
.LFE10433:
	.section	.gcc_except_table
.LLSDA10433:
	.byte	0xff
	.byte	0xff
	.byte	0x1
	.uleb128 .LLSDACSE10433-.LLSDACSB10433
.LLSDACSB10433:
.LLSDACSE10433:
	.section	.text._ZN8asiodnp318TCPServerIOHandler6ServerD0Ev,"axG",@progbits,_ZN8asiodnp318TCPServerIOHandler6ServerD5Ev,comdat
	.size	_ZN8asiodnp318TCPServerIOHandler6ServerD0Ev, .-_ZN8asiodnp318TCPServerIOHandler6ServerD0Ev
	.section	.text._ZN8asiodnp39IOHandlerD2Ev,"axG",@progbits,_ZN8asiodnp39IOHandlerD5Ev,comdat
	.align	2
	.p2align 4,,11
	.weak	_ZN8asiodnp39IOHandlerD2Ev
	.type	_ZN8asiodnp39IOHandlerD2Ev, %function
_ZN8asiodnp39IOHandlerD2Ev:
.LFB7647:
	.cfi_startproc
	stp	x29, x30, [sp, -112]!
	.cfi_def_cfa_offset 112
	.cfi_offset 29, -112
	.cfi_offset 30, -104
	adrp	x1, :got:_ZTVN8asiodnp39IOHandlerE
	adrp	x2, :got:_ZTVN8opendnp317MultidropTaskLockE
	mov	x29, sp
	ldr	x1, [x1, #:got_lo12:_ZTVN8asiodnp39IOHandlerE]
	stp	x23, x24, [sp, 48]
	.cfi_offset 23, -64
	.cfi_offset 24, -56
	mov	x23, x0
	ldr	x2, [x2, #:got_lo12:_ZTVN8opendnp317MultidropTaskLockE]
	stp	x21, x22, [sp, 32]
	.cfi_offset 21, -80
	.cfi_offset 22, -72
	add	x21, x0, 712
	ldr	x0, [x0, 712]
	stp	x19, x20, [sp, 16]
	add	x3, x1, 16
	stp	x25, x26, [sp, 64]
	add	x1, x1, 104
	add	x2, x2, 16
	stp	x3, x1, [x23]
	str	x2, [x23, 648]
	.cfi_offset 19, -96
	.cfi_offset 20, -88
	.cfi_offset 25, -48
	.cfi_offset 26, -40
	cbz	x0, .L516
	ldr	x20, [x21, 72]
	ldr	x19, [x21, 40]
	add	x20, x20, 8
	cmp	x19, x20
	bcs	.L517
	.p2align 3,,7
.L518:
	ldr	x0, [x19], 8
	mov	x1, 512
	bl	_ZdlPvm
	cmp	x20, x19
	bhi	.L518
	ldr	x0, [x23, 712]
.L517:
	ldr	x1, [x21, 8]
	lsl	x1, x1, 3
	bl	_ZdlPvm
.L516:
	ldr	x19, [x23, 680]
	cbz	x19, .L522
.L519:
	ldr	x0, [x19, 24]
	bl	_ZNSt8_Rb_treeIPN8opendnp317IScheduleCallbackES2_St9_IdentityIS2_ESt4lessIS2_ESaIS2_EE8_M_eraseEPSt13_Rb_tree_nodeIS2_E.isra.0
	mov	x0, x19
	mov	x1, 40
	ldr	x19, [x19, 16]
	bl	_ZdlPvm
	cbnz	x19, .L519
.L522:
	ldr	x20, [x23, 640]
	cbz	x20, .L523
	adrp	x19, :got:__libc_single_threaded
	ldr	x0, [x19, #:got_lo12:__libc_single_threaded]
	ldrb	w0, [x0]
	cbz	w0, .L524
	ldr	w0, [x20, 8]
	sub	w1, w0, #1
	str	w1, [x20, 8]
.L525:
	cmp	w0, 1
	beq	.L643
.L523:
	ldr	x20, [x23, 240]
	cbz	x20, .L529
	adrp	x19, :got:__libc_single_threaded
	ldr	x0, [x19, #:got_lo12:__libc_single_threaded]
	ldrb	w0, [x0]
	cbz	w0, .L530
	ldr	w0, [x20, 8]
	sub	w1, w0, #1
	str	w1, [x20, 8]
.L531:
	cmp	w0, 1
	beq	.L644
.L529:
	ldr	x20, [x23, 224]
	cbz	x20, .L536
	adrp	x19, :got:__libc_single_threaded
	ldr	x0, [x19, #:got_lo12:__libc_single_threaded]
	ldrb	w0, [x0]
	cbz	w0, .L537
	ldr	w0, [x20, 8]
	sub	w1, w0, #1
	str	w1, [x20, 8]
.L538:
	cmp	w0, 1
	beq	.L645
.L536:
	ldp	x0, x2, [x23, 168]
	adrp	x20, :got:__libc_single_threaded
	ldr	x25, [x23, 208]
	stp	x0, x2, [sp, 96]
	ldr	x20, [x20, #:got_lo12:__libc_single_threaded]
	add	x22, x2, 8
	ldr	x21, [x23, 152]
	ldp	x26, x24, [x23, 184]
	cmp	x25, x22
	bls	.L553
	stp	x27, x28, [sp, 80]
	.cfi_offset 28, -24
	.cfi_offset 27, -32
	.p2align 3,,7
.L542:
	ldr	x19, [x22]
	add	x28, x19, 512
	b	.L552
	.p2align 2,,3
.L546:
	add	x19, x19, 32
	cmp	x19, x28
	beq	.L646
.L552:
	ldr	x27, [x19, 24]
	cbz	x27, .L546
	ldrb	w0, [x20]
	cbz	w0, .L547
	ldr	w0, [x27, 8]
	sub	w1, w0, #1
	str	w1, [x27, 8]
.L548:
	cmp	w0, 1
	bne	.L546
	ldr	x1, [x27]
	mov	x0, x27
	ldr	x1, [x1, 16]
	blr	x1
	ldrb	w0, [x20]
	cbz	w0, .L550
	ldr	w0, [x27, 12]
	sub	w1, w0, #1
	str	w1, [x27, 12]
.L551:
	cmp	w0, 1
	bne	.L546
	ldr	x1, [x27]
	mov	x0, x27
	add	x19, x19, 32
	ldr	x1, [x1, 24]
	blr	x1
	cmp	x19, x28
	bne	.L552
	.p2align 3,,7
.L646:
	add	x22, x22, 8
	cmp	x25, x22
	bhi	.L542
	ldp	x27, x28, [sp, 80]
	.cfi_restore 28
	.cfi_restore 27
.L553:
	ldr	x0, [sp, 104]
	cmp	x0, x25
	beq	.L647
	ldr	x0, [sp, 96]
	adrp	x20, :got:__libc_single_threaded
	ldr	x20, [x20, #:got_lo12:__libc_single_threaded]
	cmp	x21, x0
	bne	.L557
	b	.L567
	.p2align 2,,3
.L561:
	ldr	x0, [sp, 96]
	add	x21, x21, 32
	cmp	x0, x21
	beq	.L567
.L557:
	ldr	x19, [x21, 24]
	cbz	x19, .L561
	ldrb	w0, [x20]
	cbz	w0, .L562
	ldr	w0, [x19, 8]
	sub	w1, w0, #1
	str	w1, [x19, 8]
.L563:
	cmp	w0, 1
	bne	.L561
	ldr	x1, [x19]
	mov	x0, x19
	ldr	x1, [x1, 16]
	blr	x1
	ldrb	w0, [x20]
	cbz	w0, .L565
	ldr	w0, [x19, 12]
	sub	w1, w0, #1
	str	w1, [x19, 12]
.L566:
	cmp	w0, 1
	bne	.L561
	ldr	x1, [x19]
	mov	x0, x19
	add	x21, x21, 32
	ldr	x1, [x1, 24]
	blr	x1
	ldr	x0, [sp, 96]
	cmp	x0, x21
	bne	.L557
.L567:
	adrp	x20, :got:__libc_single_threaded
	ldr	x20, [x20, #:got_lo12:__libc_single_threaded]
	cmp	x26, x24
	bne	.L558
	b	.L559
	.p2align 2,,3
.L569:
	add	x24, x24, 32
	cmp	x26, x24
	beq	.L559
.L558:
	ldr	x19, [x24, 24]
	cbz	x19, .L569
	ldrb	w0, [x20]
	cbz	w0, .L570
	ldr	w0, [x19, 8]
	sub	w1, w0, #1
	str	w1, [x19, 8]
.L571:
	cmp	w0, 1
	bne	.L569
	ldr	x1, [x19]
	mov	x0, x19
	ldr	x1, [x1, 16]
	blr	x1
	ldrb	w0, [x20]
	cbz	w0, .L573
	ldr	w0, [x19, 12]
	sub	w1, w0, #1
	str	w1, [x19, 12]
.L574:
	cmp	w0, 1
	bne	.L569
	ldr	x1, [x19]
	mov	x0, x19
	add	x24, x24, 32
	ldr	x1, [x1, 24]
	blr	x1
	cmp	x26, x24
	bne	.L558
	.p2align 3,,7
.L559:
	ldr	x0, [x23, 136]
	add	x21, x23, 136
	cbz	x0, .L556
	ldr	x20, [x21, 72]
	ldr	x19, [x21, 40]
	add	x20, x20, 8
	cmp	x19, x20
	bcs	.L582
	.p2align 3,,7
.L583:
	ldr	x0, [x19], 8
	mov	x1, 512
	bl	_ZdlPvm
	cmp	x20, x19
	bhi	.L583
	ldr	x0, [x23, 136]
.L582:
	ldr	x1, [x21, 8]
	lsl	x1, x1, 3
	bl	_ZdlPvm
.L556:
	ldr	x19, [x23, 112]
	add	x24, x23, 112
	ldr	x21, [x24, 8]
	cmp	x19, x21
	beq	.L584
	adrp	x22, :got:__libc_single_threaded
	ldr	x22, [x22, #:got_lo12:__libc_single_threaded]
	b	.L592
	.p2align 2,,3
.L586:
	add	x19, x19, 24
	cmp	x21, x19
	beq	.L648
.L592:
	ldr	x20, [x19, 16]
	cbz	x20, .L586
	ldrb	w0, [x22]
	cbz	w0, .L587
	ldr	w0, [x20, 8]
	sub	w1, w0, #1
	str	w1, [x20, 8]
.L588:
	cmp	w0, 1
	bne	.L586
	ldr	x1, [x20]
	mov	x0, x20
	ldr	x1, [x1, 16]
	blr	x1
	ldrb	w0, [x22]
	cbz	w0, .L590
	ldr	w0, [x20, 12]
	sub	w1, w0, #1
	str	w1, [x20, 12]
.L591:
	cmp	w0, 1
	bne	.L586
	ldr	x1, [x20]
	mov	x0, x20
	add	x19, x19, 24
	ldr	x1, [x1, 24]
	blr	x1
	cmp	x21, x19
	bne	.L592
	.p2align 3,,7
.L648:
	ldr	x21, [x23, 112]
.L584:
	cbz	x21, .L593
	ldr	x1, [x24, 16]
	mov	x0, x21
	sub	x1, x1, x21
	bl	_ZdlPvm
.L593:
	ldr	x20, [x23, 72]
	cbz	x20, .L595
	adrp	x19, :got:__libc_single_threaded
	ldr	x0, [x19, #:got_lo12:__libc_single_threaded]
	ldrb	w0, [x0]
	cbz	w0, .L596
	ldr	w0, [x20, 8]
	sub	w1, w0, #1
	str	w1, [x20, 8]
.L597:
	cmp	w0, 1
	beq	.L649
.L595:
	ldr	x20, [x23, 56]
	cbz	x20, .L602
	adrp	x19, :got:__libc_single_threaded
	ldr	x0, [x19, #:got_lo12:__libc_single_threaded]
	ldrb	w0, [x0]
	cbz	w0, .L603
	ldr	w0, [x20, 8]
	sub	w1, w0, #1
	str	w1, [x20, 8]
.L604:
	cmp	w0, 1
	beq	.L650
.L602:
	ldr	x20, [x23, 40]
	cbz	x20, .L609
	adrp	x19, :got:__libc_single_threaded
	ldr	x0, [x19, #:got_lo12:__libc_single_threaded]
	ldrb	w0, [x0]
	cbz	w0, .L610
	ldr	w0, [x20, 8]
	sub	w1, w0, #1
	str	w1, [x20, 8]
.L611:
	cmp	w0, 1
	beq	.L651
.L609:
	ldr	x19, [x23, 24]
	cbz	x19, .L515
	adrp	x0, :got:__libc_single_threaded
	ldr	x0, [x0, #:got_lo12:__libc_single_threaded]
	ldrb	w0, [x0]
	cbz	w0, .L617
	ldr	w0, [x19, 12]
	sub	w1, w0, #1
	str	w1, [x19, 12]
.L618:
	cmp	w0, 1
	beq	.L652
.L515:
	ldp	x19, x20, [sp, 16]
	ldp	x21, x22, [sp, 32]
	ldp	x23, x24, [sp, 48]
	ldp	x25, x26, [sp, 64]
	ldp	x29, x30, [sp], 112
	.cfi_restore 30
	.cfi_restore 29
	.cfi_restore 25
	.cfi_restore 26
	.cfi_restore 23
	.cfi_restore 24
	.cfi_restore 21
	.cfi_restore 22
	.cfi_restore 19
	.cfi_restore 20
	.cfi_def_cfa_offset 0
	ret
	.p2align 2,,3
.L547:
	.cfi_def_cfa_offset 112
	.cfi_offset 19, -96
	.cfi_offset 20, -88
	.cfi_offset 21, -80
	.cfi_offset 22, -72
	.cfi_offset 23, -64
	.cfi_offset 24, -56
	.cfi_offset 25, -48
	.cfi_offset 26, -40
	.cfi_offset 27, -32
	.cfi_offset 28, -24
	.cfi_offset 29, -112
	.cfi_offset 30, -104
	add	x1, x27, 8
	mov	w0, -1
	bl	__aarch64_ldadd4_acq_rel
	b	.L548
	.p2align 2,,3
.L550:
	add	x1, x27, 12
	mov	w0, -1
	bl	__aarch64_ldadd4_acq_rel
	b	.L551
	.p2align 2,,3
.L562:
	.cfi_restore 27
	.cfi_restore 28
	add	x1, x19, 8
	mov	w0, -1
	bl	__aarch64_ldadd4_acq_rel
	b	.L563
	.p2align 2,,3
.L587:
	add	x1, x20, 8
	mov	w0, -1
	bl	__aarch64_ldadd4_acq_rel
	b	.L588
	.p2align 2,,3
.L570:
	add	x1, x19, 8
	mov	w0, -1
	bl	__aarch64_ldadd4_acq_rel
	b	.L571
.L590:
	add	x1, x20, 12
	mov	w0, -1
	bl	__aarch64_ldadd4_acq_rel
	b	.L591
.L565:
	add	x1, x19, 12
	mov	w0, -1
	bl	__aarch64_ldadd4_acq_rel
	b	.L566
.L573:
	add	x1, x19, 12
	mov	w0, -1
	bl	__aarch64_ldadd4_acq_rel
	b	.L574
.L647:
	adrp	x20, :got:__libc_single_threaded
	ldr	x20, [x20, #:got_lo12:__libc_single_threaded]
	cmp	x21, x26
	bne	.L554
	b	.L559
	.p2align 2,,3
.L576:
	add	x21, x21, 32
	cmp	x26, x21
	beq	.L559
.L554:
	ldr	x19, [x21, 24]
	cbz	x19, .L576
	ldrb	w0, [x20]
	cbz	w0, .L577
	ldr	w0, [x19, 8]
	sub	w1, w0, #1
	str	w1, [x19, 8]
.L578:
	cmp	w0, 1
	bne	.L576
	ldr	x1, [x19]
	mov	x0, x19
	ldr	x1, [x1, 16]
	blr	x1
	ldrb	w0, [x20]
	cbz	w0, .L580
	ldr	w0, [x19, 12]
	sub	w1, w0, #1
	str	w1, [x19, 12]
.L581:
	cmp	w0, 1
	bne	.L576
	ldr	x1, [x19]
	mov	x0, x19
	ldr	x1, [x1, 24]
	blr	x1
	b	.L576
.L577:
	add	x1, x19, 8
	mov	w0, -1
	bl	__aarch64_ldadd4_acq_rel
	b	.L578
.L643:
	ldr	x1, [x20]
	mov	x0, x20
	ldr	x1, [x1, 16]
	blr	x1
	ldr	x19, [x19, #:got_lo12:__libc_single_threaded]
	ldrb	w0, [x19]
	cbz	w0, .L526
	ldr	w0, [x20, 12]
	sub	w1, w0, #1
	str	w1, [x20, 12]
.L527:
	cmp	w0, 1
	bne	.L523
	ldr	x1, [x20]
	mov	x0, x20
	ldr	x1, [x1, 24]
	blr	x1
	b	.L523
.L644:
	ldr	x1, [x20]
	mov	x0, x20
	ldr	x1, [x1, 16]
	blr	x1
	ldr	x19, [x19, #:got_lo12:__libc_single_threaded]
	ldrb	w0, [x19]
	cbz	w0, .L533
	ldr	w0, [x20, 12]
	sub	w1, w0, #1
	str	w1, [x20, 12]
.L534:
	cmp	w0, 1
	bne	.L529
	ldr	x1, [x20]
	mov	x0, x20
	ldr	x1, [x1, 24]
	blr	x1
	b	.L529
.L645:
	ldr	x1, [x20]
	mov	x0, x20
	ldr	x1, [x1, 16]
	blr	x1
	ldr	x19, [x19, #:got_lo12:__libc_single_threaded]
	ldrb	w0, [x19]
	cbz	w0, .L540
	ldr	w0, [x20, 12]
	sub	w1, w0, #1
	str	w1, [x20, 12]
.L541:
	cmp	w0, 1
	bne	.L536
	ldr	x1, [x20]
	mov	x0, x20
	ldr	x1, [x1, 24]
	blr	x1
	b	.L536
.L649:
	ldr	x1, [x20]
	mov	x0, x20
	ldr	x1, [x1, 16]
	blr	x1
	ldr	x19, [x19, #:got_lo12:__libc_single_threaded]
	ldrb	w0, [x19]
	cbz	w0, .L599
	ldr	w0, [x20, 12]
	sub	w1, w0, #1
	str	w1, [x20, 12]
.L600:
	cmp	w0, 1
	bne	.L595
	ldr	x1, [x20]
	mov	x0, x20
	ldr	x1, [x1, 24]
	blr	x1
	b	.L595
.L650:
	ldr	x1, [x20]
	mov	x0, x20
	ldr	x1, [x1, 16]
	blr	x1
	ldr	x19, [x19, #:got_lo12:__libc_single_threaded]
	ldrb	w0, [x19]
	cbz	w0, .L606
	ldr	w0, [x20, 12]
	sub	w1, w0, #1
	str	w1, [x20, 12]
.L607:
	cmp	w0, 1
	bne	.L602
	ldr	x1, [x20]
	mov	x0, x20
	ldr	x1, [x1, 24]
	blr	x1
	b	.L602
.L652:
	ldr	x1, [x19]
	mov	x0, x19
	ldp	x19, x20, [sp, 16]
	ldr	x1, [x1, 24]
	ldp	x21, x22, [sp, 32]
	mov	x16, x1
	ldp	x23, x24, [sp, 48]
	ldp	x25, x26, [sp, 64]
	ldp	x29, x30, [sp], 112
	.cfi_remember_state
	.cfi_restore 30
	.cfi_restore 29
	.cfi_restore 25
	.cfi_restore 26
	.cfi_restore 23
	.cfi_restore 24
	.cfi_restore 21
	.cfi_restore 22
	.cfi_restore 19
	.cfi_restore 20
	.cfi_def_cfa_offset 0
	br	x16
.L651:
	.cfi_restore_state
	ldr	x1, [x20]
	mov	x0, x20
	ldr	x1, [x1, 16]
	blr	x1
	ldr	x19, [x19, #:got_lo12:__libc_single_threaded]
	ldrb	w0, [x19]
	cbz	w0, .L613
	ldr	w0, [x20, 12]
	sub	w1, w0, #1
	str	w1, [x20, 12]
.L614:
	cmp	w0, 1
	bne	.L609
	ldr	x1, [x20]
	mov	x0, x20
	ldr	x1, [x1, 24]
	blr	x1
	b	.L609
.L603:
	add	x1, x20, 8
	mov	w0, -1
	bl	__aarch64_ldadd4_acq_rel
	b	.L604
.L524:
	add	x1, x20, 8
	mov	w0, -1
	bl	__aarch64_ldadd4_acq_rel
	b	.L525
.L530:
	add	x1, x20, 8
	mov	w0, -1
	bl	__aarch64_ldadd4_acq_rel
	b	.L531
.L537:
	add	x1, x20, 8
	mov	w0, -1
	bl	__aarch64_ldadd4_acq_rel
	b	.L538
.L617:
	add	x1, x19, 12
	mov	w0, -1
	bl	__aarch64_ldadd4_acq_rel
	b	.L618
.L610:
	add	x1, x20, 8
	mov	w0, -1
	bl	__aarch64_ldadd4_acq_rel
	b	.L611
.L596:
	add	x1, x20, 8
	mov	w0, -1
	bl	__aarch64_ldadd4_acq_rel
	b	.L597
.L580:
	add	x1, x19, 12
	mov	w0, -1
	bl	__aarch64_ldadd4_acq_rel
	b	.L581
.L526:
	add	x1, x20, 12
	mov	w0, -1
	bl	__aarch64_ldadd4_acq_rel
	b	.L527
.L599:
	add	x1, x20, 12
	mov	w0, -1
	bl	__aarch64_ldadd4_acq_rel
	b	.L600
.L606:
	add	x1, x20, 12
	mov	w0, -1
	bl	__aarch64_ldadd4_acq_rel
	b	.L607
.L613:
	add	x1, x20, 12
	mov	w0, -1
	bl	__aarch64_ldadd4_acq_rel
	b	.L614
.L533:
	add	x1, x20, 12
	mov	w0, -1
	bl	__aarch64_ldadd4_acq_rel
	b	.L534
.L540:
	add	x1, x20, 12
	mov	w0, -1
	bl	__aarch64_ldadd4_acq_rel
	b	.L541
	.cfi_endproc
.LFE7647:
	.size	_ZN8asiodnp39IOHandlerD2Ev, .-_ZN8asiodnp39IOHandlerD2Ev
	.set	.LTHUNK0,_ZN8asiodnp39IOHandlerD2Ev
	.align	2
	.p2align 4,,11
	.weak	_ZThn8_N8asiodnp39IOHandlerD1Ev
	.type	_ZThn8_N8asiodnp39IOHandlerD1Ev, %function
_ZThn8_N8asiodnp39IOHandlerD1Ev:
.LFB10661:
	.cfi_startproc
	sub	x0, x0, #8
	b	.LTHUNK0
	.cfi_endproc
.LFE10661:
	.size	_ZThn8_N8asiodnp39IOHandlerD1Ev, .-_ZThn8_N8asiodnp39IOHandlerD1Ev
	.weak	_ZN8asiodnp39IOHandlerD1Ev
	.set	_ZN8asiodnp39IOHandlerD1Ev,_ZN8asiodnp39IOHandlerD2Ev
	.section	.text._ZN8asiodnp318TCPServerIOHandlerD2Ev,"axG",@progbits,_ZN8asiodnp318TCPServerIOHandlerD5Ev,comdat
	.align	2
	.p2align 4,,11
	.weak	_ZN8asiodnp318TCPServerIOHandlerD2Ev
	.type	_ZN8asiodnp318TCPServerIOHandlerD2Ev, %function
_ZN8asiodnp318TCPServerIOHandlerD2Ev:
.LFB10427:
	.cfi_startproc
	stp	x29, x30, [sp, -48]!
	.cfi_def_cfa_offset 48
	.cfi_offset 29, -48
	.cfi_offset 30, -40
	adrp	x1, :got:_ZTVN8asiodnp318TCPServerIOHandlerE
	mov	x29, sp
	stp	x19, x20, [sp, 16]
	.cfi_offset 19, -32
	.cfi_offset 20, -24
	mov	x19, x0
	ldr	x0, [x1, #:got_lo12:_ZTVN8asiodnp318TCPServerIOHandlerE]
	ldr	x20, [x19, 864]
	str	x21, [sp, 32]
	.cfi_offset 21, -16
	add	x1, x0, 16
	add	x0, x0, 104
	stp	x1, x0, [x19]
	cbz	x20, .L655
	adrp	x21, :got:__libc_single_threaded
	ldr	x0, [x21, #:got_lo12:__libc_single_threaded]
	ldrb	w0, [x0]
	cbz	w0, .L656
	ldr	w0, [x20, 8]
	sub	w1, w0, #1
	str	w1, [x20, 8]
.L657:
	cmp	w0, 1
	beq	.L670
.L655:
	ldr	x0, [x19, 816]
	add	x1, x19, 832
	cmp	x0, x1
	beq	.L661
	ldr	x1, [x19, 832]
	add	x1, x1, 1
	bl	_ZdlPvm
.L661:
	ldr	x20, [x19, 808]
	cbz	x20, .L663
	adrp	x21, :got:__libc_single_threaded
	ldr	x0, [x21, #:got_lo12:__libc_single_threaded]
	ldrb	w0, [x0]
	cbz	w0, .L664
	ldr	w0, [x20, 8]
	sub	w1, w0, #1
	str	w1, [x20, 8]
.L665:
	cmp	w0, 1
	beq	.L671
.L663:
	mov	x0, x19
	ldp	x19, x20, [sp, 16]
	ldr	x21, [sp, 32]
	ldp	x29, x30, [sp], 48
	.cfi_remember_state
	.cfi_restore 30
	.cfi_restore 29
	.cfi_restore 21
	.cfi_restore 19
	.cfi_restore 20
	.cfi_def_cfa_offset 0
	b	_ZN8asiodnp39IOHandlerD2Ev
	.p2align 2,,3
.L670:
	.cfi_restore_state
	ldr	x1, [x20]
	mov	x0, x20
	ldr	x1, [x1, 16]
	blr	x1
	ldr	x21, [x21, #:got_lo12:__libc_single_threaded]
	ldrb	w0, [x21]
	cbz	w0, .L659
	ldr	w0, [x20, 12]
	sub	w1, w0, #1
	str	w1, [x20, 12]
.L660:
	cmp	w0, 1
	bne	.L655
	ldr	x1, [x20]
	mov	x0, x20
	ldr	x1, [x1, 24]
	blr	x1
	b	.L655
	.p2align 2,,3
.L671:
	ldr	x1, [x20]
	mov	x0, x20
	ldr	x1, [x1, 16]
	blr	x1
	ldr	x21, [x21, #:got_lo12:__libc_single_threaded]
	ldrb	w0, [x21]
	cbz	w0, .L667
	ldr	w0, [x20, 12]
	sub	w1, w0, #1
	str	w1, [x20, 12]
.L668:
	cmp	w0, 1
	bne	.L663
	ldr	x1, [x20]
	mov	x0, x20
	ldr	x1, [x1, 24]
	blr	x1
	b	.L663
	.p2align 2,,3
.L664:
	add	x1, x20, 8
	mov	w0, -1
	bl	__aarch64_ldadd4_acq_rel
	b	.L665
	.p2align 2,,3
.L656:
	add	x1, x20, 8
	mov	w0, -1
	bl	__aarch64_ldadd4_acq_rel
	b	.L657
	.p2align 2,,3
.L659:
	add	x1, x20, 12
	mov	w0, -1
	bl	__aarch64_ldadd4_acq_rel
	b	.L660
	.p2align 2,,3
.L667:
	add	x1, x20, 12
	mov	w0, -1
	bl	__aarch64_ldadd4_acq_rel
	b	.L668
	.cfi_endproc
.LFE10427:
	.size	_ZN8asiodnp318TCPServerIOHandlerD2Ev, .-_ZN8asiodnp318TCPServerIOHandlerD2Ev
	.weak	_ZN8asiodnp318TCPServerIOHandlerD1Ev
	.set	_ZN8asiodnp318TCPServerIOHandlerD1Ev,_ZN8asiodnp318TCPServerIOHandlerD2Ev
	.section	.text._ZN8asiodnp318TCPServerIOHandlerD0Ev,"axG",@progbits,_ZN8asiodnp318TCPServerIOHandlerD5Ev,comdat
	.align	2
	.p2align 4,,11
	.weak	_ZN8asiodnp318TCPServerIOHandlerD0Ev
	.type	_ZN8asiodnp318TCPServerIOHandlerD0Ev, %function
_ZN8asiodnp318TCPServerIOHandlerD0Ev:
.LFB10429:
	.cfi_startproc
	stp	x29, x30, [sp, -48]!
	.cfi_def_cfa_offset 48
	.cfi_offset 29, -48
	.cfi_offset 30, -40
	adrp	x1, :got:_ZTVN8asiodnp318TCPServerIOHandlerE
	mov	x29, sp
	stp	x19, x20, [sp, 16]
	.cfi_offset 19, -32
	.cfi_offset 20, -24
	mov	x19, x0
	ldr	x0, [x1, #:got_lo12:_ZTVN8asiodnp318TCPServerIOHandlerE]
	ldr	x20, [x19, 864]
	str	x21, [sp, 32]
	.cfi_offset 21, -16
	add	x1, x0, 16
	add	x0, x0, 104
	stp	x1, x0, [x19]
	cbz	x20, .L674
	adrp	x21, :got:__libc_single_threaded
	ldr	x0, [x21, #:got_lo12:__libc_single_threaded]
	ldrb	w0, [x0]
	cbz	w0, .L675
	ldr	w0, [x20, 8]
	sub	w1, w0, #1
	str	w1, [x20, 8]
.L676:
	cmp	w0, 1
	beq	.L689
.L674:
	ldr	x0, [x19, 816]
	add	x1, x19, 832
	cmp	x0, x1
	beq	.L680
	ldr	x1, [x19, 832]
	add	x1, x1, 1
	bl	_ZdlPvm
.L680:
	ldr	x20, [x19, 808]
	cbz	x20, .L682
	adrp	x21, :got:__libc_single_threaded
	ldr	x0, [x21, #:got_lo12:__libc_single_threaded]
	ldrb	w0, [x0]
	cbz	w0, .L683
	ldr	w0, [x20, 8]
	sub	w1, w0, #1
	str	w1, [x20, 8]
.L684:
	cmp	w0, 1
	beq	.L690
.L682:
	mov	x0, x19
	bl	_ZN8asiodnp39IOHandlerD2Ev
	mov	x0, x19
	mov	x1, 872
	ldp	x19, x20, [sp, 16]
	ldr	x21, [sp, 32]
	ldp	x29, x30, [sp], 48
	.cfi_remember_state
	.cfi_restore 30
	.cfi_restore 29
	.cfi_restore 21
	.cfi_restore 19
	.cfi_restore 20
	.cfi_def_cfa_offset 0
	b	_ZdlPvm
	.p2align 2,,3
.L689:
	.cfi_restore_state
	ldr	x1, [x20]
	mov	x0, x20
	ldr	x1, [x1, 16]
	blr	x1
	ldr	x21, [x21, #:got_lo12:__libc_single_threaded]
	ldrb	w0, [x21]
	cbz	w0, .L678
	ldr	w0, [x20, 12]
	sub	w1, w0, #1
	str	w1, [x20, 12]
.L679:
	cmp	w0, 1
	bne	.L674
	ldr	x1, [x20]
	mov	x0, x20
	ldr	x1, [x1, 24]
	blr	x1
	b	.L674
	.p2align 2,,3
.L690:
	ldr	x1, [x20]
	mov	x0, x20
	ldr	x1, [x1, 16]
	blr	x1
	ldr	x21, [x21, #:got_lo12:__libc_single_threaded]
	ldrb	w0, [x21]
	cbz	w0, .L686
	ldr	w0, [x20, 12]
	sub	w1, w0, #1
	str	w1, [x20, 12]
.L687:
	cmp	w0, 1
	bne	.L682
	ldr	x1, [x20]
	mov	x0, x20
	ldr	x1, [x1, 24]
	blr	x1
	b	.L682
	.p2align 2,,3
.L683:
	add	x1, x20, 8
	mov	w0, -1
	bl	__aarch64_ldadd4_acq_rel
	b	.L684
	.p2align 2,,3
.L675:
	add	x1, x20, 8
	mov	w0, -1
	bl	__aarch64_ldadd4_acq_rel
	b	.L676
	.p2align 2,,3
.L678:
	add	x1, x20, 12
	mov	w0, -1
	bl	__aarch64_ldadd4_acq_rel
	b	.L679
	.p2align 2,,3
.L686:
	add	x1, x20, 12
	mov	w0, -1
	bl	__aarch64_ldadd4_acq_rel
	b	.L687
	.cfi_endproc
.LFE10429:
	.size	_ZN8asiodnp318TCPServerIOHandlerD0Ev, .-_ZN8asiodnp318TCPServerIOHandlerD0Ev
	.align	2
	.p2align 4,,11
	.weak	_ZThn8_N8asiodnp318TCPServerIOHandlerD0Ev
	.type	_ZThn8_N8asiodnp318TCPServerIOHandlerD0Ev, %function
_ZThn8_N8asiodnp318TCPServerIOHandlerD0Ev:
.LFB10645:
	.cfi_startproc
	stp	x29, x30, [sp, -48]!
	.cfi_def_cfa_offset 48
	.cfi_offset 29, -48
	.cfi_offset 30, -40
	adrp	x1, :got:_ZTVN8asiodnp318TCPServerIOHandlerE
	mov	x29, sp
	stp	x19, x20, [sp, 16]
	.cfi_offset 19, -32
	.cfi_offset 20, -24
	mov	x19, x0
	ldr	x0, [x1, #:got_lo12:_ZTVN8asiodnp318TCPServerIOHandlerE]
	stp	x21, x22, [sp, 32]
	.cfi_offset 21, -16
	.cfi_offset 22, -8
	mov	x22, x19
	ldr	x20, [x19, 856]
	add	x1, x0, 16
	str	x1, [x19, -8]
	add	x0, x0, 104
	str	x0, [x22], -8
	cbz	x20, .L693
	adrp	x21, :got:__libc_single_threaded
	ldr	x0, [x21, #:got_lo12:__libc_single_threaded]
	ldrb	w0, [x0]
	cbz	w0, .L694
	ldr	w0, [x20, 8]
	sub	w1, w0, #1
	str	w1, [x20, 8]
.L695:
	cmp	w0, 1
	beq	.L708
.L693:
	ldr	x0, [x19, 808]
	add	x1, x19, 824
	cmp	x0, x1
	beq	.L699
	ldr	x1, [x19, 824]
	add	x1, x1, 1
	bl	_ZdlPvm
.L699:
	ldr	x19, [x19, 800]
	cbz	x19, .L701
	adrp	x21, :got:__libc_single_threaded
	ldr	x0, [x21, #:got_lo12:__libc_single_threaded]
	ldrb	w0, [x0]
	cbz	w0, .L702
	ldr	w0, [x19, 8]
	sub	w1, w0, #1
	str	w1, [x19, 8]
.L703:
	cmp	w0, 1
	beq	.L709
.L701:
	mov	x0, x22
	bl	_ZN8asiodnp39IOHandlerD2Ev
	mov	x0, x22
	mov	x1, 872
	ldp	x19, x20, [sp, 16]
	ldp	x21, x22, [sp, 32]
	ldp	x29, x30, [sp], 48
	.cfi_remember_state
	.cfi_restore 30
	.cfi_restore 29
	.cfi_restore 21
	.cfi_restore 22
	.cfi_restore 19
	.cfi_restore 20
	.cfi_def_cfa_offset 0
	b	_ZdlPvm
	.p2align 2,,3
.L708:
	.cfi_restore_state
	ldr	x1, [x20]
	mov	x0, x20
	ldr	x1, [x1, 16]
	blr	x1
	ldr	x21, [x21, #:got_lo12:__libc_single_threaded]
	ldrb	w0, [x21]
	cbz	w0, .L697
	ldr	w0, [x20, 12]
	sub	w1, w0, #1
	str	w1, [x20, 12]
.L698:
	cmp	w0, 1
	bne	.L693
	ldr	x1, [x20]
	mov	x0, x20
	ldr	x1, [x1, 24]
	blr	x1
	b	.L693
	.p2align 2,,3
.L709:
	ldr	x1, [x19]
	mov	x0, x19
	ldr	x1, [x1, 16]
	blr	x1
	ldr	x21, [x21, #:got_lo12:__libc_single_threaded]
	ldrb	w0, [x21]
	cbz	w0, .L705
	ldr	w0, [x19, 12]
	sub	w1, w0, #1
	str	w1, [x19, 12]
.L706:
	cmp	w0, 1
	bne	.L701
	ldr	x1, [x19]
	mov	x0, x19
	ldr	x1, [x1, 24]
	blr	x1
	b	.L701
	.p2align 2,,3
.L702:
	add	x1, x19, 8
	mov	w0, -1
	bl	__aarch64_ldadd4_acq_rel
	b	.L703
	.p2align 2,,3
.L694:
	add	x1, x20, 8
	mov	w0, -1
	bl	__aarch64_ldadd4_acq_rel
	b	.L695
	.p2align 2,,3
.L697:
	add	x1, x20, 12
	mov	w0, -1
	bl	__aarch64_ldadd4_acq_rel
	b	.L698
	.p2align 2,,3
.L705:
	add	x1, x19, 12
	mov	w0, -1
	bl	__aarch64_ldadd4_acq_rel
	b	.L706
	.cfi_endproc
.LFE10645:
	.size	_ZThn8_N8asiodnp318TCPServerIOHandlerD0Ev, .-_ZThn8_N8asiodnp318TCPServerIOHandlerD0Ev
	.section	.text._ZN8asiodnp318TCPServerIOHandlerD2Ev,"axG",@progbits,_ZN8asiodnp318TCPServerIOHandlerD5Ev,comdat
	.align	2
	.p2align 4,,11
	.weak	_ZThn8_N8asiodnp318TCPServerIOHandlerD1Ev
	.type	_ZThn8_N8asiodnp318TCPServerIOHandlerD1Ev, %function
_ZThn8_N8asiodnp318TCPServerIOHandlerD1Ev:
.LFB10646:
	.cfi_startproc
	stp	x29, x30, [sp, -48]!
	.cfi_def_cfa_offset 48
	.cfi_offset 29, -48
	.cfi_offset 30, -40
	adrp	x1, :got:_ZTVN8asiodnp318TCPServerIOHandlerE
	mov	x29, sp
	stp	x19, x20, [sp, 16]
	.cfi_offset 19, -32
	.cfi_offset 20, -24
	mov	x19, x0
	ldr	x0, [x1, #:got_lo12:_ZTVN8asiodnp318TCPServerIOHandlerE]
	stp	x21, x22, [sp, 32]
	.cfi_offset 21, -16
	.cfi_offset 22, -8
	mov	x22, x19
	ldr	x20, [x19, 856]
	add	x1, x0, 16
	str	x1, [x19, -8]
	add	x0, x0, 104
	str	x0, [x22], -8
	cbz	x20, .L712
	adrp	x21, :got:__libc_single_threaded
	ldr	x0, [x21, #:got_lo12:__libc_single_threaded]
	ldrb	w0, [x0]
	cbz	w0, .L713
	ldr	w0, [x20, 8]
	sub	w1, w0, #1
	str	w1, [x20, 8]
.L714:
	cmp	w0, 1
	beq	.L727
.L712:
	ldr	x0, [x19, 808]
	add	x1, x19, 824
	cmp	x0, x1
	beq	.L718
	ldr	x1, [x19, 824]
	add	x1, x1, 1
	bl	_ZdlPvm
.L718:
	ldr	x19, [x19, 800]
	cbz	x19, .L720
	adrp	x21, :got:__libc_single_threaded
	ldr	x0, [x21, #:got_lo12:__libc_single_threaded]
	ldrb	w0, [x0]
	cbz	w0, .L721
	ldr	w0, [x19, 8]
	sub	w1, w0, #1
	str	w1, [x19, 8]
.L722:
	cmp	w0, 1
	beq	.L728
.L720:
	mov	x0, x22
	ldp	x19, x20, [sp, 16]
	ldp	x21, x22, [sp, 32]
	ldp	x29, x30, [sp], 48
	.cfi_remember_state
	.cfi_restore 30
	.cfi_restore 29
	.cfi_restore 21
	.cfi_restore 22
	.cfi_restore 19
	.cfi_restore 20
	.cfi_def_cfa_offset 0
	b	_ZN8asiodnp39IOHandlerD2Ev
	.p2align 2,,3
.L727:
	.cfi_restore_state
	ldr	x1, [x20]
	mov	x0, x20
	ldr	x1, [x1, 16]
	blr	x1
	ldr	x21, [x21, #:got_lo12:__libc_single_threaded]
	ldrb	w0, [x21]
	cbz	w0, .L716
	ldr	w0, [x20, 12]
	sub	w1, w0, #1
	str	w1, [x20, 12]
.L717:
	cmp	w0, 1
	bne	.L712
	ldr	x1, [x20]
	mov	x0, x20
	ldr	x1, [x1, 24]
	blr	x1
	b	.L712
	.p2align 2,,3
.L728:
	ldr	x1, [x19]
	mov	x0, x19
	ldr	x1, [x1, 16]
	blr	x1
	ldr	x21, [x21, #:got_lo12:__libc_single_threaded]
	ldrb	w0, [x21]
	cbz	w0, .L724
	ldr	w0, [x19, 12]
	sub	w1, w0, #1
	str	w1, [x19, 12]
.L725:
	cmp	w0, 1
	bne	.L720
	ldr	x1, [x19]
	mov	x0, x19
	ldr	x1, [x1, 24]
	blr	x1
	b	.L720
	.p2align 2,,3
.L721:
	add	x1, x19, 8
	mov	w0, -1
	bl	__aarch64_ldadd4_acq_rel
	b	.L722
	.p2align 2,,3
.L713:
	add	x1, x20, 8
	mov	w0, -1
	bl	__aarch64_ldadd4_acq_rel
	b	.L714
	.p2align 2,,3
.L716:
	add	x1, x20, 12
	mov	w0, -1
	bl	__aarch64_ldadd4_acq_rel
	b	.L717
	.p2align 2,,3
.L724:
	add	x1, x19, 12
	mov	w0, -1
	bl	__aarch64_ldadd4_acq_rel
	b	.L725
	.cfi_endproc
.LFE10646:
	.size	_ZThn8_N8asiodnp318TCPServerIOHandlerD1Ev, .-_ZThn8_N8asiodnp318TCPServerIOHandlerD1Ev
	.section	.text._ZN8asiodnp39IOHandlerD0Ev,"axG",@progbits,_ZN8asiodnp39IOHandlerD5Ev,comdat
	.align	2
	.p2align 4,,11
	.weak	_ZN8asiodnp39IOHandlerD0Ev
	.type	_ZN8asiodnp39IOHandlerD0Ev, %function
_ZN8asiodnp39IOHandlerD0Ev:
.LFB7649:
	.cfi_startproc
	stp	x29, x30, [sp, -32]!
	.cfi_def_cfa_offset 32
	.cfi_offset 29, -32
	.cfi_offset 30, -24
	mov	x29, sp
	str	x19, [sp, 16]
	.cfi_offset 19, -16
	mov	x19, x0
	bl	_ZN8asiodnp39IOHandlerD1Ev
	mov	x0, x19
	mov	x1, 800
	ldr	x19, [sp, 16]
	ldp	x29, x30, [sp], 32
	.cfi_restore 30
	.cfi_restore 29
	.cfi_restore 19
	.cfi_def_cfa_offset 0
	b	_ZdlPvm
	.cfi_endproc
.LFE7649:
	.size	_ZN8asiodnp39IOHandlerD0Ev, .-_ZN8asiodnp39IOHandlerD0Ev
	.align	2
	.p2align 4,,11
	.weak	_ZThn8_N8asiodnp39IOHandlerD0Ev
	.type	_ZThn8_N8asiodnp39IOHandlerD0Ev, %function
_ZThn8_N8asiodnp39IOHandlerD0Ev:
.LFB10644:
	.cfi_startproc
	stp	x29, x30, [sp, -32]!
	.cfi_def_cfa_offset 32
	.cfi_offset 29, -32
	.cfi_offset 30, -24
	mov	x29, sp
	str	x19, [sp, 16]
	.cfi_offset 19, -16
	sub	x19, x0, #8
	mov	x0, x19
	bl	_ZN8asiodnp39IOHandlerD1Ev
	mov	x0, x19
	mov	x1, 800
	ldr	x19, [sp, 16]
	ldp	x29, x30, [sp], 32
	.cfi_restore 30
	.cfi_restore 29
	.cfi_restore 19
	.cfi_def_cfa_offset 0
	b	_ZdlPvm
	.cfi_endproc
.LFE10644:
	.size	_ZThn8_N8asiodnp39IOHandlerD0Ev, .-_ZThn8_N8asiodnp39IOHandlerD0Ev
	.section	.text._ZNSt16_Sp_counted_baseILN9__gnu_cxx12_Lock_policyE2EE10_M_releaseEv,"axG",@progbits,_ZNSt16_Sp_counted_baseILN9__gnu_cxx12_Lock_policyE2EE10_M_releaseEv,comdat
	.align	2
	.p2align 4,,11
	.weak	_ZNSt16_Sp_counted_baseILN9__gnu_cxx12_Lock_policyE2EE10_M_releaseEv
	.type	_ZNSt16_Sp_counted_baseILN9__gnu_cxx12_Lock_policyE2EE10_M_releaseEv, %function
_ZNSt16_Sp_counted_baseILN9__gnu_cxx12_Lock_policyE2EE10_M_releaseEv:
.LFB8797:
	.cfi_startproc
	stp	x29, x30, [sp, -32]!
	.cfi_def_cfa_offset 32
	.cfi_offset 29, -32
	.cfi_offset 30, -24
	mov	x29, sp
	stp	x19, x20, [sp, 16]
	.cfi_offset 19, -16
	.cfi_offset 20, -8
	adrp	x20, :got:__libc_single_threaded
	mov	x19, x0
	ldr	x0, [x20, #:got_lo12:__libc_single_threaded]
	ldrb	w0, [x0]
	cbz	w0, .L734
	ldr	w0, [x19, 8]
	sub	w1, w0, #1
	str	w1, [x19, 8]
.L735:
	cmp	w0, 1
	beq	.L742
.L733:
	ldp	x19, x20, [sp, 16]
	ldp	x29, x30, [sp], 32
	.cfi_remember_state
	.cfi_restore 30
	.cfi_restore 29
	.cfi_restore 19
	.cfi_restore 20
	.cfi_def_cfa_offset 0
	ret
	.p2align 2,,3
.L742:
	.cfi_restore_state
	ldr	x1, [x19]
	mov	x0, x19
	ldr	x1, [x1, 16]
	blr	x1
	ldr	x20, [x20, #:got_lo12:__libc_single_threaded]
	ldrb	w0, [x20]
	cbz	w0, .L738
	ldr	w0, [x19, 12]
	sub	w1, w0, #1
	str	w1, [x19, 12]
.L739:
	cmp	w0, 1
	bne	.L733
	ldr	x1, [x19]
	mov	x0, x19
	ldp	x19, x20, [sp, 16]
	ldp	x29, x30, [sp], 32
	.cfi_remember_state
	.cfi_restore 30
	.cfi_restore 29
	.cfi_restore 19
	.cfi_restore 20
	.cfi_def_cfa_offset 0
	ldr	x1, [x1, 24]
	mov	x16, x1
	br	x16
	.p2align 2,,3
.L734:
	.cfi_restore_state
	add	x1, x19, 8
	mov	w0, -1
	bl	__aarch64_ldadd4_acq_rel
	b	.L735
	.p2align 2,,3
.L738:
	add	x1, x19, 12
	mov	w0, -1
	bl	__aarch64_ldadd4_acq_rel
	b	.L739
	.cfi_endproc
.LFE8797:
	.size	_ZNSt16_Sp_counted_baseILN9__gnu_cxx12_Lock_policyE2EE10_M_releaseEv, .-_ZNSt16_Sp_counted_baseILN9__gnu_cxx12_Lock_policyE2EE10_M_releaseEv
	.text
	.align	2
	.p2align 4,,11
	.global	_ZN8asiodnp318TCPServerIOHandlerC2ERKN7openpal6LoggerERKSt10shared_ptrINS_16IChannelListenerEERKS5_IN7asiopal8ExecutorEERKNSA_10IPEndpointERSt10error_code
	.type	_ZN8asiodnp318TCPServerIOHandlerC2ERKN7openpal6LoggerERKSt10shared_ptrINS_16IChannelListenerEERKS5_IN7asiopal8ExecutorEERKNSA_10IPEndpointERSt10error_code, %function
_ZN8asiodnp318TCPServerIOHandlerC2ERKN7openpal6LoggerERKSt10shared_ptrINS_16IChannelListenerEERKS5_IN7asiopal8ExecutorEERKNSA_10IPEndpointERSt10error_code:
.LFB7758:
	.cfi_startproc
	.cfi_personality 0x9b,DW.ref.__gxx_personality_v0
	.cfi_lsda 0x1b,.LLSDA7758
	stp	x29, x30, [sp, -80]!
	.cfi_def_cfa_offset 80
	.cfi_offset 29, -80
	.cfi_offset 30, -72
	adrp	x5, :got:__stack_chk_guard
	mov	x29, sp
	ldr	x5, [x5, #:got_lo12:__stack_chk_guard]
	stp	x19, x20, [sp, 16]
	.cfi_offset 19, -64
	.cfi_offset 20, -56
	mov	x20, x3
	stp	x21, x22, [sp, 32]
	mov	x19, x0
	.cfi_offset 21, -48
	.cfi_offset 22, -40
	mov	x21, x4
	str	x23, [sp, 48]
	.cfi_offset 23, -32
	ldr	x3, [x5]
	str	x3, [sp, 72]
	mov	x3, 0
.LEHB11:
	bl	_ZN8asiodnp39IOHandlerC2ERKN7openpal6LoggerERKSt10shared_ptrINS_16IChannelListenerEE
.LEHE11:
	adrp	x0, :got:_ZTVN8asiodnp318TCPServerIOHandlerE
	ldr	x0, [x0, #:got_lo12:_ZTVN8asiodnp318TCPServerIOHandlerE]
	add	x1, x0, 16
	add	x0, x0, 104
	stp	x1, x0, [x19]
	ldr	q0, [x20]
	umov	x1, v0.d[1]
	str	q0, [x19, 800]
	cbz	x1, .L744
	adrp	x0, :got:__libc_single_threaded
	ldr	x0, [x0, #:got_lo12:__libc_single_threaded]
	ldrb	w0, [x0]
	cbz	w0, .L745
	ldr	w0, [x1, 8]
	add	w0, w0, 1
	str	w0, [x1, 8]
.L744:
	add	x0, x19, 832
	add	x23, x19, 816
	ldr	x20, [x21, 8]
	str	x0, [x19, 816]
	ldr	x22, [x21]
	cmn	x22, x20
	ccmp	x22, 0, 0, ne
	beq	.L766
	str	x20, [sp, 64]
	cmp	x20, 15
	bhi	.L767
	cmp	x20, 1
	bne	.L749
	ldrb	w1, [x22]
	strb	w1, [x19, 832]
.L750:
	str	x20, [x23, 8]
	add	x19, x19, 1024
	strb	wzr, [x0, x20]
	adrp	x0, :got:__stack_chk_guard
	ldrh	w1, [x21, 32]
	ldr	x0, [x0, #:got_lo12:__stack_chk_guard]
	strh	w1, [x23, 32]
	stp	xzr, xzr, [x19, -168]
	ldr	x2, [sp, 72]
	ldr	x1, [x0]
	subs	x2, x2, x1
	mov	x1, 0
	bne	.L768
	ldp	x19, x20, [sp, 16]
	ldp	x21, x22, [sp, 32]
	ldr	x23, [sp, 48]
	ldp	x29, x30, [sp], 80
	.cfi_remember_state
	.cfi_restore 30
	.cfi_restore 29
	.cfi_restore 23
	.cfi_restore 21
	.cfi_restore 22
	.cfi_restore 19
	.cfi_restore 20
	.cfi_def_cfa_offset 0
	ret
	.p2align 2,,3
.L749:
	.cfi_restore_state
	cbz	x20, .L750
	b	.L748
	.p2align 2,,3
.L745:
	add	x1, x1, 8
	mov	w0, 1
	bl	__aarch64_ldadd4_acq_rel
	b	.L744
	.p2align 2,,3
.L767:
	add	x1, sp, 64
	mov	x0, x23
	mov	x2, 0
.LEHB12:
	bl	_ZNSt7__cxx1112basic_stringIcSt11char_traitsIcESaIcEE9_M_createERmm
	str	x0, [x19, 816]
	ldr	x1, [sp, 64]
	str	x1, [x23, 16]
.L748:
	mov	x2, x20
	mov	x1, x22
	bl	memcpy
	ldr	x20, [sp, 64]
	ldr	x0, [x19, 816]
	b	.L750
.L768:
	bl	__stack_chk_fail
.L766:
	adrp	x0, .LC5
	add	x0, x0, :lo12:.LC5
	bl	_ZSt19__throw_logic_errorPKc
.LEHE12:
.L754:
	ldr	x1, [x19, 808]
	mov	x20, x0
	cbz	x1, .L752
	mov	x0, x1
	bl	_ZNSt16_Sp_counted_baseILN9__gnu_cxx12_Lock_policyE2EE10_M_releaseEv
.L752:
	mov	x0, x19
	bl	_ZN8asiodnp39IOHandlerD2Ev
	mov	x0, x20
.LEHB13:
	bl	_Unwind_Resume
.LEHE13:
	.cfi_endproc
.LFE7758:
	.section	.gcc_except_table
.LLSDA7758:
	.byte	0xff
	.byte	0xff
	.byte	0x1
	.uleb128 .LLSDACSE7758-.LLSDACSB7758
.LLSDACSB7758:
	.uleb128 .LEHB11-.LFB7758
	.uleb128 .LEHE11-.LEHB11
	.uleb128 0
	.uleb128 0
	.uleb128 .LEHB12-.LFB7758
	.uleb128 .LEHE12-.LEHB12
	.uleb128 .L754-.LFB7758
	.uleb128 0
	.uleb128 .LEHB13-.LFB7758
	.uleb128 .LEHE13-.LEHB13
	.uleb128 0
	.uleb128 0
.LLSDACSE7758:
	.text
	.size	_ZN8asiodnp318TCPServerIOHandlerC2ERKN7openpal6LoggerERKSt10shared_ptrINS_16IChannelListenerEERKS5_IN7asiopal8ExecutorEERKNSA_10IPEndpointERSt10error_code, .-_ZN8asiodnp318TCPServerIOHandlerC2ERKN7openpal6LoggerERKSt10shared_ptrINS_16IChannelListenerEERKS5_IN7asiopal8ExecutorEERKNSA_10IPEndpointERSt10error_code
	.global	_ZN8asiodnp318TCPServerIOHandlerC1ERKN7openpal6LoggerERKSt10shared_ptrINS_16IChannelListenerEERKS5_IN7asiopal8ExecutorEERKNSA_10IPEndpointERSt10error_code
	.set	_ZN8asiodnp318TCPServerIOHandlerC1ERKN7openpal6LoggerERKSt10shared_ptrINS_16IChannelListenerEERKS5_IN7asiopal8ExecutorEERKNSA_10IPEndpointERSt10error_code,_ZN8asiodnp318TCPServerIOHandlerC2ERKN7openpal6LoggerERKSt10shared_ptrINS_16IChannelListenerEERKS5_IN7asiopal8ExecutorEERKNSA_10IPEndpointERSt10error_code
	.global	__aarch64_cas4_acq_rel
	.section	.rodata.str1.8,"aMS",@progbits,1
	.align	3
.LC21:
	.string	"/home/jaehyun/OpenPLC_v3/utils/dnp3_src/cpp/libs/src/asiodnp3/TCPServerIOHandler.cpp(81)"
	.text
	.align	2
	.p2align 4,,11
	.global	_ZN8asiodnp318TCPServerIOHandler18BeginChannelAcceptEv
	.type	_ZN8asiodnp318TCPServerIOHandler18BeginChannelAcceptEv, %function
_ZN8asiodnp318TCPServerIOHandler18BeginChannelAcceptEv:
.LFB7761:
	.cfi_startproc
	.cfi_personality 0x9b,DW.ref.__gxx_personality_v0
	.cfi_lsda 0x1b,.LLSDA7761
	stp	x29, x30, [sp, -192]!
	.cfi_def_cfa_offset 192
	.cfi_offset 29, -192
	.cfi_offset 30, -184
	adrp	x1, :got:__stack_chk_guard
	mov	x29, sp
	ldr	x1, [x1, #:got_lo12:__stack_chk_guard]
	stp	x19, x20, [sp, 16]
	.cfi_offset 19, -176
	.cfi_offset 20, -168
	mov	x19, x0
	stp	x21, x22, [sp, 32]
	.cfi_offset 21, -160
	.cfi_offset 22, -152
	ldr	x21, [x0, 24]
	ldr	x0, [x1]
	str	x0, [sp, 184]
	mov	x0, 0
	stp	x23, x24, [sp, 48]
	.cfi_offset 24, -136
	.cfi_offset 23, -144
	cbz	x21, .L770
	add	x24, x21, 8
	ldr	w20, [x24]
.L772:
	cbz	w20, .L770
	add	w1, w20, 1
	mov	w0, w20
	mov	x2, x24
	stp	x25, x26, [sp, 64]
	.cfi_offset 26, -120
	.cfi_offset 25, -128
	bl	__aarch64_cas4_acq_rel
	cmp	w0, w20
	mov	w20, w0
	bne	.L894
	ldr	x20, [x19, 856]
	ldr	x25, [x19, 16]
	cbz	x20, .L895
	mov	x0, 24
	stp	xzr, xzr, [sp, 120]
	stp	xzr, xzr, [sp, 136]
.LEHB14:
	bl	_Znwm
.LEHE14:
	adrp	x23, :got:__libc_single_threaded
	mov	x22, x0
	ldr	x0, [x23, #:got_lo12:__libc_single_threaded]
	stp	x25, x21, [x22]
	ldrb	w0, [x0]
	cbz	w0, .L773
	ldr	w0, [x21, 8]
	add	w0, w0, 1
	str	w0, [x21, 8]
.L774:
	adrp	x3, _ZNSt17_Function_handlerIFvRKSt10shared_ptrIN7asiopal8ExecutorEEN4asio19basic_stream_socketINS6_2ip3tcpENS6_21stream_socket_serviceIS9_EEEEEZN8asiodnp318TCPServerIOHandler18BeginChannelAcceptEvEUlS5_SC_E_E9_M_invokeERKSt9_Any_dataS5_OSC_
	adrp	x4, _ZNSt17_Function_handlerIFvRKSt10shared_ptrIN7asiopal8ExecutorEEN4asio19basic_stream_socketINS6_2ip3tcpENS6_21stream_socket_serviceIS9_EEEEEZN8asiodnp318TCPServerIOHandler18BeginChannelAcceptEvEUlS5_SC_E_E10_M_managerERSt9_Any_dataRKSI_St18_Manager_operation
	add	x3, x3, :lo12:_ZNSt17_Function_handlerIFvRKSt10shared_ptrIN7asiopal8ExecutorEEN4asio19basic_stream_socketINS6_2ip3tcpENS6_21stream_socket_serviceIS9_EEEEEZN8asiodnp318TCPServerIOHandler18BeginChannelAcceptEvEUlS5_SC_E_E9_M_invokeERKSt9_Any_dataS5_OSC_
	add	x4, x4, :lo12:_ZNSt17_Function_handlerIFvRKSt10shared_ptrIN7asiopal8ExecutorEEN4asio19basic_stream_socketINS6_2ip3tcpENS6_21stream_socket_serviceIS9_EEEEEZN8asiodnp318TCPServerIOHandler18BeginChannelAcceptEvEUlS5_SC_E_E10_M_managerERSt9_Any_dataRKSI_St18_Manager_operation
	str	x19, [x22, 16]
	add	x25, sp, 120
	add	x26, sp, 152
	mov	x1, x25
	mov	x0, x26
	mov	w2, 2
	str	x22, [sp, 120]
	stp	x4, x3, [sp, 136]
	stp	xzr, xzr, [sp, 152]
	stp	xzr, xzr, [sp, 168]
.LEHB15:
	bl	_ZNSt17_Function_handlerIFvRKSt10shared_ptrIN7asiopal8ExecutorEEN4asio19basic_stream_socketINS6_2ip3tcpENS6_21stream_socket_serviceIS9_EEEEEZN8asiodnp318TCPServerIOHandler18BeginChannelAcceptEvEUlS5_SC_E_E10_M_managerERSt9_Any_dataRKSI_St18_Manager_operation
.LEHE15:
	ldp	x0, x1, [x20, 208]
	ldp	x2, x3, [sp, 152]
	stp	x0, x1, [sp, 152]
	ldp	x1, x0, [sp, 136]
	stp	x2, x3, [x20, 208]
	ldr	x3, [x20, 224]
	str	x3, [sp, 168]
	str	x1, [x20, 224]
	ldr	x1, [x20, 232]
	str	x1, [sp, 176]
	str	x0, [x20, 232]
	cbz	x3, .L780
	mov	x1, x26
	mov	x0, x26
	mov	w2, 3
	blr	x3
.L780:
	mov	x0, x20
.LEHB16:
	bl	_ZN7asiopal9TCPServer11StartAcceptEv
.LEHE16:
	ldr	x3, [sp, 136]
	cbz	x3, .L785
	mov	x1, x25
	mov	x0, x25
	mov	w2, 3
	blr	x3
.L785:
	ldr	x0, [x23, #:got_lo12:__libc_single_threaded]
	ldrb	w0, [x0]
	cbz	w0, .L816
	ldr	w0, [x21, 8]
	sub	w1, w0, #1
	str	w1, [x21, 8]
.L817:
	cmp	w0, 1
	beq	.L896
.L769:
	adrp	x0, :got:__stack_chk_guard
	ldr	x0, [x0, #:got_lo12:__stack_chk_guard]
	ldr	x2, [sp, 184]
	ldr	x1, [x0]
	subs	x2, x2, x1
	mov	x1, 0
	bne	.L893
	ldp	x19, x20, [sp, 16]
	ldp	x21, x22, [sp, 32]
	ldp	x23, x24, [sp, 48]
	.cfi_remember_state
	.cfi_restore 24
	.cfi_restore 23
	ldp	x25, x26, [sp, 64]
	.cfi_restore 26
	.cfi_restore 25
	ldp	x29, x30, [sp], 192
	.cfi_restore 30
	.cfi_restore 29
	.cfi_restore 21
	.cfi_restore 22
	.cfi_restore 19
	.cfi_restore 20
	.cfi_def_cfa_offset 0
	ret
	.p2align 2,,3
.L895:
	.cfi_restore_state
	str	x27, [sp, 80]
	.cfi_offset 27, -112
	add	x26, x19, 32
	str	wzr, [sp, 104]
	bl	_ZNSt3_V215system_categoryEv
	mov	x1, x0
	add	x23, x19, 800
	add	x27, x19, 816
	mov	x0, 256
	str	x1, [sp, 112]
.LEHB17:
	bl	_Znwm
.LEHE17:
	adrp	x1, :got:_ZTVSt23_Sp_counted_ptr_inplaceIN8asiodnp318TCPServerIOHandler6ServerESaIS2_ELN9__gnu_cxx12_Lock_policyE2EE
	movi	v0.2s, 0x1
	mov	x20, x0
	mov	x22, x0
	ldr	x0, [x1, #:got_lo12:_ZTVSt23_Sp_counted_ptr_inplaceIN8asiodnp318TCPServerIOHandler6ServerESaIS2_ELN9__gnu_cxx12_Lock_policyE2EE]
	mov	x3, x27
	str	d0, [x20, 8]
	mov	x2, x23
	add	x0, x0, 16
	str	x0, [x22], 16
	add	x4, sp, 104
	mov	x1, x26
	mov	x0, x22
.LEHB18:
	bl	_ZN7asiopal9TCPServerC2ERKN7openpal6LoggerERKSt10shared_ptrINS_8ExecutorEERKNS_10IPEndpointERSt10error_code
.LEHE18:
	adrp	x0, :got:_ZTVN8asiodnp318TCPServerIOHandler6ServerE
	add	x1, x20, 224
	stp	xzr, xzr, [x20, 224]
	ldr	x0, [x0, #:got_lo12:_ZTVN8asiodnp318TCPServerIOHandler6ServerE]
	add	x0, x0, 16
	str	x0, [x20, 16]
	stp	xzr, xzr, [x1, 16]
	ldr	x0, [x20, 32]
	cbz	x0, .L787
	add	x1, x0, 8
	ldr	w1, [x1]
	cbz	w1, .L787
.L789:
	ldr	x27, [x19, 864]
	str	x22, [x19, 856]
	str	x20, [x19, 864]
	cbz	x27, .L796
	adrp	x23, :got:__libc_single_threaded
	ldr	x0, [x23, #:got_lo12:__libc_single_threaded]
	ldrb	w0, [x0]
	cbz	w0, .L797
	ldr	w0, [x27, 8]
	sub	w1, w0, #1
	str	w1, [x27, 8]
.L798:
	cmp	w0, 1
	beq	.L897
.L796:
	ldr	w0, [sp, 104]
	cbz	w0, .L802
	mov	w2, 4
	add	x19, sp, 96
	mov	x1, x19
	mov	x0, x26
	str	w2, [sp, 96]
.LEHB19:
	bl	_ZNK7openpal6Logger9IsEnabledERKNS_10LogFiltersE
.LEHE19:
	tst	w0, 255
	bne	.L882
	adrp	x23, :got:__libc_single_threaded
	ldr	x27, [sp, 80]
	.cfi_restore 27
	b	.L785
	.p2align 2,,3
.L773:
	mov	x1, x24
	mov	w0, 1
	bl	__aarch64_ldadd4_acq_rel
	b	.L774
	.p2align 2,,3
.L787:
	.cfi_offset 27, -112
	adrp	x23, :got:__libc_single_threaded
	str	x22, [x20, 24]
	add	x1, x20, 12
	ldr	x23, [x23, #:got_lo12:__libc_single_threaded]
	ldrb	w2, [x23]
	cbz	w2, .L898
	ldr	w1, [x20, 12]
	mov	x27, x0
	add	w0, w1, 1
	str	w0, [x20, 12]
	cbz	x27, .L791
.L790:
	ldr	w0, [x27, 12]
	sub	w1, w0, #1
	str	w1, [x27, 12]
	b	.L794
	.p2align 2,,3
.L898:
	mov	w0, 1
	bl	__aarch64_ldadd4_acq_rel
	ldr	x27, [x20, 32]
	cbnz	x27, .L899
.L791:
	str	x20, [x20, 32]
	b	.L789
	.p2align 2,,3
.L896:
	.cfi_restore 27
	ldr	x1, [x21]
	mov	x0, x21
	ldr	x1, [x1, 16]
	blr	x1
	ldr	x23, [x23, #:got_lo12:__libc_single_threaded]
	ldrb	w0, [x23]
	cbz	w0, .L820
	ldr	w0, [x21, 12]
	sub	w1, w0, #1
	str	w1, [x21, 12]
.L821:
	cmp	w0, 1
	bne	.L769
	adrp	x0, :got:__stack_chk_guard
	ldr	x0, [x0, #:got_lo12:__stack_chk_guard]
	ldr	x2, [sp, 184]
	ldr	x1, [x0]
	subs	x2, x2, x1
	mov	x1, 0
	bne	.L893
	ldr	x1, [x21]
	mov	x0, x21
	ldp	x19, x20, [sp, 16]
	ldr	x1, [x1, 24]
	ldp	x21, x22, [sp, 32]
	mov	x16, x1
	ldp	x23, x24, [sp, 48]
	.cfi_remember_state
	.cfi_restore 24
	.cfi_restore 23
	ldp	x25, x26, [sp, 64]
	.cfi_restore 26
	.cfi_restore 25
	ldp	x29, x30, [sp], 192
	.cfi_restore 30
	.cfi_restore 29
	.cfi_restore 21
	.cfi_restore 22
	.cfi_restore 19
	.cfi_restore 20
	.cfi_def_cfa_offset 0
	br	x16
	.p2align 2,,3
.L816:
	.cfi_restore_state
	mov	x1, x24
	mov	w0, -1
	bl	__aarch64_ldadd4_acq_rel
	b	.L817
	.p2align 2,,3
.L802:
	.cfi_offset 27, -112
	mov	x0, 24
	stp	xzr, xzr, [sp, 120]
	stp	xzr, xzr, [sp, 136]
	ldr	x20, [x19, 856]
.LEHB20:
	bl	_Znwm
.LEHE20:
	adrp	x23, :got:__libc_single_threaded
	mov	x22, x0
	ldr	x0, [x23, #:got_lo12:__libc_single_threaded]
	stp	x25, x21, [x22]
	ldrb	w0, [x0]
	cbz	w0, .L805
	ldr	w0, [x21, 8]
	add	w0, w0, 1
	str	w0, [x21, 8]
.L806:
	adrp	x3, _ZNSt17_Function_handlerIFvRKSt10shared_ptrIN7asiopal8ExecutorEEN4asio19basic_stream_socketINS6_2ip3tcpENS6_21stream_socket_serviceIS9_EEEEEZN8asiodnp318TCPServerIOHandler18BeginChannelAcceptEvEUlS5_SC_E_E9_M_invokeERKSt9_Any_dataS5_OSC_
	adrp	x4, _ZNSt17_Function_handlerIFvRKSt10shared_ptrIN7asiopal8ExecutorEEN4asio19basic_stream_socketINS6_2ip3tcpENS6_21stream_socket_serviceIS9_EEEEEZN8asiodnp318TCPServerIOHandler18BeginChannelAcceptEvEUlS5_SC_E_E10_M_managerERSt9_Any_dataRKSI_St18_Manager_operation
	add	x3, x3, :lo12:_ZNSt17_Function_handlerIFvRKSt10shared_ptrIN7asiopal8ExecutorEEN4asio19basic_stream_socketINS6_2ip3tcpENS6_21stream_socket_serviceIS9_EEEEEZN8asiodnp318TCPServerIOHandler18BeginChannelAcceptEvEUlS5_SC_E_E9_M_invokeERKSt9_Any_dataS5_OSC_
	add	x4, x4, :lo12:_ZNSt17_Function_handlerIFvRKSt10shared_ptrIN7asiopal8ExecutorEEN4asio19basic_stream_socketINS6_2ip3tcpENS6_21stream_socket_serviceIS9_EEEEEZN8asiodnp318TCPServerIOHandler18BeginChannelAcceptEvEUlS5_SC_E_E10_M_managerERSt9_Any_dataRKSI_St18_Manager_operation
	str	x19, [x22, 16]
	add	x25, sp, 120
	add	x26, sp, 152
	mov	x1, x25
	mov	x0, x26
	mov	w2, 2
	str	x22, [sp, 120]
	stp	x4, x3, [sp, 136]
	stp	xzr, xzr, [sp, 152]
	stp	xzr, xzr, [sp, 168]
.LEHB21:
	bl	_ZNSt17_Function_handlerIFvRKSt10shared_ptrIN7asiopal8ExecutorEEN4asio19basic_stream_socketINS6_2ip3tcpENS6_21stream_socket_serviceIS9_EEEEEZN8asiodnp318TCPServerIOHandler18BeginChannelAcceptEvEUlS5_SC_E_E10_M_managerERSt9_Any_dataRKSI_St18_Manager_operation
.LEHE21:
	ldp	x0, x1, [x20, 208]
	ldp	x2, x3, [sp, 152]
	stp	x0, x1, [sp, 152]
	ldp	x1, x0, [sp, 136]
	stp	x2, x3, [x20, 208]
	ldr	x3, [x20, 224]
	str	x3, [sp, 168]
	str	x1, [x20, 224]
	ldr	x1, [x20, 232]
	str	x1, [sp, 176]
	str	x0, [x20, 232]
	cbz	x3, .L811
	mov	x1, x26
	mov	x0, x26
	mov	w2, 3
	blr	x3
.L811:
	mov	x0, x20
.LEHB22:
	bl	_ZN7asiopal9TCPServer11StartAcceptEv
.LEHE22:
	ldr	x3, [sp, 136]
	cbz	x3, .L890
	mov	x1, x25
	mov	x0, x25
	mov	w2, 3
	blr	x3
	ldr	x27, [sp, 80]
	.cfi_remember_state
	.cfi_restore 27
	b	.L785
	.p2align 2,,3
.L882:
	.cfi_restore_state
	ldr	x0, [sp, 112]
	mov	w2, 4
	str	w2, [sp, 96]
	add	x8, sp, 152
	ldr	w1, [sp, 104]
	ldr	x2, [x0]
	ldr	x2, [x2, 32]
.LEHB23:
	blr	x2
.LEHE23:
	ldr	x3, [sp, 152]
	adrp	x2, .LC21
	mov	x1, x19
	mov	x0, x26
	add	x2, x2, :lo12:.LC21
.LEHB24:
	bl	_ZN7openpal6Logger3LogERKNS_10LogFiltersEPKcS5_
.LEHE24:
	ldr	x0, [sp, 152]
	add	x1, sp, 168
	adrp	x23, :got:__libc_single_threaded
	cmp	x0, x1
	bne	.L900
.L890:
	ldr	x27, [sp, 80]
	.cfi_restore 27
	b	.L785
	.p2align 2,,3
.L820:
	add	x1, x21, 12
	mov	w0, -1
	bl	__aarch64_ldadd4_acq_rel
	b	.L821
	.p2align 2,,3
.L900:
	.cfi_offset 27, -112
	ldr	x1, [sp, 168]
	add	x1, x1, 1
	bl	_ZdlPvm
	ldr	x27, [sp, 80]
	.cfi_remember_state
	.cfi_restore 27
	b	.L785
	.p2align 2,,3
.L899:
	.cfi_restore_state
	ldrb	w0, [x23]
	cbnz	w0, .L790
	add	x1, x27, 12
	mov	w0, -1
	bl	__aarch64_ldadd4_acq_rel
.L794:
	cmp	w0, 1
	bne	.L791
	ldr	x1, [x27]
	mov	x0, x27
	ldr	x1, [x1, 24]
	blr	x1
	str	x20, [x20, 32]
	b	.L789
	.p2align 2,,3
.L897:
	ldr	x1, [x27]
	mov	x0, x27
	ldr	x1, [x1, 16]
	blr	x1
	ldr	x23, [x23, #:got_lo12:__libc_single_threaded]
	ldrb	w0, [x23]
	cbz	w0, .L800
	ldr	w0, [x27, 12]
	sub	w1, w0, #1
	str	w1, [x27, 12]
.L801:
	cmp	w0, 1
	bne	.L796
	ldr	x1, [x27]
	mov	x0, x27
	ldr	x1, [x1, 24]
	blr	x1
	b	.L796
	.p2align 2,,3
.L797:
	add	x1, x27, 8
	mov	w0, -1
	bl	__aarch64_ldadd4_acq_rel
	b	.L798
	.p2align 2,,3
.L805:
	mov	x1, x24
	mov	w0, 1
	bl	__aarch64_ldadd4_acq_rel
	b	.L806
	.p2align 2,,3
.L800:
	add	x1, x27, 12
	mov	w0, -1
	bl	__aarch64_ldadd4_acq_rel
	b	.L801
.L894:
	.cfi_restore 27
	ldp	x25, x26, [sp, 64]
	.cfi_remember_state
	.cfi_restore 26
	.cfi_restore 25
	b	.L772
.L893:
	.cfi_restore_state
	str	x27, [sp, 80]
	.cfi_offset 27, -112
	bl	__stack_chk_fail
.L835:
	ldr	x2, [sp, 152]
	add	x1, sp, 168
	mov	x19, x0
	cmp	x2, x1
	beq	.L778
	ldr	x1, [sp, 168]
	mov	x0, x2
	add	x1, x1, 1
	bl	_ZdlPvm
.L778:
	mov	x0, x21
	bl	_ZNSt16_Sp_counted_baseILN9__gnu_cxx12_Lock_policyE2EE10_M_releaseEv
	mov	x0, x19
.LEHB25:
	bl	_Unwind_Resume
.LEHE25:
.L834:
	.cfi_restore 27
	mov	x19, x0
.L783:
	ldr	x3, [sp, 136]
	cbz	x3, .L891
	mov	x1, x25
	mov	x0, x25
	mov	w2, 3
	blr	x3
	str	x27, [sp, 80]
	.cfi_offset 27, -112
	b	.L778
.L840:
	ldr	x3, [sp, 136]
	mov	x19, x0
	cbz	x3, .L778
	add	x1, sp, 120
	mov	w2, 3
	mov	x0, x1
	blr	x3
	b	.L778
.L770:
	.cfi_restore 25
	.cfi_restore 26
	.cfi_restore 27
	mov	x0, 8
	stp	x25, x26, [sp, 64]
	.cfi_offset 26, -120
	.cfi_offset 25, -128
	str	x27, [sp, 80]
	.cfi_offset 27, -112
	bl	__cxa_allocate_exception
	adrp	x3, :got:_ZTVSt12bad_weak_ptr
	adrp	x2, :got:_ZNSt12bad_weak_ptrD1Ev
	adrp	x1, :got:_ZTISt12bad_weak_ptr
	ldr	x3, [x3, #:got_lo12:_ZTVSt12bad_weak_ptr]
	ldr	x2, [x2, #:got_lo12:_ZNSt12bad_weak_ptrD1Ev]
	add	x3, x3, 16
	ldr	x1, [x1, #:got_lo12:_ZTISt12bad_weak_ptr]
	str	x3, [x0]
.LEHB26:
	bl	__cxa_throw
.LEHE26:
.L837:
	.cfi_restore 27
	ldr	x3, [sp, 136]
	mov	x19, x0
	cbz	x3, .L891
	add	x1, sp, 120
	mov	w2, 3
	mov	x0, x1
	blr	x3
	str	x27, [sp, 80]
	.cfi_offset 27, -112
	b	.L778
.L833:
	mov	x19, x0
	b	.L778
.L839:
	mov	x19, x0
	mov	x1, 256
	mov	x0, x20
	bl	_ZdlPvm
	b	.L778
.L838:
	.cfi_restore 27
	ldr	x3, [sp, 168]
	mov	x19, x0
	cbz	x3, .L783
	mov	x1, x26
	mov	x0, x26
	mov	w2, 3
	blr	x3
	b	.L783
.L836:
	.cfi_offset 27, -112
	mov	x19, x0
	b	.L814
.L891:
	.cfi_restore 27
	str	x27, [sp, 80]
	.cfi_offset 27, -112
	b	.L778
.L841:
	ldr	x3, [sp, 168]
	mov	x19, x0
	cbz	x3, .L814
	mov	x1, x26
	mov	x0, x26
	mov	w2, 3
	blr	x3
.L814:
	ldr	x3, [sp, 136]
	cbz	x3, .L778
	mov	x1, x25
	mov	x0, x25
	mov	w2, 3
	blr	x3
	b	.L778
	.cfi_endproc
.LFE7761:
	.section	.gcc_except_table
.LLSDA7761:
	.byte	0xff
	.byte	0xff
	.byte	0x1
	.uleb128 .LLSDACSE7761-.LLSDACSB7761
.LLSDACSB7761:
	.uleb128 .LEHB14-.LFB7761
	.uleb128 .LEHE14-.LEHB14
	.uleb128 .L837-.LFB7761
	.uleb128 0
	.uleb128 .LEHB15-.LFB7761
	.uleb128 .LEHE15-.LEHB15
	.uleb128 .L838-.LFB7761
	.uleb128 0
	.uleb128 .LEHB16-.LFB7761
	.uleb128 .LEHE16-.LEHB16
	.uleb128 .L834-.LFB7761
	.uleb128 0
	.uleb128 .LEHB17-.LFB7761
	.uleb128 .LEHE17-.LEHB17
	.uleb128 .L833-.LFB7761
	.uleb128 0
	.uleb128 .LEHB18-.LFB7761
	.uleb128 .LEHE18-.LEHB18
	.uleb128 .L839-.LFB7761
	.uleb128 0
	.uleb128 .LEHB19-.LFB7761
	.uleb128 .LEHE19-.LEHB19
	.uleb128 .L833-.LFB7761
	.uleb128 0
	.uleb128 .LEHB20-.LFB7761
	.uleb128 .LEHE20-.LEHB20
	.uleb128 .L840-.LFB7761
	.uleb128 0
	.uleb128 .LEHB21-.LFB7761
	.uleb128 .LEHE21-.LEHB21
	.uleb128 .L841-.LFB7761
	.uleb128 0
	.uleb128 .LEHB22-.LFB7761
	.uleb128 .LEHE22-.LEHB22
	.uleb128 .L836-.LFB7761
	.uleb128 0
	.uleb128 .LEHB23-.LFB7761
	.uleb128 .LEHE23-.LEHB23
	.uleb128 .L833-.LFB7761
	.uleb128 0
	.uleb128 .LEHB24-.LFB7761
	.uleb128 .LEHE24-.LEHB24
	.uleb128 .L835-.LFB7761
	.uleb128 0
	.uleb128 .LEHB25-.LFB7761
	.uleb128 .LEHE25-.LEHB25
	.uleb128 0
	.uleb128 0
	.uleb128 .LEHB26-.LFB7761
	.uleb128 .LEHE26-.LEHB26
	.uleb128 0
	.uleb128 0
.LLSDACSE7761:
	.text
	.size	_ZN8asiodnp318TCPServerIOHandler18BeginChannelAcceptEv, .-_ZN8asiodnp318TCPServerIOHandler18BeginChannelAcceptEv
	.align	2
	.p2align 4,,11
	.type	_ZNSt17_Function_handlerIFvRKSt10shared_ptrIN7asiopal8ExecutorEEN4asio19basic_stream_socketINS6_2ip3tcpENS6_21stream_socket_serviceIS9_EEEEEZN8asiodnp318TCPServerIOHandler18BeginChannelAcceptEvEUlS5_SC_E_E9_M_invokeERKSt9_Any_dataS5_OSC_, %function
_ZNSt17_Function_handlerIFvRKSt10shared_ptrIN7asiopal8ExecutorEEN4asio19basic_stream_socketINS6_2ip3tcpENS6_21stream_socket_serviceIS9_EEEEEZN8asiodnp318TCPServerIOHandler18BeginChannelAcceptEvEUlS5_SC_E_E9_M_invokeERKSt9_Any_dataS5_OSC_:
.LFB9168:
	.cfi_startproc
	.cfi_personality 0x9b,DW.ref.__gxx_personality_v0
	.cfi_lsda 0x1b,.LLSDA9168
	stp	x29, x30, [sp, -224]!
	.cfi_def_cfa_offset 224
	.cfi_offset 29, -224
	.cfi_offset 30, -216
	adrp	x3, :got:__stack_chk_guard
	mov	x29, sp
	ldr	x3, [x3, #:got_lo12:__stack_chk_guard]
	stp	x19, x20, [sp, 16]
	ldr	w5, [x2, 16]
	stp	x21, x22, [sp, 32]
	stp	x23, x24, [sp, 48]
	stp	x25, x26, [sp, 64]
	.cfi_offset 19, -208
	.cfi_offset 20, -200
	.cfi_offset 21, -192
	.cfi_offset 22, -184
	.cfi_offset 23, -176
	.cfi_offset 24, -168
	.cfi_offset 25, -160
	.cfi_offset 26, -152
	ldr	w25, [x2]
	ldr	x0, [x0]
	ldr	x23, [x2, 8]
	ldr	x22, [x2, 24]
	str	x27, [sp, 80]
	.cfi_offset 27, -144
	ldr	x4, [x3]
	str	x4, [sp, 216]
	mov	x4, 0
	ldrb	w24, [x2, 4]
	strb	wzr, [x2, 4]
	mov	w4, -1
	mov	w3, 2
	str	w25, [sp, 120]
	ldp	x27, x19, [x1]
	str	w4, [x2]
	str	xzr, [x2, 8]
	str	w3, [x2, 16]
	strb	w24, [sp, 124]
	str	x23, [sp, 128]
	str	w5, [sp, 136]
	str	x22, [sp, 144]
	ldr	x26, [x0, 16]
	cbz	x19, .L902
	adrp	x0, :got:__libc_single_threaded
	ldr	x0, [x0, #:got_lo12:__libc_single_threaded]
	ldrb	w0, [x0]
	cbz	w0, .L903
	ldr	w0, [x19, 8]
	add	w0, w0, 1
	str	w0, [x19, 8]
.L902:
	ldr	w1, [sp, 136]
	mov	w3, -1
	mov	w2, 2
	mov	x0, 112
	str	w3, [sp, 120]
	strb	wzr, [sp, 124]
	str	xzr, [sp, 128]
	str	w2, [sp, 136]
	str	w25, [sp, 152]
	strb	w24, [sp, 156]
	str	x23, [sp, 160]
	str	w1, [sp, 168]
	str	x22, [sp, 176]
.LEHB27:
	bl	_Znwm
.LEHE27:
	movi	v0.2s, 0x1
	adrp	x1, :got:_ZTVSt23_Sp_counted_ptr_inplaceIN7asiopal13SocketChannelESaIS1_ELN9__gnu_cxx12_Lock_policyE2EE
	mov	x21, x0
	stp	x27, x19, [sp, 104]
	mov	x20, x0
	ldr	x1, [x1, #:got_lo12:_ZTVSt23_Sp_counted_ptr_inplaceIN7asiopal13SocketChannelESaIS1_ELN9__gnu_cxx12_Lock_policyE2EE]
	str	d0, [x0, 8]
	add	x1, x1, 16
	str	x1, [x21], 16
	cbz	x19, .L904
	adrp	x0, :got:__libc_single_threaded
	ldr	x0, [x0, #:got_lo12:__libc_single_threaded]
	ldrb	w0, [x0]
	cbz	w0, .L905
	ldr	w0, [x19, 8]
	add	w0, w0, 1
	str	w0, [x19, 8]
.L904:
	ldr	w3, [sp, 168]
	mov	w5, -1
	mov	w4, 2
	add	x27, sp, 184
	mov	x2, x27
	add	x1, sp, 104
	mov	x0, x21
	str	w5, [sp, 152]
	strb	wzr, [sp, 156]
	str	xzr, [sp, 160]
	str	w4, [sp, 168]
	str	w25, [sp, 184]
	strb	w24, [sp, 188]
	str	x23, [sp, 192]
	str	w3, [sp, 200]
	str	x22, [sp, 208]
.LEHB28:
	bl	_ZN7asiopal13SocketChannelC1ESt10shared_ptrINS_8ExecutorEEN4asio19basic_stream_socketINS4_2ip3tcpENS4_21stream_socket_serviceIS7_EEEE
.LEHE28:
	ldr	x0, [sp, 208]
	mov	x1, x27
	add	x0, x0, 40
	bl	_ZN4asio6detail28reactive_socket_service_base7destroyERNS1_24base_implementation_typeE
	ldr	x23, [sp, 112]
	cbz	x23, .L911
	adrp	x22, :got:__libc_single_threaded
	ldr	x0, [x22, #:got_lo12:__libc_single_threaded]
	ldrb	w0, [x0]
	cbz	w0, .L907
	ldr	w0, [x23, 8]
	sub	w1, w0, #1
	str	w1, [x23, 8]
.L908:
	cmp	w0, 1
	beq	.L973
.L911:
	ldr	x0, [x20, 32]
	cbz	x0, .L915
	add	x1, x0, 8
	ldr	w1, [x1]
	cbz	w1, .L915
.L916:
	mov	x1, x27
	mov	x0, x26
	stp	x21, x20, [sp, 184]
.LEHB29:
	bl	_ZN8asiodnp39IOHandler12OnNewChannelERKSt10shared_ptrIN7asiopal13IAsyncChannelEE
.LEHE29:
	ldr	x20, [sp, 192]
	cbz	x20, .L923
	adrp	x22, :got:__libc_single_threaded
	ldr	x0, [x22, #:got_lo12:__libc_single_threaded]
	ldrb	w0, [x0]
	cbz	w0, .L924
	ldr	w0, [x20, 8]
	sub	w1, w0, #1
	str	w1, [x20, 8]
.L925:
	cmp	w0, 1
	beq	.L974
.L923:
	ldr	x0, [sp, 176]
	add	x1, sp, 152
	add	x0, x0, 40
	bl	_ZN4asio6detail28reactive_socket_service_base7destroyERNS1_24base_implementation_typeE
	cbz	x19, .L930
	adrp	x22, :got:__libc_single_threaded
	ldr	x0, [x22, #:got_lo12:__libc_single_threaded]
	ldrb	w0, [x0]
	cbz	w0, .L931
	ldr	w0, [x19, 8]
	sub	w1, w0, #1
	str	w1, [x19, 8]
.L932:
	cmp	w0, 1
	beq	.L975
.L930:
	ldr	x0, [sp, 144]
	add	x1, sp, 120
	add	x0, x0, 40
	bl	_ZN4asio6detail28reactive_socket_service_base7destroyERNS1_24base_implementation_typeE
	adrp	x0, :got:__stack_chk_guard
	ldr	x0, [x0, #:got_lo12:__stack_chk_guard]
	ldr	x2, [sp, 216]
	ldr	x1, [x0]
	subs	x2, x2, x1
	mov	x1, 0
	bne	.L976
	ldp	x19, x20, [sp, 16]
	ldp	x21, x22, [sp, 32]
	ldp	x23, x24, [sp, 48]
	ldp	x25, x26, [sp, 64]
	ldr	x27, [sp, 80]
	ldp	x29, x30, [sp], 224
	.cfi_remember_state
	.cfi_restore 30
	.cfi_restore 29
	.cfi_restore 27
	.cfi_restore 25
	.cfi_restore 26
	.cfi_restore 23
	.cfi_restore 24
	.cfi_restore 21
	.cfi_restore 22
	.cfi_restore 19
	.cfi_restore 20
	.cfi_def_cfa_offset 0
	ret
	.p2align 2,,3
.L903:
	.cfi_restore_state
	add	x1, x19, 8
	mov	w0, 1
	bl	__aarch64_ldadd4_acq_rel
	ldrb	w24, [sp, 124]
	ldr	w25, [sp, 120]
	ldr	x23, [sp, 128]
	ldr	x22, [sp, 144]
	b	.L902
	.p2align 2,,3
.L905:
	add	x1, x19, 8
	mov	w0, 1
	bl	__aarch64_ldadd4_acq_rel
	ldrb	w24, [sp, 156]
	ldr	w25, [sp, 152]
	ldr	x23, [sp, 160]
	ldr	x22, [sp, 176]
	b	.L904
	.p2align 2,,3
.L915:
	adrp	x23, :got:__libc_single_threaded
	str	x21, [x20, 24]
	ldr	x23, [x23, #:got_lo12:__libc_single_threaded]
	ldrb	w1, [x23]
	cbz	w1, .L977
	ldr	w1, [x20, 12]
	mov	x22, x0
	add	w0, w1, 1
	str	w0, [x20, 12]
	cbz	x22, .L918
.L917:
	ldr	w0, [x22, 12]
	sub	w1, w0, #1
	str	w1, [x22, 12]
.L921:
	cmp	w0, 1
	bne	.L918
	ldr	x1, [x22]
	mov	x0, x22
	ldr	x1, [x1, 24]
	blr	x1
	.p2align 3,,7
.L918:
	str	x20, [x20, 32]
	b	.L916
	.p2align 2,,3
.L977:
	add	x1, x20, 12
	mov	w0, 1
	bl	__aarch64_ldadd4_acq_rel
	ldr	x22, [x20, 32]
	cbz	x22, .L918
	ldrb	w0, [x23]
	cbnz	w0, .L917
	add	x1, x22, 12
	mov	w0, -1
	bl	__aarch64_ldadd4_acq_rel
	b	.L921
	.p2align 2,,3
.L975:
	ldr	x1, [x19]
	mov	x0, x19
	ldr	x1, [x1, 16]
	blr	x1
	ldr	x22, [x22, #:got_lo12:__libc_single_threaded]
	ldrb	w0, [x22]
	cbz	w0, .L934
	ldr	w0, [x19, 12]
	sub	w1, w0, #1
	str	w1, [x19, 12]
.L935:
	cmp	w0, 1
	bne	.L930
	ldr	x1, [x19]
	mov	x0, x19
	ldr	x1, [x1, 24]
	blr	x1
	b	.L930
	.p2align 2,,3
.L974:
	ldr	x1, [x20]
	mov	x0, x20
	ldr	x1, [x1, 16]
	blr	x1
	ldr	x22, [x22, #:got_lo12:__libc_single_threaded]
	ldrb	w0, [x22]
	cbz	w0, .L927
	ldr	w0, [x20, 12]
	sub	w1, w0, #1
	str	w1, [x20, 12]
.L928:
	cmp	w0, 1
	bne	.L923
	ldr	x1, [x20]
	mov	x0, x20
	ldr	x1, [x1, 24]
	blr	x1
	b	.L923
	.p2align 2,,3
.L973:
	ldr	x1, [x23]
	mov	x0, x23
	ldr	x1, [x1, 16]
	blr	x1
	ldr	x22, [x22, #:got_lo12:__libc_single_threaded]
	ldrb	w0, [x22]
	cbz	w0, .L909
	ldr	w0, [x23, 12]
	sub	w1, w0, #1
	str	w1, [x23, 12]
.L910:
	cmp	w0, 1
	bne	.L911
	ldr	x1, [x23]
	mov	x0, x23
	ldr	x1, [x1, 24]
	blr	x1
	b	.L911
	.p2align 2,,3
.L924:
	add	x1, x20, 8
	mov	w0, -1
	bl	__aarch64_ldadd4_acq_rel
	b	.L925
	.p2align 2,,3
.L907:
	add	x1, x23, 8
	mov	w0, -1
	bl	__aarch64_ldadd4_acq_rel
	b	.L908
	.p2align 2,,3
.L931:
	add	x1, x19, 8
	mov	w0, -1
	bl	__aarch64_ldadd4_acq_rel
	b	.L932
	.p2align 2,,3
.L934:
	add	x1, x19, 12
	mov	w0, -1
	bl	__aarch64_ldadd4_acq_rel
	b	.L935
	.p2align 2,,3
.L909:
	add	x1, x23, 12
	mov	w0, -1
	bl	__aarch64_ldadd4_acq_rel
	b	.L910
	.p2align 2,,3
.L927:
	add	x1, x20, 12
	mov	w0, -1
	bl	__aarch64_ldadd4_acq_rel
	b	.L928
.L976:
	bl	__stack_chk_fail
.L943:
	mov	x20, x0
.L914:
	ldr	x0, [sp, 176]
	add	x1, sp, 152
	add	x0, x0, 40
	bl	_ZN4asio6detail28reactive_socket_service_base7destroyERNS1_24base_implementation_typeE
	cbz	x19, .L938
	mov	x0, x19
	bl	_ZNSt16_Sp_counted_baseILN9__gnu_cxx12_Lock_policyE2EE10_M_releaseEv
.L938:
	ldr	x0, [sp, 144]
	add	x1, sp, 120
	add	x0, x0, 40
	bl	_ZN4asio6detail28reactive_socket_service_base7destroyERNS1_24base_implementation_typeE
	mov	x0, x20
.LEHB30:
	bl	_Unwind_Resume
.LEHE30:
.L945:
	ldr	x2, [sp, 208]
	mov	x21, x0
	mov	x1, x27
	add	x0, x2, 40
	bl	_ZN4asio6detail28reactive_socket_service_base7destroyERNS1_24base_implementation_typeE
	ldr	x0, [sp, 112]
	cbz	x0, .L913
	bl	_ZNSt16_Sp_counted_baseILN9__gnu_cxx12_Lock_policyE2EE10_M_releaseEv
.L913:
	mov	x0, x20
	mov	x1, 112
	mov	x20, x21
	bl	_ZdlPvm
	b	.L914
.L944:
	ldr	x1, [sp, 192]
	mov	x20, x0
	cbz	x1, .L914
	mov	x0, x1
	bl	_ZNSt16_Sp_counted_baseILN9__gnu_cxx12_Lock_policyE2EE10_M_releaseEv
	b	.L914
	.cfi_endproc
.LFE9168:
	.section	.gcc_except_table
.LLSDA9168:
	.byte	0xff
	.byte	0xff
	.byte	0x1
	.uleb128 .LLSDACSE9168-.LLSDACSB9168
.LLSDACSB9168:
	.uleb128 .LEHB27-.LFB9168
	.uleb128 .LEHE27-.LEHB27
	.uleb128 .L943-.LFB9168
	.uleb128 0
	.uleb128 .LEHB28-.LFB9168
	.uleb128 .LEHE28-.LEHB28
	.uleb128 .L945-.LFB9168
	.uleb128 0
	.uleb128 .LEHB29-.LFB9168
	.uleb128 .LEHE29-.LEHB29
	.uleb128 .L944-.LFB9168
	.uleb128 0
	.uleb128 .LEHB30-.LFB9168
	.uleb128 .LEHE30-.LEHB30
	.uleb128 0
	.uleb128 0
.LLSDACSE9168:
	.text
	.size	_ZNSt17_Function_handlerIFvRKSt10shared_ptrIN7asiopal8ExecutorEEN4asio19basic_stream_socketINS6_2ip3tcpENS6_21stream_socket_serviceIS9_EEEEEZN8asiodnp318TCPServerIOHandler18BeginChannelAcceptEvEUlS5_SC_E_E9_M_invokeERKSt9_Any_dataS5_OSC_, .-_ZNSt17_Function_handlerIFvRKSt10shared_ptrIN7asiopal8ExecutorEEN4asio19basic_stream_socketINS6_2ip3tcpENS6_21stream_socket_serviceIS9_EEEEEZN8asiodnp318TCPServerIOHandler18BeginChannelAcceptEvEUlS5_SC_E_E9_M_invokeERKSt9_Any_dataS5_OSC_
	.section	.text.startup,"ax",@progbits
	.align	2
	.p2align 4,,11
	.type	_GLOBAL__sub_I_TCPServerIOHandler.cpp, %function
_GLOBAL__sub_I_TCPServerIOHandler.cpp:
.LFB10634:
	.cfi_startproc
	stp	x29, x30, [sp, -32]!
	.cfi_def_cfa_offset 32
	.cfi_offset 29, -32
	.cfi_offset 30, -24
	mov	x29, sp
	str	x19, [sp, 16]
	.cfi_offset 19, -16
	adrp	x19, :got:_ZGVZN4asio5error18get_netdb_categoryEvE8instance
	bl	_ZN4asio15system_categoryEv
	ldr	x19, [x19, #:got_lo12:_ZGVZN4asio5error18get_netdb_categoryEvE8instance]
	ldar	x0, [x19]
	tbz	x0, 0, .L1003
.L980:
	adrp	x19, :got:_ZGVZN4asio5error21get_addrinfo_categoryEvE8instance
	ldr	x19, [x19, #:got_lo12:_ZGVZN4asio5error21get_addrinfo_categoryEvE8instance]
	ldar	x0, [x19]
	tbz	x0, 0, .L1004
.L983:
	adrp	x19, :got:_ZGVZN4asio5error17get_misc_categoryEvE8instance
	ldr	x19, [x19, #:got_lo12:_ZGVZN4asio5error17get_misc_categoryEvE8instance]
	ldar	x0, [x19]
	tbz	x0, 0, .L1005
.L986:
	adrp	x2, :got:_ZGVN4asio6detail10call_stackINS0_15task_io_serviceENS0_27task_io_service_thread_infoEE4top_E
	ldr	x2, [x2, #:got_lo12:_ZGVN4asio6detail10call_stackINS0_15task_io_serviceENS0_27task_io_service_thread_infoEE4top_E]
	ldr	x0, [x2]
	tbz	x0, 0, .L1006
.L988:
	adrp	x3, :got:_ZGVN4asio6detail12service_baseINS0_13epoll_reactorEE2idE
	ldr	x3, [x3, #:got_lo12:_ZGVN4asio6detail12service_baseINS0_13epoll_reactorEE2idE]
	ldr	x0, [x3]
	tbz	x0, 0, .L1007
.L989:
	adrp	x3, :got:_ZGVN4asio6detail12service_baseINS0_15task_io_serviceEE2idE
	ldr	x3, [x3, #:got_lo12:_ZGVN4asio6detail12service_baseINS0_15task_io_serviceEE2idE]
	ldr	x0, [x3]
	tbz	x0, 0, .L1008
.L990:
	adrp	x2, :got:_ZGVN4asio6detail10call_stackINS0_14strand_service11strand_implEhE4top_E
	ldr	x2, [x2, #:got_lo12:_ZGVN4asio6detail10call_stackINS0_14strand_service11strand_implEhE4top_E]
	ldr	x0, [x2]
	tbz	x0, 0, .L1009
.L991:
	adrp	x3, :got:_ZGVN4asio6detail12service_baseINS0_14strand_serviceEE2idE
	ldr	x3, [x3, #:got_lo12:_ZGVN4asio6detail12service_baseINS0_14strand_serviceEE2idE]
	ldr	x0, [x3]
	tbz	x0, 0, .L1010
	ldr	x19, [sp, 16]
	ldp	x29, x30, [sp], 32
	.cfi_remember_state
	.cfi_restore 30
	.cfi_restore 29
	.cfi_restore 19
	.cfi_def_cfa_offset 0
	ret
.L1003:
	.cfi_restore_state
	mov	x0, x19
	bl	__cxa_guard_acquire
	cbz	w0, .L980
	adrp	x1, :got:_ZZN4asio5error18get_netdb_categoryEvE8instance
	adrp	x0, :got:_ZN4asio5error6detail14netdb_categoryD1Ev
	adrp	x2, __dso_handle
	add	x2, x2, :lo12:__dso_handle
	ldr	x1, [x1, #:got_lo12:_ZZN4asio5error18get_netdb_categoryEvE8instance]
	ldr	x0, [x0, #:got_lo12:_ZN4asio5error6detail14netdb_categoryD1Ev]
	bl	__cxa_atexit
	mov	x0, x19
	bl	__cxa_guard_release
	b	.L980
.L1010:
	mov	x4, 1
	adrp	x1, :got:_ZN4asio6detail12service_baseINS0_14strand_serviceEE2idE
	ldr	x19, [sp, 16]
	str	x4, [x3]
	adrp	x0, :got:_ZN4asio6detail10service_idINS0_14strand_serviceEED1Ev
	adrp	x2, __dso_handle
	ldp	x29, x30, [sp], 32
	.cfi_remember_state
	.cfi_restore 30
	.cfi_restore 29
	.cfi_restore 19
	.cfi_def_cfa_offset 0
	add	x2, x2, :lo12:__dso_handle
	ldr	x1, [x1, #:got_lo12:_ZN4asio6detail12service_baseINS0_14strand_serviceEE2idE]
	ldr	x0, [x0, #:got_lo12:_ZN4asio6detail10service_idINS0_14strand_serviceEED1Ev]
	b	__cxa_atexit
.L1009:
	.cfi_restore_state
	adrp	x19, :got:_ZN4asio6detail10call_stackINS0_14strand_service11strand_implEhE4top_E
	mov	x0, 1
	str	x0, [x2]
	ldr	x19, [x19, #:got_lo12:_ZN4asio6detail10call_stackINS0_14strand_service11strand_implEhE4top_E]
	mov	x0, x19
	bl	_ZN4asio6detail20posix_tss_ptr_createERj
	adrp	x0, :got:_ZN4asio6detail7tss_ptrINS0_10call_stackINS0_14strand_service11strand_implEhE7contextEED1Ev
	mov	x1, x19
	adrp	x2, __dso_handle
	add	x2, x2, :lo12:__dso_handle
	ldr	x0, [x0, #:got_lo12:_ZN4asio6detail7tss_ptrINS0_10call_stackINS0_14strand_service11strand_implEhE7contextEED1Ev]
	bl	__cxa_atexit
	b	.L991
.L1008:
	adrp	x1, :got:_ZN4asio6detail12service_baseINS0_15task_io_serviceEE2idE
	adrp	x0, :got:_ZN4asio6detail10service_idINS0_15task_io_serviceEED1Ev
	mov	x4, 1
	adrp	x2, __dso_handle
	ldr	x1, [x1, #:got_lo12:_ZN4asio6detail12service_baseINS0_15task_io_serviceEE2idE]
	add	x2, x2, :lo12:__dso_handle
	ldr	x0, [x0, #:got_lo12:_ZN4asio6detail10service_idINS0_15task_io_serviceEED1Ev]
	str	x4, [x3]
	bl	__cxa_atexit
	b	.L990
.L1007:
	adrp	x1, :got:_ZN4asio6detail12service_baseINS0_13epoll_reactorEE2idE
	adrp	x0, :got:_ZN4asio6detail10service_idINS0_13epoll_reactorEED1Ev
	mov	x4, 1
	adrp	x2, __dso_handle
	ldr	x1, [x1, #:got_lo12:_ZN4asio6detail12service_baseINS0_13epoll_reactorEE2idE]
	add	x2, x2, :lo12:__dso_handle
	ldr	x0, [x0, #:got_lo12:_ZN4asio6detail10service_idINS0_13epoll_reactorEED1Ev]
	str	x4, [x3]
	bl	__cxa_atexit
	b	.L989
.L1006:
	adrp	x19, :got:_ZN4asio6detail10call_stackINS0_15task_io_serviceENS0_27task_io_service_thread_infoEE4top_E
	mov	x0, 1
	str	x0, [x2]
	ldr	x19, [x19, #:got_lo12:_ZN4asio6detail10call_stackINS0_15task_io_serviceENS0_27task_io_service_thread_infoEE4top_E]
	mov	x0, x19
	bl	_ZN4asio6detail20posix_tss_ptr_createERj
	adrp	x0, :got:_ZN4asio6detail7tss_ptrINS0_10call_stackINS0_15task_io_serviceENS0_27task_io_service_thread_infoEE7contextEED1Ev
	mov	x1, x19
	adrp	x2, __dso_handle
	add	x2, x2, :lo12:__dso_handle
	ldr	x0, [x0, #:got_lo12:_ZN4asio6detail7tss_ptrINS0_10call_stackINS0_15task_io_serviceENS0_27task_io_service_thread_infoEE7contextEED1Ev]
	bl	__cxa_atexit
	b	.L988
.L1005:
	mov	x0, x19
	bl	__cxa_guard_acquire
	cbz	w0, .L986
	adrp	x1, :got:_ZZN4asio5error17get_misc_categoryEvE8instance
	adrp	x0, :got:_ZN4asio5error6detail13misc_categoryD1Ev
	adrp	x2, __dso_handle
	add	x2, x2, :lo12:__dso_handle
	ldr	x1, [x1, #:got_lo12:_ZZN4asio5error17get_misc_categoryEvE8instance]
	ldr	x0, [x0, #:got_lo12:_ZN4asio5error6detail13misc_categoryD1Ev]
	bl	__cxa_atexit
	mov	x0, x19
	bl	__cxa_guard_release
	b	.L986
.L1004:
	mov	x0, x19
	bl	__cxa_guard_acquire
	cbz	w0, .L983
	adrp	x1, :got:_ZZN4asio5error21get_addrinfo_categoryEvE8instance
	adrp	x0, :got:_ZN4asio5error6detail17addrinfo_categoryD1Ev
	adrp	x2, __dso_handle
	add	x2, x2, :lo12:__dso_handle
	ldr	x1, [x1, #:got_lo12:_ZZN4asio5error21get_addrinfo_categoryEvE8instance]
	ldr	x0, [x0, #:got_lo12:_ZN4asio5error6detail17addrinfo_categoryD1Ev]
	bl	__cxa_atexit
	mov	x0, x19
	bl	__cxa_guard_release
	b	.L983
	.cfi_endproc
.LFE10634:
	.size	_GLOBAL__sub_I_TCPServerIOHandler.cpp, .-_GLOBAL__sub_I_TCPServerIOHandler.cpp
	.section	.init_array,"aw"
	.align	3
	.xword	_GLOBAL__sub_I_TCPServerIOHandler.cpp
	.weak	_ZTSSt11_Mutex_baseILN9__gnu_cxx12_Lock_policyE2EE
	.section	.rodata._ZTSSt11_Mutex_baseILN9__gnu_cxx12_Lock_policyE2EE,"aG",@progbits,_ZTSSt11_Mutex_baseILN9__gnu_cxx12_Lock_policyE2EE,comdat
	.align	3
	.type	_ZTSSt11_Mutex_baseILN9__gnu_cxx12_Lock_policyE2EE, %object
	.size	_ZTSSt11_Mutex_baseILN9__gnu_cxx12_Lock_policyE2EE, 47
_ZTSSt11_Mutex_baseILN9__gnu_cxx12_Lock_policyE2EE:
	.string	"St11_Mutex_baseILN9__gnu_cxx12_Lock_policyE2EE"
	.weak	_ZTISt11_Mutex_baseILN9__gnu_cxx12_Lock_policyE2EE
	.section	.data.rel.ro._ZTISt11_Mutex_baseILN9__gnu_cxx12_Lock_policyE2EE,"awG",@progbits,_ZTISt11_Mutex_baseILN9__gnu_cxx12_Lock_policyE2EE,comdat
	.align	3
	.type	_ZTISt11_Mutex_baseILN9__gnu_cxx12_Lock_policyE2EE, %object
	.size	_ZTISt11_Mutex_baseILN9__gnu_cxx12_Lock_policyE2EE, 16
_ZTISt11_Mutex_baseILN9__gnu_cxx12_Lock_policyE2EE:
	.xword	_ZTVN10__cxxabiv117__class_type_infoE+16
	.xword	_ZTSSt11_Mutex_baseILN9__gnu_cxx12_Lock_policyE2EE
	.weak	_ZTSN7openpal10UncopyableE
	.section	.rodata._ZTSN7openpal10UncopyableE,"aG",@progbits,_ZTSN7openpal10UncopyableE,comdat
	.align	3
	.type	_ZTSN7openpal10UncopyableE, %object
	.size	_ZTSN7openpal10UncopyableE, 23
_ZTSN7openpal10UncopyableE:
	.string	"N7openpal10UncopyableE"
	.weak	_ZTIN7openpal10UncopyableE
	.section	.data.rel.ro._ZTIN7openpal10UncopyableE,"awG",@progbits,_ZTIN7openpal10UncopyableE,comdat
	.align	3
	.type	_ZTIN7openpal10UncopyableE, %object
	.size	_ZTIN7openpal10UncopyableE, 16
_ZTIN7openpal10UncopyableE:
	.xword	_ZTVN10__cxxabiv117__class_type_infoE+16
	.xword	_ZTSN7openpal10UncopyableE
	.weak	_ZTSSt23enable_shared_from_thisIN7asiopal13IAsyncChannelEE
	.section	.rodata._ZTSSt23enable_shared_from_thisIN7asiopal13IAsyncChannelEE,"aG",@progbits,_ZTSSt23enable_shared_from_thisIN7asiopal13IAsyncChannelEE,comdat
	.align	3
	.type	_ZTSSt23enable_shared_from_thisIN7asiopal13IAsyncChannelEE, %object
	.size	_ZTSSt23enable_shared_from_thisIN7asiopal13IAsyncChannelEE, 55
_ZTSSt23enable_shared_from_thisIN7asiopal13IAsyncChannelEE:
	.string	"St23enable_shared_from_thisIN7asiopal13IAsyncChannelEE"
	.weak	_ZTISt23enable_shared_from_thisIN7asiopal13IAsyncChannelEE
	.section	.data.rel.ro._ZTISt23enable_shared_from_thisIN7asiopal13IAsyncChannelEE,"awG",@progbits,_ZTISt23enable_shared_from_thisIN7asiopal13IAsyncChannelEE,comdat
	.align	3
	.type	_ZTISt23enable_shared_from_thisIN7asiopal13IAsyncChannelEE, %object
	.size	_ZTISt23enable_shared_from_thisIN7asiopal13IAsyncChannelEE, 16
_ZTISt23enable_shared_from_thisIN7asiopal13IAsyncChannelEE:
	.xword	_ZTVN10__cxxabiv117__class_type_infoE+16
	.xword	_ZTSSt23enable_shared_from_thisIN7asiopal13IAsyncChannelEE
	.weak	_ZTSSt19_Sp_make_shared_tag
	.section	.rodata._ZTSSt19_Sp_make_shared_tag,"aG",@progbits,_ZTSSt19_Sp_make_shared_tag,comdat
	.align	3
	.type	_ZTSSt19_Sp_make_shared_tag, %object
	.size	_ZTSSt19_Sp_make_shared_tag, 24
_ZTSSt19_Sp_make_shared_tag:
	.string	"St19_Sp_make_shared_tag"
	.weak	_ZGVN4asio6detail12service_baseINS0_14strand_serviceEE2idE
	.section	.bss._ZGVN4asio6detail12service_baseINS0_14strand_serviceEE2idE,"awG",@nobits,_ZGVN4asio6detail12service_baseINS0_14strand_serviceEE2idE,comdat
	.align	3
	.type	_ZGVN4asio6detail12service_baseINS0_14strand_serviceEE2idE, %gnu_unique_object
	.size	_ZGVN4asio6detail12service_baseINS0_14strand_serviceEE2idE, 8
_ZGVN4asio6detail12service_baseINS0_14strand_serviceEE2idE:
	.zero	8
	.weak	_ZGVN4asio6detail10call_stackINS0_14strand_service11strand_implEhE4top_E
	.section	.bss._ZGVN4asio6detail10call_stackINS0_14strand_service11strand_implEhE4top_E,"awG",@nobits,_ZGVN4asio6detail10call_stackINS0_14strand_service11strand_implEhE4top_E,comdat
	.align	3
	.type	_ZGVN4asio6detail10call_stackINS0_14strand_service11strand_implEhE4top_E, %gnu_unique_object
	.size	_ZGVN4asio6detail10call_stackINS0_14strand_service11strand_implEhE4top_E, 8
_ZGVN4asio6detail10call_stackINS0_14strand_service11strand_implEhE4top_E:
	.zero	8
	.weak	_ZGVN4asio6detail12service_baseINS0_15task_io_serviceEE2idE
	.section	.bss._ZGVN4asio6detail12service_baseINS0_15task_io_serviceEE2idE,"awG",@nobits,_ZGVN4asio6detail12service_baseINS0_15task_io_serviceEE2idE,comdat
	.align	3
	.type	_ZGVN4asio6detail12service_baseINS0_15task_io_serviceEE2idE, %gnu_unique_object
	.size	_ZGVN4asio6detail12service_baseINS0_15task_io_serviceEE2idE, 8
_ZGVN4asio6detail12service_baseINS0_15task_io_serviceEE2idE:
	.zero	8
	.weak	_ZGVN4asio6detail12service_baseINS0_13epoll_reactorEE2idE
	.section	.bss._ZGVN4asio6detail12service_baseINS0_13epoll_reactorEE2idE,"awG",@nobits,_ZGVN4asio6detail12service_baseINS0_13epoll_reactorEE2idE,comdat
	.align	3
	.type	_ZGVN4asio6detail12service_baseINS0_13epoll_reactorEE2idE, %gnu_unique_object
	.size	_ZGVN4asio6detail12service_baseINS0_13epoll_reactorEE2idE, 8
_ZGVN4asio6detail12service_baseINS0_13epoll_reactorEE2idE:
	.zero	8
	.weak	_ZGVN4asio6detail10call_stackINS0_15task_io_serviceENS0_27task_io_service_thread_infoEE4top_E
	.section	.bss._ZGVN4asio6detail10call_stackINS0_15task_io_serviceENS0_27task_io_service_thread_infoEE4top_E,"awG",@nobits,_ZGVN4asio6detail10call_stackINS0_15task_io_serviceENS0_27task_io_service_thread_infoEE4top_E,comdat
	.align	3
	.type	_ZGVN4asio6detail10call_stackINS0_15task_io_serviceENS0_27task_io_service_thread_infoEE4top_E, %gnu_unique_object
	.size	_ZGVN4asio6detail10call_stackINS0_15task_io_serviceENS0_27task_io_service_thread_infoEE4top_E, 8
_ZGVN4asio6detail10call_stackINS0_15task_io_serviceENS0_27task_io_service_thread_infoEE4top_E:
	.zero	8
	.weak	_ZN4asio6detail12service_baseINS0_14strand_serviceEE2idE
	.section	.bss._ZN4asio6detail12service_baseINS0_14strand_serviceEE2idE,"awG",@nobits,_ZN4asio6detail12service_baseINS0_14strand_serviceEE2idE,comdat
	.align	3
	.type	_ZN4asio6detail12service_baseINS0_14strand_serviceEE2idE, %gnu_unique_object
	.size	_ZN4asio6detail12service_baseINS0_14strand_serviceEE2idE, 1
_ZN4asio6detail12service_baseINS0_14strand_serviceEE2idE:
	.zero	1
	.weak	_ZN4asio6detail10call_stackINS0_14strand_service11strand_implEhE4top_E
	.section	.bss._ZN4asio6detail10call_stackINS0_14strand_service11strand_implEhE4top_E,"awG",@nobits,_ZN4asio6detail10call_stackINS0_14strand_service11strand_implEhE4top_E,comdat
	.align	3
	.type	_ZN4asio6detail10call_stackINS0_14strand_service11strand_implEhE4top_E, %gnu_unique_object
	.size	_ZN4asio6detail10call_stackINS0_14strand_service11strand_implEhE4top_E, 4
_ZN4asio6detail10call_stackINS0_14strand_service11strand_implEhE4top_E:
	.zero	4
	.weak	_ZN4asio6detail12service_baseINS0_15task_io_serviceEE2idE
	.section	.bss._ZN4asio6detail12service_baseINS0_15task_io_serviceEE2idE,"awG",@nobits,_ZN4asio6detail12service_baseINS0_15task_io_serviceEE2idE,comdat
	.align	3
	.type	_ZN4asio6detail12service_baseINS0_15task_io_serviceEE2idE, %gnu_unique_object
	.size	_ZN4asio6detail12service_baseINS0_15task_io_serviceEE2idE, 1
_ZN4asio6detail12service_baseINS0_15task_io_serviceEE2idE:
	.zero	1
	.weak	_ZN4asio6detail12service_baseINS0_13epoll_reactorEE2idE
	.section	.bss._ZN4asio6detail12service_baseINS0_13epoll_reactorEE2idE,"awG",@nobits,_ZN4asio6detail12service_baseINS0_13epoll_reactorEE2idE,comdat
	.align	3
	.type	_ZN4asio6detail12service_baseINS0_13epoll_reactorEE2idE, %gnu_unique_object
	.size	_ZN4asio6detail12service_baseINS0_13epoll_reactorEE2idE, 1
_ZN4asio6detail12service_baseINS0_13epoll_reactorEE2idE:
	.zero	1
	.weak	_ZN4asio6detail10call_stackINS0_15task_io_serviceENS0_27task_io_service_thread_infoEE4top_E
	.section	.bss._ZN4asio6detail10call_stackINS0_15task_io_serviceENS0_27task_io_service_thread_infoEE4top_E,"awG",@nobits,_ZN4asio6detail10call_stackINS0_15task_io_serviceENS0_27task_io_service_thread_infoEE4top_E,comdat
	.align	3
	.type	_ZN4asio6detail10call_stackINS0_15task_io_serviceENS0_27task_io_service_thread_infoEE4top_E, %gnu_unique_object
	.size	_ZN4asio6detail10call_stackINS0_15task_io_serviceENS0_27task_io_service_thread_infoEE4top_E, 4
_ZN4asio6detail10call_stackINS0_15task_io_serviceENS0_27task_io_service_thread_infoEE4top_E:
	.zero	4
	.weak	_ZTSSt16_Sp_counted_baseILN9__gnu_cxx12_Lock_policyE2EE
	.section	.rodata._ZTSSt16_Sp_counted_baseILN9__gnu_cxx12_Lock_policyE2EE,"aG",@progbits,_ZTSSt16_Sp_counted_baseILN9__gnu_cxx12_Lock_policyE2EE,comdat
	.align	3
	.type	_ZTSSt16_Sp_counted_baseILN9__gnu_cxx12_Lock_policyE2EE, %object
	.size	_ZTSSt16_Sp_counted_baseILN9__gnu_cxx12_Lock_policyE2EE, 52
_ZTSSt16_Sp_counted_baseILN9__gnu_cxx12_Lock_policyE2EE:
	.string	"St16_Sp_counted_baseILN9__gnu_cxx12_Lock_policyE2EE"
	.weak	_ZTISt16_Sp_counted_baseILN9__gnu_cxx12_Lock_policyE2EE
	.section	.data.rel.ro._ZTISt16_Sp_counted_baseILN9__gnu_cxx12_Lock_policyE2EE,"awG",@progbits,_ZTISt16_Sp_counted_baseILN9__gnu_cxx12_Lock_policyE2EE,comdat
	.align	3
	.type	_ZTISt16_Sp_counted_baseILN9__gnu_cxx12_Lock_policyE2EE, %object
	.size	_ZTISt16_Sp_counted_baseILN9__gnu_cxx12_Lock_policyE2EE, 24
_ZTISt16_Sp_counted_baseILN9__gnu_cxx12_Lock_policyE2EE:
	.xword	_ZTVN10__cxxabiv120__si_class_type_infoE+16
	.xword	_ZTSSt16_Sp_counted_baseILN9__gnu_cxx12_Lock_policyE2EE
	.xword	_ZTISt11_Mutex_baseILN9__gnu_cxx12_Lock_policyE2EE
	.weak	_ZTSN4asio6detail15system_categoryE
	.section	.rodata._ZTSN4asio6detail15system_categoryE,"aG",@progbits,_ZTSN4asio6detail15system_categoryE,comdat
	.align	3
	.type	_ZTSN4asio6detail15system_categoryE, %object
	.size	_ZTSN4asio6detail15system_categoryE, 32
_ZTSN4asio6detail15system_categoryE:
	.string	"N4asio6detail15system_categoryE"
	.weak	_ZTIN4asio6detail15system_categoryE
	.section	.data.rel.ro._ZTIN4asio6detail15system_categoryE,"awG",@progbits,_ZTIN4asio6detail15system_categoryE,comdat
	.align	3
	.type	_ZTIN4asio6detail15system_categoryE, %object
	.size	_ZTIN4asio6detail15system_categoryE, 24
_ZTIN4asio6detail15system_categoryE:
	.xword	_ZTVN10__cxxabiv120__si_class_type_infoE+16
	.xword	_ZTSN4asio6detail15system_categoryE
	.xword	_ZTINSt3_V214error_categoryE
	.weak	_ZTSN4asio5error6detail14netdb_categoryE
	.section	.rodata._ZTSN4asio5error6detail14netdb_categoryE,"aG",@progbits,_ZTSN4asio5error6detail14netdb_categoryE,comdat
	.align	3
	.type	_ZTSN4asio5error6detail14netdb_categoryE, %object
	.size	_ZTSN4asio5error6detail14netdb_categoryE, 37
_ZTSN4asio5error6detail14netdb_categoryE:
	.string	"N4asio5error6detail14netdb_categoryE"
	.weak	_ZTIN4asio5error6detail14netdb_categoryE
	.section	.data.rel.ro._ZTIN4asio5error6detail14netdb_categoryE,"awG",@progbits,_ZTIN4asio5error6detail14netdb_categoryE,comdat
	.align	3
	.type	_ZTIN4asio5error6detail14netdb_categoryE, %object
	.size	_ZTIN4asio5error6detail14netdb_categoryE, 24
_ZTIN4asio5error6detail14netdb_categoryE:
	.xword	_ZTVN10__cxxabiv120__si_class_type_infoE+16
	.xword	_ZTSN4asio5error6detail14netdb_categoryE
	.xword	_ZTINSt3_V214error_categoryE
	.weak	_ZTSN4asio5error6detail17addrinfo_categoryE
	.section	.rodata._ZTSN4asio5error6detail17addrinfo_categoryE,"aG",@progbits,_ZTSN4asio5error6detail17addrinfo_categoryE,comdat
	.align	3
	.type	_ZTSN4asio5error6detail17addrinfo_categoryE, %object
	.size	_ZTSN4asio5error6detail17addrinfo_categoryE, 40
_ZTSN4asio5error6detail17addrinfo_categoryE:
	.string	"N4asio5error6detail17addrinfo_categoryE"
	.weak	_ZTIN4asio5error6detail17addrinfo_categoryE
	.section	.data.rel.ro._ZTIN4asio5error6detail17addrinfo_categoryE,"awG",@progbits,_ZTIN4asio5error6detail17addrinfo_categoryE,comdat
	.align	3
	.type	_ZTIN4asio5error6detail17addrinfo_categoryE, %object
	.size	_ZTIN4asio5error6detail17addrinfo_categoryE, 24
_ZTIN4asio5error6detail17addrinfo_categoryE:
	.xword	_ZTVN10__cxxabiv120__si_class_type_infoE+16
	.xword	_ZTSN4asio5error6detail17addrinfo_categoryE
	.xword	_ZTINSt3_V214error_categoryE
	.weak	_ZTSN4asio5error6detail13misc_categoryE
	.section	.rodata._ZTSN4asio5error6detail13misc_categoryE,"aG",@progbits,_ZTSN4asio5error6detail13misc_categoryE,comdat
	.align	3
	.type	_ZTSN4asio5error6detail13misc_categoryE, %object
	.size	_ZTSN4asio5error6detail13misc_categoryE, 36
_ZTSN4asio5error6detail13misc_categoryE:
	.string	"N4asio5error6detail13misc_categoryE"
	.weak	_ZTIN4asio5error6detail13misc_categoryE
	.section	.data.rel.ro._ZTIN4asio5error6detail13misc_categoryE,"awG",@progbits,_ZTIN4asio5error6detail13misc_categoryE,comdat
	.align	3
	.type	_ZTIN4asio5error6detail13misc_categoryE, %object
	.size	_ZTIN4asio5error6detail13misc_categoryE, 24
_ZTIN4asio5error6detail13misc_categoryE:
	.xword	_ZTVN10__cxxabiv120__si_class_type_infoE+16
	.xword	_ZTSN4asio5error6detail13misc_categoryE
	.xword	_ZTINSt3_V214error_categoryE
	.weak	_ZTSN7asiopal13IAsyncChannelE
	.section	.rodata._ZTSN7asiopal13IAsyncChannelE,"aG",@progbits,_ZTSN7asiopal13IAsyncChannelE,comdat
	.align	3
	.type	_ZTSN7asiopal13IAsyncChannelE, %object
	.size	_ZTSN7asiopal13IAsyncChannelE, 26
_ZTSN7asiopal13IAsyncChannelE:
	.string	"N7asiopal13IAsyncChannelE"
	.weak	_ZTIN7asiopal13IAsyncChannelE
	.section	.data.rel.ro._ZTIN7asiopal13IAsyncChannelE,"awG",@progbits,_ZTIN7asiopal13IAsyncChannelE,comdat
	.align	3
	.type	_ZTIN7asiopal13IAsyncChannelE, %object
	.size	_ZTIN7asiopal13IAsyncChannelE, 56
_ZTIN7asiopal13IAsyncChannelE:
	.xword	_ZTVN10__cxxabiv121__vmi_class_type_infoE+16
	.xword	_ZTSN7asiopal13IAsyncChannelE
	.word	0
	.word	2
	.xword	_ZTISt23enable_shared_from_thisIN7asiopal13IAsyncChannelEE
	.xword	2050
	.xword	_ZTIN7openpal10UncopyableE
	.xword	0
	.weak	_ZTSN8asiodnp318TCPServerIOHandler6ServerE
	.section	.rodata._ZTSN8asiodnp318TCPServerIOHandler6ServerE,"aG",@progbits,_ZTSN8asiodnp318TCPServerIOHandler6ServerE,comdat
	.align	3
	.type	_ZTSN8asiodnp318TCPServerIOHandler6ServerE, %object
	.size	_ZTSN8asiodnp318TCPServerIOHandler6ServerE, 39
_ZTSN8asiodnp318TCPServerIOHandler6ServerE:
	.string	"N8asiodnp318TCPServerIOHandler6ServerE"
	.weak	_ZTIN8asiodnp318TCPServerIOHandler6ServerE
	.section	.data.rel.ro._ZTIN8asiodnp318TCPServerIOHandler6ServerE,"awG",@progbits,_ZTIN8asiodnp318TCPServerIOHandler6ServerE,comdat
	.align	3
	.type	_ZTIN8asiodnp318TCPServerIOHandler6ServerE, %object
	.size	_ZTIN8asiodnp318TCPServerIOHandler6ServerE, 24
_ZTIN8asiodnp318TCPServerIOHandler6ServerE:
	.xword	_ZTVN10__cxxabiv120__si_class_type_infoE+16
	.xword	_ZTSN8asiodnp318TCPServerIOHandler6ServerE
	.xword	_ZTIN7asiopal9TCPServerE
	.weak	_ZTSN8asiodnp318TCPServerIOHandlerE
	.section	.rodata._ZTSN8asiodnp318TCPServerIOHandlerE,"aG",@progbits,_ZTSN8asiodnp318TCPServerIOHandlerE,comdat
	.align	3
	.type	_ZTSN8asiodnp318TCPServerIOHandlerE, %object
	.size	_ZTSN8asiodnp318TCPServerIOHandlerE, 32
_ZTSN8asiodnp318TCPServerIOHandlerE:
	.string	"N8asiodnp318TCPServerIOHandlerE"
	.weak	_ZTIN8asiodnp318TCPServerIOHandlerE
	.section	.data.rel.ro._ZTIN8asiodnp318TCPServerIOHandlerE,"awG",@progbits,_ZTIN8asiodnp318TCPServerIOHandlerE,comdat
	.align	3
	.type	_ZTIN8asiodnp318TCPServerIOHandlerE, %object
	.size	_ZTIN8asiodnp318TCPServerIOHandlerE, 24
_ZTIN8asiodnp318TCPServerIOHandlerE:
	.xword	_ZTVN10__cxxabiv120__si_class_type_infoE+16
	.xword	_ZTSN8asiodnp318TCPServerIOHandlerE
	.xword	_ZTIN8asiodnp39IOHandlerE
	.weak	_ZTSSt23_Sp_counted_ptr_inplaceIN7asiopal13SocketChannelESaIS1_ELN9__gnu_cxx12_Lock_policyE2EE
	.section	.rodata._ZTSSt23_Sp_counted_ptr_inplaceIN7asiopal13SocketChannelESaIS1_ELN9__gnu_cxx12_Lock_policyE2EE,"aG",@progbits,_ZTSSt23_Sp_counted_ptr_inplaceIN7asiopal13SocketChannelESaIS1_ELN9__gnu_cxx12_Lock_policyE2EE,comdat
	.align	3
	.type	_ZTSSt23_Sp_counted_ptr_inplaceIN7asiopal13SocketChannelESaIS1_ELN9__gnu_cxx12_Lock_policyE2EE, %object
	.size	_ZTSSt23_Sp_counted_ptr_inplaceIN7asiopal13SocketChannelESaIS1_ELN9__gnu_cxx12_Lock_policyE2EE, 91
_ZTSSt23_Sp_counted_ptr_inplaceIN7asiopal13SocketChannelESaIS1_ELN9__gnu_cxx12_Lock_policyE2EE:
	.string	"St23_Sp_counted_ptr_inplaceIN7asiopal13SocketChannelESaIS1_ELN9__gnu_cxx12_Lock_policyE2EE"
	.weak	_ZTISt23_Sp_counted_ptr_inplaceIN7asiopal13SocketChannelESaIS1_ELN9__gnu_cxx12_Lock_policyE2EE
	.section	.data.rel.ro._ZTISt23_Sp_counted_ptr_inplaceIN7asiopal13SocketChannelESaIS1_ELN9__gnu_cxx12_Lock_policyE2EE,"awG",@progbits,_ZTISt23_Sp_counted_ptr_inplaceIN7asiopal13SocketChannelESaIS1_ELN9__gnu_cxx12_Lock_policyE2EE,comdat
	.align	3
	.type	_ZTISt23_Sp_counted_ptr_inplaceIN7asiopal13SocketChannelESaIS1_ELN9__gnu_cxx12_Lock_policyE2EE, %object
	.size	_ZTISt23_Sp_counted_ptr_inplaceIN7asiopal13SocketChannelESaIS1_ELN9__gnu_cxx12_Lock_policyE2EE, 24
_ZTISt23_Sp_counted_ptr_inplaceIN7asiopal13SocketChannelESaIS1_ELN9__gnu_cxx12_Lock_policyE2EE:
	.xword	_ZTVN10__cxxabiv120__si_class_type_infoE+16
	.xword	_ZTSSt23_Sp_counted_ptr_inplaceIN7asiopal13SocketChannelESaIS1_ELN9__gnu_cxx12_Lock_policyE2EE
	.xword	_ZTISt16_Sp_counted_baseILN9__gnu_cxx12_Lock_policyE2EE
	.weak	_ZTSSt23_Sp_counted_ptr_inplaceIN8asiodnp318TCPServerIOHandler6ServerESaIS2_ELN9__gnu_cxx12_Lock_policyE2EE
	.section	.rodata._ZTSSt23_Sp_counted_ptr_inplaceIN8asiodnp318TCPServerIOHandler6ServerESaIS2_ELN9__gnu_cxx12_Lock_policyE2EE,"aG",@progbits,_ZTSSt23_Sp_counted_ptr_inplaceIN8asiodnp318TCPServerIOHandler6ServerESaIS2_ELN9__gnu_cxx12_Lock_policyE2EE,comdat
	.align	3
	.type	_ZTSSt23_Sp_counted_ptr_inplaceIN8asiodnp318TCPServerIOHandler6ServerESaIS2_ELN9__gnu_cxx12_Lock_policyE2EE, %object
	.size	_ZTSSt23_Sp_counted_ptr_inplaceIN8asiodnp318TCPServerIOHandler6ServerESaIS2_ELN9__gnu_cxx12_Lock_policyE2EE, 104
_ZTSSt23_Sp_counted_ptr_inplaceIN8asiodnp318TCPServerIOHandler6ServerESaIS2_ELN9__gnu_cxx12_Lock_policyE2EE:
	.string	"St23_Sp_counted_ptr_inplaceIN8asiodnp318TCPServerIOHandler6ServerESaIS2_ELN9__gnu_cxx12_Lock_policyE2EE"
	.weak	_ZTISt23_Sp_counted_ptr_inplaceIN8asiodnp318TCPServerIOHandler6ServerESaIS2_ELN9__gnu_cxx12_Lock_policyE2EE
	.section	.data.rel.ro._ZTISt23_Sp_counted_ptr_inplaceIN8asiodnp318TCPServerIOHandler6ServerESaIS2_ELN9__gnu_cxx12_Lock_policyE2EE,"awG",@progbits,_ZTISt23_Sp_counted_ptr_inplaceIN8asiodnp318TCPServerIOHandler6ServerESaIS2_ELN9__gnu_cxx12_Lock_policyE2EE,comdat
	.align	3
	.type	_ZTISt23_Sp_counted_ptr_inplaceIN8asiodnp318TCPServerIOHandler6ServerESaIS2_ELN9__gnu_cxx12_Lock_policyE2EE, %object
	.size	_ZTISt23_Sp_counted_ptr_inplaceIN8asiodnp318TCPServerIOHandler6ServerESaIS2_ELN9__gnu_cxx12_Lock_policyE2EE, 24
_ZTISt23_Sp_counted_ptr_inplaceIN8asiodnp318TCPServerIOHandler6ServerESaIS2_ELN9__gnu_cxx12_Lock_policyE2EE:
	.xword	_ZTVN10__cxxabiv120__si_class_type_infoE+16
	.xword	_ZTSSt23_Sp_counted_ptr_inplaceIN8asiodnp318TCPServerIOHandler6ServerESaIS2_ELN9__gnu_cxx12_Lock_policyE2EE
	.xword	_ZTISt16_Sp_counted_baseILN9__gnu_cxx12_Lock_policyE2EE
	.weak	_ZTVN4asio6detail15system_categoryE
	.section	.data.rel.ro._ZTVN4asio6detail15system_categoryE,"awG",@progbits,_ZTVN4asio6detail15system_categoryE,comdat
	.align	3
	.type	_ZTVN4asio6detail15system_categoryE, %object
	.size	_ZTVN4asio6detail15system_categoryE, 80
_ZTVN4asio6detail15system_categoryE:
	.xword	0
	.xword	_ZTIN4asio6detail15system_categoryE
	.xword	_ZN4asio6detail15system_categoryD1Ev
	.xword	_ZN4asio6detail15system_categoryD0Ev
	.xword	_ZNK4asio6detail15system_category4nameEv
	.xword	_ZNKSt3_V214error_category10_M_messageB5cxx11Ei
	.xword	_ZNK4asio6detail15system_category7messageB5cxx11Ei
	.xword	_ZNKSt3_V214error_category23default_error_conditionEi
	.xword	_ZNKSt3_V214error_category10equivalentEiRKSt15error_condition
	.xword	_ZNKSt3_V214error_category10equivalentERKSt10error_codei
	.weak	_ZTVN4asio5error6detail14netdb_categoryE
	.section	.data.rel.ro._ZTVN4asio5error6detail14netdb_categoryE,"awG",@progbits,_ZTVN4asio5error6detail14netdb_categoryE,comdat
	.align	3
	.type	_ZTVN4asio5error6detail14netdb_categoryE, %object
	.size	_ZTVN4asio5error6detail14netdb_categoryE, 80
_ZTVN4asio5error6detail14netdb_categoryE:
	.xword	0
	.xword	_ZTIN4asio5error6detail14netdb_categoryE
	.xword	_ZN4asio5error6detail14netdb_categoryD1Ev
	.xword	_ZN4asio5error6detail14netdb_categoryD0Ev
	.xword	_ZNK4asio5error6detail14netdb_category4nameEv
	.xword	_ZNKSt3_V214error_category10_M_messageB5cxx11Ei
	.xword	_ZNK4asio5error6detail14netdb_category7messageB5cxx11Ei
	.xword	_ZNKSt3_V214error_category23default_error_conditionEi
	.xword	_ZNKSt3_V214error_category10equivalentEiRKSt15error_condition
	.xword	_ZNKSt3_V214error_category10equivalentERKSt10error_codei
	.weak	_ZTVN4asio5error6detail17addrinfo_categoryE
	.section	.data.rel.ro._ZTVN4asio5error6detail17addrinfo_categoryE,"awG",@progbits,_ZTVN4asio5error6detail17addrinfo_categoryE,comdat
	.align	3
	.type	_ZTVN4asio5error6detail17addrinfo_categoryE, %object
	.size	_ZTVN4asio5error6detail17addrinfo_categoryE, 80
_ZTVN4asio5error6detail17addrinfo_categoryE:
	.xword	0
	.xword	_ZTIN4asio5error6detail17addrinfo_categoryE
	.xword	_ZN4asio5error6detail17addrinfo_categoryD1Ev
	.xword	_ZN4asio5error6detail17addrinfo_categoryD0Ev
	.xword	_ZNK4asio5error6detail17addrinfo_category4nameEv
	.xword	_ZNKSt3_V214error_category10_M_messageB5cxx11Ei
	.xword	_ZNK4asio5error6detail17addrinfo_category7messageB5cxx11Ei
	.xword	_ZNKSt3_V214error_category23default_error_conditionEi
	.xword	_ZNKSt3_V214error_category10equivalentEiRKSt15error_condition
	.xword	_ZNKSt3_V214error_category10equivalentERKSt10error_codei
	.weak	_ZTVN4asio5error6detail13misc_categoryE
	.section	.data.rel.ro._ZTVN4asio5error6detail13misc_categoryE,"awG",@progbits,_ZTVN4asio5error6detail13misc_categoryE,comdat
	.align	3
	.type	_ZTVN4asio5error6detail13misc_categoryE, %object
	.size	_ZTVN4asio5error6detail13misc_categoryE, 80
_ZTVN4asio5error6detail13misc_categoryE:
	.xword	0
	.xword	_ZTIN4asio5error6detail13misc_categoryE
	.xword	_ZN4asio5error6detail13misc_categoryD1Ev
	.xword	_ZN4asio5error6detail13misc_categoryD0Ev
	.xword	_ZNK4asio5error6detail13misc_category4nameEv
	.xword	_ZNKSt3_V214error_category10_M_messageB5cxx11Ei
	.xword	_ZNK4asio5error6detail13misc_category7messageB5cxx11Ei
	.xword	_ZNKSt3_V214error_category23default_error_conditionEi
	.xword	_ZNKSt3_V214error_category10equivalentEiRKSt15error_condition
	.xword	_ZNKSt3_V214error_category10equivalentERKSt10error_codei
	.weak	_ZTVN7asiopal13IAsyncChannelE
	.section	.data.rel.ro._ZTVN7asiopal13IAsyncChannelE,"awG",@progbits,_ZTVN7asiopal13IAsyncChannelE,comdat
	.align	3
	.type	_ZTVN7asiopal13IAsyncChannelE, %object
	.size	_ZTVN7asiopal13IAsyncChannelE, 56
_ZTVN7asiopal13IAsyncChannelE:
	.xword	0
	.xword	_ZTIN7asiopal13IAsyncChannelE
	.xword	0
	.xword	0
	.xword	__cxa_pure_virtual
	.xword	__cxa_pure_virtual
	.xword	__cxa_pure_virtual
	.weak	_ZTVN8asiodnp318TCPServerIOHandler6ServerE
	.section	.data.rel.ro._ZTVN8asiodnp318TCPServerIOHandler6ServerE,"awG",@progbits,_ZTVN8asiodnp318TCPServerIOHandler6ServerE,comdat
	.align	3
	.type	_ZTVN8asiodnp318TCPServerIOHandler6ServerE, %object
	.size	_ZTVN8asiodnp318TCPServerIOHandler6ServerE, 56
_ZTVN8asiodnp318TCPServerIOHandler6ServerE:
	.xword	0
	.xword	_ZTIN8asiodnp318TCPServerIOHandler6ServerE
	.xword	_ZN8asiodnp318TCPServerIOHandler6ServerD1Ev
	.xword	_ZN8asiodnp318TCPServerIOHandler6ServerD0Ev
	.xword	_ZN7asiopal9TCPServer8ShutdownEv
	.xword	_ZN8asiodnp318TCPServerIOHandler6Server10OnShutdownEv
	.xword	_ZN8asiodnp318TCPServerIOHandler6Server16AcceptConnectionEmRKSt10shared_ptrIN7asiopal8ExecutorEEN4asio19basic_stream_socketINS8_2ip3tcpENS8_21stream_socket_serviceISB_EEEE
	.weak	_ZTVN8asiodnp318TCPServerIOHandlerE
	.section	.data.rel.ro._ZTVN8asiodnp318TCPServerIOHandlerE,"awG",@progbits,_ZTVN8asiodnp318TCPServerIOHandlerE,comdat
	.align	3
	.type	_ZTVN8asiodnp318TCPServerIOHandlerE, %object
	.size	_ZTVN8asiodnp318TCPServerIOHandlerE, 136
_ZTVN8asiodnp318TCPServerIOHandlerE:
	.xword	0
	.xword	_ZTIN8asiodnp318TCPServerIOHandlerE
	.xword	_ZN8asiodnp318TCPServerIOHandlerD1Ev
	.xword	_ZN8asiodnp318TCPServerIOHandlerD0Ev
	.xword	_ZN8asiodnp39IOHandler7OnFrameERKN8opendnp316LinkHeaderFieldsERKN7openpal6RSliceE
	.xword	_ZN8asiodnp39IOHandler14OnReadCompleteERKSt10error_codem
	.xword	_ZN8asiodnp39IOHandler15OnWriteCompleteERKSt10error_codem
	.xword	_ZN8asiodnp318TCPServerIOHandler18BeginChannelAcceptEv
	.xword	_ZN8asiodnp318TCPServerIOHandler20SuspendChannelAcceptEv
	.xword	_ZN8asiodnp318TCPServerIOHandler12ShutdownImplEv
	.xword	_ZN8asiodnp318TCPServerIOHandler17OnChannelShutdownEv
	.xword	-8
	.xword	_ZTIN8asiodnp318TCPServerIOHandlerE
	.xword	_ZThn8_N8asiodnp318TCPServerIOHandlerD1Ev
	.xword	_ZThn8_N8asiodnp318TCPServerIOHandlerD0Ev
	.xword	_ZThn8_N8asiodnp39IOHandler14OnReadCompleteERKSt10error_codem
	.xword	_ZThn8_N8asiodnp39IOHandler15OnWriteCompleteERKSt10error_codem
	.weak	_ZTVSt23_Sp_counted_ptr_inplaceIN7asiopal13SocketChannelESaIS1_ELN9__gnu_cxx12_Lock_policyE2EE
	.section	.data.rel.ro._ZTVSt23_Sp_counted_ptr_inplaceIN7asiopal13SocketChannelESaIS1_ELN9__gnu_cxx12_Lock_policyE2EE,"awG",@progbits,_ZTVSt23_Sp_counted_ptr_inplaceIN7asiopal13SocketChannelESaIS1_ELN9__gnu_cxx12_Lock_policyE2EE,comdat
	.align	3
	.type	_ZTVSt23_Sp_counted_ptr_inplaceIN7asiopal13SocketChannelESaIS1_ELN9__gnu_cxx12_Lock_policyE2EE, %object
	.size	_ZTVSt23_Sp_counted_ptr_inplaceIN7asiopal13SocketChannelESaIS1_ELN9__gnu_cxx12_Lock_policyE2EE, 56
_ZTVSt23_Sp_counted_ptr_inplaceIN7asiopal13SocketChannelESaIS1_ELN9__gnu_cxx12_Lock_policyE2EE:
	.xword	0
	.xword	_ZTISt23_Sp_counted_ptr_inplaceIN7asiopal13SocketChannelESaIS1_ELN9__gnu_cxx12_Lock_policyE2EE
	.xword	_ZNSt23_Sp_counted_ptr_inplaceIN7asiopal13SocketChannelESaIS1_ELN9__gnu_cxx12_Lock_policyE2EED1Ev
	.xword	_ZNSt23_Sp_counted_ptr_inplaceIN7asiopal13SocketChannelESaIS1_ELN9__gnu_cxx12_Lock_policyE2EED0Ev
	.xword	_ZNSt23_Sp_counted_ptr_inplaceIN7asiopal13SocketChannelESaIS1_ELN9__gnu_cxx12_Lock_policyE2EE10_M_disposeEv
	.xword	_ZNSt23_Sp_counted_ptr_inplaceIN7asiopal13SocketChannelESaIS1_ELN9__gnu_cxx12_Lock_policyE2EE10_M_destroyEv
	.xword	_ZNSt23_Sp_counted_ptr_inplaceIN7asiopal13SocketChannelESaIS1_ELN9__gnu_cxx12_Lock_policyE2EE14_M_get_deleterERKSt9type_info
	.weak	_ZTVSt23_Sp_counted_ptr_inplaceIN8asiodnp318TCPServerIOHandler6ServerESaIS2_ELN9__gnu_cxx12_Lock_policyE2EE
	.section	.data.rel.ro._ZTVSt23_Sp_counted_ptr_inplaceIN8asiodnp318TCPServerIOHandler6ServerESaIS2_ELN9__gnu_cxx12_Lock_policyE2EE,"awG",@progbits,_ZTVSt23_Sp_counted_ptr_inplaceIN8asiodnp318TCPServerIOHandler6ServerESaIS2_ELN9__gnu_cxx12_Lock_policyE2EE,comdat
	.align	3
	.type	_ZTVSt23_Sp_counted_ptr_inplaceIN8asiodnp318TCPServerIOHandler6ServerESaIS2_ELN9__gnu_cxx12_Lock_policyE2EE, %object
	.size	_ZTVSt23_Sp_counted_ptr_inplaceIN8asiodnp318TCPServerIOHandler6ServerESaIS2_ELN9__gnu_cxx12_Lock_policyE2EE, 56
_ZTVSt23_Sp_counted_ptr_inplaceIN8asiodnp318TCPServerIOHandler6ServerESaIS2_ELN9__gnu_cxx12_Lock_policyE2EE:
	.xword	0
	.xword	_ZTISt23_Sp_counted_ptr_inplaceIN8asiodnp318TCPServerIOHandler6ServerESaIS2_ELN9__gnu_cxx12_Lock_policyE2EE
	.xword	_ZNSt23_Sp_counted_ptr_inplaceIN8asiodnp318TCPServerIOHandler6ServerESaIS2_ELN9__gnu_cxx12_Lock_policyE2EED1Ev
	.xword	_ZNSt23_Sp_counted_ptr_inplaceIN8asiodnp318TCPServerIOHandler6ServerESaIS2_ELN9__gnu_cxx12_Lock_policyE2EED0Ev
	.xword	_ZNSt23_Sp_counted_ptr_inplaceIN8asiodnp318TCPServerIOHandler6ServerESaIS2_ELN9__gnu_cxx12_Lock_policyE2EE10_M_disposeEv
	.xword	_ZNSt23_Sp_counted_ptr_inplaceIN8asiodnp318TCPServerIOHandler6ServerESaIS2_ELN9__gnu_cxx12_Lock_policyE2EE10_M_destroyEv
	.xword	_ZNSt23_Sp_counted_ptr_inplaceIN8asiodnp318TCPServerIOHandler6ServerESaIS2_ELN9__gnu_cxx12_Lock_policyE2EE14_M_get_deleterERKSt9type_info
	.weak	_ZGVZN4asio5error17get_misc_categoryEvE8instance
	.section	.bss._ZGVZN4asio5error17get_misc_categoryEvE8instance,"awG",@nobits,_ZGVZN4asio5error17get_misc_categoryEvE8instance,comdat
	.align	3
	.type	_ZGVZN4asio5error17get_misc_categoryEvE8instance, %gnu_unique_object
	.size	_ZGVZN4asio5error17get_misc_categoryEvE8instance, 8
_ZGVZN4asio5error17get_misc_categoryEvE8instance:
	.zero	8
	.weak	_ZZN4asio5error17get_misc_categoryEvE8instance
	.section	.data.rel._ZZN4asio5error17get_misc_categoryEvE8instance,"awG",@progbits,_ZZN4asio5error17get_misc_categoryEvE8instance,comdat
	.align	3
	.type	_ZZN4asio5error17get_misc_categoryEvE8instance, %gnu_unique_object
	.size	_ZZN4asio5error17get_misc_categoryEvE8instance, 8
_ZZN4asio5error17get_misc_categoryEvE8instance:
	.xword	_ZTVN4asio5error6detail13misc_categoryE+16
	.weak	_ZGVZN4asio5error21get_addrinfo_categoryEvE8instance
	.section	.bss._ZGVZN4asio5error21get_addrinfo_categoryEvE8instance,"awG",@nobits,_ZGVZN4asio5error21get_addrinfo_categoryEvE8instance,comdat
	.align	3
	.type	_ZGVZN4asio5error21get_addrinfo_categoryEvE8instance, %gnu_unique_object
	.size	_ZGVZN4asio5error21get_addrinfo_categoryEvE8instance, 8
_ZGVZN4asio5error21get_addrinfo_categoryEvE8instance:
	.zero	8
	.weak	_ZZN4asio5error21get_addrinfo_categoryEvE8instance
	.section	.data.rel._ZZN4asio5error21get_addrinfo_categoryEvE8instance,"awG",@progbits,_ZZN4asio5error21get_addrinfo_categoryEvE8instance,comdat
	.align	3
	.type	_ZZN4asio5error21get_addrinfo_categoryEvE8instance, %gnu_unique_object
	.size	_ZZN4asio5error21get_addrinfo_categoryEvE8instance, 8
_ZZN4asio5error21get_addrinfo_categoryEvE8instance:
	.xword	_ZTVN4asio5error6detail17addrinfo_categoryE+16
	.weak	_ZGVZN4asio5error18get_netdb_categoryEvE8instance
	.section	.bss._ZGVZN4asio5error18get_netdb_categoryEvE8instance,"awG",@nobits,_ZGVZN4asio5error18get_netdb_categoryEvE8instance,comdat
	.align	3
	.type	_ZGVZN4asio5error18get_netdb_categoryEvE8instance, %gnu_unique_object
	.size	_ZGVZN4asio5error18get_netdb_categoryEvE8instance, 8
_ZGVZN4asio5error18get_netdb_categoryEvE8instance:
	.zero	8
	.weak	_ZZN4asio5error18get_netdb_categoryEvE8instance
	.section	.data.rel._ZZN4asio5error18get_netdb_categoryEvE8instance,"awG",@progbits,_ZZN4asio5error18get_netdb_categoryEvE8instance,comdat
	.align	3
	.type	_ZZN4asio5error18get_netdb_categoryEvE8instance, %gnu_unique_object
	.size	_ZZN4asio5error18get_netdb_categoryEvE8instance, 8
_ZZN4asio5error18get_netdb_categoryEvE8instance:
	.xword	_ZTVN4asio5error6detail14netdb_categoryE+16
	.weak	_ZGVZN4asio15system_categoryEvE8instance
	.section	.bss._ZGVZN4asio15system_categoryEvE8instance,"awG",@nobits,_ZGVZN4asio15system_categoryEvE8instance,comdat
	.align	3
	.type	_ZGVZN4asio15system_categoryEvE8instance, %gnu_unique_object
	.size	_ZGVZN4asio15system_categoryEvE8instance, 8
_ZGVZN4asio15system_categoryEvE8instance:
	.zero	8
	.weak	_ZZN4asio15system_categoryEvE8instance
	.section	.data.rel._ZZN4asio15system_categoryEvE8instance,"awG",@progbits,_ZZN4asio15system_categoryEvE8instance,comdat
	.align	3
	.type	_ZZN4asio15system_categoryEvE8instance, %gnu_unique_object
	.size	_ZZN4asio15system_categoryEvE8instance, 8
_ZZN4asio15system_categoryEvE8instance:
	.xword	_ZTVN4asio6detail15system_categoryE+16
	.weak	_ZZNSt19_Sp_make_shared_tag5_S_tiEvE5__tag
	.section	.rodata._ZZNSt19_Sp_make_shared_tag5_S_tiEvE5__tag,"aG",@progbits,_ZZNSt19_Sp_make_shared_tag5_S_tiEvE5__tag,comdat
	.align	3
	.type	_ZZNSt19_Sp_make_shared_tag5_S_tiEvE5__tag, %gnu_unique_object
	.size	_ZZNSt19_Sp_make_shared_tag5_S_tiEvE5__tag, 16
_ZZNSt19_Sp_make_shared_tag5_S_tiEvE5__tag:
	.zero	16
	.section	.rodata
	.align	3
	.type	_ZTSZN8asiodnp318TCPServerIOHandler18BeginChannelAcceptEvEUlRKSt10shared_ptrIN7asiopal8ExecutorEEN4asio19basic_stream_socketINS7_2ip3tcpENS7_21stream_socket_serviceISA_EEEEE_, %object
	.size	_ZTSZN8asiodnp318TCPServerIOHandler18BeginChannelAcceptEvEUlRKSt10shared_ptrIN7asiopal8ExecutorEEN4asio19basic_stream_socketINS7_2ip3tcpENS7_21stream_socket_serviceISA_EEEEE_, 172
_ZTSZN8asiodnp318TCPServerIOHandler18BeginChannelAcceptEvEUlRKSt10shared_ptrIN7asiopal8ExecutorEEN4asio19basic_stream_socketINS7_2ip3tcpENS7_21stream_socket_serviceISA_EEEEE_:
	.string	"*ZN8asiodnp318TCPServerIOHandler18BeginChannelAcceptEvEUlRKSt10shared_ptrIN7asiopal8ExecutorEEN4asio19basic_stream_socketINS7_2ip3tcpENS7_21stream_socket_serviceISA_EEEEE_"
	.section	.data.rel.ro,"aw"
	.align	3
	.set	.LANCHOR0,. + 0
	.type	_ZTIZN8asiodnp318TCPServerIOHandler18BeginChannelAcceptEvEUlRKSt10shared_ptrIN7asiopal8ExecutorEEN4asio19basic_stream_socketINS7_2ip3tcpENS7_21stream_socket_serviceISA_EEEEE_, %object
	.size	_ZTIZN8asiodnp318TCPServerIOHandler18BeginChannelAcceptEvEUlRKSt10shared_ptrIN7asiopal8ExecutorEEN4asio19basic_stream_socketINS7_2ip3tcpENS7_21stream_socket_serviceISA_EEEEE_, 16
_ZTIZN8asiodnp318TCPServerIOHandler18BeginChannelAcceptEvEUlRKSt10shared_ptrIN7asiopal8ExecutorEEN4asio19basic_stream_socketINS7_2ip3tcpENS7_21stream_socket_serviceISA_EEEEE_:
	.xword	_ZTVN10__cxxabiv117__class_type_infoE+16
	.xword	_ZTSZN8asiodnp318TCPServerIOHandler18BeginChannelAcceptEvEUlRKSt10shared_ptrIN7asiopal8ExecutorEEN4asio19basic_stream_socketINS7_2ip3tcpENS7_21stream_socket_serviceISA_EEEEE_
	.weak	__cxa_pure_virtual
	.hidden	DW.ref.__gxx_personality_v0
	.weak	DW.ref.__gxx_personality_v0
	.section	.data.rel.local.DW.ref.__gxx_personality_v0,"awG",@progbits,DW.ref.__gxx_personality_v0,comdat
	.align	3
	.type	DW.ref.__gxx_personality_v0, %object
	.size	DW.ref.__gxx_personality_v0, 8
DW.ref.__gxx_personality_v0:
	.xword	__gxx_personality_v0
	.hidden	__dso_handle
	.ident	"GCC: (Ubuntu 11.4.0-1ubuntu1~22.04) 11.4.0"
	.section	.note.GNU-stack,"",@progbits
