	.arch armv8-a
	.file	"UpdateBuilder.cpp"
	.text
	.align	2
	.p2align 4,,11
	.type	_ZNSt17_Function_handlerIFvRN8opendnp314IUpdateHandlerEEZN8asiodnp313UpdateBuilder6UpdateERKNS0_15TimeAndIntervalEtEUlS2_E_E9_M_invokeERKSt9_Any_dataS2_, %function
_ZNSt17_Function_handlerIFvRN8opendnp314IUpdateHandlerEEZN8asiodnp313UpdateBuilder6UpdateERKNS0_15TimeAndIntervalEtEUlS2_E_E9_M_invokeERKSt9_Any_dataS2_:
.LFB2236:
	.cfi_startproc
	mov	x2, x0
	mov	x0, x1
	ldr	x3, [x1]
	ldr	x1, [x2]
	ldr	x3, [x3, 72]
	ldrh	w2, [x1, 16]
	mov	x16, x3
	br	x16
	.cfi_endproc
.LFE2236:
	.size	_ZNSt17_Function_handlerIFvRN8opendnp314IUpdateHandlerEEZN8asiodnp313UpdateBuilder6UpdateERKNS0_15TimeAndIntervalEtEUlS2_E_E9_M_invokeERKSt9_Any_dataS2_, .-_ZNSt17_Function_handlerIFvRN8opendnp314IUpdateHandlerEEZN8asiodnp313UpdateBuilder6UpdateERKNS0_15TimeAndIntervalEtEUlS2_E_E9_M_invokeERKSt9_Any_dataS2_
	.align	2
	.p2align 4,,11
	.type	_ZNSt17_Function_handlerIFvRN8opendnp314IUpdateHandlerEEZN8asiodnp313UpdateBuilder6ModifyENS0_9FlagsTypeEtthEUlS2_E_E9_M_invokeERKSt9_Any_dataS2_, %function
_ZNSt17_Function_handlerIFvRN8opendnp314IUpdateHandlerEEZN8asiodnp313UpdateBuilder6ModifyENS0_9FlagsTypeEtthEUlS2_E_E9_M_invokeERKSt9_Any_dataS2_:
.LFB2240:
	.cfi_startproc
	ldr	x5, [x1]
	mov	x4, x0
	mov	x0, x1
	ldrh	w2, [x4, 2]
	ldrh	w3, [x4, 4]
	ldrb	w1, [x4]
	ldrb	w4, [x4, 6]
	ldr	x5, [x5, 80]
	mov	x16, x5
	br	x16
	.cfi_endproc
.LFE2240:
	.size	_ZNSt17_Function_handlerIFvRN8opendnp314IUpdateHandlerEEZN8asiodnp313UpdateBuilder6ModifyENS0_9FlagsTypeEtthEUlS2_E_E9_M_invokeERKSt9_Any_dataS2_, .-_ZNSt17_Function_handlerIFvRN8opendnp314IUpdateHandlerEEZN8asiodnp313UpdateBuilder6ModifyENS0_9FlagsTypeEtthEUlS2_E_E9_M_invokeERKSt9_Any_dataS2_
	.section	.text._ZNSt17_Function_handlerIFvRN8opendnp314IUpdateHandlerEEZN8asiodnp313UpdateBuilder7AddMeasINS0_6BinaryEEERS5_RKT_tNS0_9EventModeEEUlS2_E_E9_M_invokeERKSt9_Any_dataS2_,"axG",@progbits,_ZNSt17_Function_handlerIFvRN8opendnp314IUpdateHandlerEEZN8asiodnp313UpdateBuilder7AddMeasINS0_6BinaryEEERS5_RKT_tNS0_9EventModeEEUlS2_E_E9_M_invokeERKSt9_Any_dataS2_,comdat
	.align	2
	.p2align 4,,11
	.weak	_ZNSt17_Function_handlerIFvRN8opendnp314IUpdateHandlerEEZN8asiodnp313UpdateBuilder7AddMeasINS0_6BinaryEEERS5_RKT_tNS0_9EventModeEEUlS2_E_E9_M_invokeERKSt9_Any_dataS2_
	.type	_ZNSt17_Function_handlerIFvRN8opendnp314IUpdateHandlerEEZN8asiodnp313UpdateBuilder7AddMeasINS0_6BinaryEEERS5_RKT_tNS0_9EventModeEEUlS2_E_E9_M_invokeERKSt9_Any_dataS2_, %function
_ZNSt17_Function_handlerIFvRN8opendnp314IUpdateHandlerEEZN8asiodnp313UpdateBuilder7AddMeasINS0_6BinaryEEERS5_RKT_tNS0_9EventModeEEUlS2_E_E9_M_invokeERKSt9_Any_dataS2_:
.LFB2268:
	.cfi_startproc
	mov	x2, x0
	mov	x0, x1
	ldr	x4, [x1]
	ldr	x1, [x2]
	ldr	x4, [x4, 16]
	ldrh	w2, [x1, 24]
	ldrb	w3, [x1, 26]
	mov	x16, x4
	br	x16
	.cfi_endproc
.LFE2268:
	.size	_ZNSt17_Function_handlerIFvRN8opendnp314IUpdateHandlerEEZN8asiodnp313UpdateBuilder7AddMeasINS0_6BinaryEEERS5_RKT_tNS0_9EventModeEEUlS2_E_E9_M_invokeERKSt9_Any_dataS2_, .-_ZNSt17_Function_handlerIFvRN8opendnp314IUpdateHandlerEEZN8asiodnp313UpdateBuilder7AddMeasINS0_6BinaryEEERS5_RKT_tNS0_9EventModeEEUlS2_E_E9_M_invokeERKSt9_Any_dataS2_
	.section	.text._ZNSt17_Function_handlerIFvRN8opendnp314IUpdateHandlerEEZN8asiodnp313UpdateBuilder7AddMeasINS0_15DoubleBitBinaryEEERS5_RKT_tNS0_9EventModeEEUlS2_E_E9_M_invokeERKSt9_Any_dataS2_,"axG",@progbits,_ZNSt17_Function_handlerIFvRN8opendnp314IUpdateHandlerEEZN8asiodnp313UpdateBuilder7AddMeasINS0_15DoubleBitBinaryEEERS5_RKT_tNS0_9EventModeEEUlS2_E_E9_M_invokeERKSt9_Any_dataS2_,comdat
	.align	2
	.p2align 4,,11
	.weak	_ZNSt17_Function_handlerIFvRN8opendnp314IUpdateHandlerEEZN8asiodnp313UpdateBuilder7AddMeasINS0_15DoubleBitBinaryEEERS5_RKT_tNS0_9EventModeEEUlS2_E_E9_M_invokeERKSt9_Any_dataS2_
	.type	_ZNSt17_Function_handlerIFvRN8opendnp314IUpdateHandlerEEZN8asiodnp313UpdateBuilder7AddMeasINS0_15DoubleBitBinaryEEERS5_RKT_tNS0_9EventModeEEUlS2_E_E9_M_invokeERKSt9_Any_dataS2_, %function
_ZNSt17_Function_handlerIFvRN8opendnp314IUpdateHandlerEEZN8asiodnp313UpdateBuilder7AddMeasINS0_15DoubleBitBinaryEEERS5_RKT_tNS0_9EventModeEEUlS2_E_E9_M_invokeERKSt9_Any_dataS2_:
.LFB2272:
	.cfi_startproc
	mov	x2, x0
	mov	x0, x1
	ldr	x4, [x1]
	ldr	x1, [x2]
	ldr	x4, [x4, 24]
	ldrh	w2, [x1, 24]
	ldrb	w3, [x1, 26]
	mov	x16, x4
	br	x16
	.cfi_endproc
.LFE2272:
	.size	_ZNSt17_Function_handlerIFvRN8opendnp314IUpdateHandlerEEZN8asiodnp313UpdateBuilder7AddMeasINS0_15DoubleBitBinaryEEERS5_RKT_tNS0_9EventModeEEUlS2_E_E9_M_invokeERKSt9_Any_dataS2_, .-_ZNSt17_Function_handlerIFvRN8opendnp314IUpdateHandlerEEZN8asiodnp313UpdateBuilder7AddMeasINS0_15DoubleBitBinaryEEERS5_RKT_tNS0_9EventModeEEUlS2_E_E9_M_invokeERKSt9_Any_dataS2_
	.section	.text._ZNSt17_Function_handlerIFvRN8opendnp314IUpdateHandlerEEZN8asiodnp313UpdateBuilder7AddMeasINS0_6AnalogEEERS5_RKT_tNS0_9EventModeEEUlS2_E_E9_M_invokeERKSt9_Any_dataS2_,"axG",@progbits,_ZNSt17_Function_handlerIFvRN8opendnp314IUpdateHandlerEEZN8asiodnp313UpdateBuilder7AddMeasINS0_6AnalogEEERS5_RKT_tNS0_9EventModeEEUlS2_E_E9_M_invokeERKSt9_Any_dataS2_,comdat
	.align	2
	.p2align 4,,11
	.weak	_ZNSt17_Function_handlerIFvRN8opendnp314IUpdateHandlerEEZN8asiodnp313UpdateBuilder7AddMeasINS0_6AnalogEEERS5_RKT_tNS0_9EventModeEEUlS2_E_E9_M_invokeERKSt9_Any_dataS2_
	.type	_ZNSt17_Function_handlerIFvRN8opendnp314IUpdateHandlerEEZN8asiodnp313UpdateBuilder7AddMeasINS0_6AnalogEEERS5_RKT_tNS0_9EventModeEEUlS2_E_E9_M_invokeERKSt9_Any_dataS2_, %function
_ZNSt17_Function_handlerIFvRN8opendnp314IUpdateHandlerEEZN8asiodnp313UpdateBuilder7AddMeasINS0_6AnalogEEERS5_RKT_tNS0_9EventModeEEUlS2_E_E9_M_invokeERKSt9_Any_dataS2_:
.LFB2276:
	.cfi_startproc
	mov	x2, x0
	mov	x0, x1
	ldr	x4, [x1]
	ldr	x1, [x2]
	ldr	x4, [x4, 32]
	ldrh	w2, [x1, 24]
	ldrb	w3, [x1, 26]
	mov	x16, x4
	br	x16
	.cfi_endproc
.LFE2276:
	.size	_ZNSt17_Function_handlerIFvRN8opendnp314IUpdateHandlerEEZN8asiodnp313UpdateBuilder7AddMeasINS0_6AnalogEEERS5_RKT_tNS0_9EventModeEEUlS2_E_E9_M_invokeERKSt9_Any_dataS2_, .-_ZNSt17_Function_handlerIFvRN8opendnp314IUpdateHandlerEEZN8asiodnp313UpdateBuilder7AddMeasINS0_6AnalogEEERS5_RKT_tNS0_9EventModeEEUlS2_E_E9_M_invokeERKSt9_Any_dataS2_
	.section	.text._ZNSt17_Function_handlerIFvRN8opendnp314IUpdateHandlerEEZN8asiodnp313UpdateBuilder7AddMeasINS0_7CounterEEERS5_RKT_tNS0_9EventModeEEUlS2_E_E9_M_invokeERKSt9_Any_dataS2_,"axG",@progbits,_ZNSt17_Function_handlerIFvRN8opendnp314IUpdateHandlerEEZN8asiodnp313UpdateBuilder7AddMeasINS0_7CounterEEERS5_RKT_tNS0_9EventModeEEUlS2_E_E9_M_invokeERKSt9_Any_dataS2_,comdat
	.align	2
	.p2align 4,,11
	.weak	_ZNSt17_Function_handlerIFvRN8opendnp314IUpdateHandlerEEZN8asiodnp313UpdateBuilder7AddMeasINS0_7CounterEEERS5_RKT_tNS0_9EventModeEEUlS2_E_E9_M_invokeERKSt9_Any_dataS2_
	.type	_ZNSt17_Function_handlerIFvRN8opendnp314IUpdateHandlerEEZN8asiodnp313UpdateBuilder7AddMeasINS0_7CounterEEERS5_RKT_tNS0_9EventModeEEUlS2_E_E9_M_invokeERKSt9_Any_dataS2_, %function
_ZNSt17_Function_handlerIFvRN8opendnp314IUpdateHandlerEEZN8asiodnp313UpdateBuilder7AddMeasINS0_7CounterEEERS5_RKT_tNS0_9EventModeEEUlS2_E_E9_M_invokeERKSt9_Any_dataS2_:
.LFB2280:
	.cfi_startproc
	mov	x2, x0
	mov	x0, x1
	ldr	x4, [x1]
	ldr	x1, [x2]
	ldr	x4, [x4, 40]
	ldrh	w2, [x1, 24]
	ldrb	w3, [x1, 26]
	mov	x16, x4
	br	x16
	.cfi_endproc
.LFE2280:
	.size	_ZNSt17_Function_handlerIFvRN8opendnp314IUpdateHandlerEEZN8asiodnp313UpdateBuilder7AddMeasINS0_7CounterEEERS5_RKT_tNS0_9EventModeEEUlS2_E_E9_M_invokeERKSt9_Any_dataS2_, .-_ZNSt17_Function_handlerIFvRN8opendnp314IUpdateHandlerEEZN8asiodnp313UpdateBuilder7AddMeasINS0_7CounterEEERS5_RKT_tNS0_9EventModeEEUlS2_E_E9_M_invokeERKSt9_Any_dataS2_
	.section	.text._ZNSt17_Function_handlerIFvRN8opendnp314IUpdateHandlerEEZN8asiodnp313UpdateBuilder7AddMeasINS0_13FrozenCounterEEERS5_RKT_tNS0_9EventModeEEUlS2_E_E9_M_invokeERKSt9_Any_dataS2_,"axG",@progbits,_ZNSt17_Function_handlerIFvRN8opendnp314IUpdateHandlerEEZN8asiodnp313UpdateBuilder7AddMeasINS0_13FrozenCounterEEERS5_RKT_tNS0_9EventModeEEUlS2_E_E9_M_invokeERKSt9_Any_dataS2_,comdat
	.align	2
	.p2align 4,,11
	.weak	_ZNSt17_Function_handlerIFvRN8opendnp314IUpdateHandlerEEZN8asiodnp313UpdateBuilder7AddMeasINS0_13FrozenCounterEEERS5_RKT_tNS0_9EventModeEEUlS2_E_E9_M_invokeERKSt9_Any_dataS2_
	.type	_ZNSt17_Function_handlerIFvRN8opendnp314IUpdateHandlerEEZN8asiodnp313UpdateBuilder7AddMeasINS0_13FrozenCounterEEERS5_RKT_tNS0_9EventModeEEUlS2_E_E9_M_invokeERKSt9_Any_dataS2_, %function
_ZNSt17_Function_handlerIFvRN8opendnp314IUpdateHandlerEEZN8asiodnp313UpdateBuilder7AddMeasINS0_13FrozenCounterEEERS5_RKT_tNS0_9EventModeEEUlS2_E_E9_M_invokeERKSt9_Any_dataS2_:
.LFB2284:
	.cfi_startproc
	mov	x2, x0
	mov	x0, x1
	ldr	x4, [x1]
	ldr	x1, [x2]
	ldr	x4, [x4, 48]
	ldrh	w2, [x1, 24]
	ldrb	w3, [x1, 26]
	mov	x16, x4
	br	x16
	.cfi_endproc
.LFE2284:
	.size	_ZNSt17_Function_handlerIFvRN8opendnp314IUpdateHandlerEEZN8asiodnp313UpdateBuilder7AddMeasINS0_13FrozenCounterEEERS5_RKT_tNS0_9EventModeEEUlS2_E_E9_M_invokeERKSt9_Any_dataS2_, .-_ZNSt17_Function_handlerIFvRN8opendnp314IUpdateHandlerEEZN8asiodnp313UpdateBuilder7AddMeasINS0_13FrozenCounterEEERS5_RKT_tNS0_9EventModeEEUlS2_E_E9_M_invokeERKSt9_Any_dataS2_
	.section	.text._ZNSt17_Function_handlerIFvRN8opendnp314IUpdateHandlerEEZN8asiodnp313UpdateBuilder7AddMeasINS0_18BinaryOutputStatusEEERS5_RKT_tNS0_9EventModeEEUlS2_E_E9_M_invokeERKSt9_Any_dataS2_,"axG",@progbits,_ZNSt17_Function_handlerIFvRN8opendnp314IUpdateHandlerEEZN8asiodnp313UpdateBuilder7AddMeasINS0_18BinaryOutputStatusEEERS5_RKT_tNS0_9EventModeEEUlS2_E_E9_M_invokeERKSt9_Any_dataS2_,comdat
	.align	2
	.p2align 4,,11
	.weak	_ZNSt17_Function_handlerIFvRN8opendnp314IUpdateHandlerEEZN8asiodnp313UpdateBuilder7AddMeasINS0_18BinaryOutputStatusEEERS5_RKT_tNS0_9EventModeEEUlS2_E_E9_M_invokeERKSt9_Any_dataS2_
	.type	_ZNSt17_Function_handlerIFvRN8opendnp314IUpdateHandlerEEZN8asiodnp313UpdateBuilder7AddMeasINS0_18BinaryOutputStatusEEERS5_RKT_tNS0_9EventModeEEUlS2_E_E9_M_invokeERKSt9_Any_dataS2_, %function
_ZNSt17_Function_handlerIFvRN8opendnp314IUpdateHandlerEEZN8asiodnp313UpdateBuilder7AddMeasINS0_18BinaryOutputStatusEEERS5_RKT_tNS0_9EventModeEEUlS2_E_E9_M_invokeERKSt9_Any_dataS2_:
.LFB2288:
	.cfi_startproc
	mov	x2, x0
	mov	x0, x1
	ldr	x4, [x1]
	ldr	x1, [x2]
	ldr	x4, [x4, 56]
	ldrh	w2, [x1, 24]
	ldrb	w3, [x1, 26]
	mov	x16, x4
	br	x16
	.cfi_endproc
.LFE2288:
	.size	_ZNSt17_Function_handlerIFvRN8opendnp314IUpdateHandlerEEZN8asiodnp313UpdateBuilder7AddMeasINS0_18BinaryOutputStatusEEERS5_RKT_tNS0_9EventModeEEUlS2_E_E9_M_invokeERKSt9_Any_dataS2_, .-_ZNSt17_Function_handlerIFvRN8opendnp314IUpdateHandlerEEZN8asiodnp313UpdateBuilder7AddMeasINS0_18BinaryOutputStatusEEERS5_RKT_tNS0_9EventModeEEUlS2_E_E9_M_invokeERKSt9_Any_dataS2_
	.section	.text._ZNSt17_Function_handlerIFvRN8opendnp314IUpdateHandlerEEZN8asiodnp313UpdateBuilder7AddMeasINS0_18AnalogOutputStatusEEERS5_RKT_tNS0_9EventModeEEUlS2_E_E9_M_invokeERKSt9_Any_dataS2_,"axG",@progbits,_ZNSt17_Function_handlerIFvRN8opendnp314IUpdateHandlerEEZN8asiodnp313UpdateBuilder7AddMeasINS0_18AnalogOutputStatusEEERS5_RKT_tNS0_9EventModeEEUlS2_E_E9_M_invokeERKSt9_Any_dataS2_,comdat
	.align	2
	.p2align 4,,11
	.weak	_ZNSt17_Function_handlerIFvRN8opendnp314IUpdateHandlerEEZN8asiodnp313UpdateBuilder7AddMeasINS0_18AnalogOutputStatusEEERS5_RKT_tNS0_9EventModeEEUlS2_E_E9_M_invokeERKSt9_Any_dataS2_
	.type	_ZNSt17_Function_handlerIFvRN8opendnp314IUpdateHandlerEEZN8asiodnp313UpdateBuilder7AddMeasINS0_18AnalogOutputStatusEEERS5_RKT_tNS0_9EventModeEEUlS2_E_E9_M_invokeERKSt9_Any_dataS2_, %function
_ZNSt17_Function_handlerIFvRN8opendnp314IUpdateHandlerEEZN8asiodnp313UpdateBuilder7AddMeasINS0_18AnalogOutputStatusEEERS5_RKT_tNS0_9EventModeEEUlS2_E_E9_M_invokeERKSt9_Any_dataS2_:
.LFB2292:
	.cfi_startproc
	mov	x2, x0
	mov	x0, x1
	ldr	x4, [x1]
	ldr	x1, [x2]
	ldr	x4, [x4, 64]
	ldrh	w2, [x1, 24]
	ldrb	w3, [x1, 26]
	mov	x16, x4
	br	x16
	.cfi_endproc
.LFE2292:
	.size	_ZNSt17_Function_handlerIFvRN8opendnp314IUpdateHandlerEEZN8asiodnp313UpdateBuilder7AddMeasINS0_18AnalogOutputStatusEEERS5_RKT_tNS0_9EventModeEEUlS2_E_E9_M_invokeERKSt9_Any_dataS2_, .-_ZNSt17_Function_handlerIFvRN8opendnp314IUpdateHandlerEEZN8asiodnp313UpdateBuilder7AddMeasINS0_18AnalogOutputStatusEEERS5_RKT_tNS0_9EventModeEEUlS2_E_E9_M_invokeERKSt9_Any_dataS2_
	.section	.text._ZNSt23_Sp_counted_ptr_inplaceISt6vectorISt8functionIFvRN8opendnp314IUpdateHandlerEEESaIS6_EESaIS8_ELN9__gnu_cxx12_Lock_policyE2EED2Ev,"axG",@progbits,_ZNSt23_Sp_counted_ptr_inplaceISt6vectorISt8functionIFvRN8opendnp314IUpdateHandlerEEESaIS6_EESaIS8_ELN9__gnu_cxx12_Lock_policyE2EED5Ev,comdat
	.align	2
	.p2align 4,,11
	.weak	_ZNSt23_Sp_counted_ptr_inplaceISt6vectorISt8functionIFvRN8opendnp314IUpdateHandlerEEESaIS6_EESaIS8_ELN9__gnu_cxx12_Lock_policyE2EED2Ev
	.type	_ZNSt23_Sp_counted_ptr_inplaceISt6vectorISt8functionIFvRN8opendnp314IUpdateHandlerEEESaIS6_EESaIS8_ELN9__gnu_cxx12_Lock_policyE2EED2Ev, %function
_ZNSt23_Sp_counted_ptr_inplaceISt6vectorISt8functionIFvRN8opendnp314IUpdateHandlerEEESaIS6_EESaIS8_ELN9__gnu_cxx12_Lock_policyE2EED2Ev:
.LFB2621:
	.cfi_startproc
	ret
	.cfi_endproc
.LFE2621:
	.size	_ZNSt23_Sp_counted_ptr_inplaceISt6vectorISt8functionIFvRN8opendnp314IUpdateHandlerEEESaIS6_EESaIS8_ELN9__gnu_cxx12_Lock_policyE2EED2Ev, .-_ZNSt23_Sp_counted_ptr_inplaceISt6vectorISt8functionIFvRN8opendnp314IUpdateHandlerEEESaIS6_EESaIS8_ELN9__gnu_cxx12_Lock_policyE2EED2Ev
	.weak	_ZNSt23_Sp_counted_ptr_inplaceISt6vectorISt8functionIFvRN8opendnp314IUpdateHandlerEEESaIS6_EESaIS8_ELN9__gnu_cxx12_Lock_policyE2EED1Ev
	.set	_ZNSt23_Sp_counted_ptr_inplaceISt6vectorISt8functionIFvRN8opendnp314IUpdateHandlerEEESaIS6_EESaIS8_ELN9__gnu_cxx12_Lock_policyE2EED1Ev,_ZNSt23_Sp_counted_ptr_inplaceISt6vectorISt8functionIFvRN8opendnp314IUpdateHandlerEEESaIS6_EESaIS8_ELN9__gnu_cxx12_Lock_policyE2EED2Ev
	.section	.text._ZNSt23_Sp_counted_ptr_inplaceISt6vectorISt8functionIFvRN8opendnp314IUpdateHandlerEEESaIS6_EESaIS8_ELN9__gnu_cxx12_Lock_policyE2EED0Ev,"axG",@progbits,_ZNSt23_Sp_counted_ptr_inplaceISt6vectorISt8functionIFvRN8opendnp314IUpdateHandlerEEESaIS6_EESaIS8_ELN9__gnu_cxx12_Lock_policyE2EED5Ev,comdat
	.align	2
	.p2align 4,,11
	.weak	_ZNSt23_Sp_counted_ptr_inplaceISt6vectorISt8functionIFvRN8opendnp314IUpdateHandlerEEESaIS6_EESaIS8_ELN9__gnu_cxx12_Lock_policyE2EED0Ev
	.type	_ZNSt23_Sp_counted_ptr_inplaceISt6vectorISt8functionIFvRN8opendnp314IUpdateHandlerEEESaIS6_EESaIS8_ELN9__gnu_cxx12_Lock_policyE2EED0Ev, %function
_ZNSt23_Sp_counted_ptr_inplaceISt6vectorISt8functionIFvRN8opendnp314IUpdateHandlerEEESaIS6_EESaIS8_ELN9__gnu_cxx12_Lock_policyE2EED0Ev:
.LFB2623:
	.cfi_startproc
	mov	x1, 40
	b	_ZdlPvm
	.cfi_endproc
.LFE2623:
	.size	_ZNSt23_Sp_counted_ptr_inplaceISt6vectorISt8functionIFvRN8opendnp314IUpdateHandlerEEESaIS6_EESaIS8_ELN9__gnu_cxx12_Lock_policyE2EED0Ev, .-_ZNSt23_Sp_counted_ptr_inplaceISt6vectorISt8functionIFvRN8opendnp314IUpdateHandlerEEESaIS6_EESaIS8_ELN9__gnu_cxx12_Lock_policyE2EED0Ev
	.section	.text._ZNSt23_Sp_counted_ptr_inplaceISt6vectorISt8functionIFvRN8opendnp314IUpdateHandlerEEESaIS6_EESaIS8_ELN9__gnu_cxx12_Lock_policyE2EE10_M_destroyEv,"axG",@progbits,_ZNSt23_Sp_counted_ptr_inplaceISt6vectorISt8functionIFvRN8opendnp314IUpdateHandlerEEESaIS6_EESaIS8_ELN9__gnu_cxx12_Lock_policyE2EE10_M_destroyEv,comdat
	.align	2
	.p2align 4,,11
	.weak	_ZNSt23_Sp_counted_ptr_inplaceISt6vectorISt8functionIFvRN8opendnp314IUpdateHandlerEEESaIS6_EESaIS8_ELN9__gnu_cxx12_Lock_policyE2EE10_M_destroyEv
	.type	_ZNSt23_Sp_counted_ptr_inplaceISt6vectorISt8functionIFvRN8opendnp314IUpdateHandlerEEESaIS6_EESaIS8_ELN9__gnu_cxx12_Lock_policyE2EE10_M_destroyEv, %function
_ZNSt23_Sp_counted_ptr_inplaceISt6vectorISt8functionIFvRN8opendnp314IUpdateHandlerEEESaIS6_EESaIS8_ELN9__gnu_cxx12_Lock_policyE2EE10_M_destroyEv:
.LFB2625:
	.cfi_startproc
	mov	x1, 40
	b	_ZdlPvm
	.cfi_endproc
.LFE2625:
	.size	_ZNSt23_Sp_counted_ptr_inplaceISt6vectorISt8functionIFvRN8opendnp314IUpdateHandlerEEESaIS6_EESaIS8_ELN9__gnu_cxx12_Lock_policyE2EE10_M_destroyEv, .-_ZNSt23_Sp_counted_ptr_inplaceISt6vectorISt8functionIFvRN8opendnp314IUpdateHandlerEEESaIS6_EESaIS8_ELN9__gnu_cxx12_Lock_policyE2EE10_M_destroyEv
	.section	.text._ZNSt23_Sp_counted_ptr_inplaceISt6vectorISt8functionIFvRN8opendnp314IUpdateHandlerEEESaIS6_EESaIS8_ELN9__gnu_cxx12_Lock_policyE2EE10_M_disposeEv,"axG",@progbits,_ZNSt23_Sp_counted_ptr_inplaceISt6vectorISt8functionIFvRN8opendnp314IUpdateHandlerEEESaIS6_EESaIS8_ELN9__gnu_cxx12_Lock_policyE2EE10_M_disposeEv,comdat
	.align	2
	.p2align 4,,11
	.weak	_ZNSt23_Sp_counted_ptr_inplaceISt6vectorISt8functionIFvRN8opendnp314IUpdateHandlerEEESaIS6_EESaIS8_ELN9__gnu_cxx12_Lock_policyE2EE10_M_disposeEv
	.type	_ZNSt23_Sp_counted_ptr_inplaceISt6vectorISt8functionIFvRN8opendnp314IUpdateHandlerEEESaIS6_EESaIS8_ELN9__gnu_cxx12_Lock_policyE2EE10_M_disposeEv, %function
_ZNSt23_Sp_counted_ptr_inplaceISt6vectorISt8functionIFvRN8opendnp314IUpdateHandlerEEESaIS6_EESaIS8_ELN9__gnu_cxx12_Lock_policyE2EE10_M_disposeEv:
.LFB2624:
	.cfi_startproc
	.cfi_personality 0x9b,DW.ref.__gxx_personality_v0
	.cfi_lsda 0x1b,.LLSDA2624
	stp	x29, x30, [sp, -48]!
	.cfi_def_cfa_offset 48
	.cfi_offset 29, -48
	.cfi_offset 30, -40
	mov	x29, sp
	stp	x21, x22, [sp, 32]
	.cfi_offset 21, -16
	.cfi_offset 22, -8
	add	x22, x0, 16
	mov	x21, x0
	stp	x19, x20, [sp, 16]
	.cfi_offset 19, -32
	.cfi_offset 20, -24
	ldr	x20, [x22, 8]
	ldr	x19, [x0, 16]
	cmp	x19, x20
	beq	.L15
	.p2align 3,,7
.L19:
	ldr	x3, [x19, 16]
	cbz	x3, .L16
	mov	x1, x19
	mov	x0, x19
	mov	w2, 3
	add	x19, x19, 32
	blr	x3
	cmp	x20, x19
	bne	.L19
	ldr	x20, [x21, 16]
.L15:
	cbz	x20, .L14
	ldr	x1, [x22, 16]
	mov	x0, x20
	ldp	x21, x22, [sp, 32]
	sub	x1, x1, x20
	ldp	x19, x20, [sp, 16]
	ldp	x29, x30, [sp], 48
	.cfi_remember_state
	.cfi_restore 30
	.cfi_restore 29
	.cfi_restore 21
	.cfi_restore 22
	.cfi_restore 19
	.cfi_restore 20
	.cfi_def_cfa_offset 0
	b	_ZdlPvm
	.p2align 2,,3
.L16:
	.cfi_restore_state
	add	x19, x19, 32
	cmp	x20, x19
	bne	.L19
	ldr	x20, [x21, 16]
	b	.L15
	.p2align 2,,3
.L14:
	ldp	x19, x20, [sp, 16]
	ldp	x21, x22, [sp, 32]
	ldp	x29, x30, [sp], 48
	.cfi_restore 30
	.cfi_restore 29
	.cfi_restore 21
	.cfi_restore 22
	.cfi_restore 19
	.cfi_restore 20
	.cfi_def_cfa_offset 0
	ret
	.cfi_endproc
.LFE2624:
	.global	__gxx_personality_v0
	.section	.gcc_except_table._ZNSt23_Sp_counted_ptr_inplaceISt6vectorISt8functionIFvRN8opendnp314IUpdateHandlerEEESaIS6_EESaIS8_ELN9__gnu_cxx12_Lock_policyE2EE10_M_disposeEv,"aG",@progbits,_ZNSt23_Sp_counted_ptr_inplaceISt6vectorISt8functionIFvRN8opendnp314IUpdateHandlerEEESaIS6_EESaIS8_ELN9__gnu_cxx12_Lock_policyE2EE10_M_disposeEv,comdat
.LLSDA2624:
	.byte	0xff
	.byte	0xff
	.byte	0x1
	.uleb128 .LLSDACSE2624-.LLSDACSB2624
.LLSDACSB2624:
.LLSDACSE2624:
	.section	.text._ZNSt23_Sp_counted_ptr_inplaceISt6vectorISt8functionIFvRN8opendnp314IUpdateHandlerEEESaIS6_EESaIS8_ELN9__gnu_cxx12_Lock_policyE2EE10_M_disposeEv,"axG",@progbits,_ZNSt23_Sp_counted_ptr_inplaceISt6vectorISt8functionIFvRN8opendnp314IUpdateHandlerEEESaIS6_EESaIS8_ELN9__gnu_cxx12_Lock_policyE2EE10_M_disposeEv,comdat
	.size	_ZNSt23_Sp_counted_ptr_inplaceISt6vectorISt8functionIFvRN8opendnp314IUpdateHandlerEEESaIS6_EESaIS8_ELN9__gnu_cxx12_Lock_policyE2EE10_M_disposeEv, .-_ZNSt23_Sp_counted_ptr_inplaceISt6vectorISt8functionIFvRN8opendnp314IUpdateHandlerEEESaIS6_EESaIS8_ELN9__gnu_cxx12_Lock_policyE2EE10_M_disposeEv
	.section	.text._ZNSt23_Sp_counted_ptr_inplaceISt6vectorISt8functionIFvRN8opendnp314IUpdateHandlerEEESaIS6_EESaIS8_ELN9__gnu_cxx12_Lock_policyE2EE14_M_get_deleterERKSt9type_info,"axG",@progbits,_ZNSt23_Sp_counted_ptr_inplaceISt6vectorISt8functionIFvRN8opendnp314IUpdateHandlerEEESaIS6_EESaIS8_ELN9__gnu_cxx12_Lock_policyE2EE14_M_get_deleterERKSt9type_info,comdat
	.align	2
	.p2align 4,,11
	.weak	_ZNSt23_Sp_counted_ptr_inplaceISt6vectorISt8functionIFvRN8opendnp314IUpdateHandlerEEESaIS6_EESaIS8_ELN9__gnu_cxx12_Lock_policyE2EE14_M_get_deleterERKSt9type_info
	.type	_ZNSt23_Sp_counted_ptr_inplaceISt6vectorISt8functionIFvRN8opendnp314IUpdateHandlerEEESaIS6_EESaIS8_ELN9__gnu_cxx12_Lock_policyE2EE14_M_get_deleterERKSt9type_info, %function
_ZNSt23_Sp_counted_ptr_inplaceISt6vectorISt8functionIFvRN8opendnp314IUpdateHandlerEEESaIS6_EESaIS8_ELN9__gnu_cxx12_Lock_policyE2EE14_M_get_deleterERKSt9type_info:
.LFB2626:
	.cfi_startproc
	stp	x29, x30, [sp, -32]!
	.cfi_def_cfa_offset 32
	.cfi_offset 29, -32
	.cfi_offset 30, -24
	adrp	x2, :got:_ZZNSt19_Sp_make_shared_tag5_S_tiEvE5__tag
	mov	x29, sp
	ldr	x2, [x2, #:got_lo12:_ZZNSt19_Sp_make_shared_tag5_S_tiEvE5__tag]
	str	x19, [sp, 16]
	.cfi_offset 19, -16
	add	x19, x0, 16
	cmp	x1, x2
	beq	.L22
	adrp	x2, :got:_ZTSSt19_Sp_make_shared_tag
	ldr	x0, [x1, 8]
	ldr	x1, [x2, #:got_lo12:_ZTSSt19_Sp_make_shared_tag]
	cmp	x0, x1
	beq	.L22
	ldrb	w2, [x0]
	cmp	w2, 42
	beq	.L24
	bl	strcmp
	cmp	w0, 0
	csel	x19, x19, xzr, eq
.L22:
	mov	x0, x19
	ldr	x19, [sp, 16]
	ldp	x29, x30, [sp], 32
	.cfi_remember_state
	.cfi_restore 30
	.cfi_restore 29
	.cfi_restore 19
	.cfi_def_cfa_offset 0
	ret
	.p2align 2,,3
.L24:
	.cfi_restore_state
	mov	x19, 0
	mov	x0, x19
	ldr	x19, [sp, 16]
	ldp	x29, x30, [sp], 32
	.cfi_restore 30
	.cfi_restore 29
	.cfi_restore 19
	.cfi_def_cfa_offset 0
	ret
	.cfi_endproc
.LFE2626:
	.size	_ZNSt23_Sp_counted_ptr_inplaceISt6vectorISt8functionIFvRN8opendnp314IUpdateHandlerEEESaIS6_EESaIS8_ELN9__gnu_cxx12_Lock_policyE2EE14_M_get_deleterERKSt9type_info, .-_ZNSt23_Sp_counted_ptr_inplaceISt6vectorISt8functionIFvRN8opendnp314IUpdateHandlerEEESaIS6_EESaIS8_ELN9__gnu_cxx12_Lock_policyE2EE14_M_get_deleterERKSt9type_info
	.text
	.align	2
	.p2align 4,,11
	.type	_ZNSt17_Function_handlerIFvRN8opendnp314IUpdateHandlerEEZN8asiodnp313UpdateBuilder6ModifyENS0_9FlagsTypeEtthEUlS2_E_E10_M_managerERSt9_Any_dataRKS9_St18_Manager_operation, %function
_ZNSt17_Function_handlerIFvRN8opendnp314IUpdateHandlerEEZN8asiodnp313UpdateBuilder6ModifyENS0_9FlagsTypeEtthEUlS2_E_E10_M_managerERSt9_Any_dataRKS9_St18_Manager_operation:
.LFB2241:
	.cfi_startproc
	cbz	w2, .L28
	cmp	w2, 1
	beq	.L33
	cmp	w2, 2
	beq	.L34
	mov	w0, 0
	ret
	.p2align 2,,3
.L34:
	ldr	x1, [x1]
.L33:
	str	x1, [x0]
	mov	w0, 0
	ret
	.p2align 2,,3
.L28:
	adrp	x1, .LANCHOR0
	add	x1, x1, :lo12:.LANCHOR0
	str	x1, [x0]
	mov	w0, 0
	ret
	.cfi_endproc
.LFE2241:
	.size	_ZNSt17_Function_handlerIFvRN8opendnp314IUpdateHandlerEEZN8asiodnp313UpdateBuilder6ModifyENS0_9FlagsTypeEtthEUlS2_E_E10_M_managerERSt9_Any_dataRKS9_St18_Manager_operation, .-_ZNSt17_Function_handlerIFvRN8opendnp314IUpdateHandlerEEZN8asiodnp313UpdateBuilder6ModifyENS0_9FlagsTypeEtthEUlS2_E_E10_M_managerERSt9_Any_dataRKS9_St18_Manager_operation
	.section	.text._ZNSt17_Function_handlerIFvRN8opendnp314IUpdateHandlerEEZN8asiodnp313UpdateBuilder7AddMeasINS0_18AnalogOutputStatusEEERS5_RKT_tNS0_9EventModeEEUlS2_E_E10_M_managerERSt9_Any_dataRKSF_St18_Manager_operation,"axG",@progbits,_ZNSt17_Function_handlerIFvRN8opendnp314IUpdateHandlerEEZN8asiodnp313UpdateBuilder7AddMeasINS0_18AnalogOutputStatusEEERS5_RKT_tNS0_9EventModeEEUlS2_E_E10_M_managerERSt9_Any_dataRKSF_St18_Manager_operation,comdat
	.align	2
	.p2align 4,,11
	.weak	_ZNSt17_Function_handlerIFvRN8opendnp314IUpdateHandlerEEZN8asiodnp313UpdateBuilder7AddMeasINS0_18AnalogOutputStatusEEERS5_RKT_tNS0_9EventModeEEUlS2_E_E10_M_managerERSt9_Any_dataRKSF_St18_Manager_operation
	.type	_ZNSt17_Function_handlerIFvRN8opendnp314IUpdateHandlerEEZN8asiodnp313UpdateBuilder7AddMeasINS0_18AnalogOutputStatusEEERS5_RKT_tNS0_9EventModeEEUlS2_E_E10_M_managerERSt9_Any_dataRKSF_St18_Manager_operation, %function
_ZNSt17_Function_handlerIFvRN8opendnp314IUpdateHandlerEEZN8asiodnp313UpdateBuilder7AddMeasINS0_18AnalogOutputStatusEEERS5_RKT_tNS0_9EventModeEEUlS2_E_E10_M_managerERSt9_Any_dataRKSF_St18_Manager_operation:
.LFB2293:
	.cfi_startproc
	stp	x29, x30, [sp, -32]!
	.cfi_def_cfa_offset 32
	.cfi_offset 29, -32
	.cfi_offset 30, -24
	mov	x29, sp
	stp	x19, x20, [sp, 16]
	.cfi_offset 19, -16
	.cfi_offset 20, -8
	mov	x19, x0
	cbz	w2, .L36
	cmp	w2, 1
	beq	.L37
	cmp	w2, 2
	beq	.L40
	cmp	w2, 3
	bne	.L39
	ldr	x0, [x0]
	cbz	x0, .L39
	mov	x1, 32
	bl	_ZdlPvm
.L39:
	mov	w0, 0
	ldp	x19, x20, [sp, 16]
	ldp	x29, x30, [sp], 32
	.cfi_remember_state
	.cfi_restore 30
	.cfi_restore 29
	.cfi_restore 19
	.cfi_restore 20
	.cfi_def_cfa_offset 0
	ret
	.p2align 2,,3
.L36:
	.cfi_restore_state
	adrp	x0, :got:_ZTIZN8asiodnp313UpdateBuilder7AddMeasIN8opendnp318AnalogOutputStatusEEERS0_RKT_tNS2_9EventModeEEUlRNS2_14IUpdateHandlerEE_
	ldr	x0, [x0, #:got_lo12:_ZTIZN8asiodnp313UpdateBuilder7AddMeasIN8opendnp318AnalogOutputStatusEEERS0_RKT_tNS2_9EventModeEEUlRNS2_14IUpdateHandlerEE_]
	str	x0, [x19]
	mov	w0, 0
	ldp	x19, x20, [sp, 16]
	ldp	x29, x30, [sp], 32
	.cfi_remember_state
	.cfi_restore 30
	.cfi_restore 29
	.cfi_restore 19
	.cfi_restore 20
	.cfi_def_cfa_offset 0
	ret
	.p2align 2,,3
.L37:
	.cfi_restore_state
	ldr	x0, [x1]
	str	x0, [x19]
	mov	w0, 0
	ldp	x19, x20, [sp, 16]
	ldp	x29, x30, [sp], 32
	.cfi_remember_state
	.cfi_restore 30
	.cfi_restore 29
	.cfi_restore 19
	.cfi_restore 20
	.cfi_def_cfa_offset 0
	ret
	.p2align 2,,3
.L40:
	.cfi_restore_state
	ldr	x20, [x1]
	mov	x0, 32
	bl	_Znwm
	ldp	q0, q1, [x20]
	str	x0, [x19]
	stp	q0, q1, [x0]
	b	.L39
	.cfi_endproc
.LFE2293:
	.size	_ZNSt17_Function_handlerIFvRN8opendnp314IUpdateHandlerEEZN8asiodnp313UpdateBuilder7AddMeasINS0_18AnalogOutputStatusEEERS5_RKT_tNS0_9EventModeEEUlS2_E_E10_M_managerERSt9_Any_dataRKSF_St18_Manager_operation, .-_ZNSt17_Function_handlerIFvRN8opendnp314IUpdateHandlerEEZN8asiodnp313UpdateBuilder7AddMeasINS0_18AnalogOutputStatusEEERS5_RKT_tNS0_9EventModeEEUlS2_E_E10_M_managerERSt9_Any_dataRKSF_St18_Manager_operation
	.section	.text._ZNSt17_Function_handlerIFvRN8opendnp314IUpdateHandlerEEZN8asiodnp313UpdateBuilder7AddMeasINS0_18BinaryOutputStatusEEERS5_RKT_tNS0_9EventModeEEUlS2_E_E10_M_managerERSt9_Any_dataRKSF_St18_Manager_operation,"axG",@progbits,_ZNSt17_Function_handlerIFvRN8opendnp314IUpdateHandlerEEZN8asiodnp313UpdateBuilder7AddMeasINS0_18BinaryOutputStatusEEERS5_RKT_tNS0_9EventModeEEUlS2_E_E10_M_managerERSt9_Any_dataRKSF_St18_Manager_operation,comdat
	.align	2
	.p2align 4,,11
	.weak	_ZNSt17_Function_handlerIFvRN8opendnp314IUpdateHandlerEEZN8asiodnp313UpdateBuilder7AddMeasINS0_18BinaryOutputStatusEEERS5_RKT_tNS0_9EventModeEEUlS2_E_E10_M_managerERSt9_Any_dataRKSF_St18_Manager_operation
	.type	_ZNSt17_Function_handlerIFvRN8opendnp314IUpdateHandlerEEZN8asiodnp313UpdateBuilder7AddMeasINS0_18BinaryOutputStatusEEERS5_RKT_tNS0_9EventModeEEUlS2_E_E10_M_managerERSt9_Any_dataRKSF_St18_Manager_operation, %function
_ZNSt17_Function_handlerIFvRN8opendnp314IUpdateHandlerEEZN8asiodnp313UpdateBuilder7AddMeasINS0_18BinaryOutputStatusEEERS5_RKT_tNS0_9EventModeEEUlS2_E_E10_M_managerERSt9_Any_dataRKSF_St18_Manager_operation:
.LFB2289:
	.cfi_startproc
	stp	x29, x30, [sp, -32]!
	.cfi_def_cfa_offset 32
	.cfi_offset 29, -32
	.cfi_offset 30, -24
	mov	x29, sp
	stp	x19, x20, [sp, 16]
	.cfi_offset 19, -16
	.cfi_offset 20, -8
	mov	x19, x0
	cbz	w2, .L48
	cmp	w2, 1
	beq	.L49
	cmp	w2, 2
	beq	.L52
	cmp	w2, 3
	bne	.L51
	ldr	x0, [x0]
	cbz	x0, .L51
	mov	x1, 32
	bl	_ZdlPvm
.L51:
	mov	w0, 0
	ldp	x19, x20, [sp, 16]
	ldp	x29, x30, [sp], 32
	.cfi_remember_state
	.cfi_restore 30
	.cfi_restore 29
	.cfi_restore 19
	.cfi_restore 20
	.cfi_def_cfa_offset 0
	ret
	.p2align 2,,3
.L48:
	.cfi_restore_state
	adrp	x0, :got:_ZTIZN8asiodnp313UpdateBuilder7AddMeasIN8opendnp318BinaryOutputStatusEEERS0_RKT_tNS2_9EventModeEEUlRNS2_14IUpdateHandlerEE_
	ldr	x0, [x0, #:got_lo12:_ZTIZN8asiodnp313UpdateBuilder7AddMeasIN8opendnp318BinaryOutputStatusEEERS0_RKT_tNS2_9EventModeEEUlRNS2_14IUpdateHandlerEE_]
	str	x0, [x19]
	mov	w0, 0
	ldp	x19, x20, [sp, 16]
	ldp	x29, x30, [sp], 32
	.cfi_remember_state
	.cfi_restore 30
	.cfi_restore 29
	.cfi_restore 19
	.cfi_restore 20
	.cfi_def_cfa_offset 0
	ret
	.p2align 2,,3
.L49:
	.cfi_restore_state
	ldr	x0, [x1]
	str	x0, [x19]
	mov	w0, 0
	ldp	x19, x20, [sp, 16]
	ldp	x29, x30, [sp], 32
	.cfi_remember_state
	.cfi_restore 30
	.cfi_restore 29
	.cfi_restore 19
	.cfi_restore 20
	.cfi_def_cfa_offset 0
	ret
	.p2align 2,,3
.L52:
	.cfi_restore_state
	ldr	x20, [x1]
	mov	x0, 32
	bl	_Znwm
	ldp	q0, q1, [x20]
	str	x0, [x19]
	stp	q0, q1, [x0]
	b	.L51
	.cfi_endproc
.LFE2289:
	.size	_ZNSt17_Function_handlerIFvRN8opendnp314IUpdateHandlerEEZN8asiodnp313UpdateBuilder7AddMeasINS0_18BinaryOutputStatusEEERS5_RKT_tNS0_9EventModeEEUlS2_E_E10_M_managerERSt9_Any_dataRKSF_St18_Manager_operation, .-_ZNSt17_Function_handlerIFvRN8opendnp314IUpdateHandlerEEZN8asiodnp313UpdateBuilder7AddMeasINS0_18BinaryOutputStatusEEERS5_RKT_tNS0_9EventModeEEUlS2_E_E10_M_managerERSt9_Any_dataRKSF_St18_Manager_operation
	.section	.text._ZNSt17_Function_handlerIFvRN8opendnp314IUpdateHandlerEEZN8asiodnp313UpdateBuilder7AddMeasINS0_13FrozenCounterEEERS5_RKT_tNS0_9EventModeEEUlS2_E_E10_M_managerERSt9_Any_dataRKSF_St18_Manager_operation,"axG",@progbits,_ZNSt17_Function_handlerIFvRN8opendnp314IUpdateHandlerEEZN8asiodnp313UpdateBuilder7AddMeasINS0_13FrozenCounterEEERS5_RKT_tNS0_9EventModeEEUlS2_E_E10_M_managerERSt9_Any_dataRKSF_St18_Manager_operation,comdat
	.align	2
	.p2align 4,,11
	.weak	_ZNSt17_Function_handlerIFvRN8opendnp314IUpdateHandlerEEZN8asiodnp313UpdateBuilder7AddMeasINS0_13FrozenCounterEEERS5_RKT_tNS0_9EventModeEEUlS2_E_E10_M_managerERSt9_Any_dataRKSF_St18_Manager_operation
	.type	_ZNSt17_Function_handlerIFvRN8opendnp314IUpdateHandlerEEZN8asiodnp313UpdateBuilder7AddMeasINS0_13FrozenCounterEEERS5_RKT_tNS0_9EventModeEEUlS2_E_E10_M_managerERSt9_Any_dataRKSF_St18_Manager_operation, %function
_ZNSt17_Function_handlerIFvRN8opendnp314IUpdateHandlerEEZN8asiodnp313UpdateBuilder7AddMeasINS0_13FrozenCounterEEERS5_RKT_tNS0_9EventModeEEUlS2_E_E10_M_managerERSt9_Any_dataRKSF_St18_Manager_operation:
.LFB2285:
	.cfi_startproc
	stp	x29, x30, [sp, -32]!
	.cfi_def_cfa_offset 32
	.cfi_offset 29, -32
	.cfi_offset 30, -24
	mov	x29, sp
	stp	x19, x20, [sp, 16]
	.cfi_offset 19, -16
	.cfi_offset 20, -8
	mov	x19, x0
	cbz	w2, .L60
	cmp	w2, 1
	beq	.L61
	cmp	w2, 2
	beq	.L64
	cmp	w2, 3
	bne	.L63
	ldr	x0, [x0]
	cbz	x0, .L63
	mov	x1, 32
	bl	_ZdlPvm
.L63:
	mov	w0, 0
	ldp	x19, x20, [sp, 16]
	ldp	x29, x30, [sp], 32
	.cfi_remember_state
	.cfi_restore 30
	.cfi_restore 29
	.cfi_restore 19
	.cfi_restore 20
	.cfi_def_cfa_offset 0
	ret
	.p2align 2,,3
.L60:
	.cfi_restore_state
	adrp	x0, :got:_ZTIZN8asiodnp313UpdateBuilder7AddMeasIN8opendnp313FrozenCounterEEERS0_RKT_tNS2_9EventModeEEUlRNS2_14IUpdateHandlerEE_
	ldr	x0, [x0, #:got_lo12:_ZTIZN8asiodnp313UpdateBuilder7AddMeasIN8opendnp313FrozenCounterEEERS0_RKT_tNS2_9EventModeEEUlRNS2_14IUpdateHandlerEE_]
	str	x0, [x19]
	mov	w0, 0
	ldp	x19, x20, [sp, 16]
	ldp	x29, x30, [sp], 32
	.cfi_remember_state
	.cfi_restore 30
	.cfi_restore 29
	.cfi_restore 19
	.cfi_restore 20
	.cfi_def_cfa_offset 0
	ret
	.p2align 2,,3
.L61:
	.cfi_restore_state
	ldr	x0, [x1]
	str	x0, [x19]
	mov	w0, 0
	ldp	x19, x20, [sp, 16]
	ldp	x29, x30, [sp], 32
	.cfi_remember_state
	.cfi_restore 30
	.cfi_restore 29
	.cfi_restore 19
	.cfi_restore 20
	.cfi_def_cfa_offset 0
	ret
	.p2align 2,,3
.L64:
	.cfi_restore_state
	ldr	x20, [x1]
	mov	x0, 32
	bl	_Znwm
	ldp	q0, q1, [x20]
	str	x0, [x19]
	stp	q0, q1, [x0]
	b	.L63
	.cfi_endproc
.LFE2285:
	.size	_ZNSt17_Function_handlerIFvRN8opendnp314IUpdateHandlerEEZN8asiodnp313UpdateBuilder7AddMeasINS0_13FrozenCounterEEERS5_RKT_tNS0_9EventModeEEUlS2_E_E10_M_managerERSt9_Any_dataRKSF_St18_Manager_operation, .-_ZNSt17_Function_handlerIFvRN8opendnp314IUpdateHandlerEEZN8asiodnp313UpdateBuilder7AddMeasINS0_13FrozenCounterEEERS5_RKT_tNS0_9EventModeEEUlS2_E_E10_M_managerERSt9_Any_dataRKSF_St18_Manager_operation
	.section	.text._ZNSt17_Function_handlerIFvRN8opendnp314IUpdateHandlerEEZN8asiodnp313UpdateBuilder7AddMeasINS0_7CounterEEERS5_RKT_tNS0_9EventModeEEUlS2_E_E10_M_managerERSt9_Any_dataRKSF_St18_Manager_operation,"axG",@progbits,_ZNSt17_Function_handlerIFvRN8opendnp314IUpdateHandlerEEZN8asiodnp313UpdateBuilder7AddMeasINS0_7CounterEEERS5_RKT_tNS0_9EventModeEEUlS2_E_E10_M_managerERSt9_Any_dataRKSF_St18_Manager_operation,comdat
	.align	2
	.p2align 4,,11
	.weak	_ZNSt17_Function_handlerIFvRN8opendnp314IUpdateHandlerEEZN8asiodnp313UpdateBuilder7AddMeasINS0_7CounterEEERS5_RKT_tNS0_9EventModeEEUlS2_E_E10_M_managerERSt9_Any_dataRKSF_St18_Manager_operation
	.type	_ZNSt17_Function_handlerIFvRN8opendnp314IUpdateHandlerEEZN8asiodnp313UpdateBuilder7AddMeasINS0_7CounterEEERS5_RKT_tNS0_9EventModeEEUlS2_E_E10_M_managerERSt9_Any_dataRKSF_St18_Manager_operation, %function
_ZNSt17_Function_handlerIFvRN8opendnp314IUpdateHandlerEEZN8asiodnp313UpdateBuilder7AddMeasINS0_7CounterEEERS5_RKT_tNS0_9EventModeEEUlS2_E_E10_M_managerERSt9_Any_dataRKSF_St18_Manager_operation:
.LFB2281:
	.cfi_startproc
	stp	x29, x30, [sp, -32]!
	.cfi_def_cfa_offset 32
	.cfi_offset 29, -32
	.cfi_offset 30, -24
	mov	x29, sp
	stp	x19, x20, [sp, 16]
	.cfi_offset 19, -16
	.cfi_offset 20, -8
	mov	x19, x0
	cbz	w2, .L72
	cmp	w2, 1
	beq	.L73
	cmp	w2, 2
	beq	.L76
	cmp	w2, 3
	bne	.L75
	ldr	x0, [x0]
	cbz	x0, .L75
	mov	x1, 32
	bl	_ZdlPvm
.L75:
	mov	w0, 0
	ldp	x19, x20, [sp, 16]
	ldp	x29, x30, [sp], 32
	.cfi_remember_state
	.cfi_restore 30
	.cfi_restore 29
	.cfi_restore 19
	.cfi_restore 20
	.cfi_def_cfa_offset 0
	ret
	.p2align 2,,3
.L72:
	.cfi_restore_state
	adrp	x0, :got:_ZTIZN8asiodnp313UpdateBuilder7AddMeasIN8opendnp37CounterEEERS0_RKT_tNS2_9EventModeEEUlRNS2_14IUpdateHandlerEE_
	ldr	x0, [x0, #:got_lo12:_ZTIZN8asiodnp313UpdateBuilder7AddMeasIN8opendnp37CounterEEERS0_RKT_tNS2_9EventModeEEUlRNS2_14IUpdateHandlerEE_]
	str	x0, [x19]
	mov	w0, 0
	ldp	x19, x20, [sp, 16]
	ldp	x29, x30, [sp], 32
	.cfi_remember_state
	.cfi_restore 30
	.cfi_restore 29
	.cfi_restore 19
	.cfi_restore 20
	.cfi_def_cfa_offset 0
	ret
	.p2align 2,,3
.L73:
	.cfi_restore_state
	ldr	x0, [x1]
	str	x0, [x19]
	mov	w0, 0
	ldp	x19, x20, [sp, 16]
	ldp	x29, x30, [sp], 32
	.cfi_remember_state
	.cfi_restore 30
	.cfi_restore 29
	.cfi_restore 19
	.cfi_restore 20
	.cfi_def_cfa_offset 0
	ret
	.p2align 2,,3
.L76:
	.cfi_restore_state
	ldr	x20, [x1]
	mov	x0, 32
	bl	_Znwm
	ldp	q0, q1, [x20]
	str	x0, [x19]
	stp	q0, q1, [x0]
	b	.L75
	.cfi_endproc
.LFE2281:
	.size	_ZNSt17_Function_handlerIFvRN8opendnp314IUpdateHandlerEEZN8asiodnp313UpdateBuilder7AddMeasINS0_7CounterEEERS5_RKT_tNS0_9EventModeEEUlS2_E_E10_M_managerERSt9_Any_dataRKSF_St18_Manager_operation, .-_ZNSt17_Function_handlerIFvRN8opendnp314IUpdateHandlerEEZN8asiodnp313UpdateBuilder7AddMeasINS0_7CounterEEERS5_RKT_tNS0_9EventModeEEUlS2_E_E10_M_managerERSt9_Any_dataRKSF_St18_Manager_operation
	.section	.text._ZNSt17_Function_handlerIFvRN8opendnp314IUpdateHandlerEEZN8asiodnp313UpdateBuilder7AddMeasINS0_6AnalogEEERS5_RKT_tNS0_9EventModeEEUlS2_E_E10_M_managerERSt9_Any_dataRKSF_St18_Manager_operation,"axG",@progbits,_ZNSt17_Function_handlerIFvRN8opendnp314IUpdateHandlerEEZN8asiodnp313UpdateBuilder7AddMeasINS0_6AnalogEEERS5_RKT_tNS0_9EventModeEEUlS2_E_E10_M_managerERSt9_Any_dataRKSF_St18_Manager_operation,comdat
	.align	2
	.p2align 4,,11
	.weak	_ZNSt17_Function_handlerIFvRN8opendnp314IUpdateHandlerEEZN8asiodnp313UpdateBuilder7AddMeasINS0_6AnalogEEERS5_RKT_tNS0_9EventModeEEUlS2_E_E10_M_managerERSt9_Any_dataRKSF_St18_Manager_operation
	.type	_ZNSt17_Function_handlerIFvRN8opendnp314IUpdateHandlerEEZN8asiodnp313UpdateBuilder7AddMeasINS0_6AnalogEEERS5_RKT_tNS0_9EventModeEEUlS2_E_E10_M_managerERSt9_Any_dataRKSF_St18_Manager_operation, %function
_ZNSt17_Function_handlerIFvRN8opendnp314IUpdateHandlerEEZN8asiodnp313UpdateBuilder7AddMeasINS0_6AnalogEEERS5_RKT_tNS0_9EventModeEEUlS2_E_E10_M_managerERSt9_Any_dataRKSF_St18_Manager_operation:
.LFB2277:
	.cfi_startproc
	stp	x29, x30, [sp, -32]!
	.cfi_def_cfa_offset 32
	.cfi_offset 29, -32
	.cfi_offset 30, -24
	mov	x29, sp
	stp	x19, x20, [sp, 16]
	.cfi_offset 19, -16
	.cfi_offset 20, -8
	mov	x19, x0
	cbz	w2, .L84
	cmp	w2, 1
	beq	.L85
	cmp	w2, 2
	beq	.L88
	cmp	w2, 3
	bne	.L87
	ldr	x0, [x0]
	cbz	x0, .L87
	mov	x1, 32
	bl	_ZdlPvm
.L87:
	mov	w0, 0
	ldp	x19, x20, [sp, 16]
	ldp	x29, x30, [sp], 32
	.cfi_remember_state
	.cfi_restore 30
	.cfi_restore 29
	.cfi_restore 19
	.cfi_restore 20
	.cfi_def_cfa_offset 0
	ret
	.p2align 2,,3
.L84:
	.cfi_restore_state
	adrp	x0, :got:_ZTIZN8asiodnp313UpdateBuilder7AddMeasIN8opendnp36AnalogEEERS0_RKT_tNS2_9EventModeEEUlRNS2_14IUpdateHandlerEE_
	ldr	x0, [x0, #:got_lo12:_ZTIZN8asiodnp313UpdateBuilder7AddMeasIN8opendnp36AnalogEEERS0_RKT_tNS2_9EventModeEEUlRNS2_14IUpdateHandlerEE_]
	str	x0, [x19]
	mov	w0, 0
	ldp	x19, x20, [sp, 16]
	ldp	x29, x30, [sp], 32
	.cfi_remember_state
	.cfi_restore 30
	.cfi_restore 29
	.cfi_restore 19
	.cfi_restore 20
	.cfi_def_cfa_offset 0
	ret
	.p2align 2,,3
.L85:
	.cfi_restore_state
	ldr	x0, [x1]
	str	x0, [x19]
	mov	w0, 0
	ldp	x19, x20, [sp, 16]
	ldp	x29, x30, [sp], 32
	.cfi_remember_state
	.cfi_restore 30
	.cfi_restore 29
	.cfi_restore 19
	.cfi_restore 20
	.cfi_def_cfa_offset 0
	ret
	.p2align 2,,3
.L88:
	.cfi_restore_state
	ldr	x20, [x1]
	mov	x0, 32
	bl	_Znwm
	ldp	q0, q1, [x20]
	str	x0, [x19]
	stp	q0, q1, [x0]
	b	.L87
	.cfi_endproc
.LFE2277:
	.size	_ZNSt17_Function_handlerIFvRN8opendnp314IUpdateHandlerEEZN8asiodnp313UpdateBuilder7AddMeasINS0_6AnalogEEERS5_RKT_tNS0_9EventModeEEUlS2_E_E10_M_managerERSt9_Any_dataRKSF_St18_Manager_operation, .-_ZNSt17_Function_handlerIFvRN8opendnp314IUpdateHandlerEEZN8asiodnp313UpdateBuilder7AddMeasINS0_6AnalogEEERS5_RKT_tNS0_9EventModeEEUlS2_E_E10_M_managerERSt9_Any_dataRKSF_St18_Manager_operation
	.section	.text._ZNSt17_Function_handlerIFvRN8opendnp314IUpdateHandlerEEZN8asiodnp313UpdateBuilder7AddMeasINS0_15DoubleBitBinaryEEERS5_RKT_tNS0_9EventModeEEUlS2_E_E10_M_managerERSt9_Any_dataRKSF_St18_Manager_operation,"axG",@progbits,_ZNSt17_Function_handlerIFvRN8opendnp314IUpdateHandlerEEZN8asiodnp313UpdateBuilder7AddMeasINS0_15DoubleBitBinaryEEERS5_RKT_tNS0_9EventModeEEUlS2_E_E10_M_managerERSt9_Any_dataRKSF_St18_Manager_operation,comdat
	.align	2
	.p2align 4,,11
	.weak	_ZNSt17_Function_handlerIFvRN8opendnp314IUpdateHandlerEEZN8asiodnp313UpdateBuilder7AddMeasINS0_15DoubleBitBinaryEEERS5_RKT_tNS0_9EventModeEEUlS2_E_E10_M_managerERSt9_Any_dataRKSF_St18_Manager_operation
	.type	_ZNSt17_Function_handlerIFvRN8opendnp314IUpdateHandlerEEZN8asiodnp313UpdateBuilder7AddMeasINS0_15DoubleBitBinaryEEERS5_RKT_tNS0_9EventModeEEUlS2_E_E10_M_managerERSt9_Any_dataRKSF_St18_Manager_operation, %function
_ZNSt17_Function_handlerIFvRN8opendnp314IUpdateHandlerEEZN8asiodnp313UpdateBuilder7AddMeasINS0_15DoubleBitBinaryEEERS5_RKT_tNS0_9EventModeEEUlS2_E_E10_M_managerERSt9_Any_dataRKSF_St18_Manager_operation:
.LFB2273:
	.cfi_startproc
	stp	x29, x30, [sp, -32]!
	.cfi_def_cfa_offset 32
	.cfi_offset 29, -32
	.cfi_offset 30, -24
	mov	x29, sp
	stp	x19, x20, [sp, 16]
	.cfi_offset 19, -16
	.cfi_offset 20, -8
	mov	x19, x0
	cbz	w2, .L96
	cmp	w2, 1
	beq	.L97
	cmp	w2, 2
	beq	.L100
	cmp	w2, 3
	bne	.L99
	ldr	x0, [x0]
	cbz	x0, .L99
	mov	x1, 32
	bl	_ZdlPvm
.L99:
	mov	w0, 0
	ldp	x19, x20, [sp, 16]
	ldp	x29, x30, [sp], 32
	.cfi_remember_state
	.cfi_restore 30
	.cfi_restore 29
	.cfi_restore 19
	.cfi_restore 20
	.cfi_def_cfa_offset 0
	ret
	.p2align 2,,3
.L96:
	.cfi_restore_state
	adrp	x0, :got:_ZTIZN8asiodnp313UpdateBuilder7AddMeasIN8opendnp315DoubleBitBinaryEEERS0_RKT_tNS2_9EventModeEEUlRNS2_14IUpdateHandlerEE_
	ldr	x0, [x0, #:got_lo12:_ZTIZN8asiodnp313UpdateBuilder7AddMeasIN8opendnp315DoubleBitBinaryEEERS0_RKT_tNS2_9EventModeEEUlRNS2_14IUpdateHandlerEE_]
	str	x0, [x19]
	mov	w0, 0
	ldp	x19, x20, [sp, 16]
	ldp	x29, x30, [sp], 32
	.cfi_remember_state
	.cfi_restore 30
	.cfi_restore 29
	.cfi_restore 19
	.cfi_restore 20
	.cfi_def_cfa_offset 0
	ret
	.p2align 2,,3
.L97:
	.cfi_restore_state
	ldr	x0, [x1]
	str	x0, [x19]
	mov	w0, 0
	ldp	x19, x20, [sp, 16]
	ldp	x29, x30, [sp], 32
	.cfi_remember_state
	.cfi_restore 30
	.cfi_restore 29
	.cfi_restore 19
	.cfi_restore 20
	.cfi_def_cfa_offset 0
	ret
	.p2align 2,,3
.L100:
	.cfi_restore_state
	ldr	x20, [x1]
	mov	x0, 32
	bl	_Znwm
	ldp	q0, q1, [x20]
	str	x0, [x19]
	stp	q0, q1, [x0]
	b	.L99
	.cfi_endproc
.LFE2273:
	.size	_ZNSt17_Function_handlerIFvRN8opendnp314IUpdateHandlerEEZN8asiodnp313UpdateBuilder7AddMeasINS0_15DoubleBitBinaryEEERS5_RKT_tNS0_9EventModeEEUlS2_E_E10_M_managerERSt9_Any_dataRKSF_St18_Manager_operation, .-_ZNSt17_Function_handlerIFvRN8opendnp314IUpdateHandlerEEZN8asiodnp313UpdateBuilder7AddMeasINS0_15DoubleBitBinaryEEERS5_RKT_tNS0_9EventModeEEUlS2_E_E10_M_managerERSt9_Any_dataRKSF_St18_Manager_operation
	.section	.text._ZNSt17_Function_handlerIFvRN8opendnp314IUpdateHandlerEEZN8asiodnp313UpdateBuilder7AddMeasINS0_6BinaryEEERS5_RKT_tNS0_9EventModeEEUlS2_E_E10_M_managerERSt9_Any_dataRKSF_St18_Manager_operation,"axG",@progbits,_ZNSt17_Function_handlerIFvRN8opendnp314IUpdateHandlerEEZN8asiodnp313UpdateBuilder7AddMeasINS0_6BinaryEEERS5_RKT_tNS0_9EventModeEEUlS2_E_E10_M_managerERSt9_Any_dataRKSF_St18_Manager_operation,comdat
	.align	2
	.p2align 4,,11
	.weak	_ZNSt17_Function_handlerIFvRN8opendnp314IUpdateHandlerEEZN8asiodnp313UpdateBuilder7AddMeasINS0_6BinaryEEERS5_RKT_tNS0_9EventModeEEUlS2_E_E10_M_managerERSt9_Any_dataRKSF_St18_Manager_operation
	.type	_ZNSt17_Function_handlerIFvRN8opendnp314IUpdateHandlerEEZN8asiodnp313UpdateBuilder7AddMeasINS0_6BinaryEEERS5_RKT_tNS0_9EventModeEEUlS2_E_E10_M_managerERSt9_Any_dataRKSF_St18_Manager_operation, %function
_ZNSt17_Function_handlerIFvRN8opendnp314IUpdateHandlerEEZN8asiodnp313UpdateBuilder7AddMeasINS0_6BinaryEEERS5_RKT_tNS0_9EventModeEEUlS2_E_E10_M_managerERSt9_Any_dataRKSF_St18_Manager_operation:
.LFB2269:
	.cfi_startproc
	stp	x29, x30, [sp, -32]!
	.cfi_def_cfa_offset 32
	.cfi_offset 29, -32
	.cfi_offset 30, -24
	mov	x29, sp
	stp	x19, x20, [sp, 16]
	.cfi_offset 19, -16
	.cfi_offset 20, -8
	mov	x19, x0
	cbz	w2, .L108
	cmp	w2, 1
	beq	.L109
	cmp	w2, 2
	beq	.L112
	cmp	w2, 3
	bne	.L111
	ldr	x0, [x0]
	cbz	x0, .L111
	mov	x1, 32
	bl	_ZdlPvm
.L111:
	mov	w0, 0
	ldp	x19, x20, [sp, 16]
	ldp	x29, x30, [sp], 32
	.cfi_remember_state
	.cfi_restore 30
	.cfi_restore 29
	.cfi_restore 19
	.cfi_restore 20
	.cfi_def_cfa_offset 0
	ret
	.p2align 2,,3
.L108:
	.cfi_restore_state
	adrp	x0, :got:_ZTIZN8asiodnp313UpdateBuilder7AddMeasIN8opendnp36BinaryEEERS0_RKT_tNS2_9EventModeEEUlRNS2_14IUpdateHandlerEE_
	ldr	x0, [x0, #:got_lo12:_ZTIZN8asiodnp313UpdateBuilder7AddMeasIN8opendnp36BinaryEEERS0_RKT_tNS2_9EventModeEEUlRNS2_14IUpdateHandlerEE_]
	str	x0, [x19]
	mov	w0, 0
	ldp	x19, x20, [sp, 16]
	ldp	x29, x30, [sp], 32
	.cfi_remember_state
	.cfi_restore 30
	.cfi_restore 29
	.cfi_restore 19
	.cfi_restore 20
	.cfi_def_cfa_offset 0
	ret
	.p2align 2,,3
.L109:
	.cfi_restore_state
	ldr	x0, [x1]
	str	x0, [x19]
	mov	w0, 0
	ldp	x19, x20, [sp, 16]
	ldp	x29, x30, [sp], 32
	.cfi_remember_state
	.cfi_restore 30
	.cfi_restore 29
	.cfi_restore 19
	.cfi_restore 20
	.cfi_def_cfa_offset 0
	ret
	.p2align 2,,3
.L112:
	.cfi_restore_state
	ldr	x20, [x1]
	mov	x0, 32
	bl	_Znwm
	ldp	q0, q1, [x20]
	str	x0, [x19]
	stp	q0, q1, [x0]
	b	.L111
	.cfi_endproc
.LFE2269:
	.size	_ZNSt17_Function_handlerIFvRN8opendnp314IUpdateHandlerEEZN8asiodnp313UpdateBuilder7AddMeasINS0_6BinaryEEERS5_RKT_tNS0_9EventModeEEUlS2_E_E10_M_managerERSt9_Any_dataRKSF_St18_Manager_operation, .-_ZNSt17_Function_handlerIFvRN8opendnp314IUpdateHandlerEEZN8asiodnp313UpdateBuilder7AddMeasINS0_6BinaryEEERS5_RKT_tNS0_9EventModeEEUlS2_E_E10_M_managerERSt9_Any_dataRKSF_St18_Manager_operation
	.text
	.align	2
	.p2align 4,,11
	.type	_ZNSt17_Function_handlerIFvRN8opendnp314IUpdateHandlerEEZN8asiodnp313UpdateBuilder6UpdateERKNS0_15TimeAndIntervalEtEUlS2_E_E10_M_managerERSt9_Any_dataRKSB_St18_Manager_operation, %function
_ZNSt17_Function_handlerIFvRN8opendnp314IUpdateHandlerEEZN8asiodnp313UpdateBuilder6UpdateERKNS0_15TimeAndIntervalEtEUlS2_E_E10_M_managerERSt9_Any_dataRKSB_St18_Manager_operation:
.LFB2237:
	.cfi_startproc
	stp	x29, x30, [sp, -32]!
	.cfi_def_cfa_offset 32
	.cfi_offset 29, -32
	.cfi_offset 30, -24
	mov	x29, sp
	stp	x19, x20, [sp, 16]
	.cfi_offset 19, -16
	.cfi_offset 20, -8
	mov	x19, x0
	cbz	w2, .L120
	cmp	w2, 1
	beq	.L121
	cmp	w2, 2
	beq	.L124
	cmp	w2, 3
	bne	.L123
	ldr	x0, [x0]
	cbz	x0, .L123
	mov	x1, 24
	bl	_ZdlPvm
.L123:
	mov	w0, 0
	ldp	x19, x20, [sp, 16]
	ldp	x29, x30, [sp], 32
	.cfi_remember_state
	.cfi_restore 30
	.cfi_restore 29
	.cfi_restore 19
	.cfi_restore 20
	.cfi_def_cfa_offset 0
	ret
	.p2align 2,,3
.L120:
	.cfi_restore_state
	adrp	x0, .LANCHOR0
	add	x0, x0, :lo12:.LANCHOR0
	add	x0, x0, 16
	str	x0, [x19]
	mov	w0, 0
	ldp	x19, x20, [sp, 16]
	ldp	x29, x30, [sp], 32
	.cfi_remember_state
	.cfi_restore 30
	.cfi_restore 29
	.cfi_restore 19
	.cfi_restore 20
	.cfi_def_cfa_offset 0
	ret
	.p2align 2,,3
.L121:
	.cfi_restore_state
	ldr	x0, [x1]
	str	x0, [x19]
	mov	w0, 0
	ldp	x19, x20, [sp, 16]
	ldp	x29, x30, [sp], 32
	.cfi_remember_state
	.cfi_restore 30
	.cfi_restore 29
	.cfi_restore 19
	.cfi_restore 20
	.cfi_def_cfa_offset 0
	ret
	.p2align 2,,3
.L124:
	.cfi_restore_state
	ldr	x20, [x1]
	mov	x0, 24
	bl	_Znwm
	ldp	x2, x3, [x20]
	stp	x2, x3, [x0]
	ldr	x1, [x20, 16]
	str	x0, [x19]
	str	x1, [x0, 16]
	b	.L123
	.cfi_endproc
.LFE2237:
	.size	_ZNSt17_Function_handlerIFvRN8opendnp314IUpdateHandlerEEZN8asiodnp313UpdateBuilder6UpdateERKNS0_15TimeAndIntervalEtEUlS2_E_E10_M_managerERSt9_Any_dataRKSB_St18_Manager_operation, .-_ZNSt17_Function_handlerIFvRN8opendnp314IUpdateHandlerEEZN8asiodnp313UpdateBuilder6UpdateERKNS0_15TimeAndIntervalEtEUlS2_E_E10_M_managerERSt9_Any_dataRKSB_St18_Manager_operation
	.global	__aarch64_ldadd4_acq_rel
	.align	2
	.p2align 4,,11
	.global	_ZNK8asiodnp313UpdateBuilder5BuildEv
	.type	_ZNK8asiodnp313UpdateBuilder5BuildEv, %function
_ZNK8asiodnp313UpdateBuilder5BuildEv:
.LFB2085:
	.cfi_startproc
	stp	x29, x30, [sp, -32]!
	.cfi_def_cfa_offset 32
	.cfi_offset 29, -32
	.cfi_offset 30, -24
	mov	x29, sp
	str	x19, [sp, 16]
	.cfi_offset 19, -16
	mov	x19, x8
	ldr	q0, [x0]
	umov	x1, v0.d[1]
	str	q0, [x8]
	cbz	x1, .L131
	adrp	x0, :got:__libc_single_threaded
	ldr	x0, [x0, #:got_lo12:__libc_single_threaded]
	ldrb	w0, [x0]
	cbz	w0, .L133
	ldr	w0, [x1, 8]
	add	w0, w0, 1
	str	w0, [x1, 8]
.L131:
	mov	x0, x19
	ldr	x19, [sp, 16]
	ldp	x29, x30, [sp], 32
	.cfi_remember_state
	.cfi_restore 30
	.cfi_restore 29
	.cfi_restore 19
	.cfi_def_cfa_offset 0
	ret
	.p2align 2,,3
.L133:
	.cfi_restore_state
	add	x1, x1, 8
	mov	w0, 1
	bl	__aarch64_ldadd4_acq_rel
	mov	x0, x19
	ldr	x19, [sp, 16]
	ldp	x29, x30, [sp], 32
	.cfi_restore 30
	.cfi_restore 29
	.cfi_restore 19
	.cfi_def_cfa_offset 0
	ret
	.cfi_endproc
.LFE2085:
	.size	_ZNK8asiodnp313UpdateBuilder5BuildEv, .-_ZNK8asiodnp313UpdateBuilder5BuildEv
	.section	.rodata._ZNSt6vectorISt8functionIFvRN8opendnp314IUpdateHandlerEEESaIS5_EE17_M_realloc_insertIJRKS5_EEEvN9__gnu_cxx17__normal_iteratorIPS5_S7_EEDpOT_.str1.8,"aMS",@progbits,1
	.align	3
.LC0:
	.string	"vector::_M_realloc_insert"
	.section	.text._ZNSt6vectorISt8functionIFvRN8opendnp314IUpdateHandlerEEESaIS5_EE17_M_realloc_insertIJRKS5_EEEvN9__gnu_cxx17__normal_iteratorIPS5_S7_EEDpOT_,"axG",@progbits,_ZNSt6vectorISt8functionIFvRN8opendnp314IUpdateHandlerEEESaIS5_EE17_M_realloc_insertIJRKS5_EEEvN9__gnu_cxx17__normal_iteratorIPS5_S7_EEDpOT_,comdat
	.align	2
	.p2align 4,,11
	.weak	_ZNSt6vectorISt8functionIFvRN8opendnp314IUpdateHandlerEEESaIS5_EE17_M_realloc_insertIJRKS5_EEEvN9__gnu_cxx17__normal_iteratorIPS5_S7_EEDpOT_
	.type	_ZNSt6vectorISt8functionIFvRN8opendnp314IUpdateHandlerEEESaIS5_EE17_M_realloc_insertIJRKS5_EEEvN9__gnu_cxx17__normal_iteratorIPS5_S7_EEDpOT_, %function
_ZNSt6vectorISt8functionIFvRN8opendnp314IUpdateHandlerEEESaIS5_EE17_M_realloc_insertIJRKS5_EEEvN9__gnu_cxx17__normal_iteratorIPS5_S7_EEDpOT_:
.LFB2256:
	.cfi_startproc
	.cfi_personality 0x9b,DW.ref.__gxx_personality_v0
	.cfi_lsda 0x1b,.LLSDA2256
	stp	x29, x30, [sp, -96]!
	.cfi_def_cfa_offset 96
	.cfi_offset 29, -96
	.cfi_offset 30, -88
	mov	x29, sp
	stp	x21, x22, [sp, 32]
	stp	x23, x24, [sp, 48]
	.cfi_offset 21, -64
	.cfi_offset 22, -56
	.cfi_offset 23, -48
	.cfi_offset 24, -40
	ldp	x24, x21, [x0]
	stp	x19, x20, [sp, 16]
	.cfi_offset 19, -80
	.cfi_offset 20, -72
	mov	x19, x1
	stp	x25, x26, [sp, 64]
	.cfi_offset 25, -32
	.cfi_offset 26, -24
	mov	x25, x1
	mov	x1, 288230376151711743
	stp	x27, x28, [sp, 80]
	.cfi_offset 27, -16
	.cfi_offset 28, -8
	sub	x20, x21, x24
	asr	x20, x20, 5
	cmp	x20, x1
	beq	.L184
	cmp	x20, 0
	mov	x22, x0
	csinc	x0, x20, xzr, ne
	mov	x27, x2
	sub	x26, x25, x24
	adds	x20, x20, x0
	bcs	.L165
	cbnz	x20, .L143
	mov	x23, 0
.L160:
	add	x28, x23, x26
	ldr	x3, [x27, 16]
	stp	xzr, xzr, [x28]
	stp	xzr, xzr, [x28, 16]
	cbz	x3, .L144
	mov	x1, x27
	mov	x0, x28
	mov	w2, 2
.LEHB0:
	blr	x3
.LEHE0:
	ldr	q0, [x27, 16]
	str	q0, [x28, 16]
.L144:
	add	x1, x23, x26
	mov	x3, x24
	mov	x2, x23
	cmp	x25, x24
	beq	.L185
	.p2align 3,,7
.L163:
	ldp	x0, x4, [x3, 16]
	stp	xzr, xzr, [x2]
	stp	xzr, x4, [x2, 16]
	cbz	x0, .L149
	ldp	x4, x5, [x3]
	add	x2, x2, 32
	stp	x4, x5, [x2, -32]
	add	x3, x3, 32
	str	x0, [x2, -16]
	str	xzr, [x3, -16]
	cmp	x2, x1
	bne	.L163
.L164:
	add	x26, x1, 32
	cmp	x25, x21
	beq	.L153
	sub	x25, x21, x25
	mov	x2, x26
	.p2align 3,,7
.L162:
	ldp	x3, x0, [x19, 16]
	stp	xzr, xzr, [x2]
	stp	xzr, x0, [x2, 16]
	cbz	x3, .L154
	ldp	x0, x1, [x19]
	add	x19, x19, 32
	str	xzr, [x19, -16]
	add	x2, x2, 32
	stp	x0, x1, [x2, -32]
	str	x3, [x2, -16]
	cmp	x21, x19
	bne	.L162
	add	x26, x26, x25
.L153:
	cbz	x24, .L156
	ldr	x1, [x22, 16]
	mov	x0, x24
	sub	x1, x1, x24
	bl	_ZdlPvm
.L156:
	add	x20, x23, x20
	ldp	x27, x28, [sp, 80]
	stp	x23, x26, [x22]
	str	x20, [x22, 16]
	ldp	x19, x20, [sp, 16]
	ldp	x21, x22, [sp, 32]
	ldp	x23, x24, [sp, 48]
	ldp	x25, x26, [sp, 64]
	ldp	x29, x30, [sp], 96
	.cfi_remember_state
	.cfi_restore 30
	.cfi_restore 29
	.cfi_restore 27
	.cfi_restore 28
	.cfi_restore 25
	.cfi_restore 26
	.cfi_restore 23
	.cfi_restore 24
	.cfi_restore 21
	.cfi_restore 22
	.cfi_restore 19
	.cfi_restore 20
	.cfi_def_cfa_offset 0
	ret
	.p2align 2,,3
.L149:
	.cfi_restore_state
	add	x2, x2, 32
	add	x3, x3, 32
	cmp	x1, x2
	bne	.L163
	b	.L164
	.p2align 2,,3
.L154:
	add	x19, x19, 32
	add	x2, x2, 32
	cmp	x21, x19
	bne	.L162
	add	x26, x26, x25
	b	.L153
	.p2align 2,,3
.L165:
	mov	x20, 9223372036854775776
.L142:
	mov	x0, x20
.LEHB1:
	bl	_Znwm
	mov	x23, x0
	b	.L160
	.p2align 2,,3
.L185:
	mov	x1, x23
	b	.L164
.L143:
	cmp	x20, x1
	csel	x1, x20, x1, ls
	lsl	x20, x1, 5
	b	.L142
.L184:
	adrp	x0, .LC0
	add	x0, x0, :lo12:.LC0
	bl	_ZSt20__throw_length_errorPKc
.LEHE1:
.L167:
	ldr	x3, [x28, 16]
	mov	x19, x0
	cbz	x3, .L146
	mov	x1, x28
	mov	x0, x28
	mov	w2, 3
	blr	x3
.L146:
	mov	x0, x19
	bl	__cxa_begin_catch
	cbnz	x23, .L181
	ldr	x3, [x28, 16]
	cbz	x3, .L159
	mov	x1, x28
	mov	x0, x28
	mov	w2, 3
	blr	x3
.L159:
.LEHB2:
	bl	__cxa_rethrow
.L181:
	mov	x1, x20
	mov	x0, x23
	bl	_ZdlPvm
	bl	__cxa_rethrow
.LEHE2:
.L166:
	mov	x19, x0
	bl	__cxa_end_catch
	mov	x0, x19
.LEHB3:
	bl	_Unwind_Resume
.LEHE3:
	.cfi_endproc
.LFE2256:
	.section	.gcc_except_table._ZNSt6vectorISt8functionIFvRN8opendnp314IUpdateHandlerEEESaIS5_EE17_M_realloc_insertIJRKS5_EEEvN9__gnu_cxx17__normal_iteratorIPS5_S7_EEDpOT_,"aG",@progbits,_ZNSt6vectorISt8functionIFvRN8opendnp314IUpdateHandlerEEESaIS5_EE17_M_realloc_insertIJRKS5_EEEvN9__gnu_cxx17__normal_iteratorIPS5_S7_EEDpOT_,comdat
	.align	2
.LLSDA2256:
	.byte	0xff
	.byte	0x9b
	.uleb128 .LLSDATT2256-.LLSDATTD2256
.LLSDATTD2256:
	.byte	0x1
	.uleb128 .LLSDACSE2256-.LLSDACSB2256
.LLSDACSB2256:
	.uleb128 .LEHB0-.LFB2256
	.uleb128 .LEHE0-.LEHB0
	.uleb128 .L167-.LFB2256
	.uleb128 0x3
	.uleb128 .LEHB1-.LFB2256
	.uleb128 .LEHE1-.LEHB1
	.uleb128 0
	.uleb128 0
	.uleb128 .LEHB2-.LFB2256
	.uleb128 .LEHE2-.LEHB2
	.uleb128 .L166-.LFB2256
	.uleb128 0
	.uleb128 .LEHB3-.LFB2256
	.uleb128 .LEHE3-.LEHB3
	.uleb128 0
	.uleb128 0
.LLSDACSE2256:
	.byte	0x1
	.byte	0
	.byte	0
	.byte	0x7d
	.align	2
	.4byte	0

.LLSDATT2256:
	.section	.text._ZNSt6vectorISt8functionIFvRN8opendnp314IUpdateHandlerEEESaIS5_EE17_M_realloc_insertIJRKS5_EEEvN9__gnu_cxx17__normal_iteratorIPS5_S7_EEDpOT_,"axG",@progbits,_ZNSt6vectorISt8functionIFvRN8opendnp314IUpdateHandlerEEESaIS5_EE17_M_realloc_insertIJRKS5_EEEvN9__gnu_cxx17__normal_iteratorIPS5_S7_EEDpOT_,comdat
	.size	_ZNSt6vectorISt8functionIFvRN8opendnp314IUpdateHandlerEEESaIS5_EE17_M_realloc_insertIJRKS5_EEEvN9__gnu_cxx17__normal_iteratorIPS5_S7_EEDpOT_, .-_ZNSt6vectorISt8functionIFvRN8opendnp314IUpdateHandlerEEESaIS5_EE17_M_realloc_insertIJRKS5_EEEvN9__gnu_cxx17__normal_iteratorIPS5_S7_EEDpOT_
	.text
	.align	2
	.p2align 4,,11
	.global	_ZN8asiodnp313UpdateBuilder3AddERKSt8functionIFvRN8opendnp314IUpdateHandlerEEE
	.type	_ZN8asiodnp313UpdateBuilder3AddERKSt8functionIFvRN8opendnp314IUpdateHandlerEEE, %function
_ZN8asiodnp313UpdateBuilder3AddERKSt8functionIFvRN8opendnp314IUpdateHandlerEEE:
.LFB2113:
	.cfi_startproc
	.cfi_personality 0x9b,DW.ref.__gxx_personality_v0
	.cfi_lsda 0x1b,.LLSDA2113
	stp	x29, x30, [sp, -48]!
	.cfi_def_cfa_offset 48
	.cfi_offset 29, -48
	.cfi_offset 30, -40
	mov	x29, sp
	stp	x19, x20, [sp, 16]
	.cfi_offset 19, -32
	.cfi_offset 20, -24
	ldr	x19, [x0]
	stp	x21, x22, [sp, 32]
	.cfi_offset 21, -16
	.cfi_offset 22, -8
	mov	x21, x1
	cbz	x19, .L187
.L212:
	ldp	x20, x1, [x19, 8]
.L188:
	cmp	x20, x1
	beq	.L196
	ldr	x3, [x21, 16]
	stp	xzr, xzr, [x20]
	stp	xzr, xzr, [x20, 16]
	cbz	x3, .L197
	mov	x1, x21
	mov	x0, x20
	mov	w2, 2
.LEHB4:
	blr	x3
.LEHE4:
	ldr	q0, [x21, 16]
	str	q0, [x20, 16]
.L197:
	ldr	x0, [x19, 8]
	ldp	x21, x22, [sp, 32]
	add	x0, x0, 32
	str	x0, [x19, 8]
	ldp	x19, x20, [sp, 16]
	ldp	x29, x30, [sp], 48
	.cfi_remember_state
	.cfi_restore 30
	.cfi_restore 29
	.cfi_restore 21
	.cfi_restore 22
	.cfi_restore 19
	.cfi_restore 20
	.cfi_def_cfa_offset 0
	ret
	.p2align 2,,3
.L196:
	.cfi_restore_state
	mov	x2, x21
	mov	x1, x20
	mov	x0, x19
	ldp	x19, x20, [sp, 16]
	ldp	x21, x22, [sp, 32]
	ldp	x29, x30, [sp], 48
	.cfi_remember_state
	.cfi_restore 30
	.cfi_restore 29
	.cfi_restore 21
	.cfi_restore 22
	.cfi_restore 19
	.cfi_restore 20
	.cfi_def_cfa_offset 0
.LEHB5:
	b	_ZNSt6vectorISt8functionIFvRN8opendnp314IUpdateHandlerEEESaIS5_EE17_M_realloc_insertIJRKS5_EEEvN9__gnu_cxx17__normal_iteratorIPS5_S7_EEDpOT_
	.p2align 2,,3
.L187:
	.cfi_restore_state
	mov	x22, x0
	mov	x0, 40
	bl	_Znwm
.LEHE5:
	mov	x19, x0
	movi	v0.2s, 0x1
	adrp	x2, :got:_ZTVSt23_Sp_counted_ptr_inplaceISt6vectorISt8functionIFvRN8opendnp314IUpdateHandlerEEESaIS6_EESaIS8_ELN9__gnu_cxx12_Lock_policyE2EE
	ldr	x20, [x22, 8]
	mov	x1, 0
	ldr	x2, [x2, #:got_lo12:_ZTVSt23_Sp_counted_ptr_inplaceISt6vectorISt8functionIFvRN8opendnp314IUpdateHandlerEEESaIS6_EESaIS8_ELN9__gnu_cxx12_Lock_policyE2EE]
	str	d0, [x0, 8]
	add	x2, x2, 16
	str	x2, [x19], 16
	stp	xzr, xzr, [x0, 16]
	stp	x19, x0, [x22]
	str	xzr, [x19, 16]
	cbz	x20, .L188
	adrp	x19, :got:__libc_single_threaded
	ldr	x0, [x19, #:got_lo12:__libc_single_threaded]
	ldrb	w0, [x0]
	cbz	w0, .L190
	ldr	w0, [x20, 8]
	sub	w1, w0, #1
	str	w1, [x20, 8]
.L191:
	cmp	w0, 1
	beq	.L192
.L213:
	ldr	x19, [x22]
	b	.L212
	.p2align 2,,3
.L192:
	ldr	x1, [x20]
	mov	x0, x20
	ldr	x1, [x1, 16]
	blr	x1
	ldr	x19, [x19, #:got_lo12:__libc_single_threaded]
	ldrb	w0, [x19]
	cbz	w0, .L193
	ldr	w0, [x20, 12]
	sub	w1, w0, #1
	str	w1, [x20, 12]
.L194:
	cmp	w0, 1
	bne	.L213
	ldr	x1, [x20]
	mov	x0, x20
	ldr	x1, [x1, 24]
	blr	x1
	ldr	x19, [x22]
	b	.L212
	.p2align 2,,3
.L190:
	add	x1, x20, 8
	mov	w0, -1
	bl	__aarch64_ldadd4_acq_rel
	b	.L191
.L193:
	add	x1, x20, 12
	mov	w0, -1
	bl	__aarch64_ldadd4_acq_rel
	b	.L194
.L202:
	ldr	x3, [x20, 16]
	mov	x19, x0
	cbz	x3, .L200
	mov	x1, x20
	mov	x0, x20
	mov	w2, 3
	blr	x3
.L200:
	mov	x0, x19
.LEHB6:
	bl	_Unwind_Resume
.LEHE6:
	.cfi_endproc
.LFE2113:
	.section	.gcc_except_table,"a",@progbits
.LLSDA2113:
	.byte	0xff
	.byte	0xff
	.byte	0x1
	.uleb128 .LLSDACSE2113-.LLSDACSB2113
.LLSDACSB2113:
	.uleb128 .LEHB4-.LFB2113
	.uleb128 .LEHE4-.LEHB4
	.uleb128 .L202-.LFB2113
	.uleb128 0
	.uleb128 .LEHB5-.LFB2113
	.uleb128 .LEHE5-.LEHB5
	.uleb128 0
	.uleb128 0
	.uleb128 .LEHB6-.LFB2113
	.uleb128 .LEHE6-.LEHB6
	.uleb128 0
	.uleb128 0
.LLSDACSE2113:
	.text
	.size	_ZN8asiodnp313UpdateBuilder3AddERKSt8functionIFvRN8opendnp314IUpdateHandlerEEE, .-_ZN8asiodnp313UpdateBuilder3AddERKSt8functionIFvRN8opendnp314IUpdateHandlerEEE
	.align	2
	.p2align 4,,11
	.global	_ZN8asiodnp313UpdateBuilder6UpdateERKN8opendnp36BinaryEtNS1_9EventModeE
	.type	_ZN8asiodnp313UpdateBuilder6UpdateERKN8opendnp36BinaryEtNS1_9EventModeE, %function
_ZN8asiodnp313UpdateBuilder6UpdateERKN8opendnp36BinaryEtNS1_9EventModeE:
.LFB2093:
	.cfi_startproc
	.cfi_personality 0x9b,DW.ref.__gxx_personality_v0
	.cfi_lsda 0x1b,.LLSDA2093
	stp	x29, x30, [sp, -128]!
	.cfi_def_cfa_offset 128
	.cfi_offset 29, -128
	.cfi_offset 30, -120
	adrp	x4, :got:__stack_chk_guard
	mov	x29, sp
	ldp	x6, x7, [x1]
	stp	x19, x20, [sp, 16]
	.cfi_offset 19, -112
	.cfi_offset 20, -104
	add	x20, sp, 56
	ldr	x4, [x4, #:got_lo12:__stack_chk_guard]
	stp	x21, x22, [sp, 32]
	.cfi_offset 21, -96
	.cfi_offset 22, -88
	mov	x19, x0
	ldr	x1, [x1, 16]
	ldr	x0, [x4]
	str	x0, [sp, 120]
	mov	x0, 0
	and	w22, w2, 65535
	and	w21, w3, 255
	mov	x0, 32
	str	x1, [x20, 16]
	stp	x6, x7, [sp, 56]
	stp	xzr, xzr, [sp, 88]
	stp	xzr, xzr, [sp, 104]
.LEHB7:
	bl	_Znwm
.LEHE7:
	adrp	x3, :got:_ZNSt17_Function_handlerIFvRN8opendnp314IUpdateHandlerEEZN8asiodnp313UpdateBuilder7AddMeasINS0_6BinaryEEERS5_RKT_tNS0_9EventModeEEUlS2_E_E9_M_invokeERKSt9_Any_dataS2_
	adrp	x4, :got:_ZNSt17_Function_handlerIFvRN8opendnp314IUpdateHandlerEEZN8asiodnp313UpdateBuilder7AddMeasINS0_6BinaryEEERS5_RKT_tNS0_9EventModeEEUlS2_E_E10_M_managerERSt9_Any_dataRKSF_St18_Manager_operation
	strh	w22, [sp, 80]
	strb	w21, [sp, 82]
	mov	x2, x0
	ldr	x3, [x3, #:got_lo12:_ZNSt17_Function_handlerIFvRN8opendnp314IUpdateHandlerEEZN8asiodnp313UpdateBuilder7AddMeasINS0_6BinaryEEERS5_RKT_tNS0_9EventModeEEUlS2_E_E9_M_invokeERKSt9_Any_dataS2_]
	mov	x0, x19
	ldr	x4, [x4, #:got_lo12:_ZNSt17_Function_handlerIFvRN8opendnp314IUpdateHandlerEEZN8asiodnp313UpdateBuilder7AddMeasINS0_6BinaryEEERS5_RKT_tNS0_9EventModeEEUlS2_E_E10_M_managerERSt9_Any_dataRKSF_St18_Manager_operation]
	str	x2, [sp, 88]
	ldp	q0, q1, [x20]
	add	x20, sp, 88
	mov	x1, x20
	stp	x4, x3, [sp, 104]
	stp	q0, q1, [x2]
.LEHB8:
	bl	_ZN8asiodnp313UpdateBuilder3AddERKSt8functionIFvRN8opendnp314IUpdateHandlerEEE
.LEHE8:
	ldr	x3, [sp, 104]
	cbz	x3, .L218
	mov	x1, x20
	mov	x0, x20
	mov	w2, 3
	blr	x3
.L218:
	adrp	x0, :got:__stack_chk_guard
	ldr	x0, [x0, #:got_lo12:__stack_chk_guard]
	ldr	x2, [sp, 120]
	ldr	x1, [x0]
	subs	x2, x2, x1
	mov	x1, 0
	bne	.L236
	mov	x0, x19
	ldp	x19, x20, [sp, 16]
	ldp	x21, x22, [sp, 32]
	ldp	x29, x30, [sp], 128
	.cfi_remember_state
	.cfi_restore 30
	.cfi_restore 29
	.cfi_restore 21
	.cfi_restore 22
	.cfi_restore 19
	.cfi_restore 20
	.cfi_def_cfa_offset 0
	ret
.L236:
	.cfi_restore_state
	bl	__stack_chk_fail
.L222:
	ldr	x3, [sp, 104]
	mov	x19, x0
	cbz	x3, .L220
	mov	x1, x20
	mov	x0, x20
	mov	w2, 3
	blr	x3
.L220:
	mov	x0, x19
.LEHB9:
	bl	_Unwind_Resume
.LEHE9:
.L223:
	ldr	x3, [sp, 104]
	mov	x19, x0
	cbz	x3, .L220
	add	x1, sp, 88
	mov	w2, 3
	mov	x0, x1
	blr	x3
	b	.L220
	.cfi_endproc
.LFE2093:
	.section	.gcc_except_table
.LLSDA2093:
	.byte	0xff
	.byte	0xff
	.byte	0x1
	.uleb128 .LLSDACSE2093-.LLSDACSB2093
.LLSDACSB2093:
	.uleb128 .LEHB7-.LFB2093
	.uleb128 .LEHE7-.LEHB7
	.uleb128 .L223-.LFB2093
	.uleb128 0
	.uleb128 .LEHB8-.LFB2093
	.uleb128 .LEHE8-.LEHB8
	.uleb128 .L222-.LFB2093
	.uleb128 0
	.uleb128 .LEHB9-.LFB2093
	.uleb128 .LEHE9-.LEHB9
	.uleb128 0
	.uleb128 0
.LLSDACSE2093:
	.text
	.size	_ZN8asiodnp313UpdateBuilder6UpdateERKN8opendnp36BinaryEtNS1_9EventModeE, .-_ZN8asiodnp313UpdateBuilder6UpdateERKN8opendnp36BinaryEtNS1_9EventModeE
	.align	2
	.p2align 4,,11
	.global	_ZN8asiodnp313UpdateBuilder6UpdateERKN8opendnp315DoubleBitBinaryEtNS1_9EventModeE
	.type	_ZN8asiodnp313UpdateBuilder6UpdateERKN8opendnp315DoubleBitBinaryEtNS1_9EventModeE, %function
_ZN8asiodnp313UpdateBuilder6UpdateERKN8opendnp315DoubleBitBinaryEtNS1_9EventModeE:
.LFB2094:
	.cfi_startproc
	.cfi_personality 0x9b,DW.ref.__gxx_personality_v0
	.cfi_lsda 0x1b,.LLSDA2094
	stp	x29, x30, [sp, -128]!
	.cfi_def_cfa_offset 128
	.cfi_offset 29, -128
	.cfi_offset 30, -120
	adrp	x4, :got:__stack_chk_guard
	mov	x29, sp
	ldp	x6, x7, [x1]
	stp	x19, x20, [sp, 16]
	.cfi_offset 19, -112
	.cfi_offset 20, -104
	add	x20, sp, 56
	ldr	x4, [x4, #:got_lo12:__stack_chk_guard]
	stp	x21, x22, [sp, 32]
	.cfi_offset 21, -96
	.cfi_offset 22, -88
	mov	x19, x0
	ldr	x1, [x1, 16]
	ldr	x0, [x4]
	str	x0, [sp, 120]
	mov	x0, 0
	and	w22, w2, 65535
	and	w21, w3, 255
	mov	x0, 32
	str	x1, [x20, 16]
	stp	x6, x7, [sp, 56]
	stp	xzr, xzr, [sp, 88]
	stp	xzr, xzr, [sp, 104]
.LEHB10:
	bl	_Znwm
.LEHE10:
	adrp	x3, :got:_ZNSt17_Function_handlerIFvRN8opendnp314IUpdateHandlerEEZN8asiodnp313UpdateBuilder7AddMeasINS0_15DoubleBitBinaryEEERS5_RKT_tNS0_9EventModeEEUlS2_E_E9_M_invokeERKSt9_Any_dataS2_
	adrp	x4, :got:_ZNSt17_Function_handlerIFvRN8opendnp314IUpdateHandlerEEZN8asiodnp313UpdateBuilder7AddMeasINS0_15DoubleBitBinaryEEERS5_RKT_tNS0_9EventModeEEUlS2_E_E10_M_managerERSt9_Any_dataRKSF_St18_Manager_operation
	strh	w22, [sp, 80]
	strb	w21, [sp, 82]
	mov	x2, x0
	ldr	x3, [x3, #:got_lo12:_ZNSt17_Function_handlerIFvRN8opendnp314IUpdateHandlerEEZN8asiodnp313UpdateBuilder7AddMeasINS0_15DoubleBitBinaryEEERS5_RKT_tNS0_9EventModeEEUlS2_E_E9_M_invokeERKSt9_Any_dataS2_]
	mov	x0, x19
	ldr	x4, [x4, #:got_lo12:_ZNSt17_Function_handlerIFvRN8opendnp314IUpdateHandlerEEZN8asiodnp313UpdateBuilder7AddMeasINS0_15DoubleBitBinaryEEERS5_RKT_tNS0_9EventModeEEUlS2_E_E10_M_managerERSt9_Any_dataRKSF_St18_Manager_operation]
	str	x2, [sp, 88]
	ldp	q0, q1, [x20]
	add	x20, sp, 88
	mov	x1, x20
	stp	x4, x3, [sp, 104]
	stp	q0, q1, [x2]
.LEHB11:
	bl	_ZN8asiodnp313UpdateBuilder3AddERKSt8functionIFvRN8opendnp314IUpdateHandlerEEE
.LEHE11:
	ldr	x3, [sp, 104]
	cbz	x3, .L241
	mov	x1, x20
	mov	x0, x20
	mov	w2, 3
	blr	x3
.L241:
	adrp	x0, :got:__stack_chk_guard
	ldr	x0, [x0, #:got_lo12:__stack_chk_guard]
	ldr	x2, [sp, 120]
	ldr	x1, [x0]
	subs	x2, x2, x1
	mov	x1, 0
	bne	.L259
	mov	x0, x19
	ldp	x19, x20, [sp, 16]
	ldp	x21, x22, [sp, 32]
	ldp	x29, x30, [sp], 128
	.cfi_remember_state
	.cfi_restore 30
	.cfi_restore 29
	.cfi_restore 21
	.cfi_restore 22
	.cfi_restore 19
	.cfi_restore 20
	.cfi_def_cfa_offset 0
	ret
.L259:
	.cfi_restore_state
	bl	__stack_chk_fail
.L245:
	ldr	x3, [sp, 104]
	mov	x19, x0
	cbz	x3, .L243
	mov	x1, x20
	mov	x0, x20
	mov	w2, 3
	blr	x3
.L243:
	mov	x0, x19
.LEHB12:
	bl	_Unwind_Resume
.LEHE12:
.L246:
	ldr	x3, [sp, 104]
	mov	x19, x0
	cbz	x3, .L243
	add	x1, sp, 88
	mov	w2, 3
	mov	x0, x1
	blr	x3
	b	.L243
	.cfi_endproc
.LFE2094:
	.section	.gcc_except_table
.LLSDA2094:
	.byte	0xff
	.byte	0xff
	.byte	0x1
	.uleb128 .LLSDACSE2094-.LLSDACSB2094
.LLSDACSB2094:
	.uleb128 .LEHB10-.LFB2094
	.uleb128 .LEHE10-.LEHB10
	.uleb128 .L246-.LFB2094
	.uleb128 0
	.uleb128 .LEHB11-.LFB2094
	.uleb128 .LEHE11-.LEHB11
	.uleb128 .L245-.LFB2094
	.uleb128 0
	.uleb128 .LEHB12-.LFB2094
	.uleb128 .LEHE12-.LEHB12
	.uleb128 0
	.uleb128 0
.LLSDACSE2094:
	.text
	.size	_ZN8asiodnp313UpdateBuilder6UpdateERKN8opendnp315DoubleBitBinaryEtNS1_9EventModeE, .-_ZN8asiodnp313UpdateBuilder6UpdateERKN8opendnp315DoubleBitBinaryEtNS1_9EventModeE
	.align	2
	.p2align 4,,11
	.global	_ZN8asiodnp313UpdateBuilder6UpdateERKN8opendnp36AnalogEtNS1_9EventModeE
	.type	_ZN8asiodnp313UpdateBuilder6UpdateERKN8opendnp36AnalogEtNS1_9EventModeE, %function
_ZN8asiodnp313UpdateBuilder6UpdateERKN8opendnp36AnalogEtNS1_9EventModeE:
.LFB2095:
	.cfi_startproc
	.cfi_personality 0x9b,DW.ref.__gxx_personality_v0
	.cfi_lsda 0x1b,.LLSDA2095
	stp	x29, x30, [sp, -128]!
	.cfi_def_cfa_offset 128
	.cfi_offset 29, -128
	.cfi_offset 30, -120
	adrp	x4, :got:__stack_chk_guard
	mov	x29, sp
	ldp	x6, x7, [x1]
	stp	x19, x20, [sp, 16]
	.cfi_offset 19, -112
	.cfi_offset 20, -104
	add	x20, sp, 56
	ldr	x4, [x4, #:got_lo12:__stack_chk_guard]
	stp	x21, x22, [sp, 32]
	.cfi_offset 21, -96
	.cfi_offset 22, -88
	mov	x19, x0
	ldr	x1, [x1, 16]
	ldr	x0, [x4]
	str	x0, [sp, 120]
	mov	x0, 0
	and	w22, w2, 65535
	and	w21, w3, 255
	mov	x0, 32
	str	x1, [x20, 16]
	stp	x6, x7, [sp, 56]
	stp	xzr, xzr, [sp, 88]
	stp	xzr, xzr, [sp, 104]
.LEHB13:
	bl	_Znwm
.LEHE13:
	adrp	x3, :got:_ZNSt17_Function_handlerIFvRN8opendnp314IUpdateHandlerEEZN8asiodnp313UpdateBuilder7AddMeasINS0_6AnalogEEERS5_RKT_tNS0_9EventModeEEUlS2_E_E9_M_invokeERKSt9_Any_dataS2_
	adrp	x4, :got:_ZNSt17_Function_handlerIFvRN8opendnp314IUpdateHandlerEEZN8asiodnp313UpdateBuilder7AddMeasINS0_6AnalogEEERS5_RKT_tNS0_9EventModeEEUlS2_E_E10_M_managerERSt9_Any_dataRKSF_St18_Manager_operation
	strh	w22, [sp, 80]
	strb	w21, [sp, 82]
	mov	x2, x0
	ldr	x3, [x3, #:got_lo12:_ZNSt17_Function_handlerIFvRN8opendnp314IUpdateHandlerEEZN8asiodnp313UpdateBuilder7AddMeasINS0_6AnalogEEERS5_RKT_tNS0_9EventModeEEUlS2_E_E9_M_invokeERKSt9_Any_dataS2_]
	mov	x0, x19
	ldr	x4, [x4, #:got_lo12:_ZNSt17_Function_handlerIFvRN8opendnp314IUpdateHandlerEEZN8asiodnp313UpdateBuilder7AddMeasINS0_6AnalogEEERS5_RKT_tNS0_9EventModeEEUlS2_E_E10_M_managerERSt9_Any_dataRKSF_St18_Manager_operation]
	str	x2, [sp, 88]
	ldp	q0, q1, [x20]
	add	x20, sp, 88
	mov	x1, x20
	stp	x4, x3, [sp, 104]
	stp	q0, q1, [x2]
.LEHB14:
	bl	_ZN8asiodnp313UpdateBuilder3AddERKSt8functionIFvRN8opendnp314IUpdateHandlerEEE
.LEHE14:
	ldr	x3, [sp, 104]
	cbz	x3, .L264
	mov	x1, x20
	mov	x0, x20
	mov	w2, 3
	blr	x3
.L264:
	adrp	x0, :got:__stack_chk_guard
	ldr	x0, [x0, #:got_lo12:__stack_chk_guard]
	ldr	x2, [sp, 120]
	ldr	x1, [x0]
	subs	x2, x2, x1
	mov	x1, 0
	bne	.L282
	mov	x0, x19
	ldp	x19, x20, [sp, 16]
	ldp	x21, x22, [sp, 32]
	ldp	x29, x30, [sp], 128
	.cfi_remember_state
	.cfi_restore 30
	.cfi_restore 29
	.cfi_restore 21
	.cfi_restore 22
	.cfi_restore 19
	.cfi_restore 20
	.cfi_def_cfa_offset 0
	ret
.L282:
	.cfi_restore_state
	bl	__stack_chk_fail
.L268:
	ldr	x3, [sp, 104]
	mov	x19, x0
	cbz	x3, .L266
	mov	x1, x20
	mov	x0, x20
	mov	w2, 3
	blr	x3
.L266:
	mov	x0, x19
.LEHB15:
	bl	_Unwind_Resume
.LEHE15:
.L269:
	ldr	x3, [sp, 104]
	mov	x19, x0
	cbz	x3, .L266
	add	x1, sp, 88
	mov	w2, 3
	mov	x0, x1
	blr	x3
	b	.L266
	.cfi_endproc
.LFE2095:
	.section	.gcc_except_table
.LLSDA2095:
	.byte	0xff
	.byte	0xff
	.byte	0x1
	.uleb128 .LLSDACSE2095-.LLSDACSB2095
.LLSDACSB2095:
	.uleb128 .LEHB13-.LFB2095
	.uleb128 .LEHE13-.LEHB13
	.uleb128 .L269-.LFB2095
	.uleb128 0
	.uleb128 .LEHB14-.LFB2095
	.uleb128 .LEHE14-.LEHB14
	.uleb128 .L268-.LFB2095
	.uleb128 0
	.uleb128 .LEHB15-.LFB2095
	.uleb128 .LEHE15-.LEHB15
	.uleb128 0
	.uleb128 0
.LLSDACSE2095:
	.text
	.size	_ZN8asiodnp313UpdateBuilder6UpdateERKN8opendnp36AnalogEtNS1_9EventModeE, .-_ZN8asiodnp313UpdateBuilder6UpdateERKN8opendnp36AnalogEtNS1_9EventModeE
	.align	2
	.p2align 4,,11
	.global	_ZN8asiodnp313UpdateBuilder6UpdateERKN8opendnp37CounterEtNS1_9EventModeE
	.type	_ZN8asiodnp313UpdateBuilder6UpdateERKN8opendnp37CounterEtNS1_9EventModeE, %function
_ZN8asiodnp313UpdateBuilder6UpdateERKN8opendnp37CounterEtNS1_9EventModeE:
.LFB2096:
	.cfi_startproc
	.cfi_personality 0x9b,DW.ref.__gxx_personality_v0
	.cfi_lsda 0x1b,.LLSDA2096
	stp	x29, x30, [sp, -128]!
	.cfi_def_cfa_offset 128
	.cfi_offset 29, -128
	.cfi_offset 30, -120
	adrp	x4, :got:__stack_chk_guard
	mov	x29, sp
	ldp	x6, x7, [x1]
	stp	x19, x20, [sp, 16]
	.cfi_offset 19, -112
	.cfi_offset 20, -104
	add	x20, sp, 56
	ldr	x4, [x4, #:got_lo12:__stack_chk_guard]
	stp	x21, x22, [sp, 32]
	.cfi_offset 21, -96
	.cfi_offset 22, -88
	mov	x19, x0
	ldr	x1, [x1, 16]
	ldr	x0, [x4]
	str	x0, [sp, 120]
	mov	x0, 0
	and	w22, w2, 65535
	and	w21, w3, 255
	mov	x0, 32
	str	x1, [x20, 16]
	stp	x6, x7, [sp, 56]
	stp	xzr, xzr, [sp, 88]
	stp	xzr, xzr, [sp, 104]
.LEHB16:
	bl	_Znwm
.LEHE16:
	adrp	x3, :got:_ZNSt17_Function_handlerIFvRN8opendnp314IUpdateHandlerEEZN8asiodnp313UpdateBuilder7AddMeasINS0_7CounterEEERS5_RKT_tNS0_9EventModeEEUlS2_E_E9_M_invokeERKSt9_Any_dataS2_
	adrp	x4, :got:_ZNSt17_Function_handlerIFvRN8opendnp314IUpdateHandlerEEZN8asiodnp313UpdateBuilder7AddMeasINS0_7CounterEEERS5_RKT_tNS0_9EventModeEEUlS2_E_E10_M_managerERSt9_Any_dataRKSF_St18_Manager_operation
	strh	w22, [sp, 80]
	strb	w21, [sp, 82]
	mov	x2, x0
	ldr	x3, [x3, #:got_lo12:_ZNSt17_Function_handlerIFvRN8opendnp314IUpdateHandlerEEZN8asiodnp313UpdateBuilder7AddMeasINS0_7CounterEEERS5_RKT_tNS0_9EventModeEEUlS2_E_E9_M_invokeERKSt9_Any_dataS2_]
	mov	x0, x19
	ldr	x4, [x4, #:got_lo12:_ZNSt17_Function_handlerIFvRN8opendnp314IUpdateHandlerEEZN8asiodnp313UpdateBuilder7AddMeasINS0_7CounterEEERS5_RKT_tNS0_9EventModeEEUlS2_E_E10_M_managerERSt9_Any_dataRKSF_St18_Manager_operation]
	str	x2, [sp, 88]
	ldp	q0, q1, [x20]
	add	x20, sp, 88
	mov	x1, x20
	stp	x4, x3, [sp, 104]
	stp	q0, q1, [x2]
.LEHB17:
	bl	_ZN8asiodnp313UpdateBuilder3AddERKSt8functionIFvRN8opendnp314IUpdateHandlerEEE
.LEHE17:
	ldr	x3, [sp, 104]
	cbz	x3, .L287
	mov	x1, x20
	mov	x0, x20
	mov	w2, 3
	blr	x3
.L287:
	adrp	x0, :got:__stack_chk_guard
	ldr	x0, [x0, #:got_lo12:__stack_chk_guard]
	ldr	x2, [sp, 120]
	ldr	x1, [x0]
	subs	x2, x2, x1
	mov	x1, 0
	bne	.L305
	mov	x0, x19
	ldp	x19, x20, [sp, 16]
	ldp	x21, x22, [sp, 32]
	ldp	x29, x30, [sp], 128
	.cfi_remember_state
	.cfi_restore 30
	.cfi_restore 29
	.cfi_restore 21
	.cfi_restore 22
	.cfi_restore 19
	.cfi_restore 20
	.cfi_def_cfa_offset 0
	ret
.L305:
	.cfi_restore_state
	bl	__stack_chk_fail
.L291:
	ldr	x3, [sp, 104]
	mov	x19, x0
	cbz	x3, .L289
	mov	x1, x20
	mov	x0, x20
	mov	w2, 3
	blr	x3
.L289:
	mov	x0, x19
.LEHB18:
	bl	_Unwind_Resume
.LEHE18:
.L292:
	ldr	x3, [sp, 104]
	mov	x19, x0
	cbz	x3, .L289
	add	x1, sp, 88
	mov	w2, 3
	mov	x0, x1
	blr	x3
	b	.L289
	.cfi_endproc
.LFE2096:
	.section	.gcc_except_table
.LLSDA2096:
	.byte	0xff
	.byte	0xff
	.byte	0x1
	.uleb128 .LLSDACSE2096-.LLSDACSB2096
.LLSDACSB2096:
	.uleb128 .LEHB16-.LFB2096
	.uleb128 .LEHE16-.LEHB16
	.uleb128 .L292-.LFB2096
	.uleb128 0
	.uleb128 .LEHB17-.LFB2096
	.uleb128 .LEHE17-.LEHB17
	.uleb128 .L291-.LFB2096
	.uleb128 0
	.uleb128 .LEHB18-.LFB2096
	.uleb128 .LEHE18-.LEHB18
	.uleb128 0
	.uleb128 0
.LLSDACSE2096:
	.text
	.size	_ZN8asiodnp313UpdateBuilder6UpdateERKN8opendnp37CounterEtNS1_9EventModeE, .-_ZN8asiodnp313UpdateBuilder6UpdateERKN8opendnp37CounterEtNS1_9EventModeE
	.align	2
	.p2align 4,,11
	.global	_ZN8asiodnp313UpdateBuilder6UpdateERKN8opendnp313FrozenCounterEtNS1_9EventModeE
	.type	_ZN8asiodnp313UpdateBuilder6UpdateERKN8opendnp313FrozenCounterEtNS1_9EventModeE, %function
_ZN8asiodnp313UpdateBuilder6UpdateERKN8opendnp313FrozenCounterEtNS1_9EventModeE:
.LFB2097:
	.cfi_startproc
	.cfi_personality 0x9b,DW.ref.__gxx_personality_v0
	.cfi_lsda 0x1b,.LLSDA2097
	stp	x29, x30, [sp, -128]!
	.cfi_def_cfa_offset 128
	.cfi_offset 29, -128
	.cfi_offset 30, -120
	adrp	x4, :got:__stack_chk_guard
	mov	x29, sp
	ldp	x6, x7, [x1]
	stp	x19, x20, [sp, 16]
	.cfi_offset 19, -112
	.cfi_offset 20, -104
	add	x20, sp, 56
	ldr	x4, [x4, #:got_lo12:__stack_chk_guard]
	stp	x21, x22, [sp, 32]
	.cfi_offset 21, -96
	.cfi_offset 22, -88
	mov	x19, x0
	ldr	x1, [x1, 16]
	ldr	x0, [x4]
	str	x0, [sp, 120]
	mov	x0, 0
	and	w22, w2, 65535
	and	w21, w3, 255
	mov	x0, 32
	str	x1, [x20, 16]
	stp	x6, x7, [sp, 56]
	stp	xzr, xzr, [sp, 88]
	stp	xzr, xzr, [sp, 104]
.LEHB19:
	bl	_Znwm
.LEHE19:
	adrp	x3, :got:_ZNSt17_Function_handlerIFvRN8opendnp314IUpdateHandlerEEZN8asiodnp313UpdateBuilder7AddMeasINS0_13FrozenCounterEEERS5_RKT_tNS0_9EventModeEEUlS2_E_E9_M_invokeERKSt9_Any_dataS2_
	adrp	x4, :got:_ZNSt17_Function_handlerIFvRN8opendnp314IUpdateHandlerEEZN8asiodnp313UpdateBuilder7AddMeasINS0_13FrozenCounterEEERS5_RKT_tNS0_9EventModeEEUlS2_E_E10_M_managerERSt9_Any_dataRKSF_St18_Manager_operation
	strh	w22, [sp, 80]
	strb	w21, [sp, 82]
	mov	x2, x0
	ldr	x3, [x3, #:got_lo12:_ZNSt17_Function_handlerIFvRN8opendnp314IUpdateHandlerEEZN8asiodnp313UpdateBuilder7AddMeasINS0_13FrozenCounterEEERS5_RKT_tNS0_9EventModeEEUlS2_E_E9_M_invokeERKSt9_Any_dataS2_]
	mov	x0, x19
	ldr	x4, [x4, #:got_lo12:_ZNSt17_Function_handlerIFvRN8opendnp314IUpdateHandlerEEZN8asiodnp313UpdateBuilder7AddMeasINS0_13FrozenCounterEEERS5_RKT_tNS0_9EventModeEEUlS2_E_E10_M_managerERSt9_Any_dataRKSF_St18_Manager_operation]
	str	x2, [sp, 88]
	ldp	q0, q1, [x20]
	add	x20, sp, 88
	mov	x1, x20
	stp	x4, x3, [sp, 104]
	stp	q0, q1, [x2]
.LEHB20:
	bl	_ZN8asiodnp313UpdateBuilder3AddERKSt8functionIFvRN8opendnp314IUpdateHandlerEEE
.LEHE20:
	ldr	x3, [sp, 104]
	cbz	x3, .L310
	mov	x1, x20
	mov	x0, x20
	mov	w2, 3
	blr	x3
.L310:
	adrp	x0, :got:__stack_chk_guard
	ldr	x0, [x0, #:got_lo12:__stack_chk_guard]
	ldr	x2, [sp, 120]
	ldr	x1, [x0]
	subs	x2, x2, x1
	mov	x1, 0
	bne	.L328
	mov	x0, x19
	ldp	x19, x20, [sp, 16]
	ldp	x21, x22, [sp, 32]
	ldp	x29, x30, [sp], 128
	.cfi_remember_state
	.cfi_restore 30
	.cfi_restore 29
	.cfi_restore 21
	.cfi_restore 22
	.cfi_restore 19
	.cfi_restore 20
	.cfi_def_cfa_offset 0
	ret
.L328:
	.cfi_restore_state
	bl	__stack_chk_fail
.L314:
	ldr	x3, [sp, 104]
	mov	x19, x0
	cbz	x3, .L312
	mov	x1, x20
	mov	x0, x20
	mov	w2, 3
	blr	x3
.L312:
	mov	x0, x19
.LEHB21:
	bl	_Unwind_Resume
.LEHE21:
.L315:
	ldr	x3, [sp, 104]
	mov	x19, x0
	cbz	x3, .L312
	add	x1, sp, 88
	mov	w2, 3
	mov	x0, x1
	blr	x3
	b	.L312
	.cfi_endproc
.LFE2097:
	.section	.gcc_except_table
.LLSDA2097:
	.byte	0xff
	.byte	0xff
	.byte	0x1
	.uleb128 .LLSDACSE2097-.LLSDACSB2097
.LLSDACSB2097:
	.uleb128 .LEHB19-.LFB2097
	.uleb128 .LEHE19-.LEHB19
	.uleb128 .L315-.LFB2097
	.uleb128 0
	.uleb128 .LEHB20-.LFB2097
	.uleb128 .LEHE20-.LEHB20
	.uleb128 .L314-.LFB2097
	.uleb128 0
	.uleb128 .LEHB21-.LFB2097
	.uleb128 .LEHE21-.LEHB21
	.uleb128 0
	.uleb128 0
.LLSDACSE2097:
	.text
	.size	_ZN8asiodnp313UpdateBuilder6UpdateERKN8opendnp313FrozenCounterEtNS1_9EventModeE, .-_ZN8asiodnp313UpdateBuilder6UpdateERKN8opendnp313FrozenCounterEtNS1_9EventModeE
	.align	2
	.p2align 4,,11
	.global	_ZN8asiodnp313UpdateBuilder6UpdateERKN8opendnp318BinaryOutputStatusEtNS1_9EventModeE
	.type	_ZN8asiodnp313UpdateBuilder6UpdateERKN8opendnp318BinaryOutputStatusEtNS1_9EventModeE, %function
_ZN8asiodnp313UpdateBuilder6UpdateERKN8opendnp318BinaryOutputStatusEtNS1_9EventModeE:
.LFB2098:
	.cfi_startproc
	.cfi_personality 0x9b,DW.ref.__gxx_personality_v0
	.cfi_lsda 0x1b,.LLSDA2098
	stp	x29, x30, [sp, -128]!
	.cfi_def_cfa_offset 128
	.cfi_offset 29, -128
	.cfi_offset 30, -120
	adrp	x4, :got:__stack_chk_guard
	mov	x29, sp
	ldp	x6, x7, [x1]
	stp	x19, x20, [sp, 16]
	.cfi_offset 19, -112
	.cfi_offset 20, -104
	add	x20, sp, 56
	ldr	x4, [x4, #:got_lo12:__stack_chk_guard]
	stp	x21, x22, [sp, 32]
	.cfi_offset 21, -96
	.cfi_offset 22, -88
	mov	x19, x0
	ldr	x1, [x1, 16]
	ldr	x0, [x4]
	str	x0, [sp, 120]
	mov	x0, 0
	and	w22, w2, 65535
	and	w21, w3, 255
	mov	x0, 32
	str	x1, [x20, 16]
	stp	x6, x7, [sp, 56]
	stp	xzr, xzr, [sp, 88]
	stp	xzr, xzr, [sp, 104]
.LEHB22:
	bl	_Znwm
.LEHE22:
	adrp	x3, :got:_ZNSt17_Function_handlerIFvRN8opendnp314IUpdateHandlerEEZN8asiodnp313UpdateBuilder7AddMeasINS0_18BinaryOutputStatusEEERS5_RKT_tNS0_9EventModeEEUlS2_E_E9_M_invokeERKSt9_Any_dataS2_
	adrp	x4, :got:_ZNSt17_Function_handlerIFvRN8opendnp314IUpdateHandlerEEZN8asiodnp313UpdateBuilder7AddMeasINS0_18BinaryOutputStatusEEERS5_RKT_tNS0_9EventModeEEUlS2_E_E10_M_managerERSt9_Any_dataRKSF_St18_Manager_operation
	strh	w22, [sp, 80]
	strb	w21, [sp, 82]
	mov	x2, x0
	ldr	x3, [x3, #:got_lo12:_ZNSt17_Function_handlerIFvRN8opendnp314IUpdateHandlerEEZN8asiodnp313UpdateBuilder7AddMeasINS0_18BinaryOutputStatusEEERS5_RKT_tNS0_9EventModeEEUlS2_E_E9_M_invokeERKSt9_Any_dataS2_]
	mov	x0, x19
	ldr	x4, [x4, #:got_lo12:_ZNSt17_Function_handlerIFvRN8opendnp314IUpdateHandlerEEZN8asiodnp313UpdateBuilder7AddMeasINS0_18BinaryOutputStatusEEERS5_RKT_tNS0_9EventModeEEUlS2_E_E10_M_managerERSt9_Any_dataRKSF_St18_Manager_operation]
	str	x2, [sp, 88]
	ldp	q0, q1, [x20]
	add	x20, sp, 88
	mov	x1, x20
	stp	x4, x3, [sp, 104]
	stp	q0, q1, [x2]
.LEHB23:
	bl	_ZN8asiodnp313UpdateBuilder3AddERKSt8functionIFvRN8opendnp314IUpdateHandlerEEE
.LEHE23:
	ldr	x3, [sp, 104]
	cbz	x3, .L333
	mov	x1, x20
	mov	x0, x20
	mov	w2, 3
	blr	x3
.L333:
	adrp	x0, :got:__stack_chk_guard
	ldr	x0, [x0, #:got_lo12:__stack_chk_guard]
	ldr	x2, [sp, 120]
	ldr	x1, [x0]
	subs	x2, x2, x1
	mov	x1, 0
	bne	.L351
	mov	x0, x19
	ldp	x19, x20, [sp, 16]
	ldp	x21, x22, [sp, 32]
	ldp	x29, x30, [sp], 128
	.cfi_remember_state
	.cfi_restore 30
	.cfi_restore 29
	.cfi_restore 21
	.cfi_restore 22
	.cfi_restore 19
	.cfi_restore 20
	.cfi_def_cfa_offset 0
	ret
.L351:
	.cfi_restore_state
	bl	__stack_chk_fail
.L337:
	ldr	x3, [sp, 104]
	mov	x19, x0
	cbz	x3, .L335
	mov	x1, x20
	mov	x0, x20
	mov	w2, 3
	blr	x3
.L335:
	mov	x0, x19
.LEHB24:
	bl	_Unwind_Resume
.LEHE24:
.L338:
	ldr	x3, [sp, 104]
	mov	x19, x0
	cbz	x3, .L335
	add	x1, sp, 88
	mov	w2, 3
	mov	x0, x1
	blr	x3
	b	.L335
	.cfi_endproc
.LFE2098:
	.section	.gcc_except_table
.LLSDA2098:
	.byte	0xff
	.byte	0xff
	.byte	0x1
	.uleb128 .LLSDACSE2098-.LLSDACSB2098
.LLSDACSB2098:
	.uleb128 .LEHB22-.LFB2098
	.uleb128 .LEHE22-.LEHB22
	.uleb128 .L338-.LFB2098
	.uleb128 0
	.uleb128 .LEHB23-.LFB2098
	.uleb128 .LEHE23-.LEHB23
	.uleb128 .L337-.LFB2098
	.uleb128 0
	.uleb128 .LEHB24-.LFB2098
	.uleb128 .LEHE24-.LEHB24
	.uleb128 0
	.uleb128 0
.LLSDACSE2098:
	.text
	.size	_ZN8asiodnp313UpdateBuilder6UpdateERKN8opendnp318BinaryOutputStatusEtNS1_9EventModeE, .-_ZN8asiodnp313UpdateBuilder6UpdateERKN8opendnp318BinaryOutputStatusEtNS1_9EventModeE
	.align	2
	.p2align 4,,11
	.global	_ZN8asiodnp313UpdateBuilder6UpdateERKN8opendnp318AnalogOutputStatusEtNS1_9EventModeE
	.type	_ZN8asiodnp313UpdateBuilder6UpdateERKN8opendnp318AnalogOutputStatusEtNS1_9EventModeE, %function
_ZN8asiodnp313UpdateBuilder6UpdateERKN8opendnp318AnalogOutputStatusEtNS1_9EventModeE:
.LFB2099:
	.cfi_startproc
	.cfi_personality 0x9b,DW.ref.__gxx_personality_v0
	.cfi_lsda 0x1b,.LLSDA2099
	stp	x29, x30, [sp, -128]!
	.cfi_def_cfa_offset 128
	.cfi_offset 29, -128
	.cfi_offset 30, -120
	adrp	x4, :got:__stack_chk_guard
	mov	x29, sp
	ldp	x6, x7, [x1]
	stp	x19, x20, [sp, 16]
	.cfi_offset 19, -112
	.cfi_offset 20, -104
	add	x20, sp, 56
	ldr	x4, [x4, #:got_lo12:__stack_chk_guard]
	stp	x21, x22, [sp, 32]
	.cfi_offset 21, -96
	.cfi_offset 22, -88
	mov	x19, x0
	ldr	x1, [x1, 16]
	ldr	x0, [x4]
	str	x0, [sp, 120]
	mov	x0, 0
	and	w22, w2, 65535
	and	w21, w3, 255
	mov	x0, 32
	str	x1, [x20, 16]
	stp	x6, x7, [sp, 56]
	stp	xzr, xzr, [sp, 88]
	stp	xzr, xzr, [sp, 104]
.LEHB25:
	bl	_Znwm
.LEHE25:
	adrp	x3, :got:_ZNSt17_Function_handlerIFvRN8opendnp314IUpdateHandlerEEZN8asiodnp313UpdateBuilder7AddMeasINS0_18AnalogOutputStatusEEERS5_RKT_tNS0_9EventModeEEUlS2_E_E9_M_invokeERKSt9_Any_dataS2_
	adrp	x4, :got:_ZNSt17_Function_handlerIFvRN8opendnp314IUpdateHandlerEEZN8asiodnp313UpdateBuilder7AddMeasINS0_18AnalogOutputStatusEEERS5_RKT_tNS0_9EventModeEEUlS2_E_E10_M_managerERSt9_Any_dataRKSF_St18_Manager_operation
	strh	w22, [sp, 80]
	strb	w21, [sp, 82]
	mov	x2, x0
	ldr	x3, [x3, #:got_lo12:_ZNSt17_Function_handlerIFvRN8opendnp314IUpdateHandlerEEZN8asiodnp313UpdateBuilder7AddMeasINS0_18AnalogOutputStatusEEERS5_RKT_tNS0_9EventModeEEUlS2_E_E9_M_invokeERKSt9_Any_dataS2_]
	mov	x0, x19
	ldr	x4, [x4, #:got_lo12:_ZNSt17_Function_handlerIFvRN8opendnp314IUpdateHandlerEEZN8asiodnp313UpdateBuilder7AddMeasINS0_18AnalogOutputStatusEEERS5_RKT_tNS0_9EventModeEEUlS2_E_E10_M_managerERSt9_Any_dataRKSF_St18_Manager_operation]
	str	x2, [sp, 88]
	ldp	q0, q1, [x20]
	add	x20, sp, 88
	mov	x1, x20
	stp	x4, x3, [sp, 104]
	stp	q0, q1, [x2]
.LEHB26:
	bl	_ZN8asiodnp313UpdateBuilder3AddERKSt8functionIFvRN8opendnp314IUpdateHandlerEEE
.LEHE26:
	ldr	x3, [sp, 104]
	cbz	x3, .L356
	mov	x1, x20
	mov	x0, x20
	mov	w2, 3
	blr	x3
.L356:
	adrp	x0, :got:__stack_chk_guard
	ldr	x0, [x0, #:got_lo12:__stack_chk_guard]
	ldr	x2, [sp, 120]
	ldr	x1, [x0]
	subs	x2, x2, x1
	mov	x1, 0
	bne	.L374
	mov	x0, x19
	ldp	x19, x20, [sp, 16]
	ldp	x21, x22, [sp, 32]
	ldp	x29, x30, [sp], 128
	.cfi_remember_state
	.cfi_restore 30
	.cfi_restore 29
	.cfi_restore 21
	.cfi_restore 22
	.cfi_restore 19
	.cfi_restore 20
	.cfi_def_cfa_offset 0
	ret
.L374:
	.cfi_restore_state
	bl	__stack_chk_fail
.L360:
	ldr	x3, [sp, 104]
	mov	x19, x0
	cbz	x3, .L358
	mov	x1, x20
	mov	x0, x20
	mov	w2, 3
	blr	x3
.L358:
	mov	x0, x19
.LEHB27:
	bl	_Unwind_Resume
.LEHE27:
.L361:
	ldr	x3, [sp, 104]
	mov	x19, x0
	cbz	x3, .L358
	add	x1, sp, 88
	mov	w2, 3
	mov	x0, x1
	blr	x3
	b	.L358
	.cfi_endproc
.LFE2099:
	.section	.gcc_except_table
.LLSDA2099:
	.byte	0xff
	.byte	0xff
	.byte	0x1
	.uleb128 .LLSDACSE2099-.LLSDACSB2099
.LLSDACSB2099:
	.uleb128 .LEHB25-.LFB2099
	.uleb128 .LEHE25-.LEHB25
	.uleb128 .L361-.LFB2099
	.uleb128 0
	.uleb128 .LEHB26-.LFB2099
	.uleb128 .LEHE26-.LEHB26
	.uleb128 .L360-.LFB2099
	.uleb128 0
	.uleb128 .LEHB27-.LFB2099
	.uleb128 .LEHE27-.LEHB27
	.uleb128 0
	.uleb128 0
.LLSDACSE2099:
	.text
	.size	_ZN8asiodnp313UpdateBuilder6UpdateERKN8opendnp318AnalogOutputStatusEtNS1_9EventModeE, .-_ZN8asiodnp313UpdateBuilder6UpdateERKN8opendnp318AnalogOutputStatusEtNS1_9EventModeE
	.align	2
	.p2align 4,,11
	.global	_ZN8asiodnp313UpdateBuilder6UpdateERKN8opendnp315TimeAndIntervalEt
	.type	_ZN8asiodnp313UpdateBuilder6UpdateERKN8opendnp315TimeAndIntervalEt, %function
_ZN8asiodnp313UpdateBuilder6UpdateERKN8opendnp315TimeAndIntervalEt:
.LFB2100:
	.cfi_startproc
	.cfi_personality 0x9b,DW.ref.__gxx_personality_v0
	.cfi_lsda 0x1b,.LLSDA2100
	stp	x29, x30, [sp, -96]!
	.cfi_def_cfa_offset 96
	.cfi_offset 29, -96
	.cfi_offset 30, -88
	adrp	x3, :got:__stack_chk_guard
	mov	x29, sp
	ldp	x4, x5, [x1]
	stp	x19, x20, [sp, 16]
	.cfi_offset 19, -80
	.cfi_offset 20, -72
	mov	x19, x0
	ldr	x3, [x3, #:got_lo12:__stack_chk_guard]
	and	w20, w2, 65535
	ldr	x0, [x3]
	str	x0, [sp, 88]
	mov	x0, 0
	stp	x4, x5, [sp, 32]
	mov	x0, 24
	stp	xzr, xzr, [sp, 56]
	stp	xzr, xzr, [sp, 72]
.LEHB28:
	bl	_Znwm
.LEHE28:
	mov	x2, x0
	strh	w20, [sp, 48]
	adrp	x3, _ZNSt17_Function_handlerIFvRN8opendnp314IUpdateHandlerEEZN8asiodnp313UpdateBuilder6UpdateERKNS0_15TimeAndIntervalEtEUlS2_E_E9_M_invokeERKSt9_Any_dataS2_
	ldp	x6, x7, [sp, 32]
	add	x3, x3, :lo12:_ZNSt17_Function_handlerIFvRN8opendnp314IUpdateHandlerEEZN8asiodnp313UpdateBuilder6UpdateERKNS0_15TimeAndIntervalEtEUlS2_E_E9_M_invokeERKSt9_Any_dataS2_
	ldr	x5, [sp, 48]
	adrp	x4, _ZNSt17_Function_handlerIFvRN8opendnp314IUpdateHandlerEEZN8asiodnp313UpdateBuilder6UpdateERKNS0_15TimeAndIntervalEtEUlS2_E_E10_M_managerERSt9_Any_dataRKSB_St18_Manager_operation
	add	x4, x4, :lo12:_ZNSt17_Function_handlerIFvRN8opendnp314IUpdateHandlerEEZN8asiodnp313UpdateBuilder6UpdateERKNS0_15TimeAndIntervalEtEUlS2_E_E10_M_managerERSt9_Any_dataRKSB_St18_Manager_operation
	stp	x6, x7, [x2]
	add	x20, sp, 56
	str	x5, [x2, 16]
	mov	x1, x20
	mov	x0, x19
	str	x2, [sp, 56]
	stp	x4, x3, [sp, 72]
.LEHB29:
	bl	_ZN8asiodnp313UpdateBuilder3AddERKSt8functionIFvRN8opendnp314IUpdateHandlerEEE
.LEHE29:
	ldr	x3, [sp, 72]
	cbz	x3, .L379
	mov	x1, x20
	mov	x0, x20
	mov	w2, 3
	blr	x3
.L379:
	adrp	x0, :got:__stack_chk_guard
	ldr	x0, [x0, #:got_lo12:__stack_chk_guard]
	ldr	x2, [sp, 88]
	ldr	x1, [x0]
	subs	x2, x2, x1
	mov	x1, 0
	bne	.L397
	mov	x0, x19
	ldp	x19, x20, [sp, 16]
	ldp	x29, x30, [sp], 96
	.cfi_remember_state
	.cfi_restore 30
	.cfi_restore 29
	.cfi_restore 19
	.cfi_restore 20
	.cfi_def_cfa_offset 0
	ret
.L397:
	.cfi_restore_state
	bl	__stack_chk_fail
.L383:
	ldr	x3, [sp, 72]
	mov	x19, x0
	cbz	x3, .L381
	mov	x1, x20
	mov	x0, x20
	mov	w2, 3
	blr	x3
.L381:
	mov	x0, x19
.LEHB30:
	bl	_Unwind_Resume
.LEHE30:
.L384:
	ldr	x3, [sp, 72]
	mov	x19, x0
	cbz	x3, .L381
	add	x1, sp, 56
	mov	w2, 3
	mov	x0, x1
	blr	x3
	b	.L381
	.cfi_endproc
.LFE2100:
	.section	.gcc_except_table
.LLSDA2100:
	.byte	0xff
	.byte	0xff
	.byte	0x1
	.uleb128 .LLSDACSE2100-.LLSDACSB2100
.LLSDACSB2100:
	.uleb128 .LEHB28-.LFB2100
	.uleb128 .LEHE28-.LEHB28
	.uleb128 .L384-.LFB2100
	.uleb128 0
	.uleb128 .LEHB29-.LFB2100
	.uleb128 .LEHE29-.LEHB29
	.uleb128 .L383-.LFB2100
	.uleb128 0
	.uleb128 .LEHB30-.LFB2100
	.uleb128 .LEHE30-.LEHB30
	.uleb128 0
	.uleb128 0
.LLSDACSE2100:
	.text
	.size	_ZN8asiodnp313UpdateBuilder6UpdateERKN8opendnp315TimeAndIntervalEt, .-_ZN8asiodnp313UpdateBuilder6UpdateERKN8opendnp315TimeAndIntervalEt
	.align	2
	.p2align 4,,11
	.global	_ZN8asiodnp313UpdateBuilder6ModifyEN8opendnp39FlagsTypeEtth
	.type	_ZN8asiodnp313UpdateBuilder6ModifyEN8opendnp39FlagsTypeEtth, %function
_ZN8asiodnp313UpdateBuilder6ModifyEN8opendnp39FlagsTypeEtth:
.LFB2107:
	.cfi_startproc
	.cfi_personality 0x9b,DW.ref.__gxx_personality_v0
	.cfi_lsda 0x1b,.LLSDA2107
	stp	x29, x30, [sp, -80]!
	.cfi_def_cfa_offset 80
	.cfi_offset 29, -80
	.cfi_offset 30, -72
	adrp	x7, :got:__stack_chk_guard
	adrp	x5, _ZNSt17_Function_handlerIFvRN8opendnp314IUpdateHandlerEEZN8asiodnp313UpdateBuilder6ModifyENS0_9FlagsTypeEtthEUlS2_E_E9_M_invokeERKSt9_Any_dataS2_
	mov	x29, sp
	ldr	x7, [x7, #:got_lo12:__stack_chk_guard]
	stp	x19, x20, [sp, 16]
	.cfi_offset 19, -64
	.cfi_offset 20, -56
	add	x5, x5, :lo12:_ZNSt17_Function_handlerIFvRN8opendnp314IUpdateHandlerEEZN8asiodnp313UpdateBuilder6ModifyENS0_9FlagsTypeEtthEUlS2_E_E9_M_invokeERKSt9_Any_dataS2_
	ldr	x8, [x7]
	str	x8, [sp, 72]
	mov	x8, 0
	adrp	x6, _ZNSt17_Function_handlerIFvRN8opendnp314IUpdateHandlerEEZN8asiodnp313UpdateBuilder6ModifyENS0_9FlagsTypeEtthEUlS2_E_E10_M_managerERSt9_Any_dataRKS9_St18_Manager_operation
	add	x6, x6, :lo12:_ZNSt17_Function_handlerIFvRN8opendnp314IUpdateHandlerEEZN8asiodnp313UpdateBuilder6ModifyENS0_9FlagsTypeEtthEUlS2_E_E10_M_managerERSt9_Any_dataRKS9_St18_Manager_operation
	add	x19, sp, 40
	stp	xzr, xzr, [sp, 40]
	mov	x20, x0
	strb	w1, [sp, 40]
	mov	x1, x19
	strh	w2, [sp, 42]
	strh	w3, [sp, 44]
	strb	w4, [sp, 46]
	stp	x6, x5, [sp, 56]
.LEHB31:
	bl	_ZN8asiodnp313UpdateBuilder3AddERKSt8functionIFvRN8opendnp314IUpdateHandlerEEE
.LEHE31:
	ldr	x3, [sp, 56]
	cbz	x3, .L399
	mov	x1, x19
	mov	x0, x19
	mov	w2, 3
	blr	x3
.L399:
	adrp	x1, :got:__stack_chk_guard
	ldr	x1, [x1, #:got_lo12:__stack_chk_guard]
	ldr	x0, [sp, 72]
	ldr	x2, [x1]
	subs	x0, x0, x2
	mov	x2, 0
	bne	.L412
	mov	x0, x20
	ldp	x19, x20, [sp, 16]
	ldp	x29, x30, [sp], 80
	.cfi_remember_state
	.cfi_restore 30
	.cfi_restore 29
	.cfi_restore 19
	.cfi_restore 20
	.cfi_def_cfa_offset 0
	ret
.L412:
	.cfi_restore_state
	bl	__stack_chk_fail
.L403:
	ldr	x3, [sp, 56]
	mov	x20, x0
	cbz	x3, .L401
	mov	x1, x19
	mov	x0, x19
	mov	w2, 3
	blr	x3
.L401:
	mov	x0, x20
.LEHB32:
	bl	_Unwind_Resume
.LEHE32:
	.cfi_endproc
.LFE2107:
	.section	.gcc_except_table
.LLSDA2107:
	.byte	0xff
	.byte	0xff
	.byte	0x1
	.uleb128 .LLSDACSE2107-.LLSDACSB2107
.LLSDACSB2107:
	.uleb128 .LEHB31-.LFB2107
	.uleb128 .LEHE31-.LEHB31
	.uleb128 .L403-.LFB2107
	.uleb128 0
	.uleb128 .LEHB32-.LFB2107
	.uleb128 .LEHE32-.LEHB32
	.uleb128 0
	.uleb128 0
.LLSDACSE2107:
	.text
	.size	_ZN8asiodnp313UpdateBuilder6ModifyEN8opendnp39FlagsTypeEtth, .-_ZN8asiodnp313UpdateBuilder6ModifyEN8opendnp39FlagsTypeEtth
	.weak	_ZTSSt11_Mutex_baseILN9__gnu_cxx12_Lock_policyE2EE
	.section	.rodata._ZTSSt11_Mutex_baseILN9__gnu_cxx12_Lock_policyE2EE,"aG",@progbits,_ZTSSt11_Mutex_baseILN9__gnu_cxx12_Lock_policyE2EE,comdat
	.align	3
	.type	_ZTSSt11_Mutex_baseILN9__gnu_cxx12_Lock_policyE2EE, %object
	.size	_ZTSSt11_Mutex_baseILN9__gnu_cxx12_Lock_policyE2EE, 47
_ZTSSt11_Mutex_baseILN9__gnu_cxx12_Lock_policyE2EE:
	.string	"St11_Mutex_baseILN9__gnu_cxx12_Lock_policyE2EE"
	.weak	_ZTISt11_Mutex_baseILN9__gnu_cxx12_Lock_policyE2EE
	.section	.data.rel.ro._ZTISt11_Mutex_baseILN9__gnu_cxx12_Lock_policyE2EE,"awG",@progbits,_ZTISt11_Mutex_baseILN9__gnu_cxx12_Lock_policyE2EE,comdat
	.align	3
	.type	_ZTISt11_Mutex_baseILN9__gnu_cxx12_Lock_policyE2EE, %object
	.size	_ZTISt11_Mutex_baseILN9__gnu_cxx12_Lock_policyE2EE, 16
_ZTISt11_Mutex_baseILN9__gnu_cxx12_Lock_policyE2EE:
	.xword	_ZTVN10__cxxabiv117__class_type_infoE+16
	.xword	_ZTSSt11_Mutex_baseILN9__gnu_cxx12_Lock_policyE2EE
	.weak	_ZTSSt19_Sp_make_shared_tag
	.section	.rodata._ZTSSt19_Sp_make_shared_tag,"aG",@progbits,_ZTSSt19_Sp_make_shared_tag,comdat
	.align	3
	.type	_ZTSSt19_Sp_make_shared_tag, %object
	.size	_ZTSSt19_Sp_make_shared_tag, 24
_ZTSSt19_Sp_make_shared_tag:
	.string	"St19_Sp_make_shared_tag"
	.weak	_ZTSSt16_Sp_counted_baseILN9__gnu_cxx12_Lock_policyE2EE
	.section	.rodata._ZTSSt16_Sp_counted_baseILN9__gnu_cxx12_Lock_policyE2EE,"aG",@progbits,_ZTSSt16_Sp_counted_baseILN9__gnu_cxx12_Lock_policyE2EE,comdat
	.align	3
	.type	_ZTSSt16_Sp_counted_baseILN9__gnu_cxx12_Lock_policyE2EE, %object
	.size	_ZTSSt16_Sp_counted_baseILN9__gnu_cxx12_Lock_policyE2EE, 52
_ZTSSt16_Sp_counted_baseILN9__gnu_cxx12_Lock_policyE2EE:
	.string	"St16_Sp_counted_baseILN9__gnu_cxx12_Lock_policyE2EE"
	.weak	_ZTISt16_Sp_counted_baseILN9__gnu_cxx12_Lock_policyE2EE
	.section	.data.rel.ro._ZTISt16_Sp_counted_baseILN9__gnu_cxx12_Lock_policyE2EE,"awG",@progbits,_ZTISt16_Sp_counted_baseILN9__gnu_cxx12_Lock_policyE2EE,comdat
	.align	3
	.type	_ZTISt16_Sp_counted_baseILN9__gnu_cxx12_Lock_policyE2EE, %object
	.size	_ZTISt16_Sp_counted_baseILN9__gnu_cxx12_Lock_policyE2EE, 24
_ZTISt16_Sp_counted_baseILN9__gnu_cxx12_Lock_policyE2EE:
	.xword	_ZTVN10__cxxabiv120__si_class_type_infoE+16
	.xword	_ZTSSt16_Sp_counted_baseILN9__gnu_cxx12_Lock_policyE2EE
	.xword	_ZTISt11_Mutex_baseILN9__gnu_cxx12_Lock_policyE2EE
	.weak	_ZTSZN8asiodnp313UpdateBuilder7AddMeasIN8opendnp36BinaryEEERS0_RKT_tNS2_9EventModeEEUlRNS2_14IUpdateHandlerEE_
	.section	.rodata._ZTSZN8asiodnp313UpdateBuilder7AddMeasIN8opendnp36BinaryEEERS0_RKT_tNS2_9EventModeEEUlRNS2_14IUpdateHandlerEE_,"aG",@progbits,_ZTSZN8asiodnp313UpdateBuilder7AddMeasIN8opendnp36BinaryEEERS0_RKT_tNS2_9EventModeEEUlRNS2_14IUpdateHandlerEE_,comdat
	.align	3
	.type	_ZTSZN8asiodnp313UpdateBuilder7AddMeasIN8opendnp36BinaryEEERS0_RKT_tNS2_9EventModeEEUlRNS2_14IUpdateHandlerEE_, %object
	.size	_ZTSZN8asiodnp313UpdateBuilder7AddMeasIN8opendnp36BinaryEEERS0_RKT_tNS2_9EventModeEEUlRNS2_14IUpdateHandlerEE_, 107
_ZTSZN8asiodnp313UpdateBuilder7AddMeasIN8opendnp36BinaryEEERS0_RKT_tNS2_9EventModeEEUlRNS2_14IUpdateHandlerEE_:
	.string	"ZN8asiodnp313UpdateBuilder7AddMeasIN8opendnp36BinaryEEERS0_RKT_tNS2_9EventModeEEUlRNS2_14IUpdateHandlerEE_"
	.weak	_ZTIZN8asiodnp313UpdateBuilder7AddMeasIN8opendnp36BinaryEEERS0_RKT_tNS2_9EventModeEEUlRNS2_14IUpdateHandlerEE_
	.section	.data.rel.ro._ZTIZN8asiodnp313UpdateBuilder7AddMeasIN8opendnp36BinaryEEERS0_RKT_tNS2_9EventModeEEUlRNS2_14IUpdateHandlerEE_,"awG",@progbits,_ZTIZN8asiodnp313UpdateBuilder7AddMeasIN8opendnp36BinaryEEERS0_RKT_tNS2_9EventModeEEUlRNS2_14IUpdateHandlerEE_,comdat
	.align	3
	.type	_ZTIZN8asiodnp313UpdateBuilder7AddMeasIN8opendnp36BinaryEEERS0_RKT_tNS2_9EventModeEEUlRNS2_14IUpdateHandlerEE_, %object
	.size	_ZTIZN8asiodnp313UpdateBuilder7AddMeasIN8opendnp36BinaryEEERS0_RKT_tNS2_9EventModeEEUlRNS2_14IUpdateHandlerEE_, 16
_ZTIZN8asiodnp313UpdateBuilder7AddMeasIN8opendnp36BinaryEEERS0_RKT_tNS2_9EventModeEEUlRNS2_14IUpdateHandlerEE_:
	.xword	_ZTVN10__cxxabiv117__class_type_infoE+16
	.xword	_ZTSZN8asiodnp313UpdateBuilder7AddMeasIN8opendnp36BinaryEEERS0_RKT_tNS2_9EventModeEEUlRNS2_14IUpdateHandlerEE_
	.weak	_ZTSZN8asiodnp313UpdateBuilder7AddMeasIN8opendnp315DoubleBitBinaryEEERS0_RKT_tNS2_9EventModeEEUlRNS2_14IUpdateHandlerEE_
	.section	.rodata._ZTSZN8asiodnp313UpdateBuilder7AddMeasIN8opendnp315DoubleBitBinaryEEERS0_RKT_tNS2_9EventModeEEUlRNS2_14IUpdateHandlerEE_,"aG",@progbits,_ZTSZN8asiodnp313UpdateBuilder7AddMeasIN8opendnp315DoubleBitBinaryEEERS0_RKT_tNS2_9EventModeEEUlRNS2_14IUpdateHandlerEE_,comdat
	.align	3
	.type	_ZTSZN8asiodnp313UpdateBuilder7AddMeasIN8opendnp315DoubleBitBinaryEEERS0_RKT_tNS2_9EventModeEEUlRNS2_14IUpdateHandlerEE_, %object
	.size	_ZTSZN8asiodnp313UpdateBuilder7AddMeasIN8opendnp315DoubleBitBinaryEEERS0_RKT_tNS2_9EventModeEEUlRNS2_14IUpdateHandlerEE_, 117
_ZTSZN8asiodnp313UpdateBuilder7AddMeasIN8opendnp315DoubleBitBinaryEEERS0_RKT_tNS2_9EventModeEEUlRNS2_14IUpdateHandlerEE_:
	.string	"ZN8asiodnp313UpdateBuilder7AddMeasIN8opendnp315DoubleBitBinaryEEERS0_RKT_tNS2_9EventModeEEUlRNS2_14IUpdateHandlerEE_"
	.weak	_ZTIZN8asiodnp313UpdateBuilder7AddMeasIN8opendnp315DoubleBitBinaryEEERS0_RKT_tNS2_9EventModeEEUlRNS2_14IUpdateHandlerEE_
	.section	.data.rel.ro._ZTIZN8asiodnp313UpdateBuilder7AddMeasIN8opendnp315DoubleBitBinaryEEERS0_RKT_tNS2_9EventModeEEUlRNS2_14IUpdateHandlerEE_,"awG",@progbits,_ZTIZN8asiodnp313UpdateBuilder7AddMeasIN8opendnp315DoubleBitBinaryEEERS0_RKT_tNS2_9EventModeEEUlRNS2_14IUpdateHandlerEE_,comdat
	.align	3
	.type	_ZTIZN8asiodnp313UpdateBuilder7AddMeasIN8opendnp315DoubleBitBinaryEEERS0_RKT_tNS2_9EventModeEEUlRNS2_14IUpdateHandlerEE_, %object
	.size	_ZTIZN8asiodnp313UpdateBuilder7AddMeasIN8opendnp315DoubleBitBinaryEEERS0_RKT_tNS2_9EventModeEEUlRNS2_14IUpdateHandlerEE_, 16
_ZTIZN8asiodnp313UpdateBuilder7AddMeasIN8opendnp315DoubleBitBinaryEEERS0_RKT_tNS2_9EventModeEEUlRNS2_14IUpdateHandlerEE_:
	.xword	_ZTVN10__cxxabiv117__class_type_infoE+16
	.xword	_ZTSZN8asiodnp313UpdateBuilder7AddMeasIN8opendnp315DoubleBitBinaryEEERS0_RKT_tNS2_9EventModeEEUlRNS2_14IUpdateHandlerEE_
	.weak	_ZTSZN8asiodnp313UpdateBuilder7AddMeasIN8opendnp36AnalogEEERS0_RKT_tNS2_9EventModeEEUlRNS2_14IUpdateHandlerEE_
	.section	.rodata._ZTSZN8asiodnp313UpdateBuilder7AddMeasIN8opendnp36AnalogEEERS0_RKT_tNS2_9EventModeEEUlRNS2_14IUpdateHandlerEE_,"aG",@progbits,_ZTSZN8asiodnp313UpdateBuilder7AddMeasIN8opendnp36AnalogEEERS0_RKT_tNS2_9EventModeEEUlRNS2_14IUpdateHandlerEE_,comdat
	.align	3
	.type	_ZTSZN8asiodnp313UpdateBuilder7AddMeasIN8opendnp36AnalogEEERS0_RKT_tNS2_9EventModeEEUlRNS2_14IUpdateHandlerEE_, %object
	.size	_ZTSZN8asiodnp313UpdateBuilder7AddMeasIN8opendnp36AnalogEEERS0_RKT_tNS2_9EventModeEEUlRNS2_14IUpdateHandlerEE_, 107
_ZTSZN8asiodnp313UpdateBuilder7AddMeasIN8opendnp36AnalogEEERS0_RKT_tNS2_9EventModeEEUlRNS2_14IUpdateHandlerEE_:
	.string	"ZN8asiodnp313UpdateBuilder7AddMeasIN8opendnp36AnalogEEERS0_RKT_tNS2_9EventModeEEUlRNS2_14IUpdateHandlerEE_"
	.weak	_ZTIZN8asiodnp313UpdateBuilder7AddMeasIN8opendnp36AnalogEEERS0_RKT_tNS2_9EventModeEEUlRNS2_14IUpdateHandlerEE_
	.section	.data.rel.ro._ZTIZN8asiodnp313UpdateBuilder7AddMeasIN8opendnp36AnalogEEERS0_RKT_tNS2_9EventModeEEUlRNS2_14IUpdateHandlerEE_,"awG",@progbits,_ZTIZN8asiodnp313UpdateBuilder7AddMeasIN8opendnp36AnalogEEERS0_RKT_tNS2_9EventModeEEUlRNS2_14IUpdateHandlerEE_,comdat
	.align	3
	.type	_ZTIZN8asiodnp313UpdateBuilder7AddMeasIN8opendnp36AnalogEEERS0_RKT_tNS2_9EventModeEEUlRNS2_14IUpdateHandlerEE_, %object
	.size	_ZTIZN8asiodnp313UpdateBuilder7AddMeasIN8opendnp36AnalogEEERS0_RKT_tNS2_9EventModeEEUlRNS2_14IUpdateHandlerEE_, 16
_ZTIZN8asiodnp313UpdateBuilder7AddMeasIN8opendnp36AnalogEEERS0_RKT_tNS2_9EventModeEEUlRNS2_14IUpdateHandlerEE_:
	.xword	_ZTVN10__cxxabiv117__class_type_infoE+16
	.xword	_ZTSZN8asiodnp313UpdateBuilder7AddMeasIN8opendnp36AnalogEEERS0_RKT_tNS2_9EventModeEEUlRNS2_14IUpdateHandlerEE_
	.weak	_ZTSZN8asiodnp313UpdateBuilder7AddMeasIN8opendnp37CounterEEERS0_RKT_tNS2_9EventModeEEUlRNS2_14IUpdateHandlerEE_
	.section	.rodata._ZTSZN8asiodnp313UpdateBuilder7AddMeasIN8opendnp37CounterEEERS0_RKT_tNS2_9EventModeEEUlRNS2_14IUpdateHandlerEE_,"aG",@progbits,_ZTSZN8asiodnp313UpdateBuilder7AddMeasIN8opendnp37CounterEEERS0_RKT_tNS2_9EventModeEEUlRNS2_14IUpdateHandlerEE_,comdat
	.align	3
	.type	_ZTSZN8asiodnp313UpdateBuilder7AddMeasIN8opendnp37CounterEEERS0_RKT_tNS2_9EventModeEEUlRNS2_14IUpdateHandlerEE_, %object
	.size	_ZTSZN8asiodnp313UpdateBuilder7AddMeasIN8opendnp37CounterEEERS0_RKT_tNS2_9EventModeEEUlRNS2_14IUpdateHandlerEE_, 108
_ZTSZN8asiodnp313UpdateBuilder7AddMeasIN8opendnp37CounterEEERS0_RKT_tNS2_9EventModeEEUlRNS2_14IUpdateHandlerEE_:
	.string	"ZN8asiodnp313UpdateBuilder7AddMeasIN8opendnp37CounterEEERS0_RKT_tNS2_9EventModeEEUlRNS2_14IUpdateHandlerEE_"
	.weak	_ZTIZN8asiodnp313UpdateBuilder7AddMeasIN8opendnp37CounterEEERS0_RKT_tNS2_9EventModeEEUlRNS2_14IUpdateHandlerEE_
	.section	.data.rel.ro._ZTIZN8asiodnp313UpdateBuilder7AddMeasIN8opendnp37CounterEEERS0_RKT_tNS2_9EventModeEEUlRNS2_14IUpdateHandlerEE_,"awG",@progbits,_ZTIZN8asiodnp313UpdateBuilder7AddMeasIN8opendnp37CounterEEERS0_RKT_tNS2_9EventModeEEUlRNS2_14IUpdateHandlerEE_,comdat
	.align	3
	.type	_ZTIZN8asiodnp313UpdateBuilder7AddMeasIN8opendnp37CounterEEERS0_RKT_tNS2_9EventModeEEUlRNS2_14IUpdateHandlerEE_, %object
	.size	_ZTIZN8asiodnp313UpdateBuilder7AddMeasIN8opendnp37CounterEEERS0_RKT_tNS2_9EventModeEEUlRNS2_14IUpdateHandlerEE_, 16
_ZTIZN8asiodnp313UpdateBuilder7AddMeasIN8opendnp37CounterEEERS0_RKT_tNS2_9EventModeEEUlRNS2_14IUpdateHandlerEE_:
	.xword	_ZTVN10__cxxabiv117__class_type_infoE+16
	.xword	_ZTSZN8asiodnp313UpdateBuilder7AddMeasIN8opendnp37CounterEEERS0_RKT_tNS2_9EventModeEEUlRNS2_14IUpdateHandlerEE_
	.weak	_ZTSZN8asiodnp313UpdateBuilder7AddMeasIN8opendnp313FrozenCounterEEERS0_RKT_tNS2_9EventModeEEUlRNS2_14IUpdateHandlerEE_
	.section	.rodata._ZTSZN8asiodnp313UpdateBuilder7AddMeasIN8opendnp313FrozenCounterEEERS0_RKT_tNS2_9EventModeEEUlRNS2_14IUpdateHandlerEE_,"aG",@progbits,_ZTSZN8asiodnp313UpdateBuilder7AddMeasIN8opendnp313FrozenCounterEEERS0_RKT_tNS2_9EventModeEEUlRNS2_14IUpdateHandlerEE_,comdat
	.align	3
	.type	_ZTSZN8asiodnp313UpdateBuilder7AddMeasIN8opendnp313FrozenCounterEEERS0_RKT_tNS2_9EventModeEEUlRNS2_14IUpdateHandlerEE_, %object
	.size	_ZTSZN8asiodnp313UpdateBuilder7AddMeasIN8opendnp313FrozenCounterEEERS0_RKT_tNS2_9EventModeEEUlRNS2_14IUpdateHandlerEE_, 115
_ZTSZN8asiodnp313UpdateBuilder7AddMeasIN8opendnp313FrozenCounterEEERS0_RKT_tNS2_9EventModeEEUlRNS2_14IUpdateHandlerEE_:
	.string	"ZN8asiodnp313UpdateBuilder7AddMeasIN8opendnp313FrozenCounterEEERS0_RKT_tNS2_9EventModeEEUlRNS2_14IUpdateHandlerEE_"
	.weak	_ZTIZN8asiodnp313UpdateBuilder7AddMeasIN8opendnp313FrozenCounterEEERS0_RKT_tNS2_9EventModeEEUlRNS2_14IUpdateHandlerEE_
	.section	.data.rel.ro._ZTIZN8asiodnp313UpdateBuilder7AddMeasIN8opendnp313FrozenCounterEEERS0_RKT_tNS2_9EventModeEEUlRNS2_14IUpdateHandlerEE_,"awG",@progbits,_ZTIZN8asiodnp313UpdateBuilder7AddMeasIN8opendnp313FrozenCounterEEERS0_RKT_tNS2_9EventModeEEUlRNS2_14IUpdateHandlerEE_,comdat
	.align	3
	.type	_ZTIZN8asiodnp313UpdateBuilder7AddMeasIN8opendnp313FrozenCounterEEERS0_RKT_tNS2_9EventModeEEUlRNS2_14IUpdateHandlerEE_, %object
	.size	_ZTIZN8asiodnp313UpdateBuilder7AddMeasIN8opendnp313FrozenCounterEEERS0_RKT_tNS2_9EventModeEEUlRNS2_14IUpdateHandlerEE_, 16
_ZTIZN8asiodnp313UpdateBuilder7AddMeasIN8opendnp313FrozenCounterEEERS0_RKT_tNS2_9EventModeEEUlRNS2_14IUpdateHandlerEE_:
	.xword	_ZTVN10__cxxabiv117__class_type_infoE+16
	.xword	_ZTSZN8asiodnp313UpdateBuilder7AddMeasIN8opendnp313FrozenCounterEEERS0_RKT_tNS2_9EventModeEEUlRNS2_14IUpdateHandlerEE_
	.weak	_ZTSZN8asiodnp313UpdateBuilder7AddMeasIN8opendnp318BinaryOutputStatusEEERS0_RKT_tNS2_9EventModeEEUlRNS2_14IUpdateHandlerEE_
	.section	.rodata._ZTSZN8asiodnp313UpdateBuilder7AddMeasIN8opendnp318BinaryOutputStatusEEERS0_RKT_tNS2_9EventModeEEUlRNS2_14IUpdateHandlerEE_,"aG",@progbits,_ZTSZN8asiodnp313UpdateBuilder7AddMeasIN8opendnp318BinaryOutputStatusEEERS0_RKT_tNS2_9EventModeEEUlRNS2_14IUpdateHandlerEE_,comdat
	.align	3
	.type	_ZTSZN8asiodnp313UpdateBuilder7AddMeasIN8opendnp318BinaryOutputStatusEEERS0_RKT_tNS2_9EventModeEEUlRNS2_14IUpdateHandlerEE_, %object
	.size	_ZTSZN8asiodnp313UpdateBuilder7AddMeasIN8opendnp318BinaryOutputStatusEEERS0_RKT_tNS2_9EventModeEEUlRNS2_14IUpdateHandlerEE_, 120
_ZTSZN8asiodnp313UpdateBuilder7AddMeasIN8opendnp318BinaryOutputStatusEEERS0_RKT_tNS2_9EventModeEEUlRNS2_14IUpdateHandlerEE_:
	.string	"ZN8asiodnp313UpdateBuilder7AddMeasIN8opendnp318BinaryOutputStatusEEERS0_RKT_tNS2_9EventModeEEUlRNS2_14IUpdateHandlerEE_"
	.weak	_ZTIZN8asiodnp313UpdateBuilder7AddMeasIN8opendnp318BinaryOutputStatusEEERS0_RKT_tNS2_9EventModeEEUlRNS2_14IUpdateHandlerEE_
	.section	.data.rel.ro._ZTIZN8asiodnp313UpdateBuilder7AddMeasIN8opendnp318BinaryOutputStatusEEERS0_RKT_tNS2_9EventModeEEUlRNS2_14IUpdateHandlerEE_,"awG",@progbits,_ZTIZN8asiodnp313UpdateBuilder7AddMeasIN8opendnp318BinaryOutputStatusEEERS0_RKT_tNS2_9EventModeEEUlRNS2_14IUpdateHandlerEE_,comdat
	.align	3
	.type	_ZTIZN8asiodnp313UpdateBuilder7AddMeasIN8opendnp318BinaryOutputStatusEEERS0_RKT_tNS2_9EventModeEEUlRNS2_14IUpdateHandlerEE_, %object
	.size	_ZTIZN8asiodnp313UpdateBuilder7AddMeasIN8opendnp318BinaryOutputStatusEEERS0_RKT_tNS2_9EventModeEEUlRNS2_14IUpdateHandlerEE_, 16
_ZTIZN8asiodnp313UpdateBuilder7AddMeasIN8opendnp318BinaryOutputStatusEEERS0_RKT_tNS2_9EventModeEEUlRNS2_14IUpdateHandlerEE_:
	.xword	_ZTVN10__cxxabiv117__class_type_infoE+16
	.xword	_ZTSZN8asiodnp313UpdateBuilder7AddMeasIN8opendnp318BinaryOutputStatusEEERS0_RKT_tNS2_9EventModeEEUlRNS2_14IUpdateHandlerEE_
	.weak	_ZTSZN8asiodnp313UpdateBuilder7AddMeasIN8opendnp318AnalogOutputStatusEEERS0_RKT_tNS2_9EventModeEEUlRNS2_14IUpdateHandlerEE_
	.section	.rodata._ZTSZN8asiodnp313UpdateBuilder7AddMeasIN8opendnp318AnalogOutputStatusEEERS0_RKT_tNS2_9EventModeEEUlRNS2_14IUpdateHandlerEE_,"aG",@progbits,_ZTSZN8asiodnp313UpdateBuilder7AddMeasIN8opendnp318AnalogOutputStatusEEERS0_RKT_tNS2_9EventModeEEUlRNS2_14IUpdateHandlerEE_,comdat
	.align	3
	.type	_ZTSZN8asiodnp313UpdateBuilder7AddMeasIN8opendnp318AnalogOutputStatusEEERS0_RKT_tNS2_9EventModeEEUlRNS2_14IUpdateHandlerEE_, %object
	.size	_ZTSZN8asiodnp313UpdateBuilder7AddMeasIN8opendnp318AnalogOutputStatusEEERS0_RKT_tNS2_9EventModeEEUlRNS2_14IUpdateHandlerEE_, 120
_ZTSZN8asiodnp313UpdateBuilder7AddMeasIN8opendnp318AnalogOutputStatusEEERS0_RKT_tNS2_9EventModeEEUlRNS2_14IUpdateHandlerEE_:
	.string	"ZN8asiodnp313UpdateBuilder7AddMeasIN8opendnp318AnalogOutputStatusEEERS0_RKT_tNS2_9EventModeEEUlRNS2_14IUpdateHandlerEE_"
	.weak	_ZTIZN8asiodnp313UpdateBuilder7AddMeasIN8opendnp318AnalogOutputStatusEEERS0_RKT_tNS2_9EventModeEEUlRNS2_14IUpdateHandlerEE_
	.section	.data.rel.ro._ZTIZN8asiodnp313UpdateBuilder7AddMeasIN8opendnp318AnalogOutputStatusEEERS0_RKT_tNS2_9EventModeEEUlRNS2_14IUpdateHandlerEE_,"awG",@progbits,_ZTIZN8asiodnp313UpdateBuilder7AddMeasIN8opendnp318AnalogOutputStatusEEERS0_RKT_tNS2_9EventModeEEUlRNS2_14IUpdateHandlerEE_,comdat
	.align	3
	.type	_ZTIZN8asiodnp313UpdateBuilder7AddMeasIN8opendnp318AnalogOutputStatusEEERS0_RKT_tNS2_9EventModeEEUlRNS2_14IUpdateHandlerEE_, %object
	.size	_ZTIZN8asiodnp313UpdateBuilder7AddMeasIN8opendnp318AnalogOutputStatusEEERS0_RKT_tNS2_9EventModeEEUlRNS2_14IUpdateHandlerEE_, 16
_ZTIZN8asiodnp313UpdateBuilder7AddMeasIN8opendnp318AnalogOutputStatusEEERS0_RKT_tNS2_9EventModeEEUlRNS2_14IUpdateHandlerEE_:
	.xword	_ZTVN10__cxxabiv117__class_type_infoE+16
	.xword	_ZTSZN8asiodnp313UpdateBuilder7AddMeasIN8opendnp318AnalogOutputStatusEEERS0_RKT_tNS2_9EventModeEEUlRNS2_14IUpdateHandlerEE_
	.weak	_ZTSSt23_Sp_counted_ptr_inplaceISt6vectorISt8functionIFvRN8opendnp314IUpdateHandlerEEESaIS6_EESaIS8_ELN9__gnu_cxx12_Lock_policyE2EE
	.section	.rodata._ZTSSt23_Sp_counted_ptr_inplaceISt6vectorISt8functionIFvRN8opendnp314IUpdateHandlerEEESaIS6_EESaIS8_ELN9__gnu_cxx12_Lock_policyE2EE,"aG",@progbits,_ZTSSt23_Sp_counted_ptr_inplaceISt6vectorISt8functionIFvRN8opendnp314IUpdateHandlerEEESaIS6_EESaIS8_ELN9__gnu_cxx12_Lock_policyE2EE,comdat
	.align	3
	.type	_ZTSSt23_Sp_counted_ptr_inplaceISt6vectorISt8functionIFvRN8opendnp314IUpdateHandlerEEESaIS6_EESaIS8_ELN9__gnu_cxx12_Lock_policyE2EE, %object
	.size	_ZTSSt23_Sp_counted_ptr_inplaceISt6vectorISt8functionIFvRN8opendnp314IUpdateHandlerEEESaIS6_EESaIS8_ELN9__gnu_cxx12_Lock_policyE2EE, 128
_ZTSSt23_Sp_counted_ptr_inplaceISt6vectorISt8functionIFvRN8opendnp314IUpdateHandlerEEESaIS6_EESaIS8_ELN9__gnu_cxx12_Lock_policyE2EE:
	.string	"St23_Sp_counted_ptr_inplaceISt6vectorISt8functionIFvRN8opendnp314IUpdateHandlerEEESaIS6_EESaIS8_ELN9__gnu_cxx12_Lock_policyE2EE"
	.weak	_ZTISt23_Sp_counted_ptr_inplaceISt6vectorISt8functionIFvRN8opendnp314IUpdateHandlerEEESaIS6_EESaIS8_ELN9__gnu_cxx12_Lock_policyE2EE
	.section	.data.rel.ro._ZTISt23_Sp_counted_ptr_inplaceISt6vectorISt8functionIFvRN8opendnp314IUpdateHandlerEEESaIS6_EESaIS8_ELN9__gnu_cxx12_Lock_policyE2EE,"awG",@progbits,_ZTISt23_Sp_counted_ptr_inplaceISt6vectorISt8functionIFvRN8opendnp314IUpdateHandlerEEESaIS6_EESaIS8_ELN9__gnu_cxx12_Lock_policyE2EE,comdat
	.align	3
	.type	_ZTISt23_Sp_counted_ptr_inplaceISt6vectorISt8functionIFvRN8opendnp314IUpdateHandlerEEESaIS6_EESaIS8_ELN9__gnu_cxx12_Lock_policyE2EE, %object
	.size	_ZTISt23_Sp_counted_ptr_inplaceISt6vectorISt8functionIFvRN8opendnp314IUpdateHandlerEEESaIS6_EESaIS8_ELN9__gnu_cxx12_Lock_policyE2EE, 24
_ZTISt23_Sp_counted_ptr_inplaceISt6vectorISt8functionIFvRN8opendnp314IUpdateHandlerEEESaIS6_EESaIS8_ELN9__gnu_cxx12_Lock_policyE2EE:
	.xword	_ZTVN10__cxxabiv120__si_class_type_infoE+16
	.xword	_ZTSSt23_Sp_counted_ptr_inplaceISt6vectorISt8functionIFvRN8opendnp314IUpdateHandlerEEESaIS6_EESaIS8_ELN9__gnu_cxx12_Lock_policyE2EE
	.xword	_ZTISt16_Sp_counted_baseILN9__gnu_cxx12_Lock_policyE2EE
	.weak	_ZTVSt23_Sp_counted_ptr_inplaceISt6vectorISt8functionIFvRN8opendnp314IUpdateHandlerEEESaIS6_EESaIS8_ELN9__gnu_cxx12_Lock_policyE2EE
	.section	.data.rel.ro._ZTVSt23_Sp_counted_ptr_inplaceISt6vectorISt8functionIFvRN8opendnp314IUpdateHandlerEEESaIS6_EESaIS8_ELN9__gnu_cxx12_Lock_policyE2EE,"awG",@progbits,_ZTVSt23_Sp_counted_ptr_inplaceISt6vectorISt8functionIFvRN8opendnp314IUpdateHandlerEEESaIS6_EESaIS8_ELN9__gnu_cxx12_Lock_policyE2EE,comdat
	.align	3
	.type	_ZTVSt23_Sp_counted_ptr_inplaceISt6vectorISt8functionIFvRN8opendnp314IUpdateHandlerEEESaIS6_EESaIS8_ELN9__gnu_cxx12_Lock_policyE2EE, %object
	.size	_ZTVSt23_Sp_counted_ptr_inplaceISt6vectorISt8functionIFvRN8opendnp314IUpdateHandlerEEESaIS6_EESaIS8_ELN9__gnu_cxx12_Lock_policyE2EE, 56
_ZTVSt23_Sp_counted_ptr_inplaceISt6vectorISt8functionIFvRN8opendnp314IUpdateHandlerEEESaIS6_EESaIS8_ELN9__gnu_cxx12_Lock_policyE2EE:
	.xword	0
	.xword	_ZTISt23_Sp_counted_ptr_inplaceISt6vectorISt8functionIFvRN8opendnp314IUpdateHandlerEEESaIS6_EESaIS8_ELN9__gnu_cxx12_Lock_policyE2EE
	.xword	_ZNSt23_Sp_counted_ptr_inplaceISt6vectorISt8functionIFvRN8opendnp314IUpdateHandlerEEESaIS6_EESaIS8_ELN9__gnu_cxx12_Lock_policyE2EED1Ev
	.xword	_ZNSt23_Sp_counted_ptr_inplaceISt6vectorISt8functionIFvRN8opendnp314IUpdateHandlerEEESaIS6_EESaIS8_ELN9__gnu_cxx12_Lock_policyE2EED0Ev
	.xword	_ZNSt23_Sp_counted_ptr_inplaceISt6vectorISt8functionIFvRN8opendnp314IUpdateHandlerEEESaIS6_EESaIS8_ELN9__gnu_cxx12_Lock_policyE2EE10_M_disposeEv
	.xword	_ZNSt23_Sp_counted_ptr_inplaceISt6vectorISt8functionIFvRN8opendnp314IUpdateHandlerEEESaIS6_EESaIS8_ELN9__gnu_cxx12_Lock_policyE2EE10_M_destroyEv
	.xword	_ZNSt23_Sp_counted_ptr_inplaceISt6vectorISt8functionIFvRN8opendnp314IUpdateHandlerEEESaIS6_EESaIS8_ELN9__gnu_cxx12_Lock_policyE2EE14_M_get_deleterERKSt9type_info
	.weak	_ZZNSt19_Sp_make_shared_tag5_S_tiEvE5__tag
	.section	.rodata._ZZNSt19_Sp_make_shared_tag5_S_tiEvE5__tag,"aG",@progbits,_ZZNSt19_Sp_make_shared_tag5_S_tiEvE5__tag,comdat
	.align	3
	.type	_ZZNSt19_Sp_make_shared_tag5_S_tiEvE5__tag, %gnu_unique_object
	.size	_ZZNSt19_Sp_make_shared_tag5_S_tiEvE5__tag, 16
_ZZNSt19_Sp_make_shared_tag5_S_tiEvE5__tag:
	.zero	16
	.section	.rodata
	.align	3
	.type	_ZTSZN8asiodnp313UpdateBuilder6UpdateERKN8opendnp315TimeAndIntervalEtEUlRNS1_14IUpdateHandlerEE_, %object
	.size	_ZTSZN8asiodnp313UpdateBuilder6UpdateERKN8opendnp315TimeAndIntervalEtEUlRNS1_14IUpdateHandlerEE_, 94
_ZTSZN8asiodnp313UpdateBuilder6UpdateERKN8opendnp315TimeAndIntervalEtEUlRNS1_14IUpdateHandlerEE_:
	.string	"*ZN8asiodnp313UpdateBuilder6UpdateERKN8opendnp315TimeAndIntervalEtEUlRNS1_14IUpdateHandlerEE_"
	.zero	2
	.type	_ZTSZN8asiodnp313UpdateBuilder6ModifyEN8opendnp39FlagsTypeEtthEUlRNS1_14IUpdateHandlerEE_, %object
	.size	_ZTSZN8asiodnp313UpdateBuilder6ModifyEN8opendnp39FlagsTypeEtthEUlRNS1_14IUpdateHandlerEE_, 87
_ZTSZN8asiodnp313UpdateBuilder6ModifyEN8opendnp39FlagsTypeEtthEUlRNS1_14IUpdateHandlerEE_:
	.string	"*ZN8asiodnp313UpdateBuilder6ModifyEN8opendnp39FlagsTypeEtthEUlRNS1_14IUpdateHandlerEE_"
	.section	.data.rel.ro,"aw"
	.align	3
	.set	.LANCHOR0,. + 0
	.type	_ZTIZN8asiodnp313UpdateBuilder6ModifyEN8opendnp39FlagsTypeEtthEUlRNS1_14IUpdateHandlerEE_, %object
	.size	_ZTIZN8asiodnp313UpdateBuilder6ModifyEN8opendnp39FlagsTypeEtthEUlRNS1_14IUpdateHandlerEE_, 16
_ZTIZN8asiodnp313UpdateBuilder6ModifyEN8opendnp39FlagsTypeEtthEUlRNS1_14IUpdateHandlerEE_:
	.xword	_ZTVN10__cxxabiv117__class_type_infoE+16
	.xword	_ZTSZN8asiodnp313UpdateBuilder6ModifyEN8opendnp39FlagsTypeEtthEUlRNS1_14IUpdateHandlerEE_
	.type	_ZTIZN8asiodnp313UpdateBuilder6UpdateERKN8opendnp315TimeAndIntervalEtEUlRNS1_14IUpdateHandlerEE_, %object
	.size	_ZTIZN8asiodnp313UpdateBuilder6UpdateERKN8opendnp315TimeAndIntervalEtEUlRNS1_14IUpdateHandlerEE_, 16
_ZTIZN8asiodnp313UpdateBuilder6UpdateERKN8opendnp315TimeAndIntervalEtEUlRNS1_14IUpdateHandlerEE_:
	.xword	_ZTVN10__cxxabiv117__class_type_infoE+16
	.xword	_ZTSZN8asiodnp313UpdateBuilder6UpdateERKN8opendnp315TimeAndIntervalEtEUlRNS1_14IUpdateHandlerEE_
	.hidden	DW.ref.__gxx_personality_v0
	.weak	DW.ref.__gxx_personality_v0
	.section	.data.rel.local.DW.ref.__gxx_personality_v0,"awG",@progbits,DW.ref.__gxx_personality_v0,comdat
	.align	3
	.type	DW.ref.__gxx_personality_v0, %object
	.size	DW.ref.__gxx_personality_v0, 8
DW.ref.__gxx_personality_v0:
	.xword	__gxx_personality_v0
	.ident	"GCC: (Ubuntu 11.4.0-1ubuntu1~22.04) 11.4.0"
	.section	.note.GNU-stack,"",@progbits
