	.arch armv8-a
	.file	"Executor.cpp"
	.text
	.section	.rodata._ZNK4asio6detail15system_category4nameEv.str1.8,"aMS",@progbits,1
	.align	3
.LC0:
	.string	"asio.system"
	.section	.text._ZNK4asio6detail15system_category4nameEv,"axG",@progbits,_ZNK4asio6detail15system_category4nameEv,comdat
	.align	2
	.p2align 4,,11
	.weak	_ZNK4asio6detail15system_category4nameEv
	.type	_ZNK4asio6detail15system_category4nameEv, %function
_ZNK4asio6detail15system_category4nameEv:
.LFB2268:
	.cfi_startproc
	adrp	x0, .LC0
	add	x0, x0, :lo12:.LC0
	ret
	.cfi_endproc
.LFE2268:
	.size	_ZNK4asio6detail15system_category4nameEv, .-_ZNK4asio6detail15system_category4nameEv
	.section	.rodata._ZNK4asio5error6detail14netdb_category4nameEv.str1.8,"aMS",@progbits,1
	.align	3
.LC1:
	.string	"asio.netdb"
	.section	.text._ZNK4asio5error6detail14netdb_category4nameEv,"axG",@progbits,_ZNK4asio5error6detail14netdb_category4nameEv,comdat
	.align	2
	.p2align 4,,11
	.weak	_ZNK4asio5error6detail14netdb_category4nameEv
	.type	_ZNK4asio5error6detail14netdb_category4nameEv, %function
_ZNK4asio5error6detail14netdb_category4nameEv:
.LFB2289:
	.cfi_startproc
	adrp	x0, .LC1
	add	x0, x0, :lo12:.LC1
	ret
	.cfi_endproc
.LFE2289:
	.size	_ZNK4asio5error6detail14netdb_category4nameEv, .-_ZNK4asio5error6detail14netdb_category4nameEv
	.section	.rodata._ZNK4asio5error6detail17addrinfo_category4nameEv.str1.8,"aMS",@progbits,1
	.align	3
.LC2:
	.string	"asio.addrinfo"
	.section	.text._ZNK4asio5error6detail17addrinfo_category4nameEv,"axG",@progbits,_ZNK4asio5error6detail17addrinfo_category4nameEv,comdat
	.align	2
	.p2align 4,,11
	.weak	_ZNK4asio5error6detail17addrinfo_category4nameEv
	.type	_ZNK4asio5error6detail17addrinfo_category4nameEv, %function
_ZNK4asio5error6detail17addrinfo_category4nameEv:
.LFB2295:
	.cfi_startproc
	adrp	x0, .LC2
	add	x0, x0, :lo12:.LC2
	ret
	.cfi_endproc
.LFE2295:
	.size	_ZNK4asio5error6detail17addrinfo_category4nameEv, .-_ZNK4asio5error6detail17addrinfo_category4nameEv
	.section	.rodata._ZNK4asio5error6detail13misc_category4nameEv.str1.8,"aMS",@progbits,1
	.align	3
.LC3:
	.string	"asio.misc"
	.section	.text._ZNK4asio5error6detail13misc_category4nameEv,"axG",@progbits,_ZNK4asio5error6detail13misc_category4nameEv,comdat
	.align	2
	.p2align 4,,11
	.weak	_ZNK4asio5error6detail13misc_category4nameEv
	.type	_ZNK4asio5error6detail13misc_category4nameEv, %function
_ZNK4asio5error6detail13misc_category4nameEv:
.LFB2301:
	.cfi_startproc
	adrp	x0, .LC3
	add	x0, x0, :lo12:.LC3
	ret
	.cfi_endproc
.LFE2301:
	.size	_ZNK4asio5error6detail13misc_category4nameEv, .-_ZNK4asio5error6detail13misc_category4nameEv
	.section	.text._ZN4asio10io_service7service12fork_serviceENS0_10fork_eventE,"axG",@progbits,_ZN4asio10io_service7service12fork_serviceENS0_10fork_eventE,comdat
	.align	2
	.p2align 4,,11
	.weak	_ZN4asio10io_service7service12fork_serviceENS0_10fork_eventE
	.type	_ZN4asio10io_service7service12fork_serviceENS0_10fork_eventE, %function
_ZN4asio10io_service7service12fork_serviceENS0_10fork_eventE:
.LFB3417:
	.cfi_startproc
	ret
	.cfi_endproc
.LFE3417:
	.size	_ZN4asio10io_service7service12fork_serviceENS0_10fork_eventE, .-_ZN4asio10io_service7service12fork_serviceENS0_10fork_eventE
	.section	.text._ZNSt13__future_base13_State_baseV217_M_complete_asyncEv,"axG",@progbits,_ZNSt13__future_base13_State_baseV217_M_complete_asyncEv,comdat
	.align	2
	.p2align 4,,11
	.weak	_ZNSt13__future_base13_State_baseV217_M_complete_asyncEv
	.type	_ZNSt13__future_base13_State_baseV217_M_complete_asyncEv, %function
_ZNSt13__future_base13_State_baseV217_M_complete_asyncEv:
.LFB6732:
	.cfi_startproc
	ret
	.cfi_endproc
.LFE6732:
	.size	_ZNSt13__future_base13_State_baseV217_M_complete_asyncEv, .-_ZNSt13__future_base13_State_baseV217_M_complete_asyncEv
	.section	.text._ZNKSt13__future_base13_State_baseV221_M_is_deferred_futureEv,"axG",@progbits,_ZNKSt13__future_base13_State_baseV221_M_is_deferred_futureEv,comdat
	.align	2
	.p2align 4,,11
	.weak	_ZNKSt13__future_base13_State_baseV221_M_is_deferred_futureEv
	.type	_ZNKSt13__future_base13_State_baseV221_M_is_deferred_futureEv, %function
_ZNKSt13__future_base13_State_baseV221_M_is_deferred_futureEv:
.LFB6733:
	.cfi_startproc
	mov	w0, 0
	ret
	.cfi_endproc
.LFE6733:
	.size	_ZNKSt13__future_base13_State_baseV221_M_is_deferred_futureEv, .-_ZNKSt13__future_base13_State_baseV221_M_is_deferred_futureEv
	.section	.text._ZZNSt9once_flag18_Prepare_executionC4IZSt9call_onceIMNSt13__future_base13_State_baseV2EFvPSt8functionIFSt10unique_ptrINS3_12_Result_baseENS7_8_DeleterEEvEEPbEJPS4_SC_SD_EEvRS_OT_DpOT0_EUlvE_EERSI_ENUlvE_4_FUNEv,"axG",@progbits,_ZZNSt9once_flag18_Prepare_executionC4IZSt9call_onceIMNSt13__future_base13_State_baseV2EFvPSt8functionIFSt10unique_ptrINS3_12_Result_baseENS7_8_DeleterEEvEEPbEJPS4_SC_SD_EEvRS_OT_DpOT0_EUlvE_EERSI_ENUlvE_4_FUNEv,comdat
	.align	2
	.p2align 4,,11
	.weak	_ZZNSt9once_flag18_Prepare_executionC4IZSt9call_onceIMNSt13__future_base13_State_baseV2EFvPSt8functionIFSt10unique_ptrINS3_12_Result_baseENS7_8_DeleterEEvEEPbEJPS4_SC_SD_EEvRS_OT_DpOT0_EUlvE_EERSI_ENUlvE_4_FUNEv
	.type	_ZZNSt9once_flag18_Prepare_executionC4IZSt9call_onceIMNSt13__future_base13_State_baseV2EFvPSt8functionIFSt10unique_ptrINS3_12_Result_baseENS7_8_DeleterEEvEEPbEJPS4_SC_SD_EEvRS_OT_DpOT0_EUlvE_EERSI_ENUlvE_4_FUNEv, %function
_ZZNSt9once_flag18_Prepare_executionC4IZSt9call_onceIMNSt13__future_base13_State_baseV2EFvPSt8functionIFSt10unique_ptrINS3_12_Result_baseENS7_8_DeleterEEvEEPbEJPS4_SC_SD_EEvRS_OT_DpOT0_EUlvE_EERSI_ENUlvE_4_FUNEv:
.LFB8150:
	.cfi_startproc
	mrs	x1, tpidr_el0
	stp	x29, x30, [sp, -16]!
	.cfi_def_cfa_offset 16
	.cfi_offset 29, -16
	.cfi_offset 30, -8
	mov	x29, sp
	adrp	x0, :tlsdesc:_ZSt15__once_callable
	ldr	x2, [x0, #:tlsdesc_lo12:_ZSt15__once_callable]
	add	x0, x0, :tlsdesc_lo12:_ZSt15__once_callable
	.tlsdesccall	_ZSt15__once_callable
	blr	x2
	ldr	x1, [x1, x0]
	ldp	x3, x0, [x1]
	ldp	x6, x1, [x1, 16]
	ldr	x2, [x3, 8]
	ldr	x5, [x0]
	asr	x4, x2, 1
	add	x0, x5, x4
	ldr	x3, [x3]
	tbz	x2, 0, .L10
	ldr	x2, [x5, x4]
	ldr	x3, [x2, x3]
.L10:
	mov	x16, x3
	ldp	x29, x30, [sp], 16
	.cfi_restore 30
	.cfi_restore 29
	.cfi_def_cfa_offset 0
	ldr	x2, [x1]
	ldr	x1, [x6]
	br	x16
	.cfi_endproc
.LFE8150:
	.size	_ZZNSt9once_flag18_Prepare_executionC4IZSt9call_onceIMNSt13__future_base13_State_baseV2EFvPSt8functionIFSt10unique_ptrINS3_12_Result_baseENS7_8_DeleterEEvEEPbEJPS4_SC_SD_EEvRS_OT_DpOT0_EUlvE_EERSI_ENUlvE_4_FUNEv, .-_ZZNSt9once_flag18_Prepare_executionC4IZSt9call_onceIMNSt13__future_base13_State_baseV2EFvPSt8functionIFSt10unique_ptrINS3_12_Result_baseENS7_8_DeleterEEvEEPbEJPS4_SC_SD_EEvRS_OT_DpOT0_EUlvE_EERSI_ENUlvE_4_FUNEv
	.section	.text._ZNSt15__exception_ptr12__dest_thunkISt12future_errorEEvPv,"axG",@progbits,_ZNSt15__exception_ptr12__dest_thunkISt12future_errorEEvPv,comdat
	.align	2
	.p2align 4,,11
	.weak	_ZNSt15__exception_ptr12__dest_thunkISt12future_errorEEvPv
	.type	_ZNSt15__exception_ptr12__dest_thunkISt12future_errorEEvPv, %function
_ZNSt15__exception_ptr12__dest_thunkISt12future_errorEEvPv:
.LFB8170:
	.cfi_startproc
	ldr	x1, [x0]
	ldr	x1, [x1]
	mov	x16, x1
	br	x16
	.cfi_endproc
.LFE8170:
	.size	_ZNSt15__exception_ptr12__dest_thunkISt12future_errorEEvPv, .-_ZNSt15__exception_ptr12__dest_thunkISt12future_errorEEvPv
	.text
	.align	2
	.p2align 4,,11
	.type	_ZNSt17_Function_handlerIFvvEZN7asiopal8Executor18BlockUntilAndFlushERKSt8functionIS0_EEUlvE_E9_M_invokeERKSt9_Any_data, %function
_ZNSt17_Function_handlerIFvvEZN7asiopal8Executor18BlockUntilAndFlushERKSt8functionIS0_EEUlvE_E9_M_invokeERKSt9_Any_data:
.LFB8314:
	.cfi_startproc
	ret
	.cfi_endproc
.LFE8314:
	.size	_ZNSt17_Function_handlerIFvvEZN7asiopal8Executor18BlockUntilAndFlushERKSt8functionIS0_EEUlvE_E9_M_invokeERKSt9_Any_data, .-_ZNSt17_Function_handlerIFvvEZN7asiopal8Executor18BlockUntilAndFlushERKSt8functionIS0_EEUlvE_E9_M_invokeERKSt9_Any_data
	.align	2
	.p2align 4,,11
	.type	_ZNSt17_Function_handlerIFvvEZN7asiopal8Executor18BlockUntilAndFlushERKSt8functionIS0_EEUlvE_E10_M_managerERSt9_Any_dataRKS9_St18_Manager_operation, %function
_ZNSt17_Function_handlerIFvvEZN7asiopal8Executor18BlockUntilAndFlushERKSt8functionIS0_EEUlvE_E10_M_managerERSt9_Any_dataRKS9_St18_Manager_operation:
.LFB8315:
	.cfi_startproc
	cbz	w2, .L18
	cmp	w2, 1
	bne	.L20
	str	x1, [x0]
.L20:
	mov	w0, 0
	ret
	.p2align 2,,3
.L18:
	adrp	x1, .LANCHOR0
	add	x1, x1, :lo12:.LANCHOR0
	str	x1, [x0]
	mov	w0, 0
	ret
	.cfi_endproc
.LFE8315:
	.size	_ZNSt17_Function_handlerIFvvEZN7asiopal8Executor18BlockUntilAndFlushERKSt8functionIS0_EEUlvE_E10_M_managerERSt9_Any_dataRKS9_St18_Manager_operation, .-_ZNSt17_Function_handlerIFvvEZN7asiopal8Executor18BlockUntilAndFlushERKSt8functionIS0_EEUlvE_E10_M_managerERSt9_Any_dataRKS9_St18_Manager_operation
	.section	.text._ZNSt17_Function_handlerIFSt10unique_ptrINSt13__future_base12_Result_baseENS2_8_DeleterEEvENS1_13_State_baseV27_SetterIbObEEE9_M_invokeERKSt9_Any_data,"axG",@progbits,_ZNSt17_Function_handlerIFSt10unique_ptrINSt13__future_base12_Result_baseENS2_8_DeleterEEvENS1_13_State_baseV27_SetterIbObEEE9_M_invokeERKSt9_Any_data,comdat
	.align	2
	.p2align 4,,11
	.weak	_ZNSt17_Function_handlerIFSt10unique_ptrINSt13__future_base12_Result_baseENS2_8_DeleterEEvENS1_13_State_baseV27_SetterIbObEEE9_M_invokeERKSt9_Any_data
	.type	_ZNSt17_Function_handlerIFSt10unique_ptrINSt13__future_base12_Result_baseENS2_8_DeleterEEvENS1_13_State_baseV27_SetterIbObEEE9_M_invokeERKSt9_Any_data, %function
_ZNSt17_Function_handlerIFSt10unique_ptrINSt13__future_base12_Result_baseENS2_8_DeleterEEvENS1_13_State_baseV27_SetterIbObEEE9_M_invokeERKSt9_Any_data:
.LFB8571:
	.cfi_startproc
	mov	x1, x0
	mov	w3, 1
	mov	x0, x8
	ldp	x2, x4, [x1]
	ldr	x1, [x2, 16]
	ldrb	w4, [x4]
	strb	w4, [x1, 16]
	strb	w3, [x1, 17]
	str	xzr, [x2, 16]
	str	x1, [x8]
	ret
	.cfi_endproc
.LFE8571:
	.size	_ZNSt17_Function_handlerIFSt10unique_ptrINSt13__future_base12_Result_baseENS2_8_DeleterEEvENS1_13_State_baseV27_SetterIbObEEE9_M_invokeERKSt9_Any_data, .-_ZNSt17_Function_handlerIFSt10unique_ptrINSt13__future_base12_Result_baseENS2_8_DeleterEEvENS1_13_State_baseV27_SetterIbObEEE9_M_invokeERKSt9_Any_data
	.section	.text._ZNSt13__future_base13_State_baseV2D2Ev,"axG",@progbits,_ZNSt13__future_base13_State_baseV2D5Ev,comdat
	.align	2
	.p2align 4,,11
	.weak	_ZNSt13__future_base13_State_baseV2D2Ev
	.type	_ZNSt13__future_base13_State_baseV2D2Ev, %function
_ZNSt13__future_base13_State_baseV2D2Ev:
.LFB9457:
	.cfi_startproc
	.cfi_personality 0x9b,DW.ref.__gxx_personality_v0
	.cfi_lsda 0x1b,.LLSDA9457
	adrp	x1, :got:_ZTVNSt13__future_base13_State_baseV2E
	mov	x2, x0
	ldr	x0, [x0, 8]
	ldr	x1, [x1, #:got_lo12:_ZTVNSt13__future_base13_State_baseV2E]
	add	x1, x1, 16
	str	x1, [x2]
	cbz	x0, .L28
	stp	x29, x30, [sp, -16]!
	.cfi_def_cfa_offset 16
	.cfi_offset 29, -16
	.cfi_offset 30, -8
	mov	x29, sp
	ldr	x1, [x0]
	ldr	x1, [x1]
	blr	x1
	ldp	x29, x30, [sp], 16
	.cfi_restore 30
	.cfi_restore 29
	.cfi_def_cfa_offset 0
	ret
	.p2align 2,,3
.L28:
	ret
	.cfi_endproc
.LFE9457:
	.global	__gxx_personality_v0
	.section	.gcc_except_table._ZNSt13__future_base13_State_baseV2D2Ev,"aG",@progbits,_ZNSt13__future_base13_State_baseV2D5Ev,comdat
.LLSDA9457:
	.byte	0xff
	.byte	0xff
	.byte	0x1
	.uleb128 .LLSDACSE9457-.LLSDACSB9457
.LLSDACSB9457:
.LLSDACSE9457:
	.section	.text._ZNSt13__future_base13_State_baseV2D2Ev,"axG",@progbits,_ZNSt13__future_base13_State_baseV2D5Ev,comdat
	.size	_ZNSt13__future_base13_State_baseV2D2Ev, .-_ZNSt13__future_base13_State_baseV2D2Ev
	.weak	_ZNSt13__future_base13_State_baseV2D1Ev
	.set	_ZNSt13__future_base13_State_baseV2D1Ev,_ZNSt13__future_base13_State_baseV2D2Ev
	.section	.text._ZN4asio6detail10service_idINS0_13epoll_reactorEED2Ev,"axG",@progbits,_ZN4asio6detail10service_idINS0_13epoll_reactorEED5Ev,comdat
	.align	2
	.p2align 4,,11
	.weak	_ZN4asio6detail10service_idINS0_13epoll_reactorEED2Ev
	.type	_ZN4asio6detail10service_idINS0_13epoll_reactorEED2Ev, %function
_ZN4asio6detail10service_idINS0_13epoll_reactorEED2Ev:
.LFB9525:
	.cfi_startproc
	ret
	.cfi_endproc
.LFE9525:
	.size	_ZN4asio6detail10service_idINS0_13epoll_reactorEED2Ev, .-_ZN4asio6detail10service_idINS0_13epoll_reactorEED2Ev
	.weak	_ZN4asio6detail10service_idINS0_13epoll_reactorEED1Ev
	.set	_ZN4asio6detail10service_idINS0_13epoll_reactorEED1Ev,_ZN4asio6detail10service_idINS0_13epoll_reactorEED2Ev
	.section	.text._ZN4asio6detail10service_idINS0_15task_io_serviceEED2Ev,"axG",@progbits,_ZN4asio6detail10service_idINS0_15task_io_serviceEED5Ev,comdat
	.align	2
	.p2align 4,,11
	.weak	_ZN4asio6detail10service_idINS0_15task_io_serviceEED2Ev
	.type	_ZN4asio6detail10service_idINS0_15task_io_serviceEED2Ev, %function
_ZN4asio6detail10service_idINS0_15task_io_serviceEED2Ev:
.LFB9528:
	.cfi_startproc
	ret
	.cfi_endproc
.LFE9528:
	.size	_ZN4asio6detail10service_idINS0_15task_io_serviceEED2Ev, .-_ZN4asio6detail10service_idINS0_15task_io_serviceEED2Ev
	.weak	_ZN4asio6detail10service_idINS0_15task_io_serviceEED1Ev
	.set	_ZN4asio6detail10service_idINS0_15task_io_serviceEED1Ev,_ZN4asio6detail10service_idINS0_15task_io_serviceEED2Ev
	.section	.text._ZN4asio6detail10service_idINS0_14strand_serviceEED2Ev,"axG",@progbits,_ZN4asio6detail10service_idINS0_14strand_serviceEED5Ev,comdat
	.align	2
	.p2align 4,,11
	.weak	_ZN4asio6detail10service_idINS0_14strand_serviceEED2Ev
	.type	_ZN4asio6detail10service_idINS0_14strand_serviceEED2Ev, %function
_ZN4asio6detail10service_idINS0_14strand_serviceEED2Ev:
.LFB9534:
	.cfi_startproc
	ret
	.cfi_endproc
.LFE9534:
	.size	_ZN4asio6detail10service_idINS0_14strand_serviceEED2Ev, .-_ZN4asio6detail10service_idINS0_14strand_serviceEED2Ev
	.weak	_ZN4asio6detail10service_idINS0_14strand_serviceEED1Ev
	.set	_ZN4asio6detail10service_idINS0_14strand_serviceEED1Ev,_ZN4asio6detail10service_idINS0_14strand_serviceEED2Ev
	.section	.text._ZNSt23_Sp_counted_ptr_inplaceIN7asiopal5TimerESaIS1_ELN9__gnu_cxx12_Lock_policyE2EED2Ev,"axG",@progbits,_ZNSt23_Sp_counted_ptr_inplaceIN7asiopal5TimerESaIS1_ELN9__gnu_cxx12_Lock_policyE2EED5Ev,comdat
	.align	2
	.p2align 4,,11
	.weak	_ZNSt23_Sp_counted_ptr_inplaceIN7asiopal5TimerESaIS1_ELN9__gnu_cxx12_Lock_policyE2EED2Ev
	.type	_ZNSt23_Sp_counted_ptr_inplaceIN7asiopal5TimerESaIS1_ELN9__gnu_cxx12_Lock_policyE2EED2Ev, %function
_ZNSt23_Sp_counted_ptr_inplaceIN7asiopal5TimerESaIS1_ELN9__gnu_cxx12_Lock_policyE2EED2Ev:
.LFB9537:
	.cfi_startproc
	ret
	.cfi_endproc
.LFE9537:
	.size	_ZNSt23_Sp_counted_ptr_inplaceIN7asiopal5TimerESaIS1_ELN9__gnu_cxx12_Lock_policyE2EED2Ev, .-_ZNSt23_Sp_counted_ptr_inplaceIN7asiopal5TimerESaIS1_ELN9__gnu_cxx12_Lock_policyE2EED2Ev
	.weak	_ZNSt23_Sp_counted_ptr_inplaceIN7asiopal5TimerESaIS1_ELN9__gnu_cxx12_Lock_policyE2EED1Ev
	.set	_ZNSt23_Sp_counted_ptr_inplaceIN7asiopal5TimerESaIS1_ELN9__gnu_cxx12_Lock_policyE2EED1Ev,_ZNSt23_Sp_counted_ptr_inplaceIN7asiopal5TimerESaIS1_ELN9__gnu_cxx12_Lock_policyE2EED2Ev
	.section	.text._ZNSt23_Sp_counted_ptr_inplaceINSt13__future_base13_State_baseV2ESaIS1_ELN9__gnu_cxx12_Lock_policyE2EED2Ev,"axG",@progbits,_ZNSt23_Sp_counted_ptr_inplaceINSt13__future_base13_State_baseV2ESaIS1_ELN9__gnu_cxx12_Lock_policyE2EED5Ev,comdat
	.align	2
	.p2align 4,,11
	.weak	_ZNSt23_Sp_counted_ptr_inplaceINSt13__future_base13_State_baseV2ESaIS1_ELN9__gnu_cxx12_Lock_policyE2EED2Ev
	.type	_ZNSt23_Sp_counted_ptr_inplaceINSt13__future_base13_State_baseV2ESaIS1_ELN9__gnu_cxx12_Lock_policyE2EED2Ev, %function
_ZNSt23_Sp_counted_ptr_inplaceINSt13__future_base13_State_baseV2ESaIS1_ELN9__gnu_cxx12_Lock_policyE2EED2Ev:
.LFB9551:
	.cfi_startproc
	ret
	.cfi_endproc
.LFE9551:
	.size	_ZNSt23_Sp_counted_ptr_inplaceINSt13__future_base13_State_baseV2ESaIS1_ELN9__gnu_cxx12_Lock_policyE2EED2Ev, .-_ZNSt23_Sp_counted_ptr_inplaceINSt13__future_base13_State_baseV2ESaIS1_ELN9__gnu_cxx12_Lock_policyE2EED2Ev
	.weak	_ZNSt23_Sp_counted_ptr_inplaceINSt13__future_base13_State_baseV2ESaIS1_ELN9__gnu_cxx12_Lock_policyE2EED1Ev
	.set	_ZNSt23_Sp_counted_ptr_inplaceINSt13__future_base13_State_baseV2ESaIS1_ELN9__gnu_cxx12_Lock_policyE2EED1Ev,_ZNSt23_Sp_counted_ptr_inplaceINSt13__future_base13_State_baseV2ESaIS1_ELN9__gnu_cxx12_Lock_policyE2EED2Ev
	.section	.text._ZNSt23_Sp_counted_ptr_inplaceINSt13__future_base13_State_baseV2ESaIS1_ELN9__gnu_cxx12_Lock_policyE2EE10_M_disposeEv,"axG",@progbits,_ZNSt23_Sp_counted_ptr_inplaceINSt13__future_base13_State_baseV2ESaIS1_ELN9__gnu_cxx12_Lock_policyE2EE10_M_disposeEv,comdat
	.align	2
	.p2align 4,,11
	.weak	_ZNSt23_Sp_counted_ptr_inplaceINSt13__future_base13_State_baseV2ESaIS1_ELN9__gnu_cxx12_Lock_policyE2EE10_M_disposeEv
	.type	_ZNSt23_Sp_counted_ptr_inplaceINSt13__future_base13_State_baseV2ESaIS1_ELN9__gnu_cxx12_Lock_policyE2EE10_M_disposeEv, %function
_ZNSt23_Sp_counted_ptr_inplaceINSt13__future_base13_State_baseV2ESaIS1_ELN9__gnu_cxx12_Lock_policyE2EE10_M_disposeEv:
.LFB9554:
	.cfi_startproc
	mov	x1, x0
	add	x0, x0, 16
	ldr	x1, [x1, 16]
	ldr	x1, [x1]
	mov	x16, x1
	br	x16
	.cfi_endproc
.LFE9554:
	.size	_ZNSt23_Sp_counted_ptr_inplaceINSt13__future_base13_State_baseV2ESaIS1_ELN9__gnu_cxx12_Lock_policyE2EE10_M_disposeEv, .-_ZNSt23_Sp_counted_ptr_inplaceINSt13__future_base13_State_baseV2ESaIS1_ELN9__gnu_cxx12_Lock_policyE2EE10_M_disposeEv
	.section	.text._ZNSt13__future_base13_State_baseV2D0Ev,"axG",@progbits,_ZNSt13__future_base13_State_baseV2D5Ev,comdat
	.align	2
	.p2align 4,,11
	.weak	_ZNSt13__future_base13_State_baseV2D0Ev
	.type	_ZNSt13__future_base13_State_baseV2D0Ev, %function
_ZNSt13__future_base13_State_baseV2D0Ev:
.LFB9459:
	.cfi_startproc
	.cfi_personality 0x9b,DW.ref.__gxx_personality_v0
	.cfi_lsda 0x1b,.LLSDA9459
	stp	x29, x30, [sp, -32]!
	.cfi_def_cfa_offset 32
	.cfi_offset 29, -32
	.cfi_offset 30, -24
	adrp	x1, :got:_ZTVNSt13__future_base13_State_baseV2E
	mov	x29, sp
	ldr	x1, [x1, #:got_lo12:_ZTVNSt13__future_base13_State_baseV2E]
	str	x19, [sp, 16]
	.cfi_offset 19, -16
	mov	x19, x0
	ldr	x0, [x0, 8]
	add	x1, x1, 16
	str	x1, [x19]
	cbz	x0, .L38
	ldr	x1, [x0]
	ldr	x1, [x1]
	blr	x1
.L38:
	mov	x0, x19
	mov	x1, 32
	ldr	x19, [sp, 16]
	ldp	x29, x30, [sp], 32
	.cfi_restore 30
	.cfi_restore 29
	.cfi_restore 19
	.cfi_def_cfa_offset 0
	b	_ZdlPvm
	.cfi_endproc
.LFE9459:
	.section	.gcc_except_table._ZNSt13__future_base13_State_baseV2D0Ev,"aG",@progbits,_ZNSt13__future_base13_State_baseV2D5Ev,comdat
.LLSDA9459:
	.byte	0xff
	.byte	0xff
	.byte	0x1
	.uleb128 .LLSDACSE9459-.LLSDACSB9459
.LLSDACSB9459:
.LLSDACSE9459:
	.section	.text._ZNSt13__future_base13_State_baseV2D0Ev,"axG",@progbits,_ZNSt13__future_base13_State_baseV2D5Ev,comdat
	.size	_ZNSt13__future_base13_State_baseV2D0Ev, .-_ZNSt13__future_base13_State_baseV2D0Ev
	.section	.text._ZNSt23_Sp_counted_ptr_inplaceINSt13__future_base13_State_baseV2ESaIS1_ELN9__gnu_cxx12_Lock_policyE2EED0Ev,"axG",@progbits,_ZNSt23_Sp_counted_ptr_inplaceINSt13__future_base13_State_baseV2ESaIS1_ELN9__gnu_cxx12_Lock_policyE2EED5Ev,comdat
	.align	2
	.p2align 4,,11
	.weak	_ZNSt23_Sp_counted_ptr_inplaceINSt13__future_base13_State_baseV2ESaIS1_ELN9__gnu_cxx12_Lock_policyE2EED0Ev
	.type	_ZNSt23_Sp_counted_ptr_inplaceINSt13__future_base13_State_baseV2ESaIS1_ELN9__gnu_cxx12_Lock_policyE2EED0Ev, %function
_ZNSt23_Sp_counted_ptr_inplaceINSt13__future_base13_State_baseV2ESaIS1_ELN9__gnu_cxx12_Lock_policyE2EED0Ev:
.LFB9553:
	.cfi_startproc
	mov	x1, 48
	b	_ZdlPvm
	.cfi_endproc
.LFE9553:
	.size	_ZNSt23_Sp_counted_ptr_inplaceINSt13__future_base13_State_baseV2ESaIS1_ELN9__gnu_cxx12_Lock_policyE2EED0Ev, .-_ZNSt23_Sp_counted_ptr_inplaceINSt13__future_base13_State_baseV2ESaIS1_ELN9__gnu_cxx12_Lock_policyE2EED0Ev
	.section	.text._ZNSt23_Sp_counted_ptr_inplaceIN7asiopal5TimerESaIS1_ELN9__gnu_cxx12_Lock_policyE2EED0Ev,"axG",@progbits,_ZNSt23_Sp_counted_ptr_inplaceIN7asiopal5TimerESaIS1_ELN9__gnu_cxx12_Lock_policyE2EED5Ev,comdat
	.align	2
	.p2align 4,,11
	.weak	_ZNSt23_Sp_counted_ptr_inplaceIN7asiopal5TimerESaIS1_ELN9__gnu_cxx12_Lock_policyE2EED0Ev
	.type	_ZNSt23_Sp_counted_ptr_inplaceIN7asiopal5TimerESaIS1_ELN9__gnu_cxx12_Lock_policyE2EED0Ev, %function
_ZNSt23_Sp_counted_ptr_inplaceIN7asiopal5TimerESaIS1_ELN9__gnu_cxx12_Lock_policyE2EED0Ev:
.LFB9539:
	.cfi_startproc
	mov	x1, 88
	b	_ZdlPvm
	.cfi_endproc
.LFE9539:
	.size	_ZNSt23_Sp_counted_ptr_inplaceIN7asiopal5TimerESaIS1_ELN9__gnu_cxx12_Lock_policyE2EED0Ev, .-_ZNSt23_Sp_counted_ptr_inplaceIN7asiopal5TimerESaIS1_ELN9__gnu_cxx12_Lock_policyE2EED0Ev
	.section	.text._ZNSt23_Sp_counted_ptr_inplaceIN7asiopal5TimerESaIS1_ELN9__gnu_cxx12_Lock_policyE2EE10_M_destroyEv,"axG",@progbits,_ZNSt23_Sp_counted_ptr_inplaceIN7asiopal5TimerESaIS1_ELN9__gnu_cxx12_Lock_policyE2EE10_M_destroyEv,comdat
	.align	2
	.p2align 4,,11
	.weak	_ZNSt23_Sp_counted_ptr_inplaceIN7asiopal5TimerESaIS1_ELN9__gnu_cxx12_Lock_policyE2EE10_M_destroyEv
	.type	_ZNSt23_Sp_counted_ptr_inplaceIN7asiopal5TimerESaIS1_ELN9__gnu_cxx12_Lock_policyE2EE10_M_destroyEv, %function
_ZNSt23_Sp_counted_ptr_inplaceIN7asiopal5TimerESaIS1_ELN9__gnu_cxx12_Lock_policyE2EE10_M_destroyEv:
.LFB9541:
	.cfi_startproc
	mov	x1, 88
	b	_ZdlPvm
	.cfi_endproc
.LFE9541:
	.size	_ZNSt23_Sp_counted_ptr_inplaceIN7asiopal5TimerESaIS1_ELN9__gnu_cxx12_Lock_policyE2EE10_M_destroyEv, .-_ZNSt23_Sp_counted_ptr_inplaceIN7asiopal5TimerESaIS1_ELN9__gnu_cxx12_Lock_policyE2EE10_M_destroyEv
	.section	.text._ZNSt23_Sp_counted_ptr_inplaceINSt13__future_base13_State_baseV2ESaIS1_ELN9__gnu_cxx12_Lock_policyE2EE10_M_destroyEv,"axG",@progbits,_ZNSt23_Sp_counted_ptr_inplaceINSt13__future_base13_State_baseV2ESaIS1_ELN9__gnu_cxx12_Lock_policyE2EE10_M_destroyEv,comdat
	.align	2
	.p2align 4,,11
	.weak	_ZNSt23_Sp_counted_ptr_inplaceINSt13__future_base13_State_baseV2ESaIS1_ELN9__gnu_cxx12_Lock_policyE2EE10_M_destroyEv
	.type	_ZNSt23_Sp_counted_ptr_inplaceINSt13__future_base13_State_baseV2ESaIS1_ELN9__gnu_cxx12_Lock_policyE2EE10_M_destroyEv, %function
_ZNSt23_Sp_counted_ptr_inplaceINSt13__future_base13_State_baseV2ESaIS1_ELN9__gnu_cxx12_Lock_policyE2EE10_M_destroyEv:
.LFB9555:
	.cfi_startproc
	mov	x1, 48
	b	_ZdlPvm
	.cfi_endproc
.LFE9555:
	.size	_ZNSt23_Sp_counted_ptr_inplaceINSt13__future_base13_State_baseV2ESaIS1_ELN9__gnu_cxx12_Lock_policyE2EE10_M_destroyEv, .-_ZNSt23_Sp_counted_ptr_inplaceINSt13__future_base13_State_baseV2ESaIS1_ELN9__gnu_cxx12_Lock_policyE2EE10_M_destroyEv
	.section	.text._ZN4asio6detail15system_categoryD2Ev,"axG",@progbits,_ZN4asio6detail15system_categoryD5Ev,comdat
	.align	2
	.p2align 4,,11
	.weak	_ZN4asio6detail15system_categoryD2Ev
	.type	_ZN4asio6detail15system_categoryD2Ev, %function
_ZN4asio6detail15system_categoryD2Ev:
.LFB9501:
	.cfi_startproc
	adrp	x1, :got:_ZTVN4asio6detail15system_categoryE
	ldr	x1, [x1, #:got_lo12:_ZTVN4asio6detail15system_categoryE]
	add	x1, x1, 16
	str	x1, [x0]
	b	_ZNSt3_V214error_categoryD2Ev
	.cfi_endproc
.LFE9501:
	.size	_ZN4asio6detail15system_categoryD2Ev, .-_ZN4asio6detail15system_categoryD2Ev
	.weak	_ZN4asio6detail15system_categoryD1Ev
	.set	_ZN4asio6detail15system_categoryD1Ev,_ZN4asio6detail15system_categoryD2Ev
	.section	.text._ZN4asio6detail15system_categoryD0Ev,"axG",@progbits,_ZN4asio6detail15system_categoryD5Ev,comdat
	.align	2
	.p2align 4,,11
	.weak	_ZN4asio6detail15system_categoryD0Ev
	.type	_ZN4asio6detail15system_categoryD0Ev, %function
_ZN4asio6detail15system_categoryD0Ev:
.LFB9503:
	.cfi_startproc
	stp	x29, x30, [sp, -32]!
	.cfi_def_cfa_offset 32
	.cfi_offset 29, -32
	.cfi_offset 30, -24
	adrp	x1, :got:_ZTVN4asio6detail15system_categoryE
	mov	x29, sp
	ldr	x1, [x1, #:got_lo12:_ZTVN4asio6detail15system_categoryE]
	str	x19, [sp, 16]
	.cfi_offset 19, -16
	mov	x19, x0
	add	x1, x1, 16
	str	x1, [x0]
	bl	_ZNSt3_V214error_categoryD2Ev
	mov	x0, x19
	mov	x1, 8
	ldr	x19, [sp, 16]
	ldp	x29, x30, [sp], 32
	.cfi_restore 30
	.cfi_restore 29
	.cfi_restore 19
	.cfi_def_cfa_offset 0
	b	_ZdlPvm
	.cfi_endproc
.LFE9503:
	.size	_ZN4asio6detail15system_categoryD0Ev, .-_ZN4asio6detail15system_categoryD0Ev
	.section	.text._ZN4asio5error6detail14netdb_categoryD2Ev,"axG",@progbits,_ZN4asio5error6detail14netdb_categoryD5Ev,comdat
	.align	2
	.p2align 4,,11
	.weak	_ZN4asio5error6detail14netdb_categoryD2Ev
	.type	_ZN4asio5error6detail14netdb_categoryD2Ev, %function
_ZN4asio5error6detail14netdb_categoryD2Ev:
.LFB9497:
	.cfi_startproc
	adrp	x1, :got:_ZTVN4asio5error6detail14netdb_categoryE
	ldr	x1, [x1, #:got_lo12:_ZTVN4asio5error6detail14netdb_categoryE]
	add	x1, x1, 16
	str	x1, [x0]
	b	_ZNSt3_V214error_categoryD2Ev
	.cfi_endproc
.LFE9497:
	.size	_ZN4asio5error6detail14netdb_categoryD2Ev, .-_ZN4asio5error6detail14netdb_categoryD2Ev
	.weak	_ZN4asio5error6detail14netdb_categoryD1Ev
	.set	_ZN4asio5error6detail14netdb_categoryD1Ev,_ZN4asio5error6detail14netdb_categoryD2Ev
	.section	.text._ZN4asio5error6detail14netdb_categoryD0Ev,"axG",@progbits,_ZN4asio5error6detail14netdb_categoryD5Ev,comdat
	.align	2
	.p2align 4,,11
	.weak	_ZN4asio5error6detail14netdb_categoryD0Ev
	.type	_ZN4asio5error6detail14netdb_categoryD0Ev, %function
_ZN4asio5error6detail14netdb_categoryD0Ev:
.LFB9499:
	.cfi_startproc
	stp	x29, x30, [sp, -32]!
	.cfi_def_cfa_offset 32
	.cfi_offset 29, -32
	.cfi_offset 30, -24
	adrp	x1, :got:_ZTVN4asio5error6detail14netdb_categoryE
	mov	x29, sp
	ldr	x1, [x1, #:got_lo12:_ZTVN4asio5error6detail14netdb_categoryE]
	str	x19, [sp, 16]
	.cfi_offset 19, -16
	mov	x19, x0
	add	x1, x1, 16
	str	x1, [x0]
	bl	_ZNSt3_V214error_categoryD2Ev
	mov	x0, x19
	mov	x1, 8
	ldr	x19, [sp, 16]
	ldp	x29, x30, [sp], 32
	.cfi_restore 30
	.cfi_restore 29
	.cfi_restore 19
	.cfi_def_cfa_offset 0
	b	_ZdlPvm
	.cfi_endproc
.LFE9499:
	.size	_ZN4asio5error6detail14netdb_categoryD0Ev, .-_ZN4asio5error6detail14netdb_categoryD0Ev
	.section	.text._ZN4asio5error6detail17addrinfo_categoryD2Ev,"axG",@progbits,_ZN4asio5error6detail17addrinfo_categoryD5Ev,comdat
	.align	2
	.p2align 4,,11
	.weak	_ZN4asio5error6detail17addrinfo_categoryD2Ev
	.type	_ZN4asio5error6detail17addrinfo_categoryD2Ev, %function
_ZN4asio5error6detail17addrinfo_categoryD2Ev:
.LFB9493:
	.cfi_startproc
	adrp	x1, :got:_ZTVN4asio5error6detail17addrinfo_categoryE
	ldr	x1, [x1, #:got_lo12:_ZTVN4asio5error6detail17addrinfo_categoryE]
	add	x1, x1, 16
	str	x1, [x0]
	b	_ZNSt3_V214error_categoryD2Ev
	.cfi_endproc
.LFE9493:
	.size	_ZN4asio5error6detail17addrinfo_categoryD2Ev, .-_ZN4asio5error6detail17addrinfo_categoryD2Ev
	.weak	_ZN4asio5error6detail17addrinfo_categoryD1Ev
	.set	_ZN4asio5error6detail17addrinfo_categoryD1Ev,_ZN4asio5error6detail17addrinfo_categoryD2Ev
	.section	.text._ZN4asio5error6detail17addrinfo_categoryD0Ev,"axG",@progbits,_ZN4asio5error6detail17addrinfo_categoryD5Ev,comdat
	.align	2
	.p2align 4,,11
	.weak	_ZN4asio5error6detail17addrinfo_categoryD0Ev
	.type	_ZN4asio5error6detail17addrinfo_categoryD0Ev, %function
_ZN4asio5error6detail17addrinfo_categoryD0Ev:
.LFB9495:
	.cfi_startproc
	stp	x29, x30, [sp, -32]!
	.cfi_def_cfa_offset 32
	.cfi_offset 29, -32
	.cfi_offset 30, -24
	adrp	x1, :got:_ZTVN4asio5error6detail17addrinfo_categoryE
	mov	x29, sp
	ldr	x1, [x1, #:got_lo12:_ZTVN4asio5error6detail17addrinfo_categoryE]
	str	x19, [sp, 16]
	.cfi_offset 19, -16
	mov	x19, x0
	add	x1, x1, 16
	str	x1, [x0]
	bl	_ZNSt3_V214error_categoryD2Ev
	mov	x0, x19
	mov	x1, 8
	ldr	x19, [sp, 16]
	ldp	x29, x30, [sp], 32
	.cfi_restore 30
	.cfi_restore 29
	.cfi_restore 19
	.cfi_def_cfa_offset 0
	b	_ZdlPvm
	.cfi_endproc
.LFE9495:
	.size	_ZN4asio5error6detail17addrinfo_categoryD0Ev, .-_ZN4asio5error6detail17addrinfo_categoryD0Ev
	.section	.text._ZN4asio5error6detail13misc_categoryD2Ev,"axG",@progbits,_ZN4asio5error6detail13misc_categoryD5Ev,comdat
	.align	2
	.p2align 4,,11
	.weak	_ZN4asio5error6detail13misc_categoryD2Ev
	.type	_ZN4asio5error6detail13misc_categoryD2Ev, %function
_ZN4asio5error6detail13misc_categoryD2Ev:
.LFB9489:
	.cfi_startproc
	adrp	x1, :got:_ZTVN4asio5error6detail13misc_categoryE
	ldr	x1, [x1, #:got_lo12:_ZTVN4asio5error6detail13misc_categoryE]
	add	x1, x1, 16
	str	x1, [x0]
	b	_ZNSt3_V214error_categoryD2Ev
	.cfi_endproc
.LFE9489:
	.size	_ZN4asio5error6detail13misc_categoryD2Ev, .-_ZN4asio5error6detail13misc_categoryD2Ev
	.weak	_ZN4asio5error6detail13misc_categoryD1Ev
	.set	_ZN4asio5error6detail13misc_categoryD1Ev,_ZN4asio5error6detail13misc_categoryD2Ev
	.section	.text._ZN4asio5error6detail13misc_categoryD0Ev,"axG",@progbits,_ZN4asio5error6detail13misc_categoryD5Ev,comdat
	.align	2
	.p2align 4,,11
	.weak	_ZN4asio5error6detail13misc_categoryD0Ev
	.type	_ZN4asio5error6detail13misc_categoryD0Ev, %function
_ZN4asio5error6detail13misc_categoryD0Ev:
.LFB9491:
	.cfi_startproc
	stp	x29, x30, [sp, -32]!
	.cfi_def_cfa_offset 32
	.cfi_offset 29, -32
	.cfi_offset 30, -24
	adrp	x1, :got:_ZTVN4asio5error6detail13misc_categoryE
	mov	x29, sp
	ldr	x1, [x1, #:got_lo12:_ZTVN4asio5error6detail13misc_categoryE]
	str	x19, [sp, 16]
	.cfi_offset 19, -16
	mov	x19, x0
	add	x1, x1, 16
	str	x1, [x0]
	bl	_ZNSt3_V214error_categoryD2Ev
	mov	x0, x19
	mov	x1, 8
	ldr	x19, [sp, 16]
	ldp	x29, x30, [sp], 32
	.cfi_restore 30
	.cfi_restore 29
	.cfi_restore 19
	.cfi_def_cfa_offset 0
	b	_ZdlPvm
	.cfi_endproc
.LFE9491:
	.size	_ZN4asio5error6detail13misc_categoryD0Ev, .-_ZN4asio5error6detail13misc_categoryD0Ev
	.section	.text._ZNSt13__future_base7_ResultIbED2Ev,"axG",@progbits,_ZNSt13__future_base7_ResultIbED5Ev,comdat
	.align	2
	.p2align 4,,11
	.weak	_ZNSt13__future_base7_ResultIbED2Ev
	.type	_ZNSt13__future_base7_ResultIbED2Ev, %function
_ZNSt13__future_base7_ResultIbED2Ev:
.LFB9573:
	.cfi_startproc
	adrp	x1, :got:_ZTVNSt13__future_base7_ResultIbEE
	ldr	x1, [x1, #:got_lo12:_ZTVNSt13__future_base7_ResultIbEE]
	add	x1, x1, 16
	str	x1, [x0]
	b	_ZNSt13__future_base12_Result_baseD2Ev
	.cfi_endproc
.LFE9573:
	.size	_ZNSt13__future_base7_ResultIbED2Ev, .-_ZNSt13__future_base7_ResultIbED2Ev
	.weak	_ZNSt13__future_base7_ResultIbED1Ev
	.set	_ZNSt13__future_base7_ResultIbED1Ev,_ZNSt13__future_base7_ResultIbED2Ev
	.section	.text._ZNSt13__future_base7_ResultIbED0Ev,"axG",@progbits,_ZNSt13__future_base7_ResultIbED5Ev,comdat
	.align	2
	.p2align 4,,11
	.weak	_ZNSt13__future_base7_ResultIbED0Ev
	.type	_ZNSt13__future_base7_ResultIbED0Ev, %function
_ZNSt13__future_base7_ResultIbED0Ev:
.LFB9575:
	.cfi_startproc
	stp	x29, x30, [sp, -32]!
	.cfi_def_cfa_offset 32
	.cfi_offset 29, -32
	.cfi_offset 30, -24
	adrp	x1, :got:_ZTVNSt13__future_base7_ResultIbEE
	mov	x29, sp
	ldr	x1, [x1, #:got_lo12:_ZTVNSt13__future_base7_ResultIbEE]
	str	x19, [sp, 16]
	.cfi_offset 19, -16
	mov	x19, x0
	add	x1, x1, 16
	str	x1, [x0]
	bl	_ZNSt13__future_base12_Result_baseD2Ev
	mov	x0, x19
	mov	x1, 24
	ldr	x19, [sp, 16]
	ldp	x29, x30, [sp], 32
	.cfi_restore 30
	.cfi_restore 29
	.cfi_restore 19
	.cfi_def_cfa_offset 0
	b	_ZdlPvm
	.cfi_endproc
.LFE9575:
	.size	_ZNSt13__future_base7_ResultIbED0Ev, .-_ZNSt13__future_base7_ResultIbED0Ev
	.text
	.align	2
	.p2align 4,,11
	.global	_ZN7asiopal8Executor7GetTimeEv
	.type	_ZN7asiopal8Executor7GetTimeEv, %function
_ZN7asiopal8Executor7GetTimeEv:
.LFB6994:
	.cfi_startproc
	stp	x29, x30, [sp, -32]!
	.cfi_def_cfa_offset 32
	.cfi_offset 29, -32
	.cfi_offset 30, -24
	adrp	x0, :got:__stack_chk_guard
	mov	x29, sp
	ldr	x0, [x0, #:got_lo12:__stack_chk_guard]
	ldr	x1, [x0]
	str	x1, [sp, 24]
	mov	x1, 0
	bl	_ZNSt6chrono3_V212steady_clock3nowEv
	mov	x1, x0
	add	x0, sp, 16
	str	x1, [sp, 16]
	bl	_ZN7asiopal15TimeConversions7ConvertERKNSt6chrono10time_pointINS1_3_V212steady_clockENS1_8durationIlSt5ratioILl1ELl1000000000EEEEEE
	adrp	x1, :got:__stack_chk_guard
	ldr	x1, [x1, #:got_lo12:__stack_chk_guard]
	ldr	x3, [sp, 24]
	ldr	x2, [x1]
	subs	x3, x3, x2
	mov	x2, 0
	bne	.L65
	ldp	x29, x30, [sp], 32
	.cfi_remember_state
	.cfi_restore 30
	.cfi_restore 29
	.cfi_def_cfa_offset 0
	ret
.L65:
	.cfi_restore_state
	bl	__stack_chk_fail
	.cfi_endproc
.LFE6994:
	.size	_ZN7asiopal8Executor7GetTimeEv, .-_ZN7asiopal8Executor7GetTimeEv
	.section	.text._ZNSt13__future_base13_State_baseV29_M_do_setEPSt8functionIFSt10unique_ptrINS_12_Result_baseENS3_8_DeleterEEvEEPb,"axG",@progbits,_ZNSt13__future_base13_State_baseV29_M_do_setEPSt8functionIFSt10unique_ptrINS_12_Result_baseENS3_8_DeleterEEvEEPb,comdat
	.align	2
	.p2align 4,,11
	.weak	_ZNSt13__future_base13_State_baseV29_M_do_setEPSt8functionIFSt10unique_ptrINS_12_Result_baseENS3_8_DeleterEEvEEPb
	.type	_ZNSt13__future_base13_State_baseV29_M_do_setEPSt8functionIFSt10unique_ptrINS_12_Result_baseENS3_8_DeleterEEvEEPb, %function
_ZNSt13__future_base13_State_baseV29_M_do_setEPSt8functionIFSt10unique_ptrINS_12_Result_baseENS3_8_DeleterEEvEEPb:
.LFB6725:
	.cfi_startproc
	.cfi_personality 0x9b,DW.ref.__gxx_personality_v0
	.cfi_lsda 0x1b,.LLSDA6725
	stp	x29, x30, [sp, -48]!
	.cfi_def_cfa_offset 48
	.cfi_offset 29, -48
	.cfi_offset 30, -40
	adrp	x3, :got:__stack_chk_guard
	mov	x29, sp
	ldr	x3, [x3, #:got_lo12:__stack_chk_guard]
	stp	x19, x20, [sp, 16]
	.cfi_offset 19, -32
	.cfi_offset 20, -24
	ldr	x4, [x1, 16]
	ldr	x5, [x3]
	str	x5, [sp, 40]
	mov	x5, 0
	cbz	x4, .L74
	mov	x20, x2
	mov	x19, x0
	ldr	x2, [x1, 24]
	mov	x0, x1
	add	x8, sp, 32
.LEHB0:
	blr	x2
.LEHE0:
	mov	w1, 1
	ldr	x0, [x19, 8]
	strb	w1, [x20]
	ldr	x1, [sp, 32]
	str	x1, [x19, 8]
	str	x0, [sp, 32]
	cbz	x0, .L66
	ldr	x1, [x0]
	ldr	x1, [x1]
	blr	x1
.L66:
	adrp	x0, :got:__stack_chk_guard
	ldr	x0, [x0, #:got_lo12:__stack_chk_guard]
	ldr	x2, [sp, 40]
	ldr	x1, [x0]
	subs	x2, x2, x1
	mov	x1, 0
	bne	.L75
	ldp	x19, x20, [sp, 16]
	ldp	x29, x30, [sp], 48
	.cfi_remember_state
	.cfi_restore 30
	.cfi_restore 29
	.cfi_restore 19
	.cfi_restore 20
	.cfi_def_cfa_offset 0
	ret
.L74:
	.cfi_restore_state
.LEHB1:
	bl	_ZSt25__throw_bad_function_callv
.LEHE1:
.L75:
	bl	__stack_chk_fail
	.cfi_endproc
.LFE6725:
	.section	.gcc_except_table._ZNSt13__future_base13_State_baseV29_M_do_setEPSt8functionIFSt10unique_ptrINS_12_Result_baseENS3_8_DeleterEEvEEPb,"aG",@progbits,_ZNSt13__future_base13_State_baseV29_M_do_setEPSt8functionIFSt10unique_ptrINS_12_Result_baseENS3_8_DeleterEEvEEPb,comdat
.LLSDA6725:
	.byte	0xff
	.byte	0xff
	.byte	0x1
	.uleb128 .LLSDACSE6725-.LLSDACSB6725
.LLSDACSB6725:
	.uleb128 .LEHB0-.LFB6725
	.uleb128 .LEHE0-.LEHB0
	.uleb128 0
	.uleb128 0
	.uleb128 .LEHB1-.LFB6725
	.uleb128 .LEHE1-.LEHB1
	.uleb128 0
	.uleb128 0
.LLSDACSE6725:
	.section	.text._ZNSt13__future_base13_State_baseV29_M_do_setEPSt8functionIFSt10unique_ptrINS_12_Result_baseENS3_8_DeleterEEvEEPb,"axG",@progbits,_ZNSt13__future_base13_State_baseV29_M_do_setEPSt8functionIFSt10unique_ptrINS_12_Result_baseENS3_8_DeleterEEvEEPb,comdat
	.size	_ZNSt13__future_base13_State_baseV29_M_do_setEPSt8functionIFSt10unique_ptrINS_12_Result_baseENS3_8_DeleterEEvEEPb, .-_ZNSt13__future_base13_State_baseV29_M_do_setEPSt8functionIFSt10unique_ptrINS_12_Result_baseENS3_8_DeleterEEvEEPb
	.section	.text._ZN4asio6detail7tss_ptrINS0_10call_stackINS0_15task_io_serviceENS0_27task_io_service_thread_infoEE7contextEED2Ev,"axG",@progbits,_ZN4asio6detail7tss_ptrINS0_10call_stackINS0_15task_io_serviceENS0_27task_io_service_thread_infoEE7contextEED5Ev,comdat
	.align	2
	.p2align 4,,11
	.weak	_ZN4asio6detail7tss_ptrINS0_10call_stackINS0_15task_io_serviceENS0_27task_io_service_thread_infoEE7contextEED2Ev
	.type	_ZN4asio6detail7tss_ptrINS0_10call_stackINS0_15task_io_serviceENS0_27task_io_service_thread_infoEE7contextEED2Ev, %function
_ZN4asio6detail7tss_ptrINS0_10call_stackINS0_15task_io_serviceENS0_27task_io_service_thread_infoEE7contextEED2Ev:
.LFB9522:
	.cfi_startproc
	ldr	w0, [x0]
	b	pthread_key_delete
	.cfi_endproc
.LFE9522:
	.size	_ZN4asio6detail7tss_ptrINS0_10call_stackINS0_15task_io_serviceENS0_27task_io_service_thread_infoEE7contextEED2Ev, .-_ZN4asio6detail7tss_ptrINS0_10call_stackINS0_15task_io_serviceENS0_27task_io_service_thread_infoEE7contextEED2Ev
	.weak	_ZN4asio6detail7tss_ptrINS0_10call_stackINS0_15task_io_serviceENS0_27task_io_service_thread_infoEE7contextEED1Ev
	.set	_ZN4asio6detail7tss_ptrINS0_10call_stackINS0_15task_io_serviceENS0_27task_io_service_thread_infoEE7contextEED1Ev,_ZN4asio6detail7tss_ptrINS0_10call_stackINS0_15task_io_serviceENS0_27task_io_service_thread_infoEE7contextEED2Ev
	.section	.text._ZN4asio6detail7tss_ptrINS0_10call_stackINS0_14strand_service11strand_implEhE7contextEED2Ev,"axG",@progbits,_ZN4asio6detail7tss_ptrINS0_10call_stackINS0_14strand_service11strand_implEhE7contextEED5Ev,comdat
	.align	2
	.p2align 4,,11
	.weak	_ZN4asio6detail7tss_ptrINS0_10call_stackINS0_14strand_service11strand_implEhE7contextEED2Ev
	.type	_ZN4asio6detail7tss_ptrINS0_10call_stackINS0_14strand_service11strand_implEhE7contextEED2Ev, %function
_ZN4asio6detail7tss_ptrINS0_10call_stackINS0_14strand_service11strand_implEhE7contextEED2Ev:
.LFB9531:
	.cfi_startproc
	ldr	w0, [x0]
	b	pthread_key_delete
	.cfi_endproc
.LFE9531:
	.size	_ZN4asio6detail7tss_ptrINS0_10call_stackINS0_14strand_service11strand_implEhE7contextEED2Ev, .-_ZN4asio6detail7tss_ptrINS0_10call_stackINS0_14strand_service11strand_implEhE7contextEED2Ev
	.weak	_ZN4asio6detail7tss_ptrINS0_10call_stackINS0_14strand_service11strand_implEhE7contextEED1Ev
	.set	_ZN4asio6detail7tss_ptrINS0_10call_stackINS0_14strand_service11strand_implEhE7contextEED1Ev,_ZN4asio6detail7tss_ptrINS0_10call_stackINS0_14strand_service11strand_implEhE7contextEED2Ev
	.section	.text._ZNSt17_Function_handlerIFSt10unique_ptrINSt13__future_base12_Result_baseENS2_8_DeleterEEvENS1_13_State_baseV27_SetterIbObEEE10_M_managerERSt9_Any_dataRKSB_St18_Manager_operation,"axG",@progbits,_ZNSt17_Function_handlerIFSt10unique_ptrINSt13__future_base12_Result_baseENS2_8_DeleterEEvENS1_13_State_baseV27_SetterIbObEEE10_M_managerERSt9_Any_dataRKSB_St18_Manager_operation,comdat
	.align	2
	.p2align 4,,11
	.weak	_ZNSt17_Function_handlerIFSt10unique_ptrINSt13__future_base12_Result_baseENS2_8_DeleterEEvENS1_13_State_baseV27_SetterIbObEEE10_M_managerERSt9_Any_dataRKSB_St18_Manager_operation
	.type	_ZNSt17_Function_handlerIFSt10unique_ptrINSt13__future_base12_Result_baseENS2_8_DeleterEEvENS1_13_State_baseV27_SetterIbObEEE10_M_managerERSt9_Any_dataRKSB_St18_Manager_operation, %function
_ZNSt17_Function_handlerIFSt10unique_ptrINSt13__future_base12_Result_baseENS2_8_DeleterEEvENS1_13_State_baseV27_SetterIbObEEE10_M_managerERSt9_Any_dataRKSB_St18_Manager_operation:
.LFB8572:
	.cfi_startproc
	cbz	w2, .L79
	cmp	w2, 1
	beq	.L80
	cmp	w2, 2
	beq	.L84
.L82:
	mov	w0, 0
	ret
	.p2align 2,,3
.L79:
	adrp	x1, :got:_ZTINSt13__future_base13_State_baseV27_SetterIbObEE
	ldr	x1, [x1, #:got_lo12:_ZTINSt13__future_base13_State_baseV27_SetterIbObEE]
	str	x1, [x0]
	mov	w0, 0
	ret
	.p2align 2,,3
.L80:
	str	x1, [x0]
	mov	w0, 0
	ret
	.p2align 2,,3
.L84:
	ldp	x2, x3, [x1]
	stp	x2, x3, [x0]
	b	.L82
	.cfi_endproc
.LFE8572:
	.size	_ZNSt17_Function_handlerIFSt10unique_ptrINSt13__future_base12_Result_baseENS2_8_DeleterEEvENS1_13_State_baseV27_SetterIbObEEE10_M_managerERSt9_Any_dataRKSB_St18_Manager_operation, .-_ZNSt17_Function_handlerIFSt10unique_ptrINSt13__future_base12_Result_baseENS2_8_DeleterEEvENS1_13_State_baseV27_SetterIbObEEE10_M_managerERSt9_Any_dataRKSB_St18_Manager_operation
	.section	.text._ZNSt13__future_base7_ResultIbE10_M_destroyEv,"axG",@progbits,_ZNSt13__future_base7_ResultIbE10_M_destroyEv,comdat
	.align	2
	.p2align 4,,11
	.weak	_ZNSt13__future_base7_ResultIbE10_M_destroyEv
	.type	_ZNSt13__future_base7_ResultIbE10_M_destroyEv, %function
_ZNSt13__future_base7_ResultIbE10_M_destroyEv:
.LFB9571:
	.cfi_startproc
	ldr	x2, [x0]
	adrp	x1, :got:_ZNSt13__future_base7_ResultIbED0Ev
	ldr	x1, [x1, #:got_lo12:_ZNSt13__future_base7_ResultIbED0Ev]
	ldr	x2, [x2, 16]
	cmp	x2, x1
	bne	.L86
	stp	x29, x30, [sp, -32]!
	.cfi_def_cfa_offset 32
	.cfi_offset 29, -32
	.cfi_offset 30, -24
	adrp	x1, :got:_ZTVNSt13__future_base7_ResultIbEE
	mov	x29, sp
	ldr	x1, [x1, #:got_lo12:_ZTVNSt13__future_base7_ResultIbEE]
	str	x19, [sp, 16]
	.cfi_offset 19, -16
	mov	x19, x0
	add	x1, x1, 16
	str	x1, [x0]
	bl	_ZNSt13__future_base12_Result_baseD2Ev
	mov	x0, x19
	mov	x1, 24
	ldr	x19, [sp, 16]
	ldp	x29, x30, [sp], 32
	.cfi_restore 30
	.cfi_restore 29
	.cfi_restore 19
	.cfi_def_cfa_offset 0
	b	_ZdlPvm
	.p2align 2,,3
.L86:
	mov	x16, x2
	br	x16
	.cfi_endproc
.LFE9571:
	.size	_ZNSt13__future_base7_ResultIbE10_M_destroyEv, .-_ZNSt13__future_base7_ResultIbE10_M_destroyEv
	.section	.text._ZN4asio6detail14strand_serviceD2Ev,"axG",@progbits,_ZN4asio6detail14strand_serviceD5Ev,comdat
	.align	2
	.p2align 4,,11
	.weak	_ZN4asio6detail14strand_serviceD2Ev
	.type	_ZN4asio6detail14strand_serviceD2Ev, %function
_ZN4asio6detail14strand_serviceD2Ev:
.LFB9461:
	.cfi_startproc
	.cfi_personality 0x9b,DW.ref.__gxx_personality_v0
	.cfi_lsda 0x1b,.LLSDA9461
	stp	x29, x30, [sp, -128]!
	.cfi_def_cfa_offset 128
	.cfi_offset 29, -128
	.cfi_offset 30, -120
	adrp	x1, :got:_ZTVN4asio6detail14strand_serviceE
	adrp	x2, :got:__stack_chk_guard
	mov	x29, sp
	ldr	x2, [x2, #:got_lo12:__stack_chk_guard]
	stp	x21, x22, [sp, 32]
	.cfi_offset 21, -96
	.cfi_offset 22, -88
	add	x22, x0, 1632
	stp	x23, x24, [sp, 48]
	.cfi_offset 23, -80
	.cfi_offset 24, -72
	mov	x24, x0
	add	x23, x24, 88
	ldr	x0, [x1, #:got_lo12:_ZTVN4asio6detail14strand_serviceE]
	stp	x19, x20, [sp, 16]
	.cfi_offset 19, -112
	.cfi_offset 20, -104
	add	x20, sp, 104
	str	x25, [sp, 64]
	.cfi_offset 25, -64
	add	x0, x0, 16
	ldr	x1, [x2]
	str	x1, [sp, 120]
	mov	x1, 0
	str	x0, [x24]
	.p2align 3,,7
.L100:
	ldr	x21, [x22]
	cbz	x21, .L91
	ldr	x1, [x21, 96]
	str	x1, [sp, 88]
	add	x19, x21, 96
	cbz	x1, .L92
	bl	_ZNSt3_V215system_categoryEv
	mov	x25, x0
	ldr	x1, [sp, 88]
	b	.L95
	.p2align 2,,3
.L93:
	ldr	x4, [x1, 8]
	str	xzr, [x1]
	str	wzr, [sp, 104]
	mov	x2, x20
	str	x25, [sp, 112]
	mov	x3, 0
	mov	x0, 0
	blr	x4
	ldr	x1, [x19]
	cbz	x1, .L92
.L95:
	ldr	x2, [x1]
	str	x2, [x19]
	cbnz	x2, .L93
	ldr	x4, [x1, 8]
	str	xzr, [x19, 8]
	str	xzr, [x1]
	mov	x2, x20
	str	wzr, [sp, 104]
	mov	x3, 0
	str	x25, [sp, 112]
	mov	x0, 0
	blr	x4
	ldr	x1, [x19]
	cbnz	x1, .L95
.L92:
	ldr	x1, [x21, 80]
	str	x1, [sp, 88]
	add	x19, x21, 80
	cbz	x1, .L96
	bl	_ZNSt3_V215system_categoryEv
	mov	x25, x0
	ldr	x1, [sp, 88]
	b	.L99
	.p2align 2,,3
.L97:
	ldr	x4, [x1, 8]
	str	xzr, [x1]
	str	wzr, [sp, 104]
	mov	x2, x20
	str	x25, [sp, 112]
	mov	x3, 0
	mov	x0, 0
	blr	x4
	ldr	x1, [x19]
	cbz	x1, .L96
.L99:
	ldr	x2, [x1]
	str	x2, [x19]
	cbnz	x2, .L97
	ldr	x4, [x1, 8]
	str	xzr, [x19, 8]
	str	xzr, [x1]
	mov	x2, x20
	str	wzr, [sp, 104]
	mov	x3, 0
	str	x25, [sp, 112]
	mov	x0, 0
	blr	x4
	ldr	x1, [x19]
	cbnz	x1, .L99
.L96:
	add	x0, x21, 24
	bl	pthread_mutex_destroy
	mov	x0, x21
	mov	x1, 112
	bl	_ZdlPvm
.L91:
	sub	x22, x22, #8
	cmp	x23, x22
	bne	.L100
	adrp	x0, :got:__stack_chk_guard
	ldr	x0, [x0, #:got_lo12:__stack_chk_guard]
	ldr	x2, [sp, 120]
	ldr	x1, [x0]
	subs	x2, x2, x1
	mov	x1, 0
	bne	.L130
	add	x0, x24, 48
	ldp	x19, x20, [sp, 16]
	ldp	x21, x22, [sp, 32]
	ldp	x23, x24, [sp, 48]
	ldr	x25, [sp, 64]
	ldp	x29, x30, [sp], 128
	.cfi_remember_state
	.cfi_restore 30
	.cfi_restore 29
	.cfi_restore 25
	.cfi_restore 23
	.cfi_restore 24
	.cfi_restore 21
	.cfi_restore 22
	.cfi_restore 19
	.cfi_restore 20
	.cfi_def_cfa_offset 0
	b	pthread_mutex_destroy
.L130:
	.cfi_restore_state
	bl	__stack_chk_fail
	.cfi_endproc
.LFE9461:
	.section	.gcc_except_table._ZN4asio6detail14strand_serviceD2Ev,"aG",@progbits,_ZN4asio6detail14strand_serviceD5Ev,comdat
.LLSDA9461:
	.byte	0xff
	.byte	0xff
	.byte	0x1
	.uleb128 .LLSDACSE9461-.LLSDACSB9461
.LLSDACSB9461:
.LLSDACSE9461:
	.section	.text._ZN4asio6detail14strand_serviceD2Ev,"axG",@progbits,_ZN4asio6detail14strand_serviceD5Ev,comdat
	.size	_ZN4asio6detail14strand_serviceD2Ev, .-_ZN4asio6detail14strand_serviceD2Ev
	.weak	_ZN4asio6detail14strand_serviceD1Ev
	.set	_ZN4asio6detail14strand_serviceD1Ev,_ZN4asio6detail14strand_serviceD2Ev
	.section	.text._ZNSt23_Sp_counted_ptr_inplaceIN7asiopal5TimerESaIS1_ELN9__gnu_cxx12_Lock_policyE2EE14_M_get_deleterERKSt9type_info,"axG",@progbits,_ZNSt23_Sp_counted_ptr_inplaceIN7asiopal5TimerESaIS1_ELN9__gnu_cxx12_Lock_policyE2EE14_M_get_deleterERKSt9type_info,comdat
	.align	2
	.p2align 4,,11
	.weak	_ZNSt23_Sp_counted_ptr_inplaceIN7asiopal5TimerESaIS1_ELN9__gnu_cxx12_Lock_policyE2EE14_M_get_deleterERKSt9type_info
	.type	_ZNSt23_Sp_counted_ptr_inplaceIN7asiopal5TimerESaIS1_ELN9__gnu_cxx12_Lock_policyE2EE14_M_get_deleterERKSt9type_info, %function
_ZNSt23_Sp_counted_ptr_inplaceIN7asiopal5TimerESaIS1_ELN9__gnu_cxx12_Lock_policyE2EE14_M_get_deleterERKSt9type_info:
.LFB9542:
	.cfi_startproc
	stp	x29, x30, [sp, -32]!
	.cfi_def_cfa_offset 32
	.cfi_offset 29, -32
	.cfi_offset 30, -24
	adrp	x2, :got:_ZZNSt19_Sp_make_shared_tag5_S_tiEvE5__tag
	mov	x29, sp
	ldr	x2, [x2, #:got_lo12:_ZZNSt19_Sp_make_shared_tag5_S_tiEvE5__tag]
	str	x19, [sp, 16]
	.cfi_offset 19, -16
	add	x19, x0, 16
	cmp	x1, x2
	beq	.L131
	adrp	x2, :got:_ZTSSt19_Sp_make_shared_tag
	ldr	x0, [x1, 8]
	ldr	x1, [x2, #:got_lo12:_ZTSSt19_Sp_make_shared_tag]
	cmp	x0, x1
	beq	.L131
	ldrb	w2, [x0]
	cmp	w2, 42
	beq	.L133
	bl	strcmp
	cmp	w0, 0
	csel	x19, x19, xzr, eq
.L131:
	mov	x0, x19
	ldr	x19, [sp, 16]
	ldp	x29, x30, [sp], 32
	.cfi_remember_state
	.cfi_restore 30
	.cfi_restore 29
	.cfi_restore 19
	.cfi_def_cfa_offset 0
	ret
	.p2align 2,,3
.L133:
	.cfi_restore_state
	mov	x19, 0
	mov	x0, x19
	ldr	x19, [sp, 16]
	ldp	x29, x30, [sp], 32
	.cfi_restore 30
	.cfi_restore 29
	.cfi_restore 19
	.cfi_def_cfa_offset 0
	ret
	.cfi_endproc
.LFE9542:
	.size	_ZNSt23_Sp_counted_ptr_inplaceIN7asiopal5TimerESaIS1_ELN9__gnu_cxx12_Lock_policyE2EE14_M_get_deleterERKSt9type_info, .-_ZNSt23_Sp_counted_ptr_inplaceIN7asiopal5TimerESaIS1_ELN9__gnu_cxx12_Lock_policyE2EE14_M_get_deleterERKSt9type_info
	.section	.text._ZNSt23_Sp_counted_ptr_inplaceINSt13__future_base13_State_baseV2ESaIS1_ELN9__gnu_cxx12_Lock_policyE2EE14_M_get_deleterERKSt9type_info,"axG",@progbits,_ZNSt23_Sp_counted_ptr_inplaceINSt13__future_base13_State_baseV2ESaIS1_ELN9__gnu_cxx12_Lock_policyE2EE14_M_get_deleterERKSt9type_info,comdat
	.align	2
	.p2align 4,,11
	.weak	_ZNSt23_Sp_counted_ptr_inplaceINSt13__future_base13_State_baseV2ESaIS1_ELN9__gnu_cxx12_Lock_policyE2EE14_M_get_deleterERKSt9type_info
	.type	_ZNSt23_Sp_counted_ptr_inplaceINSt13__future_base13_State_baseV2ESaIS1_ELN9__gnu_cxx12_Lock_policyE2EE14_M_get_deleterERKSt9type_info, %function
_ZNSt23_Sp_counted_ptr_inplaceINSt13__future_base13_State_baseV2ESaIS1_ELN9__gnu_cxx12_Lock_policyE2EE14_M_get_deleterERKSt9type_info:
.LFB9556:
	.cfi_startproc
	stp	x29, x30, [sp, -32]!
	.cfi_def_cfa_offset 32
	.cfi_offset 29, -32
	.cfi_offset 30, -24
	adrp	x2, :got:_ZZNSt19_Sp_make_shared_tag5_S_tiEvE5__tag
	mov	x29, sp
	ldr	x2, [x2, #:got_lo12:_ZZNSt19_Sp_make_shared_tag5_S_tiEvE5__tag]
	str	x19, [sp, 16]
	.cfi_offset 19, -16
	add	x19, x0, 16
	cmp	x1, x2
	beq	.L136
	adrp	x2, :got:_ZTSSt19_Sp_make_shared_tag
	ldr	x0, [x1, 8]
	ldr	x1, [x2, #:got_lo12:_ZTSSt19_Sp_make_shared_tag]
	cmp	x0, x1
	beq	.L136
	ldrb	w2, [x0]
	cmp	w2, 42
	beq	.L138
	bl	strcmp
	cmp	w0, 0
	csel	x19, x19, xzr, eq
.L136:
	mov	x0, x19
	ldr	x19, [sp, 16]
	ldp	x29, x30, [sp], 32
	.cfi_remember_state
	.cfi_restore 30
	.cfi_restore 29
	.cfi_restore 19
	.cfi_def_cfa_offset 0
	ret
	.p2align 2,,3
.L138:
	.cfi_restore_state
	mov	x19, 0
	mov	x0, x19
	ldr	x19, [sp, 16]
	ldp	x29, x30, [sp], 32
	.cfi_restore 30
	.cfi_restore 29
	.cfi_restore 19
	.cfi_def_cfa_offset 0
	ret
	.cfi_endproc
.LFE9556:
	.size	_ZNSt23_Sp_counted_ptr_inplaceINSt13__future_base13_State_baseV2ESaIS1_ELN9__gnu_cxx12_Lock_policyE2EE14_M_get_deleterERKSt9type_info, .-_ZNSt23_Sp_counted_ptr_inplaceINSt13__future_base13_State_baseV2ESaIS1_ELN9__gnu_cxx12_Lock_policyE2EE14_M_get_deleterERKSt9type_info
	.section	.text._ZN4asio6detail14strand_serviceD0Ev,"axG",@progbits,_ZN4asio6detail14strand_serviceD5Ev,comdat
	.align	2
	.p2align 4,,11
	.weak	_ZN4asio6detail14strand_serviceD0Ev
	.type	_ZN4asio6detail14strand_serviceD0Ev, %function
_ZN4asio6detail14strand_serviceD0Ev:
.LFB9463:
	.cfi_startproc
	.cfi_personality 0x9b,DW.ref.__gxx_personality_v0
	.cfi_lsda 0x1b,.LLSDA9463
	stp	x29, x30, [sp, -112]!
	.cfi_def_cfa_offset 112
	.cfi_offset 29, -112
	.cfi_offset 30, -104
	adrp	x1, :got:_ZTVN4asio6detail14strand_serviceE
	adrp	x2, :got:__stack_chk_guard
	mov	x29, sp
	ldr	x2, [x2, #:got_lo12:__stack_chk_guard]
	stp	x19, x20, [sp, 16]
	.cfi_offset 19, -96
	.cfi_offset 20, -88
	add	x20, x0, 1632
	stp	x25, x26, [sp, 64]
	.cfi_offset 25, -48
	.cfi_offset 26, -40
	mov	x25, x0
	ldr	x0, [x1, #:got_lo12:_ZTVN4asio6detail14strand_serviceE]
	stp	x21, x22, [sp, 32]
	stp	x23, x24, [sp, 48]
	.cfi_offset 21, -80
	.cfi_offset 22, -72
	.cfi_offset 23, -64
	.cfi_offset 24, -56
	add	x24, sp, 88
	add	x23, x25, 88
	ldr	x1, [x2]
	str	x1, [sp, 104]
	mov	x1, 0
	add	x0, x0, 16
	str	x0, [x25]
	.p2align 3,,7
.L151:
	ldr	x19, [x20]
	cbz	x19, .L142
	ldr	x21, [x19, 96]
	add	x26, x19, 96
	cbz	x21, .L143
	bl	_ZNSt3_V215system_categoryEv
	mov	x22, x0
	.p2align 3,,7
.L146:
	ldr	x0, [x21]
	str	x0, [x26]
	cbz	x0, .L177
	ldr	x4, [x21, 8]
	str	xzr, [x21]
	str	wzr, [sp, 88]
	mov	x1, x21
	str	x22, [sp, 96]
	mov	x2, x24
	mov	x3, 0
	mov	x0, 0
	blr	x4
	ldr	x21, [x26]
	cbnz	x21, .L146
.L143:
	ldr	x21, [x19, 80]
	add	x26, x19, 80
	cbz	x21, .L147
	bl	_ZNSt3_V215system_categoryEv
	mov	x22, x0
	.p2align 3,,7
.L150:
	ldr	x0, [x21]
	str	x0, [x26]
	cbz	x0, .L178
	ldr	x4, [x21, 8]
	str	xzr, [x21]
	str	wzr, [sp, 88]
	mov	x1, x21
	str	x22, [sp, 96]
	mov	x2, x24
	mov	x3, 0
	mov	x0, 0
	blr	x4
	ldr	x21, [x26]
	cbnz	x21, .L150
.L147:
	add	x0, x19, 24
	bl	pthread_mutex_destroy
	mov	x0, x19
	mov	x1, 112
	bl	_ZdlPvm
.L142:
	sub	x20, x20, #8
	cmp	x23, x20
	bne	.L151
	add	x0, x25, 48
	bl	pthread_mutex_destroy
	adrp	x0, :got:__stack_chk_guard
	ldr	x0, [x0, #:got_lo12:__stack_chk_guard]
	ldr	x2, [sp, 104]
	ldr	x1, [x0]
	subs	x2, x2, x1
	mov	x1, 0
	bne	.L179
	mov	x0, x25
	mov	x1, 1648
	ldp	x19, x20, [sp, 16]
	ldp	x21, x22, [sp, 32]
	ldp	x23, x24, [sp, 48]
	ldp	x25, x26, [sp, 64]
	ldp	x29, x30, [sp], 112
	.cfi_remember_state
	.cfi_restore 30
	.cfi_restore 29
	.cfi_restore 25
	.cfi_restore 26
	.cfi_restore 23
	.cfi_restore 24
	.cfi_restore 21
	.cfi_restore 22
	.cfi_restore 19
	.cfi_restore 20
	.cfi_def_cfa_offset 0
	b	_ZdlPvm
	.p2align 2,,3
.L178:
	.cfi_restore_state
	ldr	x4, [x21, 8]
	str	xzr, [x26, 8]
	str	xzr, [x21]
	mov	x1, x21
	str	wzr, [sp, 88]
	mov	x2, x24
	str	x22, [sp, 96]
	mov	x3, 0
	blr	x4
	ldr	x21, [x26]
	cbnz	x21, .L150
	b	.L147
	.p2align 2,,3
.L177:
	ldr	x4, [x21, 8]
	str	xzr, [x26, 8]
	str	xzr, [x21]
	mov	x1, x21
	str	wzr, [sp, 88]
	mov	x2, x24
	str	x22, [sp, 96]
	mov	x3, 0
	blr	x4
	ldr	x21, [x26]
	cbnz	x21, .L146
	b	.L143
.L179:
	bl	__stack_chk_fail
	.cfi_endproc
.LFE9463:
	.section	.gcc_except_table._ZN4asio6detail14strand_serviceD0Ev,"aG",@progbits,_ZN4asio6detail14strand_serviceD5Ev,comdat
.LLSDA9463:
	.byte	0xff
	.byte	0xff
	.byte	0x1
	.uleb128 .LLSDACSE9463-.LLSDACSB9463
.LLSDACSB9463:
.LLSDACSE9463:
	.section	.text._ZN4asio6detail14strand_serviceD0Ev,"axG",@progbits,_ZN4asio6detail14strand_serviceD5Ev,comdat
	.size	_ZN4asio6detail14strand_serviceD0Ev, .-_ZN4asio6detail14strand_serviceD0Ev
	.section	.text._ZN4asio6detail14strand_service16shutdown_serviceEv,"axG",@progbits,_ZN4asio6detail14strand_service16shutdown_serviceEv,comdat
	.align	2
	.p2align 4,,11
	.weak	_ZN4asio6detail14strand_service16shutdown_serviceEv
	.type	_ZN4asio6detail14strand_service16shutdown_serviceEv, %function
_ZN4asio6detail14strand_service16shutdown_serviceEv:
.LFB6417:
	.cfi_startproc
	.cfi_personality 0x9b,DW.ref.__gxx_personality_v0
	.cfi_lsda 0x1b,.LLSDA6417
	stp	x29, x30, [sp, -80]!
	.cfi_def_cfa_offset 80
	.cfi_offset 29, -80
	.cfi_offset 30, -72
	adrp	x1, :got:__stack_chk_guard
	mov	x29, sp
	ldr	x1, [x1, #:got_lo12:__stack_chk_guard]
	stp	x19, x20, [sp, 16]
	.cfi_offset 19, -64
	.cfi_offset 20, -56
	mov	x19, x0
	str	x21, [sp, 32]
	.cfi_offset 21, -48
	add	x21, x0, 48
	mov	x0, x21
	mov	x20, 0
	ldr	x2, [x1]
	str	x2, [sp, 72]
	mov	x2, 0
	bl	pthread_mutex_lock
	movi	v0.4s, 0
	add	x1, x19, 96
	add	x4, x19, 1640
	mov	x2, 0
	b	.L185
	.p2align 2,,3
.L207:
	str	x3, [x2]
.L183:
	ldr	x2, [x0, 88]
	str	q0, [x0, 80]
.L182:
	ldr	x3, [x0, 96]
	cbz	x3, .L181
	cbz	x2, .L190
	str	x3, [x2]
.L184:
	ldr	x2, [x0, 104]
	str	q0, [x0, 96]
.L181:
	add	x1, x1, 8
	cmp	x1, x4
	beq	.L206
.L185:
	ldr	x0, [x1]
	cbz	x0, .L181
	ldr	x3, [x0, 80]
	cbz	x3, .L182
	cbnz	x2, .L207
	mov	x20, x3
	b	.L183
	.p2align 2,,3
.L190:
	mov	x20, x3
	b	.L184
.L206:
	mov	x0, x21
	bl	pthread_mutex_unlock
	cbz	x20, .L180
	bl	_ZNSt3_V215system_categoryEv
	add	x21, sp, 56
	mov	x19, x0
	.p2align 3,,7
.L187:
	mov	x1, x20
	mov	x2, x21
	ldr	x4, [x20, 8]
	mov	x3, 0
	ldr	x20, [x20]
	str	xzr, [x1]
	str	wzr, [sp, 56]
	mov	x0, 0
	str	x19, [sp, 64]
	blr	x4
	cbnz	x20, .L187
.L180:
	adrp	x0, :got:__stack_chk_guard
	ldr	x0, [x0, #:got_lo12:__stack_chk_guard]
	ldr	x2, [sp, 72]
	ldr	x1, [x0]
	subs	x2, x2, x1
	mov	x1, 0
	bne	.L208
	ldp	x19, x20, [sp, 16]
	ldr	x21, [sp, 32]
	ldp	x29, x30, [sp], 80
	.cfi_remember_state
	.cfi_restore 30
	.cfi_restore 29
	.cfi_restore 21
	.cfi_restore 19
	.cfi_restore 20
	.cfi_def_cfa_offset 0
	ret
.L208:
	.cfi_restore_state
	bl	__stack_chk_fail
	.cfi_endproc
.LFE6417:
	.section	.gcc_except_table._ZN4asio6detail14strand_service16shutdown_serviceEv,"aG",@progbits,_ZN4asio6detail14strand_service16shutdown_serviceEv,comdat
.LLSDA6417:
	.byte	0xff
	.byte	0xff
	.byte	0x1
	.uleb128 .LLSDACSE6417-.LLSDACSB6417
.LLSDACSB6417:
.LLSDACSE6417:
	.section	.text._ZN4asio6detail14strand_service16shutdown_serviceEv,"axG",@progbits,_ZN4asio6detail14strand_service16shutdown_serviceEv,comdat
	.size	_ZN4asio6detail14strand_service16shutdown_serviceEv, .-_ZN4asio6detail14strand_service16shutdown_serviceEv
	.text
	.align	2
	.p2align 4,,11
	.type	_ZN4asio6detail13epoll_reactor12cancel_timerINS0_18chrono_time_traitsINSt6chrono3_V212steady_clockENS_11wait_traitsIS6_EEEEEEmRNS0_11timer_queueIT_EERNSC_14per_timer_dataEm.constprop.0.isra.0, %function
_ZN4asio6detail13epoll_reactor12cancel_timerINS0_18chrono_time_traitsINSt6chrono3_V212steady_clockENS_11wait_traitsIS6_EEEEEEmRNS0_11timer_queueIT_EERNSC_14per_timer_dataEm.constprop.0.isra.0:
.LFB9645:
	.cfi_startproc
	stp	x29, x30, [sp, -144]!
	.cfi_def_cfa_offset 144
	.cfi_offset 29, -144
	.cfi_offset 30, -136
	adrp	x3, :got:__stack_chk_guard
	mov	x29, sp
	ldr	x3, [x3, #:got_lo12:__stack_chk_guard]
	stp	x19, x20, [sp, 16]
	.cfi_offset 19, -128
	.cfi_offset 20, -120
	mov	x20, x0
	stp	x21, x22, [sp, 32]
	.cfi_offset 21, -112
	.cfi_offset 22, -104
	mov	x22, x1
	stp	x23, x24, [sp, 48]
	.cfi_offset 23, -96
	.cfi_offset 24, -88
	add	x24, x0, 48
	mov	x0, x24
	stp	x27, x28, [sp, 80]
	.cfi_offset 27, -64
	.cfi_offset 28, -56
	mov	x27, x2
	ldr	x1, [x3]
	str	x1, [sp, 136]
	mov	x1, 0
	bl	pthread_mutex_lock
	ldr	x0, [x27, 32]
	cbz	x0, .L287
.L210:
	ldr	x19, [x27]
	adrp	x23, __dso_handle
	adrp	x28, :got:_ZGVZN4asio15system_categoryEvE8instance
	add	x0, x23, :lo12:__dso_handle
	stp	x25, x26, [sp, 64]
	.cfi_offset 26, -72
	.cfi_offset 25, -80
	mov	x21, 0
	mov	x25, -1
	str	x0, [sp, 104]
	mov	x26, 0
	ldr	x28, [x28, #:got_lo12:_ZGVZN4asio15system_categoryEvE8instance]
	adrp	x23, :got:_ZZN4asio15system_categoryEvE8instance
	cbz	x19, .L212
	.p2align 3,,7
.L291:
	ldar	x0, [x28]
	tbz	x0, 0, .L288
.L214:
	ldr	x4, [x27]
	mov	w0, 125
	ldr	x3, [x23, #:got_lo12:_ZZN4asio15system_categoryEvE8instance]
	str	w0, [x19, 24]
	str	x3, [x19, 32]
	mov	x3, 0
	cbz	x4, .L216
	ldr	x3, [x4]
	str	x3, [x27]
	cbz	x3, .L289
.L217:
	str	xzr, [x4]
.L216:
	str	xzr, [x19]
	cbz	x26, .L249
	str	x19, [x26]
	subs	x25, x25, #1
	mov	x26, x19
	beq	.L290
.L250:
	mov	x19, x3
	cbnz	x19, .L291
.L212:
	ldp	x1, x0, [x22, 24]
	ldr	x8, [x27, 16]
	cmp	x1, x0
	beq	.L222
	sub	x3, x0, x1
	asr	x2, x3, 4
	cmp	x8, x2
	bcs	.L222
	sub	x4, x2, #1
	sub	x0, x0, #16
	cmp	x8, x4
	beq	.L292
	sub	x6, x3, #16
	lsl	x7, x8, 4
	add	x10, x1, x6
	add	x5, x1, x7
	ldr	x11, [x1, x7]
	ldp	x2, x3, [x10]
	ldr	x9, [x5, 8]
	stp	x2, x3, [x5]
	str	x11, [x1, x6]
	str	x9, [x10, 8]
	ldr	x2, [x5, 8]
	str	x8, [x2, 16]
	str	x4, [x9, 16]
	str	x0, [x22, 32]
	cbz	x8, .L225
	sub	x4, x8, #1
	ldr	x9, [x1, x7]
	lsr	x4, x4, 1
	lsl	x2, x4, 4
	add	x6, x1, x2
	ldr	x2, [x1, x2]
	cmp	x9, x2
	blt	.L226
.L225:
	sub	x5, x0, x1
	lsl	x0, x8, 1
	add	x0, x0, 1
	asr	x5, x5, 4
	cmp	x0, x5
	bcs	.L222
	ldr	x10, [x1, x7]
	b	.L228
	.p2align 2,,3
.L293:
	add	x2, x2, 16
	add	x9, x1, x2
	ldr	x2, [x1, x2]
	cmp	x2, x3
	bgt	.L252
	mov	x3, x2
	mov	x6, x9
.L227:
	add	x7, x1, x7
	cmp	x10, x3
	blt	.L222
	ldp	x2, x3, [x6]
	lsl	x0, x4, 1
	ldr	x9, [x7, 8]
	stp	x2, x3, [x7]
	add	x0, x0, 1
	stp	x10, x9, [x6]
	ldr	x2, [x7, 8]
	str	x8, [x2, 16]
	str	x4, [x9, 16]
	cmp	x0, x5
	bcs	.L222
	mov	x8, x4
	lsl	x7, x4, 4
.L228:
	lsl	x2, x0, 4
	add	x4, x0, 1
	add	x6, x1, x2
	ldr	x3, [x1, x2]
	cmp	x4, x5
	bne	.L293
.L252:
	mov	x4, x0
	b	.L227
	.p2align 2,,3
.L289:
	str	xzr, [x27, 8]
	b	.L217
	.p2align 2,,3
.L288:
	mov	x0, x28
	bl	__cxa_guard_acquire
	cbz	w0, .L214
	adrp	x0, :got:_ZN4asio6detail15system_categoryD1Ev
	ldr	x1, [x23, #:got_lo12:_ZZN4asio15system_categoryEvE8instance]
	ldr	x0, [x0, #:got_lo12:_ZN4asio6detail15system_categoryD1Ev]
	ldr	x2, [sp, 104]
	bl	__cxa_atexit
	mov	x0, x28
	bl	__cxa_guard_release
	b	.L214
	.p2align 2,,3
.L249:
	mov	x21, x19
	subs	x25, x25, #1
	mov	x26, x19
	bne	.L250
.L290:
	cbz	x3, .L212
.L220:
	mov	x0, x24
	bl	pthread_mutex_unlock
	ldr	x20, [x20, 40]
	cbz	x21, .L209
	ldrb	w0, [x20, 40]
	cbz	w0, .L234
	adrp	x0, :got:_ZN4asio6detail10call_stackINS0_15task_io_serviceENS0_27task_io_service_thread_infoEE4top_E
	ldr	x0, [x0, #:got_lo12:_ZN4asio6detail10call_stackINS0_15task_io_serviceENS0_27task_io_service_thread_infoEE4top_E]
	ldr	w0, [x0]
	bl	pthread_getspecific
	cbnz	x0, .L237
	b	.L234
	.p2align 2,,3
.L235:
	ldr	x0, [x0, 16]
	cbz	x0, .L234
.L237:
	ldr	x1, [x0]
	cmp	x20, x1
	bne	.L235
	ldr	x0, [x0, 8]
	cbz	x0, .L234
	ldr	x2, [x0, 16]
	add	x1, x0, 8
	cbz	x2, .L238
	str	x21, [x2]
.L239:
	str	x19, [x1, 8]
.L209:
	adrp	x0, :got:__stack_chk_guard
	ldr	x0, [x0, #:got_lo12:__stack_chk_guard]
	ldr	x2, [sp, 136]
	ldr	x1, [x0]
	subs	x2, x2, x1
	mov	x1, 0
	bne	.L286
	ldp	x19, x20, [sp, 16]
	ldp	x21, x22, [sp, 32]
	ldp	x23, x24, [sp, 48]
	ldp	x25, x26, [sp, 64]
	.cfi_remember_state
	.cfi_restore 26
	.cfi_restore 25
	ldp	x27, x28, [sp, 80]
	ldp	x29, x30, [sp], 144
	.cfi_restore 30
	.cfi_restore 29
	.cfi_restore 27
	.cfi_restore 28
	.cfi_restore 23
	.cfi_restore 24
	.cfi_restore 21
	.cfi_restore 22
	.cfi_restore 19
	.cfi_restore 20
	.cfi_def_cfa_offset 0
	ret
	.p2align 2,,3
.L234:
	.cfi_restore_state
	add	x22, x20, 48
	mov	x0, x22
	bl	pthread_mutex_lock
	ldr	x1, [x20, 208]
	add	x0, x20, 200
	cbz	x1, .L240
	str	x21, [x1]
.L241:
	ldr	x1, [x20, 144]
	str	x19, [x0, 8]
	add	x21, x20, 96
	orr	x1, x1, 1
	str	x1, [x21, 48]
	cmp	x1, 1
	beq	.L242
	mov	x0, x22
	bl	pthread_mutex_unlock
	adrp	x0, :got:__stack_chk_guard
	ldr	x0, [x0, #:got_lo12:__stack_chk_guard]
	ldr	x2, [sp, 136]
	ldr	x1, [x0]
	subs	x2, x2, x1
	mov	x1, 0
	bne	.L286
	mov	x0, x21
	ldp	x19, x20, [sp, 16]
	ldp	x21, x22, [sp, 32]
	ldp	x23, x24, [sp, 48]
	ldp	x25, x26, [sp, 64]
	.cfi_remember_state
	.cfi_restore 26
	.cfi_restore 25
	ldp	x27, x28, [sp, 80]
	ldp	x29, x30, [sp], 144
	.cfi_restore 30
	.cfi_restore 29
	.cfi_restore 27
	.cfi_restore 28
	.cfi_restore 23
	.cfi_restore 24
	.cfi_restore 21
	.cfi_restore 22
	.cfi_restore 19
	.cfi_restore 20
	.cfi_def_cfa_offset 0
	b	pthread_cond_signal
	.p2align 2,,3
.L242:
	.cfi_restore_state
	ldrb	w0, [x20, 184]
	cbz	w0, .L294
.L244:
	adrp	x0, :got:__stack_chk_guard
	ldr	x0, [x0, #:got_lo12:__stack_chk_guard]
	ldr	x2, [sp, 136]
	ldr	x1, [x0]
	subs	x2, x2, x1
	mov	x1, 0
	bne	.L286
	ldp	x25, x26, [sp, 64]
	.cfi_restore 26
	.cfi_restore 25
	mov	x0, x22
.L285:
	ldp	x19, x20, [sp, 16]
	ldp	x21, x22, [sp, 32]
	ldp	x23, x24, [sp, 48]
	ldp	x27, x28, [sp, 80]
	ldp	x29, x30, [sp], 144
	.cfi_remember_state
	.cfi_restore 30
	.cfi_restore 29
	.cfi_restore 27
	.cfi_restore 28
	.cfi_restore 23
	.cfi_restore 24
	.cfi_restore 21
	.cfi_restore 22
	.cfi_restore 19
	.cfi_restore 20
	.cfi_def_cfa_offset 0
	b	pthread_mutex_unlock
	.p2align 2,,3
.L287:
	.cfi_restore_state
	ldr	x0, [x22, 16]
	cmp	x27, x0
	beq	.L210
	adrp	x0, :got:__stack_chk_guard
	ldr	x0, [x0, #:got_lo12:__stack_chk_guard]
	ldr	x2, [sp, 136]
	ldr	x1, [x0]
	subs	x2, x2, x1
	mov	x1, 0
	mov	x0, x24
	beq	.L285
	stp	x25, x26, [sp, 64]
	.cfi_offset 26, -72
	.cfi_offset 25, -80
	bl	__stack_chk_fail
	.p2align 2,,3
.L294:
	ldr	x3, [x20, 152]
	cbz	x3, .L244
	ldr	w2, [x3, 96]
	add	x4, x3, 96
	ldr	w0, [x3, 104]
	mov	w5, 9
	movk	w5, 0x8000, lsl 16
	strb	w1, [x20, 184]
	add	x3, sp, 120
	mov	w1, 3
	str	w5, [sp, 120]
	str	x4, [sp, 128]
	bl	epoll_ctl
	b	.L244
	.p2align 2,,3
.L240:
	str	x21, [x20, 200]
	b	.L241
.L292:
	str	x0, [x22, 32]
	.p2align 3,,7
.L222:
	ldr	x1, [x22, 16]
	ldr	x0, [x27, 24]
	cmp	x27, x1
	beq	.L295
.L230:
	ldr	x1, [x27, 32]
	cbz	x1, .L231
	str	x0, [x1, 24]
	ldr	x0, [x27, 24]
.L231:
	cbz	x0, .L232
	str	x1, [x0, 32]
.L232:
	mov	x19, x26
	stp	xzr, xzr, [x27, 24]
	b	.L220
.L226:
	ldp	x2, x3, [x6]
	ldr	x0, [x5, 8]
	stp	x2, x3, [x5]
	stp	x9, x0, [x6]
	ldr	x2, [x5, 8]
	str	x8, [x2, 16]
	str	x4, [x0, 16]
	cbz	x4, .L222
	sub	x2, x4, #1
	lsl	x0, x4, 4
	mov	x8, x4
	add	x5, x1, x0
	lsr	x4, x2, 1
	ldr	x9, [x1, x0]
	lsl	x0, x4, 4
	add	x6, x1, x0
	ldr	x0, [x1, x0]
	cmp	x9, x0
	blt	.L226
	b	.L222
	.p2align 2,,3
.L295:
	str	x0, [x22, 16]
	b	.L230
.L238:
	str	x21, [x0, 8]
	b	.L239
.L286:
	bl	__stack_chk_fail
	.cfi_endproc
.LFE9645:
	.size	_ZN4asio6detail13epoll_reactor12cancel_timerINS0_18chrono_time_traitsINSt6chrono3_V212steady_clockENS_11wait_traitsIS6_EEEEEEmRNS0_11timer_queueIT_EERNSC_14per_timer_dataEm.constprop.0.isra.0, .-_ZN4asio6detail13epoll_reactor12cancel_timerINS0_18chrono_time_traitsINSt6chrono3_V212steady_clockENS_11wait_traitsIS6_EEEEEEmRNS0_11timer_queueIT_EERNSC_14per_timer_dataEm.constprop.0.isra.0
	.section	.text._ZNSt23_Sp_counted_ptr_inplaceIN7asiopal5TimerESaIS1_ELN9__gnu_cxx12_Lock_policyE2EE10_M_disposeEv,"axG",@progbits,_ZNSt23_Sp_counted_ptr_inplaceIN7asiopal5TimerESaIS1_ELN9__gnu_cxx12_Lock_policyE2EE10_M_disposeEv,comdat
	.align	2
	.p2align 4,,11
	.weak	_ZNSt23_Sp_counted_ptr_inplaceIN7asiopal5TimerESaIS1_ELN9__gnu_cxx12_Lock_policyE2EE10_M_disposeEv
	.type	_ZNSt23_Sp_counted_ptr_inplaceIN7asiopal5TimerESaIS1_ELN9__gnu_cxx12_Lock_policyE2EE10_M_disposeEv, %function
_ZNSt23_Sp_counted_ptr_inplaceIN7asiopal5TimerESaIS1_ELN9__gnu_cxx12_Lock_policyE2EE10_M_disposeEv:
.LFB9540:
	.cfi_startproc
	.cfi_personality 0x9b,DW.ref.__gxx_personality_v0
	.cfi_lsda 0x1b,.LLSDA9540
	stp	x29, x30, [sp, -80]!
	.cfi_def_cfa_offset 80
	.cfi_offset 29, -80
	.cfi_offset 30, -72
	adrp	x2, :got:__stack_chk_guard
	adrp	x1, :got:_ZTVN7asiopal5TimerE
	mov	x29, sp
	ldr	x2, [x2, #:got_lo12:__stack_chk_guard]
	stp	x19, x20, [sp, 16]
	.cfi_offset 19, -64
	.cfi_offset 20, -56
	mov	x19, x0
	ldr	x1, [x1, #:got_lo12:_ZTVN7asiopal5TimerE]
	stp	x21, x22, [sp, 32]
	.cfi_offset 21, -48
	.cfi_offset 22, -40
	add	x1, x1, 16
	ldr	x0, [x2]
	str	x0, [sp, 72]
	mov	x0, 0
	str	x1, [x19, 16]
	ldr	x21, [x19, 24]
	bl	_ZNSt3_V215system_categoryEv
	ldrb	w1, [x19, 40]
	mov	x20, x0
	cbz	w1, .L297
	ldr	x0, [x21, 88]
	add	x1, x21, 40
	add	x2, x19, 48
	bl	_ZN4asio6detail13epoll_reactor12cancel_timerINS0_18chrono_time_traitsINSt6chrono3_V212steady_clockENS_11wait_traitsIS6_EEEEEEmRNS0_11timer_queueIT_EERNSC_14per_timer_dataEm.constprop.0.isra.0
	strb	wzr, [x19, 40]
.L297:
	ldr	x1, [x19, 48]
	cbz	x1, .L296
	add	x19, x19, 48
	add	x21, sp, 56
	b	.L301
	.p2align 2,,3
.L299:
	ldr	x4, [x1, 8]
	str	xzr, [x1]
	str	wzr, [sp, 56]
	mov	x2, x21
	str	x20, [sp, 64]
	mov	x3, 0
	mov	x0, 0
	blr	x4
	ldr	x1, [x19]
	cbz	x1, .L296
.L301:
	ldr	x3, [x1]
	str	x3, [x19]
	cbnz	x3, .L299
	ldr	x4, [x1, 8]
	str	xzr, [x19, 8]
	str	xzr, [x1]
	mov	x2, x21
	str	wzr, [sp, 56]
	mov	x0, 0
	str	x20, [sp, 64]
	blr	x4
	ldr	x1, [x19]
	cbnz	x1, .L301
.L296:
	adrp	x0, :got:__stack_chk_guard
	ldr	x0, [x0, #:got_lo12:__stack_chk_guard]
	ldr	x2, [sp, 72]
	ldr	x1, [x0]
	subs	x2, x2, x1
	mov	x1, 0
	bne	.L318
	ldp	x19, x20, [sp, 16]
	ldp	x21, x22, [sp, 32]
	ldp	x29, x30, [sp], 80
	.cfi_remember_state
	.cfi_restore 30
	.cfi_restore 29
	.cfi_restore 21
	.cfi_restore 22
	.cfi_restore 19
	.cfi_restore 20
	.cfi_def_cfa_offset 0
	ret
.L318:
	.cfi_restore_state
	bl	__stack_chk_fail
	.cfi_endproc
.LFE9540:
	.section	.gcc_except_table._ZNSt23_Sp_counted_ptr_inplaceIN7asiopal5TimerESaIS1_ELN9__gnu_cxx12_Lock_policyE2EE10_M_disposeEv,"aG",@progbits,_ZNSt23_Sp_counted_ptr_inplaceIN7asiopal5TimerESaIS1_ELN9__gnu_cxx12_Lock_policyE2EE10_M_disposeEv,comdat
.LLSDA9540:
	.byte	0xff
	.byte	0xff
	.byte	0x1
	.uleb128 .LLSDACSE9540-.LLSDACSB9540
.LLSDACSB9540:
.LLSDACSE9540:
	.section	.text._ZNSt23_Sp_counted_ptr_inplaceIN7asiopal5TimerESaIS1_ELN9__gnu_cxx12_Lock_policyE2EE10_M_disposeEv,"axG",@progbits,_ZNSt23_Sp_counted_ptr_inplaceIN7asiopal5TimerESaIS1_ELN9__gnu_cxx12_Lock_policyE2EE10_M_disposeEv,comdat
	.size	_ZNSt23_Sp_counted_ptr_inplaceIN7asiopal5TimerESaIS1_ELN9__gnu_cxx12_Lock_policyE2EE10_M_disposeEv, .-_ZNSt23_Sp_counted_ptr_inplaceIN7asiopal5TimerESaIS1_ELN9__gnu_cxx12_Lock_policyE2EE10_M_disposeEv
	.global	__aarch64_swp4_sync
	.global	__aarch64_swp4_rel
	.text
	.align	2
	.p2align 4,,11
	.type	_ZN4asio6detail18completion_handlerIZN7asiopal8Executor10BlockUntilERKSt8functionIFvvEEEUlvE_E11do_completeEPNS0_15task_io_serviceEPNS0_25task_io_service_operationERKSt10error_codem, %function
_ZN4asio6detail18completion_handlerIZN7asiopal8Executor10BlockUntilERKSt8functionIFvvEEEUlvE_E11do_completeEPNS0_15task_io_serviceEPNS0_25task_io_service_operationERKSt10error_codem:
.LFB8764:
	.cfi_startproc
	.cfi_personality 0x9b,DW.ref.__gxx_personality_v0
	.cfi_lsda 0x1b,.LLSDA8764
	stp	x29, x30, [sp, -192]!
	.cfi_def_cfa_offset 192
	.cfi_offset 29, -192
	.cfi_offset 30, -184
	adrp	x3, :got:_ZN4asio6detail10call_stackINS0_15task_io_serviceENS0_27task_io_service_thread_infoEE4top_E
	adrp	x2, :got:__stack_chk_guard
	mov	x29, sp
	ldr	x3, [x3, #:got_lo12:_ZN4asio6detail10call_stackINS0_15task_io_serviceENS0_27task_io_service_thread_infoEE4top_E]
	stp	x19, x20, [sp, 16]
	.cfi_offset 19, -176
	.cfi_offset 20, -168
	mov	x20, x0
	ldr	x2, [x2, #:got_lo12:__stack_chk_guard]
	stp	x21, x22, [sp, 32]
	ldr	w0, [x3]
	mov	x19, x1
	ldr	x1, [x2]
	str	x1, [sp, 184]
	mov	x1, 0
	.cfi_offset 21, -160
	.cfi_offset 22, -152
	ldp	x21, x22, [x19, 24]
	bl	pthread_getspecific
	cbz	x0, .L320
	ldr	x0, [x0, 8]
	cbz	x0, .L320
	ldr	x1, [x0]
	cbz	x1, .L354
.L320:
	mov	x0, x19
	bl	_ZdlPv
.L321:
	cbz	x20, .L319
	str	x23, [sp, 48]
	.cfi_offset 23, -144
	add	x23, sp, 72
	mov	x1, x23
	mov	w0, 1
	str	wzr, [sp, 72]
	bl	__aarch64_swp4_sync
	ldr	x0, [x21, 16]
	cbz	x0, .L355
	ldr	x1, [x21, 24]
	mov	x0, x21
.LEHB2:
	blr	x1
.LEHE2:
	ldr	x19, [x22]
	mov	w0, 1
	strb	w0, [sp, 70]
	cbz	x19, .L356
	adrp	x0, :tlsdesc:_ZSt15__once_callable
	ldr	x5, [x0, #:tlsdesc_lo12:_ZSt15__once_callable]
	add	x0, x0, :tlsdesc_lo12:_ZSt15__once_callable
	.tlsdesccall	_ZSt15__once_callable
	blr	x5
	mrs	x20, tpidr_el0
	add	x5, sp, 120
	adrp	x6, :got:_ZNSt13__future_base13_State_baseV29_M_do_setEPSt8functionIFSt10unique_ptrINS_12_Result_baseENS3_8_DeleterEEvEEPb
	adrp	x1, :got:__once_proxy
	adrp	x2, :got:_ZZNSt9once_flag18_Prepare_executionC4IZSt9call_onceIMNSt13__future_base13_State_baseV2EFvPSt8functionIFSt10unique_ptrINS3_12_Result_baseENS7_8_DeleterEEvEEPbEJPS4_SC_SD_EEvRS_OT_DpOT0_EUlvE_EERSI_ENUlvE_4_FUNEv
	adrp	x3, :got:_ZNSt17_Function_handlerIFSt10unique_ptrINSt13__future_base12_Result_baseENS2_8_DeleterEEvENS1_13_State_baseV27_SetterIbObEEE9_M_invokeERKSt9_Any_data
	adrp	x4, :got:_ZNSt17_Function_handlerIFSt10unique_ptrINSt13__future_base12_Result_baseENS2_8_DeleterEEvENS1_13_State_baseV27_SetterIbObEEE10_M_managerERSt9_Any_dataRKSB_St18_Manager_operation
	ldr	x10, [x6, #:got_lo12:_ZNSt13__future_base13_State_baseV29_M_do_setEPSt8functionIFSt10unique_ptrINS_12_Result_baseENS3_8_DeleterEEvEEPb]
	str	x5, [x20, x0]
	ldr	x2, [x2, #:got_lo12:_ZZNSt9once_flag18_Prepare_executionC4IZSt9call_onceIMNSt13__future_base13_State_baseV2EFvPSt8functionIFSt10unique_ptrINS3_12_Result_baseENS7_8_DeleterEEvEEPbEJPS4_SC_SD_EEvRS_OT_DpOT0_EUlvE_EERSI_ENUlvE_4_FUNEv]
	adrp	x0, :tlsdesc:_ZSt11__once_call
	ldr	x5, [x0, #:tlsdesc_lo12:_ZSt11__once_call]
	add	x0, x0, :tlsdesc_lo12:_ZSt11__once_call
	.tlsdesccall	_ZSt11__once_call
	blr	x5
	ldr	x3, [x3, #:got_lo12:_ZNSt17_Function_handlerIFSt10unique_ptrINSt13__future_base12_Result_baseENS2_8_DeleterEEvENS1_13_State_baseV27_SetterIbObEEE9_M_invokeERKSt9_Any_data]
	add	x5, sp, 70
	ldr	x4, [x4, #:got_lo12:_ZNSt17_Function_handlerIFSt10unique_ptrINSt13__future_base12_Result_baseENS2_8_DeleterEEvENS1_13_State_baseV27_SetterIbObEEE10_M_managerERSt9_Any_dataRKSB_St18_Manager_operation]
	add	x11, sp, 71
	ldr	x1, [x1, #:got_lo12:__once_proxy]
	add	x9, sp, 104
	add	x8, sp, 96
	add	x7, sp, 88
	add	x6, sp, 80
	add	x21, sp, 152
	str	x2, [x20, x0]
	add	x0, x19, 24
	strb	wzr, [sp, 71]
	stp	x11, x21, [sp, 80]
	stp	x19, x10, [sp, 96]
	stp	xzr, x9, [sp, 112]
	stp	x8, x7, [sp, 128]
	stp	x6, x22, [sp, 144]
	stp	x5, x4, [sp, 160]
	str	x3, [sp, 176]
.LEHB3:
	bl	pthread_once
.LEHE3:
	cbnz	w0, .L357
	ldrb	w1, [sp, 71]
	adrp	x0, :tlsdesc:_ZSt15__once_callable
	ldr	x2, [x0, #:tlsdesc_lo12:_ZSt15__once_callable]
	add	x0, x0, :tlsdesc_lo12:_ZSt15__once_callable
	.tlsdesccall	_ZSt15__once_callable
	blr	x2
	str	xzr, [x20, x0]
	adrp	x0, :tlsdesc:_ZSt11__once_call
	ldr	x2, [x0, #:tlsdesc_lo12:_ZSt11__once_call]
	add	x0, x0, :tlsdesc_lo12:_ZSt11__once_call
	.tlsdesccall	_ZSt11__once_call
	blr	x2
	str	xzr, [x20, x0]
	cbnz	w1, .L358
	mov	w0, 2
.LEHB4:
	bl	_ZSt20__throw_future_errori
.LEHE4:
	.p2align 2,,3
.L358:
	add	x19, x19, 16
	mov	w0, 1
	mov	x1, x19
	bl	__aarch64_swp4_rel
	tbnz	w0, #31, .L330
.L333:
	ldr	x3, [sp, 168]
	cbz	x3, .L332
	mov	x1, x21
	mov	x0, x21
	mov	w2, 3
	blr	x3
.L332:
	stlr	wzr, [x23]
	ldr	x23, [sp, 48]
	.cfi_restore 23
.L319:
	adrp	x0, :got:__stack_chk_guard
	ldr	x0, [x0, #:got_lo12:__stack_chk_guard]
	ldr	x2, [sp, 184]
	ldr	x1, [x0]
	subs	x2, x2, x1
	mov	x1, 0
	bne	.L359
	ldp	x19, x20, [sp, 16]
	ldp	x21, x22, [sp, 32]
	ldp	x29, x30, [sp], 192
	.cfi_restore 30
	.cfi_restore 29
	.cfi_restore 21
	.cfi_restore 22
	.cfi_restore 19
	.cfi_restore 20
	.cfi_def_cfa_offset 0
	ret
	.p2align 2,,3
.L330:
	.cfi_def_cfa_offset 192
	.cfi_offset 19, -176
	.cfi_offset 20, -168
	.cfi_offset 21, -160
	.cfi_offset 22, -152
	.cfi_offset 23, -144
	.cfi_offset 29, -192
	.cfi_offset 30, -184
	mov	x0, x19
.LEHB5:
	bl	_ZNSt28__atomic_futex_unsigned_base19_M_futex_notify_allEPj
.LEHE5:
	b	.L333
	.p2align 2,,3
.L354:
	.cfi_restore 23
	ldrb	w1, [x19, 40]
	strb	w1, [x19]
	str	x19, [x0]
	b	.L321
.L355:
	.cfi_offset 23, -144
.LEHB6:
	bl	_ZSt25__throw_bad_function_callv
.LEHE6:
.L357:
.LEHB7:
	bl	_ZSt20__throw_system_errori
.LEHE7:
.L356:
	mov	w0, 3
.LEHB8:
	bl	_ZSt20__throw_future_errori
.LEHE8:
.L359:
	.cfi_restore 23
	str	x23, [sp, 48]
	.cfi_offset 23, -144
	bl	__stack_chk_fail
.L338:
	mov	x19, x0
.L329:
	ldr	x3, [sp, 168]
	cbz	x3, .L334
	mov	x1, x21
	mov	x0, x21
	mov	w2, 3
	blr	x3
.L334:
	mov	x0, x19
.L335:
	stlr	wzr, [x23]
.LEHB9:
	bl	_Unwind_Resume
.LEHE9:
.L339:
	mov	x19, x0
	adrp	x0, :tlsdesc:_ZSt15__once_callable
	ldr	x1, [x0, #:tlsdesc_lo12:_ZSt15__once_callable]
	add	x0, x0, :tlsdesc_lo12:_ZSt15__once_callable
	.tlsdesccall	_ZSt15__once_callable
	blr	x1
	str	xzr, [x20, x0]
	adrp	x0, :tlsdesc:_ZSt11__once_call
	ldr	x1, [x0, #:tlsdesc_lo12:_ZSt11__once_call]
	add	x0, x0, :tlsdesc_lo12:_ZSt11__once_call
	.tlsdesccall	_ZSt11__once_call
	blr	x1
	str	xzr, [x20, x0]
	b	.L329
.L337:
	b	.L335
	.cfi_endproc
.LFE8764:
	.section	.gcc_except_table,"a",@progbits
.LLSDA8764:
	.byte	0xff
	.byte	0xff
	.byte	0x1
	.uleb128 .LLSDACSE8764-.LLSDACSB8764
.LLSDACSB8764:
	.uleb128 .LEHB2-.LFB8764
	.uleb128 .LEHE2-.LEHB2
	.uleb128 .L337-.LFB8764
	.uleb128 0
	.uleb128 .LEHB3-.LFB8764
	.uleb128 .LEHE3-.LEHB3
	.uleb128 .L339-.LFB8764
	.uleb128 0
	.uleb128 .LEHB4-.LFB8764
	.uleb128 .LEHE4-.LEHB4
	.uleb128 .L338-.LFB8764
	.uleb128 0
	.uleb128 .LEHB5-.LFB8764
	.uleb128 .LEHE5-.LEHB5
	.uleb128 .L338-.LFB8764
	.uleb128 0
	.uleb128 .LEHB6-.LFB8764
	.uleb128 .LEHE6-.LEHB6
	.uleb128 .L337-.LFB8764
	.uleb128 0
	.uleb128 .LEHB7-.LFB8764
	.uleb128 .LEHE7-.LEHB7
	.uleb128 .L339-.LFB8764
	.uleb128 0
	.uleb128 .LEHB8-.LFB8764
	.uleb128 .LEHE8-.LEHB8
	.uleb128 .L337-.LFB8764
	.uleb128 0
	.uleb128 .LEHB9-.LFB8764
	.uleb128 .LEHE9-.LEHB9
	.uleb128 0
	.uleb128 0
.LLSDACSE8764:
	.text
	.size	_ZN4asio6detail18completion_handlerIZN7asiopal8Executor10BlockUntilERKSt8functionIFvvEEEUlvE_E11do_completeEPNS0_15task_io_serviceEPNS0_25task_io_service_operationERKSt10error_codem, .-_ZN4asio6detail18completion_handlerIZN7asiopal8Executor10BlockUntilERKSt8functionIFvvEEEUlvE_E11do_completeEPNS0_15task_io_serviceEPNS0_25task_io_service_operationERKSt10error_codem
	.section	.rodata._ZNK4asio6detail15system_category7messageB5cxx11Ei.str1.8,"aMS",@progbits,1
	.align	3
.LC4:
	.string	"Operation aborted."
	.align	3
.LC5:
	.string	"basic_string::_M_construct null not valid"
	.section	.text._ZNK4asio6detail15system_category7messageB5cxx11Ei,"axG",@progbits,_ZNK4asio6detail15system_category7messageB5cxx11Ei,comdat
	.align	2
	.p2align 4,,11
	.weak	_ZNK4asio6detail15system_category7messageB5cxx11Ei
	.type	_ZNK4asio6detail15system_category7messageB5cxx11Ei, %function
_ZNK4asio6detail15system_category7messageB5cxx11Ei:
.LFB2269:
	.cfi_startproc
	stp	x29, x30, [sp, -320]!
	.cfi_def_cfa_offset 320
	.cfi_offset 29, -320
	.cfi_offset 30, -312
	adrp	x0, :got:__stack_chk_guard
	mov	x29, sp
	ldr	x2, [x0, #:got_lo12:__stack_chk_guard]
	stp	x19, x20, [sp, 16]
	mov	w0, w1
	stp	x21, x22, [sp, 32]
	.cfi_offset 19, -304
	.cfi_offset 20, -296
	.cfi_offset 21, -288
	.cfi_offset 22, -280
	mov	x19, x8
	add	x21, x8, 16
	ldr	x1, [x2]
	str	x1, [sp, 312]
	mov	x1, 0
	cmp	w0, 125
	beq	.L375
	movi	v0.4s, 0
	add	x3, sp, 72
	add	x1, sp, 56
	mov	x2, 256
	stp	xzr, xzr, [sp, 56]
	stp	q0, q0, [x3]
	stp	q0, q0, [x3, 32]
	stp	q0, q0, [x3, 64]
	stp	q0, q0, [x3, 96]
	stp	q0, q0, [x3, 128]
	stp	q0, q0, [x3, 160]
	stp	q0, q0, [x3, 192]
	str	q0, [x3, 224]
	bl	strerror_r
	mov	x22, x0
	str	x21, [x19]
	cbz	x0, .L363
	bl	strlen
	str	x0, [sp, 48]
	mov	x20, x0
	cmp	x0, 15
	bhi	.L376
	cmp	x0, 1
	bne	.L367
	ldrb	w0, [x22]
	strb	w0, [x19, 16]
.L368:
	str	x20, [x19, 8]
	strb	wzr, [x21, x20]
.L360:
	adrp	x0, :got:__stack_chk_guard
	ldr	x0, [x0, #:got_lo12:__stack_chk_guard]
	ldr	x2, [sp, 312]
	ldr	x1, [x0]
	subs	x2, x2, x1
	mov	x1, 0
	bne	.L377
	mov	x0, x19
	ldp	x19, x20, [sp, 16]
	ldp	x21, x22, [sp, 32]
	ldp	x29, x30, [sp], 320
	.cfi_remember_state
	.cfi_restore 30
	.cfi_restore 29
	.cfi_restore 21
	.cfi_restore 22
	.cfi_restore 19
	.cfi_restore 20
	.cfi_def_cfa_offset 0
	ret
	.p2align 2,,3
.L376:
	.cfi_restore_state
	add	x1, sp, 48
	mov	x0, x19
	mov	x2, 0
	bl	_ZNSt7__cxx1112basic_stringIcSt11char_traitsIcESaIcEE9_M_createERmm
	mov	x21, x0
	str	x0, [x19]
	ldr	x1, [sp, 48]
	str	x1, [x19, 16]
.L366:
	mov	x2, x20
	mov	x0, x21
	mov	x1, x22
	bl	memcpy
	ldr	x21, [x19]
	ldr	x20, [sp, 48]
	b	.L368
	.p2align 2,,3
.L375:
	mov	x3, 18
	str	x21, [x8]
	add	x1, sp, 48
	mov	x2, 0
	mov	x0, x8
	str	x3, [sp, 48]
	bl	_ZNSt7__cxx1112basic_stringIcSt11char_traitsIcESaIcEE9_M_createERmm
	str	x0, [x19]
	adrp	x1, .LC4
	add	x1, x1, :lo12:.LC4
	ldr	x2, [sp, 48]
	str	x2, [x19, 16]
	ldp	x2, x3, [x1]
	stp	x2, x3, [x0]
	ldrh	w1, [x1, 16]
	strh	w1, [x0, 16]
	ldr	x1, [x19]
	ldr	x0, [sp, 48]
	str	x0, [x19, 8]
	strb	wzr, [x1, x0]
	b	.L360
	.p2align 2,,3
.L367:
	cbz	x0, .L368
	b	.L366
.L363:
	adrp	x0, .LC5
	add	x0, x0, :lo12:.LC5
	bl	_ZSt19__throw_logic_errorPKc
.L377:
	bl	__stack_chk_fail
	.cfi_endproc
.LFE2269:
	.size	_ZNK4asio6detail15system_category7messageB5cxx11Ei, .-_ZNK4asio6detail15system_category7messageB5cxx11Ei
	.section	.rodata._ZNK4asio5error6detail17addrinfo_category7messageB5cxx11Ei.str1.8,"aMS",@progbits,1
	.align	3
.LC6:
	.string	"Service not found"
	.align	3
.LC7:
	.string	"Socket type not supported"
	.align	3
.LC8:
	.string	"asio.addrinfo error"
	.section	.text._ZNK4asio5error6detail17addrinfo_category7messageB5cxx11Ei,"axG",@progbits,_ZNK4asio5error6detail17addrinfo_category7messageB5cxx11Ei,comdat
	.align	2
	.p2align 4,,11
	.weak	_ZNK4asio5error6detail17addrinfo_category7messageB5cxx11Ei
	.type	_ZNK4asio5error6detail17addrinfo_category7messageB5cxx11Ei, %function
_ZNK4asio5error6detail17addrinfo_category7messageB5cxx11Ei:
.LFB2296:
	.cfi_startproc
	stp	x29, x30, [sp, -48]!
	.cfi_def_cfa_offset 48
	.cfi_offset 29, -48
	.cfi_offset 30, -40
	adrp	x0, :got:__stack_chk_guard
	add	x2, x8, 16
	mov	x29, sp
	ldr	x0, [x0, #:got_lo12:__stack_chk_guard]
	str	x19, [sp, 16]
	.cfi_offset 19, -32
	mov	x19, x8
	ldr	x3, [x0]
	str	x3, [sp, 40]
	mov	x3, 0
	str	x2, [x8]
	cmn	w1, #8
	beq	.L384
	cmn	w1, #7
	beq	.L385
	mov	x3, 19
	add	x1, sp, 32
	mov	x2, 0
	mov	x0, x8
	str	x3, [sp, 32]
	bl	_ZNSt7__cxx1112basic_stringIcSt11char_traitsIcESaIcEE9_M_createERmm
	adrp	x1, .LC8
	add	x1, x1, :lo12:.LC8
	ldr	x2, [sp, 32]
	str	x0, [x19]
	str	x2, [x19, 16]
	ldp	x2, x3, [x1]
	stp	x2, x3, [x0]
	ldr	w1, [x1, 15]
	str	w1, [x0, 15]
	ldr	x1, [x19]
	ldr	x0, [sp, 32]
	str	x0, [x19, 8]
	strb	wzr, [x1, x0]
.L378:
	adrp	x0, :got:__stack_chk_guard
	ldr	x0, [x0, #:got_lo12:__stack_chk_guard]
	ldr	x2, [sp, 40]
	ldr	x1, [x0]
	subs	x2, x2, x1
	mov	x1, 0
	bne	.L386
	mov	x0, x19
	ldr	x19, [sp, 16]
	ldp	x29, x30, [sp], 48
	.cfi_remember_state
	.cfi_restore 30
	.cfi_restore 29
	.cfi_restore 19
	.cfi_def_cfa_offset 0
	ret
	.p2align 2,,3
.L385:
	.cfi_restore_state
	mov	x3, 25
	add	x1, sp, 32
	mov	x2, 0
	mov	x0, x8
	str	x3, [sp, 32]
	bl	_ZNSt7__cxx1112basic_stringIcSt11char_traitsIcESaIcEE9_M_createERmm
	adrp	x1, .LC7
	add	x1, x1, :lo12:.LC7
	ldr	x2, [sp, 32]
	str	x0, [x19]
	ldr	q1, [x1]
	str	x2, [x19, 16]
	ldr	q0, [x1, 9]
	str	q1, [x0]
	str	q0, [x0, 9]
	ldr	x1, [x19]
	ldr	x0, [sp, 32]
	str	x0, [x19, 8]
	strb	wzr, [x1, x0]
	b	.L378
	.p2align 2,,3
.L384:
	mov	x3, 17
	add	x1, sp, 32
	mov	x2, 0
	mov	x0, x8
	str	x3, [sp, 32]
	bl	_ZNSt7__cxx1112basic_stringIcSt11char_traitsIcESaIcEE9_M_createERmm
	adrp	x1, .LC6
	add	x1, x1, :lo12:.LC6
	ldr	x2, [sp, 32]
	str	x0, [x19]
	str	x2, [x19, 16]
	ldp	x2, x3, [x1]
	stp	x2, x3, [x0]
	ldrb	w1, [x1, 16]
	strb	w1, [x0, 16]
	ldr	x1, [x19]
	ldr	x0, [sp, 32]
	str	x0, [x19, 8]
	strb	wzr, [x1, x0]
	b	.L378
.L386:
	bl	__stack_chk_fail
	.cfi_endproc
.LFE2296:
	.size	_ZNK4asio5error6detail17addrinfo_category7messageB5cxx11Ei, .-_ZNK4asio5error6detail17addrinfo_category7messageB5cxx11Ei
	.global	__aarch64_ldadd4_acq_rel
	.section	.text.unlikely,"ax",@progbits
	.align	2
	.type	_ZZN7asiopal8Executor4PostERKSt8functionIFvvEEENUlvE_D2Ev, %function
_ZZN7asiopal8Executor4PostERKSt8functionIFvvEEENUlvE_D2Ev:
.LFB7050:
	.cfi_startproc
	.cfi_personality 0x9b,DW.ref.__gxx_personality_v0
	.cfi_lsda 0x1b,.LLSDA7050
	stp	x29, x30, [sp, -48]!
	.cfi_def_cfa_offset 48
	.cfi_offset 29, -48
	.cfi_offset 30, -40
	mov	x29, sp
	stp	x19, x20, [sp, 16]
	.cfi_offset 19, -32
	.cfi_offset 20, -24
	mov	x20, x0
	ldr	x19, [x0, 40]
	str	x21, [sp, 32]
	.cfi_offset 21, -16
	cbz	x19, .L389
	adrp	x0, :got:__libc_single_threaded
	mov	x21, x0
	ldr	x0, [x0, #:got_lo12:__libc_single_threaded]
	ldrb	w0, [x0]
	cbz	w0, .L390
	ldr	w0, [x19, 8]
	sub	w1, w0, #1
	str	w1, [x19, 8]
	b	.L391
.L390:
	add	x1, x19, 8
	mov	w0, -1
	bl	__aarch64_ldadd4_acq_rel
.L391:
	cmp	w0, 1
	bne	.L389
	ldr	x1, [x19]
	mov	x0, x19
	ldr	x1, [x1, 16]
	blr	x1
	ldr	x21, [x21, #:got_lo12:__libc_single_threaded]
	ldrb	w0, [x21]
	cbz	w0, .L393
	ldr	w0, [x19, 12]
	sub	w1, w0, #1
	str	w1, [x19, 12]
	b	.L394
.L393:
	add	x1, x19, 12
	mov	w0, -1
	bl	__aarch64_ldadd4_acq_rel
.L394:
	cmp	w0, 1
	bne	.L389
	ldr	x1, [x19]
	mov	x0, x19
	ldr	x1, [x1, 24]
	blr	x1
.L389:
	ldr	x3, [x20, 16]
	cbz	x3, .L387
	mov	x1, x20
	mov	x0, x20
	mov	w2, 3
	blr	x3
.L387:
	ldp	x19, x20, [sp, 16]
	ldr	x21, [sp, 32]
	ldp	x29, x30, [sp], 48
	.cfi_restore 30
	.cfi_restore 29
	.cfi_restore 21
	.cfi_restore 19
	.cfi_restore 20
	.cfi_def_cfa_offset 0
	ret
	.cfi_endproc
.LFE7050:
	.section	.gcc_except_table
.LLSDA7050:
	.byte	0xff
	.byte	0xff
	.byte	0x1
	.uleb128 .LLSDACSE7050-.LLSDACSB7050
.LLSDACSB7050:
.LLSDACSE7050:
	.section	.text.unlikely
	.size	_ZZN7asiopal8Executor4PostERKSt8functionIFvvEEENUlvE_D2Ev, .-_ZZN7asiopal8Executor4PostERKSt8functionIFvvEEENUlvE_D2Ev
	.set	_ZZN7asiopal8Executor4PostERKSt8functionIFvvEEENUlvE_D1Ev,_ZZN7asiopal8Executor4PostERKSt8functionIFvvEEENUlvE_D2Ev
	.section	.rodata._ZNK4asio5error6detail14netdb_category7messageB5cxx11Ei.str1.8,"aMS",@progbits,1
	.align	3
.LC9:
	.string	"Host not found (authoritative)"
	.align	3
.LC10:
	.string	"Host not found (non-authoritative), try again later"
	.align	3
.LC11:
	.string	"The query is valid, but it does not have associated data"
	.align	3
.LC12:
	.string	"A non-recoverable error occurred during database lookup"
	.align	3
.LC13:
	.string	"asio.netdb error"
	.section	.text._ZNK4asio5error6detail14netdb_category7messageB5cxx11Ei,"axG",@progbits,_ZNK4asio5error6detail14netdb_category7messageB5cxx11Ei,comdat
	.align	2
	.p2align 4,,11
	.weak	_ZNK4asio5error6detail14netdb_category7messageB5cxx11Ei
	.type	_ZNK4asio5error6detail14netdb_category7messageB5cxx11Ei, %function
_ZNK4asio5error6detail14netdb_category7messageB5cxx11Ei:
.LFB2290:
	.cfi_startproc
	stp	x29, x30, [sp, -48]!
	.cfi_def_cfa_offset 48
	.cfi_offset 29, -48
	.cfi_offset 30, -40
	adrp	x0, :got:__stack_chk_guard
	add	x2, x8, 16
	mov	x29, sp
	ldr	x0, [x0, #:got_lo12:__stack_chk_guard]
	str	x19, [sp, 16]
	.cfi_offset 19, -32
	mov	x19, x8
	ldr	x3, [x0]
	str	x3, [sp, 40]
	mov	x3, 0
	str	x2, [x8]
	cmp	w1, 1
	beq	.L409
	cmp	w1, 2
	beq	.L410
	cmp	w1, 4
	beq	.L411
	cmp	w1, 3
	beq	.L412
	mov	x3, 16
	add	x1, sp, 32
	mov	x2, 0
	mov	x0, x8
	str	x3, [sp, 32]
	bl	_ZNSt7__cxx1112basic_stringIcSt11char_traitsIcESaIcEE9_M_createERmm
	adrp	x1, .LC13
	add	x1, x1, :lo12:.LC13
	ldr	x2, [sp, 32]
	str	x0, [x19]
	str	x2, [x19, 16]
	ldp	x2, x3, [x1]
	stp	x2, x3, [x0]
	ldr	x1, [x19]
	ldr	x0, [sp, 32]
	str	x0, [x19, 8]
	strb	wzr, [x1, x0]
.L400:
	adrp	x0, :got:__stack_chk_guard
	ldr	x0, [x0, #:got_lo12:__stack_chk_guard]
	ldr	x2, [sp, 40]
	ldr	x1, [x0]
	subs	x2, x2, x1
	mov	x1, 0
	bne	.L413
	mov	x0, x19
	ldr	x19, [sp, 16]
	ldp	x29, x30, [sp], 48
	.cfi_remember_state
	.cfi_restore 30
	.cfi_restore 29
	.cfi_restore 19
	.cfi_def_cfa_offset 0
	ret
	.p2align 2,,3
.L409:
	.cfi_restore_state
	mov	x3, 30
	add	x1, sp, 32
	mov	x2, 0
	mov	x0, x8
	str	x3, [sp, 32]
	bl	_ZNSt7__cxx1112basic_stringIcSt11char_traitsIcESaIcEE9_M_createERmm
	adrp	x1, .LC9
	add	x1, x1, :lo12:.LC9
	ldr	x2, [sp, 32]
	str	x0, [x19]
	ldr	q1, [x1]
	str	x2, [x19, 16]
	ldr	q0, [x1, 14]
	str	q1, [x0]
	str	q0, [x0, 14]
	ldr	x1, [x19]
	ldr	x0, [sp, 32]
	str	x0, [x19, 8]
	strb	wzr, [x1, x0]
	b	.L400
	.p2align 2,,3
.L412:
	mov	x3, 55
	add	x1, sp, 32
	mov	x2, 0
	mov	x0, x8
	str	x3, [sp, 32]
	bl	_ZNSt7__cxx1112basic_stringIcSt11char_traitsIcESaIcEE9_M_createERmm
	adrp	x1, .LC12
	add	x1, x1, :lo12:.LC12
	ldr	x2, [sp, 32]
	str	x0, [x19]
	ldr	q2, [x1, 32]
	str	x2, [x19, 16]
	ldp	q0, q1, [x1]
	str	q2, [x0, 32]
	ldr	x1, [x1, 47]
	str	x1, [x0, 47]
.L408:
	stp	q0, q1, [x0]
	ldr	x1, [x19]
	ldr	x0, [sp, 32]
	str	x0, [x19, 8]
	strb	wzr, [x1, x0]
	b	.L400
	.p2align 2,,3
.L410:
	mov	x3, 51
	add	x1, sp, 32
	mov	x2, 0
	mov	x0, x8
	str	x3, [sp, 32]
	bl	_ZNSt7__cxx1112basic_stringIcSt11char_traitsIcESaIcEE9_M_createERmm
	adrp	x1, .LC10
	add	x1, x1, :lo12:.LC10
	ldr	x2, [sp, 32]
	str	x0, [x19]
	ldr	q2, [x1, 32]
	str	x2, [x19, 16]
	ldp	q0, q1, [x1]
	ldr	w1, [x1, 47]
	str	q2, [x0, 32]
	str	w1, [x0, 47]
	b	.L408
	.p2align 2,,3
.L411:
	mov	x3, 56
	add	x1, sp, 32
	mov	x2, 0
	mov	x0, x8
	str	x3, [sp, 32]
	bl	_ZNSt7__cxx1112basic_stringIcSt11char_traitsIcESaIcEE9_M_createERmm
	adrp	x1, .LC11
	add	x1, x1, :lo12:.LC11
	ldr	x2, [sp, 32]
	str	x0, [x19]
	ldp	q1, q2, [x1]
	str	x2, [x19, 16]
	ldr	q0, [x1, 32]
	ldr	x1, [x1, 48]
	str	x1, [x0, 48]
	stp	q1, q2, [x0]
	str	q0, [x0, 32]
	ldr	x1, [x19]
	ldr	x0, [sp, 32]
	str	x0, [x19, 8]
	strb	wzr, [x1, x0]
	b	.L400
.L413:
	bl	__stack_chk_fail
	.cfi_endproc
.LFE2290:
	.size	_ZNK4asio5error6detail14netdb_category7messageB5cxx11Ei, .-_ZNK4asio5error6detail14netdb_category7messageB5cxx11Ei
	.section	.text._ZN7asiopal8ExecutorD2Ev,"axG",@progbits,_ZN7asiopal8ExecutorD5Ev,comdat
	.align	2
	.p2align 4,,11
	.weak	_ZN7asiopal8ExecutorD2Ev
	.type	_ZN7asiopal8ExecutorD2Ev, %function
_ZN7asiopal8ExecutorD2Ev:
.LFB9449:
	.cfi_startproc
	stp	x29, x30, [sp, -48]!
	.cfi_def_cfa_offset 48
	.cfi_offset 29, -48
	.cfi_offset 30, -40
	adrp	x1, :got:_ZTVN7asiopal8ExecutorE
	mov	x29, sp
	ldr	x1, [x1, #:got_lo12:_ZTVN7asiopal8ExecutorE]
	stp	x19, x20, [sp, 16]
	.cfi_offset 19, -32
	.cfi_offset 20, -24
	mov	x19, x0
	ldr	x20, [x0, 32]
	add	x1, x1, 16
	str	x1, [x0]
	cbz	x20, .L416
	str	x21, [sp, 32]
	.cfi_offset 21, -16
	adrp	x21, :got:__libc_single_threaded
	ldr	x0, [x21, #:got_lo12:__libc_single_threaded]
	ldrb	w0, [x0]
	cbz	w0, .L417
	ldr	w0, [x20, 8]
	sub	w1, w0, #1
	str	w1, [x20, 8]
.L418:
	cmp	w0, 1
	beq	.L430
.L429:
	ldr	x21, [sp, 32]
	.cfi_restore 21
.L416:
	ldr	x19, [x19, 16]
	cbz	x19, .L414
	adrp	x0, :got:__libc_single_threaded
	ldr	x0, [x0, #:got_lo12:__libc_single_threaded]
	ldrb	w0, [x0]
	cbz	w0, .L424
	ldr	w0, [x19, 12]
	sub	w1, w0, #1
	str	w1, [x19, 12]
.L425:
	cmp	w0, 1
	beq	.L431
.L414:
	ldp	x19, x20, [sp, 16]
	ldp	x29, x30, [sp], 48
	.cfi_restore 30
	.cfi_restore 29
	.cfi_restore 19
	.cfi_restore 20
	.cfi_def_cfa_offset 0
	ret
	.p2align 2,,3
.L430:
	.cfi_def_cfa_offset 48
	.cfi_offset 19, -32
	.cfi_offset 20, -24
	.cfi_offset 21, -16
	.cfi_offset 29, -48
	.cfi_offset 30, -40
	ldr	x1, [x20]
	mov	x0, x20
	ldr	x1, [x1, 16]
	blr	x1
	ldr	x21, [x21, #:got_lo12:__libc_single_threaded]
	ldrb	w0, [x21]
	cbz	w0, .L420
	ldr	w0, [x20, 12]
	sub	w1, w0, #1
	str	w1, [x20, 12]
.L421:
	cmp	w0, 1
	bne	.L429
	ldr	x1, [x20]
	mov	x0, x20
	ldr	x1, [x1, 24]
	blr	x1
	ldr	x21, [sp, 32]
	.cfi_restore 21
	b	.L416
	.p2align 2,,3
.L431:
	ldr	x1, [x19]
	mov	x0, x19
	ldp	x19, x20, [sp, 16]
	ldp	x29, x30, [sp], 48
	.cfi_remember_state
	.cfi_restore 30
	.cfi_restore 29
	.cfi_restore 19
	.cfi_restore 20
	.cfi_def_cfa_offset 0
	ldr	x1, [x1, 24]
	mov	x16, x1
	br	x16
	.p2align 2,,3
.L424:
	.cfi_restore_state
	add	x1, x19, 12
	mov	w0, -1
	bl	__aarch64_ldadd4_acq_rel
	b	.L425
	.p2align 2,,3
.L417:
	.cfi_offset 21, -16
	add	x1, x20, 8
	mov	w0, -1
	bl	__aarch64_ldadd4_acq_rel
	b	.L418
	.p2align 2,,3
.L420:
	add	x1, x20, 12
	mov	w0, -1
	bl	__aarch64_ldadd4_acq_rel
	b	.L421
	.cfi_endproc
.LFE9449:
	.size	_ZN7asiopal8ExecutorD2Ev, .-_ZN7asiopal8ExecutorD2Ev
	.weak	_ZN7asiopal8ExecutorD1Ev
	.set	_ZN7asiopal8ExecutorD1Ev,_ZN7asiopal8ExecutorD2Ev
	.section	.text._ZN7asiopal8ExecutorD0Ev,"axG",@progbits,_ZN7asiopal8ExecutorD5Ev,comdat
	.align	2
	.p2align 4,,11
	.weak	_ZN7asiopal8ExecutorD0Ev
	.type	_ZN7asiopal8ExecutorD0Ev, %function
_ZN7asiopal8ExecutorD0Ev:
.LFB9451:
	.cfi_startproc
	stp	x29, x30, [sp, -48]!
	.cfi_def_cfa_offset 48
	.cfi_offset 29, -48
	.cfi_offset 30, -40
	adrp	x1, :got:_ZTVN7asiopal8ExecutorE
	mov	x29, sp
	ldr	x1, [x1, #:got_lo12:_ZTVN7asiopal8ExecutorE]
	stp	x19, x20, [sp, 16]
	.cfi_offset 19, -32
	.cfi_offset 20, -24
	mov	x19, x0
	ldr	x20, [x0, 32]
	add	x1, x1, 16
	str	x1, [x0]
	cbz	x20, .L434
	str	x21, [sp, 32]
	.cfi_offset 21, -16
	adrp	x21, :got:__libc_single_threaded
	ldr	x0, [x21, #:got_lo12:__libc_single_threaded]
	ldrb	w0, [x0]
	cbz	w0, .L435
	ldr	w0, [x20, 8]
	sub	w1, w0, #1
	str	w1, [x20, 8]
.L436:
	cmp	w0, 1
	beq	.L448
.L447:
	ldr	x21, [sp, 32]
	.cfi_restore 21
.L434:
	ldr	x20, [x19, 16]
	cbz	x20, .L441
	adrp	x0, :got:__libc_single_threaded
	ldr	x0, [x0, #:got_lo12:__libc_single_threaded]
	ldrb	w0, [x0]
	cbz	w0, .L442
	ldr	w0, [x20, 12]
	sub	w1, w0, #1
	str	w1, [x20, 12]
.L443:
	cmp	w0, 1
	beq	.L449
.L441:
	mov	x0, x19
	mov	x1, 56
	ldp	x19, x20, [sp, 16]
	ldp	x29, x30, [sp], 48
	.cfi_restore 30
	.cfi_restore 29
	.cfi_restore 19
	.cfi_restore 20
	.cfi_def_cfa_offset 0
	b	_ZdlPvm
	.p2align 2,,3
.L448:
	.cfi_def_cfa_offset 48
	.cfi_offset 19, -32
	.cfi_offset 20, -24
	.cfi_offset 21, -16
	.cfi_offset 29, -48
	.cfi_offset 30, -40
	ldr	x1, [x20]
	mov	x0, x20
	ldr	x1, [x1, 16]
	blr	x1
	ldr	x21, [x21, #:got_lo12:__libc_single_threaded]
	ldrb	w0, [x21]
	cbz	w0, .L438
	ldr	w0, [x20, 12]
	sub	w1, w0, #1
	str	w1, [x20, 12]
.L439:
	cmp	w0, 1
	bne	.L447
	ldr	x1, [x20]
	mov	x0, x20
	ldr	x1, [x1, 24]
	blr	x1
	ldr	x21, [sp, 32]
	.cfi_restore 21
	b	.L434
	.p2align 2,,3
.L449:
	ldr	x1, [x20]
	mov	x0, x20
	ldr	x1, [x1, 24]
	blr	x1
	mov	x0, x19
	mov	x1, 56
	ldp	x19, x20, [sp, 16]
	ldp	x29, x30, [sp], 48
	.cfi_remember_state
	.cfi_restore 30
	.cfi_restore 29
	.cfi_restore 19
	.cfi_restore 20
	.cfi_def_cfa_offset 0
	b	_ZdlPvm
	.p2align 2,,3
.L442:
	.cfi_restore_state
	add	x1, x20, 12
	mov	w0, -1
	bl	__aarch64_ldadd4_acq_rel
	b	.L443
	.p2align 2,,3
.L435:
	.cfi_offset 21, -16
	add	x1, x20, 8
	mov	w0, -1
	bl	__aarch64_ldadd4_acq_rel
	b	.L436
	.p2align 2,,3
.L438:
	add	x1, x20, 12
	mov	w0, -1
	bl	__aarch64_ldadd4_acq_rel
	b	.L439
	.cfi_endproc
.LFE9451:
	.size	_ZN7asiopal8ExecutorD0Ev, .-_ZN7asiopal8ExecutorD0Ev
	.section	.rodata._ZNK4asio5error6detail13misc_category7messageB5cxx11Ei.str1.8,"aMS",@progbits,1
	.align	3
.LC14:
	.string	"Already open"
	.align	3
.LC15:
	.string	"End of file"
	.align	3
.LC16:
	.string	"Element not found"
	.align	3
.LC17:
	.string	"The descriptor does not fit into the select call's fd_set"
	.align	3
.LC18:
	.string	"asio.misc error"
	.section	.text._ZNK4asio5error6detail13misc_category7messageB5cxx11Ei,"axG",@progbits,_ZNK4asio5error6detail13misc_category7messageB5cxx11Ei,comdat
	.align	2
	.p2align 4,,11
	.weak	_ZNK4asio5error6detail13misc_category7messageB5cxx11Ei
	.type	_ZNK4asio5error6detail13misc_category7messageB5cxx11Ei, %function
_ZNK4asio5error6detail13misc_category7messageB5cxx11Ei:
.LFB2302:
	.cfi_startproc
	stp	x29, x30, [sp, -48]!
	.cfi_def_cfa_offset 48
	.cfi_offset 29, -48
	.cfi_offset 30, -40
	adrp	x0, :got:__stack_chk_guard
	add	x2, x8, 16
	mov	x29, sp
	ldr	x0, [x0, #:got_lo12:__stack_chk_guard]
	str	x19, [sp, 16]
	.cfi_offset 19, -32
	mov	x19, x8
	ldr	x3, [x0]
	str	x3, [sp, 40]
	mov	x3, 0
	cmp	w1, 1
	beq	.L458
	cmp	w1, 2
	beq	.L459
	cmp	w1, 3
	beq	.L460
	cmp	w1, 4
	beq	.L461
	adrp	x0, .LC18
	add	x0, x0, :lo12:.LC18
	str	x2, [x8]
	mov	x1, 15
	ldr	x3, [x0]
	str	x3, [x8, 16]
	ldr	x0, [x0, 7]
	str	x0, [x2, 7]
	str	x1, [x8, 8]
	strb	wzr, [x8, 31]
.L450:
	adrp	x0, :got:__stack_chk_guard
	ldr	x0, [x0, #:got_lo12:__stack_chk_guard]
	ldr	x2, [sp, 40]
	ldr	x1, [x0]
	subs	x2, x2, x1
	mov	x1, 0
	bne	.L462
	mov	x0, x19
	ldr	x19, [sp, 16]
	ldp	x29, x30, [sp], 48
	.cfi_remember_state
	.cfi_restore 30
	.cfi_restore 29
	.cfi_restore 19
	.cfi_def_cfa_offset 0
	ret
	.p2align 2,,3
.L458:
	.cfi_restore_state
	adrp	x0, .LC14
	add	x0, x0, :lo12:.LC14
	str	x2, [x8]
	mov	x1, 12
	ldr	x3, [x0]
	str	x3, [x8, 16]
	ldr	w0, [x0, 8]
	str	w0, [x2, 8]
	str	x1, [x8, 8]
	strb	wzr, [x8, 28]
	b	.L450
	.p2align 2,,3
.L461:
	mov	x3, 57
	str	x2, [x8]
	add	x1, sp, 32
	mov	x2, 0
	mov	x0, x8
	str	x3, [sp, 32]
	bl	_ZNSt7__cxx1112basic_stringIcSt11char_traitsIcESaIcEE9_M_createERmm
	str	x0, [x19]
	adrp	x1, .LC17
	add	x1, x1, :lo12:.LC17
	ldr	x2, [sp, 32]
	str	x2, [x19, 16]
	ldr	q3, [x1, 32]
	ldp	q1, q2, [x1]
	ldr	q0, [x1, 41]
	str	q3, [x0, 32]
	stp	q1, q2, [x0]
	str	q0, [x0, 41]
	ldr	x1, [x19]
	ldr	x0, [sp, 32]
	str	x0, [x19, 8]
	strb	wzr, [x1, x0]
	b	.L450
	.p2align 2,,3
.L459:
	adrp	x0, .LC15
	add	x0, x0, :lo12:.LC15
	str	x2, [x8]
	mov	x1, 11
	ldr	x3, [x0]
	str	x3, [x8, 16]
	ldr	w0, [x0, 7]
	str	w0, [x2, 7]
	str	x1, [x8, 8]
	strb	wzr, [x8, 27]
	b	.L450
	.p2align 2,,3
.L460:
	mov	x3, 17
	str	x2, [x8]
	add	x1, sp, 32
	mov	x2, 0
	mov	x0, x8
	str	x3, [sp, 32]
	bl	_ZNSt7__cxx1112basic_stringIcSt11char_traitsIcESaIcEE9_M_createERmm
	str	x0, [x19]
	adrp	x1, .LC16
	add	x1, x1, :lo12:.LC16
	ldr	x2, [sp, 32]
	str	x2, [x19, 16]
	ldp	x2, x3, [x1]
	stp	x2, x3, [x0]
	ldrb	w1, [x1, 16]
	strb	w1, [x0, 16]
	ldr	x1, [x19]
	ldr	x0, [sp, 32]
	str	x0, [x19, 8]
	strb	wzr, [x1, x0]
	b	.L450
.L462:
	bl	__stack_chk_fail
	.cfi_endproc
.LFE2302:
	.size	_ZNK4asio5error6detail13misc_category7messageB5cxx11Ei, .-_ZNK4asio5error6detail13misc_category7messageB5cxx11Ei
	.section	.text.unlikely
	.align	2
	.type	_ZZN7asiopal8Executor5StartERKNSt6chrono10time_pointINS1_3_V212steady_clockENS1_8durationIlSt5ratioILl1ELl1000000000EEEEEERKSt8functionIFvvEEENUlRKSt10error_codeE_D2Ev, %function
_ZZN7asiopal8Executor5StartERKNSt6chrono10time_pointINS1_3_V212steady_clockENS1_8durationIlSt5ratioILl1ELl1000000000EEEEEERKSt8functionIFvvEEENUlRKSt10error_codeE_D2Ev:
.LFB7030:
	.cfi_startproc
	.cfi_personality 0x9b,DW.ref.__gxx_personality_v0
	.cfi_lsda 0x1b,.LLSDA7030
	stp	x29, x30, [sp, -48]!
	.cfi_def_cfa_offset 48
	.cfi_offset 29, -48
	.cfi_offset 30, -40
	mov	x29, sp
	stp	x19, x20, [sp, 16]
	.cfi_offset 19, -32
	.cfi_offset 20, -24
	mov	x20, x0
	ldr	x19, [x0, 56]
	str	x21, [sp, 32]
	.cfi_offset 21, -16
	cbz	x19, .L465
	adrp	x0, :got:__libc_single_threaded
	mov	x21, x0
	ldr	x0, [x0, #:got_lo12:__libc_single_threaded]
	ldrb	w0, [x0]
	cbz	w0, .L466
	ldr	w0, [x19, 8]
	sub	w1, w0, #1
	str	w1, [x19, 8]
	b	.L467
.L466:
	add	x1, x19, 8
	mov	w0, -1
	bl	__aarch64_ldadd4_acq_rel
.L467:
	cmp	w0, 1
	bne	.L465
	ldr	x1, [x19]
	mov	x0, x19
	ldr	x1, [x1, 16]
	blr	x1
	ldr	x21, [x21, #:got_lo12:__libc_single_threaded]
	ldrb	w0, [x21]
	cbz	w0, .L469
	ldr	w0, [x19, 12]
	sub	w1, w0, #1
	str	w1, [x19, 12]
	b	.L470
.L469:
	add	x1, x19, 12
	mov	w0, -1
	bl	__aarch64_ldadd4_acq_rel
.L470:
	cmp	w0, 1
	bne	.L465
	ldr	x1, [x19]
	mov	x0, x19
	ldr	x1, [x1, 24]
	blr	x1
.L465:
	ldr	x3, [x20, 32]
	add	x1, x20, 16
	cbz	x3, .L471
	mov	x0, x1
	mov	w2, 3
	blr	x3
.L471:
	ldr	x19, [x20, 8]
	cbz	x19, .L463
	adrp	x0, :got:__libc_single_threaded
	mov	x20, x0
	ldr	x0, [x0, #:got_lo12:__libc_single_threaded]
	ldrb	w0, [x0]
	cbz	w0, .L474
	ldr	w0, [x19, 8]
	sub	w1, w0, #1
	str	w1, [x19, 8]
	b	.L475
.L474:
	add	x1, x19, 8
	mov	w0, -1
	bl	__aarch64_ldadd4_acq_rel
.L475:
	cmp	w0, 1
	bne	.L463
	ldr	x1, [x19]
	mov	x0, x19
	ldr	x1, [x1, 16]
	blr	x1
	ldr	x20, [x20, #:got_lo12:__libc_single_threaded]
	ldrb	w0, [x20]
	cbz	w0, .L477
	ldr	w0, [x19, 12]
	sub	w1, w0, #1
	str	w1, [x19, 12]
	b	.L478
.L477:
	add	x1, x19, 12
	mov	w0, -1
	bl	__aarch64_ldadd4_acq_rel
.L478:
	cmp	w0, 1
	bne	.L463
	ldr	x1, [x19]
	mov	x0, x19
	ldp	x19, x20, [sp, 16]
	ldr	x21, [sp, 32]
	ldp	x29, x30, [sp], 48
	.cfi_remember_state
	.cfi_restore 30
	.cfi_restore 29
	.cfi_restore 21
	.cfi_restore 19
	.cfi_restore 20
	.cfi_def_cfa_offset 0
	ldr	x1, [x1, 24]
	mov	x16, x1
	br	x16
.L463:
	.cfi_restore_state
	ldp	x19, x20, [sp, 16]
	ldr	x21, [sp, 32]
	ldp	x29, x30, [sp], 48
	.cfi_restore 30
	.cfi_restore 29
	.cfi_restore 21
	.cfi_restore 19
	.cfi_restore 20
	.cfi_def_cfa_offset 0
	ret
	.cfi_endproc
.LFE7030:
	.section	.gcc_except_table
.LLSDA7030:
	.byte	0xff
	.byte	0xff
	.byte	0x1
	.uleb128 .LLSDACSE7030-.LLSDACSB7030
.LLSDACSB7030:
.LLSDACSE7030:
	.section	.text.unlikely
	.size	_ZZN7asiopal8Executor5StartERKNSt6chrono10time_pointINS1_3_V212steady_clockENS1_8durationIlSt5ratioILl1ELl1000000000EEEEEERKSt8functionIFvvEEENUlRKSt10error_codeE_D2Ev, .-_ZZN7asiopal8Executor5StartERKNSt6chrono10time_pointINS1_3_V212steady_clockENS1_8durationIlSt5ratioILl1ELl1000000000EEEEEERKSt8functionIFvvEEENUlRKSt10error_codeE_D2Ev
	.set	_ZZN7asiopal8Executor5StartERKNSt6chrono10time_pointINS1_3_V212steady_clockENS1_8durationIlSt5ratioILl1ELl1000000000EEEEEERKSt8functionIFvvEEENUlRKSt10error_codeE_D1Ev,_ZZN7asiopal8Executor5StartERKNSt6chrono10time_pointINS1_3_V212steady_clockENS1_8durationIlSt5ratioILl1ELl1000000000EEEEEERKSt8functionIFvvEEENUlRKSt10error_codeE_D2Ev
	.align	2
	.type	_ZN4asio6detail18completion_handlerIZN7asiopal8Executor4PostERKSt8functionIFvvEEEUlvE_E3ptr5resetEv, %function
_ZN4asio6detail18completion_handlerIZN7asiopal8Executor4PostERKSt8functionIFvvEEEUlvE_E3ptr5resetEv:
.LFB8733:
	.cfi_startproc
	.cfi_personality 0x9b,DW.ref.__gxx_personality_v0
	.cfi_lsda 0x1b,.LLSDA8733
	stp	x29, x30, [sp, -48]!
	.cfi_def_cfa_offset 48
	.cfi_offset 29, -48
	.cfi_offset 30, -40
	mov	x29, sp
	stp	x21, x22, [sp, 32]
	.cfi_offset 21, -16
	.cfi_offset 22, -8
	ldr	x21, [x0, 16]
	stp	x19, x20, [sp, 16]
	.cfi_offset 19, -32
	.cfi_offset 20, -24
	mov	x20, x0
	cbz	x21, .L484
	ldr	x19, [x21, 64]
	cbz	x19, .L486
	adrp	x0, :got:__libc_single_threaded
	mov	x22, x0
	ldr	x0, [x0, #:got_lo12:__libc_single_threaded]
	ldrb	w0, [x0]
	cbz	w0, .L487
	ldr	w0, [x19, 8]
	sub	w1, w0, #1
	str	w1, [x19, 8]
	b	.L488
.L487:
	add	x1, x19, 8
	mov	w0, -1
	bl	__aarch64_ldadd4_acq_rel
.L488:
	cmp	w0, 1
	bne	.L486
	ldr	x1, [x19]
	mov	x0, x19
	ldr	x1, [x1, 16]
	blr	x1
	ldr	x22, [x22, #:got_lo12:__libc_single_threaded]
	ldrb	w0, [x22]
	cbz	w0, .L490
	ldr	w0, [x19, 12]
	sub	w1, w0, #1
	str	w1, [x19, 12]
	b	.L491
.L490:
	add	x1, x19, 12
	mov	w0, -1
	bl	__aarch64_ldadd4_acq_rel
.L491:
	cmp	w0, 1
	bne	.L486
	ldr	x1, [x19]
	mov	x0, x19
	ldr	x1, [x1, 24]
	blr	x1
.L486:
	ldr	x3, [x21, 40]
	add	x1, x21, 24
	cbz	x3, .L492
	mov	x0, x1
	mov	w2, 3
	blr	x3
.L492:
	str	xzr, [x20, 16]
.L484:
	ldr	x19, [x20, 8]
	cbz	x19, .L483
	adrp	x0, :got:_ZN4asio6detail10call_stackINS0_15task_io_serviceENS0_27task_io_service_thread_infoEE4top_E
	ldr	x0, [x0, #:got_lo12:_ZN4asio6detail10call_stackINS0_15task_io_serviceENS0_27task_io_service_thread_infoEE4top_E]
	ldr	w0, [x0]
	bl	pthread_getspecific
	cbz	x0, .L494
	ldr	x0, [x0, 8]
	cbz	x0, .L494
	ldr	x1, [x0]
	cbnz	x1, .L494
	ldrb	w1, [x19, 72]
	strb	w1, [x19]
	str	x19, [x0]
	b	.L495
.L494:
	mov	x0, x19
	bl	_ZdlPv
.L495:
	str	xzr, [x20, 8]
.L483:
	ldp	x19, x20, [sp, 16]
	ldp	x21, x22, [sp, 32]
	ldp	x29, x30, [sp], 48
	.cfi_restore 30
	.cfi_restore 29
	.cfi_restore 21
	.cfi_restore 22
	.cfi_restore 19
	.cfi_restore 20
	.cfi_def_cfa_offset 0
	ret
	.cfi_endproc
.LFE8733:
	.section	.gcc_except_table
.LLSDA8733:
	.byte	0xff
	.byte	0xff
	.byte	0x1
	.uleb128 .LLSDACSE8733-.LLSDACSB8733
.LLSDACSB8733:
.LLSDACSE8733:
	.section	.text.unlikely
	.size	_ZN4asio6detail18completion_handlerIZN7asiopal8Executor4PostERKSt8functionIFvvEEEUlvE_E3ptr5resetEv, .-_ZN4asio6detail18completion_handlerIZN7asiopal8Executor4PostERKSt8functionIFvvEEEUlvE_E3ptr5resetEv
	.align	2
	.type	_ZN4asio6detail12wait_handlerINS0_15wrapped_handlerINS_10io_service6strandEZN7asiopal8Executor5StartERKNSt6chrono10time_pointINS7_3_V212steady_clockENS7_8durationIlSt5ratioILl1ELl1000000000EEEEEERKSt8functionIFvvEEEUlRKSt10error_codeE_NS0_26is_continuation_if_runningEEEE3ptr5resetEv, %function
_ZN4asio6detail12wait_handlerINS0_15wrapped_handlerINS_10io_service6strandEZN7asiopal8Executor5StartERKNSt6chrono10time_pointINS7_3_V212steady_clockENS7_8durationIlSt5ratioILl1ELl1000000000EEEEEERKSt8functionIFvvEEEUlRKSt10error_codeE_NS0_26is_continuation_if_runningEEEE3ptr5resetEv:
.LFB8871:
	.cfi_startproc
	.cfi_personality 0x9b,DW.ref.__gxx_personality_v0
	.cfi_lsda 0x1b,.LLSDA8871
	stp	x29, x30, [sp, -48]!
	.cfi_def_cfa_offset 48
	.cfi_offset 29, -48
	.cfi_offset 30, -40
	mov	x29, sp
	stp	x21, x22, [sp, 32]
	.cfi_offset 21, -16
	.cfi_offset 22, -8
	ldr	x21, [x0, 16]
	stp	x19, x20, [sp, 16]
	.cfi_offset 19, -32
	.cfi_offset 20, -24
	mov	x20, x0
	cbz	x21, .L513
	ldr	x19, [x21, 112]
	cbz	x19, .L515
	adrp	x0, :got:__libc_single_threaded
	mov	x22, x0
	ldr	x0, [x0, #:got_lo12:__libc_single_threaded]
	ldrb	w0, [x0]
	cbz	w0, .L516
	ldr	w0, [x19, 8]
	sub	w1, w0, #1
	str	w1, [x19, 8]
	b	.L517
.L516:
	add	x1, x19, 8
	mov	w0, -1
	bl	__aarch64_ldadd4_acq_rel
.L517:
	cmp	w0, 1
	bne	.L515
	ldr	x1, [x19]
	mov	x0, x19
	ldr	x1, [x1, 16]
	blr	x1
	ldr	x22, [x22, #:got_lo12:__libc_single_threaded]
	ldrb	w0, [x22]
	cbz	w0, .L519
	ldr	w0, [x19, 12]
	sub	w1, w0, #1
	str	w1, [x19, 12]
	b	.L520
.L519:
	add	x1, x19, 12
	mov	w0, -1
	bl	__aarch64_ldadd4_acq_rel
.L520:
	cmp	w0, 1
	bne	.L515
	ldr	x1, [x19]
	mov	x0, x19
	ldr	x1, [x1, 24]
	blr	x1
.L515:
	ldr	x3, [x21, 88]
	add	x1, x21, 72
	cbz	x3, .L521
	mov	x0, x1
	mov	w2, 3
	blr	x3
.L521:
	ldr	x19, [x21, 64]
	cbz	x19, .L523
	adrp	x0, :got:__libc_single_threaded
	mov	x21, x0
	ldr	x0, [x0, #:got_lo12:__libc_single_threaded]
	ldrb	w0, [x0]
	cbz	w0, .L524
	ldr	w0, [x19, 8]
	sub	w1, w0, #1
	str	w1, [x19, 8]
	b	.L525
.L524:
	add	x1, x19, 8
	mov	w0, -1
	bl	__aarch64_ldadd4_acq_rel
.L525:
	cmp	w0, 1
	bne	.L523
	ldr	x1, [x19]
	mov	x0, x19
	ldr	x1, [x1, 16]
	blr	x1
	ldr	x21, [x21, #:got_lo12:__libc_single_threaded]
	ldrb	w0, [x21]
	cbz	w0, .L527
	ldr	w0, [x19, 12]
	sub	w1, w0, #1
	str	w1, [x19, 12]
	b	.L528
.L527:
	add	x1, x19, 12
	mov	w0, -1
	bl	__aarch64_ldadd4_acq_rel
.L528:
	cmp	w0, 1
	bne	.L523
	ldr	x1, [x19]
	mov	x0, x19
	ldr	x1, [x1, 24]
	blr	x1
.L523:
	str	xzr, [x20, 16]
.L513:
	ldr	x19, [x20, 8]
	cbz	x19, .L512
	adrp	x0, :got:_ZN4asio6detail10call_stackINS0_15task_io_serviceENS0_27task_io_service_thread_infoEE4top_E
	ldr	x0, [x0, #:got_lo12:_ZN4asio6detail10call_stackINS0_15task_io_serviceENS0_27task_io_service_thread_infoEE4top_E]
	ldr	w0, [x0]
	bl	pthread_getspecific
	cbz	x0, .L530
	ldr	x0, [x0, 8]
	cbz	x0, .L530
	ldr	x1, [x0]
	cbnz	x1, .L530
	ldrb	w1, [x19, 120]
	strb	w1, [x19]
	str	x19, [x0]
	b	.L531
.L530:
	mov	x0, x19
	bl	_ZdlPv
.L531:
	str	xzr, [x20, 8]
.L512:
	ldp	x19, x20, [sp, 16]
	ldp	x21, x22, [sp, 32]
	ldp	x29, x30, [sp], 48
	.cfi_restore 30
	.cfi_restore 29
	.cfi_restore 21
	.cfi_restore 22
	.cfi_restore 19
	.cfi_restore 20
	.cfi_def_cfa_offset 0
	ret
	.cfi_endproc
.LFE8871:
	.section	.gcc_except_table
.LLSDA8871:
	.byte	0xff
	.byte	0xff
	.byte	0x1
	.uleb128 .LLSDACSE8871-.LLSDACSB8871
.LLSDACSB8871:
.LLSDACSE8871:
	.section	.text.unlikely
	.size	_ZN4asio6detail12wait_handlerINS0_15wrapped_handlerINS_10io_service6strandEZN7asiopal8Executor5StartERKNSt6chrono10time_pointINS7_3_V212steady_clockENS7_8durationIlSt5ratioILl1ELl1000000000EEEEEERKSt8functionIFvvEEEUlRKSt10error_codeE_NS0_26is_continuation_if_runningEEEE3ptr5resetEv, .-_ZN4asio6detail12wait_handlerINS0_15wrapped_handlerINS_10io_service6strandEZN7asiopal8Executor5StartERKNSt6chrono10time_pointINS7_3_V212steady_clockENS7_8durationIlSt5ratioILl1ELl1000000000EEEEEERKSt8functionIFvvEEEUlRKSt10error_codeE_NS0_26is_continuation_if_runningEEEE3ptr5resetEv
	.align	2
	.type	_ZN4asio6detail18completion_handlerINS0_7binder1IZN7asiopal8Executor5StartERKNSt6chrono10time_pointINS5_3_V212steady_clockENS5_8durationIlSt5ratioILl1ELl1000000000EEEEEERKSt8functionIFvvEEEUlRKSt10error_codeE_SL_EEE3ptr5resetEv, %function
_ZN4asio6detail18completion_handlerINS0_7binder1IZN7asiopal8Executor5StartERKNSt6chrono10time_pointINS5_3_V212steady_clockENS5_8durationIlSt5ratioILl1ELl1000000000EEEEEERKSt8functionIFvvEEEUlRKSt10error_codeE_SL_EEE3ptr5resetEv:
.LFB9435:
	.cfi_startproc
	.cfi_personality 0x9b,DW.ref.__gxx_personality_v0
	.cfi_lsda 0x1b,.LLSDA9435
	stp	x29, x30, [sp, -48]!
	.cfi_def_cfa_offset 48
	.cfi_offset 29, -48
	.cfi_offset 30, -40
	mov	x29, sp
	stp	x21, x22, [sp, 32]
	.cfi_offset 21, -16
	.cfi_offset 22, -8
	ldr	x21, [x0, 16]
	stp	x19, x20, [sp, 16]
	.cfi_offset 19, -32
	.cfi_offset 20, -24
	mov	x20, x0
	cbz	x21, .L549
	ldr	x19, [x21, 80]
	cbz	x19, .L551
	adrp	x0, :got:__libc_single_threaded
	mov	x22, x0
	ldr	x0, [x0, #:got_lo12:__libc_single_threaded]
	ldrb	w0, [x0]
	cbz	w0, .L552
	ldr	w0, [x19, 8]
	sub	w1, w0, #1
	str	w1, [x19, 8]
	b	.L553
.L552:
	add	x1, x19, 8
	mov	w0, -1
	bl	__aarch64_ldadd4_acq_rel
.L553:
	cmp	w0, 1
	bne	.L551
	ldr	x1, [x19]
	mov	x0, x19
	ldr	x1, [x1, 16]
	blr	x1
	ldr	x22, [x22, #:got_lo12:__libc_single_threaded]
	ldrb	w0, [x22]
	cbz	w0, .L555
	ldr	w0, [x19, 12]
	sub	w1, w0, #1
	str	w1, [x19, 12]
	b	.L556
.L555:
	add	x1, x19, 12
	mov	w0, -1
	bl	__aarch64_ldadd4_acq_rel
.L556:
	cmp	w0, 1
	bne	.L551
	ldr	x1, [x19]
	mov	x0, x19
	ldr	x1, [x1, 24]
	blr	x1
.L551:
	ldr	x3, [x21, 56]
	add	x1, x21, 40
	cbz	x3, .L557
	mov	x0, x1
	mov	w2, 3
	blr	x3
.L557:
	ldr	x19, [x21, 32]
	cbz	x19, .L559
	adrp	x0, :got:__libc_single_threaded
	mov	x21, x0
	ldr	x0, [x0, #:got_lo12:__libc_single_threaded]
	ldrb	w0, [x0]
	cbz	w0, .L560
	ldr	w0, [x19, 8]
	sub	w1, w0, #1
	str	w1, [x19, 8]
	b	.L561
.L560:
	add	x1, x19, 8
	mov	w0, -1
	bl	__aarch64_ldadd4_acq_rel
.L561:
	cmp	w0, 1
	bne	.L559
	ldr	x1, [x19]
	mov	x0, x19
	ldr	x1, [x1, 16]
	blr	x1
	ldr	x21, [x21, #:got_lo12:__libc_single_threaded]
	ldrb	w0, [x21]
	cbz	w0, .L563
	ldr	w0, [x19, 12]
	sub	w1, w0, #1
	str	w1, [x19, 12]
	b	.L564
.L563:
	add	x1, x19, 12
	mov	w0, -1
	bl	__aarch64_ldadd4_acq_rel
.L564:
	cmp	w0, 1
	bne	.L559
	ldr	x1, [x19]
	mov	x0, x19
	ldr	x1, [x1, 24]
	blr	x1
.L559:
	str	xzr, [x20, 16]
.L549:
	ldr	x19, [x20, 8]
	cbz	x19, .L548
	adrp	x0, :got:_ZN4asio6detail10call_stackINS0_15task_io_serviceENS0_27task_io_service_thread_infoEE4top_E
	ldr	x0, [x0, #:got_lo12:_ZN4asio6detail10call_stackINS0_15task_io_serviceENS0_27task_io_service_thread_infoEE4top_E]
	ldr	w0, [x0]
	bl	pthread_getspecific
	cbz	x0, .L566
	ldr	x0, [x0, 8]
	cbz	x0, .L566
	ldr	x1, [x0]
	cbnz	x1, .L566
	ldrb	w1, [x19, 104]
	strb	w1, [x19]
	str	x19, [x0]
	b	.L567
.L566:
	mov	x0, x19
	bl	_ZdlPv
.L567:
	str	xzr, [x20, 8]
.L548:
	ldp	x19, x20, [sp, 16]
	ldp	x21, x22, [sp, 32]
	ldp	x29, x30, [sp], 48
	.cfi_restore 30
	.cfi_restore 29
	.cfi_restore 21
	.cfi_restore 22
	.cfi_restore 19
	.cfi_restore 20
	.cfi_def_cfa_offset 0
	ret
	.cfi_endproc
.LFE9435:
	.section	.gcc_except_table
.LLSDA9435:
	.byte	0xff
	.byte	0xff
	.byte	0x1
	.uleb128 .LLSDACSE9435-.LLSDACSB9435
.LLSDACSB9435:
.LLSDACSE9435:
	.section	.text.unlikely
	.size	_ZN4asio6detail18completion_handlerINS0_7binder1IZN7asiopal8Executor5StartERKNSt6chrono10time_pointINS5_3_V212steady_clockENS5_8durationIlSt5ratioILl1ELl1000000000EEEEEERKSt8functionIFvvEEEUlRKSt10error_codeE_SL_EEE3ptr5resetEv, .-_ZN4asio6detail18completion_handlerINS0_7binder1IZN7asiopal8Executor5StartERKNSt6chrono10time_pointINS5_3_V212steady_clockENS5_8durationIlSt5ratioILl1ELl1000000000EEEEEERKSt8functionIFvvEEEUlRKSt10error_codeE_SL_EEE3ptr5resetEv
	.text
	.align	2
	.p2align 4,,11
	.type	_ZN4asio6detail18completion_handlerIZN7asiopal8Executor4PostERKSt8functionIFvvEEEUlvE_E11do_completeEPNS0_15task_io_serviceEPNS0_25task_io_service_operationERKSt10error_codem, %function
_ZN4asio6detail18completion_handlerIZN7asiopal8Executor4PostERKSt8functionIFvvEEEUlvE_E11do_completeEPNS0_15task_io_serviceEPNS0_25task_io_service_operationERKSt10error_codem:
.LFB8737:
	.cfi_startproc
	.cfi_personality 0x9b,DW.ref.__gxx_personality_v0
	.cfi_lsda 0x1b,.LLSDA8737
	stp	x29, x30, [sp, -144]!
	.cfi_def_cfa_offset 144
	.cfi_offset 29, -144
	.cfi_offset 30, -136
	adrp	x2, :got:__stack_chk_guard
	mov	x29, sp
	stp	x19, x20, [sp, 16]
	.cfi_offset 19, -128
	.cfi_offset 20, -120
	add	x20, x1, 24
	mov	x19, x1
	ldr	x2, [x2, #:got_lo12:__stack_chk_guard]
	stp	x21, x22, [sp, 32]
	.cfi_offset 21, -112
	.cfi_offset 22, -104
	mov	x21, x0
	ldr	x3, [x20, 16]
	ldr	x0, [x2]
	str	x0, [sp, 136]
	mov	x0, 0
	stp	x20, x1, [sp, 56]
	str	x1, [sp, 72]
	stp	xzr, xzr, [sp, 80]
	stp	xzr, xzr, [sp, 96]
	cbz	x3, .L585
	add	x22, sp, 80
	mov	x1, x20
	mov	x0, x22
	mov	w2, 2
.LEHB10:
	blr	x3
.LEHE10:
	ldp	x3, x0, [x20, 16]
	str	x22, [sp, 56]
	ldr	q0, [x19, 56]
	stp	x3, x0, [sp, 96]
	str	q0, [sp, 112]
	cbz	x3, .L587
	mov	x1, x20
	mov	x0, x20
	mov	w2, 3
	blr	x3
.L587:
	adrp	x20, :got:_ZN4asio6detail10call_stackINS0_15task_io_serviceENS0_27task_io_service_thread_infoEE4top_E
	str	xzr, [sp, 72]
	ldr	x0, [x20, #:got_lo12:_ZN4asio6detail10call_stackINS0_15task_io_serviceENS0_27task_io_service_thread_infoEE4top_E]
	ldr	w0, [x0]
	bl	pthread_getspecific
	cbz	x0, .L591
	ldr	x0, [x0, 8]
	cbz	x0, .L591
	ldr	x1, [x0]
	cbz	x1, .L651
.L591:
	mov	x0, x19
	bl	_ZdlPv
.L592:
	str	xzr, [sp, 64]
	cbz	x21, .L593
	add	x19, sp, 48
	mov	w0, 1
	mov	x1, x19
	str	wzr, [sp, 48]
	bl	__aarch64_swp4_sync
	ldr	x0, [sp, 96]
	cbz	x0, .L652
	ldr	x1, [sp, 104]
	mov	x0, x22
.LEHB11:
	blr	x1
.LEHE11:
	stlr	wzr, [x19]
.L593:
	ldr	x19, [sp, 120]
	cbz	x19, .L596
	adrp	x21, :got:__libc_single_threaded
	ldr	x0, [x21, #:got_lo12:__libc_single_threaded]
	ldrb	w0, [x0]
	cbz	w0, .L597
	ldr	w0, [x19, 8]
	sub	w1, w0, #1
	str	w1, [x19, 8]
.L598:
	cmp	w0, 1
	beq	.L653
.L596:
	ldr	x3, [sp, 96]
	cbz	x3, .L602
	mov	x1, x22
	mov	x0, x22
	mov	w2, 3
	blr	x3
.L602:
	ldr	x19, [sp, 72]
	cbz	x19, .L603
	ldr	x22, [x19, 64]
	cbz	x22, .L605
	adrp	x21, :got:__libc_single_threaded
	ldr	x0, [x21, #:got_lo12:__libc_single_threaded]
	ldrb	w0, [x0]
	cbz	w0, .L606
	ldr	w0, [x22, 8]
	sub	w1, w0, #1
	str	w1, [x22, 8]
.L607:
	cmp	w0, 1
	bne	.L605
	ldr	x1, [x22]
	mov	x0, x22
	ldr	x1, [x1, 16]
	blr	x1
	ldr	x21, [x21, #:got_lo12:__libc_single_threaded]
	ldrb	w0, [x21]
	cbz	w0, .L609
	ldr	w0, [x22, 12]
	sub	w1, w0, #1
	str	w1, [x22, 12]
.L610:
	cmp	w0, 1
	beq	.L654
	.p2align 3,,7
.L605:
	ldr	x3, [x19, 40]
	add	x1, x19, 24
	cbz	x3, .L611
	mov	x0, x1
	mov	w2, 3
	blr	x3
.L611:
	str	xzr, [sp, 72]
.L603:
	ldr	x19, [sp, 64]
	cbz	x19, .L584
	ldr	x20, [x20, #:got_lo12:_ZN4asio6detail10call_stackINS0_15task_io_serviceENS0_27task_io_service_thread_infoEE4top_E]
	ldr	w0, [x20]
	bl	pthread_getspecific
	cbz	x0, .L613
	ldr	x0, [x0, 8]
	cbz	x0, .L613
	ldr	x1, [x0]
	cbz	x1, .L655
.L613:
	adrp	x0, :got:__stack_chk_guard
	ldr	x0, [x0, #:got_lo12:__stack_chk_guard]
	ldr	x2, [sp, 136]
	ldr	x1, [x0]
	subs	x2, x2, x1
	mov	x1, 0
	bne	.L650
	mov	x0, x19
	ldp	x19, x20, [sp, 16]
	ldp	x21, x22, [sp, 32]
	ldp	x29, x30, [sp], 144
	.cfi_remember_state
	.cfi_restore 30
	.cfi_restore 29
	.cfi_restore 21
	.cfi_restore 22
	.cfi_restore 19
	.cfi_restore 20
	.cfi_def_cfa_offset 0
	b	_ZdlPv
	.p2align 2,,3
.L655:
	.cfi_restore_state
	ldrb	w1, [x19, 72]
	strb	w1, [x19]
	str	x19, [x0]
	.p2align 3,,7
.L584:
	adrp	x0, :got:__stack_chk_guard
	ldr	x0, [x0, #:got_lo12:__stack_chk_guard]
	ldr	x2, [sp, 136]
	ldr	x1, [x0]
	subs	x2, x2, x1
	mov	x1, 0
	bne	.L650
	ldp	x19, x20, [sp, 16]
	ldp	x21, x22, [sp, 32]
	ldp	x29, x30, [sp], 144
	.cfi_remember_state
	.cfi_restore 30
	.cfi_restore 29
	.cfi_restore 21
	.cfi_restore 22
	.cfi_restore 19
	.cfi_restore 20
	.cfi_def_cfa_offset 0
	ret
	.p2align 2,,3
.L606:
	.cfi_restore_state
	add	x1, x22, 8
	mov	w0, -1
	bl	__aarch64_ldadd4_acq_rel
	b	.L607
	.p2align 2,,3
.L653:
	ldr	x1, [x19]
	mov	x0, x19
	ldr	x1, [x1, 16]
	blr	x1
	ldr	x21, [x21, #:got_lo12:__libc_single_threaded]
	ldrb	w0, [x21]
	cbz	w0, .L600
	ldr	w0, [x19, 12]
	sub	w1, w0, #1
	str	w1, [x19, 12]
.L601:
	cmp	w0, 1
	bne	.L596
	ldr	x1, [x19]
	mov	x0, x19
	ldr	x1, [x1, 24]
	blr	x1
	b	.L596
	.p2align 2,,3
.L597:
	add	x1, x19, 8
	mov	w0, -1
	bl	__aarch64_ldadd4_acq_rel
	b	.L598
	.p2align 2,,3
.L585:
	ldr	q0, [x1, 56]
	add	x22, sp, 80
	str	x22, [sp, 56]
	str	q0, [sp, 112]
	b	.L587
	.p2align 2,,3
.L651:
	ldrb	w1, [x19, 72]
	strb	w1, [x19]
	str	x19, [x0]
	b	.L592
	.p2align 2,,3
.L600:
	add	x1, x19, 12
	mov	w0, -1
	bl	__aarch64_ldadd4_acq_rel
	b	.L601
	.p2align 2,,3
.L654:
	ldr	x1, [x22]
	mov	x0, x22
	ldr	x1, [x1, 24]
	blr	x1
	b	.L605
	.p2align 2,,3
.L609:
	add	x1, x22, 12
	mov	w0, -1
	bl	__aarch64_ldadd4_acq_rel
	b	.L610
.L650:
	bl	__stack_chk_fail
.L652:
.LEHB12:
	bl	_ZSt25__throw_bad_function_callv
.LEHE12:
.L617:
	stlr	wzr, [x19]
	mov	x19, x0
	mov	x0, x22
	bl	_ZZN7asiopal8Executor4PostERKSt8functionIFvvEEENUlvE_D1Ev
.L590:
	add	x0, sp, 56
	bl	_ZN4asio6detail18completion_handlerIZN7asiopal8Executor4PostERKSt8functionIFvvEEEUlvE_E3ptr5resetEv
	mov	x0, x19
.LEHB13:
	bl	_Unwind_Resume
.LEHE13:
.L618:
	ldr	x3, [sp, 96]
	mov	x19, x0
	cbz	x3, .L590
	mov	x1, x22
	mov	x0, x22
	mov	w2, 3
	blr	x3
	b	.L590
	.cfi_endproc
.LFE8737:
	.section	.gcc_except_table
.LLSDA8737:
	.byte	0xff
	.byte	0xff
	.byte	0x1
	.uleb128 .LLSDACSE8737-.LLSDACSB8737
.LLSDACSB8737:
	.uleb128 .LEHB10-.LFB8737
	.uleb128 .LEHE10-.LEHB10
	.uleb128 .L618-.LFB8737
	.uleb128 0
	.uleb128 .LEHB11-.LFB8737
	.uleb128 .LEHE11-.LEHB11
	.uleb128 .L617-.LFB8737
	.uleb128 0
	.uleb128 .LEHB12-.LFB8737
	.uleb128 .LEHE12-.LEHB12
	.uleb128 .L617-.LFB8737
	.uleb128 0
	.uleb128 .LEHB13-.LFB8737
	.uleb128 .LEHE13-.LEHB13
	.uleb128 0
	.uleb128 0
.LLSDACSE8737:
	.text
	.size	_ZN4asio6detail18completion_handlerIZN7asiopal8Executor4PostERKSt8functionIFvvEEEUlvE_E11do_completeEPNS0_15task_io_serviceEPNS0_25task_io_service_operationERKSt10error_codem, .-_ZN4asio6detail18completion_handlerIZN7asiopal8Executor4PostERKSt8functionIFvvEEEUlvE_E11do_completeEPNS0_15task_io_serviceEPNS0_25task_io_service_operationERKSt10error_codem
	.section	.text.unlikely
	.align	2
	.type	_ZN4asio6detail18completion_handlerINS0_17rewrapped_handlerINS0_7binder1INS0_15wrapped_handlerINS_10io_service6strandEZN7asiopal8Executor5StartERKNSt6chrono10time_pointINS9_3_V212steady_clockENS9_8durationIlSt5ratioILl1ELl1000000000EEEEEERKSt8functionIFvvEEEUlRKSt10error_codeE_NS0_26is_continuation_if_runningEEESP_EESS_EEE3ptr5resetEv, %function
_ZN4asio6detail18completion_handlerINS0_17rewrapped_handlerINS0_7binder1INS0_15wrapped_handlerINS_10io_service6strandEZN7asiopal8Executor5StartERKNSt6chrono10time_pointINS9_3_V212steady_clockENS9_8durationIlSt5ratioILl1ELl1000000000EEEEEERKSt8functionIFvvEEEUlRKSt10error_codeE_NS0_26is_continuation_if_runningEEESP_EESS_EEE3ptr5resetEv:
.LFB9372:
	.cfi_startproc
	.cfi_personality 0x9b,DW.ref.__gxx_personality_v0
	.cfi_lsda 0x1b,.LLSDA9372
	stp	x29, x30, [sp, -48]!
	.cfi_def_cfa_offset 48
	.cfi_offset 29, -48
	.cfi_offset 30, -40
	mov	x29, sp
	stp	x19, x20, [sp, 16]
	.cfi_offset 19, -32
	.cfi_offset 20, -24
	ldr	x20, [x0, 16]
	stp	x21, x22, [sp, 32]
	.cfi_offset 21, -16
	.cfi_offset 22, -8
	mov	x21, x0
	cbz	x20, .L657
	ldr	x19, [x20, 160]
	cbz	x19, .L659
	adrp	x0, :got:__libc_single_threaded
	mov	x22, x0
	ldr	x0, [x0, #:got_lo12:__libc_single_threaded]
	ldrb	w0, [x0]
	cbz	w0, .L660
	ldr	w0, [x19, 8]
	sub	w1, w0, #1
	str	w1, [x19, 8]
	b	.L661
.L660:
	add	x1, x19, 8
	mov	w0, -1
	bl	__aarch64_ldadd4_acq_rel
.L661:
	cmp	w0, 1
	bne	.L659
	ldr	x1, [x19]
	mov	x0, x19
	ldr	x1, [x1, 16]
	blr	x1
	ldr	x22, [x22, #:got_lo12:__libc_single_threaded]
	ldrb	w0, [x22]
	cbz	w0, .L663
	ldr	w0, [x19, 12]
	sub	w1, w0, #1
	str	w1, [x19, 12]
	b	.L664
.L663:
	add	x1, x19, 12
	mov	w0, -1
	bl	__aarch64_ldadd4_acq_rel
.L664:
	cmp	w0, 1
	bne	.L659
	ldr	x1, [x19]
	mov	x0, x19
	ldr	x1, [x1, 24]
	blr	x1
.L659:
	ldr	x3, [x20, 136]
	add	x1, x20, 120
	cbz	x3, .L665
	mov	x0, x1
	mov	w2, 3
	blr	x3
.L665:
	ldr	x19, [x20, 112]
	cbz	x19, .L667
	adrp	x0, :got:__libc_single_threaded
	mov	x22, x0
	ldr	x0, [x0, #:got_lo12:__libc_single_threaded]
	ldrb	w0, [x0]
	cbz	w0, .L668
	ldr	w0, [x19, 8]
	sub	w1, w0, #1
	str	w1, [x19, 8]
	b	.L669
.L668:
	add	x1, x19, 8
	mov	w0, -1
	bl	__aarch64_ldadd4_acq_rel
.L669:
	cmp	w0, 1
	bne	.L667
	ldr	x1, [x19]
	mov	x0, x19
	ldr	x1, [x1, 16]
	blr	x1
	ldr	x22, [x22, #:got_lo12:__libc_single_threaded]
	ldrb	w0, [x22]
	cbz	w0, .L671
	ldr	w0, [x19, 12]
	sub	w1, w0, #1
	str	w1, [x19, 12]
	b	.L672
.L671:
	add	x1, x19, 12
	mov	w0, -1
	bl	__aarch64_ldadd4_acq_rel
.L672:
	cmp	w0, 1
	bne	.L667
	ldr	x1, [x19]
	mov	x0, x19
	ldr	x1, [x1, 24]
	blr	x1
.L667:
	ldr	x19, [x20, 80]
	cbz	x19, .L674
	adrp	x0, :got:__libc_single_threaded
	mov	x22, x0
	ldr	x0, [x0, #:got_lo12:__libc_single_threaded]
	ldrb	w0, [x0]
	cbz	w0, .L675
	ldr	w0, [x19, 8]
	sub	w1, w0, #1
	str	w1, [x19, 8]
	b	.L676
.L675:
	add	x1, x19, 8
	mov	w0, -1
	bl	__aarch64_ldadd4_acq_rel
.L676:
	cmp	w0, 1
	bne	.L674
	ldr	x1, [x19]
	mov	x0, x19
	ldr	x1, [x1, 16]
	blr	x1
	ldr	x22, [x22, #:got_lo12:__libc_single_threaded]
	ldrb	w0, [x22]
	cbz	w0, .L678
	ldr	w0, [x19, 12]
	sub	w1, w0, #1
	str	w1, [x19, 12]
	b	.L679
.L678:
	add	x1, x19, 12
	mov	w0, -1
	bl	__aarch64_ldadd4_acq_rel
.L679:
	cmp	w0, 1
	bne	.L674
	ldr	x1, [x19]
	mov	x0, x19
	ldr	x1, [x1, 24]
	blr	x1
.L674:
	ldr	x3, [x20, 56]
	add	x1, x20, 40
	cbz	x3, .L680
	mov	x0, x1
	mov	w2, 3
	blr	x3
.L680:
	ldr	x19, [x20, 32]
	cbz	x19, .L682
	adrp	x0, :got:__libc_single_threaded
	mov	x20, x0
	ldr	x0, [x0, #:got_lo12:__libc_single_threaded]
	ldrb	w0, [x0]
	cbz	w0, .L683
	ldr	w0, [x19, 8]
	sub	w1, w0, #1
	str	w1, [x19, 8]
	b	.L684
.L683:
	add	x1, x19, 8
	mov	w0, -1
	bl	__aarch64_ldadd4_acq_rel
.L684:
	cmp	w0, 1
	bne	.L682
	ldr	x1, [x19]
	mov	x0, x19
	ldr	x1, [x1, 16]
	blr	x1
	ldr	x20, [x20, #:got_lo12:__libc_single_threaded]
	ldrb	w0, [x20]
	cbz	w0, .L686
	ldr	w0, [x19, 12]
	sub	w1, w0, #1
	str	w1, [x19, 12]
	b	.L687
.L686:
	add	x1, x19, 12
	mov	w0, -1
	bl	__aarch64_ldadd4_acq_rel
.L687:
	cmp	w0, 1
	bne	.L682
	ldr	x1, [x19]
	mov	x0, x19
	ldr	x1, [x1, 24]
	blr	x1
.L682:
	str	xzr, [x21, 16]
.L657:
	ldr	x19, [x21, 8]
	cbz	x19, .L656
	adrp	x0, :got:_ZN4asio6detail10call_stackINS0_15task_io_serviceENS0_27task_io_service_thread_infoEE4top_E
	ldr	x0, [x0, #:got_lo12:_ZN4asio6detail10call_stackINS0_15task_io_serviceENS0_27task_io_service_thread_infoEE4top_E]
	ldr	w0, [x0]
	bl	pthread_getspecific
	cbz	x0, .L689
	ldr	x0, [x0, 8]
	cbz	x0, .L689
	ldr	x1, [x0]
	cbnz	x1, .L689
	ldrb	w1, [x19, 184]
	strb	w1, [x19]
	str	x19, [x0]
	b	.L690
.L689:
	mov	x0, x19
	bl	_ZdlPv
.L690:
	str	xzr, [x21, 8]
.L656:
	ldp	x19, x20, [sp, 16]
	ldp	x21, x22, [sp, 32]
	ldp	x29, x30, [sp], 48
	.cfi_restore 30
	.cfi_restore 29
	.cfi_restore 21
	.cfi_restore 22
	.cfi_restore 19
	.cfi_restore 20
	.cfi_def_cfa_offset 0
	ret
	.cfi_endproc
.LFE9372:
	.section	.gcc_except_table
.LLSDA9372:
	.byte	0xff
	.byte	0xff
	.byte	0x1
	.uleb128 .LLSDACSE9372-.LLSDACSB9372
.LLSDACSB9372:
.LLSDACSE9372:
	.section	.text.unlikely
	.size	_ZN4asio6detail18completion_handlerINS0_17rewrapped_handlerINS0_7binder1INS0_15wrapped_handlerINS_10io_service6strandEZN7asiopal8Executor5StartERKNSt6chrono10time_pointINS9_3_V212steady_clockENS9_8durationIlSt5ratioILl1ELl1000000000EEEEEERKSt8functionIFvvEEEUlRKSt10error_codeE_NS0_26is_continuation_if_runningEEESP_EESS_EEE3ptr5resetEv, .-_ZN4asio6detail18completion_handlerINS0_17rewrapped_handlerINS0_7binder1INS0_15wrapped_handlerINS_10io_service6strandEZN7asiopal8Executor5StartERKNSt6chrono10time_pointINS9_3_V212steady_clockENS9_8durationIlSt5ratioILl1ELl1000000000EEEEEERKSt8functionIFvvEEEUlRKSt10error_codeE_NS0_26is_continuation_if_runningEEESP_EESS_EEE3ptr5resetEv
	.section	.text.unlikely._ZSt20__throw_bad_weak_ptrv,"axG",@progbits,_ZSt20__throw_bad_weak_ptrv,comdat
	.align	2
	.weak	_ZSt20__throw_bad_weak_ptrv
	.type	_ZSt20__throw_bad_weak_ptrv, %function
_ZSt20__throw_bad_weak_ptrv:
.LFB1762:
	.cfi_startproc
	stp	x29, x30, [sp, -16]!
	.cfi_def_cfa_offset 16
	.cfi_offset 29, -16
	.cfi_offset 30, -8
	mov	x0, 8
	mov	x29, sp
	bl	__cxa_allocate_exception
	adrp	x3, :got:_ZTVSt12bad_weak_ptr
	adrp	x2, :got:_ZNSt12bad_weak_ptrD1Ev
	adrp	x1, :got:_ZTISt12bad_weak_ptr
	ldr	x3, [x3, #:got_lo12:_ZTVSt12bad_weak_ptr]
	ldr	x2, [x2, #:got_lo12:_ZNSt12bad_weak_ptrD1Ev]
	add	x3, x3, 16
	ldr	x1, [x1, #:got_lo12:_ZTISt12bad_weak_ptr]
	str	x3, [x0]
	bl	__cxa_throw
	.cfi_endproc
.LFE1762:
	.size	_ZSt20__throw_bad_weak_ptrv, .-_ZSt20__throw_bad_weak_ptrv
	.global	__aarch64_cas4_acq_rel
	.global	__aarch64_ldadd8_acq_rel
	.text
	.align	2
	.p2align 4,,11
	.global	_ZN7asiopal8Executor4PostERKSt8functionIFvvEE
	.type	_ZN7asiopal8Executor4PostERKSt8functionIFvvEE, %function
_ZN7asiopal8Executor4PostERKSt8functionIFvvEE:
.LFB7047:
	.cfi_startproc
	.cfi_personality 0x9b,DW.ref.__gxx_personality_v0
	.cfi_lsda 0x1b,.LLSDA7047
	stp	x29, x30, [sp, -256]!
	.cfi_def_cfa_offset 256
	.cfi_offset 29, -256
	.cfi_offset 30, -248
	adrp	x2, :got:__stack_chk_guard
	mov	x29, sp
	ldr	x2, [x2, #:got_lo12:__stack_chk_guard]
	stp	x19, x20, [sp, 16]
	.cfi_offset 19, -240
	.cfi_offset 20, -232
	mov	x20, x0
	stp	x21, x22, [sp, 32]
	stp	x23, x24, [sp, 48]
	.cfi_offset 21, -224
	.cfi_offset 22, -216
	.cfi_offset 23, -208
	.cfi_offset 24, -200
	ldr	x3, [x1, 16]
	ldr	x0, [x2]
	str	x0, [sp, 248]
	mov	x0, 0
	stp	xzr, xzr, [sp, 144]
	stp	xzr, xzr, [sp, 160]
	cbz	x3, .L713
	add	x22, sp, 144
	mov	x19, x1
	mov	x0, x22
	mov	w2, 2
.LEHB14:
	blr	x3
.LEHE14:
	ldr	q0, [x19, 16]
	str	q0, [sp, 160]
.L713:
	ldr	x2, [x20, 16]
	str	x2, [sp, 184]
	cbz	x2, .L714
	add	x19, x2, 8
	ldr	w21, [x19]
.L719:
	cbz	w21, .L714
	add	w1, w21, 1
	mov	w0, w21
	mov	x2, x19
	bl	__aarch64_cas4_acq_rel
	cmp	w0, w21
	mov	w21, w0
	bne	.L719
	ldr	x3, [sp, 160]
	stp	xzr, xzr, [sp, 192]
	add	x21, sp, 192
	ldr	x0, [x20, 8]
	str	x0, [sp, 176]
	stp	xzr, xzr, [sp, 208]
	cbz	x3, .L769
	add	x22, sp, 144
	add	x21, sp, 192
	mov	x1, x22
	mov	x0, x21
	mov	w2, 2
.LEHB15:
	blr	x3
.LEHE15:
	ldr	q0, [sp, 160]
	ldr	x0, [sp, 176]
	str	q0, [sp, 208]
.L769:
	ldr	x1, [sp, 184]
	stp	x0, x1, [sp, 224]
	cbz	x1, .L721
	adrp	x0, :got:__libc_single_threaded
	ldr	x0, [x0, #:got_lo12:__libc_single_threaded]
	ldrb	w0, [x0]
	cbz	w0, .L725
	ldr	w0, [x1, 8]
	add	w0, w0, 1
	str	w0, [x1, 8]
.L721:
	adrp	x22, :got:_ZN4asio6detail10call_stackINS0_15task_io_serviceENS0_27task_io_service_thread_infoEE4top_E
	str	x21, [sp, 120]
	stp	xzr, xzr, [sp, 128]
	ldr	x0, [x22, #:got_lo12:_ZN4asio6detail10call_stackINS0_15task_io_serviceENS0_27task_io_service_thread_infoEE4top_E]
	ldr	x23, [x20, 40]
	ldr	w0, [x0]
	bl	pthread_getspecific
	cbz	x0, .L726
	ldr	x0, [x0, 8]
	cbz	x0, .L726
	ldr	x19, [x0]
	cbz	x19, .L726
	str	xzr, [x0]
	ldrb	w0, [x19]
	cmp	w0, 71
	bls	.L727
	strb	w0, [x19, 72]
	b	.L728
	.p2align 2,,3
.L727:
	mov	x0, x19
	bl	_ZdlPv
.L726:
	mov	x0, 73
.LEHB16:
	bl	_Znwm
.LEHE16:
	mov	x19, x0
	mov	w1, 72
	strb	w1, [x0, 72]
.L728:
	add	x24, x19, 24
	adrp	x0, _ZN4asio6detail18completion_handlerIZN7asiopal8Executor4PostERKSt8functionIFvvEEEUlvE_E11do_completeEPNS0_15task_io_serviceEPNS0_25task_io_service_operationERKSt10error_codem
	ldr	x3, [sp, 208]
	add	x0, x0, :lo12:_ZN4asio6detail18completion_handlerIZN7asiopal8Executor4PostERKSt8functionIFvvEEEUlvE_E11do_completeEPNS0_15task_io_serviceEPNS0_25task_io_service_operationERKSt10error_codem
	stp	xzr, x0, [x19]
	str	wzr, [x19, 16]
	stp	xzr, xzr, [x19, 24]
	stp	xzr, xzr, [x24, 16]
	str	x19, [sp, 128]
	cbz	x3, .L729
	mov	x1, x21
	mov	x0, x24
	mov	w2, 2
.LEHB17:
	blr	x3
.LEHE17:
	ldr	q0, [sp, 208]
	str	q0, [x19, 40]
.L729:
	dup	v1.2d, x19
	ldr	q0, [sp, 224]
	stp	xzr, xzr, [sp, 224]
	str	q1, [sp, 64]
	str	q0, [x19, 56]
	ldr	x0, [x20, 48]
	add	x0, x0, 24
	bl	pthread_mutex_lock
	ldr	x0, [x20, 48]
	ldrb	w1, [x0, 72]
	cbz	w1, .L829
	str	xzr, [x19]
	ldr	x3, [x0, 88]
	cbz	x3, .L735
	str	x19, [x3]
	str	x19, [x0, 88]
.L736:
	add	x0, x0, 24
	bl	pthread_mutex_unlock
.L737:
	ldr	x19, [sp, 232]
	cbz	x19, .L751
	adrp	x20, :got:__libc_single_threaded
	ldr	x0, [x20, #:got_lo12:__libc_single_threaded]
	ldrb	w0, [x0]
	cbz	w0, .L752
	ldr	w0, [x19, 8]
	sub	w1, w0, #1
	str	w1, [x19, 8]
.L753:
	cmp	w0, 1
	beq	.L830
.L751:
	ldr	x3, [sp, 208]
	cbz	x3, .L757
	mov	x1, x21
	mov	x0, x21
	mov	w2, 3
	blr	x3
.L757:
	ldr	x19, [sp, 184]
	cbz	x19, .L759
	adrp	x20, :got:__libc_single_threaded
	ldr	x0, [x20, #:got_lo12:__libc_single_threaded]
	ldrb	w0, [x0]
	cbz	w0, .L760
	ldr	w0, [x19, 8]
	sub	w1, w0, #1
	str	w1, [x19, 8]
.L761:
	cmp	w0, 1
	beq	.L831
.L759:
	ldr	x3, [sp, 160]
	cbz	x3, .L712
	add	x1, sp, 144
	mov	w2, 3
	mov	x0, x1
	blr	x3
.L712:
	adrp	x0, :got:__stack_chk_guard
	ldr	x0, [x0, #:got_lo12:__stack_chk_guard]
	ldr	x2, [sp, 248]
	ldr	x1, [x0]
	subs	x2, x2, x1
	mov	x1, 0
	bne	.L832
	ldp	x19, x20, [sp, 16]
	ldp	x21, x22, [sp, 32]
	ldp	x23, x24, [sp, 48]
	ldp	x29, x30, [sp], 256
	.cfi_remember_state
	.cfi_restore 30
	.cfi_restore 29
	.cfi_restore 23
	.cfi_restore 24
	.cfi_restore 21
	.cfi_restore 22
	.cfi_restore 19
	.cfi_restore 20
	.cfi_def_cfa_offset 0
	ret
	.p2align 2,,3
.L725:
	.cfi_restore_state
	add	x1, x1, 8
	mov	w0, 1
	bl	__aarch64_ldadd4_acq_rel
	b	.L721
	.p2align 2,,3
.L735:
	ldr	q0, [sp, 64]
	str	q0, [x0, 80]
	b	.L736
	.p2align 2,,3
.L829:
	mov	w1, 1
	strb	w1, [x0, 72]
	add	x0, x0, 24
	bl	pthread_mutex_unlock
	ldr	x20, [x20, 48]
	dup	v0.2d, x20
	ldr	x1, [x20, 104]
	str	xzr, [x19]
	str	q0, [sp, 80]
	cbz	x1, .L738
	str	x19, [x1]
	str	x19, [x20, 104]
.L739:
	ldr	x19, [x23, 40]
	ldrb	w0, [x19, 40]
	cbnz	w0, .L833
.L740:
	add	x1, x19, 192
	add	x22, x19, 48
	mov	x0, 1
	bl	__aarch64_ldadd8_acq_rel
	mov	x0, x22
	bl	pthread_mutex_lock
	ldr	x1, [x19, 208]
	str	xzr, [x20]
	cbz	x1, .L745
	str	x20, [x1]
	str	x20, [x19, 208]
.L746:
	ldr	x1, [x19, 144]
	add	x20, x19, 96
	orr	x1, x1, 1
	str	x1, [x19, 144]
	cmp	x1, 1
	beq	.L747
	mov	x0, x22
	bl	pthread_mutex_unlock
	mov	x0, x20
	bl	pthread_cond_signal
	b	.L737
	.p2align 2,,3
.L745:
	ldr	q0, [sp, 80]
	str	q0, [x19, 200]
	b	.L746
	.p2align 2,,3
.L747:
	ldrb	w0, [x19, 184]
	cbnz	w0, .L749
	ldr	x3, [x19, 152]
	cbz	x3, .L749
	ldr	w2, [x3, 96]
	add	x4, x3, 96
	ldr	w0, [x3, 104]
	mov	w5, 9
	movk	w5, 0x8000, lsl 16
	strb	w1, [x19, 184]
	add	x3, sp, 104
	mov	w1, 3
	str	w5, [sp, 104]
	str	x4, [sp, 112]
	bl	epoll_ctl
.L749:
	mov	x0, x22
	bl	pthread_mutex_unlock
	b	.L737
	.p2align 2,,3
.L831:
	ldr	x1, [x19]
	mov	x0, x19
	ldr	x1, [x1, 16]
	blr	x1
	ldr	x20, [x20, #:got_lo12:__libc_single_threaded]
	ldrb	w0, [x20]
	cbz	w0, .L763
	ldr	w0, [x19, 12]
	sub	w1, w0, #1
	str	w1, [x19, 12]
.L764:
	cmp	w0, 1
	bne	.L759
	ldr	x1, [x19]
	mov	x0, x19
	ldr	x1, [x1, 24]
	blr	x1
	b	.L759
	.p2align 2,,3
.L830:
	ldr	x1, [x19]
	mov	x0, x19
	ldr	x1, [x1, 16]
	blr	x1
	ldr	x20, [x20, #:got_lo12:__libc_single_threaded]
	ldrb	w0, [x20]
	cbz	w0, .L755
	ldr	w0, [x19, 12]
	sub	w1, w0, #1
	str	w1, [x19, 12]
.L756:
	cmp	w0, 1
	bne	.L751
	ldr	x1, [x19]
	mov	x0, x19
	ldr	x1, [x1, 24]
	blr	x1
	b	.L751
	.p2align 2,,3
.L760:
	add	x1, x19, 8
	mov	w0, -1
	bl	__aarch64_ldadd4_acq_rel
	b	.L761
	.p2align 2,,3
.L752:
	add	x1, x19, 8
	mov	w0, -1
	bl	__aarch64_ldadd4_acq_rel
	b	.L753
	.p2align 2,,3
.L833:
	ldr	x22, [x22, #:got_lo12:_ZN4asio6detail10call_stackINS0_15task_io_serviceENS0_27task_io_service_thread_infoEE4top_E]
	ldr	w0, [x22]
	bl	pthread_getspecific
	cbnz	x0, .L743
	b	.L740
	.p2align 2,,3
.L741:
	ldr	x0, [x0, 16]
	cbz	x0, .L740
.L743:
	ldr	x1, [x0]
	cmp	x19, x1
	bne	.L741
	ldr	x0, [x0, 8]
	cbz	x0, .L740
	ldp	x3, x1, [x0, 16]
	add	x1, x1, 1
	str	x1, [x0, 24]
	str	xzr, [x20]
	ldr	x1, [x0, 16]
	cbz	x3, .L744
	str	x20, [x1]
	str	x20, [x0, 16]
	b	.L737
	.p2align 2,,3
.L738:
	ldr	q0, [sp, 64]
	str	q0, [x20, 96]
	b	.L739
	.p2align 2,,3
.L755:
	add	x1, x19, 12
	mov	w0, -1
	bl	__aarch64_ldadd4_acq_rel
	b	.L756
	.p2align 2,,3
.L763:
	add	x1, x19, 12
	mov	w0, -1
	bl	__aarch64_ldadd4_acq_rel
	b	.L764
	.p2align 2,,3
.L744:
	ldr	q0, [sp, 80]
	str	q0, [x0, 8]
	b	.L737
.L832:
	bl	__stack_chk_fail
.L775:
	ldr	x3, [x24, 16]
	mov	x19, x0
	cbz	x3, .L733
	mov	x1, x24
	mov	x0, x24
	mov	w2, 3
	blr	x3
.L733:
	add	x0, sp, 120
	bl	_ZN4asio6detail18completion_handlerIZN7asiopal8Executor4PostERKSt8functionIFvvEEEUlvE_E3ptr5resetEv
.L734:
	add	x22, sp, 144
	mov	x0, x21
	bl	_ZZN7asiopal8Executor4PostERKSt8functionIFvvEEENUlvE_D1Ev
.L724:
	mov	x0, x22
	bl	_ZZN7asiopal8Executor4PostERKSt8functionIFvvEEENUlvE_D1Ev
.L828:
	mov	x0, x19
.LEHB18:
	bl	_Unwind_Resume
.LEHE18:
.L773:
	mov	x19, x0
	b	.L734
.L774:
	ldr	x3, [sp, 208]
	mov	x19, x0
	cbz	x3, .L724
	mov	x1, x21
	mov	x0, x21
	mov	w2, 3
	blr	x3
	b	.L724
.L714:
.LEHB19:
	bl	_ZSt20__throw_bad_weak_ptrv
.LEHE19:
.L772:
	ldr	x3, [sp, 160]
	mov	x19, x0
	cbz	x3, .L828
	mov	x1, x22
	mov	x0, x22
	mov	w2, 3
	blr	x3
	b	.L828
.L771:
	ldr	x3, [sp, 160]
	mov	x19, x0
	cbz	x3, .L828
	add	x1, sp, 144
	mov	w2, 3
	mov	x0, x1
	blr	x3
	b	.L828
	.cfi_endproc
.LFE7047:
	.section	.gcc_except_table
.LLSDA7047:
	.byte	0xff
	.byte	0xff
	.byte	0x1
	.uleb128 .LLSDACSE7047-.LLSDACSB7047
.LLSDACSB7047:
	.uleb128 .LEHB14-.LFB7047
	.uleb128 .LEHE14-.LEHB14
	.uleb128 .L772-.LFB7047
	.uleb128 0
	.uleb128 .LEHB15-.LFB7047
	.uleb128 .LEHE15-.LEHB15
	.uleb128 .L774-.LFB7047
	.uleb128 0
	.uleb128 .LEHB16-.LFB7047
	.uleb128 .LEHE16-.LEHB16
	.uleb128 .L773-.LFB7047
	.uleb128 0
	.uleb128 .LEHB17-.LFB7047
	.uleb128 .LEHE17-.LEHB17
	.uleb128 .L775-.LFB7047
	.uleb128 0
	.uleb128 .LEHB18-.LFB7047
	.uleb128 .LEHE18-.LEHB18
	.uleb128 0
	.uleb128 0
	.uleb128 .LEHB19-.LFB7047
	.uleb128 .LEHE19-.LEHB19
	.uleb128 .L771-.LFB7047
	.uleb128 0
.LLSDACSE7047:
	.text
	.size	_ZN7asiopal8Executor4PostERKSt8functionIFvvEE, .-_ZN7asiopal8Executor4PostERKSt8functionIFvvEE
	.section	.rodata._ZNSt12system_errorC2ESt10error_codePKc.str1.8,"aMS",@progbits,1
	.align	3
.LC19:
	.string	": "
	.section	.text._ZNSt12system_errorC2ESt10error_codePKc,"axG",@progbits,_ZNSt12system_errorC5ESt10error_codePKc,comdat
	.align	2
	.p2align 4,,11
	.weak	_ZNSt12system_errorC2ESt10error_codePKc
	.type	_ZNSt12system_errorC2ESt10error_codePKc, %function
_ZNSt12system_errorC2ESt10error_codePKc:
.LFB2219:
	.cfi_startproc
	.cfi_personality 0x9b,DW.ref.__gxx_personality_v0
	.cfi_lsda 0x1b,.LLSDA2219
	stp	x29, x30, [sp, -176]!
	.cfi_def_cfa_offset 176
	.cfi_offset 29, -176
	.cfi_offset 30, -168
	adrp	x4, :got:__stack_chk_guard
	mov	x29, sp
	stp	x19, x20, [sp, 16]
	.cfi_offset 19, -160
	.cfi_offset 20, -152
	mov	x20, x2
	mov	x19, x0
	ldr	x2, [x4, #:got_lo12:__stack_chk_guard]
	stp	x21, x22, [sp, 32]
	mov	x0, x20
	ldr	x4, [x20]
	.cfi_offset 21, -144
	.cfi_offset 22, -136
	mov	x21, x1
	mov	x22, x3
	ldr	x4, [x4, 32]
	str	x23, [sp, 48]
	.cfi_offset 23, -128
	add	x23, sp, 136
	mov	x8, x23
	ldr	x3, [x2]
	str	x3, [sp, 168]
	mov	x3, 0
.LEHB20:
	blr	x4
.LEHE20:
	adrp	x3, .LC19
	mov	x0, x23
	add	x3, x3, :lo12:.LC19
	mov	x4, 2
	mov	x2, 0
	mov	x1, 0
.LEHB21:
	bl	_ZNSt7__cxx1112basic_stringIcSt11char_traitsIcESaIcEE10_M_replaceEmmPKcm
.LEHE21:
	add	x23, sp, 120
	str	x23, [sp, 104]
	mov	x4, x0
	ldr	x1, [x0], 16
	cmp	x1, x0
	beq	.L854
	ldr	x2, [x4, 16]
	str	x1, [sp, 104]
	str	x2, [sp, 120]
.L836:
	ldr	x1, [x4, 8]
	str	x1, [sp, 112]
	stp	x0, xzr, [x4]
	mov	x0, x22
	strb	wzr, [x4, 16]
	bl	strlen
	mov	x4, x0
	mov	x3, x22
	add	x0, sp, 104
	mov	x2, 0
	mov	x1, 0
.LEHB22:
	bl	_ZNSt7__cxx1112basic_stringIcSt11char_traitsIcESaIcEE10_M_replaceEmmPKcm
.LEHE22:
	add	x22, sp, 88
	str	x22, [sp, 72]
	mov	x3, x0
	ldr	x1, [x0], 16
	cmp	x1, x0
	beq	.L855
	ldr	x2, [x3, 16]
	str	x1, [sp, 72]
	str	x2, [sp, 88]
.L838:
	ldr	x1, [x3, 8]
	str	x1, [sp, 80]
	stp	x0, xzr, [x3]
	add	x1, sp, 72
	mov	x0, x19
	strb	wzr, [x3, 16]
.LEHB23:
	bl	_ZNSt13runtime_errorC2ERKNSt7__cxx1112basic_stringIcSt11char_traitsIcESaIcEEE
.LEHE23:
	ldr	x0, [sp, 72]
	cmp	x0, x22
	beq	.L839
	ldr	x1, [sp, 88]
	add	x1, x1, 1
	bl	_ZdlPvm
.L839:
	ldr	x0, [sp, 104]
	cmp	x0, x23
	beq	.L840
	ldr	x1, [sp, 120]
	add	x1, x1, 1
	bl	_ZdlPvm
.L840:
	ldr	x0, [sp, 136]
	add	x1, sp, 152
	cmp	x0, x1
	beq	.L841
	ldr	x1, [sp, 152]
	add	x1, x1, 1
	bl	_ZdlPvm
.L841:
	adrp	x0, :got:_ZTVSt12system_error
	adrp	x1, :got:__stack_chk_guard
	stp	x21, x20, [x19, 16]
	ldr	x0, [x0, #:got_lo12:_ZTVSt12system_error]
	ldr	x1, [x1, #:got_lo12:__stack_chk_guard]
	add	x0, x0, 16
	str	x0, [x19]
	ldr	x0, [sp, 168]
	ldr	x2, [x1]
	subs	x0, x0, x2
	mov	x2, 0
	bne	.L856
	ldp	x19, x20, [sp, 16]
	ldp	x21, x22, [sp, 32]
	ldr	x23, [sp, 48]
	ldp	x29, x30, [sp], 176
	.cfi_remember_state
	.cfi_restore 30
	.cfi_restore 29
	.cfi_restore 23
	.cfi_restore 21
	.cfi_restore 22
	.cfi_restore 19
	.cfi_restore 20
	.cfi_def_cfa_offset 0
	ret
	.p2align 2,,3
.L854:
	.cfi_restore_state
	ldp	x2, x3, [x4, 16]
	stp	x2, x3, [sp, 120]
	b	.L836
	.p2align 2,,3
.L855:
	ldp	x4, x5, [x3, 16]
	stp	x4, x5, [sp, 88]
	b	.L838
.L856:
	bl	__stack_chk_fail
.L851:
	ldr	x2, [sp, 72]
	mov	x19, x0
	cmp	x2, x22
	beq	.L844
	ldr	x1, [sp, 88]
	mov	x0, x2
	add	x1, x1, 1
	bl	_ZdlPvm
.L844:
	ldr	x0, [sp, 104]
	cmp	x0, x23
	beq	.L846
	ldr	x1, [sp, 120]
	add	x1, x1, 1
	bl	_ZdlPvm
.L846:
	ldr	x0, [sp, 136]
	add	x1, sp, 152
	cmp	x0, x1
	beq	.L847
	ldr	x1, [sp, 152]
	add	x1, x1, 1
	bl	_ZdlPvm
.L847:
	mov	x0, x19
.LEHB24:
	bl	_Unwind_Resume
.LEHE24:
.L849:
	mov	x19, x0
	b	.L846
.L850:
	mov	x19, x0
	b	.L844
	.cfi_endproc
.LFE2219:
	.section	.gcc_except_table
.LLSDA2219:
	.byte	0xff
	.byte	0xff
	.byte	0x1
	.uleb128 .LLSDACSE2219-.LLSDACSB2219
.LLSDACSB2219:
	.uleb128 .LEHB20-.LFB2219
	.uleb128 .LEHE20-.LEHB20
	.uleb128 0
	.uleb128 0
	.uleb128 .LEHB21-.LFB2219
	.uleb128 .LEHE21-.LEHB21
	.uleb128 .L849-.LFB2219
	.uleb128 0
	.uleb128 .LEHB22-.LFB2219
	.uleb128 .LEHE22-.LEHB22
	.uleb128 .L850-.LFB2219
	.uleb128 0
	.uleb128 .LEHB23-.LFB2219
	.uleb128 .LEHE23-.LEHB23
	.uleb128 .L851-.LFB2219
	.uleb128 0
	.uleb128 .LEHB24-.LFB2219
	.uleb128 .LEHE24-.LEHB24
	.uleb128 0
	.uleb128 0
.LLSDACSE2219:
	.section	.text._ZNSt12system_errorC2ESt10error_codePKc,"axG",@progbits,_ZNSt12system_errorC5ESt10error_codePKc,comdat
	.size	_ZNSt12system_errorC2ESt10error_codePKc, .-_ZNSt12system_errorC2ESt10error_codePKc
	.weak	_ZNSt12system_errorC1ESt10error_codePKc
	.set	_ZNSt12system_errorC1ESt10error_codePKc,_ZNSt12system_errorC2ESt10error_codePKc
	.section	.text.unlikely._ZN4asio6detail14do_throw_errorERKSt10error_codePKc,"axG",@progbits,_ZN4asio6detail14do_throw_errorERKSt10error_codePKc,comdat
	.align	2
	.weak	_ZN4asio6detail14do_throw_errorERKSt10error_codePKc
	.type	_ZN4asio6detail14do_throw_errorERKSt10error_codePKc, %function
_ZN4asio6detail14do_throw_errorERKSt10error_codePKc:
.LFB2283:
	.cfi_startproc
	.cfi_personality 0x9b,DW.ref.__gxx_personality_v0
	.cfi_lsda 0x1b,.LLSDA2283
	mov	x2, x0
	stp	x29, x30, [sp, -80]!
	.cfi_def_cfa_offset 80
	.cfi_offset 29, -80
	.cfi_offset 30, -72
	adrp	x4, :got:__stack_chk_guard
	mov	x3, x1
	mov	x29, sp
	ldr	x4, [x4, #:got_lo12:__stack_chk_guard]
	stp	x19, x20, [sp, 16]
	.cfi_offset 19, -64
	.cfi_offset 20, -56
	add	x20, sp, 40
	ldp	x1, x2, [x2]
	ldr	x5, [x4]
	str	x5, [sp, 72]
	mov	x5, 0
	mov	x0, x20
.LEHB25:
	bl	_ZNSt12system_errorC1ESt10error_codePKc
.LEHE25:
	mov	x0, 32
	bl	__cxa_allocate_exception
	mov	x1, x20
	mov	x19, x0
	bl	_ZNSt13runtime_errorC2ERKS_
	adrp	x3, :got:_ZTVSt12system_error
	adrp	x2, :got:_ZNSt12system_errorD1Ev
	adrp	x1, :got:_ZTISt12system_error
	mov	x0, x19
	ldr	x3, [x3, #:got_lo12:_ZTVSt12system_error]
	ldp	x4, x5, [sp, 56]
	add	x3, x3, 16
	ldr	x2, [x2, #:got_lo12:_ZNSt12system_errorD1Ev]
	str	x3, [x19]
	ldr	x1, [x1, #:got_lo12:_ZTISt12system_error]
	stp	x4, x5, [x19, 16]
.LEHB26:
	bl	__cxa_throw
.LEHE26:
.L860:
	mov	x19, x0
	mov	x0, x20
	bl	_ZNSt12system_errorD1Ev
	mov	x0, x19
.LEHB27:
	bl	_Unwind_Resume
.LEHE27:
	.cfi_endproc
.LFE2283:
	.section	.gcc_except_table
.LLSDA2283:
	.byte	0xff
	.byte	0xff
	.byte	0x1
	.uleb128 .LLSDACSE2283-.LLSDACSB2283
.LLSDACSB2283:
	.uleb128 .LEHB25-.LFB2283
	.uleb128 .LEHE25-.LEHB25
	.uleb128 0
	.uleb128 0
	.uleb128 .LEHB26-.LFB2283
	.uleb128 .LEHE26-.LEHB26
	.uleb128 .L860-.LFB2283
	.uleb128 0
	.uleb128 .LEHB27-.LFB2283
	.uleb128 .LEHE27-.LEHB27
	.uleb128 0
	.uleb128 0
.LLSDACSE2283:
	.section	.text.unlikely._ZN4asio6detail14do_throw_errorERKSt10error_codePKc,"axG",@progbits,_ZN4asio6detail14do_throw_errorERKSt10error_codePKc,comdat
	.size	_ZN4asio6detail14do_throw_errorERKSt10error_codePKc, .-_ZN4asio6detail14do_throw_errorERKSt10error_codePKc
	.section	.rodata._ZN4asio6detail20posix_tss_ptr_createERj.str1.8,"aMS",@progbits,1
	.align	3
.LC20:
	.string	"tss"
	.section	.text._ZN4asio6detail20posix_tss_ptr_createERj,"axG",@progbits,_ZN4asio6detail20posix_tss_ptr_createERj,comdat
	.align	2
	.p2align 4,,11
	.weak	_ZN4asio6detail20posix_tss_ptr_createERj
	.type	_ZN4asio6detail20posix_tss_ptr_createERj, %function
_ZN4asio6detail20posix_tss_ptr_createERj:
.LFB2307:
	.cfi_startproc
	stp	x29, x30, [sp, -80]!
	.cfi_def_cfa_offset 80
	.cfi_offset 29, -80
	.cfi_offset 30, -72
	adrp	x2, :got:__stack_chk_guard
	mov	x1, 0
	mov	x29, sp
	ldr	x2, [x2, #:got_lo12:__stack_chk_guard]
	stp	x19, x20, [sp, 16]
	.cfi_offset 19, -64
	.cfi_offset 20, -56
	adrp	x20, :got:_ZGVZN4asio15system_categoryEvE8instance
	str	x21, [sp, 32]
	.cfi_offset 21, -48
	ldr	x3, [x2]
	str	x3, [sp, 72]
	mov	x3, 0
	bl	pthread_key_create
	mov	w19, w0
	ldr	x20, [x20, #:got_lo12:_ZGVZN4asio15system_categoryEvE8instance]
	ldar	x0, [x20]
	adrp	x21, :got:_ZZN4asio15system_categoryEvE8instance
	tbz	x0, 0, .L872
.L864:
	ldr	x21, [x21, #:got_lo12:_ZZN4asio15system_categoryEvE8instance]
	str	w19, [sp, 56]
	str	x21, [sp, 64]
	cbnz	w19, .L873
	adrp	x0, :got:__stack_chk_guard
	ldr	x0, [x0, #:got_lo12:__stack_chk_guard]
	ldr	x2, [sp, 72]
	ldr	x1, [x0]
	subs	x2, x2, x1
	mov	x1, 0
	bne	.L874
	ldp	x19, x20, [sp, 16]
	ldr	x21, [sp, 32]
	ldp	x29, x30, [sp], 80
	.cfi_remember_state
	.cfi_restore 30
	.cfi_restore 29
	.cfi_restore 21
	.cfi_restore 19
	.cfi_restore 20
	.cfi_def_cfa_offset 0
	ret
	.p2align 2,,3
.L872:
	.cfi_restore_state
	mov	x0, x20
	adrp	x21, :got:_ZZN4asio15system_categoryEvE8instance
	bl	__cxa_guard_acquire
	cbz	w0, .L864
	adrp	x0, :got:_ZN4asio6detail15system_categoryD1Ev
	adrp	x2, __dso_handle
	ldr	x1, [x21, #:got_lo12:_ZZN4asio15system_categoryEvE8instance]
	add	x2, x2, :lo12:__dso_handle
	ldr	x0, [x0, #:got_lo12:_ZN4asio6detail15system_categoryD1Ev]
	bl	__cxa_atexit
	mov	x0, x20
	bl	__cxa_guard_release
	b	.L864
.L874:
	bl	__stack_chk_fail
.L873:
	adrp	x1, .LC20
	add	x0, sp, 56
	add	x1, x1, :lo12:.LC20
	bl	_ZN4asio6detail14do_throw_errorERKSt10error_codePKc
	.cfi_endproc
.LFE2307:
	.size	_ZN4asio6detail20posix_tss_ptr_createERj, .-_ZN4asio6detail20posix_tss_ptr_createERj
	.section	.text._ZN4asio6detail14strand_service16on_dispatch_exitD2Ev,"axG",@progbits,_ZN4asio6detail14strand_service16on_dispatch_exitD5Ev,comdat
	.align	2
	.p2align 4,,11
	.weak	_ZN4asio6detail14strand_service16on_dispatch_exitD2Ev
	.type	_ZN4asio6detail14strand_service16on_dispatch_exitD2Ev, %function
_ZN4asio6detail14strand_service16on_dispatch_exitD2Ev:
.LFB6403:
	.cfi_startproc
	stp	x29, x30, [sp, -80]!
	.cfi_def_cfa_offset 80
	.cfi_offset 29, -80
	.cfi_offset 30, -72
	adrp	x1, :got:__stack_chk_guard
	mov	x29, sp
	ldr	x1, [x1, #:got_lo12:__stack_chk_guard]
	stp	x19, x20, [sp, 16]
	.cfi_offset 19, -64
	.cfi_offset 20, -56
	mov	x19, x0
	ldr	x2, [x1]
	str	x2, [sp, 72]
	mov	x2, 0
	ldr	x0, [x0, 8]
	add	x0, x0, 24
	bl	pthread_mutex_lock
	ldr	x1, [x19, 8]
	ldr	x20, [x1, 80]
	cbz	x20, .L911
	ldr	x2, [x1, 104]
	add	x0, x1, 96
	cbz	x2, .L878
	str	x20, [x2]
	ldr	x20, [x1, 96]
.L879:
	ldr	x2, [x1, 88]
	str	x2, [x0, 8]
	stp	xzr, xzr, [x1, 80]
.L877:
	cmp	x20, 0
	cset	w0, ne
	strb	w0, [x1, 72]
	add	x0, x1, 24
	bl	pthread_mutex_unlock
	cbnz	x20, .L912
.L875:
	adrp	x0, :got:__stack_chk_guard
	ldr	x0, [x0, #:got_lo12:__stack_chk_guard]
	ldr	x2, [sp, 72]
	ldr	x1, [x0]
	subs	x2, x2, x1
	mov	x1, 0
	bne	.L913
	ldp	x19, x20, [sp, 16]
	ldp	x29, x30, [sp], 80
	.cfi_remember_state
	.cfi_restore 30
	.cfi_restore 29
	.cfi_restore 19
	.cfi_restore 20
	.cfi_def_cfa_offset 0
	ret
	.p2align 2,,3
.L878:
	.cfi_restore_state
	str	x20, [x1, 96]
	b	.L879
	.p2align 2,,3
.L912:
	ldp	x20, x19, [x19]
	ldrb	w0, [x20, 40]
	cbnz	w0, .L914
.L908:
	add	x1, x20, 192
	mov	x0, 1
	str	x21, [sp, 32]
	.cfi_offset 21, -48
	bl	__aarch64_ldadd8_acq_rel
	add	x21, x20, 48
	mov	x0, x21
	bl	pthread_mutex_lock
	ldr	x1, [x20, 208]
	str	xzr, [x19]
	add	x0, x20, 200
	cbz	x1, .L886
	ldr	x1, [x20, 208]
	str	x19, [x1]
	str	x19, [x0, 8]
.L887:
	ldr	x1, [x20, 144]
	add	x19, x20, 96
	orr	x1, x1, 1
	str	x1, [x19, 48]
	cmp	x1, 1
	beq	.L888
	mov	x0, x21
	bl	pthread_mutex_unlock
	adrp	x0, :got:__stack_chk_guard
	ldr	x0, [x0, #:got_lo12:__stack_chk_guard]
	ldr	x2, [sp, 72]
	ldr	x1, [x0]
	subs	x2, x2, x1
	mov	x1, 0
	bne	.L910
	mov	x0, x19
	ldp	x19, x20, [sp, 16]
	ldr	x21, [sp, 32]
	.cfi_restore 21
	ldp	x29, x30, [sp], 80
	.cfi_restore 30
	.cfi_restore 29
	.cfi_restore 19
	.cfi_restore 20
	.cfi_def_cfa_offset 0
	b	pthread_cond_signal
	.p2align 2,,3
.L911:
	.cfi_def_cfa_offset 80
	.cfi_offset 19, -64
	.cfi_offset 20, -56
	.cfi_offset 29, -80
	.cfi_offset 30, -72
	ldr	x20, [x1, 96]
	b	.L877
	.p2align 2,,3
.L886:
	.cfi_offset 21, -48
	str	x19, [x0, 8]
	str	x19, [x20, 200]
	b	.L887
	.p2align 2,,3
.L888:
	ldrb	w0, [x20, 184]
	cbnz	w0, .L890
	ldr	x3, [x20, 152]
	cbz	x3, .L890
	ldr	w2, [x3, 96]
	add	x4, x3, 96
	ldr	w0, [x3, 104]
	mov	w5, 9
	movk	w5, 0x8000, lsl 16
	strb	w1, [x20, 184]
	add	x3, sp, 56
	mov	w1, 3
	str	w5, [sp, 56]
	str	x4, [sp, 64]
	bl	epoll_ctl
.L890:
	adrp	x0, :got:__stack_chk_guard
	ldr	x0, [x0, #:got_lo12:__stack_chk_guard]
	ldr	x2, [sp, 72]
	ldr	x1, [x0]
	subs	x2, x2, x1
	mov	x1, 0
	bne	.L910
	mov	x0, x21
	ldp	x19, x20, [sp, 16]
	ldr	x21, [sp, 32]
	.cfi_restore 21
	ldp	x29, x30, [sp], 80
	.cfi_restore 30
	.cfi_restore 29
	.cfi_restore 19
	.cfi_restore 20
	.cfi_def_cfa_offset 0
	b	pthread_mutex_unlock
	.p2align 2,,3
.L914:
	.cfi_def_cfa_offset 80
	.cfi_offset 19, -64
	.cfi_offset 20, -56
	.cfi_offset 29, -80
	.cfi_offset 30, -72
	adrp	x0, :got:_ZN4asio6detail10call_stackINS0_15task_io_serviceENS0_27task_io_service_thread_infoEE4top_E
	ldr	x0, [x0, #:got_lo12:_ZN4asio6detail10call_stackINS0_15task_io_serviceENS0_27task_io_service_thread_infoEE4top_E]
	ldr	w0, [x0]
	bl	pthread_getspecific
	cbnz	x0, .L884
	b	.L908
	.p2align 2,,3
.L882:
	ldr	x0, [x0, 16]
	cbz	x0, .L908
.L884:
	ldr	x1, [x0]
	cmp	x20, x1
	bne	.L882
	ldr	x0, [x0, 8]
	cbz	x0, .L908
	ldr	x1, [x0, 24]
	add	x2, x0, 8
	ldr	x3, [x2, 8]
	add	x1, x1, 1
	str	x1, [x0, 24]
	str	xzr, [x19]
	ldr	x1, [x0, 16]
	cbz	x3, .L885
	str	x19, [x1]
	str	x19, [x2, 8]
	b	.L875
	.p2align 2,,3
.L885:
	str	x19, [x2, 8]
	str	x19, [x0, 8]
	b	.L875
.L913:
	str	x21, [sp, 32]
	.cfi_offset 21, -48
.L910:
	bl	__stack_chk_fail
	.cfi_endproc
.LFE6403:
	.size	_ZN4asio6detail14strand_service16on_dispatch_exitD2Ev, .-_ZN4asio6detail14strand_service16on_dispatch_exitD2Ev
	.weak	_ZN4asio6detail14strand_service16on_dispatch_exitD1Ev
	.set	_ZN4asio6detail14strand_service16on_dispatch_exitD1Ev,_ZN4asio6detail14strand_service16on_dispatch_exitD2Ev
	.section	.text._ZN4asio6detail14strand_service19on_do_complete_exitD2Ev,"axG",@progbits,_ZN4asio6detail14strand_service19on_do_complete_exitD5Ev,comdat
	.align	2
	.p2align 4,,11
	.weak	_ZN4asio6detail14strand_service19on_do_complete_exitD2Ev
	.type	_ZN4asio6detail14strand_service19on_do_complete_exitD2Ev, %function
_ZN4asio6detail14strand_service19on_do_complete_exitD2Ev:
.LFB6408:
	.cfi_startproc
	stp	x29, x30, [sp, -80]!
	.cfi_def_cfa_offset 80
	.cfi_offset 29, -80
	.cfi_offset 30, -72
	adrp	x1, :got:__stack_chk_guard
	mov	x29, sp
	ldr	x1, [x1, #:got_lo12:__stack_chk_guard]
	stp	x19, x20, [sp, 16]
	.cfi_offset 19, -64
	.cfi_offset 20, -56
	mov	x19, x0
	ldr	x2, [x1]
	str	x2, [sp, 72]
	mov	x2, 0
	ldr	x0, [x0, 8]
	add	x0, x0, 24
	bl	pthread_mutex_lock
	ldr	x1, [x19, 8]
	ldr	x20, [x1, 80]
	cbz	x20, .L947
	ldr	x2, [x1, 104]
	add	x0, x1, 96
	cbz	x2, .L918
	str	x20, [x2]
	ldr	x20, [x1, 96]
.L919:
	ldr	x2, [x1, 88]
	str	x2, [x0, 8]
	stp	xzr, xzr, [x1, 80]
.L917:
	cmp	x20, 0
	cset	w0, ne
	strb	w0, [x1, 72]
	add	x0, x1, 24
	bl	pthread_mutex_unlock
	cbnz	x20, .L948
.L915:
	adrp	x0, :got:__stack_chk_guard
	ldr	x0, [x0, #:got_lo12:__stack_chk_guard]
	ldr	x2, [sp, 72]
	ldr	x1, [x0]
	subs	x2, x2, x1
	mov	x1, 0
	bne	.L949
	ldp	x19, x20, [sp, 16]
	ldp	x29, x30, [sp], 80
	.cfi_remember_state
	.cfi_restore 30
	.cfi_restore 29
	.cfi_restore 19
	.cfi_restore 20
	.cfi_def_cfa_offset 0
	ret
	.p2align 2,,3
.L918:
	.cfi_restore_state
	str	x20, [x1, 96]
	b	.L919
	.p2align 2,,3
.L948:
	adrp	x0, :got:_ZN4asio6detail10call_stackINS0_15task_io_serviceENS0_27task_io_service_thread_infoEE4top_E
	ldp	x20, x19, [x19]
	ldr	x0, [x0, #:got_lo12:_ZN4asio6detail10call_stackINS0_15task_io_serviceENS0_27task_io_service_thread_infoEE4top_E]
	ldr	w0, [x0]
	bl	pthread_getspecific
	cbnz	x0, .L924
	b	.L944
	.p2align 2,,3
.L922:
	ldr	x0, [x0, 16]
	cbz	x0, .L944
.L924:
	ldr	x1, [x0]
	cmp	x20, x1
	bne	.L922
	ldr	x0, [x0, 8]
	cbz	x0, .L944
	ldr	x1, [x0, 24]
	add	x2, x0, 8
	ldr	x3, [x2, 8]
	add	x1, x1, 1
	str	x1, [x0, 24]
	str	xzr, [x19]
	ldr	x1, [x0, 16]
	cbz	x3, .L925
	str	x19, [x1]
	str	x19, [x2, 8]
	b	.L915
	.p2align 2,,3
.L947:
	ldr	x20, [x1, 96]
	b	.L917
	.p2align 2,,3
.L944:
	add	x1, x20, 192
	mov	x0, 1
	str	x21, [sp, 32]
	.cfi_offset 21, -48
	bl	__aarch64_ldadd8_acq_rel
	add	x21, x20, 48
	mov	x0, x21
	bl	pthread_mutex_lock
	ldr	x1, [x20, 208]
	str	xzr, [x19]
	add	x0, x20, 200
	cbz	x1, .L926
	ldr	x1, [x20, 208]
	str	x19, [x1]
	str	x19, [x0, 8]
.L927:
	ldr	x1, [x20, 144]
	add	x19, x20, 96
	orr	x1, x1, 1
	str	x1, [x19, 48]
	cmp	x1, 1
	beq	.L928
	mov	x0, x21
	bl	pthread_mutex_unlock
	adrp	x0, :got:__stack_chk_guard
	ldr	x0, [x0, #:got_lo12:__stack_chk_guard]
	ldr	x2, [sp, 72]
	ldr	x1, [x0]
	subs	x2, x2, x1
	mov	x1, 0
	bne	.L946
	mov	x0, x19
	ldp	x19, x20, [sp, 16]
	ldr	x21, [sp, 32]
	.cfi_remember_state
	.cfi_restore 21
	ldp	x29, x30, [sp], 80
	.cfi_restore 30
	.cfi_restore 29
	.cfi_restore 19
	.cfi_restore 20
	.cfi_def_cfa_offset 0
	b	pthread_cond_signal
	.p2align 2,,3
.L928:
	.cfi_restore_state
	ldrb	w0, [x20, 184]
	cbnz	w0, .L930
	ldr	x3, [x20, 152]
	cbz	x3, .L930
	ldr	w2, [x3, 96]
	add	x4, x3, 96
	ldr	w0, [x3, 104]
	mov	w5, 9
	movk	w5, 0x8000, lsl 16
	strb	w1, [x20, 184]
	add	x3, sp, 56
	mov	w1, 3
	str	w5, [sp, 56]
	str	x4, [sp, 64]
	bl	epoll_ctl
.L930:
	adrp	x0, :got:__stack_chk_guard
	ldr	x0, [x0, #:got_lo12:__stack_chk_guard]
	ldr	x2, [sp, 72]
	ldr	x1, [x0]
	subs	x2, x2, x1
	mov	x1, 0
	bne	.L946
	mov	x0, x21
	ldp	x19, x20, [sp, 16]
	ldr	x21, [sp, 32]
	.cfi_restore 21
	ldp	x29, x30, [sp], 80
	.cfi_restore 30
	.cfi_restore 29
	.cfi_restore 19
	.cfi_restore 20
	.cfi_def_cfa_offset 0
	b	pthread_mutex_unlock
	.p2align 2,,3
.L925:
	.cfi_def_cfa_offset 80
	.cfi_offset 19, -64
	.cfi_offset 20, -56
	.cfi_offset 29, -80
	.cfi_offset 30, -72
	str	x19, [x2, 8]
	str	x19, [x0, 8]
	b	.L915
	.p2align 2,,3
.L926:
	.cfi_offset 21, -48
	str	x19, [x0, 8]
	str	x19, [x20, 200]
	b	.L927
.L949:
	.cfi_restore 21
	str	x21, [sp, 32]
	.cfi_offset 21, -48
.L946:
	bl	__stack_chk_fail
	.cfi_endproc
.LFE6408:
	.size	_ZN4asio6detail14strand_service19on_do_complete_exitD2Ev, .-_ZN4asio6detail14strand_service19on_do_complete_exitD2Ev
	.weak	_ZN4asio6detail14strand_service19on_do_complete_exitD1Ev
	.set	_ZN4asio6detail14strand_service19on_do_complete_exitD1Ev,_ZN4asio6detail14strand_service19on_do_complete_exitD2Ev
	.section	.text._ZN4asio6detail14strand_service11do_completeEPNS0_15task_io_serviceEPNS0_25task_io_service_operationERKSt10error_codem,"axG",@progbits,_ZN4asio6detail14strand_service11do_completeEPNS0_15task_io_serviceEPNS0_25task_io_service_operationERKSt10error_codem,comdat
	.align	2
	.p2align 4,,11
	.weak	_ZN4asio6detail14strand_service11do_completeEPNS0_15task_io_serviceEPNS0_25task_io_service_operationERKSt10error_codem
	.type	_ZN4asio6detail14strand_service11do_completeEPNS0_15task_io_serviceEPNS0_25task_io_service_operationERKSt10error_codem, %function
_ZN4asio6detail14strand_service11do_completeEPNS0_15task_io_serviceEPNS0_25task_io_service_operationERKSt10error_codem:
.LFB6422:
	.cfi_startproc
	.cfi_personality 0x9b,DW.ref.__gxx_personality_v0
	.cfi_lsda 0x1b,.LLSDA6422
	stp	x29, x30, [sp, -144]!
	.cfi_def_cfa_offset 144
	.cfi_offset 29, -144
	.cfi_offset 30, -136
	adrp	x3, :got:__stack_chk_guard
	dup	v0.2d, x1
	mov	x29, sp
	ldr	x3, [x3, #:got_lo12:__stack_chk_guard]
	stp	x19, x20, [sp, 16]
	.cfi_offset 19, -128
	.cfi_offset 20, -120
	mov	x20, x0
	ldr	x0, [x3]
	str	x0, [sp, 136]
	mov	x0, 0
	str	q0, [sp, 64]
	cbz	x20, .L950
	stp	x23, x24, [sp, 48]
	.cfi_offset 24, -88
	.cfi_offset 23, -96
	adrp	x23, :got:_ZN4asio6detail10call_stackINS0_14strand_service11strand_implEhE4top_E
	add	x19, x1, 96
	ldr	x24, [x23, #:got_lo12:_ZN4asio6detail10call_stackINS0_14strand_service11strand_implEhE4top_E]
	stp	x21, x22, [sp, 32]
	.cfi_offset 22, -104
	.cfi_offset 21, -112
	mov	x21, x1
	mov	x22, x2
	str	x1, [sp, 112]
	ldr	w0, [x24]
	bl	pthread_getspecific
	mov	x2, x0
	ldr	w0, [x24]
	add	x1, sp, 112
	stp	x1, x2, [sp, 120]
	bl	pthread_setspecific
	stp	x20, x21, [sp, 80]
	b	.L954
	.p2align 2,,3
.L953:
	ldr	x4, [x1, 8]
	str	xzr, [x1]
	mov	x2, x22
	mov	x0, x20
	mov	x3, 0
.LEHB28:
	blr	x4
.LEHE28:
.L954:
	ldr	x1, [x19]
	cbz	x1, .L952
	ldr	x3, [x1]
	str	x3, [x19]
	cbnz	x3, .L953
	str	xzr, [x19, 8]
	b	.L953
	.p2align 2,,3
.L952:
	add	x24, x21, 24
	mov	x0, x24
	bl	pthread_mutex_lock
	ldr	x22, [x21, 80]
	cbz	x22, .L987
	ldr	x0, [x19, 8]
	cbz	x0, .L957
	str	x22, [x0]
	ldr	x22, [x19]
.L958:
	cmp	x22, 0
	ldr	x0, [x21, 88]
	str	x0, [x19, 8]
	cset	w0, ne
	strb	w0, [x21, 72]
	stp	xzr, xzr, [x21, 80]
	mov	x0, x24
	bl	pthread_mutex_unlock
	cbnz	x22, .L988
.L959:
	ldr	x23, [x23, #:got_lo12:_ZN4asio6detail10call_stackINS0_14strand_service11strand_implEhE4top_E]
	ldr	x1, [sp, 128]
	ldr	w0, [x23]
	bl	pthread_setspecific
	ldp	x21, x22, [sp, 32]
	.cfi_restore 22
	.cfi_restore 21
	ldp	x23, x24, [sp, 48]
	.cfi_restore 24
	.cfi_restore 23
.L950:
	adrp	x0, :got:__stack_chk_guard
	ldr	x0, [x0, #:got_lo12:__stack_chk_guard]
	ldr	x2, [sp, 136]
	ldr	x1, [x0]
	subs	x2, x2, x1
	mov	x1, 0
	bne	.L989
	ldp	x19, x20, [sp, 16]
	ldp	x29, x30, [sp], 144
	.cfi_restore 30
	.cfi_restore 29
	.cfi_restore 19
	.cfi_restore 20
	.cfi_def_cfa_offset 0
	ret
	.p2align 2,,3
.L987:
	.cfi_def_cfa_offset 144
	.cfi_offset 19, -128
	.cfi_offset 20, -120
	.cfi_offset 21, -112
	.cfi_offset 22, -104
	.cfi_offset 23, -96
	.cfi_offset 24, -88
	.cfi_offset 29, -144
	.cfi_offset 30, -136
	ldr	x22, [x19]
	cmp	x22, 0
	cset	w0, ne
	strb	w0, [x21, 72]
	mov	x0, x24
	bl	pthread_mutex_unlock
	cbz	x22, .L959
.L988:
	adrp	x0, :got:_ZN4asio6detail10call_stackINS0_15task_io_serviceENS0_27task_io_service_thread_infoEE4top_E
	ldr	x0, [x0, #:got_lo12:_ZN4asio6detail10call_stackINS0_15task_io_serviceENS0_27task_io_service_thread_infoEE4top_E]
	ldr	w0, [x0]
	bl	pthread_getspecific
	cbnz	x0, .L963
	b	.L960
	.p2align 2,,3
.L961:
	ldr	x0, [x0, 16]
	cbz	x0, .L960
.L963:
	ldr	x1, [x0]
	cmp	x20, x1
	bne	.L961
	ldr	x0, [x0, 8]
	cbz	x0, .L960
	ldp	x3, x1, [x0, 16]
	add	x1, x1, 1
	str	x1, [x0, 24]
	str	xzr, [x21]
	ldr	x1, [x0, 16]
	cbz	x3, .L964
	str	x21, [x1]
	str	x21, [x0, 16]
	b	.L959
	.p2align 2,,3
.L957:
	str	x22, [x19]
	b	.L958
	.p2align 2,,3
.L960:
	add	x1, x20, 192
	add	x22, x20, 48
	mov	x0, 1
	bl	__aarch64_ldadd8_acq_rel
	mov	x0, x22
	bl	pthread_mutex_lock
	ldr	x1, [x20, 208]
	str	xzr, [x21]
	cbz	x1, .L965
	str	x21, [x1]
	str	x21, [x20, 208]
.L966:
	ldr	x1, [x20, 144]
	add	x19, x20, 96
	orr	x1, x1, 1
	str	x1, [x20, 144]
	cmp	x1, 1
	beq	.L967
	mov	x0, x22
	bl	pthread_mutex_unlock
	mov	x0, x19
	bl	pthread_cond_signal
	b	.L959
.L967:
	ldrb	w0, [x20, 184]
	cbnz	w0, .L969
	ldr	x3, [x20, 152]
	cbz	x3, .L969
	ldr	w2, [x3, 96]
	add	x4, x3, 96
	ldr	w0, [x3, 104]
	mov	w5, 9
	movk	w5, 0x8000, lsl 16
	strb	w1, [x20, 184]
	add	x3, sp, 96
	mov	w1, 3
	str	w5, [sp, 96]
	str	x4, [sp, 104]
	bl	epoll_ctl
.L969:
	mov	x0, x22
	bl	pthread_mutex_unlock
	b	.L959
.L964:
	ldr	q0, [sp, 64]
	str	q0, [x0, 8]
	b	.L959
.L965:
	ldr	q0, [sp, 64]
	str	q0, [x20, 200]
	b	.L966
.L989:
	.cfi_restore 21
	.cfi_restore 22
	.cfi_restore 23
	.cfi_restore 24
	stp	x21, x22, [sp, 32]
	.cfi_offset 22, -104
	.cfi_offset 21, -112
	stp	x23, x24, [sp, 48]
	.cfi_offset 24, -88
	.cfi_offset 23, -96
	bl	__stack_chk_fail
.L972:
	mov	x19, x0
	add	x0, sp, 80
	bl	_ZN4asio6detail14strand_service19on_do_complete_exitD1Ev
	ldr	x23, [x23, #:got_lo12:_ZN4asio6detail10call_stackINS0_14strand_service11strand_implEhE4top_E]
	ldr	x1, [sp, 128]
	ldr	w0, [x23]
	bl	pthread_setspecific
	mov	x0, x19
.LEHB29:
	bl	_Unwind_Resume
.LEHE29:
	.cfi_endproc
.LFE6422:
	.section	.gcc_except_table
.LLSDA6422:
	.byte	0xff
	.byte	0xff
	.byte	0x1
	.uleb128 .LLSDACSE6422-.LLSDACSB6422
.LLSDACSB6422:
	.uleb128 .LEHB28-.LFB6422
	.uleb128 .LEHE28-.LEHB28
	.uleb128 .L972-.LFB6422
	.uleb128 0
	.uleb128 .LEHB29-.LFB6422
	.uleb128 .LEHE29-.LEHB29
	.uleb128 0
	.uleb128 0
.LLSDACSE6422:
	.section	.text._ZN4asio6detail14strand_service11do_completeEPNS0_15task_io_serviceEPNS0_25task_io_service_operationERKSt10error_codem,"axG",@progbits,_ZN4asio6detail14strand_service11do_completeEPNS0_15task_io_serviceEPNS0_25task_io_service_operationERKSt10error_codem,comdat
	.size	_ZN4asio6detail14strand_service11do_completeEPNS0_15task_io_serviceEPNS0_25task_io_service_operationERKSt10error_codem, .-_ZN4asio6detail14strand_service11do_completeEPNS0_15task_io_serviceEPNS0_25task_io_service_operationERKSt10error_codem
	.section	.rodata._ZNSt7promiseIbED2Ev.str1.8,"aMS",@progbits,1
	.align	3
.LC21:
	.string	"std::future_error: "
	.section	.text._ZNSt7promiseIbED2Ev,"axG",@progbits,_ZNSt7promiseIbED5Ev,comdat
	.align	2
	.p2align 4,,11
	.weak	_ZNSt7promiseIbED2Ev
	.type	_ZNSt7promiseIbED2Ev, %function
_ZNSt7promiseIbED2Ev:
.LFB7878:
	.cfi_startproc
	.cfi_personality 0x9b,DW.ref.__gxx_personality_v0
	.cfi_lsda 0x1b,.LLSDA7878
	stp	x29, x30, [sp, -208]!
	.cfi_def_cfa_offset 208
	.cfi_offset 29, -208
	.cfi_offset 30, -200
	adrp	x1, :got:__stack_chk_guard
	mov	x29, sp
	ldr	x1, [x1, #:got_lo12:__stack_chk_guard]
	stp	x19, x20, [sp, 16]
	.cfi_offset 19, -192
	.cfi_offset 20, -184
	mov	x19, x0
	stp	x21, x22, [sp, 32]
	.cfi_offset 21, -176
	.cfi_offset 22, -168
	ldr	x21, [x0]
	ldr	x0, [x1]
	str	x0, [sp, 200]
	mov	x0, 0
	cbz	x21, .L1036
	ldr	x20, [x19, 8]
	cbz	x20, .L993
	add	x0, x20, 8
	ldr	w0, [x0]
	cmp	w0, 1
	beq	.L1036
.L993:
	stp	x23, x24, [sp, 48]
	.cfi_offset 24, -152
	.cfi_offset 23, -160
	ldr	x23, [x19, 16]
	str	xzr, [x19, 16]
	cbz	x23, .L1035
	str	x25, [sp, 64]
	.cfi_offset 25, -144
	bl	_ZSt15future_categoryv
	ldr	x2, [x0]
	add	x22, sp, 136
	mov	x8, x22
	mov	x20, x0
	mov	w1, 4
	ldr	x2, [x2, 32]
	blr	x2
	adrp	x3, .LC21
	mov	x0, x22
	add	x3, x3, :lo12:.LC21
	mov	x4, 19
	mov	x2, 0
	mov	x1, 0
.LEHB30:
	bl	_ZNSt7__cxx1112basic_stringIcSt11char_traitsIcESaIcEE10_M_replaceEmmPKcm
.LEHE30:
	add	x22, sp, 184
	str	x22, [sp, 168]
	mov	x1, x0
	ldr	x2, [x0], 16
	cmp	x2, x0
	beq	.L1040
	ldr	x3, [x1, 16]
	str	x2, [sp, 168]
	str	x3, [sp, 184]
.L997:
	ldr	x2, [x1, 8]
	str	x2, [sp, 176]
	stp	x0, xzr, [x1]
	add	x24, sp, 104
	mov	x0, x24
	strb	wzr, [x1, 16]
	add	x1, sp, 168
.LEHB31:
	bl	_ZNSt11logic_errorC2ERKNSt7__cxx1112basic_stringIcSt11char_traitsIcESaIcEEE
.LEHE31:
	ldr	x0, [sp, 168]
	cmp	x0, x22
	beq	.L998
	ldr	x1, [sp, 184]
	add	x1, x1, 1
	bl	_ZdlPvm
.L998:
	ldr	x0, [sp, 136]
	add	x1, sp, 152
	cmp	x0, x1
	beq	.L999
	ldr	x1, [sp, 152]
	add	x1, x1, 1
	bl	_ZdlPvm
.L999:
	adrp	x22, :got:_ZTVSt12future_error
	mov	w1, 4
	mov	x0, 32
	str	w1, [sp, 120]
	ldr	x22, [x22, #:got_lo12:_ZTVSt12future_error]
	str	x20, [sp, 128]
	add	x25, sp, 96
	add	x22, x22, 16
	str	x22, [sp, 104]
	bl	__cxa_allocate_exception
	mov	x20, x0
	adrp	x2, :got:_ZNSt15__exception_ptr12__dest_thunkISt12future_errorEEvPv
	adrp	x1, :got:_ZTISt12future_error
	ldr	x2, [x2, #:got_lo12:_ZNSt15__exception_ptr12__dest_thunkISt12future_errorEEvPv]
	ldr	x1, [x1, #:got_lo12:_ZTISt12future_error]
	bl	__cxa_init_primary_exception
	mov	x1, x24
	mov	x0, x20
	bl	_ZNSt11logic_errorC2ERKS_
	ldp	x0, x1, [sp, 120]
	str	x22, [x20]
	stp	x0, x1, [x20, 16]
	mov	x1, x20
	mov	x0, x25
	bl	_ZNSt15__exception_ptr13exception_ptrC1EPv
	ldr	x0, [x23, 8]
	ldr	x1, [sp, 96]
	str	x1, [x23, 8]
	stp	x0, xzr, [sp, 88]
	cbz	x0, .L1001
	add	x0, sp, 88
	bl	_ZNSt15__exception_ptr13exception_ptr10_M_releaseEv
	ldr	x0, [sp, 96]
	cbz	x0, .L1001
	mov	x0, x25
	bl	_ZNSt15__exception_ptr13exception_ptr10_M_releaseEv
.L1001:
	mov	x0, x24
	bl	_ZNSt12future_errorD1Ev
	ldr	x20, [x21, 8]
	str	x23, [x21, 8]
	add	x21, x21, 16
	mov	w0, 1
	mov	x1, x21
	bl	__aarch64_swp4_rel
	tbnz	w0, #31, .L1041
.L1006:
	cbz	x20, .L1037
	ldr	x1, [x20]
	mov	x0, x20
	ldr	x1, [x1]
	blr	x1
.L1037:
	ldp	x23, x24, [sp, 48]
	.cfi_restore 24
	.cfi_restore 23
	ldr	x20, [x19, 16]
	ldr	x25, [sp, 64]
	.cfi_restore 25
.L992:
	cbz	x20, .L1038
	ldr	x1, [x20]
	adrp	x0, :got:_ZNSt13__future_base7_ResultIbE10_M_destroyEv
	ldr	x0, [x0, #:got_lo12:_ZNSt13__future_base7_ResultIbE10_M_destroyEv]
	ldr	x2, [x1]
	cmp	x2, x0
	bne	.L1009
	adrp	x0, :got:_ZNSt13__future_base7_ResultIbED0Ev
	ldr	x1, [x1, 16]
	ldr	x0, [x0, #:got_lo12:_ZNSt13__future_base7_ResultIbED0Ev]
	cmp	x1, x0
	bne	.L1010
	adrp	x1, :got:_ZTVNSt13__future_base7_ResultIbEE
	mov	x0, x20
	ldr	x1, [x1, #:got_lo12:_ZTVNSt13__future_base7_ResultIbEE]
	add	x1, x1, 16
	str	x1, [x20]
	bl	_ZNSt13__future_base12_Result_baseD2Ev
	mov	x0, x20
	mov	x1, 24
	bl	_ZdlPvm
	ldr	x20, [x19, 8]
.L995:
	cbz	x20, .L990
	adrp	x19, :got:__libc_single_threaded
	ldr	x0, [x19, #:got_lo12:__libc_single_threaded]
	ldrb	w0, [x0]
	cbz	w0, .L1013
	ldr	w0, [x20, 8]
	sub	w1, w0, #1
	str	w1, [x20, 8]
.L1014:
	cmp	w0, 1
	beq	.L1042
.L990:
	adrp	x0, :got:__stack_chk_guard
	ldr	x0, [x0, #:got_lo12:__stack_chk_guard]
	ldr	x2, [sp, 200]
	ldr	x1, [x0]
	subs	x2, x2, x1
	mov	x1, 0
	bne	.L1039
	ldp	x19, x20, [sp, 16]
	ldp	x21, x22, [sp, 32]
	ldp	x29, x30, [sp], 208
	.cfi_restore 30
	.cfi_restore 29
	.cfi_restore 21
	.cfi_restore 22
	.cfi_restore 19
	.cfi_restore 20
	.cfi_def_cfa_offset 0
	ret
	.p2align 2,,3
.L1035:
	.cfi_def_cfa_offset 208
	.cfi_offset 19, -192
	.cfi_offset 20, -184
	.cfi_offset 21, -176
	.cfi_offset 22, -168
	.cfi_offset 23, -160
	.cfi_offset 24, -152
	.cfi_offset 29, -208
	.cfi_offset 30, -200
	ldp	x23, x24, [sp, 48]
	.cfi_restore 24
	.cfi_restore 23
	b	.L995
	.p2align 2,,3
.L1036:
	ldr	x20, [x19, 16]
	b	.L992
	.p2align 2,,3
.L1041:
	.cfi_offset 23, -160
	.cfi_offset 24, -152
	.cfi_offset 25, -144
	mov	x0, x21
	bl	_ZNSt28__atomic_futex_unsigned_base19_M_futex_notify_allEPj
	b	.L1006
	.p2align 2,,3
.L1010:
	.cfi_restore 23
	.cfi_restore 24
	.cfi_restore 25
	mov	x0, x20
	blr	x1
.L1038:
	ldr	x20, [x19, 8]
	b	.L995
	.p2align 2,,3
.L1042:
	ldr	x1, [x20]
	mov	x0, x20
	ldr	x1, [x1, 16]
	blr	x1
	ldr	x19, [x19, #:got_lo12:__libc_single_threaded]
	ldrb	w0, [x19]
	cbz	w0, .L1016
	ldr	w0, [x20, 12]
	sub	w1, w0, #1
	str	w1, [x20, 12]
.L1017:
	cmp	w0, 1
	bne	.L990
	adrp	x0, :got:__stack_chk_guard
	ldr	x0, [x0, #:got_lo12:__stack_chk_guard]
	ldr	x2, [sp, 200]
	ldr	x1, [x0]
	subs	x2, x2, x1
	mov	x1, 0
	bne	.L1039
	ldr	x1, [x20]
	mov	x0, x20
	ldp	x19, x20, [sp, 16]
	ldr	x1, [x1, 24]
	ldp	x21, x22, [sp, 32]
	mov	x16, x1
	ldp	x29, x30, [sp], 208
	.cfi_remember_state
	.cfi_restore 30
	.cfi_restore 29
	.cfi_restore 21
	.cfi_restore 22
	.cfi_restore 19
	.cfi_restore 20
	.cfi_def_cfa_offset 0
	br	x16
	.p2align 2,,3
.L1013:
	.cfi_restore_state
	add	x1, x20, 8
	mov	w0, -1
	bl	__aarch64_ldadd4_acq_rel
	b	.L1014
	.p2align 2,,3
.L1009:
	mov	x0, x20
	blr	x2
	ldr	x20, [x19, 8]
	b	.L995
	.p2align 2,,3
.L1040:
	.cfi_offset 23, -160
	.cfi_offset 24, -152
	.cfi_offset 25, -144
	ldp	x2, x3, [x1, 16]
	stp	x2, x3, [sp, 184]
	b	.L997
	.p2align 2,,3
.L1016:
	.cfi_restore 23
	.cfi_restore 24
	.cfi_restore 25
	add	x1, x20, 12
	mov	w0, -1
	bl	__aarch64_ldadd4_acq_rel
	b	.L1017
.L1039:
	stp	x23, x24, [sp, 48]
	.cfi_offset 24, -152
	.cfi_offset 23, -160
	str	x25, [sp, 64]
	.cfi_offset 25, -144
	bl	__stack_chk_fail
.L1021:
	ldr	x0, [sp, 168]
	cmp	x0, x22
	beq	.L1004
	ldr	x1, [sp, 184]
	add	x1, x1, 1
	bl	_ZdlPvm
.L1004:
	ldr	x0, [sp, 136]
	add	x1, sp, 152
	cmp	x0, x1
	beq	.L1005
	ldr	x1, [sp, 152]
	add	x1, x1, 1
	bl	_ZdlPvm
.L1005:
	bl	_ZSt9terminatev
.L1020:
	b	.L1004
	.cfi_endproc
.LFE7878:
	.section	.gcc_except_table
.LLSDA7878:
	.byte	0xff
	.byte	0xff
	.byte	0x1
	.uleb128 .LLSDACSE7878-.LLSDACSB7878
.LLSDACSB7878:
	.uleb128 .LEHB30-.LFB7878
	.uleb128 .LEHE30-.LEHB30
	.uleb128 .L1020-.LFB7878
	.uleb128 0
	.uleb128 .LEHB31-.LFB7878
	.uleb128 .LEHE31-.LEHB31
	.uleb128 .L1021-.LFB7878
	.uleb128 0
.LLSDACSE7878:
	.section	.text._ZNSt7promiseIbED2Ev,"axG",@progbits,_ZNSt7promiseIbED5Ev,comdat
	.size	_ZNSt7promiseIbED2Ev, .-_ZNSt7promiseIbED2Ev
	.weak	_ZNSt7promiseIbED1Ev
	.set	_ZNSt7promiseIbED1Ev,_ZNSt7promiseIbED2Ev
	.section	.text._ZNSt16_Sp_counted_baseILN9__gnu_cxx12_Lock_policyE2EE10_M_releaseEv,"axG",@progbits,_ZNSt16_Sp_counted_baseILN9__gnu_cxx12_Lock_policyE2EE10_M_releaseEv,comdat
	.align	2
	.p2align 4,,11
	.weak	_ZNSt16_Sp_counted_baseILN9__gnu_cxx12_Lock_policyE2EE10_M_releaseEv
	.type	_ZNSt16_Sp_counted_baseILN9__gnu_cxx12_Lock_policyE2EE10_M_releaseEv, %function
_ZNSt16_Sp_counted_baseILN9__gnu_cxx12_Lock_policyE2EE10_M_releaseEv:
.LFB8137:
	.cfi_startproc
	stp	x29, x30, [sp, -32]!
	.cfi_def_cfa_offset 32
	.cfi_offset 29, -32
	.cfi_offset 30, -24
	mov	x29, sp
	stp	x19, x20, [sp, 16]
	.cfi_offset 19, -16
	.cfi_offset 20, -8
	adrp	x20, :got:__libc_single_threaded
	mov	x19, x0
	ldr	x0, [x20, #:got_lo12:__libc_single_threaded]
	ldrb	w0, [x0]
	cbz	w0, .L1044
	ldr	w0, [x19, 8]
	sub	w1, w0, #1
	str	w1, [x19, 8]
.L1045:
	cmp	w0, 1
	beq	.L1052
.L1043:
	ldp	x19, x20, [sp, 16]
	ldp	x29, x30, [sp], 32
	.cfi_remember_state
	.cfi_restore 30
	.cfi_restore 29
	.cfi_restore 19
	.cfi_restore 20
	.cfi_def_cfa_offset 0
	ret
	.p2align 2,,3
.L1052:
	.cfi_restore_state
	ldr	x1, [x19]
	mov	x0, x19
	ldr	x1, [x1, 16]
	blr	x1
	ldr	x20, [x20, #:got_lo12:__libc_single_threaded]
	ldrb	w0, [x20]
	cbz	w0, .L1048
	ldr	w0, [x19, 12]
	sub	w1, w0, #1
	str	w1, [x19, 12]
.L1049:
	cmp	w0, 1
	bne	.L1043
	ldr	x1, [x19]
	mov	x0, x19
	ldp	x19, x20, [sp, 16]
	ldp	x29, x30, [sp], 32
	.cfi_remember_state
	.cfi_restore 30
	.cfi_restore 29
	.cfi_restore 19
	.cfi_restore 20
	.cfi_def_cfa_offset 0
	ldr	x1, [x1, 24]
	mov	x16, x1
	br	x16
	.p2align 2,,3
.L1044:
	.cfi_restore_state
	add	x1, x19, 8
	mov	w0, -1
	bl	__aarch64_ldadd4_acq_rel
	b	.L1045
	.p2align 2,,3
.L1048:
	add	x1, x19, 12
	mov	w0, -1
	bl	__aarch64_ldadd4_acq_rel
	b	.L1049
	.cfi_endproc
.LFE8137:
	.size	_ZNSt16_Sp_counted_baseILN9__gnu_cxx12_Lock_policyE2EE10_M_releaseEv, .-_ZNSt16_Sp_counted_baseILN9__gnu_cxx12_Lock_policyE2EE10_M_releaseEv
	.section	.rodata.str1.8,"aMS",@progbits,1
	.align	3
.LC22:
	.string	"mutex"
	.text
	.align	2
	.p2align 4,,11
	.global	_ZN7asiopal8ExecutorC2ERKSt10shared_ptrINS_2IOEE
	.type	_ZN7asiopal8ExecutorC2ERKSt10shared_ptrINS_2IOEE, %function
_ZN7asiopal8ExecutorC2ERKSt10shared_ptrINS_2IOEE:
.LFB6992:
	.cfi_startproc
	.cfi_personality 0x9b,DW.ref.__gxx_personality_v0
	.cfi_lsda 0x1b,.LLSDA6992
	stp	x29, x30, [sp, -128]!
	.cfi_def_cfa_offset 128
	.cfi_offset 29, -128
	.cfi_offset 30, -120
	adrp	x2, :got:__stack_chk_guard
	mov	x29, sp
	ldr	x2, [x2, #:got_lo12:__stack_chk_guard]
	stp	x19, x20, [sp, 16]
	.cfi_offset 19, -112
	.cfi_offset 20, -104
	mov	x19, x1
	adrp	x1, :got:_ZTVN7asiopal8ExecutorE
	stp	x21, x22, [sp, 32]
	mov	x20, x0
	stp	x23, x24, [sp, 48]
	ldr	x0, [x1, #:got_lo12:_ZTVN7asiopal8ExecutorE]
	ldr	x1, [x2]
	str	x1, [sp, 120]
	mov	x1, 0
	ldp	x2, x1, [x19]
	add	x0, x0, 16
	stp	x0, xzr, [x20]
	stp	xzr, x2, [x20, 16]
	str	x1, [x20, 32]
	.cfi_offset 21, -96
	.cfi_offset 22, -88
	.cfi_offset 23, -80
	.cfi_offset 24, -72
	cbz	x1, .L1054
	adrp	x0, :got:__libc_single_threaded
	ldr	x0, [x0, #:got_lo12:__libc_single_threaded]
	ldrb	w0, [x0]
	cbz	w0, .L1055
	ldr	w0, [x1, 8]
	add	w0, w0, 1
	str	w0, [x1, 8]
.L1054:
	ldr	x0, [x19]
	ldr	x23, [x0, 8]
	add	x24, x23, 8
	mov	x0, x24
	bl	pthread_mutex_lock
	ldr	x19, [x23, 64]
	cbz	x19, .L1056
	adrp	x21, :got:_ZTSN4asio6detail14typeid_wrapperINS0_14strand_serviceEEE
	ldr	x21, [x21, #:got_lo12:_ZTSN4asio6detail14typeid_wrapperINS0_14strand_serviceEEE]
	.p2align 3,,7
.L1060:
	ldr	x2, [x19, 8]
	cbz	x2, .L1057
	ldr	x0, [x2, 8]
	cmp	x0, x21
	beq	.L1155
	ldrb	w1, [x0]
	cmp	w1, 42
	beq	.L1057
	mov	x1, x21
	bl	strcmp
	cbnz	w0, .L1057
.L1155:
	add	x21, x19, 48
.L1059:
	mov	x0, x24
	bl	pthread_mutex_unlock
	str	x19, [x20, 40]
	mov	x0, x21
	bl	pthread_mutex_lock
	add	x1, x20, 48
	mov	x4, 31161
	ldr	x3, [x19, 1640]
	add	x1, x1, x1, lsr 3
	movk	x4, 0x9e37, lsl 16
	mov	x0, 60103
	lsr	x2, x1, 2
	add	x4, x3, x4
	add	x2, x2, x1, lsl 6
	movk	x0, 0xf40f, lsl 16
	add	x2, x2, x4
	movk	x0, 0x948, lsl 32
	eor	x1, x1, x2
	movk	x0, 0x1539, lsl 48
	add	x3, x3, 1
	str	x3, [x19, 1640]
	umulh	x0, x1, x0
	lsr	x0, x0, 4
	add	x2, x0, x0, lsl 1
	add	x0, x0, x2, lsl 6
	sub	x1, x1, x0
	add	x19, x19, x1, lsl 3
	ldr	x22, [x19, 96]
	cbz	x22, .L1156
.L1071:
	adrp	x0, :got:__stack_chk_guard
	str	x22, [x20, 48]
	ldr	x0, [x0, #:got_lo12:__stack_chk_guard]
	ldr	x2, [sp, 120]
	ldr	x1, [x0]
	subs	x2, x2, x1
	mov	x1, 0
	bne	.L1157
	mov	x0, x21
	ldp	x19, x20, [sp, 16]
	ldp	x21, x22, [sp, 32]
	ldp	x23, x24, [sp, 48]
	ldp	x29, x30, [sp], 128
	.cfi_remember_state
	.cfi_restore 30
	.cfi_restore 29
	.cfi_restore 23
	.cfi_restore 24
	.cfi_restore 21
	.cfi_restore 22
	.cfi_restore 19
	.cfi_restore 20
	.cfi_def_cfa_offset 0
	b	pthread_mutex_unlock
	.p2align 2,,3
.L1057:
	.cfi_restore_state
	ldr	x19, [x19, 32]
	cbnz	x19, .L1060
.L1056:
	mov	x0, x24
	stp	x25, x26, [sp, 64]
	.cfi_offset 26, -56
	.cfi_offset 25, -64
	bl	pthread_mutex_unlock
	mov	x0, 1648
	ldr	x19, [x23, 56]
.LEHB32:
	bl	_Znwm
.LEHE32:
	adrp	x2, :got:_ZTVN4asio6detail14strand_serviceE
	mov	x22, x0
	ldr	x3, [x19, 8]
	adrp	x26, :got:_ZGVZN4asio15system_categoryEvE8instance
	ldr	x2, [x2, #:got_lo12:_ZTVN4asio6detail14strand_serviceE]
	stp	xzr, x19, [x22, 16]
	add	x21, x0, 48
	add	x2, x2, 16
	stp	x2, xzr, [x22]
	mov	x0, x21
	stp	xzr, x3, [x22, 32]
	mov	x1, 0
	bl	pthread_mutex_init
	mov	w19, w0
	ldr	x26, [x26, #:got_lo12:_ZGVZN4asio15system_categoryEvE8instance]
	ldar	x0, [x26]
	adrp	x25, :got:_ZZN4asio15system_categoryEvE8instance
	tbz	x0, 0, .L1158
.L1062:
	ldr	x25, [x25, #:got_lo12:_ZZN4asio15system_categoryEvE8instance]
	str	w19, [sp, 104]
	str	x25, [sp, 112]
	cbnz	w19, .L1159
	mov	x2, 1544
	mov	w1, 0
	add	x0, x22, 96
	bl	memset
	adrp	x1, :got:_ZTIN4asio6detail14typeid_wrapperINS0_14strand_serviceEEE
	str	xzr, [x22, 1640]
	mov	x0, x24
	adrp	x25, :got:_ZTSN4asio6detail14typeid_wrapperINS0_14strand_serviceEEE
	ldr	x1, [x1, #:got_lo12:_ZTIN4asio6detail14typeid_wrapperINS0_14strand_serviceEEE]
	stp	x1, xzr, [x22, 8]
	bl	pthread_mutex_lock
	ldr	x26, [x23, 64]
	ldr	x25, [x25, #:got_lo12:_ZTSN4asio6detail14typeid_wrapperINS0_14strand_serviceEEE]
	mov	x19, x26
	cbz	x26, .L1066
	.p2align 3,,7
.L1065:
	ldr	x2, [x19, 8]
	cbz	x2, .L1069
	ldr	x0, [x2, 8]
	cmp	x0, x25
	beq	.L1070
	ldrb	w1, [x0]
	cmp	w1, 42
	beq	.L1069
	mov	x1, x25
	bl	strcmp
	cbnz	w0, .L1069
.L1070:
	ldr	x1, [x22]
	mov	x0, x22
	add	x21, x19, 48
	ldr	x1, [x1, 8]
	blr	x1
	ldp	x25, x26, [sp, 64]
	.cfi_remember_state
	.cfi_restore 26
	.cfi_restore 25
	b	.L1059
	.p2align 2,,3
.L1069:
	.cfi_restore_state
	ldr	x19, [x19, 32]
	cbnz	x19, .L1065
.L1066:
	str	x26, [x22, 32]
	mov	x19, x22
	ldp	x25, x26, [sp, 64]
	.cfi_restore 26
	.cfi_restore 25
	str	x22, [x23, 64]
	b	.L1059
.L1055:
	add	x1, x1, 8
	mov	w0, 1
	bl	__aarch64_ldadd4_acq_rel
	b	.L1054
.L1156:
	mov	x0, 112
	stp	x25, x26, [sp, 64]
	.cfi_offset 26, -56
	.cfi_offset 25, -64
.LEHB33:
	bl	_Znwm
.LEHE33:
	adrp	x2, :got:_ZN4asio6detail14strand_service11do_completeEPNS0_15task_io_serviceEPNS0_25task_io_service_operationERKSt10error_codem
	mov	x22, x0
	adrp	x24, :got:_ZGVZN4asio15system_categoryEvE8instance
	mov	x1, 0
	ldr	x2, [x2, #:got_lo12:_ZN4asio6detail14strand_service11do_completeEPNS0_15task_io_serviceEPNS0_25task_io_service_operationERKSt10error_codem]
	stp	xzr, x2, [x22]
	add	x0, x0, 24
	str	wzr, [x22, 16]
	bl	pthread_mutex_init
	mov	w23, w0
	ldr	x24, [x24, #:got_lo12:_ZGVZN4asio15system_categoryEvE8instance]
	ldar	x0, [x24]
	adrp	x25, :got:_ZZN4asio15system_categoryEvE8instance
	tbz	x0, 0, .L1160
.L1073:
	ldr	x25, [x25, #:got_lo12:_ZZN4asio15system_categoryEvE8instance]
	str	w23, [sp, 104]
	str	x25, [sp, 112]
	cbnz	w23, .L1161
	movi	v0.4s, 0
	strb	wzr, [x22, 72]
	ldr	x24, [x19, 96]
	stp	q0, q0, [x22, 80]
	cbz	x24, .L1076
	ldr	x1, [x24, 96]
	cbz	x1, .L1081
	str	x1, [sp, 88]
	bl	_ZNSt3_V215system_categoryEv
	ldr	x1, [sp, 88]
	add	x25, sp, 104
	add	x23, x24, 96
	mov	x26, x0
	.p2align 3,,7
.L1083:
	ldr	x0, [x1]
	str	x0, [x23]
	cbz	x0, .L1162
	ldr	x4, [x1, 8]
	str	xzr, [x1]
	str	wzr, [sp, 104]
	mov	x2, x25
	str	x26, [sp, 112]
	mov	x3, 0
	mov	x0, 0
	blr	x4
	ldr	x1, [x23]
	cbnz	x1, .L1083
.L1081:
	ldr	x1, [x24, 80]
	cbz	x1, .L1078
	str	x1, [sp, 88]
	bl	_ZNSt3_V215system_categoryEv
	ldr	x1, [sp, 88]
	add	x25, sp, 104
	add	x23, x24, 80
	mov	x26, x0
	.p2align 3,,7
.L1086:
	ldr	x0, [x1]
	str	x0, [x23]
	cbz	x0, .L1163
	ldr	x4, [x1, 8]
	str	xzr, [x1]
	str	wzr, [sp, 104]
	mov	x2, x25
	str	x26, [sp, 112]
	mov	x3, 0
	mov	x0, 0
	blr	x4
	ldr	x1, [x23]
	cbnz	x1, .L1086
.L1078:
	add	x0, x24, 24
	bl	pthread_mutex_destroy
	mov	x0, x24
	mov	x1, 112
	bl	_ZdlPvm
.L1076:
	ldp	x25, x26, [sp, 64]
	.cfi_remember_state
	.cfi_restore 26
	.cfi_restore 25
	str	x22, [x19, 96]
	b	.L1071
.L1158:
	.cfi_restore_state
	mov	x0, x26
	adrp	x25, :got:_ZZN4asio15system_categoryEvE8instance
	bl	__cxa_guard_acquire
	cbz	w0, .L1062
	adrp	x0, :got:_ZN4asio6detail15system_categoryD1Ev
	adrp	x2, __dso_handle
	ldr	x1, [x25, #:got_lo12:_ZZN4asio15system_categoryEvE8instance]
	add	x2, x2, :lo12:__dso_handle
	ldr	x0, [x0, #:got_lo12:_ZN4asio6detail15system_categoryD1Ev]
	bl	__cxa_atexit
	mov	x0, x26
	bl	__cxa_guard_release
	b	.L1062
.L1162:
	ldr	x4, [x1, 8]
	str	xzr, [x23, 8]
	str	xzr, [x1]
	mov	x2, x25
	str	wzr, [sp, 104]
	mov	x3, 0
	str	x26, [sp, 112]
	blr	x4
	ldr	x1, [x23]
	cbnz	x1, .L1083
	b	.L1081
.L1163:
	ldr	x4, [x1, 8]
	str	xzr, [x23, 8]
	str	xzr, [x1]
	mov	x2, x25
	str	wzr, [sp, 104]
	mov	x3, 0
	str	x26, [sp, 112]
	blr	x4
	ldr	x1, [x23]
	cbnz	x1, .L1086
	b	.L1078
.L1160:
	mov	x0, x24
	adrp	x25, :got:_ZZN4asio15system_categoryEvE8instance
	bl	__cxa_guard_acquire
	cbz	w0, .L1073
	adrp	x0, :got:_ZN4asio6detail15system_categoryD1Ev
	adrp	x2, __dso_handle
	ldr	x1, [x25, #:got_lo12:_ZZN4asio15system_categoryEvE8instance]
	add	x2, x2, :lo12:__dso_handle
	ldr	x0, [x0, #:got_lo12:_ZN4asio6detail15system_categoryD1Ev]
	bl	__cxa_atexit
	mov	x0, x24
	bl	__cxa_guard_release
	b	.L1073
.L1157:
	.cfi_restore 25
	.cfi_restore 26
	stp	x25, x26, [sp, 64]
	.cfi_offset 26, -56
	.cfi_offset 25, -64
	bl	__stack_chk_fail
.L1161:
	adrp	x1, .LC22
	add	x0, sp, 104
	add	x1, x1, :lo12:.LC22
.LEHB34:
	bl	_ZN4asio6detail14do_throw_errorERKSt10error_codePKc
.LEHE34:
.L1100:
	mov	x19, x0
	b	.L1089
.L1101:
	mov	x19, x0
	mov	x1, 112
	mov	x0, x22
	bl	_ZdlPvm
.L1089:
	mov	x0, x21
	bl	pthread_mutex_unlock
.L1068:
	ldr	x0, [x20, 32]
	cbz	x0, .L1090
	bl	_ZNSt16_Sp_counted_baseILN9__gnu_cxx12_Lock_policyE2EE10_M_releaseEv
.L1090:
	ldr	x20, [x20, 16]
	cbz	x20, .L1092
	adrp	x0, :got:__libc_single_threaded
	add	x1, x20, 12
	ldr	x0, [x0, #:got_lo12:__libc_single_threaded]
	ldrb	w0, [x0]
	cbnz	w0, .L1164
	mov	w0, -1
	bl	__aarch64_ldadd4_acq_rel
.L1094:
	cmp	w0, 1
	bne	.L1092
	ldr	x1, [x20]
	mov	x0, x20
	ldr	x1, [x1, 24]
	blr	x1
.L1092:
	mov	x0, x19
.LEHB35:
	bl	_Unwind_Resume
.LEHE35:
.L1098:
	mov	x19, x0
	b	.L1068
.L1159:
	adrp	x1, .LC22
	add	x0, sp, 104
	add	x1, x1, :lo12:.LC22
.LEHB36:
	bl	_ZN4asio6detail14do_throw_errorERKSt10error_codePKc
.LEHE36:
.L1099:
	mov	x19, x0
	mov	x1, 1648
	mov	x0, x22
	bl	_ZdlPvm
	b	.L1068
.L1164:
	ldr	w0, [x20, 12]
	sub	w1, w0, #1
	str	w1, [x20, 12]
	b	.L1094
	.cfi_endproc
.LFE6992:
	.section	.gcc_except_table
.LLSDA6992:
	.byte	0xff
	.byte	0xff
	.byte	0x1
	.uleb128 .LLSDACSE6992-.LLSDACSB6992
.LLSDACSB6992:
	.uleb128 .LEHB32-.LFB6992
	.uleb128 .LEHE32-.LEHB32
	.uleb128 .L1098-.LFB6992
	.uleb128 0
	.uleb128 .LEHB33-.LFB6992
	.uleb128 .LEHE33-.LEHB33
	.uleb128 .L1100-.LFB6992
	.uleb128 0
	.uleb128 .LEHB34-.LFB6992
	.uleb128 .LEHE34-.LEHB34
	.uleb128 .L1101-.LFB6992
	.uleb128 0
	.uleb128 .LEHB35-.LFB6992
	.uleb128 .LEHE35-.LEHB35
	.uleb128 0
	.uleb128 0
	.uleb128 .LEHB36-.LFB6992
	.uleb128 .LEHE36-.LEHB36
	.uleb128 .L1099-.LFB6992
	.uleb128 0
.LLSDACSE6992:
	.text
	.size	_ZN7asiopal8ExecutorC2ERKSt10shared_ptrINS_2IOEE, .-_ZN7asiopal8ExecutorC2ERKSt10shared_ptrINS_2IOEE
	.global	_ZN7asiopal8ExecutorC1ERKSt10shared_ptrINS_2IOEE
	.set	_ZN7asiopal8ExecutorC1ERKSt10shared_ptrINS_2IOEE,_ZN7asiopal8ExecutorC2ERKSt10shared_ptrINS_2IOEE
	.global	__aarch64_swp1_acq_rel
	.global	__aarch64_ldset4_relax
	.align	2
	.p2align 4,,11
	.global	_ZN7asiopal8Executor10BlockUntilERKSt8functionIFvvEE
	.type	_ZN7asiopal8Executor10BlockUntilERKSt8functionIFvvEE, %function
_ZN7asiopal8Executor10BlockUntilERKSt8functionIFvvEE:
.LFB7055:
	.cfi_startproc
	.cfi_personality 0x9b,DW.ref.__gxx_personality_v0
	.cfi_lsda 0x1b,.LLSDA7055
	stp	x29, x30, [sp, -160]!
	.cfi_def_cfa_offset 160
	.cfi_offset 29, -160
	.cfi_offset 30, -152
	adrp	x3, :got:_ZN4asio6detail10call_stackINS0_14strand_service11strand_implEhE4top_E
	adrp	x2, :got:__stack_chk_guard
	mov	x29, sp
	ldr	x3, [x3, #:got_lo12:_ZN4asio6detail10call_stackINS0_14strand_service11strand_implEhE4top_E]
	stp	x19, x20, [sp, 16]
	.cfi_offset 19, -144
	.cfi_offset 20, -136
	mov	x20, x1
	ldr	x2, [x2, #:got_lo12:__stack_chk_guard]
	stp	x23, x24, [sp, 48]
	.cfi_offset 23, -112
	.cfi_offset 24, -104
	mov	x23, x0
	ldr	w0, [x3]
	ldr	x1, [x2]
	str	x1, [sp, 152]
	mov	x1, 0
	ldr	x19, [x23, 48]
	bl	pthread_getspecific
	cbnz	x0, .L1169
	b	.L1255
	.p2align 2,,3
.L1167:
	ldr	x0, [x0, 16]
	cbz	x0, .L1255
.L1169:
	ldr	x2, [x0]
	cmp	x19, x2
	bne	.L1167
	ldr	x0, [x0, 8]
	cbz	x0, .L1255
	ldr	x0, [x20, 16]
	cbz	x0, .L1257
	adrp	x0, :got:__stack_chk_guard
	ldr	x0, [x0, #:got_lo12:__stack_chk_guard]
	ldr	x2, [sp, 152]
	ldr	x1, [x0]
	subs	x2, x2, x1
	mov	x1, 0
	bne	.L1258
	mov	x0, x20
	ldr	x1, [x20, 24]
	ldp	x19, x20, [sp, 16]
	mov	x16, x1
	ldp	x23, x24, [sp, 48]
	ldp	x29, x30, [sp], 160
	.cfi_remember_state
	.cfi_restore 30
	.cfi_restore 29
	.cfi_restore 23
	.cfi_restore 24
	.cfi_restore 19
	.cfi_restore 20
	.cfi_def_cfa_offset 0
.LEHB37:
	br	x16
	.p2align 2,,3
.L1255:
	.cfi_restore_state
	mov	x0, 48
	stp	x21, x22, [sp, 32]
	.cfi_offset 22, -120
	.cfi_offset 21, -128
	stp	x25, x26, [sp, 64]
	.cfi_offset 26, -88
	.cfi_offset 25, -96
	str	xzr, [sp, 128]
	bl	_Znwm
.LEHE37:
	movi	v0.2s, 0x1
	adrp	x3, :got:_ZTVSt23_Sp_counted_ptr_inplaceINSt13__future_base13_State_baseV2ESaIS1_ELN9__gnu_cxx12_Lock_policyE2EE
	adrp	x2, :got:_ZTVNSt13__future_base13_State_baseV2E
	mov	x1, x0
	mov	x4, x0
	mov	x0, 24
	ldr	x3, [x3, #:got_lo12:_ZTVSt23_Sp_counted_ptr_inplaceINSt13__future_base13_State_baseV2ESaIS1_ELN9__gnu_cxx12_Lock_policyE2EE]
	str	d0, [x1, 8]
	ldr	x2, [x2, #:got_lo12:_ZTVNSt13__future_base13_State_baseV2E]
	add	x3, x3, 16
	str	x3, [x4], 16
	add	x2, x2, 16
	stp	x2, xzr, [x1, 16]
	str	wzr, [x1, 32]
	strb	wzr, [x1, 36]
	str	wzr, [x1, 40]
	stp	x4, x1, [sp, 128]
.LEHB38:
	bl	_Znwm
.LEHE38:
	mov	x19, x0
	bl	_ZNSt13__future_base12_Result_baseC2Ev
	adrp	x0, :got:_ZTVNSt13__future_base7_ResultIbEE
	str	x19, [sp, 144]
	ldp	x24, x21, [sp, 128]
	strb	wzr, [x19, 17]
	ldr	x0, [x0, #:got_lo12:_ZTVNSt13__future_base7_ResultIbEE]
	add	x0, x0, 16
	str	x0, [x19]
	cbz	x21, .L1173
	adrp	x0, :got:__libc_single_threaded
	ldr	x0, [x0, #:got_lo12:__libc_single_threaded]
	ldrb	w0, [x0]
	cbz	w0, .L1176
	ldr	w0, [x21, 8]
	add	w0, w0, 1
	str	w0, [x21, 8]
.L1173:
	cbz	x24, .L1259
	add	x1, x24, 20
	mov	w0, 1
	bl	__aarch64_swp1_acq_rel
	tst	w0, 255
	bne	.L1260
	adrp	x25, :got:_ZN4asio6detail10call_stackINS0_15task_io_serviceENS0_27task_io_service_thread_infoEE4top_E
	ldr	x26, [x23, 40]
	ldr	x0, [x25, #:got_lo12:_ZN4asio6detail10call_stackINS0_15task_io_serviceENS0_27task_io_service_thread_infoEE4top_E]
	ldr	w0, [x0]
	bl	pthread_getspecific
	cbz	x0, .L1182
	ldr	x0, [x0, 8]
	cbz	x0, .L1182
	ldr	x19, [x0]
	cbz	x19, .L1182
	str	xzr, [x0]
	ldrb	w0, [x19]
	cmp	w0, 39
	bls	.L1183
	strb	w0, [x19, 40]
	b	.L1184
.L1183:
	mov	x0, x19
	bl	_ZdlPv
.L1182:
	add	x22, sp, 128
	mov	x0, 41
.LEHB39:
	bl	_Znwm
	mov	x19, x0
	mov	w1, 40
	strb	w1, [x0, 40]
.L1184:
	dup	v0.2d, x19
	adrp	x1, _ZN4asio6detail18completion_handlerIZN7asiopal8Executor10BlockUntilERKSt8functionIFvvEEEUlvE_E11do_completeEPNS0_15task_io_serviceEPNS0_25task_io_service_operationERKSt10error_codem
	add	x1, x1, :lo12:_ZN4asio6detail18completion_handlerIZN7asiopal8Executor10BlockUntilERKSt8functionIFvvEEEUlvE_E11do_completeEPNS0_15task_io_serviceEPNS0_25task_io_service_operationERKSt10error_codem
	add	x22, sp, 128
	ldr	x0, [x23, 48]
	stp	xzr, x1, [x19]
	str	wzr, [x19, 16]
	add	x0, x0, 24
	stp	x20, x22, [x19, 24]
	str	q0, [sp, 80]
	bl	pthread_mutex_lock
	ldr	x0, [x23, 48]
	ldrb	w1, [x0, 72]
	cbz	w1, .L1185
	str	xzr, [x19]
	ldr	x3, [x0, 88]
	cbz	x3, .L1186
	str	x19, [x3]
	str	x19, [x0, 88]
.L1187:
	add	x0, x0, 24
	bl	pthread_mutex_unlock
.L1188:
	ldr	x1, [x24]
	mov	x0, x24
	ldr	x1, [x1, 16]
	blr	x1
	add	x24, x24, 16
	ldar	w19, [x24]
	and	w19, w19, 2147483647
	cmp	w19, 1
	beq	.L1201
	.p2align 3,,7
.L1202:
	mov	x1, x24
	mov	w0, -2147483648
	bl	__aarch64_ldset4_relax
	orr	w2, w19, -2147483648
	mov	x1, x24
	mov	x0, x24
	mov	x5, 0
	mov	x4, 0
	mov	w3, 0
	bl	_ZNSt28__atomic_futex_unsigned_base19_M_futex_wait_untilEPjjbNSt6chrono8durationIlSt5ratioILl1ELl1EEEENS2_IlS3_ILl1ELl1000000000EEEE
.LEHE39:
	and	w0, w0, 255
	ldar	w19, [x24]
	and	w19, w19, 2147483647
	eor	w0, w0, 1
	cmp	w19, 1
	cset	w1, eq
	orr	w0, w1, w0
	cbz	w0, .L1202
.L1201:
	cbz	x21, .L1204
	adrp	x19, :got:__libc_single_threaded
	ldr	x0, [x19, #:got_lo12:__libc_single_threaded]
	ldrb	w0, [x0]
	cbz	w0, .L1205
	ldr	w0, [x21, 8]
	sub	w1, w0, #1
	str	w1, [x21, 8]
.L1206:
	cmp	w0, 1
	beq	.L1261
.L1204:
	mov	x0, x22
	bl	_ZNSt7promiseIbED1Ev
	adrp	x0, :got:__stack_chk_guard
	ldr	x0, [x0, #:got_lo12:__stack_chk_guard]
	ldr	x2, [sp, 152]
	ldr	x1, [x0]
	subs	x2, x2, x1
	mov	x1, 0
	bne	.L1262
	ldp	x19, x20, [sp, 16]
	ldp	x21, x22, [sp, 32]
	.cfi_remember_state
	.cfi_restore 22
	.cfi_restore 21
	ldp	x23, x24, [sp, 48]
	ldp	x25, x26, [sp, 64]
	.cfi_restore 26
	.cfi_restore 25
	ldp	x29, x30, [sp], 160
	.cfi_restore 30
	.cfi_restore 29
	.cfi_restore 23
	.cfi_restore 24
	.cfi_restore 19
	.cfi_restore 20
	.cfi_def_cfa_offset 0
	ret
.L1185:
	.cfi_restore_state
	mov	w1, 1
	strb	w1, [x0, 72]
	add	x0, x0, 24
	bl	pthread_mutex_unlock
	ldr	x20, [x23, 48]
	dup	v0.2d, x20
	ldr	x1, [x20, 104]
	str	xzr, [x19]
	str	q0, [sp, 96]
	cbz	x1, .L1189
	str	x19, [x1]
	str	x19, [x20, 104]
.L1190:
	ldr	x19, [x26, 40]
	ldrb	w0, [x19, 40]
	cbnz	w0, .L1263
.L1191:
	add	x1, x19, 192
	add	x23, x19, 48
	mov	x0, 1
	bl	__aarch64_ldadd8_acq_rel
	mov	x0, x23
	bl	pthread_mutex_lock
	ldr	x1, [x19, 208]
	str	xzr, [x20]
	cbz	x1, .L1196
	str	x20, [x1]
	str	x20, [x19, 208]
.L1197:
	ldr	x1, [x19, 144]
	add	x20, x19, 96
	orr	x1, x1, 1
	str	x1, [x19, 144]
	cmp	x1, 1
	beq	.L1198
	mov	x0, x23
	bl	pthread_mutex_unlock
	mov	x0, x20
	bl	pthread_cond_signal
	b	.L1188
.L1189:
	ldr	q0, [sp, 80]
	str	q0, [x20, 96]
	b	.L1190
.L1176:
	add	x1, x21, 8
	mov	w0, 1
	bl	__aarch64_ldadd4_acq_rel
	b	.L1173
.L1186:
	ldr	q0, [sp, 80]
	str	q0, [x0, 80]
	b	.L1187
.L1198:
	ldrb	w0, [x19, 184]
	cbnz	w0, .L1200
	ldr	x3, [x19, 152]
	cbz	x3, .L1200
	ldr	w2, [x3, 96]
	add	x4, x3, 96
	ldr	w0, [x3, 104]
	mov	w5, 9
	movk	w5, 0x8000, lsl 16
	strb	w1, [x19, 184]
	add	x3, sp, 112
	mov	w1, 3
	str	w5, [sp, 112]
	str	x4, [sp, 120]
	bl	epoll_ctl
.L1200:
	mov	x0, x23
	bl	pthread_mutex_unlock
	b	.L1188
.L1261:
	ldr	x1, [x21]
	mov	x0, x21
	ldr	x1, [x1, 16]
	blr	x1
	ldr	x19, [x19, #:got_lo12:__libc_single_threaded]
	ldrb	w0, [x19]
	cbz	w0, .L1208
	ldr	w0, [x21, 12]
	sub	w1, w0, #1
	str	w1, [x21, 12]
.L1209:
	cmp	w0, 1
	bne	.L1204
	ldr	x1, [x21]
	mov	x0, x21
	ldr	x1, [x1, 24]
	blr	x1
	b	.L1204
.L1205:
	add	x1, x21, 8
	mov	w0, -1
	bl	__aarch64_ldadd4_acq_rel
	b	.L1206
.L1263:
	ldr	x25, [x25, #:got_lo12:_ZN4asio6detail10call_stackINS0_15task_io_serviceENS0_27task_io_service_thread_infoEE4top_E]
	ldr	w0, [x25]
	bl	pthread_getspecific
	cbnz	x0, .L1194
	b	.L1191
	.p2align 2,,3
.L1192:
	ldr	x0, [x0, 16]
	cbz	x0, .L1191
.L1194:
	ldr	x1, [x0]
	cmp	x19, x1
	bne	.L1192
	ldr	x0, [x0, 8]
	cbz	x0, .L1191
	ldp	x3, x1, [x0, 16]
	add	x1, x1, 1
	str	x1, [x0, 24]
	str	xzr, [x20]
	ldr	x1, [x0, 16]
	cbz	x3, .L1195
	str	x20, [x1]
	str	x20, [x0, 16]
	b	.L1188
.L1196:
	ldr	q0, [sp, 96]
	str	q0, [x19, 200]
	b	.L1197
.L1208:
	add	x1, x21, 12
	mov	w0, -1
	bl	__aarch64_ldadd4_acq_rel
	b	.L1209
.L1195:
	ldr	q0, [sp, 96]
	str	q0, [x0, 8]
	b	.L1188
.L1260:
	mov	w0, 1
.LEHB40:
	bl	_ZSt20__throw_future_errori
.L1259:
	mov	w0, 3
	bl	_ZSt20__throw_future_errori
.LEHE40:
.L1262:
	bl	__stack_chk_fail
.L1258:
	.cfi_restore 21
	.cfi_restore 22
	.cfi_restore 25
	.cfi_restore 26
	stp	x21, x22, [sp, 32]
	.cfi_remember_state
	.cfi_offset 22, -120
	.cfi_offset 21, -128
	stp	x25, x26, [sp, 64]
	.cfi_offset 26, -88
	.cfi_offset 25, -96
	bl	__stack_chk_fail
.L1257:
	.cfi_restore_state
	stp	x21, x22, [sp, 32]
	.cfi_offset 22, -120
	.cfi_offset 21, -128
	stp	x25, x26, [sp, 64]
	.cfi_offset 26, -88
	.cfi_offset 25, -96
.LEHB41:
	bl	_ZSt25__throw_bad_function_callv
.L1213:
	mov	x19, x0
	cbz	x21, .L1181
	mov	x0, x21
	bl	_ZNSt16_Sp_counted_baseILN9__gnu_cxx12_Lock_policyE2EE10_M_releaseEv
.L1181:
	mov	x0, x22
	bl	_ZNSt7promiseIbED1Ev
.L1256:
	mov	x0, x19
	bl	_Unwind_Resume
.LEHE41:
.L1215:
	ldr	x1, [sp, 136]
	mov	x19, x0
	cbz	x1, .L1256
	mov	x0, x1
	bl	_ZNSt16_Sp_counted_baseILN9__gnu_cxx12_Lock_policyE2EE10_M_releaseEv
	b	.L1256
.L1214:
	mov	x19, x0
	cbz	x21, .L1180
	mov	x0, x21
	bl	_ZNSt16_Sp_counted_baseILN9__gnu_cxx12_Lock_policyE2EE10_M_releaseEv
.L1180:
	add	x22, sp, 128
	b	.L1181
	.cfi_endproc
.LFE7055:
	.section	.gcc_except_table
.LLSDA7055:
	.byte	0xff
	.byte	0xff
	.byte	0x1
	.uleb128 .LLSDACSE7055-.LLSDACSB7055
.LLSDACSB7055:
	.uleb128 .LEHB37-.LFB7055
	.uleb128 .LEHE37-.LEHB37
	.uleb128 0
	.uleb128 0
	.uleb128 .LEHB38-.LFB7055
	.uleb128 .LEHE38-.LEHB38
	.uleb128 .L1215-.LFB7055
	.uleb128 0
	.uleb128 .LEHB39-.LFB7055
	.uleb128 .LEHE39-.LEHB39
	.uleb128 .L1213-.LFB7055
	.uleb128 0
	.uleb128 .LEHB40-.LFB7055
	.uleb128 .LEHE40-.LEHB40
	.uleb128 .L1214-.LFB7055
	.uleb128 0
	.uleb128 .LEHB41-.LFB7055
	.uleb128 .LEHE41-.LEHB41
	.uleb128 0
	.uleb128 0
.LLSDACSE7055:
	.text
	.size	_ZN7asiopal8Executor10BlockUntilERKSt8functionIFvvEE, .-_ZN7asiopal8Executor10BlockUntilERKSt8functionIFvvEE
	.align	2
	.p2align 4,,11
	.global	_ZN7asiopal8Executor18BlockUntilAndFlushERKSt8functionIFvvEE
	.type	_ZN7asiopal8Executor18BlockUntilAndFlushERKSt8functionIFvvEE, %function
_ZN7asiopal8Executor18BlockUntilAndFlushERKSt8functionIFvvEE:
.LFB7070:
	.cfi_startproc
	.cfi_personality 0x9b,DW.ref.__gxx_personality_v0
	.cfi_lsda 0x1b,.LLSDA7070
	stp	x29, x30, [sp, -80]!
	.cfi_def_cfa_offset 80
	.cfi_offset 29, -80
	.cfi_offset 30, -72
	adrp	x2, :got:__stack_chk_guard
	mov	x29, sp
	ldr	x2, [x2, #:got_lo12:__stack_chk_guard]
	stp	x19, x20, [sp, 16]
	.cfi_offset 19, -64
	.cfi_offset 20, -56
	mov	x19, x0
	ldr	x3, [x2]
	str	x3, [sp, 72]
	mov	x3, 0
	add	x20, sp, 40
.LEHB42:
	bl	_ZN7asiopal8Executor10BlockUntilERKSt8functionIFvvEE
.LEHE42:
	stp	xzr, xzr, [sp, 40]
	adrp	x2, _ZNSt17_Function_handlerIFvvEZN7asiopal8Executor18BlockUntilAndFlushERKSt8functionIS0_EEUlvE_E9_M_invokeERKSt9_Any_data
	adrp	x3, _ZNSt17_Function_handlerIFvvEZN7asiopal8Executor18BlockUntilAndFlushERKSt8functionIS0_EEUlvE_E10_M_managerERSt9_Any_dataRKS9_St18_Manager_operation
	add	x2, x2, :lo12:_ZNSt17_Function_handlerIFvvEZN7asiopal8Executor18BlockUntilAndFlushERKSt8functionIS0_EEUlvE_E9_M_invokeERKSt9_Any_data
	add	x3, x3, :lo12:_ZNSt17_Function_handlerIFvvEZN7asiopal8Executor18BlockUntilAndFlushERKSt8functionIS0_EEUlvE_E10_M_managerERSt9_Any_dataRKS9_St18_Manager_operation
	mov	x0, x19
	mov	x1, x20
	stp	x3, x2, [sp, 56]
.LEHB43:
	bl	_ZN7asiopal8Executor10BlockUntilERKSt8functionIFvvEE
.LEHE43:
	ldr	x3, [sp, 56]
	cbz	x3, .L1264
	mov	x1, x20
	mov	x0, x20
	mov	w2, 3
	blr	x3
.L1264:
	adrp	x0, :got:__stack_chk_guard
	ldr	x0, [x0, #:got_lo12:__stack_chk_guard]
	ldr	x2, [sp, 72]
	ldr	x1, [x0]
	subs	x2, x2, x1
	mov	x1, 0
	bne	.L1277
	ldp	x19, x20, [sp, 16]
	ldp	x29, x30, [sp], 80
	.cfi_remember_state
	.cfi_restore 30
	.cfi_restore 29
	.cfi_restore 19
	.cfi_restore 20
	.cfi_def_cfa_offset 0
	ret
.L1277:
	.cfi_restore_state
	bl	__stack_chk_fail
.L1269:
	ldr	x3, [sp, 56]
	mov	x19, x0
	cbz	x3, .L1267
	mov	x1, x20
	mov	x0, x20
	mov	w2, 3
	blr	x3
.L1267:
	mov	x0, x19
.LEHB44:
	bl	_Unwind_Resume
.LEHE44:
	.cfi_endproc
.LFE7070:
	.section	.gcc_except_table
.LLSDA7070:
	.byte	0xff
	.byte	0xff
	.byte	0x1
	.uleb128 .LLSDACSE7070-.LLSDACSB7070
.LLSDACSB7070:
	.uleb128 .LEHB42-.LFB7070
	.uleb128 .LEHE42-.LEHB42
	.uleb128 0
	.uleb128 0
	.uleb128 .LEHB43-.LFB7070
	.uleb128 .LEHE43-.LEHB43
	.uleb128 .L1269-.LFB7070
	.uleb128 0
	.uleb128 .LEHB44-.LFB7070
	.uleb128 .LEHE44-.LEHB44
	.uleb128 0
	.uleb128 0
.LLSDACSE7070:
	.text
	.size	_ZN7asiopal8Executor18BlockUntilAndFlushERKSt8functionIFvvEE, .-_ZN7asiopal8Executor18BlockUntilAndFlushERKSt8functionIFvvEE
	.align	2
	.p2align 4,,11
	.type	_ZN4asio6detail18completion_handlerINS0_7binder1IZN7asiopal8Executor5StartERKNSt6chrono10time_pointINS5_3_V212steady_clockENS5_8durationIlSt5ratioILl1ELl1000000000EEEEEERKSt8functionIFvvEEEUlRKSt10error_codeE_SL_EEE11do_completeEPNS0_15task_io_serviceEPNS0_25task_io_service_operationESN_m, %function
_ZN4asio6detail18completion_handlerINS0_7binder1IZN7asiopal8Executor5StartERKNSt6chrono10time_pointINS5_3_V212steady_clockENS5_8durationIlSt5ratioILl1ELl1000000000EEEEEERKSt8functionIFvvEEEUlRKSt10error_codeE_SL_EEE11do_completeEPNS0_15task_io_serviceEPNS0_25task_io_service_operationESN_m:
.LFB9432:
	.cfi_startproc
	.cfi_personality 0x9b,DW.ref.__gxx_personality_v0
	.cfi_lsda 0x1b,.LLSDA9432
	stp	x29, x30, [sp, -192]!
	.cfi_def_cfa_offset 192
	.cfi_offset 29, -192
	.cfi_offset 30, -184
	adrp	x2, :got:__stack_chk_guard
	mov	x29, sp
	ldr	x2, [x2, #:got_lo12:__stack_chk_guard]
	stp	x19, x20, [sp, 16]
	.cfi_offset 19, -176
	.cfi_offset 20, -168
	mov	x19, x1
	stp	x21, x22, [sp, 32]
	add	x20, x1, 40
	.cfi_offset 21, -160
	.cfi_offset 22, -152
	add	x22, x1, 24
	str	x23, [sp, 48]
	.cfi_offset 23, -144
	mov	x21, x0
	ldr	q0, [x1, 24]
	ldr	x1, [x2]
	str	x1, [sp, 184]
	mov	x1, 0
	stp	xzr, xzr, [x19, 24]
	ldr	x3, [x20, 16]
	stp	x22, x19, [sp, 72]
	str	x19, [sp, 88]
	stp	xzr, xzr, [sp, 112]
	stp	xzr, xzr, [sp, 128]
	str	q0, [sp, 96]
	cbz	x3, .L1279
	add	x23, sp, 112
	mov	x1, x20
	mov	x0, x23
	mov	w2, 2
.LEHB45:
	blr	x3
.LEHE45:
	ldp	x3, x2, [x20, 16]
	add	x23, sp, 96
	ldr	q0, [x19, 72]
	str	x23, [sp, 72]
	ldp	x0, x1, [x22, 64]
	stp	x3, x2, [sp, 128]
	stp	x0, x1, [sp, 160]
	str	q0, [sp, 144]
	cbz	x3, .L1281
	mov	x1, x20
	mov	x0, x20
	mov	w2, 3
	blr	x3
.L1281:
	ldr	x20, [x19, 32]
	cbz	x20, .L1286
	adrp	x19, :got:__libc_single_threaded
	ldr	x0, [x19, #:got_lo12:__libc_single_threaded]
	ldrb	w0, [x0]
	cbz	w0, .L1287
	ldr	w0, [x20, 8]
	sub	w1, w0, #1
	str	w1, [x20, 8]
.L1288:
	cmp	w0, 1
	beq	.L1289
	ldr	x19, [sp, 80]
.L1290:
	str	xzr, [sp, 88]
	cbnz	x19, .L1334
.L1293:
	cbz	x21, .L1296
	add	x19, sp, 64
	mov	w0, 1
	mov	x1, x19
	str	wzr, [sp, 64]
	bl	__aarch64_swp4_sync
	ldr	w0, [sp, 160]
	cbnz	w0, .L1297
	ldr	x0, [sp, 128]
	cbz	x0, .L1376
	ldr	x1, [sp, 136]
	add	x0, sp, 112
.LEHB46:
	blr	x1
.LEHE46:
.L1297:
	stlr	wzr, [x19]
.L1296:
	ldr	x20, [sp, 152]
	cbz	x20, .L1300
	adrp	x19, :got:__libc_single_threaded
	ldr	x0, [x19, #:got_lo12:__libc_single_threaded]
	ldrb	w0, [x0]
	cbz	w0, .L1301
	ldr	w0, [x20, 8]
	sub	w1, w0, #1
	str	w1, [x20, 8]
.L1302:
	cmp	w0, 1
	beq	.L1377
.L1300:
	ldr	x3, [sp, 128]
	cbz	x3, .L1306
	add	x1, sp, 112
	mov	w2, 3
	mov	x0, x1
	blr	x3
.L1306:
	ldr	x20, [sp, 104]
	cbz	x20, .L1308
	adrp	x19, :got:__libc_single_threaded
	ldr	x0, [x19, #:got_lo12:__libc_single_threaded]
	ldrb	w0, [x0]
	cbz	w0, .L1309
	ldr	w0, [x20, 8]
	sub	w1, w0, #1
	str	w1, [x20, 8]
.L1310:
	cmp	w0, 1
	beq	.L1378
.L1308:
	ldr	x20, [sp, 88]
	cbz	x20, .L1314
	ldr	x21, [x20, 80]
	cbz	x21, .L1316
	adrp	x19, :got:__libc_single_threaded
	ldr	x0, [x19, #:got_lo12:__libc_single_threaded]
	ldrb	w0, [x0]
	cbz	w0, .L1317
	ldr	w0, [x21, 8]
	sub	w1, w0, #1
	str	w1, [x21, 8]
.L1318:
	cmp	w0, 1
	bne	.L1316
	ldr	x1, [x21]
	mov	x0, x21
	ldr	x1, [x1, 16]
	blr	x1
	ldr	x19, [x19, #:got_lo12:__libc_single_threaded]
	ldrb	w0, [x19]
	cbz	w0, .L1320
	ldr	w0, [x21, 12]
	sub	w1, w0, #1
	str	w1, [x21, 12]
.L1321:
	cmp	w0, 1
	beq	.L1379
	.p2align 3,,7
.L1316:
	ldr	x3, [x20, 56]
	add	x1, x20, 40
	cbz	x3, .L1322
	mov	x0, x1
	mov	w2, 3
	blr	x3
.L1322:
	ldr	x20, [x20, 32]
	cbz	x20, .L1324
	adrp	x19, :got:__libc_single_threaded
	ldr	x0, [x19, #:got_lo12:__libc_single_threaded]
	ldrb	w0, [x0]
	cbz	w0, .L1325
	ldr	w0, [x20, 8]
	sub	w1, w0, #1
	str	w1, [x20, 8]
.L1326:
	cmp	w0, 1
	bne	.L1324
	ldr	x1, [x20]
	mov	x0, x20
	ldr	x1, [x1, 16]
	blr	x1
	ldr	x19, [x19, #:got_lo12:__libc_single_threaded]
	ldrb	w0, [x19]
	cbz	w0, .L1328
	ldr	w0, [x20, 12]
	sub	w1, w0, #1
	str	w1, [x20, 12]
.L1329:
	cmp	w0, 1
	beq	.L1380
	.p2align 3,,7
.L1324:
	str	xzr, [sp, 88]
.L1314:
	ldr	x19, [sp, 80]
	cbz	x19, .L1278
	adrp	x0, :got:_ZN4asio6detail10call_stackINS0_15task_io_serviceENS0_27task_io_service_thread_infoEE4top_E
	ldr	x0, [x0, #:got_lo12:_ZN4asio6detail10call_stackINS0_15task_io_serviceENS0_27task_io_service_thread_infoEE4top_E]
	ldr	w0, [x0]
	bl	pthread_getspecific
	cbz	x0, .L1331
	ldr	x0, [x0, 8]
	cbz	x0, .L1331
	ldr	x1, [x0]
	cbz	x1, .L1381
.L1331:
	adrp	x0, :got:__stack_chk_guard
	ldr	x0, [x0, #:got_lo12:__stack_chk_guard]
	ldr	x2, [sp, 184]
	ldr	x1, [x0]
	subs	x2, x2, x1
	mov	x1, 0
	bne	.L1375
	mov	x0, x19
	ldp	x19, x20, [sp, 16]
	ldp	x21, x22, [sp, 32]
	ldr	x23, [sp, 48]
	ldp	x29, x30, [sp], 192
	.cfi_remember_state
	.cfi_restore 30
	.cfi_restore 29
	.cfi_restore 23
	.cfi_restore 21
	.cfi_restore 22
	.cfi_restore 19
	.cfi_restore 20
	.cfi_def_cfa_offset 0
	b	_ZdlPv
	.p2align 2,,3
.L1286:
	.cfi_restore_state
	str	xzr, [sp, 88]
.L1334:
	adrp	x0, :got:_ZN4asio6detail10call_stackINS0_15task_io_serviceENS0_27task_io_service_thread_infoEE4top_E
	ldr	x0, [x0, #:got_lo12:_ZN4asio6detail10call_stackINS0_15task_io_serviceENS0_27task_io_service_thread_infoEE4top_E]
	ldr	w0, [x0]
	bl	pthread_getspecific
	cbz	x0, .L1294
	ldr	x0, [x0, 8]
	cbz	x0, .L1294
	ldr	x1, [x0]
	cbz	x1, .L1382
.L1294:
	mov	x0, x19
	bl	_ZdlPv
	str	xzr, [sp, 80]
	b	.L1293
	.p2align 2,,3
.L1381:
	ldrb	w1, [x19, 104]
	strb	w1, [x19]
	str	x19, [x0]
	.p2align 3,,7
.L1278:
	adrp	x0, :got:__stack_chk_guard
	ldr	x0, [x0, #:got_lo12:__stack_chk_guard]
	ldr	x2, [sp, 184]
	ldr	x1, [x0]
	subs	x2, x2, x1
	mov	x1, 0
	bne	.L1375
	ldp	x19, x20, [sp, 16]
	ldp	x21, x22, [sp, 32]
	ldr	x23, [sp, 48]
	ldp	x29, x30, [sp], 192
	.cfi_remember_state
	.cfi_restore 30
	.cfi_restore 29
	.cfi_restore 23
	.cfi_restore 21
	.cfi_restore 22
	.cfi_restore 19
	.cfi_restore 20
	.cfi_def_cfa_offset 0
	ret
	.p2align 2,,3
.L1317:
	.cfi_restore_state
	add	x1, x21, 8
	mov	w0, -1
	bl	__aarch64_ldadd4_acq_rel
	b	.L1318
	.p2align 2,,3
.L1325:
	add	x1, x20, 8
	mov	w0, -1
	bl	__aarch64_ldadd4_acq_rel
	b	.L1326
	.p2align 2,,3
.L1287:
	add	x1, x20, 8
	mov	w0, -1
	bl	__aarch64_ldadd4_acq_rel
	b	.L1288
	.p2align 2,,3
.L1378:
	ldr	x1, [x20]
	mov	x0, x20
	ldr	x1, [x1, 16]
	blr	x1
	ldr	x19, [x19, #:got_lo12:__libc_single_threaded]
	ldrb	w0, [x19]
	cbz	w0, .L1312
	ldr	w0, [x20, 12]
	sub	w1, w0, #1
	str	w1, [x20, 12]
.L1313:
	cmp	w0, 1
	bne	.L1308
	ldr	x1, [x20]
	mov	x0, x20
	ldr	x1, [x1, 24]
	blr	x1
	b	.L1308
	.p2align 2,,3
.L1377:
	ldr	x1, [x20]
	mov	x0, x20
	ldr	x1, [x1, 16]
	blr	x1
	ldr	x19, [x19, #:got_lo12:__libc_single_threaded]
	ldrb	w0, [x19]
	cbz	w0, .L1304
	ldr	w0, [x20, 12]
	sub	w1, w0, #1
	str	w1, [x20, 12]
.L1305:
	cmp	w0, 1
	bne	.L1300
	ldr	x1, [x20]
	mov	x0, x20
	ldr	x1, [x1, 24]
	blr	x1
	b	.L1300
	.p2align 2,,3
.L1309:
	add	x1, x20, 8
	mov	w0, -1
	bl	__aarch64_ldadd4_acq_rel
	b	.L1310
	.p2align 2,,3
.L1301:
	add	x1, x20, 8
	mov	w0, -1
	bl	__aarch64_ldadd4_acq_rel
	b	.L1302
	.p2align 2,,3
.L1279:
	ldr	q0, [x19, 72]
	add	x23, sp, 96
	ldp	x0, x1, [x22, 64]
	str	x23, [sp, 72]
	str	q0, [sp, 144]
	stp	x0, x1, [sp, 160]
	b	.L1281
	.p2align 2,,3
.L1289:
	ldr	x1, [x20]
	mov	x0, x20
	ldr	x1, [x1, 16]
	blr	x1
	ldr	x19, [x19, #:got_lo12:__libc_single_threaded]
	ldrb	w0, [x19]
	cbz	w0, .L1291
	ldr	w0, [x20, 12]
	sub	w1, w0, #1
	str	w1, [x20, 12]
.L1292:
	ldr	x19, [sp, 80]
	cmp	w0, 1
	bne	.L1290
	ldr	x1, [x20]
	mov	x0, x20
	ldr	x1, [x1, 24]
	blr	x1
	b	.L1290
	.p2align 2,,3
.L1382:
	ldrb	w1, [x19, 104]
	strb	w1, [x19]
	str	x19, [x0]
	str	xzr, [sp, 80]
	b	.L1293
	.p2align 2,,3
.L1304:
	add	x1, x20, 12
	mov	w0, -1
	bl	__aarch64_ldadd4_acq_rel
	b	.L1305
	.p2align 2,,3
.L1312:
	add	x1, x20, 12
	mov	w0, -1
	bl	__aarch64_ldadd4_acq_rel
	b	.L1313
	.p2align 2,,3
.L1379:
	ldr	x1, [x21]
	mov	x0, x21
	ldr	x1, [x1, 24]
	blr	x1
	b	.L1316
	.p2align 2,,3
.L1380:
	ldr	x1, [x20]
	mov	x0, x20
	ldr	x1, [x1, 24]
	blr	x1
	str	xzr, [sp, 88]
	b	.L1314
	.p2align 2,,3
.L1328:
	add	x1, x20, 12
	mov	w0, -1
	bl	__aarch64_ldadd4_acq_rel
	b	.L1329
	.p2align 2,,3
.L1291:
	add	x1, x20, 12
	mov	w0, -1
	bl	__aarch64_ldadd4_acq_rel
	b	.L1292
	.p2align 2,,3
.L1320:
	add	x1, x21, 12
	mov	w0, -1
	bl	__aarch64_ldadd4_acq_rel
	b	.L1321
.L1375:
	bl	__stack_chk_fail
.L1376:
.LEHB47:
	bl	_ZSt25__throw_bad_function_callv
.LEHE47:
.L1336:
	stlr	wzr, [x19]
	mov	x19, x0
	mov	x0, x23
	bl	_ZZN7asiopal8Executor5StartERKNSt6chrono10time_pointINS1_3_V212steady_clockENS1_8durationIlSt5ratioILl1ELl1000000000EEEEEERKSt8functionIFvvEEENUlRKSt10error_codeE_D1Ev
.L1285:
	add	x0, sp, 72
	bl	_ZN4asio6detail18completion_handlerINS0_7binder1IZN7asiopal8Executor5StartERKNSt6chrono10time_pointINS5_3_V212steady_clockENS5_8durationIlSt5ratioILl1ELl1000000000EEEEEERKSt8functionIFvvEEEUlRKSt10error_codeE_SL_EEE3ptr5resetEv
	mov	x0, x19
.LEHB48:
	bl	_Unwind_Resume
.LEHE48:
.L1337:
	ldr	x3, [sp, 128]
	mov	x19, x0
	cbz	x3, .L1283
	mov	x1, x23
	mov	x0, x23
	mov	w2, 3
	blr	x3
.L1283:
	ldr	x0, [sp, 104]
	cbz	x0, .L1285
	bl	_ZNSt16_Sp_counted_baseILN9__gnu_cxx12_Lock_policyE2EE10_M_releaseEv
	b	.L1285
	.cfi_endproc
.LFE9432:
	.section	.gcc_except_table
.LLSDA9432:
	.byte	0xff
	.byte	0xff
	.byte	0x1
	.uleb128 .LLSDACSE9432-.LLSDACSB9432
.LLSDACSB9432:
	.uleb128 .LEHB45-.LFB9432
	.uleb128 .LEHE45-.LEHB45
	.uleb128 .L1337-.LFB9432
	.uleb128 0
	.uleb128 .LEHB46-.LFB9432
	.uleb128 .LEHE46-.LEHB46
	.uleb128 .L1336-.LFB9432
	.uleb128 0
	.uleb128 .LEHB47-.LFB9432
	.uleb128 .LEHE47-.LEHB47
	.uleb128 .L1336-.LFB9432
	.uleb128 0
	.uleb128 .LEHB48-.LFB9432
	.uleb128 .LEHE48-.LEHB48
	.uleb128 0
	.uleb128 0
.LLSDACSE9432:
	.text
	.size	_ZN4asio6detail18completion_handlerINS0_7binder1IZN7asiopal8Executor5StartERKNSt6chrono10time_pointINS5_3_V212steady_clockENS5_8durationIlSt5ratioILl1ELl1000000000EEEEEERKSt8functionIFvvEEEUlRKSt10error_codeE_SL_EEE11do_completeEPNS0_15task_io_serviceEPNS0_25task_io_service_operationESN_m, .-_ZN4asio6detail18completion_handlerINS0_7binder1IZN7asiopal8Executor5StartERKNSt6chrono10time_pointINS5_3_V212steady_clockENS5_8durationIlSt5ratioILl1ELl1000000000EEEEEERKSt8functionIFvvEEEUlRKSt10error_codeE_SL_EEE11do_completeEPNS0_15task_io_serviceEPNS0_25task_io_service_operationESN_m
	.align	2
	.p2align 4,,11
	.type	_ZN4asio6detail15wrapped_handlerINS_10io_service6strandEZN7asiopal8Executor5StartERKNSt6chrono10time_pointINS6_3_V212steady_clockENS6_8durationIlSt5ratioILl1ELl1000000000EEEEEERKSt8functionIFvvEEEUlRKSt10error_codeE_NS0_26is_continuation_if_runningEEclISM_EEvRKT_, %function
_ZN4asio6detail15wrapped_handlerINS_10io_service6strandEZN7asiopal8Executor5StartERKNSt6chrono10time_pointINS6_3_V212steady_clockENS6_8durationIlSt5ratioILl1ELl1000000000EEEEEERKSt8functionIFvvEEEUlRKSt10error_codeE_NS0_26is_continuation_if_runningEEclISM_EEvRKT_:
.LFB9399:
	.cfi_startproc
	.cfi_personality 0x9b,DW.ref.__gxx_personality_v0
	.cfi_lsda 0x1b,.LLSDA9399
	sub	sp, sp, #544
	.cfi_def_cfa_offset 544
	adrp	x2, :got:__stack_chk_guard
	stp	x29, x30, [sp]
	.cfi_offset 29, -544
	.cfi_offset 30, -536
	mov	x29, sp
	ldr	x2, [x2, #:got_lo12:__stack_chk_guard]
	stp	x19, x20, [sp, 16]
	.cfi_offset 19, -528
	.cfi_offset 20, -520
	mov	x20, x0
	stp	x21, x22, [sp, 32]
	.cfi_offset 21, -512
	.cfi_offset 22, -504
	mov	x21, x1
	stp	x25, x26, [sp, 64]
	ldr	q0, [x0, 16]
	ldr	x0, [x2]
	str	x0, [sp, 536]
	mov	x0, 0
	umov	x1, v0.d[1]
	str	q0, [sp, 224]
	.cfi_offset 25, -480
	.cfi_offset 26, -472
	cbz	x1, .L1384
	adrp	x0, :got:__libc_single_threaded
	ldr	x0, [x0, #:got_lo12:__libc_single_threaded]
	ldrb	w0, [x0]
	cbz	w0, .L1385
	ldr	w0, [x1, 8]
	add	w0, w0, 1
	str	w0, [x1, 8]
.L1384:
	ldr	x3, [x20, 48]
	stp	xzr, xzr, [sp, 240]
	add	x19, x20, 32
	stp	xzr, xzr, [sp, 256]
	cbz	x3, .L1386
	add	x22, sp, 240
	mov	x1, x19
	mov	x0, x22
	mov	w2, 2
.LEHB49:
	blr	x3
.LEHE49:
	ldp	x3, x0, [x19, 16]
	stp	x3, x0, [sp, 256]
.L1386:
	ldr	q0, [x20, 64]
	umov	x1, v0.d[1]
	str	q0, [sp, 272]
	cbz	x1, .L1388
	adrp	x0, :got:__libc_single_threaded
	ldr	x0, [x0, #:got_lo12:__libc_single_threaded]
	ldrb	w0, [x0]
	cbz	w0, .L1393
	ldr	w0, [x1, 8]
	ldr	x3, [sp, 256]
	add	w0, w0, 1
	str	w0, [x1, 8]
.L1388:
	ldr	q1, [sp, 224]
	stp	xzr, xzr, [sp, 224]
	stp	xzr, xzr, [sp, 304]
	stp	xzr, xzr, [sp, 320]
	str	q1, [sp, 288]
	cbz	x3, .L1395
	add	x19, sp, 304
	add	x1, sp, 240
	mov	x0, x19
	mov	w2, 2
.LEHB50:
	blr	x3
.LEHE50:
	ldr	q1, [sp, 288]
	ldp	x3, x0, [sp, 256]
	stp	x3, x0, [sp, 320]
.L1395:
	movi	v2.4s, 0
	stp	xzr, xzr, [sp, 464]
	ldr	q0, [sp, 272]
	stp	xzr, xzr, [sp, 480]
	ldp	x0, x1, [x21]
	stp	x0, x1, [sp, 352]
	stp	q2, q2, [sp, 272]
	str	q0, [sp, 336]
	str	q1, [sp, 448]
	cbz	x3, .L1397
	add	x19, sp, 464
	add	x1, sp, 304
	mov	x0, x19
	mov	w2, 2
.LEHB51:
	blr	x3
.LEHE51:
	ldp	q1, q0, [sp, 320]
	str	q1, [sp, 480]
.L1397:
	adrp	x21, :got:_ZN4asio6detail10call_stackINS0_14strand_service11strand_implEhE4top_E
	ldp	x2, x3, [sp, 352]
	add	x1, sp, 512
	ldr	x0, [x21, #:got_lo12:_ZN4asio6detail10call_stackINS0_14strand_service11strand_implEhE4top_E]
	stp	xzr, xzr, [sp, 336]
	stp	x2, x3, [x1]
	ldr	w0, [x0]
	str	q0, [sp, 496]
	ldp	x22, x19, [x20]
	bl	pthread_getspecific
	cbnz	x0, .L1402
	b	.L1696
	.p2align 2,,3
.L1408:
	ldr	x0, [x0, 16]
	cbz	x0, .L1696
.L1402:
	ldr	x1, [x0]
	cmp	x19, x1
	bne	.L1408
	ldr	x0, [x0, 8]
	cbz	x0, .L1696
	add	x19, sp, 200
	mov	w0, 1
	mov	x1, x19
	str	wzr, [sp, 200]
	bl	__aarch64_swp4_sync
	ldr	w0, [sp, 512]
	cbz	w0, .L1699
.L1410:
	stlr	wzr, [x19]
.L1412:
	ldr	x20, [sp, 504]
	cbz	x20, .L1516
	adrp	x19, :got:__libc_single_threaded
	ldr	x0, [x19, #:got_lo12:__libc_single_threaded]
	ldrb	w0, [x0]
	cbz	w0, .L1519
	ldr	w0, [x20, 8]
	sub	w1, w0, #1
	str	w1, [x20, 8]
.L1520:
	cmp	w0, 1
	beq	.L1700
.L1516:
	ldr	x3, [sp, 480]
	cbz	x3, .L1524
	add	x1, sp, 464
	mov	w2, 3
	mov	x0, x1
	blr	x3
.L1524:
	ldr	x20, [sp, 456]
	cbz	x20, .L1526
	adrp	x19, :got:__libc_single_threaded
	ldr	x0, [x19, #:got_lo12:__libc_single_threaded]
	ldrb	w0, [x0]
	cbz	w0, .L1527
	ldr	w0, [x20, 8]
	sub	w1, w0, #1
	str	w1, [x20, 8]
.L1528:
	cmp	w0, 1
	beq	.L1701
.L1526:
	ldr	x20, [sp, 344]
	cbz	x20, .L1533
	adrp	x19, :got:__libc_single_threaded
	ldr	x0, [x19, #:got_lo12:__libc_single_threaded]
	ldrb	w0, [x0]
	cbz	w0, .L1534
	ldr	w0, [x20, 8]
	sub	w1, w0, #1
	str	w1, [x20, 8]
.L1535:
	cmp	w0, 1
	beq	.L1702
.L1533:
	ldr	x3, [sp, 320]
	cbz	x3, .L1539
	add	x1, sp, 304
	mov	w2, 3
	mov	x0, x1
	blr	x3
.L1539:
	ldr	x20, [sp, 296]
	cbz	x20, .L1541
	adrp	x19, :got:__libc_single_threaded
	ldr	x0, [x19, #:got_lo12:__libc_single_threaded]
	ldrb	w0, [x0]
	cbz	w0, .L1542
	ldr	w0, [x20, 8]
	sub	w1, w0, #1
	str	w1, [x20, 8]
.L1543:
	cmp	w0, 1
	beq	.L1703
.L1541:
	ldr	x20, [sp, 280]
	cbz	x20, .L1548
	adrp	x19, :got:__libc_single_threaded
	ldr	x0, [x19, #:got_lo12:__libc_single_threaded]
	ldrb	w0, [x0]
	cbz	w0, .L1549
	ldr	w0, [x20, 8]
	sub	w1, w0, #1
	str	w1, [x20, 8]
.L1550:
	cmp	w0, 1
	beq	.L1704
.L1548:
	ldr	x3, [sp, 256]
	cbz	x3, .L1554
	add	x1, sp, 240
	mov	w2, 3
	mov	x0, x1
	blr	x3
.L1554:
	ldr	x20, [sp, 232]
	cbz	x20, .L1383
	adrp	x19, :got:__libc_single_threaded
	ldr	x0, [x19, #:got_lo12:__libc_single_threaded]
	ldrb	w0, [x0]
	cbz	w0, .L1557
	ldr	w0, [x20, 8]
	sub	w1, w0, #1
	str	w1, [x20, 8]
.L1558:
	cmp	w0, 1
	beq	.L1705
.L1383:
	adrp	x0, :got:__stack_chk_guard
	ldr	x0, [x0, #:got_lo12:__stack_chk_guard]
	ldr	x2, [sp, 536]
	ldr	x1, [x0]
	subs	x2, x2, x1
	mov	x1, 0
	bne	.L1706
	ldp	x29, x30, [sp]
	ldp	x19, x20, [sp, 16]
	ldp	x21, x22, [sp, 32]
	ldp	x25, x26, [sp, 64]
	add	sp, sp, 544
	.cfi_remember_state
	.cfi_restore 29
	.cfi_restore 30
	.cfi_restore 25
	.cfi_restore 26
	.cfi_restore 21
	.cfi_restore 22
	.cfi_restore 19
	.cfi_restore 20
	.cfi_def_cfa_offset 0
	ret
	.p2align 2,,3
.L1696:
	.cfi_restore_state
	stp	x23, x24, [sp, 48]
	.cfi_remember_state
	.cfi_offset 24, -488
	.cfi_offset 23, -496
	adrp	x24, :got:_ZN4asio6detail10call_stackINS0_15task_io_serviceENS0_27task_io_service_thread_infoEE4top_E
	add	x25, sp, 448
	ldr	x0, [x24, #:got_lo12:_ZN4asio6detail10call_stackINS0_15task_io_serviceENS0_27task_io_service_thread_infoEE4top_E]
	str	x27, [sp, 80]
	.cfi_offset 27, -464
	str	x25, [sp, 152]
	stp	xzr, xzr, [sp, 160]
	ldr	w0, [x0]
	bl	pthread_getspecific
	cbz	x0, .L1413
	ldr	x0, [x0, 8]
	cbz	x0, .L1413
	ldr	x19, [x0]
	cbz	x19, .L1413
	str	xzr, [x0]
	ldrb	w0, [x19]
	cmp	w0, 103
	bls	.L1414
	strb	w0, [x19, 104]
	b	.L1415
	.p2align 2,,3
.L1699:
	.cfi_restore_state
	ldr	x0, [sp, 480]
	cbz	x0, .L1707
	ldr	x1, [sp, 488]
	add	x0, sp, 464
.LEHB52:
	blr	x1
.LEHE52:
	b	.L1410
	.p2align 2,,3
.L1393:
	add	x1, x1, 8
	mov	w0, 1
	bl	__aarch64_ldadd4_acq_rel
	ldr	x3, [sp, 256]
	b	.L1388
	.p2align 2,,3
.L1385:
	add	x1, x1, 8
	mov	w0, 1
	bl	__aarch64_ldadd4_acq_rel
	b	.L1384
	.p2align 2,,3
.L1414:
	.cfi_offset 23, -496
	.cfi_offset 24, -488
	.cfi_offset 27, -464
	mov	x0, x19
	bl	_ZdlPv
.L1413:
	mov	x0, 105
.LEHB53:
	bl	_Znwm
.LEHE53:
	mov	x19, x0
	mov	w1, 104
	strb	w1, [x0, 104]
.L1415:
	adrp	x0, _ZN4asio6detail18completion_handlerINS0_7binder1IZN7asiopal8Executor5StartERKNSt6chrono10time_pointINS5_3_V212steady_clockENS5_8durationIlSt5ratioILl1ELl1000000000EEEEEERKSt8functionIFvvEEEUlRKSt10error_codeE_SL_EEE11do_completeEPNS0_15task_io_serviceEPNS0_25task_io_service_operationESN_m
	add	x0, x0, :lo12:_ZN4asio6detail18completion_handlerINS0_7binder1IZN7asiopal8Executor5StartERKNSt6chrono10time_pointINS5_3_V212steady_clockENS5_8durationIlSt5ratioILl1ELl1000000000EEEEEERKSt8functionIFvvEEEUlRKSt10error_codeE_SL_EEE11do_completeEPNS0_15task_io_serviceEPNS0_25task_io_service_operationESN_m
	stp	xzr, x0, [x19]
	add	x23, x19, 40
	add	x26, x19, 24
	ldr	q0, [sp, 448]
	str	wzr, [x19, 16]
	stp	xzr, xzr, [x19, 40]
	str	q0, [x19, 24]
	dup	v0.2d, x19
	ldr	x3, [sp, 480]
	stp	xzr, xzr, [x23, 16]
	str	x19, [sp, 160]
	stp	xzr, xzr, [sp, 448]
	str	q0, [sp, 96]
	cbz	x3, .L1416
	add	x1, sp, 464
	mov	x0, x23
	mov	w2, 2
.LEHB54:
	blr	x3
.LEHE54:
	ldr	q0, [sp, 480]
	str	q0, [x19, 56]
.L1416:
	add	x1, sp, 512
	ldr	q0, [sp, 496]
	stp	xzr, xzr, [sp, 496]
	ldr	x0, [x24, #:got_lo12:_ZN4asio6detail10call_stackINS0_15task_io_serviceENS0_27task_io_service_thread_infoEE4top_E]
	str	q0, [x19, 72]
	ldp	x2, x3, [x1]
	stp	x2, x3, [x26, 64]
	ldr	w0, [x0]
	ldr	x27, [x22, 40]
	bl	pthread_getspecific
	mov	x1, x0
	cbnz	x0, .L1417
	b	.L1418
	.p2align 2,,3
.L1423:
	ldr	x1, [x1, 16]
	cbz	x1, .L1418
.L1417:
	ldr	x0, [x1]
	cmp	x27, x0
	bne	.L1423
	ldr	x27, [x1, 8]
	ldr	x0, [x20, 8]
	add	x0, x0, 24
	bl	pthread_mutex_lock
	cbz	x27, .L1425
	ldr	x1, [x20, 8]
	add	x0, x1, 24
	ldrb	w2, [x1, 72]
	cbz	w2, .L1708
.L1426:
	str	xzr, [x19]
	ldr	x4, [x1, 88]
	cbz	x4, .L1430
	str	x19, [x4]
	str	x19, [x1, 88]
.L1697:
	bl	pthread_mutex_unlock
	ldp	x23, x24, [sp, 48]
	.cfi_remember_state
	.cfi_restore 24
	.cfi_restore 23
	ldr	x27, [sp, 80]
	.cfi_restore 27
	b	.L1412
.L1708:
	.cfi_restore_state
	mov	w2, 1
	strb	w2, [x1, 72]
	bl	pthread_mutex_unlock
	str	xzr, [sp, 160]
	ldr	x27, [x21, #:got_lo12:_ZN4asio6detail10call_stackINS0_14strand_service11strand_implEhE4top_E]
	ldr	x0, [x20, 8]
	str	x0, [sp, 176]
	ldr	w0, [x27]
	bl	pthread_getspecific
	mov	x2, x0
	ldr	w0, [x27]
	add	x1, sp, 176
	stp	x1, x2, [sp, 184]
	bl	pthread_setspecific
	ldr	x22, [x22, 40]
	stp	x26, x19, [sp, 200]
	str	x19, [sp, 216]
	ldr	x0, [x20, 8]
	stp	x22, x0, [sp, 136]
	ldr	q0, [x19, 24]
	stp	xzr, xzr, [x19, 24]
	ldr	x3, [x23, 16]
	stp	xzr, xzr, [sp, 384]
	stp	xzr, xzr, [sp, 400]
	str	q0, [sp, 368]
	cbz	x3, .L1709
	add	x20, sp, 384
	mov	x1, x23
	mov	x0, x20
	mov	w2, 2
.LEHB55:
	blr	x3
.LEHE55:
	ldp	x3, x0, [x23, 16]
	stp	x3, x0, [sp, 400]
	add	x20, sp, 368
	ldr	q0, [x19, 72]
	ldp	x0, x1, [x26, 64]
	str	x20, [sp, 200]
	stp	x0, x1, [sp, 432]
	str	q0, [sp, 416]
	cbz	x3, .L1446
	mov	x1, x23
	mov	x0, x23
	mov	w2, 3
	blr	x3
.L1446:
	ldr	x23, [x19, 32]
	cbz	x23, .L1451
	adrp	x19, :got:__libc_single_threaded
	ldr	x0, [x19, #:got_lo12:__libc_single_threaded]
	ldrb	w0, [x0]
	cbz	w0, .L1452
	ldr	w0, [x23, 8]
	sub	w1, w0, #1
	str	w1, [x23, 8]
.L1453:
	cmp	w0, 1
	beq	.L1454
	ldr	x19, [sp, 208]
.L1455:
	str	xzr, [sp, 216]
	cbnz	x19, .L1562
.L1458:
	cbz	x22, .L1461
	add	x19, sp, 128
	mov	w0, 1
	mov	x1, x19
	str	wzr, [sp, 128]
	bl	__aarch64_swp4_sync
	ldr	w0, [sp, 432]
	cbnz	w0, .L1462
	ldr	x0, [sp, 400]
	cbz	x0, .L1710
	ldr	x1, [sp, 408]
	add	x0, sp, 384
.LEHB56:
	blr	x1
.LEHE56:
.L1462:
	stlr	wzr, [x19]
.L1461:
	ldr	x20, [sp, 424]
	cbz	x20, .L1465
	adrp	x19, :got:__libc_single_threaded
	ldr	x0, [x19, #:got_lo12:__libc_single_threaded]
	ldrb	w0, [x0]
	cbz	w0, .L1466
	ldr	w0, [x20, 8]
	sub	w1, w0, #1
	str	w1, [x20, 8]
.L1467:
	cmp	w0, 1
	beq	.L1711
.L1465:
	ldr	x3, [sp, 400]
	cbz	x3, .L1471
	add	x1, sp, 384
	mov	w2, 3
	mov	x0, x1
	blr	x3
.L1471:
	ldr	x20, [sp, 376]
	cbz	x20, .L1473
	adrp	x19, :got:__libc_single_threaded
	ldr	x0, [x19, #:got_lo12:__libc_single_threaded]
	ldrb	w0, [x0]
	cbz	w0, .L1474
	ldr	w0, [x20, 8]
	sub	w1, w0, #1
	str	w1, [x20, 8]
.L1475:
	cmp	w0, 1
	beq	.L1712
.L1473:
	ldr	x20, [sp, 216]
	cbz	x20, .L1479
	ldr	x22, [x20, 80]
	cbz	x22, .L1481
	adrp	x19, :got:__libc_single_threaded
	ldr	x0, [x19, #:got_lo12:__libc_single_threaded]
	ldrb	w0, [x0]
	cbz	w0, .L1482
	ldr	w0, [x22, 8]
	sub	w1, w0, #1
	str	w1, [x22, 8]
.L1483:
	cmp	w0, 1
	bne	.L1481
	ldr	x1, [x22]
	mov	x0, x22
	ldr	x1, [x1, 16]
	blr	x1
	ldr	x19, [x19, #:got_lo12:__libc_single_threaded]
	ldrb	w0, [x19]
	cbz	w0, .L1485
	ldr	w0, [x22, 12]
	sub	w1, w0, #1
	str	w1, [x22, 12]
.L1486:
	cmp	w0, 1
	bne	.L1481
	ldr	x1, [x22]
	mov	x0, x22
	ldr	x1, [x1, 24]
	blr	x1
	.p2align 3,,7
.L1481:
	ldr	x3, [x20, 56]
	add	x1, x20, 40
	cbz	x3, .L1487
	mov	x0, x1
	mov	w2, 3
	blr	x3
.L1487:
	ldr	x20, [x20, 32]
	cbz	x20, .L1489
	adrp	x19, :got:__libc_single_threaded
	ldr	x0, [x19, #:got_lo12:__libc_single_threaded]
	ldrb	w0, [x0]
	cbz	w0, .L1490
	ldr	w0, [x20, 8]
	sub	w1, w0, #1
	str	w1, [x20, 8]
.L1491:
	cmp	w0, 1
	bne	.L1489
	ldr	x1, [x20]
	mov	x0, x20
	ldr	x1, [x1, 16]
	blr	x1
	ldr	x19, [x19, #:got_lo12:__libc_single_threaded]
	ldrb	w0, [x19]
	cbz	w0, .L1493
	ldr	w0, [x20, 12]
	sub	w1, w0, #1
	str	w1, [x20, 12]
.L1494:
	cmp	w0, 1
	bne	.L1489
	ldr	x1, [x20]
	mov	x0, x20
	ldr	x1, [x1, 24]
	blr	x1
	.p2align 3,,7
.L1489:
	str	xzr, [sp, 216]
.L1479:
	ldr	x19, [sp, 208]
	cbz	x19, .L1495
	ldr	x0, [x24, #:got_lo12:_ZN4asio6detail10call_stackINS0_15task_io_serviceENS0_27task_io_service_thread_infoEE4top_E]
	ldr	w0, [x0]
	bl	pthread_getspecific
	cbz	x0, .L1496
	ldr	x0, [x0, 8]
	cbz	x0, .L1496
	ldr	x1, [x0]
	cbz	x1, .L1713
.L1496:
	mov	x0, x19
	bl	_ZdlPv
.L1495:
	ldr	x19, [sp, 144]
	add	x22, x19, 24
	mov	x0, x22
	bl	pthread_mutex_lock
	dup	v0.2d, x19
	ldr	x20, [x19, 80]
	str	q0, [sp, 96]
	cbz	x20, .L1714
	ldr	x1, [x19, 104]
	add	x0, x19, 96
	cbz	x1, .L1500
	str	x20, [x1]
	ldr	x20, [x19, 96]
.L1501:
	ldr	x1, [x19, 88]
	str	x1, [x0, 8]
	stp	xzr, xzr, [x19, 80]
.L1498:
	cmp	x20, 0
	cset	w0, ne
	strb	w0, [x19, 72]
	mov	x0, x22
	bl	pthread_mutex_unlock
	cbnz	x20, .L1715
.L1502:
	ldr	x21, [x21, #:got_lo12:_ZN4asio6detail10call_stackINS0_14strand_service11strand_implEhE4top_E]
	ldr	x1, [sp, 192]
	ldr	w0, [x21]
	bl	pthread_setspecific
	ldr	x19, [sp, 160]
	cbz	x19, .L1695
	ldr	x24, [x24, #:got_lo12:_ZN4asio6detail10call_stackINS0_15task_io_serviceENS0_27task_io_service_thread_infoEE4top_E]
	ldr	w0, [x24]
	bl	pthread_getspecific
	cbz	x0, .L1514
	ldr	x0, [x0, 8]
	cbz	x0, .L1514
	ldr	x1, [x0]
	cbz	x1, .L1716
.L1514:
	mov	x0, x19
	bl	_ZdlPv
	ldp	x23, x24, [sp, 48]
	.cfi_restore 24
	.cfi_restore 23
	ldr	x27, [sp, 80]
	.cfi_restore 27
	b	.L1412
	.p2align 2,,3
.L1700:
	ldr	x1, [x20]
	mov	x0, x20
	ldr	x1, [x1, 16]
	blr	x1
	ldr	x19, [x19, #:got_lo12:__libc_single_threaded]
	ldrb	w0, [x19]
	cbz	w0, .L1522
	ldr	w0, [x20, 12]
	sub	w1, w0, #1
	str	w1, [x20, 12]
.L1523:
	cmp	w0, 1
	bne	.L1516
	ldr	x1, [x20]
	mov	x0, x20
	ldr	x1, [x1, 24]
	blr	x1
	b	.L1516
	.p2align 2,,3
.L1701:
	ldr	x1, [x20]
	mov	x0, x20
	ldr	x1, [x1, 16]
	blr	x1
	ldr	x19, [x19, #:got_lo12:__libc_single_threaded]
	ldrb	w0, [x19]
	cbz	w0, .L1530
	ldr	w0, [x20, 12]
	sub	w1, w0, #1
	str	w1, [x20, 12]
.L1531:
	cmp	w0, 1
	bne	.L1526
	ldr	x1, [x20]
	mov	x0, x20
	ldr	x1, [x1, 24]
	blr	x1
	b	.L1526
	.p2align 2,,3
.L1703:
	ldr	x1, [x20]
	mov	x0, x20
	ldr	x1, [x1, 16]
	blr	x1
	ldr	x19, [x19, #:got_lo12:__libc_single_threaded]
	ldrb	w0, [x19]
	cbz	w0, .L1545
	ldr	w0, [x20, 12]
	sub	w1, w0, #1
	str	w1, [x20, 12]
.L1546:
	cmp	w0, 1
	bne	.L1541
	ldr	x1, [x20]
	mov	x0, x20
	ldr	x1, [x1, 24]
	blr	x1
	b	.L1541
	.p2align 2,,3
.L1702:
	ldr	x1, [x20]
	mov	x0, x20
	ldr	x1, [x1, 16]
	blr	x1
	ldr	x19, [x19, #:got_lo12:__libc_single_threaded]
	ldrb	w0, [x19]
	cbz	w0, .L1537
	ldr	w0, [x20, 12]
	sub	w1, w0, #1
	str	w1, [x20, 12]
.L1538:
	cmp	w0, 1
	bne	.L1533
	ldr	x1, [x20]
	mov	x0, x20
	ldr	x1, [x1, 24]
	blr	x1
	b	.L1533
	.p2align 2,,3
.L1705:
	ldr	x1, [x20]
	mov	x0, x20
	ldr	x1, [x1, 16]
	blr	x1
	ldr	x19, [x19, #:got_lo12:__libc_single_threaded]
	ldrb	w0, [x19]
	cbz	w0, .L1560
	ldr	w0, [x20, 12]
	sub	w1, w0, #1
	str	w1, [x20, 12]
.L1561:
	cmp	w0, 1
	bne	.L1383
	ldr	x1, [x20]
	mov	x0, x20
	ldr	x1, [x1, 24]
	blr	x1
	b	.L1383
	.p2align 2,,3
.L1704:
	ldr	x1, [x20]
	mov	x0, x20
	ldr	x1, [x1, 16]
	blr	x1
	ldr	x19, [x19, #:got_lo12:__libc_single_threaded]
	ldrb	w0, [x19]
	cbz	w0, .L1552
	ldr	w0, [x20, 12]
	sub	w1, w0, #1
	str	w1, [x20, 12]
.L1553:
	cmp	w0, 1
	bne	.L1548
	ldr	x1, [x20]
	mov	x0, x20
	ldr	x1, [x1, 24]
	blr	x1
	b	.L1548
	.p2align 2,,3
.L1549:
	add	x1, x20, 8
	mov	w0, -1
	bl	__aarch64_ldadd4_acq_rel
	b	.L1550
	.p2align 2,,3
.L1542:
	add	x1, x20, 8
	mov	w0, -1
	bl	__aarch64_ldadd4_acq_rel
	b	.L1543
	.p2align 2,,3
.L1519:
	add	x1, x20, 8
	mov	w0, -1
	bl	__aarch64_ldadd4_acq_rel
	b	.L1520
	.p2align 2,,3
.L1527:
	add	x1, x20, 8
	mov	w0, -1
	bl	__aarch64_ldadd4_acq_rel
	b	.L1528
	.p2align 2,,3
.L1557:
	add	x1, x20, 8
	mov	w0, -1
	bl	__aarch64_ldadd4_acq_rel
	b	.L1558
	.p2align 2,,3
.L1534:
	add	x1, x20, 8
	mov	w0, -1
	bl	__aarch64_ldadd4_acq_rel
	b	.L1535
.L1430:
	.cfi_offset 23, -496
	.cfi_offset 24, -488
	.cfi_offset 27, -464
	ldr	q0, [sp, 96]
	str	q0, [x1, 80]
	b	.L1697
	.p2align 2,,3
.L1418:
	ldr	x0, [x20, 8]
	add	x0, x0, 24
	bl	pthread_mutex_lock
.L1425:
	ldr	x1, [x20, 8]
	add	x0, x1, 24
	ldrb	w2, [x1, 72]
	cbnz	w2, .L1426
	mov	w2, 1
	strb	w2, [x1, 72]
	bl	pthread_mutex_unlock
	ldr	x20, [x20, 8]
	dup	v0.2d, x20
	ldr	x1, [x20, 104]
	str	xzr, [x19]
	str	q0, [sp, 112]
	cbz	x1, .L1433
	str	x19, [x1]
	str	x19, [x20, 104]
.L1434:
	ldr	x19, [x22, 40]
	ldrb	w0, [x19, 40]
	cbnz	w0, .L1717
.L1435:
	add	x1, x19, 192
	add	x21, x19, 48
	mov	x0, 1
	bl	__aarch64_ldadd8_acq_rel
	mov	x0, x21
	bl	pthread_mutex_lock
	ldr	x1, [x19, 208]
	str	xzr, [x20]
	cbz	x1, .L1440
	str	x20, [x1]
	str	x20, [x19, 208]
.L1441:
	ldr	x0, [x19, 144]
	add	x20, x19, 96
	orr	x0, x0, 1
	str	x0, [x19, 144]
	cmp	x0, 1
	beq	.L1442
	mov	x0, x21
	bl	pthread_mutex_unlock
	mov	x0, x20
	bl	pthread_cond_signal
	ldp	x23, x24, [sp, 48]
	.cfi_remember_state
	.cfi_restore 24
	.cfi_restore 23
	ldr	x27, [sp, 80]
	.cfi_restore 27
	b	.L1412
.L1442:
	.cfi_restore_state
	ldrb	w1, [x19, 184]
	cbnz	w1, .L1444
	ldr	x4, [x19, 152]
	cbz	x4, .L1444
	mov	w1, 9
	strb	w0, [x19, 184]
	ldr	w2, [x4, 96]
	add	x0, x4, 96
	movk	w1, 0x8000, lsl 16
	str	w1, [sp, 200]
	str	x0, [sp, 208]
	add	x3, sp, 200
	mov	w1, 3
	ldr	w0, [x4, 104]
	bl	epoll_ctl
.L1444:
	mov	x0, x21
	b	.L1697
.L1522:
	.cfi_restore 23
	.cfi_restore 24
	.cfi_restore 27
	add	x1, x20, 12
	mov	w0, -1
	bl	__aarch64_ldadd4_acq_rel
	b	.L1523
.L1545:
	add	x1, x20, 12
	mov	w0, -1
	bl	__aarch64_ldadd4_acq_rel
	b	.L1546
.L1552:
	add	x1, x20, 12
	mov	w0, -1
	bl	__aarch64_ldadd4_acq_rel
	b	.L1553
.L1530:
	add	x1, x20, 12
	mov	w0, -1
	bl	__aarch64_ldadd4_acq_rel
	b	.L1531
.L1560:
	add	x1, x20, 12
	mov	w0, -1
	bl	__aarch64_ldadd4_acq_rel
	b	.L1561
.L1537:
	add	x1, x20, 12
	mov	w0, -1
	bl	__aarch64_ldadd4_acq_rel
	b	.L1538
.L1451:
	.cfi_offset 23, -496
	.cfi_offset 24, -488
	.cfi_offset 27, -464
	str	xzr, [sp, 216]
.L1562:
	ldr	x0, [x24, #:got_lo12:_ZN4asio6detail10call_stackINS0_15task_io_serviceENS0_27task_io_service_thread_infoEE4top_E]
	ldr	w0, [x0]
	bl	pthread_getspecific
	cbz	x0, .L1459
	ldr	x0, [x0, 8]
	cbz	x0, .L1459
	ldr	x1, [x0]
	cbz	x1, .L1718
.L1459:
	mov	x0, x19
	bl	_ZdlPv
	str	xzr, [sp, 208]
	b	.L1458
.L1715:
	ldr	x20, [sp, 136]
	ldrb	w0, [x20, 40]
	cbnz	w0, .L1719
.L1503:
	add	x1, x20, 192
	add	x22, x20, 48
	mov	x0, 1
	bl	__aarch64_ldadd8_acq_rel
	mov	x0, x22
	bl	pthread_mutex_lock
	ldr	x1, [x20, 208]
	str	xzr, [x19]
	cbz	x1, .L1508
	str	x19, [x1]
	str	x19, [x20, 208]
.L1509:
	ldr	x0, [x20, 144]
	add	x19, x20, 96
	orr	x0, x0, 1
	str	x0, [x20, 144]
	cmp	x0, 1
	beq	.L1510
	mov	x0, x22
	bl	pthread_mutex_unlock
	mov	x0, x19
	bl	pthread_cond_signal
	b	.L1502
.L1714:
	ldr	x20, [x19, 96]
	b	.L1498
.L1709:
	ldr	q0, [x19, 72]
	add	x20, sp, 368
	ldp	x0, x1, [x26, 64]
	str	x20, [sp, 200]
	str	q0, [sp, 416]
	stp	x0, x1, [sp, 432]
	b	.L1446
.L1452:
	add	x1, x23, 8
	mov	w0, -1
	bl	__aarch64_ldadd4_acq_rel
	b	.L1453
.L1490:
	add	x1, x20, 8
	mov	w0, -1
	bl	__aarch64_ldadd4_acq_rel
	b	.L1491
.L1482:
	add	x1, x22, 8
	mov	w0, -1
	bl	__aarch64_ldadd4_acq_rel
	b	.L1483
.L1508:
	ldr	q0, [sp, 96]
	str	q0, [x20, 200]
	b	.L1509
.L1500:
	str	x20, [x19, 96]
	b	.L1501
.L1510:
	ldrb	w1, [x20, 184]
	cbnz	w1, .L1512
	ldr	x4, [x20, 152]
	cbz	x4, .L1512
	mov	w1, 9
	strb	w0, [x20, 184]
	ldr	w2, [x4, 96]
	add	x0, x4, 96
	movk	w1, 0x8000, lsl 16
	str	w1, [sp, 200]
	str	x0, [sp, 208]
	add	x3, sp, 200
	mov	w1, 3
	ldr	w0, [x4, 104]
	bl	epoll_ctl
.L1512:
	mov	x0, x22
	bl	pthread_mutex_unlock
	b	.L1502
.L1717:
	ldr	x24, [x24, #:got_lo12:_ZN4asio6detail10call_stackINS0_15task_io_serviceENS0_27task_io_service_thread_infoEE4top_E]
	ldr	w0, [x24]
	bl	pthread_getspecific
	cbnz	x0, .L1438
	b	.L1435
	.p2align 2,,3
.L1436:
	ldr	x0, [x0, 16]
	cbz	x0, .L1435
.L1438:
	ldr	x1, [x0]
	cmp	x19, x1
	bne	.L1436
	ldr	x0, [x0, 8]
	cbz	x0, .L1435
	ldp	x3, x1, [x0, 16]
	add	x1, x1, 1
	str	x1, [x0, 24]
	str	xzr, [x20]
	ldr	x1, [x0, 16]
	cbz	x3, .L1439
	ldp	x23, x24, [sp, 48]
	.cfi_remember_state
	.cfi_restore 24
	.cfi_restore 23
	ldr	x27, [sp, 80]
	.cfi_restore 27
	str	x20, [x1]
	str	x20, [x0, 16]
	b	.L1412
.L1711:
	.cfi_restore_state
	ldr	x1, [x20]
	mov	x0, x20
	ldr	x1, [x1, 16]
	blr	x1
	ldr	x19, [x19, #:got_lo12:__libc_single_threaded]
	ldrb	w0, [x19]
	cbz	w0, .L1469
	ldr	w0, [x20, 12]
	sub	w1, w0, #1
	str	w1, [x20, 12]
.L1470:
	cmp	w0, 1
	bne	.L1465
	ldr	x1, [x20]
	mov	x0, x20
	ldr	x1, [x1, 24]
	blr	x1
	b	.L1465
.L1712:
	ldr	x1, [x20]
	mov	x0, x20
	ldr	x1, [x1, 16]
	blr	x1
	ldr	x19, [x19, #:got_lo12:__libc_single_threaded]
	ldrb	w0, [x19]
	cbz	w0, .L1477
	ldr	w0, [x20, 12]
	sub	w1, w0, #1
	str	w1, [x20, 12]
.L1478:
	cmp	w0, 1
	bne	.L1473
	ldr	x1, [x20]
	mov	x0, x20
	ldr	x1, [x1, 24]
	blr	x1
	b	.L1473
.L1695:
	ldp	x23, x24, [sp, 48]
	.cfi_remember_state
	.cfi_restore 24
	.cfi_restore 23
	ldr	x27, [sp, 80]
	.cfi_restore 27
	b	.L1412
.L1474:
	.cfi_restore_state
	add	x1, x20, 8
	mov	w0, -1
	bl	__aarch64_ldadd4_acq_rel
	b	.L1475
.L1466:
	add	x1, x20, 8
	mov	w0, -1
	bl	__aarch64_ldadd4_acq_rel
	b	.L1467
.L1433:
	ldr	q0, [sp, 96]
	str	q0, [x20, 96]
	b	.L1434
.L1440:
	ldr	q0, [sp, 112]
	str	q0, [x19, 200]
	b	.L1441
.L1716:
	ldrb	w1, [x19, 104]
	strb	w1, [x19]
	ldp	x23, x24, [sp, 48]
	.cfi_remember_state
	.cfi_restore 24
	.cfi_restore 23
	ldr	x27, [sp, 80]
	.cfi_restore 27
	str	x19, [x0]
	b	.L1412
.L1719:
	.cfi_restore_state
	ldr	x0, [x24, #:got_lo12:_ZN4asio6detail10call_stackINS0_15task_io_serviceENS0_27task_io_service_thread_infoEE4top_E]
	ldr	w0, [x0]
	bl	pthread_getspecific
	cbnz	x0, .L1506
	b	.L1503
	.p2align 2,,3
.L1504:
	ldr	x0, [x0, 16]
	cbz	x0, .L1503
.L1506:
	ldr	x1, [x0]
	cmp	x20, x1
	bne	.L1504
	ldr	x0, [x0, 8]
	cbz	x0, .L1503
	ldp	x3, x1, [x0, 16]
	add	x1, x1, 1
	str	x1, [x0, 24]
	str	xzr, [x19]
	ldr	x1, [x0, 16]
	cbz	x3, .L1507
	str	x19, [x1]
	str	x19, [x0, 16]
	b	.L1502
.L1454:
	ldr	x1, [x23]
	mov	x0, x23
	ldr	x1, [x1, 16]
	blr	x1
	ldr	x19, [x19, #:got_lo12:__libc_single_threaded]
	ldrb	w0, [x19]
	cbz	w0, .L1456
	ldr	w0, [x23, 12]
	sub	w1, w0, #1
	str	w1, [x23, 12]
.L1457:
	ldr	x19, [sp, 208]
	cmp	w0, 1
	bne	.L1455
	ldr	x1, [x23]
	mov	x0, x23
	ldr	x1, [x1, 24]
	blr	x1
	b	.L1455
.L1718:
	ldrb	w1, [x19, 104]
	strb	w1, [x19]
	str	x19, [x0]
	str	xzr, [sp, 208]
	b	.L1458
.L1713:
	ldrb	w1, [x19, 104]
	strb	w1, [x19]
	str	x19, [x0]
	b	.L1495
.L1477:
	add	x1, x20, 12
	mov	w0, -1
	bl	__aarch64_ldadd4_acq_rel
	b	.L1478
.L1469:
	add	x1, x20, 12
	mov	w0, -1
	bl	__aarch64_ldadd4_acq_rel
	b	.L1470
.L1493:
	add	x1, x20, 12
	mov	w0, -1
	bl	__aarch64_ldadd4_acq_rel
	b	.L1494
.L1485:
	add	x1, x22, 12
	mov	w0, -1
	bl	__aarch64_ldadd4_acq_rel
	b	.L1486
.L1456:
	add	x1, x23, 12
	mov	w0, -1
	bl	__aarch64_ldadd4_acq_rel
	b	.L1457
.L1439:
	ldr	q0, [sp, 112]
	ldp	x23, x24, [sp, 48]
	.cfi_remember_state
	.cfi_restore 24
	.cfi_restore 23
	ldr	x27, [sp, 80]
	.cfi_restore 27
	str	q0, [x0, 8]
	b	.L1412
.L1507:
	.cfi_restore_state
	ldr	q0, [sp, 96]
	str	q0, [x0, 8]
	b	.L1502
.L1706:
	.cfi_restore 23
	.cfi_restore 24
	.cfi_restore 27
	stp	x23, x24, [sp, 48]
	.cfi_remember_state
	.cfi_offset 24, -488
	.cfi_offset 23, -496
	str	x27, [sp, 80]
	.cfi_offset 27, -464
	bl	__stack_chk_fail
.L1707:
	.cfi_restore_state
.LEHB57:
	bl	_ZSt25__throw_bad_function_callv
.LEHE57:
.L1710:
	.cfi_offset 23, -496
	.cfi_offset 24, -488
	.cfi_offset 27, -464
.LEHB58:
	bl	_ZSt25__throw_bad_function_callv
.LEHE58:
.L1571:
	ldr	x3, [sp, 400]
	mov	x19, x0
	cbz	x3, .L1448
	mov	x1, x20
	mov	x0, x20
	mov	w2, 3
	blr	x3
.L1448:
	ldr	x0, [sp, 376]
	cbz	x0, .L1450
	bl	_ZNSt16_Sp_counted_baseILN9__gnu_cxx12_Lock_policyE2EE10_M_releaseEv
	b	.L1450
.L1570:
	stlr	wzr, [x19]
	mov	x19, x0
	mov	x0, x20
	bl	_ZZN7asiopal8Executor5StartERKNSt6chrono10time_pointINS1_3_V212steady_clockENS1_8durationIlSt5ratioILl1ELl1000000000EEEEEERKSt8functionIFvvEEENUlRKSt10error_codeE_D1Ev
.L1450:
	add	x0, sp, 200
	bl	_ZN4asio6detail18completion_handlerINS0_7binder1IZN7asiopal8Executor5StartERKNSt6chrono10time_pointINS5_3_V212steady_clockENS5_8durationIlSt5ratioILl1ELl1000000000EEEEEERKSt8functionIFvvEEEUlRKSt10error_codeE_SL_EEE3ptr5resetEv
	add	x0, sp, 136
	bl	_ZN4asio6detail14strand_service16on_dispatch_exitD1Ev
	ldr	x21, [x21, #:got_lo12:_ZN4asio6detail10call_stackINS0_14strand_service11strand_implEhE4top_E]
	ldr	x1, [sp, 192]
	ldr	w0, [x21]
	bl	pthread_setspecific
.L1422:
	add	x0, sp, 152
	bl	_ZN4asio6detail18completion_handlerINS0_7binder1IZN7asiopal8Executor5StartERKNSt6chrono10time_pointINS5_3_V212steady_clockENS5_8durationIlSt5ratioILl1ELl1000000000EEEEEERKSt8functionIFvvEEEUlRKSt10error_codeE_SL_EEE3ptr5resetEv
	ldp	x23, x24, [sp, 48]
	.cfi_restore 24
	.cfi_restore 23
	ldr	x27, [sp, 80]
	.cfi_restore 27
.L1518:
	mov	x0, x25
	bl	_ZZN7asiopal8Executor5StartERKNSt6chrono10time_pointINS1_3_V212steady_clockENS1_8durationIlSt5ratioILl1ELl1000000000EEEEEERKSt8functionIFvvEEENUlRKSt10error_codeE_D1Ev
.L1407:
	add	x0, sp, 288
	bl	_ZZN7asiopal8Executor5StartERKNSt6chrono10time_pointINS1_3_V212steady_clockENS1_8durationIlSt5ratioILl1ELl1000000000EEEEEERKSt8functionIFvvEEENUlRKSt10error_codeE_D1Ev
.L1401:
	add	x0, sp, 224
	stp	x23, x24, [sp, 48]
	.cfi_offset 24, -488
	.cfi_offset 23, -496
	str	x27, [sp, 80]
	.cfi_offset 27, -464
	bl	_ZZN7asiopal8Executor5StartERKNSt6chrono10time_pointINS1_3_V212steady_clockENS1_8durationIlSt5ratioILl1ELl1000000000EEEEEERKSt8functionIFvvEEENUlRKSt10error_codeE_D1Ev
.L1698:
	mov	x0, x19
.LEHB59:
	bl	_Unwind_Resume
.LEHE59:
.L1565:
	.cfi_restore 23
	.cfi_restore 24
	.cfi_restore 27
	ldr	x3, [sp, 320]
	mov	x20, x0
	cbz	x3, .L1399
	mov	x1, x19
	mov	x0, x19
	mov	w2, 3
	blr	x3
.L1399:
	ldr	x0, [sp, 296]
	cbz	x0, .L1400
	bl	_ZNSt16_Sp_counted_baseILN9__gnu_cxx12_Lock_policyE2EE10_M_releaseEv
.L1400:
	mov	x19, x20
	b	.L1401
.L1564:
	ldr	x3, [sp, 256]
	stp	x23, x24, [sp, 48]
	.cfi_offset 24, -488
	.cfi_offset 23, -496
	mov	x19, x0
	str	x27, [sp, 80]
	.cfi_offset 27, -464
	cbz	x3, .L1390
	mov	x1, x22
	mov	x0, x22
	mov	w2, 3
	blr	x3
.L1390:
	ldr	x0, [sp, 232]
	cbz	x0, .L1698
	bl	_ZNSt16_Sp_counted_baseILN9__gnu_cxx12_Lock_policyE2EE10_M_releaseEv
	b	.L1698
.L1567:
	.cfi_restore 23
	.cfi_restore 24
	.cfi_restore 27
	ldr	x3, [sp, 480]
	mov	x20, x0
	cbz	x3, .L1405
	mov	x1, x19
	mov	x0, x19
	mov	w2, 3
	blr	x3
.L1405:
	ldr	x0, [sp, 456]
	cbz	x0, .L1406
	bl	_ZNSt16_Sp_counted_baseILN9__gnu_cxx12_Lock_policyE2EE10_M_releaseEv
.L1406:
	mov	x19, x20
	b	.L1407
.L1569:
	.cfi_offset 23, -496
	.cfi_offset 24, -488
	.cfi_offset 27, -464
	ldr	x3, [x23, 16]
	mov	x20, x0
	cbz	x3, .L1420
	mov	x1, x23
	mov	x0, x23
	mov	w2, 3
	blr	x3
.L1420:
	ldr	x0, [x19, 32]
	cbz	x0, .L1421
	bl	_ZNSt16_Sp_counted_baseILN9__gnu_cxx12_Lock_policyE2EE10_M_releaseEv
.L1421:
	mov	x19, x20
	b	.L1422
.L1566:
	mov	x19, x0
	ldp	x23, x24, [sp, 48]
	.cfi_restore 24
	.cfi_restore 23
	ldr	x27, [sp, 80]
	.cfi_restore 27
	b	.L1518
.L1568:
	stlr	wzr, [x19]
	mov	x19, x0
	add	x25, sp, 448
	b	.L1518
	.cfi_endproc
.LFE9399:
	.section	.gcc_except_table
.LLSDA9399:
	.byte	0xff
	.byte	0xff
	.byte	0x1
	.uleb128 .LLSDACSE9399-.LLSDACSB9399
.LLSDACSB9399:
	.uleb128 .LEHB49-.LFB9399
	.uleb128 .LEHE49-.LEHB49
	.uleb128 .L1564-.LFB9399
	.uleb128 0
	.uleb128 .LEHB50-.LFB9399
	.uleb128 .LEHE50-.LEHB50
	.uleb128 .L1565-.LFB9399
	.uleb128 0
	.uleb128 .LEHB51-.LFB9399
	.uleb128 .LEHE51-.LEHB51
	.uleb128 .L1567-.LFB9399
	.uleb128 0
	.uleb128 .LEHB52-.LFB9399
	.uleb128 .LEHE52-.LEHB52
	.uleb128 .L1568-.LFB9399
	.uleb128 0
	.uleb128 .LEHB53-.LFB9399
	.uleb128 .LEHE53-.LEHB53
	.uleb128 .L1566-.LFB9399
	.uleb128 0
	.uleb128 .LEHB54-.LFB9399
	.uleb128 .LEHE54-.LEHB54
	.uleb128 .L1569-.LFB9399
	.uleb128 0
	.uleb128 .LEHB55-.LFB9399
	.uleb128 .LEHE55-.LEHB55
	.uleb128 .L1571-.LFB9399
	.uleb128 0
	.uleb128 .LEHB56-.LFB9399
	.uleb128 .LEHE56-.LEHB56
	.uleb128 .L1570-.LFB9399
	.uleb128 0
	.uleb128 .LEHB57-.LFB9399
	.uleb128 .LEHE57-.LEHB57
	.uleb128 .L1568-.LFB9399
	.uleb128 0
	.uleb128 .LEHB58-.LFB9399
	.uleb128 .LEHE58-.LEHB58
	.uleb128 .L1570-.LFB9399
	.uleb128 0
	.uleb128 .LEHB59-.LFB9399
	.uleb128 .LEHE59-.LEHB59
	.uleb128 0
	.uleb128 0
.LLSDACSE9399:
	.text
	.size	_ZN4asio6detail15wrapped_handlerINS_10io_service6strandEZN7asiopal8Executor5StartERKNSt6chrono10time_pointINS6_3_V212steady_clockENS6_8durationIlSt5ratioILl1ELl1000000000EEEEEERKSt8functionIFvvEEEUlRKSt10error_codeE_NS0_26is_continuation_if_runningEEclISM_EEvRKT_, .-_ZN4asio6detail15wrapped_handlerINS_10io_service6strandEZN7asiopal8Executor5StartERKNSt6chrono10time_pointINS6_3_V212steady_clockENS6_8durationIlSt5ratioILl1ELl1000000000EEEEEERKSt8functionIFvvEEEUlRKSt10error_codeE_NS0_26is_continuation_if_runningEEclISM_EEvRKT_
	.align	2
	.p2align 4,,11
	.type	_ZN4asio6detail18completion_handlerINS0_17rewrapped_handlerINS0_7binder1INS0_15wrapped_handlerINS_10io_service6strandEZN7asiopal8Executor5StartERKNSt6chrono10time_pointINS9_3_V212steady_clockENS9_8durationIlSt5ratioILl1ELl1000000000EEEEEERKSt8functionIFvvEEEUlRKSt10error_codeE_NS0_26is_continuation_if_runningEEESP_EESS_EEE11do_completeEPNS0_15task_io_serviceEPNS0_25task_io_service_operationESR_m, %function
_ZN4asio6detail18completion_handlerINS0_17rewrapped_handlerINS0_7binder1INS0_15wrapped_handlerINS_10io_service6strandEZN7asiopal8Executor5StartERKNSt6chrono10time_pointINS9_3_V212steady_clockENS9_8durationIlSt5ratioILl1ELl1000000000EEEEEERKSt8functionIFvvEEEUlRKSt10error_codeE_NS0_26is_continuation_if_runningEEESP_EESS_EEE11do_completeEPNS0_15task_io_serviceEPNS0_25task_io_service_operationESR_m:
.LFB9351:
	.cfi_startproc
	.cfi_personality 0x9b,DW.ref.__gxx_personality_v0
	.cfi_lsda 0x1b,.LLSDA9351
	stp	x29, x30, [sp, -272]!
	.cfi_def_cfa_offset 272
	.cfi_offset 29, -272
	.cfi_offset 30, -264
	adrp	x2, :got:__stack_chk_guard
	mov	x29, sp
	ldr	x2, [x2, #:got_lo12:__stack_chk_guard]
	stp	x19, x20, [sp, 16]
	.cfi_offset 19, -256
	.cfi_offset 20, -248
	mov	x19, x1
	stp	x21, x22, [sp, 32]
	.cfi_offset 21, -240
	.cfi_offset 22, -232
	add	x22, x1, 40
	mov	x21, x0
	stp	x23, x24, [sp, 48]
	.cfi_offset 23, -224
	.cfi_offset 24, -216
	ldr	q0, [x1, 24]
	ldr	x1, [x2]
	str	x1, [sp, 264]
	mov	x1, 0
	stp	xzr, xzr, [x19, 24]
	add	x1, x19, 24
	ldr	x3, [x22, 16]
	stp	x1, x19, [sp, 72]
	str	x19, [sp, 88]
	stp	xzr, xzr, [sp, 112]
	stp	xzr, xzr, [sp, 128]
	str	q0, [sp, 96]
	cbz	x3, .L1721
	add	x20, sp, 112
	mov	x1, x22
	mov	x0, x20
	mov	w2, 2
.LEHB60:
	blr	x3
.LEHE60:
	ldr	q0, [x19, 56]
	str	q0, [sp, 128]
.L1721:
	add	x20, x19, 120
	movi	v0.4s, 0
	stp	xzr, xzr, [sp, 192]
	add	x24, x19, 88
	ldr	q2, [x19, 72]
	stp	xzr, xzr, [sp, 208]
	ldr	q1, [x19, 104]
	str	q0, [x19, 72]
	str	q0, [x19, 104]
	ldr	x3, [x20, 16]
	str	q2, [sp, 144]
	ldp	x0, x1, [x19, 88]
	stp	x0, x1, [sp, 160]
	str	q1, [sp, 176]
	cbz	x3, .L1885
	add	x23, sp, 192
	mov	x1, x20
	mov	x0, x23
	mov	w2, 2
.LEHB61:
	blr	x3
.LEHE61:
	ldp	x3, x2, [x20, 16]
	add	x23, sp, 96
	ldr	q0, [x19, 152]
	str	x23, [sp, 72]
	ldp	x0, x1, [x24, 80]
	stp	x3, x2, [sp, 208]
	stp	x0, x1, [sp, 240]
	str	q0, [sp, 224]
	cbz	x3, .L1729
	mov	x1, x20
	mov	x0, x20
	mov	w2, 3
	blr	x3
.L1729:
	ldr	x24, [x19, 112]
	cbz	x24, .L1734
	adrp	x20, :got:__libc_single_threaded
	ldr	x0, [x20, #:got_lo12:__libc_single_threaded]
	ldrb	w0, [x0]
	cbz	w0, .L1735
	ldr	w0, [x24, 8]
	sub	w1, w0, #1
	str	w1, [x24, 8]
.L1736:
	cmp	w0, 1
	bne	.L1734
	ldr	x1, [x24]
	mov	x0, x24
	ldr	x1, [x1, 16]
	blr	x1
	ldr	x20, [x20, #:got_lo12:__libc_single_threaded]
	ldrb	w0, [x20]
	cbz	w0, .L1738
	ldr	w0, [x24, 12]
	sub	w1, w0, #1
	str	w1, [x24, 12]
.L1739:
	cmp	w0, 1
	beq	.L1886
	.p2align 3,,7
.L1734:
	ldr	x24, [x19, 80]
	cbz	x24, .L1741
	adrp	x20, :got:__libc_single_threaded
	ldr	x0, [x20, #:got_lo12:__libc_single_threaded]
	ldrb	w0, [x0]
	cbz	w0, .L1742
	ldr	w0, [x24, 8]
	sub	w1, w0, #1
	str	w1, [x24, 8]
.L1743:
	cmp	w0, 1
	bne	.L1741
	ldr	x1, [x24]
	mov	x0, x24
	ldr	x1, [x1, 16]
	blr	x1
	ldr	x20, [x20, #:got_lo12:__libc_single_threaded]
	ldrb	w0, [x20]
	cbz	w0, .L1745
	ldr	w0, [x24, 12]
	sub	w1, w0, #1
	str	w1, [x24, 12]
.L1746:
	cmp	w0, 1
	beq	.L1887
	.p2align 3,,7
.L1741:
	ldr	x3, [x22, 16]
	cbz	x3, .L1747
	mov	x1, x22
	mov	x0, x22
	mov	w2, 3
	blr	x3
.L1747:
	ldr	x19, [x19, 32]
	cbz	x19, .L1749
	adrp	x20, :got:__libc_single_threaded
	ldr	x0, [x20, #:got_lo12:__libc_single_threaded]
	ldrb	w0, [x0]
	cbz	w0, .L1750
	ldr	w0, [x19, 8]
	sub	w1, w0, #1
	str	w1, [x19, 8]
.L1751:
	cmp	w0, 1
	bne	.L1749
	ldr	x1, [x19]
	mov	x0, x19
	ldr	x1, [x1, 16]
	blr	x1
	ldr	x20, [x20, #:got_lo12:__libc_single_threaded]
	ldrb	w0, [x20]
	cbz	w0, .L1753
	ldr	w0, [x19, 12]
	sub	w1, w0, #1
	str	w1, [x19, 12]
.L1754:
	cmp	w0, 1
	beq	.L1888
	.p2align 3,,7
.L1749:
	ldr	x19, [sp, 80]
	str	xzr, [sp, 88]
	cbz	x19, .L1755
	adrp	x0, :got:_ZN4asio6detail10call_stackINS0_15task_io_serviceENS0_27task_io_service_thread_infoEE4top_E
	ldr	x0, [x0, #:got_lo12:_ZN4asio6detail10call_stackINS0_15task_io_serviceENS0_27task_io_service_thread_infoEE4top_E]
	ldr	w0, [x0]
	bl	pthread_getspecific
	cbz	x0, .L1756
	ldr	x0, [x0, 8]
	cbz	x0, .L1756
	ldr	x1, [x0]
	cbz	x1, .L1889
.L1756:
	mov	x0, x19
	bl	_ZdlPv
	str	xzr, [sp, 80]
.L1755:
	cbz	x21, .L1758
	add	x19, sp, 64
	mov	w0, 1
	mov	x1, x19
	str	wzr, [sp, 64]
	bl	__aarch64_swp4_sync
	add	x1, sp, 240
	add	x0, sp, 160
.LEHB62:
	bl	_ZN4asio6detail15wrapped_handlerINS_10io_service6strandEZN7asiopal8Executor5StartERKNSt6chrono10time_pointINS6_3_V212steady_clockENS6_8durationIlSt5ratioILl1ELl1000000000EEEEEERKSt8functionIFvvEEEUlRKSt10error_codeE_NS0_26is_continuation_if_runningEEclISM_EEvRKT_
.LEHE62:
	stlr	wzr, [x19]
.L1758:
	ldr	x19, [sp, 232]
	cbz	x19, .L1760
	adrp	x20, :got:__libc_single_threaded
	ldr	x0, [x20, #:got_lo12:__libc_single_threaded]
	ldrb	w0, [x0]
	cbz	w0, .L1761
	ldr	w0, [x19, 8]
	sub	w1, w0, #1
	str	w1, [x19, 8]
.L1762:
	cmp	w0, 1
	beq	.L1890
.L1760:
	ldr	x3, [sp, 208]
	cbz	x3, .L1766
	add	x1, sp, 192
	mov	w2, 3
	mov	x0, x1
	blr	x3
.L1766:
	ldr	x19, [sp, 184]
	cbz	x19, .L1768
	adrp	x20, :got:__libc_single_threaded
	ldr	x0, [x20, #:got_lo12:__libc_single_threaded]
	ldrb	w0, [x0]
	cbz	w0, .L1769
	ldr	w0, [x19, 8]
	sub	w1, w0, #1
	str	w1, [x19, 8]
.L1770:
	cmp	w0, 1
	beq	.L1891
.L1768:
	ldr	x19, [sp, 152]
	cbz	x19, .L1775
	adrp	x20, :got:__libc_single_threaded
	ldr	x0, [x20, #:got_lo12:__libc_single_threaded]
	ldrb	w0, [x0]
	cbz	w0, .L1776
	ldr	w0, [x19, 8]
	sub	w1, w0, #1
	str	w1, [x19, 8]
.L1777:
	cmp	w0, 1
	beq	.L1892
.L1775:
	ldr	x3, [sp, 128]
	cbz	x3, .L1781
	add	x1, sp, 112
	mov	w2, 3
	mov	x0, x1
	blr	x3
.L1781:
	ldr	x19, [sp, 104]
	cbz	x19, .L1783
	adrp	x20, :got:__libc_single_threaded
	ldr	x0, [x20, #:got_lo12:__libc_single_threaded]
	ldrb	w0, [x0]
	cbz	w0, .L1784
	ldr	w0, [x19, 8]
	sub	w1, w0, #1
	str	w1, [x19, 8]
.L1785:
	cmp	w0, 1
	beq	.L1893
.L1783:
	ldr	x19, [sp, 88]
	cbz	x19, .L1789
	ldr	x21, [x19, 160]
	cbz	x21, .L1791
	adrp	x20, :got:__libc_single_threaded
	ldr	x0, [x20, #:got_lo12:__libc_single_threaded]
	ldrb	w0, [x0]
	cbz	w0, .L1792
	ldr	w0, [x21, 8]
	sub	w1, w0, #1
	str	w1, [x21, 8]
.L1793:
	cmp	w0, 1
	bne	.L1791
	ldr	x1, [x21]
	mov	x0, x21
	ldr	x1, [x1, 16]
	blr	x1
	ldr	x20, [x20, #:got_lo12:__libc_single_threaded]
	ldrb	w0, [x20]
	cbz	w0, .L1795
	ldr	w0, [x21, 12]
	sub	w1, w0, #1
	str	w1, [x21, 12]
.L1796:
	cmp	w0, 1
	beq	.L1894
	.p2align 3,,7
.L1791:
	ldr	x3, [x19, 136]
	add	x1, x19, 120
	cbz	x3, .L1797
	mov	x0, x1
	mov	w2, 3
	blr	x3
.L1797:
	ldr	x21, [x19, 112]
	cbz	x21, .L1799
	adrp	x20, :got:__libc_single_threaded
	ldr	x0, [x20, #:got_lo12:__libc_single_threaded]
	ldrb	w0, [x0]
	cbz	w0, .L1800
	ldr	w0, [x21, 8]
	sub	w1, w0, #1
	str	w1, [x21, 8]
.L1801:
	cmp	w0, 1
	bne	.L1799
	ldr	x1, [x21]
	mov	x0, x21
	ldr	x1, [x1, 16]
	blr	x1
	ldr	x20, [x20, #:got_lo12:__libc_single_threaded]
	ldrb	w0, [x20]
	cbz	w0, .L1803
	ldr	w0, [x21, 12]
	sub	w1, w0, #1
	str	w1, [x21, 12]
.L1804:
	cmp	w0, 1
	beq	.L1895
	.p2align 3,,7
.L1799:
	ldr	x21, [x19, 80]
	cbz	x21, .L1806
	adrp	x20, :got:__libc_single_threaded
	ldr	x0, [x20, #:got_lo12:__libc_single_threaded]
	ldrb	w0, [x0]
	cbz	w0, .L1807
	ldr	w0, [x21, 8]
	sub	w1, w0, #1
	str	w1, [x21, 8]
.L1808:
	cmp	w0, 1
	bne	.L1806
	ldr	x1, [x21]
	mov	x0, x21
	ldr	x1, [x1, 16]
	blr	x1
	ldr	x20, [x20, #:got_lo12:__libc_single_threaded]
	ldrb	w0, [x20]
	cbz	w0, .L1810
	ldr	w0, [x21, 12]
	sub	w1, w0, #1
	str	w1, [x21, 12]
.L1811:
	cmp	w0, 1
	beq	.L1896
	.p2align 3,,7
.L1806:
	ldr	x3, [x19, 56]
	add	x1, x19, 40
	cbz	x3, .L1812
	mov	x0, x1
	mov	w2, 3
	blr	x3
.L1812:
	ldr	x19, [x19, 32]
	cbz	x19, .L1814
	adrp	x20, :got:__libc_single_threaded
	ldr	x0, [x20, #:got_lo12:__libc_single_threaded]
	ldrb	w0, [x0]
	cbz	w0, .L1815
	ldr	w0, [x19, 8]
	sub	w1, w0, #1
	str	w1, [x19, 8]
.L1816:
	cmp	w0, 1
	bne	.L1814
	ldr	x1, [x19]
	mov	x0, x19
	ldr	x1, [x1, 16]
	blr	x1
	ldr	x20, [x20, #:got_lo12:__libc_single_threaded]
	ldrb	w0, [x20]
	cbz	w0, .L1818
	ldr	w0, [x19, 12]
	sub	w1, w0, #1
	str	w1, [x19, 12]
.L1819:
	cmp	w0, 1
	beq	.L1897
	.p2align 3,,7
.L1814:
	str	xzr, [sp, 88]
.L1789:
	ldr	x19, [sp, 80]
	cbz	x19, .L1720
	adrp	x0, :got:_ZN4asio6detail10call_stackINS0_15task_io_serviceENS0_27task_io_service_thread_infoEE4top_E
	ldr	x0, [x0, #:got_lo12:_ZN4asio6detail10call_stackINS0_15task_io_serviceENS0_27task_io_service_thread_infoEE4top_E]
	ldr	w0, [x0]
	bl	pthread_getspecific
	cbz	x0, .L1821
	ldr	x0, [x0, 8]
	cbz	x0, .L1821
	ldr	x1, [x0]
	cbz	x1, .L1898
.L1821:
	adrp	x0, :got:__stack_chk_guard
	ldr	x0, [x0, #:got_lo12:__stack_chk_guard]
	ldr	x2, [sp, 264]
	ldr	x1, [x0]
	subs	x2, x2, x1
	mov	x1, 0
	bne	.L1884
	mov	x0, x19
	ldp	x19, x20, [sp, 16]
	ldp	x21, x22, [sp, 32]
	ldp	x23, x24, [sp, 48]
	ldp	x29, x30, [sp], 272
	.cfi_remember_state
	.cfi_restore 30
	.cfi_restore 29
	.cfi_restore 23
	.cfi_restore 24
	.cfi_restore 21
	.cfi_restore 22
	.cfi_restore 19
	.cfi_restore 20
	.cfi_def_cfa_offset 0
	b	_ZdlPv
	.p2align 2,,3
.L1898:
	.cfi_restore_state
	ldrb	w1, [x19, 184]
	strb	w1, [x19]
	str	x19, [x0]
	.p2align 3,,7
.L1720:
	adrp	x0, :got:__stack_chk_guard
	ldr	x0, [x0, #:got_lo12:__stack_chk_guard]
	ldr	x2, [sp, 264]
	ldr	x1, [x0]
	subs	x2, x2, x1
	mov	x1, 0
	bne	.L1884
	ldp	x19, x20, [sp, 16]
	ldp	x21, x22, [sp, 32]
	ldp	x23, x24, [sp, 48]
	ldp	x29, x30, [sp], 272
	.cfi_remember_state
	.cfi_restore 30
	.cfi_restore 29
	.cfi_restore 23
	.cfi_restore 24
	.cfi_restore 21
	.cfi_restore 22
	.cfi_restore 19
	.cfi_restore 20
	.cfi_def_cfa_offset 0
	ret
	.p2align 2,,3
.L1892:
	.cfi_restore_state
	ldr	x1, [x19]
	mov	x0, x19
	ldr	x1, [x1, 16]
	blr	x1
	ldr	x20, [x20, #:got_lo12:__libc_single_threaded]
	ldrb	w0, [x20]
	cbz	w0, .L1779
	ldr	w0, [x19, 12]
	sub	w1, w0, #1
	str	w1, [x19, 12]
.L1780:
	cmp	w0, 1
	bne	.L1775
	ldr	x1, [x19]
	mov	x0, x19
	ldr	x1, [x1, 24]
	blr	x1
	b	.L1775
	.p2align 2,,3
.L1893:
	ldr	x1, [x19]
	mov	x0, x19
	ldr	x1, [x1, 16]
	blr	x1
	ldr	x20, [x20, #:got_lo12:__libc_single_threaded]
	ldrb	w0, [x20]
	cbz	w0, .L1787
	ldr	w0, [x19, 12]
	sub	w1, w0, #1
	str	w1, [x19, 12]
.L1788:
	cmp	w0, 1
	bne	.L1783
	ldr	x1, [x19]
	mov	x0, x19
	ldr	x1, [x1, 24]
	blr	x1
	b	.L1783
	.p2align 2,,3
.L1890:
	ldr	x1, [x19]
	mov	x0, x19
	ldr	x1, [x1, 16]
	blr	x1
	ldr	x20, [x20, #:got_lo12:__libc_single_threaded]
	ldrb	w0, [x20]
	cbz	w0, .L1764
	ldr	w0, [x19, 12]
	sub	w1, w0, #1
	str	w1, [x19, 12]
.L1765:
	cmp	w0, 1
	bne	.L1760
	ldr	x1, [x19]
	mov	x0, x19
	ldr	x1, [x1, 24]
	blr	x1
	b	.L1760
	.p2align 2,,3
.L1891:
	ldr	x1, [x19]
	mov	x0, x19
	ldr	x1, [x1, 16]
	blr	x1
	ldr	x20, [x20, #:got_lo12:__libc_single_threaded]
	ldrb	w0, [x20]
	cbz	w0, .L1772
	ldr	w0, [x19, 12]
	sub	w1, w0, #1
	str	w1, [x19, 12]
.L1773:
	cmp	w0, 1
	bne	.L1768
	ldr	x1, [x19]
	mov	x0, x19
	ldr	x1, [x1, 24]
	blr	x1
	b	.L1768
	.p2align 2,,3
.L1761:
	add	x1, x19, 8
	mov	w0, -1
	bl	__aarch64_ldadd4_acq_rel
	b	.L1762
	.p2align 2,,3
.L1769:
	add	x1, x19, 8
	mov	w0, -1
	bl	__aarch64_ldadd4_acq_rel
	b	.L1770
	.p2align 2,,3
.L1776:
	add	x1, x19, 8
	mov	w0, -1
	bl	__aarch64_ldadd4_acq_rel
	b	.L1777
	.p2align 2,,3
.L1784:
	add	x1, x19, 8
	mov	w0, -1
	bl	__aarch64_ldadd4_acq_rel
	b	.L1785
	.p2align 2,,3
.L1735:
	add	x1, x24, 8
	mov	w0, -1
	bl	__aarch64_ldadd4_acq_rel
	b	.L1736
	.p2align 2,,3
.L1750:
	add	x1, x19, 8
	mov	w0, -1
	bl	__aarch64_ldadd4_acq_rel
	b	.L1751
	.p2align 2,,3
.L1800:
	add	x1, x21, 8
	mov	w0, -1
	bl	__aarch64_ldadd4_acq_rel
	b	.L1801
	.p2align 2,,3
.L1742:
	add	x1, x24, 8
	mov	w0, -1
	bl	__aarch64_ldadd4_acq_rel
	b	.L1743
	.p2align 2,,3
.L1815:
	add	x1, x19, 8
	mov	w0, -1
	bl	__aarch64_ldadd4_acq_rel
	b	.L1816
	.p2align 2,,3
.L1807:
	add	x1, x21, 8
	mov	w0, -1
	bl	__aarch64_ldadd4_acq_rel
	b	.L1808
	.p2align 2,,3
.L1792:
	add	x1, x21, 8
	mov	w0, -1
	bl	__aarch64_ldadd4_acq_rel
	b	.L1793
	.p2align 2,,3
.L1885:
	ldr	q0, [x19, 152]
	add	x23, sp, 96
	ldp	x0, x1, [x24, 80]
	str	x23, [sp, 72]
	str	q0, [sp, 224]
	stp	x0, x1, [sp, 240]
	b	.L1729
	.p2align 2,,3
.L1889:
	ldrb	w1, [x19, 184]
	strb	w1, [x19]
	str	x19, [x0]
	str	xzr, [sp, 80]
	b	.L1755
	.p2align 2,,3
.L1787:
	add	x1, x19, 12
	mov	w0, -1
	bl	__aarch64_ldadd4_acq_rel
	b	.L1788
	.p2align 2,,3
.L1764:
	add	x1, x19, 12
	mov	w0, -1
	bl	__aarch64_ldadd4_acq_rel
	b	.L1765
	.p2align 2,,3
.L1779:
	add	x1, x19, 12
	mov	w0, -1
	bl	__aarch64_ldadd4_acq_rel
	b	.L1780
	.p2align 2,,3
.L1772:
	add	x1, x19, 12
	mov	w0, -1
	bl	__aarch64_ldadd4_acq_rel
	b	.L1773
	.p2align 2,,3
.L1894:
	ldr	x1, [x21]
	mov	x0, x21
	ldr	x1, [x1, 24]
	blr	x1
	b	.L1791
	.p2align 2,,3
.L1896:
	ldr	x1, [x21]
	mov	x0, x21
	ldr	x1, [x1, 24]
	blr	x1
	b	.L1806
	.p2align 2,,3
.L1895:
	ldr	x1, [x21]
	mov	x0, x21
	ldr	x1, [x1, 24]
	blr	x1
	b	.L1799
	.p2align 2,,3
.L1888:
	ldr	x1, [x19]
	mov	x0, x19
	ldr	x1, [x1, 24]
	blr	x1
	b	.L1749
	.p2align 2,,3
.L1897:
	ldr	x1, [x19]
	mov	x0, x19
	ldr	x1, [x1, 24]
	blr	x1
	b	.L1814
	.p2align 2,,3
.L1887:
	ldr	x1, [x24]
	mov	x0, x24
	ldr	x1, [x1, 24]
	blr	x1
	b	.L1741
	.p2align 2,,3
.L1886:
	ldr	x1, [x24]
	mov	x0, x24
	ldr	x1, [x1, 24]
	blr	x1
	b	.L1734
	.p2align 2,,3
.L1738:
	add	x1, x24, 12
	mov	w0, -1
	bl	__aarch64_ldadd4_acq_rel
	b	.L1739
	.p2align 2,,3
.L1818:
	add	x1, x19, 12
	mov	w0, -1
	bl	__aarch64_ldadd4_acq_rel
	b	.L1819
	.p2align 2,,3
.L1745:
	add	x1, x24, 12
	mov	w0, -1
	bl	__aarch64_ldadd4_acq_rel
	b	.L1746
	.p2align 2,,3
.L1795:
	add	x1, x21, 12
	mov	w0, -1
	bl	__aarch64_ldadd4_acq_rel
	b	.L1796
	.p2align 2,,3
.L1810:
	add	x1, x21, 12
	mov	w0, -1
	bl	__aarch64_ldadd4_acq_rel
	b	.L1811
	.p2align 2,,3
.L1803:
	add	x1, x21, 12
	mov	w0, -1
	bl	__aarch64_ldadd4_acq_rel
	b	.L1804
	.p2align 2,,3
.L1753:
	add	x1, x19, 12
	mov	w0, -1
	bl	__aarch64_ldadd4_acq_rel
	b	.L1754
.L1884:
	bl	__stack_chk_fail
.L1825:
	stlr	wzr, [x19]
	mov	x19, x0
	add	x0, sp, 176
	bl	_ZZN7asiopal8Executor5StartERKNSt6chrono10time_pointINS1_3_V212steady_clockENS1_8durationIlSt5ratioILl1ELl1000000000EEEEEERKSt8functionIFvvEEENUlRKSt10error_codeE_D1Ev
	mov	x0, x23
	bl	_ZZN7asiopal8Executor5StartERKNSt6chrono10time_pointINS1_3_V212steady_clockENS1_8durationIlSt5ratioILl1ELl1000000000EEEEEERKSt8functionIFvvEEENUlRKSt10error_codeE_D1Ev
.L1727:
	add	x0, sp, 72
	bl	_ZN4asio6detail18completion_handlerINS0_17rewrapped_handlerINS0_7binder1INS0_15wrapped_handlerINS_10io_service6strandEZN7asiopal8Executor5StartERKNSt6chrono10time_pointINS9_3_V212steady_clockENS9_8durationIlSt5ratioILl1ELl1000000000EEEEEERKSt8functionIFvvEEEUlRKSt10error_codeE_NS0_26is_continuation_if_runningEEESP_EESS_EEE3ptr5resetEv
	mov	x0, x19
.LEHB63:
	bl	_Unwind_Resume
.LEHE63:
.L1827:
	ldr	x3, [sp, 208]
	mov	x19, x0
	cbz	x3, .L1731
	mov	x1, x23
	mov	x0, x23
	mov	w2, 3
	blr	x3
.L1731:
	ldr	x0, [sp, 184]
	cbz	x0, .L1732
	bl	_ZNSt16_Sp_counted_baseILN9__gnu_cxx12_Lock_policyE2EE10_M_releaseEv
.L1732:
	add	x0, sp, 96
	bl	_ZZN7asiopal8Executor5StartERKNSt6chrono10time_pointINS1_3_V212steady_clockENS1_8durationIlSt5ratioILl1ELl1000000000EEEEEERKSt8functionIFvvEEENUlRKSt10error_codeE_D1Ev
	b	.L1727
.L1826:
	ldr	x3, [sp, 128]
	mov	x19, x0
	cbz	x3, .L1725
	mov	x1, x20
	mov	x0, x20
	mov	w2, 3
	blr	x3
.L1725:
	ldr	x0, [sp, 104]
	cbz	x0, .L1727
	bl	_ZNSt16_Sp_counted_baseILN9__gnu_cxx12_Lock_policyE2EE10_M_releaseEv
	b	.L1727
	.cfi_endproc
.LFE9351:
	.section	.gcc_except_table
.LLSDA9351:
	.byte	0xff
	.byte	0xff
	.byte	0x1
	.uleb128 .LLSDACSE9351-.LLSDACSB9351
.LLSDACSB9351:
	.uleb128 .LEHB60-.LFB9351
	.uleb128 .LEHE60-.LEHB60
	.uleb128 .L1826-.LFB9351
	.uleb128 0
	.uleb128 .LEHB61-.LFB9351
	.uleb128 .LEHE61-.LEHB61
	.uleb128 .L1827-.LFB9351
	.uleb128 0
	.uleb128 .LEHB62-.LFB9351
	.uleb128 .LEHE62-.LEHB62
	.uleb128 .L1825-.LFB9351
	.uleb128 0
	.uleb128 .LEHB63-.LFB9351
	.uleb128 .LEHE63-.LEHB63
	.uleb128 0
	.uleb128 0
.LLSDACSE9351:
	.text
	.size	_ZN4asio6detail18completion_handlerINS0_17rewrapped_handlerINS0_7binder1INS0_15wrapped_handlerINS_10io_service6strandEZN7asiopal8Executor5StartERKNSt6chrono10time_pointINS9_3_V212steady_clockENS9_8durationIlSt5ratioILl1ELl1000000000EEEEEERKSt8functionIFvvEEEUlRKSt10error_codeE_NS0_26is_continuation_if_runningEEESP_EESS_EEE11do_completeEPNS0_15task_io_serviceEPNS0_25task_io_service_operationESR_m, .-_ZN4asio6detail18completion_handlerINS0_17rewrapped_handlerINS0_7binder1INS0_15wrapped_handlerINS_10io_service6strandEZN7asiopal8Executor5StartERKNSt6chrono10time_pointINS9_3_V212steady_clockENS9_8durationIlSt5ratioILl1ELl1000000000EEEEEERKSt8functionIFvvEEEUlRKSt10error_codeE_NS0_26is_continuation_if_runningEEESP_EESS_EEE11do_completeEPNS0_15task_io_serviceEPNS0_25task_io_service_operationESR_m
	.align	2
	.p2align 4,,11
	.type	_ZN4asio6detail12wait_handlerINS0_15wrapped_handlerINS_10io_service6strandEZN7asiopal8Executor5StartERKNSt6chrono10time_pointINS7_3_V212steady_clockENS7_8durationIlSt5ratioILl1ELl1000000000EEEEEERKSt8functionIFvvEEEUlRKSt10error_codeE_NS0_26is_continuation_if_runningEEEE11do_completeEPNS0_15task_io_serviceEPNS0_25task_io_service_operationESP_m, %function
_ZN4asio6detail12wait_handlerINS0_15wrapped_handlerINS_10io_service6strandEZN7asiopal8Executor5StartERKNSt6chrono10time_pointINS7_3_V212steady_clockENS7_8durationIlSt5ratioILl1ELl1000000000EEEEEERKSt8functionIFvvEEEUlRKSt10error_codeE_NS0_26is_continuation_if_runningEEEE11do_completeEPNS0_15task_io_serviceEPNS0_25task_io_service_operationESP_m:
.LFB8875:
	.cfi_startproc
	.cfi_personality 0x9b,DW.ref.__gxx_personality_v0
	.cfi_lsda 0x1b,.LLSDA8875
	sub	sp, sp, #864
	.cfi_def_cfa_offset 864
	adrp	x2, :got:__stack_chk_guard
	stp	x29, x30, [sp]
	.cfi_offset 29, -864
	.cfi_offset 30, -856
	mov	x29, sp
	ldr	x2, [x2, #:got_lo12:__stack_chk_guard]
	stp	x19, x20, [sp, 16]
	.cfi_offset 19, -848
	.cfi_offset 20, -840
	mov	x19, x1
	stp	x21, x22, [sp, 32]
	add	x20, x1, 72
	.cfi_offset 21, -832
	.cfi_offset 22, -824
	mov	x21, x0
	ldp	x4, x5, [x1, 40]
	ldr	q0, [x1, 56]
	ldr	x1, [x2]
	str	x1, [sp, 856]
	mov	x1, 0
	stp	xzr, xzr, [x19, 56]
	add	x1, x19, 40
	ldr	x3, [x20, 16]
	stp	x1, x19, [sp, 176]
	str	x19, [sp, 192]
	stp	x4, x5, [sp, 272]
	stp	xzr, xzr, [sp, 304]
	stp	xzr, xzr, [sp, 320]
	str	q0, [sp, 288]
	cbz	x3, .L1900
	add	x22, sp, 304
	mov	x1, x20
	mov	x0, x22
	mov	w2, 2
.LEHB64:
	blr	x3
.LEHE64:
	stp	x25, x26, [sp, 64]
	.cfi_offset 26, -792
	.cfi_offset 25, -800
	add	x0, sp, 272
	ldp	x3, x2, [x20, 16]
	str	x0, [sp, 176]
	ldr	q0, [x19, 104]
	stp	x3, x2, [sp, 320]
	ldp	x0, x1, [x19, 24]
	stp	x0, x1, [sp, 352]
	str	q0, [sp, 336]
	cbz	x3, .L1902
	mov	x1, x20
	mov	x0, x20
	mov	w2, 3
	blr	x3
.L1902:
	ldr	x20, [x19, 64]
	cbz	x20, .L1907
	adrp	x22, :got:__libc_single_threaded
	ldr	x0, [x22, #:got_lo12:__libc_single_threaded]
	ldrb	w0, [x0]
	cbz	w0, .L1908
	ldr	w0, [x20, 8]
	sub	w1, w0, #1
	str	w1, [x20, 8]
.L1909:
	cmp	w0, 1
	beq	.L1910
	ldr	x19, [sp, 184]
.L1911:
	str	xzr, [sp, 192]
	cbnz	x19, .L2201
.L1914:
	cbz	x21, .L1917
	add	x20, sp, 144
	mov	w0, 1
	mov	x1, x20
	str	wzr, [sp, 144]
	bl	__aarch64_swp4_sync
	ldr	q0, [sp, 288]
	umov	x1, v0.d[1]
	str	q0, [sp, 368]
	cbz	x1, .L1918
	adrp	x0, :got:__libc_single_threaded
	ldr	x0, [x0, #:got_lo12:__libc_single_threaded]
	ldrb	w0, [x0]
	cbz	w0, .L1919
	ldr	w0, [x1, 8]
	add	w0, w0, 1
	str	w0, [x1, 8]
.L1918:
	ldr	x3, [sp, 320]
	stp	xzr, xzr, [sp, 384]
	stp	xzr, xzr, [sp, 400]
	cbz	x3, .L1920
	add	x19, sp, 384
	add	x1, sp, 304
	mov	x0, x19
	mov	w2, 2
.LEHB65:
	blr	x3
.LEHE65:
	ldp	x3, x0, [sp, 320]
	stp	x3, x0, [sp, 400]
.L1920:
	ldr	q0, [sp, 336]
	umov	x1, v0.d[1]
	str	q0, [sp, 416]
	cbz	x1, .L1922
	adrp	x0, :got:__libc_single_threaded
	ldr	x0, [x0, #:got_lo12:__libc_single_threaded]
	ldrb	w0, [x0]
	cbz	w0, .L1927
	ldr	w0, [x1, 8]
	ldr	x3, [sp, 320]
	add	w0, w0, 1
	str	w0, [x1, 8]
.L1922:
	ldr	q0, [sp, 288]
	stp	xzr, xzr, [sp, 288]
	ldp	x0, x1, [sp, 272]
	stp	x0, x1, [sp, 432]
	stp	xzr, xzr, [sp, 464]
	stp	xzr, xzr, [sp, 480]
	str	q0, [sp, 448]
	cbz	x3, .L1929
	add	x19, sp, 464
	add	x1, sp, 304
	mov	x0, x19
	mov	w2, 2
.LEHB66:
	blr	x3
.LEHE66:
	ldp	x3, x0, [sp, 320]
	stp	x3, x0, [sp, 480]
.L1929:
	add	x0, sp, 560
	movi	v0.4s, 0
	add	x2, sp, 512
	ldr	q2, [sp, 336]
	stp	xzr, xzr, [x0, 144]
	ldr	q1, [sp, 368]
	str	xzr, [sp, 720]
	ldr	x4, [sp, 400]
	str	xzr, [sp, 728]
	ldp	x0, x1, [sp, 352]
	stp	x0, x1, [x2]
	str	q0, [sp, 336]
	str	q0, [sp, 368]
	str	q2, [sp, 496]
	str	q1, [sp, 688]
	cbz	x4, .L1932
	add	x19, sp, 704
	add	x1, sp, 384
	mov	x0, x19
	mov	w2, 2
.LEHB67:
	blr	x4
.LEHE67:
	ldr	q0, [sp, 400]
	ldr	x3, [sp, 480]
	str	q0, [sp, 720]
.L1932:
	add	x0, sp, 560
	movi	v0.4s, 0
	add	x2, sp, 560
	ldr	q2, [sp, 416]
	stp	xzr, xzr, [x0, 224]
	ldr	q1, [sp, 448]
	str	xzr, [sp, 800]
	ldp	x0, x1, [sp, 432]
	stp	x0, x1, [x2, 192]
	str	xzr, [sp, 808]
	str	q0, [sp, 416]
	str	q0, [sp, 448]
	str	q2, [sp, 736]
	str	q1, [sp, 768]
	cbz	x3, .L1937
	add	x19, sp, 784
	add	x1, sp, 464
	mov	x0, x19
	mov	w2, 2
.LEHB68:
	blr	x3
.LEHE68:
	ldr	q0, [sp, 480]
	str	q0, [sp, 800]
.L1937:
	adrp	x21, :got:_ZN4asio6detail10call_stackINS0_14strand_service11strand_implEhE4top_E
	add	x1, sp, 512
	ldr	x0, [x21, #:got_lo12:_ZN4asio6detail10call_stackINS0_14strand_service11strand_implEhE4top_E]
	ldp	x2, x3, [x1]
	add	x1, sp, 1072
	ldr	w0, [x0]
	ldr	q0, [sp, 496]
	stp	x2, x3, [x1, -240]
	stp	xzr, xzr, [sp, 496]
	str	q0, [sp, 816]
	ldp	x25, x19, [sp, 272]
	bl	pthread_getspecific
	cbnz	x0, .L1942
	b	.L2406
	.p2align 2,,3
.L1947:
	ldr	x0, [x0, 16]
	cbz	x0, .L2406
.L1942:
	ldr	x1, [x0]
	cmp	x19, x1
	bne	.L1947
	ldr	x0, [x0, 8]
	cbz	x0, .L2406
	add	x19, sp, 248
	mov	w0, 1
	mov	x1, x19
	str	wzr, [sp, 248]
	bl	__aarch64_swp4_sync
	add	x1, sp, 832
	add	x0, sp, 752
.LEHB69:
	bl	_ZN4asio6detail15wrapped_handlerINS_10io_service6strandEZN7asiopal8Executor5StartERKNSt6chrono10time_pointINS6_3_V212steady_clockENS6_8durationIlSt5ratioILl1ELl1000000000EEEEEERKSt8functionIFvvEEEUlRKSt10error_codeE_NS0_26is_continuation_if_runningEEclISM_EEvRKT_
.LEHE69:
	stlr	wzr, [x19]
.L1949:
	ldr	x19, [sp, 824]
	cbz	x19, .L2106
	adrp	x22, :got:__libc_single_threaded
	ldr	x0, [x22, #:got_lo12:__libc_single_threaded]
	ldrb	w0, [x0]
	cbz	w0, .L2109
	ldr	w0, [x19, 8]
	sub	w1, w0, #1
	str	w1, [x19, 8]
.L2110:
	cmp	w0, 1
	beq	.L2409
.L2106:
	ldr	x3, [sp, 800]
	cbz	x3, .L2114
	add	x1, sp, 784
	mov	w2, 3
	mov	x0, x1
	blr	x3
.L2114:
	ldr	x19, [sp, 776]
	cbz	x19, .L2116
	adrp	x22, :got:__libc_single_threaded
	ldr	x0, [x22, #:got_lo12:__libc_single_threaded]
	ldrb	w0, [x0]
	cbz	w0, .L2117
	ldr	w0, [x19, 8]
	sub	w1, w0, #1
	str	w1, [x19, 8]
.L2118:
	cmp	w0, 1
	beq	.L2410
.L2116:
	ldr	x19, [sp, 744]
	cbz	x19, .L2123
	adrp	x22, :got:__libc_single_threaded
	ldr	x0, [x22, #:got_lo12:__libc_single_threaded]
	ldrb	w0, [x0]
	cbz	w0, .L2124
	ldr	w0, [x19, 8]
	sub	w1, w0, #1
	str	w1, [x19, 8]
.L2125:
	cmp	w0, 1
	beq	.L2411
.L2123:
	ldr	x3, [sp, 720]
	cbz	x3, .L2129
	add	x1, sp, 704
	mov	w2, 3
	mov	x0, x1
	blr	x3
.L2129:
	ldr	x19, [sp, 696]
	cbz	x19, .L2131
	adrp	x22, :got:__libc_single_threaded
	ldr	x0, [x22, #:got_lo12:__libc_single_threaded]
	ldrb	w0, [x0]
	cbz	w0, .L2132
	ldr	w0, [x19, 8]
	sub	w1, w0, #1
	str	w1, [x19, 8]
.L2133:
	cmp	w0, 1
	beq	.L2412
.L2131:
	ldr	x19, [sp, 504]
	cbz	x19, .L2138
	adrp	x22, :got:__libc_single_threaded
	ldr	x0, [x22, #:got_lo12:__libc_single_threaded]
	ldrb	w0, [x0]
	cbz	w0, .L2139
	ldr	w0, [x19, 8]
	sub	w1, w0, #1
	str	w1, [x19, 8]
.L2140:
	cmp	w0, 1
	beq	.L2413
.L2138:
	ldr	x3, [sp, 480]
	cbz	x3, .L2144
	add	x1, sp, 464
	mov	w2, 3
	mov	x0, x1
	blr	x3
.L2144:
	ldr	x19, [sp, 456]
	cbz	x19, .L2146
	adrp	x22, :got:__libc_single_threaded
	ldr	x0, [x22, #:got_lo12:__libc_single_threaded]
	ldrb	w0, [x0]
	cbz	w0, .L2147
	ldr	w0, [x19, 8]
	sub	w1, w0, #1
	str	w1, [x19, 8]
.L2148:
	cmp	w0, 1
	beq	.L2414
.L2146:
	ldr	x19, [sp, 424]
	cbz	x19, .L2153
	adrp	x22, :got:__libc_single_threaded
	ldr	x0, [x22, #:got_lo12:__libc_single_threaded]
	ldrb	w0, [x0]
	cbz	w0, .L2154
	ldr	w0, [x19, 8]
	sub	w1, w0, #1
	str	w1, [x19, 8]
.L2155:
	cmp	w0, 1
	beq	.L2415
.L2153:
	ldr	x3, [sp, 400]
	cbz	x3, .L2159
	add	x1, sp, 384
	mov	w2, 3
	mov	x0, x1
	blr	x3
.L2159:
	ldr	x19, [sp, 376]
	cbz	x19, .L2161
	adrp	x22, :got:__libc_single_threaded
	ldr	x0, [x22, #:got_lo12:__libc_single_threaded]
	ldrb	w0, [x0]
	cbz	w0, .L2162
	ldr	w0, [x19, 8]
	sub	w1, w0, #1
	str	w1, [x19, 8]
.L2163:
	cmp	w0, 1
	beq	.L2416
.L2161:
	stlr	wzr, [x20]
.L1917:
	ldr	x19, [sp, 344]
	cbz	x19, .L2168
	adrp	x22, :got:__libc_single_threaded
	ldr	x0, [x22, #:got_lo12:__libc_single_threaded]
	ldrb	w0, [x0]
	cbz	w0, .L2169
	ldr	w0, [x19, 8]
	sub	w1, w0, #1
	str	w1, [x19, 8]
.L2170:
	cmp	w0, 1
	beq	.L2417
.L2168:
	ldr	x3, [sp, 320]
	cbz	x3, .L2174
	add	x1, sp, 304
	mov	w2, 3
	mov	x0, x1
	blr	x3
.L2174:
	ldr	x19, [sp, 296]
	cbz	x19, .L2176
	adrp	x22, :got:__libc_single_threaded
	ldr	x0, [x22, #:got_lo12:__libc_single_threaded]
	ldrb	w0, [x0]
	cbz	w0, .L2177
	ldr	w0, [x19, 8]
	sub	w1, w0, #1
	str	w1, [x19, 8]
.L2178:
	cmp	w0, 1
	beq	.L2418
.L2176:
	ldr	x19, [sp, 192]
	cbz	x19, .L2182
	ldr	x20, [x19, 112]
	cbz	x20, .L2184
	adrp	x22, :got:__libc_single_threaded
	ldr	x0, [x22, #:got_lo12:__libc_single_threaded]
	ldrb	w0, [x0]
	cbz	w0, .L2185
	ldr	w0, [x20, 8]
	sub	w1, w0, #1
	str	w1, [x20, 8]
.L2186:
	cmp	w0, 1
	bne	.L2184
	ldr	x1, [x20]
	mov	x0, x20
	ldr	x1, [x1, 16]
	blr	x1
	ldr	x22, [x22, #:got_lo12:__libc_single_threaded]
	ldrb	w0, [x22]
	cbz	w0, .L2188
	ldr	w0, [x20, 12]
	sub	w1, w0, #1
	str	w1, [x20, 12]
.L2189:
	cmp	w0, 1
	beq	.L2419
	.p2align 3,,7
.L2184:
	ldr	x3, [x19, 88]
	add	x1, x19, 72
	cbz	x3, .L2190
	mov	x0, x1
	mov	w2, 3
	blr	x3
.L2190:
	ldr	x19, [x19, 64]
	cbz	x19, .L2192
	adrp	x22, :got:__libc_single_threaded
	ldr	x0, [x22, #:got_lo12:__libc_single_threaded]
	ldrb	w0, [x0]
	cbz	w0, .L2193
	ldr	w0, [x19, 8]
	sub	w1, w0, #1
	str	w1, [x19, 8]
.L2194:
	cmp	w0, 1
	bne	.L2192
	ldr	x1, [x19]
	mov	x0, x19
	ldr	x1, [x1, 16]
	blr	x1
	ldr	x22, [x22, #:got_lo12:__libc_single_threaded]
	ldrb	w0, [x22]
	cbz	w0, .L2196
	ldr	w0, [x19, 12]
	sub	w1, w0, #1
	str	w1, [x19, 12]
.L2197:
	cmp	w0, 1
	beq	.L2420
	.p2align 3,,7
.L2192:
	str	xzr, [sp, 192]
.L2182:
	ldr	x19, [sp, 184]
	cbz	x19, .L1899
	adrp	x0, :got:_ZN4asio6detail10call_stackINS0_15task_io_serviceENS0_27task_io_service_thread_infoEE4top_E
	ldr	x0, [x0, #:got_lo12:_ZN4asio6detail10call_stackINS0_15task_io_serviceENS0_27task_io_service_thread_infoEE4top_E]
	ldr	w0, [x0]
	bl	pthread_getspecific
	cbz	x0, .L2199
	ldr	x0, [x0, 8]
	cbz	x0, .L2199
	ldr	x1, [x0]
	cbz	x1, .L2421
.L2199:
	adrp	x0, :got:__stack_chk_guard
	ldr	x0, [x0, #:got_lo12:__stack_chk_guard]
	ldr	x2, [sp, 856]
	ldr	x1, [x0]
	subs	x2, x2, x1
	mov	x1, 0
	bne	.L2408
	mov	x0, x19
	ldp	x29, x30, [sp]
	ldp	x19, x20, [sp, 16]
	ldp	x21, x22, [sp, 32]
	ldp	x25, x26, [sp, 64]
	.cfi_remember_state
	.cfi_restore 26
	.cfi_restore 25
	add	sp, sp, 864
	.cfi_restore 29
	.cfi_restore 30
	.cfi_restore 21
	.cfi_restore 22
	.cfi_restore 19
	.cfi_restore 20
	.cfi_def_cfa_offset 0
	b	_ZdlPv
	.p2align 2,,3
.L1907:
	.cfi_restore_state
	str	xzr, [sp, 192]
.L2201:
	adrp	x0, :got:_ZN4asio6detail10call_stackINS0_15task_io_serviceENS0_27task_io_service_thread_infoEE4top_E
	ldr	x0, [x0, #:got_lo12:_ZN4asio6detail10call_stackINS0_15task_io_serviceENS0_27task_io_service_thread_infoEE4top_E]
	ldr	w0, [x0]
	bl	pthread_getspecific
	cbz	x0, .L1915
	ldr	x0, [x0, 8]
	cbz	x0, .L1915
	ldr	x1, [x0]
	cbz	x1, .L2422
.L1915:
	mov	x0, x19
	bl	_ZdlPv
	str	xzr, [sp, 184]
	b	.L1914
	.p2align 2,,3
.L2421:
	ldrb	w1, [x19, 120]
	strb	w1, [x19]
	str	x19, [x0]
	.p2align 3,,7
.L1899:
	adrp	x0, :got:__stack_chk_guard
	ldr	x0, [x0, #:got_lo12:__stack_chk_guard]
	ldr	x2, [sp, 856]
	ldr	x1, [x0]
	subs	x2, x2, x1
	mov	x1, 0
	bne	.L2408
	ldp	x29, x30, [sp]
	ldp	x19, x20, [sp, 16]
	ldp	x21, x22, [sp, 32]
	ldp	x25, x26, [sp, 64]
	.cfi_remember_state
	.cfi_restore 26
	.cfi_restore 25
	add	sp, sp, 864
	.cfi_restore 29
	.cfi_restore 30
	.cfi_restore 21
	.cfi_restore 22
	.cfi_restore 19
	.cfi_restore 20
	.cfi_def_cfa_offset 0
	ret
	.p2align 2,,3
.L2406:
	.cfi_restore_state
	stp	x23, x24, [sp, 48]
	.cfi_offset 24, -808
	.cfi_offset 23, -816
	adrp	x23, :got:_ZN4asio6detail10call_stackINS0_15task_io_serviceENS0_27task_io_service_thread_infoEE4top_E
	ldr	x0, [x23, #:got_lo12:_ZN4asio6detail10call_stackINS0_15task_io_serviceENS0_27task_io_service_thread_infoEE4top_E]
	stp	x27, x28, [sp, 80]
	.cfi_offset 28, -776
	.cfi_offset 27, -784
	add	x27, sp, 688
	str	x27, [sp, 200]
	ldr	w0, [x0]
	stp	xzr, xzr, [sp, 208]
	bl	pthread_getspecific
	cbz	x0, .L1950
	ldr	x0, [x0, 8]
	cbz	x0, .L1950
	ldr	x19, [x0]
	cbz	x19, .L1950
	str	xzr, [x0]
	ldrb	w0, [x19]
	cmp	w0, 183
	bls	.L1951
	strb	w0, [x19, 184]
	b	.L1952
	.p2align 2,,3
.L1951:
	mov	x0, x19
	bl	_ZdlPv
.L1950:
	mov	x0, 185
.LEHB70:
	bl	_Znwm
.LEHE70:
	mov	x19, x0
	mov	w1, -72
	strb	w1, [x0, 184]
.L1952:
	adrp	x0, _ZN4asio6detail18completion_handlerINS0_17rewrapped_handlerINS0_7binder1INS0_15wrapped_handlerINS_10io_service6strandEZN7asiopal8Executor5StartERKNSt6chrono10time_pointINS9_3_V212steady_clockENS9_8durationIlSt5ratioILl1ELl1000000000EEEEEERKSt8functionIFvvEEEUlRKSt10error_codeE_NS0_26is_continuation_if_runningEEESP_EESS_EEE11do_completeEPNS0_15task_io_serviceEPNS0_25task_io_service_operationESR_m
	add	x0, x0, :lo12:_ZN4asio6detail18completion_handlerINS0_17rewrapped_handlerINS0_7binder1INS0_15wrapped_handlerINS_10io_service6strandEZN7asiopal8Executor5StartERKNSt6chrono10time_pointINS9_3_V212steady_clockENS9_8durationIlSt5ratioILl1ELl1000000000EEEEEERKSt8functionIFvvEEEUlRKSt10error_codeE_NS0_26is_continuation_if_runningEEESP_EESS_EEE11do_completeEPNS0_15task_io_serviceEPNS0_25task_io_service_operationESR_m
	stp	xzr, x0, [x19]
	add	x0, x19, 24
	add	x24, x19, 40
	ldr	q0, [sp, 688]
	str	x0, [sp, 96]
	add	x0, sp, 688
	str	wzr, [x19, 16]
	stp	xzr, xzr, [x19, 40]
	str	q0, [x19, 24]
	dup	v0.2d, x19
	ldr	x3, [sp, 720]
	stp	xzr, xzr, [x0]
	stp	xzr, xzr, [x24, 16]
	str	x19, [sp, 208]
	str	q0, [sp, 128]
	cbz	x3, .L1953
	add	x1, sp, 704
	mov	x0, x24
	mov	w2, 2
.LEHB71:
	blr	x3
.LEHE71:
	ldr	q0, [sp, 720]
	str	q0, [x19, 56]
.L1953:
	add	x0, sp, 560
	ldr	q1, [sp, 736]
	add	x22, x19, 120
	movi	v0.4s, 0
	stp	xzr, xzr, [x19, 120]
	str	q1, [x19, 72]
	ldp	x0, x1, [x0, 192]
	stp	x0, x1, [x19, 88]
	ldr	q1, [sp, 768]
	str	q0, [sp, 736]
	str	q0, [sp, 768]
	str	q1, [x19, 104]
	ldr	x3, [sp, 800]
	stp	xzr, xzr, [x22, 16]
	cbz	x3, .L1955
	add	x1, sp, 784
	mov	x0, x22
