	.arch armv8-a
	.file	"SocketChannel.cpp"
	.text
	.section	.rodata._ZNK4asio6detail15system_category4nameEv.str1.8,"aMS",@progbits,1
	.align	3
.LC0:
	.string	"asio.system"
	.section	.text._ZNK4asio6detail15system_category4nameEv,"axG",@progbits,_ZNK4asio6detail15system_category4nameEv,comdat
	.align	2
	.p2align 4,,11
	.weak	_ZNK4asio6detail15system_category4nameEv
	.type	_ZNK4asio6detail15system_category4nameEv, %function
_ZNK4asio6detail15system_category4nameEv:
.LFB2275:
	.cfi_startproc
	adrp	x0, .LC0
	add	x0, x0, :lo12:.LC0
	ret
	.cfi_endproc
.LFE2275:
	.size	_ZNK4asio6detail15system_category4nameEv, .-_ZNK4asio6detail15system_category4nameEv
	.section	.rodata._ZNK4asio5error6detail14netdb_category4nameEv.str1.8,"aMS",@progbits,1
	.align	3
.LC1:
	.string	"asio.netdb"
	.section	.text._ZNK4asio5error6detail14netdb_category4nameEv,"axG",@progbits,_ZNK4asio5error6detail14netdb_category4nameEv,comdat
	.align	2
	.p2align 4,,11
	.weak	_ZNK4asio5error6detail14netdb_category4nameEv
	.type	_ZNK4asio5error6detail14netdb_category4nameEv, %function
_ZNK4asio5error6detail14netdb_category4nameEv:
.LFB2296:
	.cfi_startproc
	adrp	x0, .LC1
	add	x0, x0, :lo12:.LC1
	ret
	.cfi_endproc
.LFE2296:
	.size	_ZNK4asio5error6detail14netdb_category4nameEv, .-_ZNK4asio5error6detail14netdb_category4nameEv
	.section	.rodata._ZNK4asio5error6detail17addrinfo_category4nameEv.str1.8,"aMS",@progbits,1
	.align	3
.LC2:
	.string	"asio.addrinfo"
	.section	.text._ZNK4asio5error6detail17addrinfo_category4nameEv,"axG",@progbits,_ZNK4asio5error6detail17addrinfo_category4nameEv,comdat
	.align	2
	.p2align 4,,11
	.weak	_ZNK4asio5error6detail17addrinfo_category4nameEv
	.type	_ZNK4asio5error6detail17addrinfo_category4nameEv, %function
_ZNK4asio5error6detail17addrinfo_category4nameEv:
.LFB2302:
	.cfi_startproc
	adrp	x0, .LC2
	add	x0, x0, :lo12:.LC2
	ret
	.cfi_endproc
.LFE2302:
	.size	_ZNK4asio5error6detail17addrinfo_category4nameEv, .-_ZNK4asio5error6detail17addrinfo_category4nameEv
	.section	.rodata._ZNK4asio5error6detail13misc_category4nameEv.str1.8,"aMS",@progbits,1
	.align	3
.LC3:
	.string	"asio.misc"
	.section	.text._ZNK4asio5error6detail13misc_category4nameEv,"axG",@progbits,_ZNK4asio5error6detail13misc_category4nameEv,comdat
	.align	2
	.p2align 4,,11
	.weak	_ZNK4asio5error6detail13misc_category4nameEv
	.type	_ZNK4asio5error6detail13misc_category4nameEv, %function
_ZNK4asio5error6detail13misc_category4nameEv:
.LFB2308:
	.cfi_startproc
	adrp	x0, .LC3
	add	x0, x0, :lo12:.LC3
	ret
	.cfi_endproc
.LFE2308:
	.size	_ZNK4asio5error6detail13misc_category4nameEv, .-_ZNK4asio5error6detail13misc_category4nameEv
	.section	.text._ZN4asio6detail10service_idINS0_13epoll_reactorEED2Ev,"axG",@progbits,_ZN4asio6detail10service_idINS0_13epoll_reactorEED5Ev,comdat
	.align	2
	.p2align 4,,11
	.weak	_ZN4asio6detail10service_idINS0_13epoll_reactorEED2Ev
	.type	_ZN4asio6detail10service_idINS0_13epoll_reactorEED2Ev, %function
_ZN4asio6detail10service_idINS0_13epoll_reactorEED2Ev:
.LFB9523:
	.cfi_startproc
	ret
	.cfi_endproc
.LFE9523:
	.size	_ZN4asio6detail10service_idINS0_13epoll_reactorEED2Ev, .-_ZN4asio6detail10service_idINS0_13epoll_reactorEED2Ev
	.weak	_ZN4asio6detail10service_idINS0_13epoll_reactorEED1Ev
	.set	_ZN4asio6detail10service_idINS0_13epoll_reactorEED1Ev,_ZN4asio6detail10service_idINS0_13epoll_reactorEED2Ev
	.section	.text._ZN4asio6detail10service_idINS0_15task_io_serviceEED2Ev,"axG",@progbits,_ZN4asio6detail10service_idINS0_15task_io_serviceEED5Ev,comdat
	.align	2
	.p2align 4,,11
	.weak	_ZN4asio6detail10service_idINS0_15task_io_serviceEED2Ev
	.type	_ZN4asio6detail10service_idINS0_15task_io_serviceEED2Ev, %function
_ZN4asio6detail10service_idINS0_15task_io_serviceEED2Ev:
.LFB9526:
	.cfi_startproc
	ret
	.cfi_endproc
.LFE9526:
	.size	_ZN4asio6detail10service_idINS0_15task_io_serviceEED2Ev, .-_ZN4asio6detail10service_idINS0_15task_io_serviceEED2Ev
	.weak	_ZN4asio6detail10service_idINS0_15task_io_serviceEED1Ev
	.set	_ZN4asio6detail10service_idINS0_15task_io_serviceEED1Ev,_ZN4asio6detail10service_idINS0_15task_io_serviceEED2Ev
	.section	.text._ZN4asio6detail10service_idINS0_14strand_serviceEED2Ev,"axG",@progbits,_ZN4asio6detail10service_idINS0_14strand_serviceEED5Ev,comdat
	.align	2
	.p2align 4,,11
	.weak	_ZN4asio6detail10service_idINS0_14strand_serviceEED2Ev
	.type	_ZN4asio6detail10service_idINS0_14strand_serviceEED2Ev, %function
_ZN4asio6detail10service_idINS0_14strand_serviceEED2Ev:
.LFB9532:
	.cfi_startproc
	ret
	.cfi_endproc
.LFE9532:
	.size	_ZN4asio6detail10service_idINS0_14strand_serviceEED2Ev, .-_ZN4asio6detail10service_idINS0_14strand_serviceEED2Ev
	.weak	_ZN4asio6detail10service_idINS0_14strand_serviceEED1Ev
	.set	_ZN4asio6detail10service_idINS0_14strand_serviceEED1Ev,_ZN4asio6detail10service_idINS0_14strand_serviceEED2Ev
	.section	.text._ZN4asio6detail15system_categoryD2Ev,"axG",@progbits,_ZN4asio6detail15system_categoryD5Ev,comdat
	.align	2
	.p2align 4,,11
	.weak	_ZN4asio6detail15system_categoryD2Ev
	.type	_ZN4asio6detail15system_categoryD2Ev, %function
_ZN4asio6detail15system_categoryD2Ev:
.LFB9499:
	.cfi_startproc
	adrp	x1, :got:_ZTVN4asio6detail15system_categoryE
	ldr	x1, [x1, #:got_lo12:_ZTVN4asio6detail15system_categoryE]
	add	x1, x1, 16
	str	x1, [x0]
	b	_ZNSt3_V214error_categoryD2Ev
	.cfi_endproc
.LFE9499:
	.size	_ZN4asio6detail15system_categoryD2Ev, .-_ZN4asio6detail15system_categoryD2Ev
	.weak	_ZN4asio6detail15system_categoryD1Ev
	.set	_ZN4asio6detail15system_categoryD1Ev,_ZN4asio6detail15system_categoryD2Ev
	.section	.text._ZN4asio6detail15system_categoryD0Ev,"axG",@progbits,_ZN4asio6detail15system_categoryD5Ev,comdat
	.align	2
	.p2align 4,,11
	.weak	_ZN4asio6detail15system_categoryD0Ev
	.type	_ZN4asio6detail15system_categoryD0Ev, %function
_ZN4asio6detail15system_categoryD0Ev:
.LFB9501:
	.cfi_startproc
	stp	x29, x30, [sp, -32]!
	.cfi_def_cfa_offset 32
	.cfi_offset 29, -32
	.cfi_offset 30, -24
	adrp	x1, :got:_ZTVN4asio6detail15system_categoryE
	mov	x29, sp
	ldr	x1, [x1, #:got_lo12:_ZTVN4asio6detail15system_categoryE]
	str	x19, [sp, 16]
	.cfi_offset 19, -16
	mov	x19, x0
	add	x1, x1, 16
	str	x1, [x0]
	bl	_ZNSt3_V214error_categoryD2Ev
	mov	x0, x19
	mov	x1, 8
	ldr	x19, [sp, 16]
	ldp	x29, x30, [sp], 32
	.cfi_restore 30
	.cfi_restore 29
	.cfi_restore 19
	.cfi_def_cfa_offset 0
	b	_ZdlPvm
	.cfi_endproc
.LFE9501:
	.size	_ZN4asio6detail15system_categoryD0Ev, .-_ZN4asio6detail15system_categoryD0Ev
	.section	.text._ZN4asio5error6detail13misc_categoryD2Ev,"axG",@progbits,_ZN4asio5error6detail13misc_categoryD5Ev,comdat
	.align	2
	.p2align 4,,11
	.weak	_ZN4asio5error6detail13misc_categoryD2Ev
	.type	_ZN4asio5error6detail13misc_categoryD2Ev, %function
_ZN4asio5error6detail13misc_categoryD2Ev:
.LFB9487:
	.cfi_startproc
	adrp	x1, :got:_ZTVN4asio5error6detail13misc_categoryE
	ldr	x1, [x1, #:got_lo12:_ZTVN4asio5error6detail13misc_categoryE]
	add	x1, x1, 16
	str	x1, [x0]
	b	_ZNSt3_V214error_categoryD2Ev
	.cfi_endproc
.LFE9487:
	.size	_ZN4asio5error6detail13misc_categoryD2Ev, .-_ZN4asio5error6detail13misc_categoryD2Ev
	.weak	_ZN4asio5error6detail13misc_categoryD1Ev
	.set	_ZN4asio5error6detail13misc_categoryD1Ev,_ZN4asio5error6detail13misc_categoryD2Ev
	.section	.text._ZN4asio5error6detail13misc_categoryD0Ev,"axG",@progbits,_ZN4asio5error6detail13misc_categoryD5Ev,comdat
	.align	2
	.p2align 4,,11
	.weak	_ZN4asio5error6detail13misc_categoryD0Ev
	.type	_ZN4asio5error6detail13misc_categoryD0Ev, %function
_ZN4asio5error6detail13misc_categoryD0Ev:
.LFB9489:
	.cfi_startproc
	stp	x29, x30, [sp, -32]!
	.cfi_def_cfa_offset 32
	.cfi_offset 29, -32
	.cfi_offset 30, -24
	adrp	x1, :got:_ZTVN4asio5error6detail13misc_categoryE
	mov	x29, sp
	ldr	x1, [x1, #:got_lo12:_ZTVN4asio5error6detail13misc_categoryE]
	str	x19, [sp, 16]
	.cfi_offset 19, -16
	mov	x19, x0
	add	x1, x1, 16
	str	x1, [x0]
	bl	_ZNSt3_V214error_categoryD2Ev
	mov	x0, x19
	mov	x1, 8
	ldr	x19, [sp, 16]
	ldp	x29, x30, [sp], 32
	.cfi_restore 30
	.cfi_restore 29
	.cfi_restore 19
	.cfi_def_cfa_offset 0
	b	_ZdlPvm
	.cfi_endproc
.LFE9489:
	.size	_ZN4asio5error6detail13misc_categoryD0Ev, .-_ZN4asio5error6detail13misc_categoryD0Ev
	.section	.text._ZN4asio5error6detail14netdb_categoryD2Ev,"axG",@progbits,_ZN4asio5error6detail14netdb_categoryD5Ev,comdat
	.align	2
	.p2align 4,,11
	.weak	_ZN4asio5error6detail14netdb_categoryD2Ev
	.type	_ZN4asio5error6detail14netdb_categoryD2Ev, %function
_ZN4asio5error6detail14netdb_categoryD2Ev:
.LFB9495:
	.cfi_startproc
	adrp	x1, :got:_ZTVN4asio5error6detail14netdb_categoryE
	ldr	x1, [x1, #:got_lo12:_ZTVN4asio5error6detail14netdb_categoryE]
	add	x1, x1, 16
	str	x1, [x0]
	b	_ZNSt3_V214error_categoryD2Ev
	.cfi_endproc
.LFE9495:
	.size	_ZN4asio5error6detail14netdb_categoryD2Ev, .-_ZN4asio5error6detail14netdb_categoryD2Ev
	.weak	_ZN4asio5error6detail14netdb_categoryD1Ev
	.set	_ZN4asio5error6detail14netdb_categoryD1Ev,_ZN4asio5error6detail14netdb_categoryD2Ev
	.section	.text._ZN4asio5error6detail14netdb_categoryD0Ev,"axG",@progbits,_ZN4asio5error6detail14netdb_categoryD5Ev,comdat
	.align	2
	.p2align 4,,11
	.weak	_ZN4asio5error6detail14netdb_categoryD0Ev
	.type	_ZN4asio5error6detail14netdb_categoryD0Ev, %function
_ZN4asio5error6detail14netdb_categoryD0Ev:
.LFB9497:
	.cfi_startproc
	stp	x29, x30, [sp, -32]!
	.cfi_def_cfa_offset 32
	.cfi_offset 29, -32
	.cfi_offset 30, -24
	adrp	x1, :got:_ZTVN4asio5error6detail14netdb_categoryE
	mov	x29, sp
	ldr	x1, [x1, #:got_lo12:_ZTVN4asio5error6detail14netdb_categoryE]
	str	x19, [sp, 16]
	.cfi_offset 19, -16
	mov	x19, x0
	add	x1, x1, 16
	str	x1, [x0]
	bl	_ZNSt3_V214error_categoryD2Ev
	mov	x0, x19
	mov	x1, 8
	ldr	x19, [sp, 16]
	ldp	x29, x30, [sp], 32
	.cfi_restore 30
	.cfi_restore 29
	.cfi_restore 19
	.cfi_def_cfa_offset 0
	b	_ZdlPvm
	.cfi_endproc
.LFE9497:
	.size	_ZN4asio5error6detail14netdb_categoryD0Ev, .-_ZN4asio5error6detail14netdb_categoryD0Ev
	.section	.text._ZN4asio5error6detail17addrinfo_categoryD2Ev,"axG",@progbits,_ZN4asio5error6detail17addrinfo_categoryD5Ev,comdat
	.align	2
	.p2align 4,,11
	.weak	_ZN4asio5error6detail17addrinfo_categoryD2Ev
	.type	_ZN4asio5error6detail17addrinfo_categoryD2Ev, %function
_ZN4asio5error6detail17addrinfo_categoryD2Ev:
.LFB9491:
	.cfi_startproc
	adrp	x1, :got:_ZTVN4asio5error6detail17addrinfo_categoryE
	ldr	x1, [x1, #:got_lo12:_ZTVN4asio5error6detail17addrinfo_categoryE]
	add	x1, x1, 16
	str	x1, [x0]
	b	_ZNSt3_V214error_categoryD2Ev
	.cfi_endproc
.LFE9491:
	.size	_ZN4asio5error6detail17addrinfo_categoryD2Ev, .-_ZN4asio5error6detail17addrinfo_categoryD2Ev
	.weak	_ZN4asio5error6detail17addrinfo_categoryD1Ev
	.set	_ZN4asio5error6detail17addrinfo_categoryD1Ev,_ZN4asio5error6detail17addrinfo_categoryD2Ev
	.section	.text._ZN4asio5error6detail17addrinfo_categoryD0Ev,"axG",@progbits,_ZN4asio5error6detail17addrinfo_categoryD5Ev,comdat
	.align	2
	.p2align 4,,11
	.weak	_ZN4asio5error6detail17addrinfo_categoryD0Ev
	.type	_ZN4asio5error6detail17addrinfo_categoryD0Ev, %function
_ZN4asio5error6detail17addrinfo_categoryD0Ev:
.LFB9493:
	.cfi_startproc
	stp	x29, x30, [sp, -32]!
	.cfi_def_cfa_offset 32
	.cfi_offset 29, -32
	.cfi_offset 30, -24
	adrp	x1, :got:_ZTVN4asio5error6detail17addrinfo_categoryE
	mov	x29, sp
	ldr	x1, [x1, #:got_lo12:_ZTVN4asio5error6detail17addrinfo_categoryE]
	str	x19, [sp, 16]
	.cfi_offset 19, -16
	mov	x19, x0
	add	x1, x1, 16
	str	x1, [x0]
	bl	_ZNSt3_V214error_categoryD2Ev
	mov	x0, x19
	mov	x1, 8
	ldr	x19, [sp, 16]
	ldp	x29, x30, [sp], 32
	.cfi_restore 30
	.cfi_restore 29
	.cfi_restore 19
	.cfi_def_cfa_offset 0
	b	_ZdlPvm
	.cfi_endproc
.LFE9493:
	.size	_ZN4asio5error6detail17addrinfo_categoryD0Ev, .-_ZN4asio5error6detail17addrinfo_categoryD0Ev
	.section	.text._ZN4asio6detail7tss_ptrINS0_10call_stackINS0_15task_io_serviceENS0_27task_io_service_thread_infoEE7contextEED2Ev,"axG",@progbits,_ZN4asio6detail7tss_ptrINS0_10call_stackINS0_15task_io_serviceENS0_27task_io_service_thread_infoEE7contextEED5Ev,comdat
	.align	2
	.p2align 4,,11
	.weak	_ZN4asio6detail7tss_ptrINS0_10call_stackINS0_15task_io_serviceENS0_27task_io_service_thread_infoEE7contextEED2Ev
	.type	_ZN4asio6detail7tss_ptrINS0_10call_stackINS0_15task_io_serviceENS0_27task_io_service_thread_infoEE7contextEED2Ev, %function
_ZN4asio6detail7tss_ptrINS0_10call_stackINS0_15task_io_serviceENS0_27task_io_service_thread_infoEE7contextEED2Ev:
.LFB9520:
	.cfi_startproc
	ldr	w0, [x0]
	b	pthread_key_delete
	.cfi_endproc
.LFE9520:
	.size	_ZN4asio6detail7tss_ptrINS0_10call_stackINS0_15task_io_serviceENS0_27task_io_service_thread_infoEE7contextEED2Ev, .-_ZN4asio6detail7tss_ptrINS0_10call_stackINS0_15task_io_serviceENS0_27task_io_service_thread_infoEE7contextEED2Ev
	.weak	_ZN4asio6detail7tss_ptrINS0_10call_stackINS0_15task_io_serviceENS0_27task_io_service_thread_infoEE7contextEED1Ev
	.set	_ZN4asio6detail7tss_ptrINS0_10call_stackINS0_15task_io_serviceENS0_27task_io_service_thread_infoEE7contextEED1Ev,_ZN4asio6detail7tss_ptrINS0_10call_stackINS0_15task_io_serviceENS0_27task_io_service_thread_infoEE7contextEED2Ev
	.section	.text._ZN4asio6detail7tss_ptrINS0_10call_stackINS0_14strand_service11strand_implEhE7contextEED2Ev,"axG",@progbits,_ZN4asio6detail7tss_ptrINS0_10call_stackINS0_14strand_service11strand_implEhE7contextEED5Ev,comdat
	.align	2
	.p2align 4,,11
	.weak	_ZN4asio6detail7tss_ptrINS0_10call_stackINS0_14strand_service11strand_implEhE7contextEED2Ev
	.type	_ZN4asio6detail7tss_ptrINS0_10call_stackINS0_14strand_service11strand_implEhE7contextEED2Ev, %function
_ZN4asio6detail7tss_ptrINS0_10call_stackINS0_14strand_service11strand_implEhE7contextEED2Ev:
.LFB9529:
	.cfi_startproc
	ldr	w0, [x0]
	b	pthread_key_delete
	.cfi_endproc
.LFE9529:
	.size	_ZN4asio6detail7tss_ptrINS0_10call_stackINS0_14strand_service11strand_implEhE7contextEED2Ev, .-_ZN4asio6detail7tss_ptrINS0_10call_stackINS0_14strand_service11strand_implEhE7contextEED2Ev
	.weak	_ZN4asio6detail7tss_ptrINS0_10call_stackINS0_14strand_service11strand_implEhE7contextEED1Ev
	.set	_ZN4asio6detail7tss_ptrINS0_10call_stackINS0_14strand_service11strand_implEhE7contextEED1Ev,_ZN4asio6detail7tss_ptrINS0_10call_stackINS0_14strand_service11strand_implEhE7contextEED2Ev
	.section	.text.unlikely,"ax",@progbits
	.align	2
	.type	_ZN4asio6detail18completion_handlerINS0_7binder2IZN7asiopal13SocketChannel13BeginReadImplEN7openpal6WSliceEEUlRKSt10error_codemE_S7_mEEE3ptr5resetEv, %function
_ZN4asio6detail18completion_handlerINS0_7binder2IZN7asiopal13SocketChannel13BeginReadImplEN7openpal6WSliceEEUlRKSt10error_codemE_S7_mEEE3ptr5resetEv:
.LFB9433:
	.cfi_startproc
	stp	x29, x30, [sp, -32]!
	.cfi_def_cfa_offset 32
	.cfi_offset 29, -32
	.cfi_offset 30, -24
	mov	x29, sp
	stp	x19, x20, [sp, 16]
	.cfi_offset 19, -16
	.cfi_offset 20, -8
	mov	x19, x0
	ldr	x0, [x0, 16]
	cbz	x0, .L24
	str	xzr, [x19, 16]
.L24:
	ldr	x20, [x19, 8]
	cbz	x20, .L23
	adrp	x0, :got:_ZN4asio6detail10call_stackINS0_15task_io_serviceENS0_27task_io_service_thread_infoEE4top_E
	ldr	x0, [x0, #:got_lo12:_ZN4asio6detail10call_stackINS0_15task_io_serviceENS0_27task_io_service_thread_infoEE4top_E]
	ldr	w0, [x0]
	bl	pthread_getspecific
	cbz	x0, .L26
	ldr	x0, [x0, 8]
	cbz	x0, .L26
	ldr	x1, [x0]
	cbnz	x1, .L26
	ldrb	w1, [x20, 56]
	strb	w1, [x20]
	str	x20, [x0]
	b	.L27
.L26:
	mov	x0, x20
	bl	_ZdlPv
.L27:
	str	xzr, [x19, 8]
.L23:
	ldp	x19, x20, [sp, 16]
	ldp	x29, x30, [sp], 32
	.cfi_restore 30
	.cfi_restore 29
	.cfi_restore 19
	.cfi_restore 20
	.cfi_def_cfa_offset 0
	ret
	.cfi_endproc
.LFE9433:
	.size	_ZN4asio6detail18completion_handlerINS0_7binder2IZN7asiopal13SocketChannel13BeginReadImplEN7openpal6WSliceEEUlRKSt10error_codemE_S7_mEEE3ptr5resetEv, .-_ZN4asio6detail18completion_handlerINS0_7binder2IZN7asiopal13SocketChannel13BeginReadImplEN7openpal6WSliceEEUlRKSt10error_codemE_S7_mEEE3ptr5resetEv
	.align	2
	.type	_ZN4asio6detail18completion_handlerINS0_17rewrapped_handlerINS0_7binder2INS0_15wrapped_handlerINS_10io_service6strandEZN7asiopal13SocketChannel13BeginReadImplEN7openpal6WSliceEEUlRKSt10error_codemE_NS0_26is_continuation_if_runningEEESB_mEESE_EEE3ptr5resetEv, %function
_ZN4asio6detail18completion_handlerINS0_17rewrapped_handlerINS0_7binder2INS0_15wrapped_handlerINS_10io_service6strandEZN7asiopal13SocketChannel13BeginReadImplEN7openpal6WSliceEEUlRKSt10error_codemE_NS0_26is_continuation_if_runningEEESB_mEESE_EEE3ptr5resetEv:
.LFB9347:
	.cfi_startproc
	stp	x29, x30, [sp, -32]!
	.cfi_def_cfa_offset 32
	.cfi_offset 29, -32
	.cfi_offset 30, -24
	mov	x29, sp
	stp	x19, x20, [sp, 16]
	.cfi_offset 19, -16
	.cfi_offset 20, -8
	mov	x19, x0
	ldr	x0, [x0, 16]
	cbz	x0, .L42
	str	xzr, [x19, 16]
.L42:
	ldr	x20, [x19, 8]
	cbz	x20, .L41
	adrp	x0, :got:_ZN4asio6detail10call_stackINS0_15task_io_serviceENS0_27task_io_service_thread_infoEE4top_E
	ldr	x0, [x0, #:got_lo12:_ZN4asio6detail10call_stackINS0_15task_io_serviceENS0_27task_io_service_thread_infoEE4top_E]
	ldr	w0, [x0]
	bl	pthread_getspecific
	cbz	x0, .L44
	ldr	x0, [x0, 8]
	cbz	x0, .L44
	ldr	x1, [x0]
	cbnz	x1, .L44
	ldrb	w1, [x20, 80]
	strb	w1, [x20]
	str	x20, [x0]
	b	.L45
.L44:
	mov	x0, x20
	bl	_ZdlPv
.L45:
	str	xzr, [x19, 8]
.L41:
	ldp	x19, x20, [sp, 16]
	ldp	x29, x30, [sp], 32
	.cfi_restore 30
	.cfi_restore 29
	.cfi_restore 19
	.cfi_restore 20
	.cfi_def_cfa_offset 0
	ret
	.cfi_endproc
.LFE9347:
	.size	_ZN4asio6detail18completion_handlerINS0_17rewrapped_handlerINS0_7binder2INS0_15wrapped_handlerINS_10io_service6strandEZN7asiopal13SocketChannel13BeginReadImplEN7openpal6WSliceEEUlRKSt10error_codemE_NS0_26is_continuation_if_runningEEESB_mEESE_EEE3ptr5resetEv, .-_ZN4asio6detail18completion_handlerINS0_17rewrapped_handlerINS0_7binder2INS0_15wrapped_handlerINS_10io_service6strandEZN7asiopal13SocketChannel13BeginReadImplEN7openpal6WSliceEEUlRKSt10error_codemE_NS0_26is_continuation_if_runningEEESB_mEESE_EEE3ptr5resetEv
	.align	2
	.type	_ZN4asio6detail23reactive_socket_recv_opINS_17mutable_buffers_1ENS0_15wrapped_handlerINS_10io_service6strandEZN7asiopal13SocketChannel13BeginReadImplEN7openpal6WSliceEEUlRKSt10error_codemE_NS0_26is_continuation_if_runningEEEE3ptr5resetEv, %function
_ZN4asio6detail23reactive_socket_recv_opINS_17mutable_buffers_1ENS0_15wrapped_handlerINS_10io_service6strandEZN7asiopal13SocketChannel13BeginReadImplEN7openpal6WSliceEEUlRKSt10error_codemE_NS0_26is_continuation_if_runningEEEE3ptr5resetEv:
.LFB8846:
	.cfi_startproc
	stp	x29, x30, [sp, -32]!
	.cfi_def_cfa_offset 32
	.cfi_offset 29, -32
	.cfi_offset 30, -24
	mov	x29, sp
	stp	x19, x20, [sp, 16]
	.cfi_offset 19, -16
	.cfi_offset 20, -8
	mov	x19, x0
	ldr	x0, [x0, 16]
	cbz	x0, .L60
	str	xzr, [x19, 16]
.L60:
	ldr	x20, [x19, 8]
	cbz	x20, .L59
	adrp	x0, :got:_ZN4asio6detail10call_stackINS0_15task_io_serviceENS0_27task_io_service_thread_infoEE4top_E
	ldr	x0, [x0, #:got_lo12:_ZN4asio6detail10call_stackINS0_15task_io_serviceENS0_27task_io_service_thread_infoEE4top_E]
	ldr	w0, [x0]
	bl	pthread_getspecific
	cbz	x0, .L62
	ldr	x0, [x0, 8]
	cbz	x0, .L62
	ldr	x1, [x0]
	cbnz	x1, .L62
	ldrb	w1, [x20, 112]
	strb	w1, [x20]
	str	x20, [x0]
	b	.L63
.L62:
	mov	x0, x20
	bl	_ZdlPv
.L63:
	str	xzr, [x19, 8]
.L59:
	ldp	x19, x20, [sp, 16]
	ldp	x29, x30, [sp], 32
	.cfi_restore 30
	.cfi_restore 29
	.cfi_restore 19
	.cfi_restore 20
	.cfi_def_cfa_offset 0
	ret
	.cfi_endproc
.LFE8846:
	.size	_ZN4asio6detail23reactive_socket_recv_opINS_17mutable_buffers_1ENS0_15wrapped_handlerINS_10io_service6strandEZN7asiopal13SocketChannel13BeginReadImplEN7openpal6WSliceEEUlRKSt10error_codemE_NS0_26is_continuation_if_runningEEEE3ptr5resetEv, .-_ZN4asio6detail23reactive_socket_recv_opINS_17mutable_buffers_1ENS0_15wrapped_handlerINS_10io_service6strandEZN7asiopal13SocketChannel13BeginReadImplEN7openpal6WSliceEEUlRKSt10error_codemE_NS0_26is_continuation_if_runningEEEE3ptr5resetEv
	.align	2
	.type	_ZN4asio6detail18completion_handlerINS0_17rewrapped_handlerINS0_7binder2INS0_8write_opINS_19basic_stream_socketINS_2ip3tcpENS_21stream_socket_serviceIS7_EEEENS_15const_buffers_1ENS0_14transfer_all_tENS0_15wrapped_handlerINS_10io_service6strandEZN7asiopal13SocketChannel14BeginWriteImplERKN7openpal6RSliceEEUlRKSt10error_codemE_NS0_26is_continuation_if_runningEEEEESM_mEESP_EEE3ptr5resetEv, %function
_ZN4asio6detail18completion_handlerINS0_17rewrapped_handlerINS0_7binder2INS0_8write_opINS_19basic_stream_socketINS_2ip3tcpENS_21stream_socket_serviceIS7_EEEENS_15const_buffers_1ENS0_14transfer_all_tENS0_15wrapped_handlerINS_10io_service6strandEZN7asiopal13SocketChannel14BeginWriteImplERKN7openpal6RSliceEEUlRKSt10error_codemE_NS0_26is_continuation_if_runningEEEEESM_mEESP_EEE3ptr5resetEv:
.LFB9396:
	.cfi_startproc
	stp	x29, x30, [sp, -32]!
	.cfi_def_cfa_offset 32
	.cfi_offset 29, -32
	.cfi_offset 30, -24
	mov	x29, sp
	stp	x19, x20, [sp, 16]
	.cfi_offset 19, -16
	.cfi_offset 20, -8
	mov	x19, x0
	ldr	x0, [x0, 16]
	cbz	x0, .L78
	str	xzr, [x19, 16]
.L78:
	ldr	x20, [x19, 8]
	cbz	x20, .L77
	adrp	x0, :got:_ZN4asio6detail10call_stackINS0_15task_io_serviceENS0_27task_io_service_thread_infoEE4top_E
	ldr	x0, [x0, #:got_lo12:_ZN4asio6detail10call_stackINS0_15task_io_serviceENS0_27task_io_service_thread_infoEE4top_E]
	ldr	w0, [x0]
	bl	pthread_getspecific
	cbz	x0, .L80
	ldr	x0, [x0, 8]
	cbz	x0, .L80
	ldr	x1, [x0]
	cbnz	x1, .L80
	ldrb	w1, [x20, 120]
	strb	w1, [x20]
	str	x20, [x0]
	b	.L81
.L80:
	mov	x0, x20
	bl	_ZdlPv
.L81:
	str	xzr, [x19, 8]
.L77:
	ldp	x19, x20, [sp, 16]
	ldp	x29, x30, [sp], 32
	.cfi_restore 30
	.cfi_restore 29
	.cfi_restore 19
	.cfi_restore 20
	.cfi_def_cfa_offset 0
	ret
	.cfi_endproc
.LFE9396:
	.size	_ZN4asio6detail18completion_handlerINS0_17rewrapped_handlerINS0_7binder2INS0_8write_opINS_19basic_stream_socketINS_2ip3tcpENS_21stream_socket_serviceIS7_EEEENS_15const_buffers_1ENS0_14transfer_all_tENS0_15wrapped_handlerINS_10io_service6strandEZN7asiopal13SocketChannel14BeginWriteImplERKN7openpal6RSliceEEUlRKSt10error_codemE_NS0_26is_continuation_if_runningEEEEESM_mEESP_EEE3ptr5resetEv, .-_ZN4asio6detail18completion_handlerINS0_17rewrapped_handlerINS0_7binder2INS0_8write_opINS_19basic_stream_socketINS_2ip3tcpENS_21stream_socket_serviceIS7_EEEENS_15const_buffers_1ENS0_14transfer_all_tENS0_15wrapped_handlerINS_10io_service6strandEZN7asiopal13SocketChannel14BeginWriteImplERKN7openpal6RSliceEEUlRKSt10error_codemE_NS0_26is_continuation_if_runningEEEEESM_mEESP_EEE3ptr5resetEv
	.align	2
	.type	_ZN4asio6detail23reactive_socket_send_opINS_15const_buffers_1ENS0_8write_opINS_19basic_stream_socketINS_2ip3tcpENS_21stream_socket_serviceIS6_EEEES2_NS0_14transfer_all_tENS0_15wrapped_handlerINS_10io_service6strandEZN7asiopal13SocketChannel14BeginWriteImplERKN7openpal6RSliceEEUlRKSt10error_codemE_NS0_26is_continuation_if_runningEEEEEE3ptr5resetEv, %function
_ZN4asio6detail23reactive_socket_send_opINS_15const_buffers_1ENS0_8write_opINS_19basic_stream_socketINS_2ip3tcpENS_21stream_socket_serviceIS6_EEEES2_NS0_14transfer_all_tENS0_15wrapped_handlerINS_10io_service6strandEZN7asiopal13SocketChannel14BeginWriteImplERKN7openpal6RSliceEEUlRKSt10error_codemE_NS0_26is_continuation_if_runningEEEEEE3ptr5resetEv:
.LFB9206:
	.cfi_startproc
	stp	x29, x30, [sp, -32]!
	.cfi_def_cfa_offset 32
	.cfi_offset 29, -32
	.cfi_offset 30, -24
	mov	x29, sp
	stp	x19, x20, [sp, 16]
	.cfi_offset 19, -16
	.cfi_offset 20, -8
	mov	x19, x0
	ldr	x0, [x0, 16]
	cbz	x0, .L96
	str	xzr, [x19, 16]
.L96:
	ldr	x20, [x19, 8]
	cbz	x20, .L95
	adrp	x0, :got:_ZN4asio6detail10call_stackINS0_15task_io_serviceENS0_27task_io_service_thread_infoEE4top_E
	ldr	x0, [x0, #:got_lo12:_ZN4asio6detail10call_stackINS0_15task_io_serviceENS0_27task_io_service_thread_infoEE4top_E]
	ldr	w0, [x0]
	bl	pthread_getspecific
	cbz	x0, .L98
	ldr	x0, [x0, 8]
	cbz	x0, .L98
	ldr	x1, [x0]
	cbnz	x1, .L98
	ldrb	w1, [x20, 152]
	strb	w1, [x20]
	str	x20, [x0]
	b	.L99
.L98:
	mov	x0, x20
	bl	_ZdlPv
.L99:
	str	xzr, [x19, 8]
.L95:
	ldp	x19, x20, [sp, 16]
	ldp	x29, x30, [sp], 32
	.cfi_restore 30
	.cfi_restore 29
	.cfi_restore 19
	.cfi_restore 20
	.cfi_def_cfa_offset 0
	ret
	.cfi_endproc
.LFE9206:
	.size	_ZN4asio6detail23reactive_socket_send_opINS_15const_buffers_1ENS0_8write_opINS_19basic_stream_socketINS_2ip3tcpENS_21stream_socket_serviceIS6_EEEES2_NS0_14transfer_all_tENS0_15wrapped_handlerINS_10io_service6strandEZN7asiopal13SocketChannel14BeginWriteImplERKN7openpal6RSliceEEUlRKSt10error_codemE_NS0_26is_continuation_if_runningEEEEEE3ptr5resetEv, .-_ZN4asio6detail23reactive_socket_send_opINS_15const_buffers_1ENS0_8write_opINS_19basic_stream_socketINS_2ip3tcpENS_21stream_socket_serviceIS6_EEEES2_NS0_14transfer_all_tENS0_15wrapped_handlerINS_10io_service6strandEZN7asiopal13SocketChannel14BeginWriteImplERKN7openpal6RSliceEEUlRKSt10error_codemE_NS0_26is_continuation_if_runningEEEEEE3ptr5resetEv
	.global	__aarch64_swp4_sync
	.text
	.align	2
	.p2align 4,,11
	.type	_ZN4asio6detail18completion_handlerINS0_7binder2IZN7asiopal13SocketChannel13BeginReadImplEN7openpal6WSliceEEUlRKSt10error_codemE_S7_mEEE11do_completeEPNS0_15task_io_serviceEPNS0_25task_io_service_operationES9_m, %function
_ZN4asio6detail18completion_handlerINS0_7binder2IZN7asiopal13SocketChannel13BeginReadImplEN7openpal6WSliceEEUlRKSt10error_codemE_S7_mEEE11do_completeEPNS0_15task_io_serviceEPNS0_25task_io_service_operationES9_m:
.LFB9429:
	.cfi_startproc
	.cfi_personality 0x9b,DW.ref.__gxx_personality_v0
	.cfi_lsda 0x1b,.LLSDA9429
	stp	x29, x30, [sp, -128]!
	.cfi_def_cfa_offset 128
	.cfi_offset 29, -128
	.cfi_offset 30, -120
	adrp	x2, :got:__stack_chk_guard
	mov	x29, sp
	stp	x19, x20, [sp, 16]
	.cfi_offset 19, -112
	.cfi_offset 20, -104
	mov	x19, x1
	mov	x20, x0
	ldr	q0, [x1, 24]
	add	x1, sp, 88
	ldr	q1, [x19, 40]
	str	x21, [sp, 32]
	.cfi_offset 21, -96
	adrp	x21, :got:_ZN4asio6detail10call_stackINS0_15task_io_serviceENS0_27task_io_service_thread_infoEE4top_E
	ldr	x2, [x2, #:got_lo12:__stack_chk_guard]
	ldr	x3, [x21, #:got_lo12:_ZN4asio6detail10call_stackINS0_15task_io_serviceENS0_27task_io_service_thread_infoEE4top_E]
	ldr	w0, [x3]
	ldr	x3, [x2]
	str	x3, [sp, 120]
	mov	x3, 0
	stp	q0, q1, [x1]
	stp	x1, x19, [sp, 64]
	str	xzr, [sp, 80]
	bl	pthread_getspecific
	cbz	x0, .L114
	ldr	x0, [x0, 8]
	cbz	x0, .L114
	ldr	x1, [x0]
	cbz	x1, .L146
.L114:
	mov	x0, x19
	bl	_ZdlPv
.L115:
	str	xzr, [sp, 72]
	cbz	x20, .L113
	add	x19, sp, 56
	mov	w0, 1
	mov	x1, x19
	str	wzr, [sp, 56]
	bl	__aarch64_swp4_sync
	ldr	x1, [sp, 88]
	ldr	x2, [sp, 112]
	ldr	x0, [x1, 40]
	strb	wzr, [x1, 57]
	cbz	x0, .L120
	ldrb	w1, [x1, 56]
	cbnz	w1, .L120
	ldr	x3, [x0]
	add	x1, sp, 96
	ldr	x3, [x3, 16]
.LEHB0:
	blr	x3
.LEHE0:
.L120:
	stlr	wzr, [x19]
	ldr	x0, [sp, 80]
	cbz	x0, .L147
	ldr	x19, [sp, 72]
	str	xzr, [sp, 80]
.L121:
	cbz	x19, .L113
	ldr	x21, [x21, #:got_lo12:_ZN4asio6detail10call_stackINS0_15task_io_serviceENS0_27task_io_service_thread_infoEE4top_E]
	ldr	w0, [x21]
	bl	pthread_getspecific
	cbz	x0, .L122
	ldr	x0, [x0, 8]
	cbz	x0, .L122
	ldr	x1, [x0]
	cbz	x1, .L148
.L122:
	mov	x0, x19
	bl	_ZdlPv
.L113:
	adrp	x0, :got:__stack_chk_guard
	ldr	x0, [x0, #:got_lo12:__stack_chk_guard]
	ldr	x2, [sp, 120]
	ldr	x1, [x0]
	subs	x2, x2, x1
	mov	x1, 0
	bne	.L149
	ldp	x19, x20, [sp, 16]
	ldr	x21, [sp, 32]
	ldp	x29, x30, [sp], 128
	.cfi_remember_state
	.cfi_restore 30
	.cfi_restore 29
	.cfi_restore 21
	.cfi_restore 19
	.cfi_restore 20
	.cfi_def_cfa_offset 0
	ret
	.p2align 2,,3
.L146:
	.cfi_restore_state
	ldrb	w1, [x19, 56]
	strb	w1, [x19]
	str	x19, [x0]
	b	.L115
	.p2align 2,,3
.L148:
	ldrb	w1, [x19, 56]
	strb	w1, [x19]
	str	x19, [x0]
	b	.L113
.L149:
	bl	__stack_chk_fail
.L147:
	ldr	x19, [sp, 72]
	b	.L121
.L125:
	mov	x20, x0
	stlr	wzr, [x19]
	add	x0, sp, 64
	bl	_ZN4asio6detail18completion_handlerINS0_7binder2IZN7asiopal13SocketChannel13BeginReadImplEN7openpal6WSliceEEUlRKSt10error_codemE_S7_mEEE3ptr5resetEv
	mov	x0, x20
.LEHB1:
	bl	_Unwind_Resume
.LEHE1:
	.cfi_endproc
.LFE9429:
	.global	__gxx_personality_v0
	.section	.gcc_except_table,"a",@progbits
.LLSDA9429:
	.byte	0xff
	.byte	0xff
	.byte	0x1
	.uleb128 .LLSDACSE9429-.LLSDACSB9429
.LLSDACSB9429:
	.uleb128 .LEHB0-.LFB9429
	.uleb128 .LEHE0-.LEHB0
	.uleb128 .L125-.LFB9429
	.uleb128 0
	.uleb128 .LEHB1-.LFB9429
	.uleb128 .LEHE1-.LEHB1
	.uleb128 0
	.uleb128 0
.LLSDACSE9429:
	.text
	.size	_ZN4asio6detail18completion_handlerINS0_7binder2IZN7asiopal13SocketChannel13BeginReadImplEN7openpal6WSliceEEUlRKSt10error_codemE_S7_mEEE11do_completeEPNS0_15task_io_serviceEPNS0_25task_io_service_operationES9_m, .-_ZN4asio6detail18completion_handlerINS0_7binder2IZN7asiopal13SocketChannel13BeginReadImplEN7openpal6WSliceEEUlRKSt10error_codemE_S7_mEEE11do_completeEPNS0_15task_io_serviceEPNS0_25task_io_service_operationES9_m
	.align	2
	.p2align 4,,11
	.type	_ZN4asio6detail18completion_handlerINS0_7binder2IZN7asiopal13SocketChannel14BeginWriteImplERKN7openpal6RSliceEEUlRKSt10error_codemE_S9_mEEE11do_completeEPNS0_15task_io_serviceEPNS0_25task_io_service_operationESB_m, %function
_ZN4asio6detail18completion_handlerINS0_7binder2IZN7asiopal13SocketChannel14BeginWriteImplERKN7openpal6RSliceEEUlRKSt10error_codemE_S9_mEEE11do_completeEPNS0_15task_io_serviceEPNS0_25task_io_service_operationESB_m:
.LFB9084:
	.cfi_startproc
	.cfi_personality 0x9b,DW.ref.__gxx_personality_v0
	.cfi_lsda 0x1b,.LLSDA9084
	stp	x29, x30, [sp, -80]!
	.cfi_def_cfa_offset 80
	.cfi_offset 29, -80
	.cfi_offset 30, -72
	adrp	x2, :got:_ZN4asio6detail10call_stackINS0_15task_io_serviceENS0_27task_io_service_thread_infoEE4top_E
	mov	x29, sp
	ldr	x2, [x2, #:got_lo12:_ZN4asio6detail10call_stackINS0_15task_io_serviceENS0_27task_io_service_thread_infoEE4top_E]
	stp	x19, x20, [sp, 16]
	.cfi_offset 19, -64
	.cfi_offset 20, -56
	mov	x19, x1
	adrp	x1, :got:__stack_chk_guard
	mov	x20, x0
	ldr	w0, [x2]
	ldr	x1, [x1, #:got_lo12:__stack_chk_guard]
	ldr	q0, [x19, 24]
	ldr	x2, [x1]
	str	x2, [sp, 72]
	mov	x2, 0
	ldr	q1, [x19, 40]
	add	x1, sp, 40
	stp	q0, q1, [x1]
	bl	pthread_getspecific
	cbz	x0, .L151
	ldr	x0, [x0, 8]
	cbz	x0, .L151
	ldr	x1, [x0]
	cbz	x1, .L169
.L151:
	mov	x0, x19
	bl	_ZdlPv
.L152:
	cbz	x20, .L150
	add	x19, sp, 32
	mov	w0, 1
	mov	x1, x19
	str	wzr, [sp, 32]
	bl	__aarch64_swp4_sync
	ldr	x1, [sp, 40]
	ldr	x2, [sp, 64]
	ldr	x0, [x1, 40]
	strb	wzr, [x1, 58]
	cbz	x0, .L155
	ldrb	w1, [x1, 56]
	cbnz	w1, .L155
	ldr	x3, [x0]
	add	x1, sp, 48
	ldr	x3, [x3, 24]
.LEHB2:
	blr	x3
.LEHE2:
.L155:
	stlr	wzr, [x19]
.L150:
	adrp	x0, :got:__stack_chk_guard
	ldr	x0, [x0, #:got_lo12:__stack_chk_guard]
	ldr	x2, [sp, 72]
	ldr	x1, [x0]
	subs	x2, x2, x1
	mov	x1, 0
	bne	.L170
	ldp	x19, x20, [sp, 16]
	ldp	x29, x30, [sp], 80
	.cfi_remember_state
	.cfi_restore 30
	.cfi_restore 29
	.cfi_restore 19
	.cfi_restore 20
	.cfi_def_cfa_offset 0
	ret
	.p2align 2,,3
.L169:
	.cfi_restore_state
	ldrb	w1, [x19, 56]
	strb	w1, [x19]
	str	x19, [x0]
	b	.L152
.L170:
	bl	__stack_chk_fail
.L158:
	stlr	wzr, [x19]
.LEHB3:
	bl	_Unwind_Resume
.LEHE3:
	.cfi_endproc
.LFE9084:
	.section	.gcc_except_table
.LLSDA9084:
	.byte	0xff
	.byte	0xff
	.byte	0x1
	.uleb128 .LLSDACSE9084-.LLSDACSB9084
.LLSDACSB9084:
	.uleb128 .LEHB2-.LFB9084
	.uleb128 .LEHE2-.LEHB2
	.uleb128 .L158-.LFB9084
	.uleb128 0
	.uleb128 .LEHB3-.LFB9084
	.uleb128 .LEHE3-.LEHB3
	.uleb128 0
	.uleb128 0
.LLSDACSE9084:
	.text
	.size	_ZN4asio6detail18completion_handlerINS0_7binder2IZN7asiopal13SocketChannel14BeginWriteImplERKN7openpal6RSliceEEUlRKSt10error_codemE_S9_mEEE11do_completeEPNS0_15task_io_serviceEPNS0_25task_io_service_operationESB_m, .-_ZN4asio6detail18completion_handlerINS0_7binder2IZN7asiopal13SocketChannel14BeginWriteImplERKN7openpal6RSliceEEUlRKSt10error_codemE_S9_mEEE11do_completeEPNS0_15task_io_serviceEPNS0_25task_io_service_operationESB_m
	.section	.rodata._ZNK4asio6detail15system_category7messageB5cxx11Ei.str1.8,"aMS",@progbits,1
	.align	3
.LC4:
	.string	"Operation aborted."
	.align	3
.LC5:
	.string	"basic_string::_M_construct null not valid"
	.section	.text._ZNK4asio6detail15system_category7messageB5cxx11Ei,"axG",@progbits,_ZNK4asio6detail15system_category7messageB5cxx11Ei,comdat
	.align	2
	.p2align 4,,11
	.weak	_ZNK4asio6detail15system_category7messageB5cxx11Ei
	.type	_ZNK4asio6detail15system_category7messageB5cxx11Ei, %function
_ZNK4asio6detail15system_category7messageB5cxx11Ei:
.LFB2276:
	.cfi_startproc
	stp	x29, x30, [sp, -320]!
	.cfi_def_cfa_offset 320
	.cfi_offset 29, -320
	.cfi_offset 30, -312
	adrp	x0, :got:__stack_chk_guard
	mov	x29, sp
	ldr	x2, [x0, #:got_lo12:__stack_chk_guard]
	stp	x19, x20, [sp, 16]
	mov	w0, w1
	stp	x21, x22, [sp, 32]
	.cfi_offset 19, -304
	.cfi_offset 20, -296
	.cfi_offset 21, -288
	.cfi_offset 22, -280
	mov	x19, x8
	add	x21, x8, 16
	ldr	x1, [x2]
	str	x1, [sp, 312]
	mov	x1, 0
	cmp	w0, 125
	beq	.L186
	movi	v0.4s, 0
	add	x3, sp, 72
	add	x1, sp, 56
	mov	x2, 256
	stp	xzr, xzr, [sp, 56]
	stp	q0, q0, [x3]
	stp	q0, q0, [x3, 32]
	stp	q0, q0, [x3, 64]
	stp	q0, q0, [x3, 96]
	stp	q0, q0, [x3, 128]
	stp	q0, q0, [x3, 160]
	stp	q0, q0, [x3, 192]
	str	q0, [x3, 224]
	bl	strerror_r
	mov	x22, x0
	str	x21, [x19]
	cbz	x0, .L174
	bl	strlen
	str	x0, [sp, 48]
	mov	x20, x0
	cmp	x0, 15
	bhi	.L187
	cmp	x0, 1
	bne	.L178
	ldrb	w0, [x22]
	strb	w0, [x19, 16]
.L179:
	str	x20, [x19, 8]
	strb	wzr, [x21, x20]
.L171:
	adrp	x0, :got:__stack_chk_guard
	ldr	x0, [x0, #:got_lo12:__stack_chk_guard]
	ldr	x2, [sp, 312]
	ldr	x1, [x0]
	subs	x2, x2, x1
	mov	x1, 0
	bne	.L188
	mov	x0, x19
	ldp	x19, x20, [sp, 16]
	ldp	x21, x22, [sp, 32]
	ldp	x29, x30, [sp], 320
	.cfi_remember_state
	.cfi_restore 30
	.cfi_restore 29
	.cfi_restore 21
	.cfi_restore 22
	.cfi_restore 19
	.cfi_restore 20
	.cfi_def_cfa_offset 0
	ret
	.p2align 2,,3
.L187:
	.cfi_restore_state
	add	x1, sp, 48
	mov	x0, x19
	mov	x2, 0
	bl	_ZNSt7__cxx1112basic_stringIcSt11char_traitsIcESaIcEE9_M_createERmm
	mov	x21, x0
	str	x0, [x19]
	ldr	x1, [sp, 48]
	str	x1, [x19, 16]
.L177:
	mov	x2, x20
	mov	x0, x21
	mov	x1, x22
	bl	memcpy
	ldr	x21, [x19]
	ldr	x20, [sp, 48]
	b	.L179
	.p2align 2,,3
.L186:
	mov	x3, 18
	str	x21, [x8]
	add	x1, sp, 48
	mov	x2, 0
	mov	x0, x8
	str	x3, [sp, 48]
	bl	_ZNSt7__cxx1112basic_stringIcSt11char_traitsIcESaIcEE9_M_createERmm
	str	x0, [x19]
	adrp	x1, .LC4
	add	x1, x1, :lo12:.LC4
	ldr	x2, [sp, 48]
	str	x2, [x19, 16]
	ldp	x2, x3, [x1]
	stp	x2, x3, [x0]
	ldrh	w1, [x1, 16]
	strh	w1, [x0, 16]
	ldr	x1, [x19]
	ldr	x0, [sp, 48]
	str	x0, [x19, 8]
	strb	wzr, [x1, x0]
	b	.L171
	.p2align 2,,3
.L178:
	cbz	x0, .L179
	b	.L177
.L174:
	adrp	x0, .LC5
	add	x0, x0, :lo12:.LC5
	bl	_ZSt19__throw_logic_errorPKc
.L188:
	bl	__stack_chk_fail
	.cfi_endproc
.LFE2276:
	.size	_ZNK4asio6detail15system_category7messageB5cxx11Ei, .-_ZNK4asio6detail15system_category7messageB5cxx11Ei
	.section	.text._ZN4asio6detail28reactive_socket_send_op_baseINS_15const_buffers_1EE10do_performEPNS0_10reactor_opE,"axG",@progbits,_ZN4asio6detail28reactive_socket_send_op_baseINS_15const_buffers_1EE10do_performEPNS0_10reactor_opE,comdat
	.align	2
	.p2align 4,,11
	.weak	_ZN4asio6detail28reactive_socket_send_op_baseINS_15const_buffers_1EE10do_performEPNS0_10reactor_opE
	.type	_ZN4asio6detail28reactive_socket_send_op_baseINS_15const_buffers_1EE10do_performEPNS0_10reactor_opE, %function
_ZN4asio6detail28reactive_socket_send_op_baseINS_15const_buffers_1EE10do_performEPNS0_10reactor_opE:
.LFB9288:
	.cfi_startproc
	stp	x29, x30, [sp, -224]!
	.cfi_def_cfa_offset 224
	.cfi_offset 29, -224
	.cfi_offset 30, -216
	adrp	x1, :got:__stack_chk_guard
	mov	x29, sp
	stp	x27, x28, [sp, 80]
	.cfi_offset 27, -144
	.cfi_offset 28, -136
	mov	x27, x0
	ldr	x1, [x1, #:got_lo12:__stack_chk_guard]
	stp	x19, x20, [sp, 16]
	ldr	w28, [x27, 56]
	ldr	d0, [x27, 72]
	stp	x21, x22, [sp, 32]
	.cfi_offset 19, -208
	.cfi_offset 20, -200
	.cfi_offset 21, -192
	.cfi_offset 22, -184
	add	x21, sp, 160
	stp	x23, x24, [sp, 48]
	adrp	x20, :got:_ZGVZN4asio15system_categoryEvE8instance
	adrp	x19, :got:_ZZN4asio15system_categoryEvE8instance
	dup	v0.2d, v0.d[0]
	stp	x25, x26, [sp, 64]
	.cfi_offset 23, -176
	.cfi_offset 24, -168
	.cfi_offset 25, -160
	.cfi_offset 26, -152
	adrp	x26, :got:_ZN4asio6detail15system_categoryD1Ev
	ldr	x0, [x1]
	str	x0, [sp, 216]
	mov	x0, 0
	adrp	x25, __dso_handle
	ldr	x0, [x27, 64]
	str	x0, [sp, 128]
	add	x0, sp, 128
	str	x0, [sp, 96]
	str	q0, [sp, 136]
	add	x25, x25, :lo12:__dso_handle
	bl	__errno_location
	ldr	w24, [x27, 80]
	mov	x23, x0
	orr	w24, w24, 16384
	ldr	x0, [x26, #:got_lo12:_ZN4asio6detail15system_categoryD1Ev]
	str	x0, [sp, 104]
.L198:
	movi	v0.4s, 0
	mov	x4, 1
	ldr	x3, [sp, 96]
	str	wzr, [x23]
	mov	w2, w24
	mov	x1, x21
	stp	q0, q0, [x21]
	mov	w0, w28
	str	q0, [x21, 32]
	str	xzr, [x21, 48]
	stp	x3, x4, [sp, 176]
	bl	sendmsg
	ldr	w5, [x23]
	ldr	x4, [x20, #:got_lo12:_ZGVZN4asio15system_categoryEvE8instance]
	mov	x22, x0
	ldar	x0, [x4]
	tbz	x0, 0, .L230
.L191:
	ldr	x0, [x19, #:got_lo12:_ZZN4asio15system_categoryEvE8instance]
	str	w5, [x27, 24]
	str	x0, [x27, 32]
	tbnz	x22, #63, .L193
	bl	_ZNSt3_V215system_categoryEv
	str	wzr, [x27, 24]
	str	x0, [x27, 32]
.L193:
	ldr	x4, [x20, #:got_lo12:_ZGVZN4asio15system_categoryEvE8instance]
	ldar	x0, [x4]
	tbz	x0, 0, .L231
.L195:
	ldr	x0, [x19, #:got_lo12:_ZZN4asio15system_categoryEvE8instance]
	ldr	x1, [x27, 32]
	cmp	x1, x0
	beq	.L232
.L197:
	ldr	x21, [x20, #:got_lo12:_ZGVZN4asio15system_categoryEvE8instance]
	ldar	x0, [x21]
	tbz	x0, 0, .L233
.L200:
	ldr	x0, [x19, #:got_lo12:_ZZN4asio15system_categoryEvE8instance]
	ldr	x1, [x27, 32]
	cmp	x1, x0
	beq	.L234
.L202:
	ldr	x20, [x20, #:got_lo12:_ZGVZN4asio15system_categoryEvE8instance]
	ldar	x0, [x20]
	tbz	x0, 0, .L235
.L205:
	ldr	x19, [x19, #:got_lo12:_ZZN4asio15system_categoryEvE8instance]
	ldr	x0, [x27, 32]
	cmp	x0, x19
	beq	.L236
.L207:
	tbnz	x22, #63, .L209
	bl	_ZNSt3_V215system_categoryEv
	mov	x1, x0
	mov	w0, 1
	str	wzr, [x27, 24]
	stp	x1, x22, [x27, 32]
.L203:
	adrp	x1, :got:__stack_chk_guard
	ldr	x1, [x1, #:got_lo12:__stack_chk_guard]
	ldr	x3, [sp, 216]
	ldr	x2, [x1]
	subs	x3, x3, x2
	mov	x2, 0
	bne	.L237
	ldp	x19, x20, [sp, 16]
	ldp	x21, x22, [sp, 32]
	ldp	x23, x24, [sp, 48]
	ldp	x25, x26, [sp, 64]
	ldp	x27, x28, [sp, 80]
	ldp	x29, x30, [sp], 224
	.cfi_remember_state
	.cfi_restore 30
	.cfi_restore 29
	.cfi_restore 27
	.cfi_restore 28
	.cfi_restore 25
	.cfi_restore 26
	.cfi_restore 23
	.cfi_restore 24
	.cfi_restore 21
	.cfi_restore 22
	.cfi_restore 19
	.cfi_restore 20
	.cfi_def_cfa_offset 0
	ret
	.p2align 2,,3
.L209:
	.cfi_restore_state
	mov	w0, 1
	str	xzr, [x27, 40]
	b	.L203
	.p2align 2,,3
.L236:
	ldr	w0, [x27, 24]
	cmp	w0, 11
	bne	.L207
.L208:
	mov	w0, 0
	b	.L203
	.p2align 2,,3
.L231:
	mov	x0, x4
	str	x4, [sp, 112]
	bl	__cxa_guard_acquire
	cbz	w0, .L195
	ldr	x1, [x19, #:got_lo12:_ZZN4asio15system_categoryEvE8instance]
	mov	x2, x25
	ldr	x0, [x26, #:got_lo12:_ZN4asio6detail15system_categoryD1Ev]
	bl	__cxa_atexit
	ldr	x4, [sp, 112]
	mov	x0, x4
	bl	__cxa_guard_release
	ldr	x0, [x19, #:got_lo12:_ZZN4asio15system_categoryEvE8instance]
	ldr	x1, [x27, 32]
	cmp	x1, x0
	bne	.L197
	.p2align 3,,7
.L232:
	ldr	w0, [x27, 24]
	cmp	w0, 4
	beq	.L198
	ldr	x21, [x20, #:got_lo12:_ZGVZN4asio15system_categoryEvE8instance]
	ldar	x0, [x21]
	tbnz	x0, 0, .L200
.L233:
	mov	x0, x21
	bl	__cxa_guard_acquire
	cbz	w0, .L200
	adrp	x0, :got:_ZN4asio6detail15system_categoryD1Ev
	adrp	x2, __dso_handle
	ldr	x1, [x19, #:got_lo12:_ZZN4asio15system_categoryEvE8instance]
	add	x2, x2, :lo12:__dso_handle
	ldr	x0, [x0, #:got_lo12:_ZN4asio6detail15system_categoryD1Ev]
	bl	__cxa_atexit
	mov	x0, x21
	bl	__cxa_guard_release
	ldr	x0, [x19, #:got_lo12:_ZZN4asio15system_categoryEvE8instance]
	ldr	x1, [x27, 32]
	cmp	x1, x0
	bne	.L202
	.p2align 3,,7
.L234:
	ldr	w0, [x27, 24]
	cmp	w0, 11
	beq	.L208
	ldr	x20, [x20, #:got_lo12:_ZGVZN4asio15system_categoryEvE8instance]
	ldar	x0, [x20]
	tbnz	x0, 0, .L205
.L235:
	mov	x0, x20
	bl	__cxa_guard_acquire
	cbz	w0, .L205
	adrp	x0, :got:_ZN4asio6detail15system_categoryD1Ev
	adrp	x2, __dso_handle
	ldr	x1, [x19, #:got_lo12:_ZZN4asio15system_categoryEvE8instance]
	add	x2, x2, :lo12:__dso_handle
	ldr	x0, [x0, #:got_lo12:_ZN4asio6detail15system_categoryD1Ev]
	bl	__cxa_atexit
	mov	x0, x20
	bl	__cxa_guard_release
	b	.L205
	.p2align 2,,3
.L230:
	mov	x0, x4
	str	x4, [sp, 112]
	str	w5, [sp, 120]
	bl	__cxa_guard_acquire
	ldr	w5, [sp, 120]
	ldr	x4, [sp, 112]
	cbz	w0, .L191
	ldr	x1, [x19, #:got_lo12:_ZZN4asio15system_categoryEvE8instance]
	mov	x2, x25
	ldr	x0, [sp, 104]
	str	w5, [sp, 112]
	str	x4, [sp, 120]
	bl	__cxa_atexit
	ldr	x4, [sp, 120]
	mov	x0, x4
	bl	__cxa_guard_release
	ldr	w5, [sp, 112]
	b	.L191
.L237:
	bl	__stack_chk_fail
	.cfi_endproc
.LFE9288:
	.size	_ZN4asio6detail28reactive_socket_send_op_baseINS_15const_buffers_1EE10do_performEPNS0_10reactor_opE, .-_ZN4asio6detail28reactive_socket_send_op_baseINS_15const_buffers_1EE10do_performEPNS0_10reactor_opE
	.section	.rodata._ZNK4asio5error6detail17addrinfo_category7messageB5cxx11Ei.str1.8,"aMS",@progbits,1
	.align	3
.LC6:
	.string	"Service not found"
	.align	3
.LC7:
	.string	"Socket type not supported"
	.align	3
.LC8:
	.string	"asio.addrinfo error"
	.section	.text._ZNK4asio5error6detail17addrinfo_category7messageB5cxx11Ei,"axG",@progbits,_ZNK4asio5error6detail17addrinfo_category7messageB5cxx11Ei,comdat
	.align	2
	.p2align 4,,11
	.weak	_ZNK4asio5error6detail17addrinfo_category7messageB5cxx11Ei
	.type	_ZNK4asio5error6detail17addrinfo_category7messageB5cxx11Ei, %function
_ZNK4asio5error6detail17addrinfo_category7messageB5cxx11Ei:
.LFB2303:
	.cfi_startproc
	stp	x29, x30, [sp, -48]!
	.cfi_def_cfa_offset 48
	.cfi_offset 29, -48
	.cfi_offset 30, -40
	adrp	x0, :got:__stack_chk_guard
	add	x2, x8, 16
	mov	x29, sp
	ldr	x0, [x0, #:got_lo12:__stack_chk_guard]
	str	x19, [sp, 16]
	.cfi_offset 19, -32
	mov	x19, x8
	ldr	x3, [x0]
	str	x3, [sp, 40]
	mov	x3, 0
	str	x2, [x8]
	cmn	w1, #8
	beq	.L244
	cmn	w1, #7
	beq	.L245
	mov	x3, 19
	add	x1, sp, 32
	mov	x2, 0
	mov	x0, x8
	str	x3, [sp, 32]
	bl	_ZNSt7__cxx1112basic_stringIcSt11char_traitsIcESaIcEE9_M_createERmm
	adrp	x1, .LC8
	add	x1, x1, :lo12:.LC8
	ldr	x2, [sp, 32]
	str	x0, [x19]
	str	x2, [x19, 16]
	ldp	x2, x3, [x1]
	stp	x2, x3, [x0]
	ldr	w1, [x1, 15]
	str	w1, [x0, 15]
	ldr	x1, [x19]
	ldr	x0, [sp, 32]
	str	x0, [x19, 8]
	strb	wzr, [x1, x0]
.L238:
	adrp	x0, :got:__stack_chk_guard
	ldr	x0, [x0, #:got_lo12:__stack_chk_guard]
	ldr	x2, [sp, 40]
	ldr	x1, [x0]
	subs	x2, x2, x1
	mov	x1, 0
	bne	.L246
	mov	x0, x19
	ldr	x19, [sp, 16]
	ldp	x29, x30, [sp], 48
	.cfi_remember_state
	.cfi_restore 30
	.cfi_restore 29
	.cfi_restore 19
	.cfi_def_cfa_offset 0
	ret
	.p2align 2,,3
.L245:
	.cfi_restore_state
	mov	x3, 25
	add	x1, sp, 32
	mov	x2, 0
	mov	x0, x8
	str	x3, [sp, 32]
	bl	_ZNSt7__cxx1112basic_stringIcSt11char_traitsIcESaIcEE9_M_createERmm
	adrp	x1, .LC7
	add	x1, x1, :lo12:.LC7
	ldr	x2, [sp, 32]
	str	x0, [x19]
	ldr	q1, [x1]
	str	x2, [x19, 16]
	ldr	q0, [x1, 9]
	str	q1, [x0]
	str	q0, [x0, 9]
	ldr	x1, [x19]
	ldr	x0, [sp, 32]
	str	x0, [x19, 8]
	strb	wzr, [x1, x0]
	b	.L238
	.p2align 2,,3
.L244:
	mov	x3, 17
	add	x1, sp, 32
	mov	x2, 0
	mov	x0, x8
	str	x3, [sp, 32]
	bl	_ZNSt7__cxx1112basic_stringIcSt11char_traitsIcESaIcEE9_M_createERmm
	adrp	x1, .LC6
	add	x1, x1, :lo12:.LC6
	ldr	x2, [sp, 32]
	str	x0, [x19]
	str	x2, [x19, 16]
	ldp	x2, x3, [x1]
	stp	x2, x3, [x0]
	ldrb	w1, [x1, 16]
	strb	w1, [x0, 16]
	ldr	x1, [x19]
	ldr	x0, [sp, 32]
	str	x0, [x19, 8]
	strb	wzr, [x1, x0]
	b	.L238
.L246:
	bl	__stack_chk_fail
	.cfi_endproc
.LFE2303:
	.size	_ZNK4asio5error6detail17addrinfo_category7messageB5cxx11Ei, .-_ZNK4asio5error6detail17addrinfo_category7messageB5cxx11Ei
	.section	.text._ZN4asio6detail28reactive_socket_recv_op_baseINS_17mutable_buffers_1EE10do_performEPNS0_10reactor_opE,"axG",@progbits,_ZN4asio6detail28reactive_socket_recv_op_baseINS_17mutable_buffers_1EE10do_performEPNS0_10reactor_opE,comdat
	.align	2
	.p2align 4,,11
	.weak	_ZN4asio6detail28reactive_socket_recv_op_baseINS_17mutable_buffers_1EE10do_performEPNS0_10reactor_opE
	.type	_ZN4asio6detail28reactive_socket_recv_op_baseINS_17mutable_buffers_1EE10do_performEPNS0_10reactor_opE, %function
_ZN4asio6detail28reactive_socket_recv_op_baseINS_17mutable_buffers_1EE10do_performEPNS0_10reactor_opE:
.LFB9050:
	.cfi_startproc
	stp	x29, x30, [sp, -240]!
	.cfi_def_cfa_offset 240
	.cfi_offset 29, -240
	.cfi_offset 30, -232
	adrp	x1, :got:__stack_chk_guard
	mov	x29, sp
	stp	x27, x28, [sp, 80]
	.cfi_offset 27, -160
	.cfi_offset 28, -152
	mov	x28, x0
	ldr	x1, [x1, #:got_lo12:__stack_chk_guard]
	stp	x19, x20, [sp, 16]
	ldr	w27, [x28, 56]
	stp	x21, x22, [sp, 32]
	.cfi_offset 19, -224
	.cfi_offset 20, -216
	.cfi_offset 21, -208
	.cfi_offset 22, -200
	add	x21, sp, 176
	adrp	x20, :got:_ZGVZN4asio15system_categoryEvE8instance
	stp	x23, x24, [sp, 48]
	adrp	x19, :got:_ZZN4asio15system_categoryEvE8instance
	stp	x25, x26, [sp, 64]
	.cfi_offset 23, -192
	.cfi_offset 24, -184
	.cfi_offset 25, -176
	.cfi_offset 26, -168
	adrp	x25, :got:_ZN4asio6detail15system_categoryD1Ev
	ldr	w26, [x28, 80]
	ldr	d0, [x28, 72]
	ldr	x0, [x1]
	str	x0, [sp, 232]
	mov	x0, 0
	add	x0, sp, 144
	str	x0, [sp, 104]
	ldr	x0, [x28, 64]
	str	x0, [sp, 144]
	dup	v0.2d, v0.d[0]
	ldrb	w24, [x28, 60]
	ubfx	x24, x24, 4, 1
	str	q0, [sp, 152]
	bl	__errno_location
	mov	x23, x0
	ldr	x1, [x25, #:got_lo12:_ZN4asio6detail15system_categoryD1Ev]
	adrp	x0, __dso_handle
	add	x0, x0, :lo12:__dso_handle
	stp	x0, x1, [sp, 112]
.L261:
	mov	x4, 1
	movi	v0.4s, 0
	str	wzr, [x23]
	ldr	x3, [sp, 104]
	mov	w2, w26
	mov	x1, x21
	mov	w0, w27
	stp	q0, q0, [x21]
	str	q0, [x21, 32]
	str	xzr, [x21, 48]
	stp	x3, x4, [sp, 192]
	bl	recvmsg
	ldr	w5, [x23]
	ldr	x4, [x20, #:got_lo12:_ZGVZN4asio15system_categoryEvE8instance]
	mov	x22, x0
	ldar	x0, [x4]
	tbz	x0, 0, .L298
.L249:
	ldr	x0, [x19, #:got_lo12:_ZZN4asio15system_categoryEvE8instance]
	str	w5, [x28, 24]
	str	x0, [x28, 32]
	tbnz	x22, #63, .L252
	bl	_ZNSt3_V215system_categoryEv
	str	wzr, [x28, 24]
	cmp	x22, 0
	str	x0, [x28, 32]
	cset	w4, eq
	ands	w4, w24, w4
	bne	.L299
.L252:
	ldr	x4, [x20, #:got_lo12:_ZGVZN4asio15system_categoryEvE8instance]
	ldar	x0, [x4]
	tbz	x0, 0, .L300
.L258:
	ldr	x0, [x19, #:got_lo12:_ZZN4asio15system_categoryEvE8instance]
	ldr	x1, [x28, 32]
	cmp	x1, x0
	beq	.L301
.L260:
	ldr	x21, [x20, #:got_lo12:_ZGVZN4asio15system_categoryEvE8instance]
	ldar	x0, [x21]
	tbz	x0, 0, .L302
.L263:
	ldr	x0, [x19, #:got_lo12:_ZZN4asio15system_categoryEvE8instance]
	ldr	x1, [x28, 32]
	cmp	x1, x0
	beq	.L303
.L265:
	ldr	x20, [x20, #:got_lo12:_ZGVZN4asio15system_categoryEvE8instance]
	ldar	x0, [x20]
	tbz	x0, 0, .L304
.L267:
	ldr	x19, [x19, #:got_lo12:_ZZN4asio15system_categoryEvE8instance]
	ldr	x0, [x28, 32]
	cmp	x0, x19
	beq	.L305
.L269:
	tbnz	x22, #63, .L271
	bl	_ZNSt3_V215system_categoryEv
	str	wzr, [x28, 24]
	mov	w4, 1
	stp	x0, x22, [x28, 32]
.L256:
	adrp	x0, :got:__stack_chk_guard
	ldr	x0, [x0, #:got_lo12:__stack_chk_guard]
	ldr	x2, [sp, 232]
	ldr	x1, [x0]
	subs	x2, x2, x1
	mov	x1, 0
	bne	.L306
	mov	w0, w4
	ldp	x19, x20, [sp, 16]
	ldp	x21, x22, [sp, 32]
	ldp	x23, x24, [sp, 48]
	ldp	x25, x26, [sp, 64]
	ldp	x27, x28, [sp, 80]
	ldp	x29, x30, [sp], 240
	.cfi_remember_state
	.cfi_restore 30
	.cfi_restore 29
	.cfi_restore 27
	.cfi_restore 28
	.cfi_restore 25
	.cfi_restore 26
	.cfi_restore 23
	.cfi_restore 24
	.cfi_restore 21
	.cfi_restore 22
	.cfi_restore 19
	.cfi_restore 20
	.cfi_def_cfa_offset 0
	ret
	.p2align 2,,3
.L271:
	.cfi_restore_state
	mov	w4, 1
	str	xzr, [x28, 40]
	b	.L256
	.p2align 2,,3
.L305:
	ldr	w0, [x28, 24]
	cmp	w0, 11
	bne	.L269
.L270:
	mov	w4, 0
	b	.L256
	.p2align 2,,3
.L298:
	mov	x0, x4
	str	x4, [sp, 128]
	str	w5, [sp, 136]
	bl	__cxa_guard_acquire
	ldr	w5, [sp, 136]
	ldr	x4, [sp, 128]
	cbz	w0, .L249
	ldp	x2, x0, [sp, 112]
	str	w5, [sp, 128]
	ldr	x1, [x19, #:got_lo12:_ZZN4asio15system_categoryEvE8instance]
	str	x4, [sp, 136]
	bl	__cxa_atexit
	ldr	x4, [sp, 136]
	mov	x0, x4
	bl	__cxa_guard_release
	ldr	w5, [sp, 128]
	b	.L249
	.p2align 2,,3
.L300:
	mov	x0, x4
	str	x4, [sp, 128]
	bl	__cxa_guard_acquire
	cbz	w0, .L258
	ldr	x1, [x19, #:got_lo12:_ZZN4asio15system_categoryEvE8instance]
	ldr	x0, [x25, #:got_lo12:_ZN4asio6detail15system_categoryD1Ev]
	ldr	x2, [sp, 112]
	bl	__cxa_atexit
	ldr	x4, [sp, 128]
	mov	x0, x4
	bl	__cxa_guard_release
	ldr	x0, [x19, #:got_lo12:_ZZN4asio15system_categoryEvE8instance]
	ldr	x1, [x28, 32]
	cmp	x1, x0
	bne	.L260
	.p2align 3,,7
.L301:
	ldr	w0, [x28, 24]
	cmp	w0, 4
	beq	.L261
	ldr	x21, [x20, #:got_lo12:_ZGVZN4asio15system_categoryEvE8instance]
	ldar	x0, [x21]
	tbnz	x0, 0, .L263
.L302:
	mov	x0, x21
	bl	__cxa_guard_acquire
	cbz	w0, .L263
	adrp	x0, :got:_ZN4asio6detail15system_categoryD1Ev
	adrp	x2, __dso_handle
	ldr	x1, [x19, #:got_lo12:_ZZN4asio15system_categoryEvE8instance]
	add	x2, x2, :lo12:__dso_handle
	ldr	x0, [x0, #:got_lo12:_ZN4asio6detail15system_categoryD1Ev]
	bl	__cxa_atexit
	mov	x0, x21
	bl	__cxa_guard_release
	ldr	x0, [x19, #:got_lo12:_ZZN4asio15system_categoryEvE8instance]
	ldr	x1, [x28, 32]
	cmp	x1, x0
	bne	.L265
	.p2align 3,,7
.L303:
	ldr	w0, [x28, 24]
	cmp	w0, 11
	beq	.L270
	ldr	x20, [x20, #:got_lo12:_ZGVZN4asio15system_categoryEvE8instance]
	ldar	x0, [x20]
	tbnz	x0, 0, .L267
.L304:
	mov	x0, x20
	bl	__cxa_guard_acquire
	cbz	w0, .L267
	adrp	x0, :got:_ZN4asio6detail15system_categoryD1Ev
	adrp	x2, __dso_handle
	ldr	x1, [x19, #:got_lo12:_ZZN4asio15system_categoryEvE8instance]
	add	x2, x2, :lo12:__dso_handle
	ldr	x0, [x0, #:got_lo12:_ZN4asio6detail15system_categoryD1Ev]
	bl	__cxa_atexit
	mov	x0, x20
	bl	__cxa_guard_release
	b	.L267
	.p2align 2,,3
.L299:
	adrp	x19, :got:_ZGVZN4asio5error17get_misc_categoryEvE8instance
	ldr	x19, [x19, #:got_lo12:_ZGVZN4asio5error17get_misc_categoryEvE8instance]
	ldar	x0, [x19]
	adrp	x20, :got:_ZZN4asio5error17get_misc_categoryEvE8instance
	tbz	x0, 0, .L307
.L254:
	ldr	x20, [x20, #:got_lo12:_ZZN4asio5error17get_misc_categoryEvE8instance]
	mov	w0, 2
	str	w0, [x28, 24]
	str	x20, [x28, 32]
	b	.L256
	.p2align 2,,3
.L307:
	mov	x0, x19
	str	w4, [sp, 104]
	bl	__cxa_guard_acquire
	adrp	x20, :got:_ZZN4asio5error17get_misc_categoryEvE8instance
	ldr	w4, [sp, 104]
	cbz	w0, .L254
	adrp	x0, :got:_ZN4asio5error6detail13misc_categoryD1Ev
	adrp	x2, __dso_handle
	ldr	x1, [x20, #:got_lo12:_ZZN4asio5error17get_misc_categoryEvE8instance]
	add	x2, x2, :lo12:__dso_handle
	ldr	x0, [x0, #:got_lo12:_ZN4asio5error6detail13misc_categoryD1Ev]
	str	w4, [sp, 104]
	bl	__cxa_atexit
	mov	x0, x19
	bl	__cxa_guard_release
	ldr	w4, [sp, 104]
	b	.L254
.L306:
	bl	__stack_chk_fail
	.cfi_endproc
.LFE9050:
	.size	_ZN4asio6detail28reactive_socket_recv_op_baseINS_17mutable_buffers_1EE10do_performEPNS0_10reactor_opE, .-_ZN4asio6detail28reactive_socket_recv_op_baseINS_17mutable_buffers_1EE10do_performEPNS0_10reactor_opE
	.section	.rodata._ZNK4asio5error6detail14netdb_category7messageB5cxx11Ei.str1.8,"aMS",@progbits,1
	.align	3
.LC9:
	.string	"Host not found (authoritative)"
	.align	3
.LC10:
	.string	"Host not found (non-authoritative), try again later"
	.align	3
.LC11:
	.string	"The query is valid, but it does not have associated data"
	.align	3
.LC12:
	.string	"A non-recoverable error occurred during database lookup"
	.align	3
.LC13:
	.string	"asio.netdb error"
	.section	.text._ZNK4asio5error6detail14netdb_category7messageB5cxx11Ei,"axG",@progbits,_ZNK4asio5error6detail14netdb_category7messageB5cxx11Ei,comdat
	.align	2
	.p2align 4,,11
	.weak	_ZNK4asio5error6detail14netdb_category7messageB5cxx11Ei
	.type	_ZNK4asio5error6detail14netdb_category7messageB5cxx11Ei, %function
_ZNK4asio5error6detail14netdb_category7messageB5cxx11Ei:
.LFB2297:
	.cfi_startproc
	stp	x29, x30, [sp, -48]!
	.cfi_def_cfa_offset 48
	.cfi_offset 29, -48
	.cfi_offset 30, -40
	adrp	x0, :got:__stack_chk_guard
	add	x2, x8, 16
	mov	x29, sp
	ldr	x0, [x0, #:got_lo12:__stack_chk_guard]
	str	x19, [sp, 16]
	.cfi_offset 19, -32
	mov	x19, x8
	ldr	x3, [x0]
	str	x3, [sp, 40]
	mov	x3, 0
	str	x2, [x8]
	cmp	w1, 1
	beq	.L317
	cmp	w1, 2
	beq	.L318
	cmp	w1, 4
	beq	.L319
	cmp	w1, 3
	beq	.L320
	mov	x3, 16
	add	x1, sp, 32
	mov	x2, 0
	mov	x0, x8
	str	x3, [sp, 32]
	bl	_ZNSt7__cxx1112basic_stringIcSt11char_traitsIcESaIcEE9_M_createERmm
	adrp	x1, .LC13
	add	x1, x1, :lo12:.LC13
	ldr	x2, [sp, 32]
	str	x0, [x19]
	str	x2, [x19, 16]
	ldp	x2, x3, [x1]
	stp	x2, x3, [x0]
	ldr	x1, [x19]
	ldr	x0, [sp, 32]
	str	x0, [x19, 8]
	strb	wzr, [x1, x0]
.L308:
	adrp	x0, :got:__stack_chk_guard
	ldr	x0, [x0, #:got_lo12:__stack_chk_guard]
	ldr	x2, [sp, 40]
	ldr	x1, [x0]
	subs	x2, x2, x1
	mov	x1, 0
	bne	.L321
	mov	x0, x19
	ldr	x19, [sp, 16]
	ldp	x29, x30, [sp], 48
	.cfi_remember_state
	.cfi_restore 30
	.cfi_restore 29
	.cfi_restore 19
	.cfi_def_cfa_offset 0
	ret
	.p2align 2,,3
.L317:
	.cfi_restore_state
	mov	x3, 30
	add	x1, sp, 32
	mov	x2, 0
	mov	x0, x8
	str	x3, [sp, 32]
	bl	_ZNSt7__cxx1112basic_stringIcSt11char_traitsIcESaIcEE9_M_createERmm
	adrp	x1, .LC9
	add	x1, x1, :lo12:.LC9
	ldr	x2, [sp, 32]
	str	x0, [x19]
	ldr	q1, [x1]
	str	x2, [x19, 16]
	ldr	q0, [x1, 14]
	str	q1, [x0]
	str	q0, [x0, 14]
	ldr	x1, [x19]
	ldr	x0, [sp, 32]
	str	x0, [x19, 8]
	strb	wzr, [x1, x0]
	b	.L308
	.p2align 2,,3
.L320:
	mov	x3, 55
	add	x1, sp, 32
	mov	x2, 0
	mov	x0, x8
	str	x3, [sp, 32]
	bl	_ZNSt7__cxx1112basic_stringIcSt11char_traitsIcESaIcEE9_M_createERmm
	adrp	x1, .LC12
	add	x1, x1, :lo12:.LC12
	ldr	x2, [sp, 32]
	str	x0, [x19]
	ldr	q2, [x1, 32]
	str	x2, [x19, 16]
	ldp	q0, q1, [x1]
	str	q2, [x0, 32]
	ldr	x1, [x1, 47]
	str	x1, [x0, 47]
.L316:
	stp	q0, q1, [x0]
	ldr	x1, [x19]
	ldr	x0, [sp, 32]
	str	x0, [x19, 8]
	strb	wzr, [x1, x0]
	b	.L308
	.p2align 2,,3
.L318:
	mov	x3, 51
	add	x1, sp, 32
	mov	x2, 0
	mov	x0, x8
	str	x3, [sp, 32]
	bl	_ZNSt7__cxx1112basic_stringIcSt11char_traitsIcESaIcEE9_M_createERmm
	adrp	x1, .LC10
	add	x1, x1, :lo12:.LC10
	ldr	x2, [sp, 32]
	str	x0, [x19]
	ldr	q2, [x1, 32]
	str	x2, [x19, 16]
	ldp	q0, q1, [x1]
	ldr	w1, [x1, 47]
	str	q2, [x0, 32]
	str	w1, [x0, 47]
	b	.L316
	.p2align 2,,3
.L319:
	mov	x3, 56
	add	x1, sp, 32
	mov	x2, 0
	mov	x0, x8
	str	x3, [sp, 32]
	bl	_ZNSt7__cxx1112basic_stringIcSt11char_traitsIcESaIcEE9_M_createERmm
	adrp	x1, .LC11
	add	x1, x1, :lo12:.LC11
	ldr	x2, [sp, 32]
	str	x0, [x19]
	ldp	q1, q2, [x1]
	str	x2, [x19, 16]
	ldr	q0, [x1, 32]
	ldr	x1, [x1, 48]
	str	x1, [x0, 48]
	stp	q1, q2, [x0]
	str	q0, [x0, 32]
	ldr	x1, [x19]
	ldr	x0, [sp, 32]
	str	x0, [x19, 8]
	strb	wzr, [x1, x0]
	b	.L308
.L321:
	bl	__stack_chk_fail
	.cfi_endproc
.LFE2297:
	.size	_ZNK4asio5error6detail14netdb_category7messageB5cxx11Ei, .-_ZNK4asio5error6detail14netdb_category7messageB5cxx11Ei
	.section	.rodata._ZNK4asio5error6detail13misc_category7messageB5cxx11Ei.str1.8,"aMS",@progbits,1
	.align	3
.LC14:
	.string	"Already open"
	.align	3
.LC15:
	.string	"End of file"
	.align	3
.LC16:
	.string	"Element not found"
	.align	3
.LC17:
	.string	"The descriptor does not fit into the select call's fd_set"
	.align	3
.LC18:
	.string	"asio.misc error"
	.section	.text._ZNK4asio5error6detail13misc_category7messageB5cxx11Ei,"axG",@progbits,_ZNK4asio5error6detail13misc_category7messageB5cxx11Ei,comdat
	.align	2
	.p2align 4,,11
	.weak	_ZNK4asio5error6detail13misc_category7messageB5cxx11Ei
	.type	_ZNK4asio5error6detail13misc_category7messageB5cxx11Ei, %function
_ZNK4asio5error6detail13misc_category7messageB5cxx11Ei:
.LFB2309:
	.cfi_startproc
	stp	x29, x30, [sp, -48]!
	.cfi_def_cfa_offset 48
	.cfi_offset 29, -48
	.cfi_offset 30, -40
	adrp	x0, :got:__stack_chk_guard
	add	x2, x8, 16
	mov	x29, sp
	ldr	x0, [x0, #:got_lo12:__stack_chk_guard]
	str	x19, [sp, 16]
	.cfi_offset 19, -32
	mov	x19, x8
	ldr	x3, [x0]
	str	x3, [sp, 40]
	mov	x3, 0
	cmp	w1, 1
	beq	.L330
	cmp	w1, 2
	beq	.L331
	cmp	w1, 3
	beq	.L332
	cmp	w1, 4
	beq	.L333
	adrp	x0, .LC18
	add	x0, x0, :lo12:.LC18
	str	x2, [x8]
	mov	x1, 15
	ldr	x3, [x0]
	str	x3, [x8, 16]
	ldr	x0, [x0, 7]
	str	x0, [x2, 7]
	str	x1, [x8, 8]
	strb	wzr, [x8, 31]
.L322:
	adrp	x0, :got:__stack_chk_guard
	ldr	x0, [x0, #:got_lo12:__stack_chk_guard]
	ldr	x2, [sp, 40]
	ldr	x1, [x0]
	subs	x2, x2, x1
	mov	x1, 0
	bne	.L334
	mov	x0, x19
	ldr	x19, [sp, 16]
	ldp	x29, x30, [sp], 48
	.cfi_remember_state
	.cfi_restore 30
	.cfi_restore 29
	.cfi_restore 19
	.cfi_def_cfa_offset 0
	ret
	.p2align 2,,3
.L330:
	.cfi_restore_state
	adrp	x0, .LC14
	add	x0, x0, :lo12:.LC14
	str	x2, [x8]
	mov	x1, 12
	ldr	x3, [x0]
	str	x3, [x8, 16]
	ldr	w0, [x0, 8]
	str	w0, [x2, 8]
	str	x1, [x8, 8]
	strb	wzr, [x8, 28]
	b	.L322
	.p2align 2,,3
.L333:
	mov	x3, 57
	str	x2, [x8]
	add	x1, sp, 32
	mov	x2, 0
	mov	x0, x8
	str	x3, [sp, 32]
	bl	_ZNSt7__cxx1112basic_stringIcSt11char_traitsIcESaIcEE9_M_createERmm
	str	x0, [x19]
	adrp	x1, .LC17
	add	x1, x1, :lo12:.LC17
	ldr	x2, [sp, 32]
	str	x2, [x19, 16]
	ldr	q3, [x1, 32]
	ldp	q1, q2, [x1]
	ldr	q0, [x1, 41]
	str	q3, [x0, 32]
	stp	q1, q2, [x0]
	str	q0, [x0, 41]
	ldr	x1, [x19]
	ldr	x0, [sp, 32]
	str	x0, [x19, 8]
	strb	wzr, [x1, x0]
	b	.L322
	.p2align 2,,3
.L331:
	adrp	x0, .LC15
	add	x0, x0, :lo12:.LC15
	str	x2, [x8]
	mov	x1, 11
	ldr	x3, [x0]
	str	x3, [x8, 16]
	ldr	w0, [x0, 7]
	str	w0, [x2, 7]
	str	x1, [x8, 8]
	strb	wzr, [x8, 27]
	b	.L322
	.p2align 2,,3
.L332:
	mov	x3, 17
	str	x2, [x8]
	add	x1, sp, 32
	mov	x2, 0
	mov	x0, x8
	str	x3, [sp, 32]
	bl	_ZNSt7__cxx1112basic_stringIcSt11char_traitsIcESaIcEE9_M_createERmm
	str	x0, [x19]
	adrp	x1, .LC16
	add	x1, x1, :lo12:.LC16
	ldr	x2, [sp, 32]
	str	x2, [x19, 16]
	ldp	x2, x3, [x1]
	stp	x2, x3, [x0]
	ldrb	w1, [x1, 16]
	strb	w1, [x0, 16]
	ldr	x1, [x19]
	ldr	x0, [sp, 32]
	str	x0, [x19, 8]
	strb	wzr, [x1, x0]
	b	.L322
.L334:
	bl	__stack_chk_fail
	.cfi_endproc
.LFE2309:
	.size	_ZNK4asio5error6detail13misc_category7messageB5cxx11Ei, .-_ZNK4asio5error6detail13misc_category7messageB5cxx11Ei
	.text
	.align	2
	.p2align 4,,11
	.global	_ZN7asiopal13SocketChannel12ShutdownImplEv
	.type	_ZN7asiopal13SocketChannel12ShutdownImplEv, %function
_ZN7asiopal13SocketChannel12ShutdownImplEv:
.LFB7056:
	.cfi_startproc
	stp	x29, x30, [sp, -160]!
	.cfi_def_cfa_offset 160
	.cfi_offset 29, -160
	.cfi_offset 30, -152
	adrp	x1, :got:__stack_chk_guard
	mov	x29, sp
	ldr	x1, [x1, #:got_lo12:__stack_chk_guard]
	stp	x19, x20, [sp, 16]
	.cfi_offset 19, -144
	.cfi_offset 20, -136
	ldr	w19, [x0, 64]
	stp	x27, x28, [sp, 80]
	.cfi_offset 27, -80
	.cfi_offset 28, -72
	mov	x27, x0
	ldr	x0, [x1]
	str	x0, [sp, 152]
	mov	x0, 0
	cmn	w19, #1
	beq	.L452
	bl	__errno_location
	mov	x2, x0
	adrp	x20, :got:_ZGVZN4asio15system_categoryEvE8instance
	mov	w1, 2
	mov	w0, w19
	str	wzr, [x2]
	bl	shutdown
	ldr	x0, [x20, #:got_lo12:_ZGVZN4asio15system_categoryEvE8instance]
	ldar	x1, [x0]
	tbz	x1, 0, .L446
.L338:
	ldr	w19, [x27, 64]
	ldr	x0, [x27, 88]
	cmn	w19, #1
	bne	.L453
.L342:
	adrp	x0, :got:__stack_chk_guard
	mov	w1, -1
	str	w1, [x27, 64]
	ldr	x0, [x0, #:got_lo12:__stack_chk_guard]
	strb	wzr, [x27, 68]
	ldr	x2, [sp, 152]
	ldr	x1, [x0]
	subs	x2, x2, x1
	mov	x1, 0
	bne	.L454
	ldp	x19, x20, [sp, 16]
	ldp	x27, x28, [sp, 80]
	ldp	x29, x30, [sp], 160
	.cfi_remember_state
	.cfi_restore 30
	.cfi_restore 29
	.cfi_restore 27
	.cfi_restore 28
	.cfi_restore 19
	.cfi_restore 20
	.cfi_def_cfa_offset 0
	ret
	.p2align 2,,3
.L453:
	.cfi_restore_state
	stp	x21, x22, [sp, 32]
	.cfi_offset 22, -120
	.cfi_offset 21, -128
	ldr	x22, [x27, 72]
	stp	x23, x24, [sp, 48]
	.cfi_offset 24, -104
	.cfi_offset 23, -112
	ldr	x0, [x0, 40]
	str	x0, [sp, 104]
	ldrb	w21, [x27, 68]
	cbz	x22, .L343
	add	x22, x22, 40
	mov	x0, x22
	bl	pthread_mutex_lock
	ldr	x3, [x27, 72]
	ldrb	w0, [x3, 152]
	cbnz	w0, .L344
	stp	x25, x26, [sp, 64]
	.cfi_offset 26, -88
	.cfi_offset 25, -96
	tbnz	x21, 6, .L455
.L345:
	adrp	x26, :got:_ZN4asio6detail15system_categoryD1Ev
	adrp	x25, __dso_handle
	mov	x28, 0
	mov	x23, 0
	ldr	x0, [x26, #:got_lo12:_ZN4asio6detail15system_categoryD1Ev]
	mov	w21, 0
	str	x0, [sp, 120]
	add	x0, x25, :lo12:__dso_handle
	str	x0, [sp, 112]
.L346:
	add	x0, x3, w21, sxtw 4
	sxtw	x24, w21
	ldr	x19, [x0, 104]
	cbz	x19, .L386
	ldr	x26, [x20, #:got_lo12:_ZGVZN4asio15system_categoryEvE8instance]
	adrp	x25, :got:_ZZN4asio15system_categoryEvE8instance
	ldar	x0, [x26]
	tbz	x0, 0, .L456
	.p2align 3,,7
.L348:
	ldr	x3, [x27, 72]
	mov	w0, 125
	str	w0, [x19, 24]
	ldr	x1, [x25, #:got_lo12:_ZZN4asio15system_categoryEvE8instance]
	add	x2, x3, x24, lsl 4
	str	x1, [x19, 32]
	ldr	x0, [x2, 104]
	cbz	x0, .L350
.L459:
	ldr	x1, [x0]
	str	x1, [x2, 104]
	cbz	x1, .L457
	str	xzr, [x0]
	str	xzr, [x19]
	cbz	x28, .L458
.L383:
	str	x19, [x28]
	cbz	x1, .L352
.L353:
	mov	x28, x19
	mov	x19, x1
	ldar	x0, [x26]
	tbnz	x0, 0, .L348
.L456:
	mov	x0, x26
	bl	__cxa_guard_acquire
	cbz	w0, .L348
	ldp	x2, x0, [sp, 112]
	ldr	x1, [x25, #:got_lo12:_ZZN4asio15system_categoryEvE8instance]
	bl	__cxa_atexit
	mov	x0, x26
	bl	__cxa_guard_release
	ldr	x3, [x27, 72]
	mov	w0, 125
	str	w0, [x19, 24]
	ldr	x1, [x25, #:got_lo12:_ZZN4asio15system_categoryEvE8instance]
	add	x2, x3, x24, lsl 4
	str	x1, [x19, 32]
	ldr	x0, [x2, 104]
	cbnz	x0, .L459
	.p2align 3,,7
.L350:
	str	xzr, [x19]
	cbz	x28, .L387
	str	x19, [x28]
.L352:
	add	w21, w21, 1
	cmp	w21, 3
	beq	.L354
.L463:
	mov	x28, x19
	b	.L346
	.p2align 2,,3
.L344:
	.cfi_restore 25
	.cfi_restore 26
	mov	x0, x22
	bl	pthread_mutex_unlock
.L366:
	ldr	w19, [x27, 64]
	cmn	w19, #1
	beq	.L445
.L343:
	bl	__errno_location
	mov	x21, x0
	mov	w0, w19
	str	wzr, [x21]
	bl	close
	ldr	w24, [x21]
	ldr	x23, [x20, #:got_lo12:_ZGVZN4asio15system_categoryEvE8instance]
	mov	w22, w0
	ldar	x0, [x23]
	tbz	x0, 0, .L460
.L374:
	cbnz	w22, .L461
.L445:
	ldp	x21, x22, [sp, 32]
	.cfi_remember_state
	.cfi_restore 22
	.cfi_restore 21
	ldp	x23, x24, [sp, 48]
	.cfi_restore 24
	.cfi_restore 23
	b	.L342
	.p2align 2,,3
.L460:
	.cfi_restore_state
	mov	x0, x23
	bl	__cxa_guard_acquire
	cbz	w0, .L374
	adrp	x1, :got:_ZZN4asio15system_categoryEvE8instance
	adrp	x0, :got:_ZN4asio6detail15system_categoryD1Ev
	adrp	x2, __dso_handle
	add	x2, x2, :lo12:__dso_handle
	ldr	x1, [x1, #:got_lo12:_ZZN4asio15system_categoryEvE8instance]
	ldr	x0, [x0, #:got_lo12:_ZN4asio6detail15system_categoryD1Ev]
	bl	__cxa_atexit
	mov	x0, x23
	bl	__cxa_guard_release
	cbz	w22, .L445
	.p2align 3,,7
.L461:
	ldr	x22, [x20, #:got_lo12:_ZGVZN4asio15system_categoryEvE8instance]
	ldar	x0, [x22]
	tbz	x0, 0, .L462
.L377:
	cmp	w24, 11
	beq	.L379
.L451:
	ldr	x20, [x20, #:got_lo12:_ZGVZN4asio15system_categoryEvE8instance]
	ldar	x0, [x20]
	tbnz	x0, 0, .L445
	mov	x0, x20
	bl	__cxa_guard_acquire
	cbz	w0, .L445
	adrp	x1, :got:_ZZN4asio15system_categoryEvE8instance
	adrp	x0, :got:_ZN4asio6detail15system_categoryD1Ev
	adrp	x2, __dso_handle
	add	x2, x2, :lo12:__dso_handle
	ldr	x1, [x1, #:got_lo12:_ZZN4asio15system_categoryEvE8instance]
	ldr	x0, [x0, #:got_lo12:_ZN4asio6detail15system_categoryD1Ev]
	bl	__cxa_atexit
	mov	x0, x20
	bl	__cxa_guard_release
	ldp	x21, x22, [sp, 32]
	.cfi_restore 22
	.cfi_restore 21
	ldp	x23, x24, [sp, 48]
	.cfi_restore 24
	.cfi_restore 23
	b	.L342
.L452:
	adrp	x20, :got:_ZGVZN4asio15system_categoryEvE8instance
	ldr	x0, [x20, #:got_lo12:_ZGVZN4asio15system_categoryEvE8instance]
	ldar	x1, [x0]
	tbnz	x1, 0, .L338
	.p2align 3,,7
.L446:
	bl	__cxa_guard_acquire
	cbz	w0, .L338
	adrp	x0, :got:_ZN4asio6detail15system_categoryD1Ev
	stp	x25, x26, [sp, 64]
	.cfi_offset 26, -88
	.cfi_offset 25, -96
	adrp	x25, :got:_ZZN4asio15system_categoryEvE8instance
	ldr	x0, [x0, #:got_lo12:_ZN4asio6detail15system_categoryD1Ev]
	adrp	x2, __dso_handle
	ldr	x1, [x25, #:got_lo12:_ZZN4asio15system_categoryEvE8instance]
	add	x2, x2, :lo12:__dso_handle
	bl	__cxa_atexit
	ldr	x0, [x20, #:got_lo12:_ZGVZN4asio15system_categoryEvE8instance]
	bl	__cxa_guard_release
	ldp	x25, x26, [sp, 64]
	.cfi_restore 26
	.cfi_restore 25
	b	.L338
	.p2align 2,,3
.L462:
	.cfi_offset 21, -128
	.cfi_offset 22, -120
	.cfi_offset 23, -112
	.cfi_offset 24, -104
	mov	x0, x22
	bl	__cxa_guard_acquire
	cbz	w0, .L377
	adrp	x1, :got:_ZZN4asio15system_categoryEvE8instance
	adrp	x0, :got:_ZN4asio6detail15system_categoryD1Ev
	adrp	x2, __dso_handle
	add	x2, x2, :lo12:__dso_handle
	ldr	x1, [x1, #:got_lo12:_ZZN4asio15system_categoryEvE8instance]
	ldr	x0, [x0, #:got_lo12:_ZN4asio6detail15system_categoryD1Ev]
	bl	__cxa_atexit
	mov	x0, x22
	bl	__cxa_guard_release
	b	.L377
	.p2align 2,,3
.L457:
	.cfi_offset 25, -96
	.cfi_offset 26, -88
	str	xzr, [x2, 112]
	str	xzr, [x0]
	str	xzr, [x19]
	cbnz	x28, .L383
	.p2align 3,,7
.L387:
	add	w21, w21, 1
	mov	x23, x19
	cmp	w21, 3
	bne	.L463
.L354:
	ldr	x24, [sp, 104]
	mov	w1, 1
	mov	w0, -1
	str	w0, [x3, 96]
	strb	w1, [x3, 152]
	mov	x0, x22
	add	x22, x24, 128
	bl	pthread_mutex_unlock
	mov	x0, x22
	ldr	x21, [x27, 72]
	bl	pthread_mutex_lock
	ldr	x0, [x24, 176]
	cmp	x21, x0
	beq	.L464
.L356:
	ldr	x0, [x21, 32]
	cbz	x0, .L357
	ldr	x1, [x21, 24]
	str	x1, [x0, 24]
.L357:
	ldr	x0, [x21, 24]
	cbz	x0, .L358
	ldr	x1, [x21, 32]
	str	x1, [x0, 32]
.L358:
	ldr	x24, [sp, 104]
	mov	x0, x22
	ldr	x2, [x24, 184]
	stp	x2, xzr, [x21, 24]
	str	x21, [x24, 184]
	bl	pthread_mutex_unlock
	str	xzr, [x27, 72]
	cbz	x23, .L439
	ldr	x21, [x24, 40]
	ldrb	w0, [x21, 40]
	cbz	w0, .L360
	adrp	x0, :got:_ZN4asio6detail10call_stackINS0_15task_io_serviceENS0_27task_io_service_thread_infoEE4top_E
	ldr	x0, [x0, #:got_lo12:_ZN4asio6detail10call_stackINS0_15task_io_serviceENS0_27task_io_service_thread_infoEE4top_E]
	ldr	w0, [x0]
	bl	pthread_getspecific
	cbnz	x0, .L363
	b	.L360
	.p2align 2,,3
.L361:
	ldr	x0, [x0, 16]
	cbz	x0, .L360
.L363:
	ldr	x1, [x0]
	cmp	x21, x1
	bne	.L361
	ldr	x0, [x0, 8]
	cbz	x0, .L360
	ldr	x2, [x0, 16]
	add	x1, x0, 8
	cbz	x2, .L364
	str	x23, [x2]
.L365:
	ldp	x25, x26, [sp, 64]
	.cfi_remember_state
	.cfi_restore 26
	.cfi_restore 25
	str	x19, [x1, 8]
	b	.L366
	.p2align 2,,3
.L458:
	.cfi_restore_state
	mov	x23, x19
	b	.L353
	.p2align 2,,3
.L360:
	add	x24, x21, 48
	mov	x0, x24
	bl	pthread_mutex_lock
	ldr	x1, [x21, 208]
	add	x0, x21, 200
	cbz	x1, .L367
	str	x23, [x1]
.L368:
	str	x19, [x0, 8]
	add	x22, x21, 96
	ldr	x0, [x21, 144]
	orr	x0, x0, 1
	str	x0, [x21, 144]
	cmp	x0, 1
	beq	.L369
	mov	x0, x24
	bl	pthread_mutex_unlock
	mov	x0, x22
	bl	pthread_cond_signal
	ldp	x25, x26, [sp, 64]
	.cfi_remember_state
	.cfi_restore 26
	.cfi_restore 25
	b	.L366
.L369:
	.cfi_restore_state
	ldrb	w1, [x21, 184]
	cbnz	w1, .L371
	ldr	x4, [x21, 152]
	cbz	x4, .L371
	mov	w1, 9
	strb	w0, [x21, 184]
	ldr	w2, [x4, 96]
	add	x0, x4, 96
	movk	w1, 0x8000, lsl 16
	str	w1, [sp, 136]
	str	x0, [sp, 144]
	add	x3, sp, 136
	mov	w1, 3
	ldr	w0, [x4, 104]
	bl	epoll_ctl
.L371:
	mov	x0, x24
	bl	pthread_mutex_unlock
	ldp	x25, x26, [sp, 64]
	.cfi_remember_state
	.cfi_restore 26
	.cfi_restore 25
	b	.L366
	.p2align 2,,3
.L386:
	.cfi_restore_state
	mov	x19, x28
	b	.L352
	.p2align 2,,3
.L455:
	ldr	x0, [sp, 104]
	str	wzr, [sp, 136]
	str	xzr, [sp, 144]
	add	x3, sp, 136
	mov	w2, w19
	mov	w1, 2
	ldr	w0, [x0, 104]
	bl	epoll_ctl
	ldr	x3, [x27, 72]
	b	.L345
	.p2align 2,,3
.L439:
	ldp	x25, x26, [sp, 64]
	.cfi_remember_state
	.cfi_restore 26
	.cfi_restore 25
	b	.L366
	.p2align 2,,3
.L464:
	.cfi_restore_state
	ldr	x1, [sp, 104]
	ldr	x0, [x21, 24]
	str	x0, [x1, 176]
	b	.L356
	.p2align 2,,3
.L379:
	.cfi_restore 25
	.cfi_restore 26
	add	x2, sp, 136
	mov	w0, w19
	mov	x1, 21537
	str	wzr, [sp, 136]
	bl	ioctl
	ldrb	w1, [x27, 68]
	mov	w0, w19
	and	w1, w1, -4
	strb	w1, [x27, 68]
	str	wzr, [x21]
	bl	close
	b	.L451
.L367:
	.cfi_offset 25, -96
	.cfi_offset 26, -88
	str	x23, [x21, 200]
	b	.L368
.L364:
	str	x23, [x0, 8]
	b	.L365
.L454:
	.cfi_restore 21
	.cfi_restore 22
	.cfi_restore 23
	.cfi_restore 24
	.cfi_restore 25
	.cfi_restore 26
	stp	x21, x22, [sp, 32]
	.cfi_offset 22, -120
	.cfi_offset 21, -128
	stp	x23, x24, [sp, 48]
	.cfi_offset 24, -104
	.cfi_offset 23, -112
	stp	x25, x26, [sp, 64]
	.cfi_offset 26, -88
	.cfi_offset 25, -96
	bl	__stack_chk_fail
	.cfi_endproc
.LFE7056:
	.size	_ZN7asiopal13SocketChannel12ShutdownImplEv, .-_ZN7asiopal13SocketChannel12ShutdownImplEv
	.section	.rodata._ZNSt12system_errorC2ESt10error_codePKc.str1.8,"aMS",@progbits,1
	.align	3
.LC19:
	.string	": "
	.section	.text._ZNSt12system_errorC2ESt10error_codePKc,"axG",@progbits,_ZNSt12system_errorC5ESt10error_codePKc,comdat
	.align	2
	.p2align 4,,11
	.weak	_ZNSt12system_errorC2ESt10error_codePKc
	.type	_ZNSt12system_errorC2ESt10error_codePKc, %function
_ZNSt12system_errorC2ESt10error_codePKc:
.LFB2226:
	.cfi_startproc
	.cfi_personality 0x9b,DW.ref.__gxx_personality_v0
	.cfi_lsda 0x1b,.LLSDA2226
	stp	x29, x30, [sp, -176]!
	.cfi_def_cfa_offset 176
	.cfi_offset 29, -176
	.cfi_offset 30, -168
	adrp	x4, :got:__stack_chk_guard
	mov	x29, sp
	stp	x19, x20, [sp, 16]
	.cfi_offset 19, -160
	.cfi_offset 20, -152
	mov	x20, x2
	mov	x19, x0
	ldr	x2, [x4, #:got_lo12:__stack_chk_guard]
	stp	x21, x22, [sp, 32]
	mov	x0, x20
	ldr	x4, [x20]
	.cfi_offset 21, -144
	.cfi_offset 22, -136
	mov	x21, x1
	mov	x22, x3
	ldr	x4, [x4, 32]
	str	x23, [sp, 48]
	.cfi_offset 23, -128
	add	x23, sp, 136
	mov	x8, x23
	ldr	x3, [x2]
	str	x3, [sp, 168]
	mov	x3, 0
.LEHB4:
	blr	x4
.LEHE4:
	adrp	x3, .LC19
	mov	x0, x23
	add	x3, x3, :lo12:.LC19
	mov	x4, 2
	mov	x2, 0
	mov	x1, 0
.LEHB5:
	bl	_ZNSt7__cxx1112basic_stringIcSt11char_traitsIcESaIcEE10_M_replaceEmmPKcm
.LEHE5:
	add	x23, sp, 120
	str	x23, [sp, 104]
	mov	x4, x0
	ldr	x1, [x0], 16
	cmp	x1, x0
	beq	.L485
	ldr	x2, [x4, 16]
	str	x1, [sp, 104]
	str	x2, [sp, 120]
.L467:
	ldr	x1, [x4, 8]
	str	x1, [sp, 112]
	stp	x0, xzr, [x4]
	mov	x0, x22
	strb	wzr, [x4, 16]
	bl	strlen
	mov	x4, x0
	mov	x3, x22
	add	x0, sp, 104
	mov	x2, 0
	mov	x1, 0
.LEHB6:
	bl	_ZNSt7__cxx1112basic_stringIcSt11char_traitsIcESaIcEE10_M_replaceEmmPKcm
.LEHE6:
	add	x22, sp, 88
	str	x22, [sp, 72]
	mov	x3, x0
	ldr	x1, [x0], 16
	cmp	x1, x0
	beq	.L486
	ldr	x2, [x3, 16]
	str	x1, [sp, 72]
	str	x2, [sp, 88]
.L469:
	ldr	x1, [x3, 8]
	str	x1, [sp, 80]
	stp	x0, xzr, [x3]
	add	x1, sp, 72
	mov	x0, x19
	strb	wzr, [x3, 16]
.LEHB7:
	bl	_ZNSt13runtime_errorC2ERKNSt7__cxx1112basic_stringIcSt11char_traitsIcESaIcEEE
.LEHE7:
	ldr	x0, [sp, 72]
	cmp	x0, x22
	beq	.L470
	ldr	x1, [sp, 88]
	add	x1, x1, 1
	bl	_ZdlPvm
.L470:
	ldr	x0, [sp, 104]
	cmp	x0, x23
	beq	.L471
	ldr	x1, [sp, 120]
	add	x1, x1, 1
	bl	_ZdlPvm
.L471:
	ldr	x0, [sp, 136]
	add	x1, sp, 152
	cmp	x0, x1
	beq	.L472
	ldr	x1, [sp, 152]
	add	x1, x1, 1
	bl	_ZdlPvm
.L472:
	adrp	x0, :got:_ZTVSt12system_error
	adrp	x1, :got:__stack_chk_guard
	stp	x21, x20, [x19, 16]
	ldr	x0, [x0, #:got_lo12:_ZTVSt12system_error]
	ldr	x1, [x1, #:got_lo12:__stack_chk_guard]
	add	x0, x0, 16
	str	x0, [x19]
	ldr	x0, [sp, 168]
	ldr	x2, [x1]
	subs	x0, x0, x2
	mov	x2, 0
	bne	.L487
	ldp	x19, x20, [sp, 16]
	ldp	x21, x22, [sp, 32]
	ldr	x23, [sp, 48]
	ldp	x29, x30, [sp], 176
	.cfi_remember_state
	.cfi_restore 30
	.cfi_restore 29
	.cfi_restore 23
	.cfi_restore 21
	.cfi_restore 22
	.cfi_restore 19
	.cfi_restore 20
	.cfi_def_cfa_offset 0
	ret
	.p2align 2,,3
.L485:
	.cfi_restore_state
	ldp	x2, x3, [x4, 16]
	stp	x2, x3, [sp, 120]
	b	.L467
	.p2align 2,,3
.L486:
	ldp	x4, x5, [x3, 16]
	stp	x4, x5, [sp, 88]
	b	.L469
.L487:
	bl	__stack_chk_fail
.L482:
	ldr	x2, [sp, 72]
	mov	x19, x0
	cmp	x2, x22
	beq	.L475
	ldr	x1, [sp, 88]
	mov	x0, x2
	add	x1, x1, 1
	bl	_ZdlPvm
.L475:
	ldr	x0, [sp, 104]
	cmp	x0, x23
	beq	.L477
	ldr	x1, [sp, 120]
	add	x1, x1, 1
	bl	_ZdlPvm
.L477:
	ldr	x0, [sp, 136]
	add	x1, sp, 152
	cmp	x0, x1
	beq	.L478
	ldr	x1, [sp, 152]
	add	x1, x1, 1
	bl	_ZdlPvm
.L478:
	mov	x0, x19
.LEHB8:
	bl	_Unwind_Resume
.LEHE8:
.L480:
	mov	x19, x0
	b	.L477
.L481:
	mov	x19, x0
	b	.L475
	.cfi_endproc
.LFE2226:
	.section	.gcc_except_table
.LLSDA2226:
	.byte	0xff
	.byte	0xff
	.byte	0x1
	.uleb128 .LLSDACSE2226-.LLSDACSB2226
.LLSDACSB2226:
	.uleb128 .LEHB4-.LFB2226
	.uleb128 .LEHE4-.LEHB4
	.uleb128 0
	.uleb128 0
	.uleb128 .LEHB5-.LFB2226
	.uleb128 .LEHE5-.LEHB5
	.uleb128 .L480-.LFB2226
	.uleb128 0
	.uleb128 .LEHB6-.LFB2226
	.uleb128 .LEHE6-.LEHB6
	.uleb128 .L481-.LFB2226
	.uleb128 0
	.uleb128 .LEHB7-.LFB2226
	.uleb128 .LEHE7-.LEHB7
	.uleb128 .L482-.LFB2226
	.uleb128 0
	.uleb128 .LEHB8-.LFB2226
	.uleb128 .LEHE8-.LEHB8
	.uleb128 0
	.uleb128 0
.LLSDACSE2226:
	.section	.text._ZNSt12system_errorC2ESt10error_codePKc,"axG",@progbits,_ZNSt12system_errorC5ESt10error_codePKc,comdat
	.size	_ZNSt12system_errorC2ESt10error_codePKc, .-_ZNSt12system_errorC2ESt10error_codePKc
	.weak	_ZNSt12system_errorC1ESt10error_codePKc
	.set	_ZNSt12system_errorC1ESt10error_codePKc,_ZNSt12system_errorC2ESt10error_codePKc
	.section	.text._ZN4asio15system_categoryEv,"axG",@progbits,_ZN4asio15system_categoryEv,comdat
	.align	2
	.p2align 4,,11
	.weak	_ZN4asio15system_categoryEv
	.type	_ZN4asio15system_categoryEv, %function
_ZN4asio15system_categoryEv:
.LFB2279:
	.cfi_startproc
	stp	x29, x30, [sp, -32]!
	.cfi_def_cfa_offset 32
	.cfi_offset 29, -32
	.cfi_offset 30, -24
	mov	x29, sp
	stp	x19, x20, [sp, 16]
	.cfi_offset 19, -16
	.cfi_offset 20, -8
	adrp	x19, :got:_ZGVZN4asio15system_categoryEvE8instance
	ldr	x19, [x19, #:got_lo12:_ZGVZN4asio15system_categoryEvE8instance]
	ldar	x0, [x19]
	adrp	x20, :got:_ZZN4asio15system_categoryEvE8instance
	tbz	x0, 0, .L496
.L490:
	ldr	x0, [x20, #:got_lo12:_ZZN4asio15system_categoryEvE8instance]
	ldp	x19, x20, [sp, 16]
	ldp	x29, x30, [sp], 32
	.cfi_remember_state
	.cfi_restore 30
	.cfi_restore 29
	.cfi_restore 19
	.cfi_restore 20
	.cfi_def_cfa_offset 0
	ret
	.p2align 2,,3
.L496:
	.cfi_restore_state
	mov	x0, x19
	adrp	x20, :got:_ZZN4asio15system_categoryEvE8instance
	bl	__cxa_guard_acquire
	cbz	w0, .L490
	adrp	x0, :got:_ZN4asio6detail15system_categoryD1Ev
	adrp	x2, __dso_handle
	ldr	x1, [x20, #:got_lo12:_ZZN4asio15system_categoryEvE8instance]
	add	x2, x2, :lo12:__dso_handle
	ldr	x0, [x0, #:got_lo12:_ZN4asio6detail15system_categoryD1Ev]
	bl	__cxa_atexit
	mov	x0, x19
	bl	__cxa_guard_release
	ldr	x0, [x20, #:got_lo12:_ZZN4asio15system_categoryEvE8instance]
	ldp	x19, x20, [sp, 16]
	ldp	x29, x30, [sp], 32
	.cfi_restore 30
	.cfi_restore 29
	.cfi_restore 19
	.cfi_restore 20
	.cfi_def_cfa_offset 0
	ret
	.cfi_endproc
.LFE2279:
	.size	_ZN4asio15system_categoryEv, .-_ZN4asio15system_categoryEv
	.global	__aarch64_ldadd4_acq_rel
	.section	.text._ZN7asiopal13SocketChannelD0Ev,"axG",@progbits,_ZN7asiopal13SocketChannelD5Ev,comdat
	.align	2
	.p2align 4,,11
	.weak	_ZN7asiopal13SocketChannelD0Ev
	.type	_ZN7asiopal13SocketChannelD0Ev, %function
_ZN7asiopal13SocketChannelD0Ev:
.LFB9449:
	.cfi_startproc
	.cfi_personality 0x9b,DW.ref.__gxx_personality_v0
	.cfi_lsda 0x1b,.LLSDA9449
	stp	x29, x30, [sp, -144]!
	.cfi_def_cfa_offset 144
	.cfi_offset 29, -144
	.cfi_offset 30, -136
	adrp	x2, :got:__stack_chk_guard
	adrp	x1, :got:_ZTVN7asiopal13SocketChannelE
	mov	x29, sp
	stp	x19, x20, [sp, 16]
	.cfi_offset 19, -128
	.cfi_offset 20, -120
	mov	x20, x0
	ldr	x2, [x2, #:got_lo12:__stack_chk_guard]
	stp	x21, x22, [sp, 32]
	ldr	w19, [x20, 64]
	ldr	x1, [x1, #:got_lo12:_ZTVN7asiopal13SocketChannelE]
	ldr	x0, [x2]
	str	x0, [sp, 136]
	mov	x0, 0
	add	x1, x1, 16
	str	x1, [x20]
	cmn	w19, #1
	.cfi_offset 21, -112
	.cfi_offset 22, -104
	bne	.L634
.L498:
	adrp	x0, :got:_ZTVN7asiopal13IAsyncChannelE
	ldr	x19, [x20, 48]
	ldr	x0, [x0, #:got_lo12:_ZTVN7asiopal13IAsyncChannelE]
	add	x0, x0, 16
	str	x0, [x20]
	cbz	x19, .L546
	adrp	x21, :got:__libc_single_threaded
	ldr	x0, [x21, #:got_lo12:__libc_single_threaded]
	ldrb	w0, [x0]
	cbz	w0, .L547
	ldr	w0, [x19, 8]
	sub	w1, w0, #1
	str	w1, [x19, 8]
.L548:
	cmp	w0, 1
	beq	.L635
.L546:
	ldr	x19, [x20, 32]
	cbz	x19, .L553
	adrp	x21, :got:__libc_single_threaded
	ldr	x0, [x21, #:got_lo12:__libc_single_threaded]
	ldrb	w0, [x0]
	cbz	w0, .L554
	ldr	w0, [x19, 8]
	sub	w1, w0, #1
	str	w1, [x19, 8]
.L555:
	cmp	w0, 1
	beq	.L636
.L553:
	ldr	x19, [x20, 16]
	cbz	x19, .L560
	adrp	x0, :got:__libc_single_threaded
	ldr	x0, [x0, #:got_lo12:__libc_single_threaded]
	ldrb	w0, [x0]
	cbz	w0, .L561
	ldr	w0, [x19, 12]
	sub	w1, w0, #1
	str	w1, [x19, 12]
.L562:
	cmp	w0, 1
	beq	.L637
.L560:
	adrp	x0, :got:__stack_chk_guard
	ldr	x0, [x0, #:got_lo12:__stack_chk_guard]
	ldr	x2, [sp, 136]
	ldr	x1, [x0]
	subs	x2, x2, x1
	mov	x1, 0
	bne	.L638
	mov	x0, x20
	mov	x1, 96
	ldp	x19, x20, [sp, 16]
	ldp	x21, x22, [sp, 32]
	ldp	x29, x30, [sp], 144
	.cfi_remember_state
	.cfi_restore 30
	.cfi_restore 29
	.cfi_restore 21
	.cfi_restore 22
	.cfi_restore 19
	.cfi_restore 20
	.cfi_def_cfa_offset 0
	b	_ZdlPvm
	.p2align 2,,3
.L634:
	.cfi_restore_state
	ldr	x22, [x20, 72]
	stp	x23, x24, [sp, 48]
	.cfi_offset 24, -88
	.cfi_offset 23, -96
	stp	x25, x26, [sp, 64]
	.cfi_offset 26, -72
	.cfi_offset 25, -80
	cbz	x22, .L528
	ldr	x1, [x20, 88]
	add	x22, x22, 40
	ldrb	w21, [x20, 68]
	mov	x0, x22
	ldr	x1, [x1, 40]
	str	x1, [sp, 96]
	bl	pthread_mutex_lock
	ldr	x3, [x20, 72]
	ldrb	w0, [x3, 152]
	cbnz	w0, .L500
	stp	x27, x28, [sp, 80]
	.cfi_offset 28, -56
	.cfi_offset 27, -64
	tbnz	x21, 6, .L639
.L501:
	adrp	x28, :got:_ZGVZN4asio15system_categoryEvE8instance
	adrp	x26, __dso_handle
	mov	x27, 0
	add	x0, x26, :lo12:__dso_handle
	ldr	x28, [x28, #:got_lo12:_ZGVZN4asio15system_categoryEvE8instance]
	mov	x24, 0
	mov	w21, 0
	str	x0, [sp, 104]
.L502:
	add	x0, x3, w21, sxtw 4
	sxtw	x25, w21
	ldr	x19, [x0, 104]
	cbz	x19, .L568
	adrp	x23, :got:_ZN4asio6detail15system_categoryD1Ev
	adrp	x26, :got:_ZZN4asio15system_categoryEvE8instance
	ldr	x23, [x23, #:got_lo12:_ZN4asio6detail15system_categoryD1Ev]
	ldar	x0, [x28]
	tbz	x0, 0, .L640
	.p2align 3,,7
.L504:
	ldr	x3, [x20, 72]
	mov	w1, 125
	ldr	x0, [x26, #:got_lo12:_ZZN4asio15system_categoryEvE8instance]
	str	x0, [x19, 32]
	add	x2, x3, x25, lsl 4
	str	w1, [x19, 24]
	ldr	x0, [x2, 104]
	cbz	x0, .L506
.L643:
	ldr	x1, [x0]
	str	x1, [x2, 104]
	cbz	x1, .L641
	str	xzr, [x0]
	str	xzr, [x19]
	cbz	x27, .L642
.L565:
	str	x19, [x27]
	cbz	x1, .L508
.L509:
	mov	x27, x19
	mov	x19, x1
	ldar	x0, [x28]
	tbnz	x0, 0, .L504
.L640:
	mov	x0, x28
	bl	__cxa_guard_acquire
	cbz	w0, .L504
	ldr	x1, [x26, #:got_lo12:_ZZN4asio15system_categoryEvE8instance]
	mov	x0, x23
	ldr	x2, [sp, 104]
	bl	__cxa_atexit
	mov	x0, x28
	bl	__cxa_guard_release
	ldr	x3, [x20, 72]
	mov	w1, 125
	ldr	x0, [x26, #:got_lo12:_ZZN4asio15system_categoryEvE8instance]
	str	x0, [x19, 32]
	add	x2, x3, x25, lsl 4
	str	w1, [x19, 24]
	ldr	x0, [x2, 104]
	cbnz	x0, .L643
	.p2align 3,,7
.L506:
	str	xzr, [x19]
	cbz	x27, .L569
	str	x19, [x27]
.L508:
	add	w21, w21, 1
	cmp	w21, 3
	beq	.L510
.L648:
	mov	x27, x19
	b	.L502
	.p2align 2,,3
.L500:
	.cfi_restore 27
	.cfi_restore 28
	mov	x0, x22
	bl	pthread_mutex_unlock
	ldr	w19, [x20, 64]
.L522:
	cmn	w19, #1
	beq	.L628
.L528:
	ldrb	w22, [x20, 68]
	bl	__errno_location
	adrp	x23, :got:_ZGVZN4asio15system_categoryEvE8instance
	mov	x21, x0
	tbnz	x22, 3, .L644
.L530:
	str	wzr, [x21]
	mov	w0, w19
	bl	close
	ldr	w25, [x21]
	ldr	x24, [x23, #:got_lo12:_ZGVZN4asio15system_categoryEvE8instance]
	mov	w22, w0
	ldar	x0, [x24]
	tbz	x0, 0, .L645
.L535:
	cbnz	w22, .L646
.L628:
	ldp	x23, x24, [sp, 48]
	.cfi_restore 24
	.cfi_restore 23
	ldp	x25, x26, [sp, 64]
	.cfi_restore 26
	.cfi_restore 25
	b	.L498
	.p2align 2,,3
.L635:
	ldr	x1, [x19]
	mov	x0, x19
	ldr	x1, [x1, 16]
	blr	x1
	ldr	x21, [x21, #:got_lo12:__libc_single_threaded]
	ldrb	w0, [x21]
	cbz	w0, .L550
	ldr	w0, [x19, 12]
	sub	w1, w0, #1
	str	w1, [x19, 12]
.L551:
	cmp	w0, 1
	bne	.L546
	ldr	x1, [x19]
	mov	x0, x19
	ldr	x1, [x1, 24]
	blr	x1
	b	.L546
	.p2align 2,,3
.L636:
	ldr	x1, [x19]
	mov	x0, x19
	ldr	x1, [x1, 16]
	blr	x1
	ldr	x21, [x21, #:got_lo12:__libc_single_threaded]
	ldrb	w0, [x21]
	cbz	w0, .L557
	ldr	w0, [x19, 12]
	sub	w1, w0, #1
	str	w1, [x19, 12]
.L558:
	cmp	w0, 1
	bne	.L553
	ldr	x1, [x19]
	mov	x0, x19
	ldr	x1, [x1, 24]
	blr	x1
	b	.L553
	.p2align 2,,3
.L637:
	ldr	x1, [x19]
	mov	x0, x19
	ldr	x1, [x1, 24]
	blr	x1
	b	.L560
	.p2align 2,,3
.L561:
	add	x1, x19, 12
	mov	w0, -1
	bl	__aarch64_ldadd4_acq_rel
	b	.L562
	.p2align 2,,3
.L547:
	add	x1, x19, 8
	mov	w0, -1
	bl	__aarch64_ldadd4_acq_rel
	b	.L548
	.p2align 2,,3
.L554:
	add	x1, x19, 8
	mov	w0, -1
	bl	__aarch64_ldadd4_acq_rel
	b	.L555
	.p2align 2,,3
.L645:
	.cfi_offset 23, -96
	.cfi_offset 24, -88
	.cfi_offset 25, -80
	.cfi_offset 26, -72
	mov	x0, x24
	bl	__cxa_guard_acquire
	cbz	w0, .L535
	adrp	x1, :got:_ZZN4asio15system_categoryEvE8instance
	adrp	x0, :got:_ZN4asio6detail15system_categoryD1Ev
	adrp	x2, __dso_handle
	add	x2, x2, :lo12:__dso_handle
	ldr	x1, [x1, #:got_lo12:_ZZN4asio15system_categoryEvE8instance]
	ldr	x0, [x0, #:got_lo12:_ZN4asio6detail15system_categoryD1Ev]
	bl	__cxa_atexit
	mov	x0, x24
	bl	__cxa_guard_release
	cbz	w22, .L628
	.p2align 3,,7
.L646:
	ldr	x22, [x23, #:got_lo12:_ZGVZN4asio15system_categoryEvE8instance]
	ldar	x0, [x22]
	tbz	x0, 0, .L647
.L539:
	cmp	w25, 11
	beq	.L541
.L633:
	ldr	x23, [x23, #:got_lo12:_ZGVZN4asio15system_categoryEvE8instance]
	ldar	x0, [x23]
	tbnz	x0, 0, .L628
	mov	x0, x23
	bl	__cxa_guard_acquire
	cbz	w0, .L628
	adrp	x1, :got:_ZZN4asio15system_categoryEvE8instance
	adrp	x0, :got:_ZN4asio6detail15system_categoryD1Ev
	adrp	x2, __dso_handle
	add	x2, x2, :lo12:__dso_handle
	ldr	x1, [x1, #:got_lo12:_ZZN4asio15system_categoryEvE8instance]
	ldr	x0, [x0, #:got_lo12:_ZN4asio6detail15system_categoryD1Ev]
	bl	__cxa_atexit
	mov	x0, x23
	bl	__cxa_guard_release
	ldp	x23, x24, [sp, 48]
	.cfi_restore 24
	.cfi_restore 23
	ldp	x25, x26, [sp, 64]
	.cfi_restore 26
	.cfi_restore 25
	b	.L498
	.p2align 2,,3
.L641:
	.cfi_offset 23, -96
	.cfi_offset 24, -88
	.cfi_offset 25, -80
	.cfi_offset 26, -72
	.cfi_offset 27, -64
	.cfi_offset 28, -56
	str	xzr, [x2, 112]
	str	xzr, [x0]
	str	xzr, [x19]
	cbnz	x27, .L565
	.p2align 3,,7
.L569:
	add	w21, w21, 1
	mov	x24, x19
	cmp	w21, 3
	bne	.L648
.L510:
	ldr	x23, [sp, 96]
	mov	w1, 1
	mov	w0, -1
	str	w0, [x3, 96]
	strb	w1, [x3, 152]
	mov	x0, x22
	add	x22, x23, 128
	bl	pthread_mutex_unlock
	mov	x0, x22
	ldr	x21, [x20, 72]
	bl	pthread_mutex_lock
	ldr	x0, [x23, 176]
	cmp	x21, x0
	beq	.L649
.L512:
	ldr	x0, [x21, 32]
	cbz	x0, .L513
	ldr	x1, [x21, 24]
	str	x1, [x0, 24]
.L513:
	ldr	x0, [x21, 24]
	cbz	x0, .L514
	ldr	x1, [x21, 32]
	str	x1, [x0, 32]
.L514:
	ldr	x23, [sp, 96]
	mov	x0, x22
	ldr	x2, [x23, 184]
	stp	x2, xzr, [x21, 24]
	str	x21, [x23, 184]
	bl	pthread_mutex_unlock
	str	xzr, [x20, 72]
	cbz	x24, .L515
	ldr	x21, [x23, 40]
	ldrb	w0, [x21, 40]
	cbz	w0, .L516
	adrp	x0, :got:_ZN4asio6detail10call_stackINS0_15task_io_serviceENS0_27task_io_service_thread_infoEE4top_E
	ldr	x0, [x0, #:got_lo12:_ZN4asio6detail10call_stackINS0_15task_io_serviceENS0_27task_io_service_thread_infoEE4top_E]
	ldr	w0, [x0]
	bl	pthread_getspecific
	cbnz	x0, .L519
	b	.L516
	.p2align 2,,3
.L517:
	ldr	x0, [x0, 16]
	cbz	x0, .L516
.L519:
	ldr	x1, [x0]
	cmp	x21, x1
	bne	.L517
	ldr	x0, [x0, 8]
	cbz	x0, .L516
	ldr	x2, [x0, 16]
	add	x1, x0, 8
	cbz	x2, .L520
	str	x24, [x2]
	str	x19, [x1, 8]
	.p2align 3,,7
.L515:
	ldr	w19, [x20, 64]
	ldp	x27, x28, [sp, 80]
	.cfi_remember_state
	.cfi_restore 28
	.cfi_restore 27
	b	.L522
	.p2align 2,,3
.L642:
	.cfi_restore_state
	mov	x24, x19
	b	.L509
	.p2align 2,,3
.L644:
	.cfi_restore 27
	.cfi_restore 28
	orr	w22, w22, 8
	strb	w22, [x20, 68]
	str	wzr, [x21]
	add	x3, sp, 120
	mov	w0, w19
	mov	w4, 8
	mov	w2, 13
	mov	w1, 1
	str	xzr, [sp, 120]
	bl	setsockopt
	ldr	x22, [x23, #:got_lo12:_ZGVZN4asio15system_categoryEvE8instance]
	ldar	x0, [x22]
	tbnz	x0, 0, .L530
	mov	x0, x22
	bl	__cxa_guard_acquire
	cbz	w0, .L530
	adrp	x1, :got:_ZZN4asio15system_categoryEvE8instance
	adrp	x0, :got:_ZN4asio6detail15system_categoryD1Ev
	adrp	x2, __dso_handle
	add	x2, x2, :lo12:__dso_handle
	ldr	x1, [x1, #:got_lo12:_ZZN4asio15system_categoryEvE8instance]
	ldr	x0, [x0, #:got_lo12:_ZN4asio6detail15system_categoryD1Ev]
	bl	__cxa_atexit
	mov	x0, x22
	bl	__cxa_guard_release
	b	.L530
	.p2align 2,,3
.L516:
	.cfi_offset 27, -64
	.cfi_offset 28, -56
	add	x23, x21, 48
	mov	x0, x23
	bl	pthread_mutex_lock
	ldr	x1, [x21, 208]
	add	x0, x21, 200
	cbz	x1, .L523
	str	x24, [x1]
.L524:
	str	x19, [x0, 8]
	add	x22, x21, 96
	ldr	x0, [x21, 144]
	orr	x0, x0, 1
	str	x0, [x21, 144]
	cmp	x0, 1
	beq	.L525
	mov	x0, x23
	bl	pthread_mutex_unlock
	mov	x0, x22
	bl	pthread_cond_signal
	b	.L515
.L525:
	ldrb	w1, [x21, 184]
	cbnz	w1, .L527
	ldr	x4, [x21, 152]
	cbz	x4, .L527
	mov	w1, 9
	strb	w0, [x21, 184]
	ldr	w2, [x4, 96]
	add	x0, x4, 96
	movk	w1, 0x8000, lsl 16
	str	w1, [sp, 120]
	str	x0, [sp, 128]
	add	x3, sp, 120
	mov	w1, 3
	ldr	w0, [x4, 104]
	bl	epoll_ctl
.L527:
	mov	x0, x23
	bl	pthread_mutex_unlock
	b	.L515
	.p2align 2,,3
.L550:
	.cfi_restore 23
	.cfi_restore 24
	.cfi_restore 25
	.cfi_restore 26
	.cfi_restore 27
	.cfi_restore 28
	add	x1, x19, 12
	mov	w0, -1
	bl	__aarch64_ldadd4_acq_rel
	b	.L551
	.p2align 2,,3
.L557:
	add	x1, x19, 12
	mov	w0, -1
	bl	__aarch64_ldadd4_acq_rel
	b	.L558
	.p2align 2,,3
.L639:
	.cfi_offset 23, -96
	.cfi_offset 24, -88
	.cfi_offset 25, -80
	.cfi_offset 26, -72
	.cfi_offset 27, -64
	.cfi_offset 28, -56
	ldr	x0, [sp, 96]
	str	wzr, [sp, 120]
	str	xzr, [sp, 128]
	add	x3, sp, 120
	mov	w2, w19
	mov	w1, 2
	ldr	w0, [x0, 104]
	bl	epoll_ctl
	ldr	x3, [x20, 72]
	b	.L501
	.p2align 2,,3
.L568:
	mov	x19, x27
	b	.L508
	.p2align 2,,3
.L649:
	ldr	x1, [sp, 96]
	ldr	x0, [x21, 24]
	str	x0, [x1, 176]
	b	.L512
.L647:
	.cfi_restore 27
	.cfi_restore 28
	mov	x0, x22
	bl	__cxa_guard_acquire
	cbz	w0, .L539
	adrp	x1, :got:_ZZN4asio15system_categoryEvE8instance
	adrp	x0, :got:_ZN4asio6detail15system_categoryD1Ev
	adrp	x2, __dso_handle
	add	x2, x2, :lo12:__dso_handle
	ldr	x1, [x1, #:got_lo12:_ZZN4asio15system_categoryEvE8instance]
	ldr	x0, [x0, #:got_lo12:_ZN4asio6detail15system_categoryD1Ev]
	bl	__cxa_atexit
	mov	x0, x22
	bl	__cxa_guard_release
	b	.L539
.L541:
	add	x2, sp, 120
	mov	w0, w19
	mov	x1, 21537
	str	wzr, [sp, 120]
	bl	ioctl
	ldrb	w1, [x20, 68]
	mov	w0, w19
	and	w1, w1, -4
	strb	w1, [x20, 68]
	str	wzr, [x21]
	bl	close
	b	.L633
.L523:
	.cfi_offset 27, -64
	.cfi_offset 28, -56
	str	x24, [x21, 200]
	b	.L524
.L520:
	str	x24, [x0, 8]
	str	x19, [x1, 8]
	b	.L515
.L638:
	.cfi_restore 23
	.cfi_restore 24
	.cfi_restore 25
	.cfi_restore 26
	.cfi_restore 27
	.cfi_restore 28
	stp	x23, x24, [sp, 48]
	.cfi_offset 24, -88
	.cfi_offset 23, -96
	stp	x25, x26, [sp, 64]
	.cfi_offset 26, -72
	.cfi_offset 25, -80
	stp	x27, x28, [sp, 80]
	.cfi_offset 28, -56
	.cfi_offset 27, -64
	bl	__stack_chk_fail
	.cfi_endproc
.LFE9449:
	.section	.gcc_except_table
.LLSDA9449:
	.byte	0xff
	.byte	0xff
	.byte	0x1
	.uleb128 .LLSDACSE9449-.LLSDACSB9449
.LLSDACSB9449:
.LLSDACSE9449:
	.section	.text._ZN7asiopal13SocketChannelD0Ev,"axG",@progbits,_ZN7asiopal13SocketChannelD5Ev,comdat
	.size	_ZN7asiopal13SocketChannelD0Ev, .-_ZN7asiopal13SocketChannelD0Ev
	.section	.text._ZN7asiopal13SocketChannelD2Ev,"axG",@progbits,_ZN7asiopal13SocketChannelD5Ev,comdat
	.align	2
	.p2align 4,,11
	.weak	_ZN7asiopal13SocketChannelD2Ev
	.type	_ZN7asiopal13SocketChannelD2Ev, %function
_ZN7asiopal13SocketChannelD2Ev:
.LFB9447:
	.cfi_startproc
	.cfi_personality 0x9b,DW.ref.__gxx_personality_v0
	.cfi_lsda 0x1b,.LLSDA9447
	stp	x29, x30, [sp, -144]!
	.cfi_def_cfa_offset 144
	.cfi_offset 29, -144
	.cfi_offset 30, -136
	adrp	x2, :got:__stack_chk_guard
	adrp	x1, :got:_ZTVN7asiopal13SocketChannelE
	mov	x29, sp
	stp	x19, x20, [sp, 16]
	.cfi_offset 19, -128
	.cfi_offset 20, -120
	mov	x20, x0
	ldr	x2, [x2, #:got_lo12:__stack_chk_guard]
	stp	x21, x22, [sp, 32]
	ldr	w19, [x20, 64]
	ldr	x1, [x1, #:got_lo12:_ZTVN7asiopal13SocketChannelE]
	ldr	x0, [x2]
	str	x0, [sp, 136]
	mov	x0, 0
	add	x1, x1, 16
	str	x1, [x20]
	cmn	w19, #1
	.cfi_offset 21, -112
	.cfi_offset 22, -104
	bne	.L788
.L651:
	adrp	x0, :got:_ZTVN7asiopal13IAsyncChannelE
	ldr	x19, [x20, 48]
	ldr	x0, [x0, #:got_lo12:_ZTVN7asiopal13IAsyncChannelE]
	add	x0, x0, 16
	str	x0, [x20]
	cbz	x19, .L699
	adrp	x21, :got:__libc_single_threaded
	ldr	x0, [x21, #:got_lo12:__libc_single_threaded]
	ldrb	w0, [x0]
	cbz	w0, .L700
	ldr	w0, [x19, 8]
	sub	w1, w0, #1
	str	w1, [x19, 8]
.L701:
	cmp	w0, 1
	beq	.L789
.L699:
	ldr	x19, [x20, 32]
	cbz	x19, .L706
	adrp	x21, :got:__libc_single_threaded
	ldr	x0, [x21, #:got_lo12:__libc_single_threaded]
	ldrb	w0, [x0]
	cbz	w0, .L707
	ldr	w0, [x19, 8]
	sub	w1, w0, #1
	str	w1, [x19, 8]
.L708:
	cmp	w0, 1
	beq	.L790
.L706:
	ldr	x19, [x20, 16]
	cbz	x19, .L650
	adrp	x0, :got:__libc_single_threaded
	ldr	x0, [x0, #:got_lo12:__libc_single_threaded]
	ldrb	w0, [x0]
	cbz	w0, .L714
	ldr	w0, [x19, 12]
	sub	w1, w0, #1
	str	w1, [x19, 12]
.L715:
	cmp	w0, 1
	beq	.L791
.L650:
	adrp	x0, :got:__stack_chk_guard
	ldr	x0, [x0, #:got_lo12:__stack_chk_guard]
	ldr	x2, [sp, 136]
	ldr	x1, [x0]
	subs	x2, x2, x1
	mov	x1, 0
	bne	.L783
	ldp	x19, x20, [sp, 16]
	ldp	x21, x22, [sp, 32]
	ldp	x29, x30, [sp], 144
	.cfi_remember_state
	.cfi_restore 30
	.cfi_restore 29
	.cfi_restore 21
	.cfi_restore 22
	.cfi_restore 19
	.cfi_restore 20
	.cfi_def_cfa_offset 0
	ret
	.p2align 2,,3
.L788:
	.cfi_restore_state
	ldr	x22, [x20, 72]
	stp	x23, x24, [sp, 48]
	.cfi_offset 24, -88
	.cfi_offset 23, -96
	stp	x25, x26, [sp, 64]
	.cfi_offset 26, -72
	.cfi_offset 25, -80
	cbz	x22, .L681
	ldr	x1, [x20, 88]
	add	x22, x22, 40
	ldrb	w21, [x20, 68]
	mov	x0, x22
	ldr	x1, [x1, 40]
	str	x1, [sp, 96]
	bl	pthread_mutex_lock
	ldr	x3, [x20, 72]
	ldrb	w0, [x3, 152]
	cbnz	w0, .L653
	stp	x27, x28, [sp, 80]
	.cfi_offset 28, -56
	.cfi_offset 27, -64
	tbnz	x21, 6, .L792
.L654:
	adrp	x28, :got:_ZGVZN4asio15system_categoryEvE8instance
	adrp	x26, __dso_handle
	mov	x27, 0
	add	x0, x26, :lo12:__dso_handle
	ldr	x28, [x28, #:got_lo12:_ZGVZN4asio15system_categoryEvE8instance]
	mov	x24, 0
	mov	w21, 0
	str	x0, [sp, 104]
.L655:
	add	x0, x3, w21, sxtw 4
	sxtw	x25, w21
	ldr	x19, [x0, 104]
	cbz	x19, .L721
	adrp	x23, :got:_ZN4asio6detail15system_categoryD1Ev
	adrp	x26, :got:_ZZN4asio15system_categoryEvE8instance
	ldr	x23, [x23, #:got_lo12:_ZN4asio6detail15system_categoryD1Ev]
	ldar	x0, [x28]
	tbz	x0, 0, .L793
	.p2align 3,,7
.L657:
	ldr	x3, [x20, 72]
	mov	w0, 125
	str	w0, [x19, 24]
	ldr	x1, [x26, #:got_lo12:_ZZN4asio15system_categoryEvE8instance]
	add	x2, x3, x25, lsl 4
	str	x1, [x19, 32]
	ldr	x0, [x2, 104]
	cbz	x0, .L659
.L796:
	ldr	x1, [x0]
	str	x1, [x2, 104]
	cbz	x1, .L794
	str	xzr, [x0]
	str	xzr, [x19]
	cbz	x27, .L795
.L718:
	str	x19, [x27]
	cbz	x1, .L661
.L662:
	mov	x27, x19
	mov	x19, x1
	ldar	x0, [x28]
	tbnz	x0, 0, .L657
.L793:
	mov	x0, x28
	bl	__cxa_guard_acquire
	cbz	w0, .L657
	ldr	x1, [x26, #:got_lo12:_ZZN4asio15system_categoryEvE8instance]
	mov	x0, x23
	ldr	x2, [sp, 104]
	bl	__cxa_atexit
	mov	x0, x28
	bl	__cxa_guard_release
	ldr	x3, [x20, 72]
	mov	w0, 125
	str	w0, [x19, 24]
	ldr	x1, [x26, #:got_lo12:_ZZN4asio15system_categoryEvE8instance]
	add	x2, x3, x25, lsl 4
	str	x1, [x19, 32]
	ldr	x0, [x2, 104]
	cbnz	x0, .L796
	.p2align 3,,7
.L659:
	str	xzr, [x19]
	cbz	x27, .L722
	str	x19, [x27]
.L661:
	add	w21, w21, 1
	cmp	w21, 3
	beq	.L663
.L801:
	mov	x27, x19
	b	.L655
	.p2align 2,,3
.L653:
	.cfi_restore 27
	.cfi_restore 28
	mov	x0, x22
	bl	pthread_mutex_unlock
	ldr	w19, [x20, 64]
.L675:
	cmn	w19, #1
	beq	.L781
.L681:
	ldrb	w22, [x20, 68]
	bl	__errno_location
	adrp	x23, :got:_ZGVZN4asio15system_categoryEvE8instance
	mov	x21, x0
	tbnz	x22, 3, .L797
.L683:
	str	wzr, [x21]
	mov	w0, w19
	bl	close
	ldr	w25, [x21]
	ldr	x24, [x23, #:got_lo12:_ZGVZN4asio15system_categoryEvE8instance]
	mov	w22, w0
	ldar	x0, [x24]
	tbz	x0, 0, .L798
.L688:
	cbnz	w22, .L799
.L781:
	ldp	x23, x24, [sp, 48]
	.cfi_restore 24
	.cfi_restore 23
	ldp	x25, x26, [sp, 64]
	.cfi_restore 26
	.cfi_restore 25
	b	.L651
	.p2align 2,,3
.L789:
	ldr	x1, [x19]
	mov	x0, x19
	ldr	x1, [x1, 16]
	blr	x1
	ldr	x21, [x21, #:got_lo12:__libc_single_threaded]
	ldrb	w0, [x21]
	cbz	w0, .L703
	ldr	w0, [x19, 12]
	sub	w1, w0, #1
	str	w1, [x19, 12]
.L704:
	cmp	w0, 1
	bne	.L699
	ldr	x1, [x19]
	mov	x0, x19
	ldr	x1, [x1, 24]
	blr	x1
	b	.L699
	.p2align 2,,3
.L790:
	ldr	x1, [x19]
	mov	x0, x19
	ldr	x1, [x1, 16]
	blr	x1
	ldr	x21, [x21, #:got_lo12:__libc_single_threaded]
	ldrb	w0, [x21]
	cbz	w0, .L710
	ldr	w0, [x19, 12]
	sub	w1, w0, #1
	str	w1, [x19, 12]
.L711:
	cmp	w0, 1
	bne	.L706
	ldr	x1, [x19]
	mov	x0, x19
	ldr	x1, [x1, 24]
	blr	x1
	b	.L706
	.p2align 2,,3
.L791:
	adrp	x0, :got:__stack_chk_guard
	ldr	x0, [x0, #:got_lo12:__stack_chk_guard]
	ldr	x2, [sp, 136]
	ldr	x1, [x0]
	subs	x2, x2, x1
	mov	x1, 0
	bne	.L783
	ldr	x1, [x19]
	mov	x0, x19
	ldp	x19, x20, [sp, 16]
	ldr	x1, [x1, 24]
	ldp	x21, x22, [sp, 32]
	mov	x16, x1
	ldp	x29, x30, [sp], 144
	.cfi_remember_state
	.cfi_restore 30
	.cfi_restore 29
	.cfi_restore 21
	.cfi_restore 22
	.cfi_restore 19
	.cfi_restore 20
	.cfi_def_cfa_offset 0
	br	x16
	.p2align 2,,3
.L714:
	.cfi_restore_state
	add	x1, x19, 12
	mov	w0, -1
	bl	__aarch64_ldadd4_acq_rel
	b	.L715
	.p2align 2,,3
.L700:
	add	x1, x19, 8
	mov	w0, -1
	bl	__aarch64_ldadd4_acq_rel
	b	.L701
	.p2align 2,,3
.L707:
	add	x1, x19, 8
	mov	w0, -1
	bl	__aarch64_ldadd4_acq_rel
	b	.L708
	.p2align 2,,3
.L798:
	.cfi_offset 23, -96
	.cfi_offset 24, -88
	.cfi_offset 25, -80
	.cfi_offset 26, -72
	mov	x0, x24
	bl	__cxa_guard_acquire
	cbz	w0, .L688
	adrp	x1, :got:_ZZN4asio15system_categoryEvE8instance
	adrp	x0, :got:_ZN4asio6detail15system_categoryD1Ev
	adrp	x2, __dso_handle
	add	x2, x2, :lo12:__dso_handle
	ldr	x1, [x1, #:got_lo12:_ZZN4asio15system_categoryEvE8instance]
	ldr	x0, [x0, #:got_lo12:_ZN4asio6detail15system_categoryD1Ev]
	bl	__cxa_atexit
	mov	x0, x24
	bl	__cxa_guard_release
	cbz	w22, .L781
	.p2align 3,,7
.L799:
	ldr	x22, [x23, #:got_lo12:_ZGVZN4asio15system_categoryEvE8instance]
	ldar	x0, [x22]
	tbz	x0, 0, .L800
.L692:
	cmp	w25, 11
	beq	.L694
.L787:
	ldr	x23, [x23, #:got_lo12:_ZGVZN4asio15system_categoryEvE8instance]
	ldar	x0, [x23]
	tbnz	x0, 0, .L781
	mov	x0, x23
	bl	__cxa_guard_acquire
	cbz	w0, .L781
	adrp	x1, :got:_ZZN4asio15system_categoryEvE8instance
	adrp	x0, :got:_ZN4asio6detail15system_categoryD1Ev
	adrp	x2, __dso_handle
	add	x2, x2, :lo12:__dso_handle
	ldr	x1, [x1, #:got_lo12:_ZZN4asio15system_categoryEvE8instance]
	ldr	x0, [x0, #:got_lo12:_ZN4asio6detail15system_categoryD1Ev]
	bl	__cxa_atexit
	mov	x0, x23
	bl	__cxa_guard_release
	ldp	x23, x24, [sp, 48]
	.cfi_restore 24
	.cfi_restore 23
	ldp	x25, x26, [sp, 64]
	.cfi_restore 26
	.cfi_restore 25
	b	.L651
	.p2align 2,,3
.L794:
	.cfi_offset 23, -96
	.cfi_offset 24, -88
	.cfi_offset 25, -80
	.cfi_offset 26, -72
	.cfi_offset 27, -64
	.cfi_offset 28, -56
	str	xzr, [x2, 112]
	str	xzr, [x0]
	str	xzr, [x19]
	cbnz	x27, .L718
	.p2align 3,,7
.L722:
	add	w21, w21, 1
	mov	x24, x19
	cmp	w21, 3
	bne	.L801
.L663:
	ldr	x23, [sp, 96]
	mov	w1, 1
	mov	w0, -1
	str	w0, [x3, 96]
	strb	w1, [x3, 152]
	mov	x0, x22
	add	x22, x23, 128
	bl	pthread_mutex_unlock
	mov	x0, x22
	ldr	x21, [x20, 72]
	bl	pthread_mutex_lock
	ldr	x0, [x23, 176]
	cmp	x21, x0
	beq	.L802
.L665:
	ldr	x0, [x21, 32]
	cbz	x0, .L666
	ldr	x1, [x21, 24]
	str	x1, [x0, 24]
.L666:
	ldr	x0, [x21, 24]
	cbz	x0, .L667
	ldr	x1, [x21, 32]
	str	x1, [x0, 32]
.L667:
	ldr	x23, [sp, 96]
	mov	x0, x22
	ldr	x2, [x23, 184]
	stp	x2, xzr, [x21, 24]
	str	x21, [x23, 184]
	bl	pthread_mutex_unlock
	str	xzr, [x20, 72]
	cbz	x24, .L668
	ldr	x21, [x23, 40]
	ldrb	w0, [x21, 40]
	cbz	w0, .L669
	adrp	x0, :got:_ZN4asio6detail10call_stackINS0_15task_io_serviceENS0_27task_io_service_thread_infoEE4top_E
	ldr	x0, [x0, #:got_lo12:_ZN4asio6detail10call_stackINS0_15task_io_serviceENS0_27task_io_service_thread_infoEE4top_E]
	ldr	w0, [x0]
	bl	pthread_getspecific
	cbnz	x0, .L672
	b	.L669
	.p2align 2,,3
.L670:
	ldr	x0, [x0, 16]
	cbz	x0, .L669
.L672:
	ldr	x1, [x0]
	cmp	x21, x1
	bne	.L670
	ldr	x0, [x0, 8]
	cbz	x0, .L669
	ldr	x2, [x0, 16]
	add	x1, x0, 8
	cbz	x2, .L673
	str	x24, [x2]
	str	x19, [x1, 8]
	.p2align 3,,7
.L668:
	ldr	w19, [x20, 64]
	ldp	x27, x28, [sp, 80]
	.cfi_remember_state
	.cfi_restore 28
	.cfi_restore 27
	b	.L675
	.p2align 2,,3
.L795:
	.cfi_restore_state
	mov	x24, x19
	b	.L662
	.p2align 2,,3
.L797:
	.cfi_restore 27
	.cfi_restore 28
	orr	w22, w22, 8
	strb	w22, [x20, 68]
	str	wzr, [x21]
	add	x3, sp, 120
	mov	w0, w19
	mov	w4, 8
	mov	w2, 13
	mov	w1, 1
	str	xzr, [sp, 120]
	bl	setsockopt
	ldr	x22, [x23, #:got_lo12:_ZGVZN4asio15system_categoryEvE8instance]
	ldar	x0, [x22]
	tbnz	x0, 0, .L683
	mov	x0, x22
	bl	__cxa_guard_acquire
	cbz	w0, .L683
	adrp	x1, :got:_ZZN4asio15system_categoryEvE8instance
	adrp	x0, :got:_ZN4asio6detail15system_categoryD1Ev
	adrp	x2, __dso_handle
	add	x2, x2, :lo12:__dso_handle
	ldr	x1, [x1, #:got_lo12:_ZZN4asio15system_categoryEvE8instance]
	ldr	x0, [x0, #:got_lo12:_ZN4asio6detail15system_categoryD1Ev]
	bl	__cxa_atexit
	mov	x0, x22
	bl	__cxa_guard_release
	b	.L683
	.p2align 2,,3
.L669:
	.cfi_offset 27, -64
	.cfi_offset 28, -56
	add	x23, x21, 48
	mov	x0, x23
	bl	pthread_mutex_lock
	ldr	x1, [x21, 208]
	add	x0, x21, 200
	cbz	x1, .L676
	str	x24, [x1]
.L677:
	str	x19, [x0, 8]
	add	x22, x21, 96
	ldr	x0, [x21, 144]
	orr	x0, x0, 1
	str	x0, [x21, 144]
	cmp	x0, 1
	beq	.L678
	mov	x0, x23
	bl	pthread_mutex_unlock
	mov	x0, x22
	bl	pthread_cond_signal
	b	.L668
.L678:
	ldrb	w1, [x21, 184]
	cbnz	w1, .L680
	ldr	x4, [x21, 152]
	cbz	x4, .L680
	mov	w1, 9
	strb	w0, [x21, 184]
	ldr	w2, [x4, 96]
	add	x0, x4, 96
	movk	w1, 0x8000, lsl 16
	str	w1, [sp, 120]
	str	x0, [sp, 128]
	add	x3, sp, 120
	mov	w1, 3
	ldr	w0, [x4, 104]
	bl	epoll_ctl
.L680:
	mov	x0, x23
	bl	pthread_mutex_unlock
	b	.L668
	.p2align 2,,3
.L703:
	.cfi_restore 23
	.cfi_restore 24
	.cfi_restore 25
	.cfi_restore 26
	.cfi_restore 27
	.cfi_restore 28
	add	x1, x19, 12
	mov	w0, -1
	bl	__aarch64_ldadd4_acq_rel
	b	.L704
	.p2align 2,,3
.L710:
	add	x1, x19, 12
	mov	w0, -1
	bl	__aarch64_ldadd4_acq_rel
	b	.L711
	.p2align 2,,3
.L792:
	.cfi_offset 23, -96
	.cfi_offset 24, -88
	.cfi_offset 25, -80
	.cfi_offset 26, -72
	.cfi_offset 27, -64
	.cfi_offset 28, -56
	ldr	x0, [sp, 96]
	str	wzr, [sp, 120]
	str	xzr, [sp, 128]
	add	x3, sp, 120
	mov	w2, w19
	mov	w1, 2
	ldr	w0, [x0, 104]
	bl	epoll_ctl
	ldr	x3, [x20, 72]
	b	.L654
	.p2align 2,,3
.L721:
	mov	x19, x27
	b	.L661
	.p2align 2,,3
.L802:
	ldr	x1, [sp, 96]
	ldr	x0, [x21, 24]
	str	x0, [x1, 176]
	b	.L665
.L800:
	.cfi_restore 27
	.cfi_restore 28
	mov	x0, x22
	bl	__cxa_guard_acquire
	cbz	w0, .L692
	adrp	x1, :got:_ZZN4asio15system_categoryEvE8instance
	adrp	x0, :got:_ZN4asio6detail15system_categoryD1Ev
	adrp	x2, __dso_handle
	add	x2, x2, :lo12:__dso_handle
	ldr	x1, [x1, #:got_lo12:_ZZN4asio15system_categoryEvE8instance]
	ldr	x0, [x0, #:got_lo12:_ZN4asio6detail15system_categoryD1Ev]
	bl	__cxa_atexit
	mov	x0, x22
	bl	__cxa_guard_release
	b	.L692
.L694:
	add	x2, sp, 120
	mov	w0, w19
	mov	x1, 21537
	str	wzr, [sp, 120]
	bl	ioctl
	ldrb	w1, [x20, 68]
	mov	w0, w19
	and	w1, w1, -4
	strb	w1, [x20, 68]
	str	wzr, [x21]
	bl	close
	b	.L787
.L676:
	.cfi_offset 27, -64
	.cfi_offset 28, -56
	str	x24, [x21, 200]
	b	.L677
.L673:
	str	x24, [x0, 8]
	str	x19, [x1, 8]
	b	.L668
.L783:
	.cfi_restore 23
	.cfi_restore 24
	.cfi_restore 25
	.cfi_restore 26
	.cfi_restore 27
	.cfi_restore 28
	stp	x23, x24, [sp, 48]
	.cfi_offset 24, -88
	.cfi_offset 23, -96
	stp	x25, x26, [sp, 64]
	.cfi_offset 26, -72
	.cfi_offset 25, -80
	stp	x27, x28, [sp, 80]
	.cfi_offset 28, -56
	.cfi_offset 27, -64
	bl	__stack_chk_fail
	.cfi_endproc
.LFE9447:
	.section	.gcc_except_table
.LLSDA9447:
	.byte	0xff
	.byte	0xff
	.byte	0x1
	.uleb128 .LLSDACSE9447-.LLSDACSB9447
.LLSDACSB9447:
.LLSDACSE9447:
	.section	.text._ZN7asiopal13SocketChannelD2Ev,"axG",@progbits,_ZN7asiopal13SocketChannelD5Ev,comdat
	.size	_ZN7asiopal13SocketChannelD2Ev, .-_ZN7asiopal13SocketChannelD2Ev
	.weak	_ZN7asiopal13SocketChannelD1Ev
	.set	_ZN7asiopal13SocketChannelD1Ev,_ZN7asiopal13SocketChannelD2Ev
	.section	.rodata._ZN4asio6detail20posix_tss_ptr_createERj.str1.8,"aMS",@progbits,1
	.align	3
.LC20:
	.string	"tss"
	.section	.text._ZN4asio6detail20posix_tss_ptr_createERj,"axG",@progbits,_ZN4asio6detail20posix_tss_ptr_createERj,comdat
	.align	2
	.p2align 4,,11
	.weak	_ZN4asio6detail20posix_tss_ptr_createERj
	.type	_ZN4asio6detail20posix_tss_ptr_createERj, %function
_ZN4asio6detail20posix_tss_ptr_createERj:
.LFB2314:
	.cfi_startproc
	.cfi_personality 0x9b,DW.ref.__gxx_personality_v0
	.cfi_lsda 0x1b,.LLSDA2314
	stp	x29, x30, [sp, -96]!
	.cfi_def_cfa_offset 96
	.cfi_offset 29, -96
	.cfi_offset 30, -88
	adrp	x2, :got:__stack_chk_guard
	mov	x1, 0
	mov	x29, sp
	ldr	x2, [x2, #:got_lo12:__stack_chk_guard]
	stp	x19, x20, [sp, 16]
	.cfi_offset 19, -80
	.cfi_offset 20, -72
	adrp	x20, :got:_ZGVZN4asio15system_categoryEvE8instance
	str	x21, [sp, 32]
	.cfi_offset 21, -64
	ldr	x3, [x2]
	str	x3, [sp, 88]
	mov	x3, 0
	bl	pthread_key_create
	mov	w19, w0
	ldr	x20, [x20, #:got_lo12:_ZGVZN4asio15system_categoryEvE8instance]
	ldar	x0, [x20]
	adrp	x21, :got:_ZZN4asio15system_categoryEvE8instance
	tbz	x0, 0, .L815
.L805:
	mov	x1, 0
	ldr	x21, [x21, #:got_lo12:_ZZN4asio15system_categoryEvE8instance]
	bfi	x1, x19, 0, 32
	cbnz	w19, .L816
	adrp	x0, :got:__stack_chk_guard
	ldr	x0, [x0, #:got_lo12:__stack_chk_guard]
	ldr	x2, [sp, 88]
	ldr	x1, [x0]
	subs	x2, x2, x1
	mov	x1, 0
	bne	.L817
	ldp	x19, x20, [sp, 16]
	ldr	x21, [sp, 32]
	ldp	x29, x30, [sp], 96
	.cfi_remember_state
	.cfi_restore 30
	.cfi_restore 29
	.cfi_restore 21
	.cfi_restore 19
	.cfi_restore 20
	.cfi_def_cfa_offset 0
	ret
	.p2align 2,,3
.L815:
	.cfi_restore_state
	mov	x0, x20
	adrp	x21, :got:_ZZN4asio15system_categoryEvE8instance
	bl	__cxa_guard_acquire
	cbz	w0, .L805
	adrp	x0, :got:_ZN4asio6detail15system_categoryD1Ev
	adrp	x2, __dso_handle
	ldr	x1, [x21, #:got_lo12:_ZZN4asio15system_categoryEvE8instance]
	add	x2, x2, :lo12:__dso_handle
	ldr	x0, [x0, #:got_lo12:_ZN4asio6detail15system_categoryD1Ev]
	bl	__cxa_atexit
	mov	x0, x20
	bl	__cxa_guard_release
	b	.L805
.L817:
	bl	__stack_chk_fail
.L816:
	mov	x2, x21
	adrp	x3, .LC20
	add	x3, x3, :lo12:.LC20
	add	x20, sp, 56
	mov	x0, x20
.LEHB9:
	bl	_ZNSt12system_errorC1ESt10error_codePKc
.LEHE9:
	mov	x0, 32
	bl	__cxa_allocate_exception
	mov	x19, x0
	mov	x1, x20
	bl	_ZNSt13runtime_errorC2ERKS_
	adrp	x3, :got:_ZTVSt12system_error
	adrp	x2, :got:_ZNSt12system_errorD1Ev
	adrp	x1, :got:_ZTISt12system_error
	mov	x0, x19
	ldr	x3, [x3, #:got_lo12:_ZTVSt12system_error]
	ldp	x4, x5, [sp, 72]
	add	x3, x3, 16
	ldr	x2, [x2, #:got_lo12:_ZNSt12system_errorD1Ev]
	str	x3, [x19]
	ldr	x1, [x1, #:got_lo12:_ZTISt12system_error]
	stp	x4, x5, [x19, 16]
.LEHB10:
	bl	__cxa_throw
.LEHE10:
.L810:
	mov	x19, x0
	mov	x0, x20
	bl	_ZNSt12system_errorD1Ev
	mov	x0, x19
.LEHB11:
	bl	_Unwind_Resume
.LEHE11:
	.cfi_endproc
.LFE2314:
	.section	.gcc_except_table
.LLSDA2314:
	.byte	0xff
	.byte	0xff
	.byte	0x1
	.uleb128 .LLSDACSE2314-.LLSDACSB2314
.LLSDACSB2314:
	.uleb128 .LEHB9-.LFB2314
	.uleb128 .LEHE9-.LEHB9
	.uleb128 0
	.uleb128 0
	.uleb128 .LEHB10-.LFB2314
	.uleb128 .LEHE10-.LEHB10
	.uleb128 .L810-.LFB2314
	.uleb128 0
	.uleb128 .LEHB11-.LFB2314
	.uleb128 .LEHE11-.LEHB11
	.uleb128 0
	.uleb128 0
.LLSDACSE2314:
	.section	.text._ZN4asio6detail20posix_tss_ptr_createERj,"axG",@progbits,_ZN4asio6detail20posix_tss_ptr_createERj,comdat
	.size	_ZN4asio6detail20posix_tss_ptr_createERj, .-_ZN4asio6detail20posix_tss_ptr_createERj
	.global	__aarch64_ldadd8_acq_rel
	.section	.text._ZN4asio6detail15task_io_service25post_immediate_completionEPNS0_25task_io_service_operationEb,"axG",@progbits,_ZN4asio6detail15task_io_service25post_immediate_completionEPNS0_25task_io_service_operationEb,comdat
	.align	2
	.p2align 4,,11
	.weak	_ZN4asio6detail15task_io_service25post_immediate_completionEPNS0_25task_io_service_operationEb
	.type	_ZN4asio6detail15task_io_service25post_immediate_completionEPNS0_25task_io_service_operationEb, %function
_ZN4asio6detail15task_io_service25post_immediate_completionEPNS0_25task_io_service_operationEb:
.LFB3367:
	.cfi_startproc
	stp	x29, x30, [sp, -96]!
	.cfi_def_cfa_offset 96
	.cfi_offset 29, -96
	.cfi_offset 30, -88
	adrp	x3, :got:__stack_chk_guard
	mov	x29, sp
	stp	x19, x20, [sp, 16]
	.cfi_offset 19, -80
	.cfi_offset 20, -72
	mov	x20, x1
	mov	x19, x0
	dup	v0.2d, x20
	ldrb	w0, [x0, 40]
	ldr	x3, [x3, #:got_lo12:__stack_chk_guard]
	orr	w2, w2, w0
	ldr	x1, [x3]
	str	x1, [sp, 88]
	mov	x1, 0
	str	q0, [sp, 48]
	tst	w2, 255
	beq	.L844
	adrp	x0, :got:_ZN4asio6detail10call_stackINS0_15task_io_serviceENS0_27task_io_service_thread_infoEE4top_E
	ldr	x0, [x0, #:got_lo12:_ZN4asio6detail10call_stackINS0_15task_io_serviceENS0_27task_io_service_thread_infoEE4top_E]
	ldr	w0, [x0]
	bl	pthread_getspecific
	cbnz	x0, .L822
	b	.L844
	.p2align 2,,3
.L820:
	ldr	x0, [x0, 16]
	cbz	x0, .L844
.L822:
	ldr	x2, [x0]
	cmp	x19, x2
	bne	.L820
	ldr	x0, [x0, 8]
	cbz	x0, .L844
	ldp	x3, x1, [x0, 16]
	add	x1, x1, 1
	str	x1, [x0, 24]
	str	xzr, [x20]
	ldr	x1, [x0, 16]
	cbz	x3, .L823
	str	x20, [x1]
	str	x20, [x0, 16]
.L818:
	adrp	x0, :got:__stack_chk_guard
	ldr	x0, [x0, #:got_lo12:__stack_chk_guard]
	ldr	x2, [sp, 88]
	ldr	x1, [x0]
	subs	x2, x2, x1
	mov	x1, 0
	bne	.L847
	ldp	x19, x20, [sp, 16]
	ldp	x29, x30, [sp], 96
	.cfi_remember_state
	.cfi_restore 30
	.cfi_restore 29
	.cfi_restore 19
	.cfi_restore 20
	.cfi_def_cfa_offset 0
	ret
	.p2align 2,,3
.L844:
	.cfi_restore_state
	add	x1, x19, 192
	mov	x0, 1
	str	x21, [sp, 32]
	.cfi_offset 21, -64
	bl	__aarch64_ldadd8_acq_rel
	add	x21, x19, 48
	mov	x0, x21
	bl	pthread_mutex_lock
	ldr	x1, [x19, 208]
	str	xzr, [x20]
	cbz	x1, .L825
	str	x20, [x1]
	str	x20, [x19, 208]
.L826:
	ldr	x1, [x19, 144]
	add	x20, x19, 96
	orr	x1, x1, 1
	str	x1, [x20, 48]
	cmp	x1, 1
	beq	.L827
	mov	x0, x21
	bl	pthread_mutex_unlock
	adrp	x0, :got:__stack_chk_guard
	ldr	x0, [x0, #:got_lo12:__stack_chk_guard]
	ldr	x2, [sp, 88]
	ldr	x1, [x0]
	subs	x2, x2, x1
	mov	x1, 0
	bne	.L846
	mov	x0, x20
	ldp	x19, x20, [sp, 16]
	ldr	x21, [sp, 32]
	.cfi_remember_state
	.cfi_restore 21
	ldp	x29, x30, [sp], 96
	.cfi_restore 30
	.cfi_restore 29
	.cfi_restore 19
	.cfi_restore 20
	.cfi_def_cfa_offset 0
	b	pthread_cond_signal
	.p2align 2,,3
.L827:
	.cfi_restore_state
	ldrb	w0, [x19, 184]
	cbnz	w0, .L829
	ldr	x3, [x19, 152]
	cbz	x3, .L829
	ldr	w2, [x3, 96]
	add	x4, x3, 96
	ldr	w0, [x3, 104]
	mov	w5, 9
	movk	w5, 0x8000, lsl 16
	strb	w1, [x19, 184]
	add	x3, sp, 72
	mov	w1, 3
	str	w5, [sp, 72]
	str	x4, [sp, 80]
	bl	epoll_ctl
.L829:
	adrp	x0, :got:__stack_chk_guard
	ldr	x0, [x0, #:got_lo12:__stack_chk_guard]
	ldr	x2, [sp, 88]
	ldr	x1, [x0]
	subs	x2, x2, x1
	mov	x1, 0
	bne	.L846
	mov	x0, x21
	ldp	x19, x20, [sp, 16]
	ldr	x21, [sp, 32]
	.cfi_remember_state
	.cfi_restore 21
	ldp	x29, x30, [sp], 96
	.cfi_restore 30
	.cfi_restore 29
	.cfi_restore 19
	.cfi_restore 20
	.cfi_def_cfa_offset 0
	b	pthread_mutex_unlock
	.p2align 2,,3
.L825:
	.cfi_restore_state
	ldr	q0, [sp, 48]
	str	q0, [x19, 200]
	b	.L826
	.p2align 2,,3
.L823:
	.cfi_restore 21
	ldr	q0, [sp, 48]
	str	q0, [x0, 8]
	b	.L818
.L847:
	str	x21, [sp, 32]
	.cfi_offset 21, -64
.L846:
	bl	__stack_chk_fail
	.cfi_endproc
.LFE3367:
	.size	_ZN4asio6detail15task_io_service25post_immediate_completionEPNS0_25task_io_service_operationEb, .-_ZN4asio6detail15task_io_service25post_immediate_completionEPNS0_25task_io_service_operationEb
	.text
	.align	2
	.p2align 4,,11
	.global	_ZN7asiopal13SocketChannel13BeginReadImplEN7openpal6WSliceE
	.type	_ZN7asiopal13SocketChannel13BeginReadImplEN7openpal6WSliceE, %function
_ZN7asiopal13SocketChannel13BeginReadImplEN7openpal6WSliceE:
.LFB7046:
	.cfi_startproc
	.cfi_personality 0x9b,DW.ref.__gxx_personality_v0
	.cfi_lsda 0x1b,.LLSDA7046
	stp	x29, x30, [sp, -208]!
	.cfi_def_cfa_offset 208
	.cfi_offset 29, -208
	.cfi_offset 30, -200
	adrp	x4, :got:_ZN4asio6detail10call_stackINS0_14strand_service11strand_implEhE4top_E
	adrp	x3, :got:__stack_chk_guard
	mov	x29, sp
	stp	x21, x22, [sp, 32]
	.cfi_offset 21, -176
	.cfi_offset 22, -168
	mov	x21, x0
	uxtw	x22, w1
	ldr	x0, [x4, #:got_lo12:_ZN4asio6detail10call_stackINS0_14strand_service11strand_implEhE4top_E]
	stp	x19, x20, [sp, 16]
	ldr	x4, [x21, 24]
	stp	x23, x24, [sp, 48]
	ldr	w0, [x0]
	ldr	x3, [x3, #:got_lo12:__stack_chk_guard]
	stp	x25, x26, [sp, 64]
	.cfi_offset 19, -192
	.cfi_offset 20, -184
	.cfi_offset 23, -160
	.cfi_offset 24, -152
	.cfi_offset 25, -144
	.cfi_offset 26, -136
	mov	x23, x2
	stp	x27, x28, [sp, 80]
	.cfi_offset 27, -128
	.cfi_offset 28, -120
	ldr	q0, [x4, 40]
	ldr	x1, [x3]
	str	x1, [sp, 200]
	mov	x1, 0
	str	x21, [sp, 176]
	ldr	x24, [x21, 88]
	umov	x20, v0.d[1]
	str	q0, [sp, 160]
	bl	pthread_getspecific
	mov	x19, x0
	cbnz	x0, .L851
	b	.L849
	.p2align 2,,3
.L850:
	ldr	x19, [x19, 16]
	cbz	x19, .L849
.L851:
	ldr	x3, [x19]
	cmp	x3, x20
	bne	.L850
	ldr	x19, [x19, 8]
.L849:
	adrp	x25, :got:_ZN4asio6detail10call_stackINS0_15task_io_serviceENS0_27task_io_service_thread_infoEE4top_E
	add	x0, sp, 160
	str	x0, [sp, 136]
	ldr	x0, [x25, #:got_lo12:_ZN4asio6detail10call_stackINS0_15task_io_serviceENS0_27task_io_service_thread_infoEE4top_E]
	stp	xzr, xzr, [sp, 144]
	ldr	w0, [x0]
	bl	pthread_getspecific
	cbz	x0, .L852
	ldr	x0, [x0, 8]
	cbz	x0, .L852
	ldr	x20, [x0]
	cbz	x20, .L852
	str	xzr, [x0]
	ldrb	w0, [x20]
	cmp	w0, 111
	bls	.L853
	strb	w0, [x20, 112]
	b	.L854
	.p2align 2,,3
.L853:
	mov	x0, x20
	bl	_ZdlPv
.L852:
	mov	x0, 113
.LEHB12:
	bl	_Znwm
.LEHE12:
	mov	x20, x0
	mov	w1, 112
	strb	w1, [x0, 112]
.L854:
	adrp	x0, _ZN4asio6detail23reactive_socket_recv_opINS_17mutable_buffers_1ENS0_15wrapped_handlerINS_10io_service6strandEZN7asiopal13SocketChannel13BeginReadImplEN7openpal6WSliceEEUlRKSt10error_codemE_NS0_26is_continuation_if_runningEEEE11do_completeEPNS0_15task_io_serviceEPNS0_25task_io_service_operationESC_m
	add	x0, x0, :lo12:_ZN4asio6detail23reactive_socket_recv_opINS_17mutable_buffers_1ENS0_15wrapped_handlerINS_10io_service6strandEZN7asiopal13SocketChannel13BeginReadImplEN7openpal6WSliceEEUlRKSt10error_codemE_NS0_26is_continuation_if_runningEEEE11do_completeEPNS0_15task_io_serviceEPNS0_25task_io_service_operationESC_m
	ldrb	w28, [x21, 68]
	ldr	w27, [x21, 64]
	stp	xzr, x0, [x20]
	str	wzr, [x20, 16]
	str	wzr, [x20, 24]
	str	x20, [sp, 144]
	bl	_ZNSt3_V215system_categoryEv
	mov	x26, x0
	adrp	x1, :got:_ZN4asio6detail28reactive_socket_recv_op_baseINS_17mutable_buffers_1EE10do_performEPNS0_10reactor_opE
	stp	x26, xzr, [x20, 32]
	tst	x28, 16
	ldr	x1, [x1, #:got_lo12:_ZN4asio6detail28reactive_socket_recv_op_baseINS_17mutable_buffers_1EE10do_performEPNS0_10reactor_opE]
	str	x1, [x20, 48]
	ldp	x2, x3, [sp, 160]
	str	w27, [x20, 56]
	ldr	x0, [sp, 176]
	strb	w28, [x20, 60]
	stp	x23, x22, [x20, 64]
	ccmp	x22, 0, 0, ne
	str	wzr, [x20, 80]
	stp	x2, x3, [x20, 88]
	str	x0, [x20, 104]
	str	x20, [sp, 152]
	beq	.L855
	tst	x28, 3
	bne	.L856
	cmn	w27, #1
	beq	.L998
	bl	__errno_location
	mov	x22, x0
	mov	w3, 1
	adrp	x23, :got:_ZGVZN4asio15system_categoryEvE8instance
	mov	w0, w27
	add	x2, sp, 120
	str	wzr, [x22]
	mov	x1, 21537
	str	w3, [sp, 120]
	bl	ioctl
	ldr	w28, [x22]
	ldr	x23, [x23, #:got_lo12:_ZGVZN4asio15system_categoryEvE8instance]
	mov	w27, w0
	ldar	x0, [x23]
	adrp	x22, :got:_ZZN4asio15system_categoryEvE8instance
	tbz	x0, 0, .L999
.L862:
	ldr	x22, [x22, #:got_lo12:_ZZN4asio15system_categoryEvE8instance]
	str	w28, [x20, 24]
	str	x22, [x20, 32]
	tbz	w27, #31, .L1000
.L855:
	ldr	x0, [x24, 40]
	cmp	x19, 0
	dup	v0.2d, x20
	cset	w1, ne
	ldr	x19, [x0, 40]
	str	q0, [sp, 96]
	ldrb	w0, [x19, 40]
	orr	w0, w0, w1
	cbz	w0, .L908
	ldr	x25, [x25, #:got_lo12:_ZN4asio6detail10call_stackINS0_15task_io_serviceENS0_27task_io_service_thread_infoEE4top_E]
	ldr	w0, [x25]
	bl	pthread_getspecific
	cbnz	x0, .L911
	b	.L908
	.p2align 2,,3
.L909:
	ldr	x0, [x0, 16]
	cbz	x0, .L908
.L911:
	ldr	x1, [x0]
	cmp	x19, x1
	bne	.L909
	ldr	x0, [x0, 8]
	cbz	x0, .L908
.L910:
	ldp	x3, x1, [x0, 16]
	add	x1, x1, 1
	str	x1, [x0, 24]
	str	xzr, [x20]
	ldr	x1, [x0, 16]
	cbz	x3, .L912
	str	x20, [x1]
	str	x20, [x0, 16]
	b	.L848
	.p2align 2,,3
.L1000:
	ldr	w27, [x21, 64]
	str	wzr, [x20, 24]
	str	x26, [x20, 32]
	ldrb	w0, [x21, 68]
	orr	w0, w0, 2
	strb	w0, [x21, 68]
.L856:
	ldr	x0, [x21, 72]
	ldr	x23, [x24, 40]
	cbz	x0, .L1001
	add	x22, x0, 40
	mov	x0, x22
	bl	pthread_mutex_lock
	ldr	x0, [x21, 72]
	ldrb	w1, [x0, 152]
	cbnz	w1, .L1002
	ldr	x1, [x0, 104]
	cbz	x1, .L1003
.L892:
	ldr	x1, [x0, 112]
	str	xzr, [x20]
	dup	v0.2d, x20
	cbz	x1, .L905
	str	x20, [x1]
	str	x20, [x0, 112]
.L906:
	ldr	x1, [x23, 40]
	mov	x0, 1
	add	x1, x1, 192
	bl	__aarch64_ldadd8_acq_rel
	mov	x0, x22
	bl	pthread_mutex_unlock
	b	.L848
	.p2align 2,,3
.L908:
	add	x1, x19, 192
	add	x21, x19, 48
	mov	x0, 1
	bl	__aarch64_ldadd8_acq_rel
	mov	x0, x21
	bl	pthread_mutex_lock
	ldr	x1, [x19, 208]
	str	xzr, [x20]
	cbz	x1, .L913
	str	x20, [x1]
	str	x20, [x19, 208]
.L914:
	ldr	x0, [x19, 144]
	add	x20, x19, 96
	orr	x0, x0, 1
	str	x0, [x19, 144]
	cmp	x0, 1
	beq	.L915
	mov	x0, x21
	bl	pthread_mutex_unlock
	mov	x0, x20
	bl	pthread_cond_signal
	b	.L848
	.p2align 2,,3
.L915:
	ldrb	w1, [x19, 184]
	cbz	w1, .L1004
.L917:
	mov	x0, x21
	bl	pthread_mutex_unlock
.L848:
	adrp	x0, :got:__stack_chk_guard
	ldr	x0, [x0, #:got_lo12:__stack_chk_guard]
	ldr	x2, [sp, 200]
	ldr	x1, [x0]
	subs	x2, x2, x1
	mov	x1, 0
	bne	.L1005
	ldp	x19, x20, [sp, 16]
	ldp	x21, x22, [sp, 32]
	ldp	x23, x24, [sp, 48]
	ldp	x25, x26, [sp, 64]
	ldp	x27, x28, [sp, 80]
	ldp	x29, x30, [sp], 208
	.cfi_remember_state
	.cfi_restore 30
	.cfi_restore 29
	.cfi_restore 27
	.cfi_restore 28
	.cfi_restore 25
	.cfi_restore 26
	.cfi_restore 23
	.cfi_restore 24
	.cfi_restore 21
	.cfi_restore 22
	.cfi_restore 19
	.cfi_restore 20
	.cfi_def_cfa_offset 0
	ret
	.p2align 2,,3
.L1004:
	.cfi_restore_state
	ldr	x4, [x19, 152]
	cbz	x4, .L917
	mov	w1, 9
	strb	w0, [x19, 184]
	ldr	w2, [x4, 96]
	add	x0, x4, 96
	movk	w1, 0x8000, lsl 16
	str	w1, [sp, 120]
	str	x0, [sp, 128]
	add	x3, sp, 120
	mov	w1, 3
	ldr	w0, [x4, 104]
	bl	epoll_ctl
	b	.L917
.L912:
	ldr	q0, [sp, 96]
	str	q0, [x0, 8]
	b	.L848
.L905:
	str	q0, [x0, 104]
	b	.L906
	.p2align 2,,3
.L999:
	mov	x0, x23
	adrp	x22, :got:_ZZN4asio15system_categoryEvE8instance
	bl	__cxa_guard_acquire
	cbz	w0, .L862
	adrp	x0, :got:_ZN4asio6detail15system_categoryD1Ev
	adrp	x2, __dso_handle
	ldr	x1, [x22, #:got_lo12:_ZZN4asio15system_categoryEvE8instance]
	add	x2, x2, :lo12:__dso_handle
	ldr	x0, [x0, #:got_lo12:_ZN4asio6detail15system_categoryD1Ev]
	bl	__cxa_atexit
	mov	x0, x23
	bl	__cxa_guard_release
	b	.L862
	.p2align 2,,3
.L913:
	ldr	q0, [sp, 96]
	str	q0, [x19, 200]
	b	.L914
.L1001:
	dup	v0.2d, x20
	adrp	x21, :got:_ZGVZN4asio15system_categoryEvE8instance
	ldr	x21, [x21, #:got_lo12:_ZGVZN4asio15system_categoryEvE8instance]
	str	q0, [sp, 96]
	ldar	x0, [x21]
	adrp	x22, :got:_ZZN4asio15system_categoryEvE8instance
	tbz	x0, 0, .L1006
.L867:
	ldr	x21, [x23, 40]
	cmp	x19, 0
	ldr	x22, [x22, #:got_lo12:_ZZN4asio15system_categoryEvE8instance]
	mov	w2, 9
	ldrb	w0, [x21, 40]
	cset	w1, ne
	str	w2, [x20, 24]
	str	x22, [x20, 32]
	orr	w0, w0, w1
	cbz	w0, .L895
	ldr	x25, [x25, #:got_lo12:_ZN4asio6detail10call_stackINS0_15task_io_serviceENS0_27task_io_service_thread_infoEE4top_E]
	ldr	w0, [x25]
	bl	pthread_getspecific
	cbnz	x0, .L872
	b	.L895
	.p2align 2,,3
.L870:
	ldr	x0, [x0, 16]
	cbz	x0, .L895
.L872:
	ldr	x1, [x0]
	cmp	x21, x1
	bne	.L870
.L997:
	ldr	x0, [x0, 8]
	cbnz	x0, .L910
.L895:
	add	x1, x21, 192
	add	x19, x21, 48
	mov	x0, 1
	bl	__aarch64_ldadd8_acq_rel
	mov	x0, x19
	bl	pthread_mutex_lock
	str	xzr, [x20]
	ldr	x1, [x21, 208]
	cbz	x1, .L900
	str	x20, [x1]
	str	x20, [x21, 208]
.L901:
	ldr	x0, [x21, 144]
	add	x20, x21, 96
	orr	x0, x0, 1
	str	x0, [x21, 144]
	cmp	x0, 1
	beq	.L902
	mov	x0, x19
	bl	pthread_mutex_unlock
	mov	x0, x20
	bl	pthread_cond_signal
	b	.L848
.L1002:
	ldr	x21, [x23, 40]
	dup	v0.2d, x20
	cmp	x19, 0
	cset	w1, ne
	ldrb	w0, [x21, 40]
	str	q0, [sp, 96]
	orr	w0, w0, w1
	cbz	w0, .L881
	ldr	x25, [x25, #:got_lo12:_ZN4asio6detail10call_stackINS0_15task_io_serviceENS0_27task_io_service_thread_infoEE4top_E]
	ldr	w0, [x25]
	bl	pthread_getspecific
	cbnz	x0, .L884
	b	.L881
	.p2align 2,,3
.L882:
	ldr	x0, [x0, 16]
	cbz	x0, .L881
.L884:
	ldr	x1, [x0]
	cmp	x21, x1
	bne	.L882
	ldr	x0, [x0, 8]
	cbz	x0, .L881
	ldp	x3, x1, [x0, 16]
	add	x1, x1, 1
	str	x1, [x0, 24]
	str	xzr, [x20]
	ldr	x1, [x0, 16]
	cbz	x3, .L885
	str	x20, [x1]
	str	x20, [x0, 16]
	b	.L886
.L998:
	adrp	x21, :got:_ZGVZN4asio15system_categoryEvE8instance
	ldr	x21, [x21, #:got_lo12:_ZGVZN4asio15system_categoryEvE8instance]
	ldar	x0, [x21]
	adrp	x22, :got:_ZZN4asio15system_categoryEvE8instance
	tbz	x0, 0, .L1007
.L859:
	ldr	x22, [x22, #:got_lo12:_ZZN4asio15system_categoryEvE8instance]
	mov	w0, 9
	str	w0, [x20, 24]
	str	x22, [x20, 32]
	b	.L855
.L1003:
	ldr	x1, [x0, 136]
	cbz	x1, .L1008
	ldr	w1, [x0, 100]
	mov	w2, w27
	str	w1, [sp, 120]
	add	x3, sp, 120
	str	x0, [sp, 128]
	mov	w1, 3
	ldr	w0, [x23, 104]
	bl	epoll_ctl
.L983:
	ldr	x0, [x21, 72]
	b	.L892
.L1006:
	mov	x0, x21
	adrp	x22, :got:_ZZN4asio15system_categoryEvE8instance
	bl	__cxa_guard_acquire
	cbz	w0, .L867
	adrp	x0, :got:_ZN4asio6detail15system_categoryD1Ev
	adrp	x2, __dso_handle
	ldr	x1, [x22, #:got_lo12:_ZZN4asio15system_categoryEvE8instance]
	add	x2, x2, :lo12:__dso_handle
	ldr	x0, [x0, #:got_lo12:_ZN4asio6detail15system_categoryD1Ev]
	bl	__cxa_atexit
	mov	x0, x21
	bl	__cxa_guard_release
	b	.L867
.L881:
	add	x1, x21, 192
	add	x23, x21, 48
	mov	x0, 1
	bl	__aarch64_ldadd8_acq_rel
	mov	x0, x23
	bl	pthread_mutex_lock
	ldr	x1, [x21, 208]
	str	xzr, [x20]
	cbz	x1, .L887
	str	x20, [x1]
	str	x20, [x21, 208]
.L888:
	ldr	x0, [x21, 144]
	add	x19, x21, 96
	orr	x0, x0, 1
	str	x0, [x21, 144]
	cmp	x0, 1
	beq	.L889
	mov	x0, x23
	bl	pthread_mutex_unlock
	mov	x0, x19
	bl	pthread_cond_signal
.L886:
	mov	x0, x22
	bl	pthread_mutex_unlock
	b	.L848
.L1007:
	mov	x0, x21
	adrp	x22, :got:_ZZN4asio15system_categoryEvE8instance
	bl	__cxa_guard_acquire
	cbz	w0, .L859
	adrp	x0, :got:_ZN4asio6detail15system_categoryD1Ev
	adrp	x2, __dso_handle
	ldr	x1, [x22, #:got_lo12:_ZZN4asio15system_categoryEvE8instance]
	add	x2, x2, :lo12:__dso_handle
	ldr	x0, [x0, #:got_lo12:_ZN4asio6detail15system_categoryD1Ev]
	bl	__cxa_atexit
	mov	x0, x21
	bl	__cxa_guard_release
	b	.L859
.L902:
	ldrb	w1, [x21, 184]
	cbnz	w1, .L904
	ldr	x4, [x21, 152]
	cbz	x4, .L904
	mov	w1, 9
	strb	w0, [x21, 184]
	movk	w1, 0x8000, lsl 16
	add	x0, x4, 96
	str	w1, [sp, 120]
	add	x3, sp, 120
	str	x0, [sp, 128]
	mov	w1, 3
	ldr	w2, [x4, 96]
	ldr	w0, [x4, 104]
	bl	epoll_ctl
.L904:
	mov	x0, x19
	bl	pthread_mutex_unlock
	b	.L848
.L889:
	ldrb	w1, [x21, 184]
	cbnz	w1, .L891
	ldr	x4, [x21, 152]
	cbz	x4, .L891
	mov	w1, 9
	strb	w0, [x21, 184]
	ldr	w2, [x4, 96]
	add	x0, x4, 96
	movk	w1, 0x8000, lsl 16
	str	w1, [sp, 120]
	str	x0, [sp, 128]
	add	x3, sp, 120
	mov	w1, 3
	ldr	w0, [x4, 104]
	bl	epoll_ctl
.L891:
	mov	x0, x23
	bl	pthread_mutex_unlock
	b	.L886
.L1008:
	ldr	x1, [x20, 48]
	mov	x0, x20
.LEHB13:
	blr	x1
.LEHE13:
	tst	w0, 255
	beq	.L983
	mov	x0, x22
	bl	pthread_mutex_unlock
	ldr	x21, [x23, 40]
	dup	v0.2d, x20
	cmp	x19, 0
	cset	w1, ne
	ldrb	w0, [x21, 40]
	str	q0, [sp, 96]
	orr	w0, w0, w1
	cbz	w0, .L895
	ldr	x25, [x25, #:got_lo12:_ZN4asio6detail10call_stackINS0_15task_io_serviceENS0_27task_io_service_thread_infoEE4top_E]
	ldr	w0, [x25]
	bl	pthread_getspecific
	cbnz	x0, .L898
	b	.L895
	.p2align 2,,3
.L896:
	ldr	x0, [x0, 16]
	cbz	x0, .L895
.L898:
	ldr	x1, [x0]
	cmp	x21, x1
	bne	.L896
	b	.L997
.L900:
	ldr	q0, [sp, 96]
	str	q0, [x21, 200]
	b	.L901
.L887:
	ldr	q0, [sp, 96]
	str	q0, [x21, 200]
	b	.L888
.L885:
	ldr	q0, [sp, 96]
	str	q0, [x0, 8]
	b	.L886
.L1005:
	bl	__stack_chk_fail
.L919:
	mov	x19, x0
	mov	x0, x22
	bl	pthread_mutex_unlock
	add	x0, sp, 136
	bl	_ZN4asio6detail23reactive_socket_recv_opINS_17mutable_buffers_1ENS0_15wrapped_handlerINS_10io_service6strandEZN7asiopal13SocketChannel13BeginReadImplEN7openpal6WSliceEEUlRKSt10error_codemE_NS0_26is_continuation_if_runningEEEE3ptr5resetEv
	mov	x0, x19
.LEHB14:
	bl	_Unwind_Resume
.LEHE14:
	.cfi_endproc
.LFE7046:
	.section	.gcc_except_table
.LLSDA7046:
	.byte	0xff
	.byte	0xff
	.byte	0x1
	.uleb128 .LLSDACSE7046-.LLSDACSB7046
.LLSDACSB7046:
	.uleb128 .LEHB12-.LFB7046
	.uleb128 .LEHE12-.LEHB12
	.uleb128 0
	.uleb128 0
	.uleb128 .LEHB13-.LFB7046
	.uleb128 .LEHE13-.LEHB13
	.uleb128 .L919-.LFB7046
	.uleb128 0
	.uleb128 .LEHB14-.LFB7046
	.uleb128 .LEHE14-.LEHB14
	.uleb128 0
	.uleb128 0
.LLSDACSE7046:
	.text
	.size	_ZN7asiopal13SocketChannel13BeginReadImplEN7openpal6WSliceE, .-_ZN7asiopal13SocketChannel13BeginReadImplEN7openpal6WSliceE
	.align	2
	.p2align 4,,11
	.global	_ZN7asiopal13SocketChannel14BeginWriteImplERKN7openpal6RSliceE
	.type	_ZN7asiopal13SocketChannel14BeginWriteImplERKN7openpal6RSliceE, %function
_ZN7asiopal13SocketChannel14BeginWriteImplERKN7openpal6RSliceE:
.LFB7051:
	.cfi_startproc
	.cfi_personality 0x9b,DW.ref.__gxx_personality_v0
	.cfi_lsda 0x1b,.LLSDA7051
	stp	x29, x30, [sp, -240]!
	.cfi_def_cfa_offset 240
	.cfi_offset 29, -240
	.cfi_offset 30, -232
	adrp	x2, :got:__stack_chk_guard
	mov	x29, sp
	stp	x19, x20, [sp, 16]
	.cfi_offset 19, -224
	.cfi_offset 20, -216
	mov	x20, x0
	ldr	x0, [x0, 24]
	stp	x21, x22, [sp, 32]
	.cfi_offset 21, -208
	.cfi_offset 22, -200
	ldr	w21, [x1]
	ldr	x2, [x2, #:got_lo12:__stack_chk_guard]
	stp	x23, x24, [sp, 48]
	.cfi_offset 23, -192
	.cfi_offset 24, -184
	mov	x23, 65536
	stp	x25, x26, [sp, 64]
	stp	x27, x28, [sp, 80]
	.cfi_offset 25, -176
	.cfi_offset 26, -168
	.cfi_offset 27, -160
	.cfi_offset 28, -152
	ldr	q0, [x0, 40]
	ldr	x3, [x2]
	str	x3, [sp, 232]
	mov	x3, 0
	ldr	x25, [x1, 8]
	str	q0, [sp, 96]
	bl	_ZNSt3_V215system_categoryEv
	adrp	x1, :got:_ZN4asio6detail10call_stackINS0_14strand_service11strand_implEhE4top_E
	mov	x22, x0
	cmp	x21, 65536
	ldr	x1, [x1, #:got_lo12:_ZN4asio6detail10call_stackINS0_14strand_service11strand_implEhE4top_E]
	add	x2, x20, 64
	ldr	q0, [sp, 96]
	mov	w3, 1
	ldr	w0, [x1]
	csel	x23, x21, x23, ls
	stp	x2, x25, [sp, 160]
	umov	x19, v0.d[1]
	str	x21, [sp, 176]
	str	w3, [sp, 184]
	str	xzr, [sp, 192]
	str	q0, [sp, 200]
	str	x20, [sp, 216]
	ldr	x26, [x20, 88]
	bl	pthread_getspecific
	cbnz	x0, .L1012
	b	.L1080
	.p2align 2,,3
.L1011:
	ldr	x0, [x0, 16]
	cbz	x0, .L1080
.L1012:
	ldr	x1, [x0]
	cmp	x1, x19
	bne	.L1011
	ldr	x0, [x0, 8]
	cmp	x0, 0
	cset	w27, ne
.L1010:
	adrp	x24, :got:_ZN4asio6detail10call_stackINS0_15task_io_serviceENS0_27task_io_service_thread_infoEE4top_E
	add	x0, sp, 160
	str	x0, [sp, 136]
	ldr	x0, [x24, #:got_lo12:_ZN4asio6detail10call_stackINS0_15task_io_serviceENS0_27task_io_service_thread_infoEE4top_E]
	stp	xzr, xzr, [sp, 144]
	ldr	w0, [x0]
	bl	pthread_getspecific
	cbz	x0, .L1013
	ldr	x0, [x0, 8]
	cbz	x0, .L1013
	ldr	x19, [x0]
	cbz	x19, .L1013
	str	xzr, [x0]
	ldrb	w0, [x19]
	cmp	w0, 151
	bls	.L1014
	strb	w0, [x19, 152]
.L1015:
	adrp	x1, :got:_ZN4asio6detail28reactive_socket_send_op_baseINS_15const_buffers_1EE10do_performEPNS0_10reactor_opE
	ldr	w28, [x20, 64]
	adrp	x2, _ZN4asio6detail23reactive_socket_send_opINS_15const_buffers_1ENS0_8write_opINS_19basic_stream_socketINS_2ip3tcpENS_21stream_socket_serviceIS6_EEEES2_NS0_14transfer_all_tENS0_15wrapped_handlerINS_10io_service6strandEZN7asiopal13SocketChannel14BeginWriteImplERKN7openpal6RSliceEEUlRKSt10error_codemE_NS0_26is_continuation_if_runningEEEEEE11do_completeEPNS0_15task_io_serviceEPNS0_25task_io_service_operationESM_m
	add	x2, x2, :lo12:_ZN4asio6detail23reactive_socket_send_opINS_15const_buffers_1ENS0_8write_opINS_19basic_stream_socketINS_2ip3tcpENS_21stream_socket_serviceIS6_EEEES2_NS0_14transfer_all_tENS0_15wrapped_handlerINS_10io_service6strandEZN7asiopal13SocketChannel14BeginWriteImplERKN7openpal6RSliceEEUlRKSt10error_codemE_NS0_26is_continuation_if_runningEEEEEE11do_completeEPNS0_15task_io_serviceEPNS0_25task_io_service_operationESM_m
	ldr	x1, [x1, #:got_lo12:_ZN4asio6detail28reactive_socket_send_op_baseINS_15const_buffers_1EE10do_performEPNS0_10reactor_opE]
	str	x1, [x19, 48]
	ldr	x3, [sp, 160]
	stp	xzr, x2, [x19]
	ldr	x1, [sp, 192]
	str	x3, [x19, 88]
	str	x1, [x19, 120]
	ldp	x2, x3, [sp, 168]
	stp	x2, x3, [x19, 96]
	ldr	w2, [sp, 184]
	ldp	x0, x1, [sp, 200]
	stp	x0, x1, [x19, 128]
	ldr	x0, [sp, 216]
	str	wzr, [x19, 16]
	str	wzr, [x19, 24]
	stp	x22, xzr, [x19, 32]
	str	w28, [x19, 56]
	stp	x25, x23, [x19, 64]
	str	wzr, [x19, 80]
	str	w2, [x19, 112]
	str	x0, [x19, 144]
	stp	x19, x19, [sp, 144]
	ldrb	w0, [x20, 68]
	tst	x0, 16
	ccmp	x21, 0, 0, ne
	beq	.L1016
	tst	x0, 3
	bne	.L1017
	cmn	w28, #1
	beq	.L1159
	bl	__errno_location
	mov	x21, x0
	mov	w3, 1
	adrp	x23, :got:_ZGVZN4asio15system_categoryEvE8instance
	mov	w0, w28
	add	x2, sp, 120
	str	wzr, [x21]
	mov	x1, 21537
	str	w3, [sp, 120]
	bl	ioctl
	ldr	w28, [x21]
	ldr	x23, [x23, #:got_lo12:_ZGVZN4asio15system_categoryEvE8instance]
	mov	w25, w0
	ldar	x0, [x23]
	adrp	x21, :got:_ZZN4asio15system_categoryEvE8instance
	tbz	x0, 0, .L1160
.L1023:
	ldr	x21, [x21, #:got_lo12:_ZZN4asio15system_categoryEvE8instance]
	str	w28, [x19, 24]
	str	x21, [x19, 32]
	tbz	w25, #31, .L1161
.L1016:
	ldr	x0, [x26, 40]
	dup	v0.2d, x19
	ldr	x20, [x0, 40]
	str	q0, [sp, 96]
	ldrb	w0, [x20, 40]
	orr	w0, w0, w27
	cbz	w0, .L1069
	ldr	x24, [x24, #:got_lo12:_ZN4asio6detail10call_stackINS0_15task_io_serviceENS0_27task_io_service_thread_infoEE4top_E]
	ldr	w0, [x24]
	bl	pthread_getspecific
	cbnz	x0, .L1072
	b	.L1069
	.p2align 2,,3
.L1070:
	ldr	x0, [x0, 16]
	cbz	x0, .L1069
.L1072:
	ldr	x1, [x0]
	cmp	x20, x1
	bne	.L1070
.L1158:
	ldr	x0, [x0, 8]
	cbz	x0, .L1069
	ldp	x3, x1, [x0, 16]
	add	x1, x1, 1
	str	x1, [x0, 24]
	str	xzr, [x19]
	ldr	x1, [x0, 16]
	cbz	x3, .L1073
	str	x19, [x1]
	str	x19, [x0, 16]
	b	.L1009
	.p2align 2,,3
.L1014:
	mov	x0, x19
	bl	_ZdlPv
.L1013:
	mov	x0, 153
.LEHB15:
	bl	_Znwm
.LEHE15:
	mov	w1, -104
	mov	x19, x0
	strb	w1, [x0, 152]
	b	.L1015
	.p2align 2,,3
.L1165:
	dup	v0.2d, x19
	adrp	x20, :got:_ZGVZN4asio15system_categoryEvE8instance
	ldr	x20, [x20, #:got_lo12:_ZGVZN4asio15system_categoryEvE8instance]
	str	q0, [sp, 96]
	ldar	x0, [x20]
	adrp	x21, :got:_ZZN4asio15system_categoryEvE8instance
	tbz	x0, 0, .L1162
.L1028:
	ldr	x20, [x22, 40]
	mov	w0, 9
	ldr	x21, [x21, #:got_lo12:_ZZN4asio15system_categoryEvE8instance]
	str	w0, [x19, 24]
	ldrb	w0, [x20, 40]
	str	x21, [x19, 32]
	orr	w0, w0, w27
	cbnz	w0, .L1163
	.p2align 3,,7
.L1069:
	add	x1, x20, 192
	add	x21, x20, 48
	mov	x0, 1
	bl	__aarch64_ldadd8_acq_rel
	mov	x0, x21
	bl	pthread_mutex_lock
	str	xzr, [x19]
	ldr	x1, [x20, 208]
	cbz	x1, .L1074
	str	x19, [x1]
	str	x19, [x20, 208]
.L1075:
	ldr	x0, [x20, 144]
	add	x19, x20, 96
	orr	x0, x0, 1
	str	x0, [x20, 144]
	cmp	x0, 1
	beq	.L1076
	mov	x0, x21
	bl	pthread_mutex_unlock
	mov	x0, x19
	bl	pthread_cond_signal
.L1009:
	adrp	x0, :got:__stack_chk_guard
	ldr	x0, [x0, #:got_lo12:__stack_chk_guard]
	ldr	x2, [sp, 232]
	ldr	x1, [x0]
	subs	x2, x2, x1
	mov	x1, 0
	bne	.L1164
	ldp	x19, x20, [sp, 16]
	ldp	x21, x22, [sp, 32]
	ldp	x23, x24, [sp, 48]
	ldp	x25, x26, [sp, 64]
	ldp	x27, x28, [sp, 80]
	ldp	x29, x30, [sp], 240
	.cfi_remember_state
	.cfi_restore 30
	.cfi_restore 29
	.cfi_restore 27
	.cfi_restore 28
	.cfi_restore 25
	.cfi_restore 26
	.cfi_restore 23
	.cfi_restore 24
	.cfi_restore 21
	.cfi_restore 22
	.cfi_restore 19
	.cfi_restore 20
	.cfi_def_cfa_offset 0
	ret
	.p2align 2,,3
.L1161:
	.cfi_restore_state
	ldr	w28, [x20, 64]
	str	wzr, [x19, 24]
	str	x22, [x19, 32]
	ldrb	w0, [x20, 68]
	orr	w0, w0, 2
	strb	w0, [x20, 68]
.L1017:
	ldr	x0, [x20, 72]
	ldr	x22, [x26, 40]
	cbz	x0, .L1165
	add	x21, x0, 40
	mov	x0, x21
	bl	pthread_mutex_lock
	ldr	x0, [x20, 72]
	ldrb	w1, [x0, 152]
	cbnz	w1, .L1166
	ldr	x1, [x0, 120]
	cbz	x1, .L1167
.L1053:
	ldr	x1, [x0, 128]
	str	xzr, [x19]
	dup	v0.2d, x19
	cbz	x1, .L1066
	str	x19, [x1]
	str	x19, [x0, 128]
.L1067:
	ldr	x1, [x22, 40]
	mov	x0, 1
	add	x1, x1, 192
	bl	__aarch64_ldadd8_acq_rel
	mov	x0, x21
	bl	pthread_mutex_unlock
	b	.L1009
	.p2align 2,,3
.L1076:
	ldrb	w1, [x20, 184]
	cbnz	w1, .L1047
	ldr	x4, [x20, 152]
	cbz	x4, .L1047
	mov	w1, 9
	strb	w0, [x20, 184]
	movk	w1, 0x8000, lsl 16
	add	x0, x4, 96
	str	w1, [sp, 120]
	add	x3, sp, 120
	str	x0, [sp, 128]
	mov	w1, 3
	ldr	w2, [x4, 96]
	ldr	w0, [x4, 104]
	bl	epoll_ctl
.L1047:
	mov	x0, x21
	bl	pthread_mutex_unlock
	b	.L1009
	.p2align 2,,3
.L1080:
	mov	w27, 0
	b	.L1010
	.p2align 2,,3
.L1073:
	ldr	q0, [sp, 96]
	str	q0, [x0, 8]
	b	.L1009
	.p2align 2,,3
.L1167:
	ldr	x1, [x19, 48]
	mov	x0, x19
.LEHB16:
	blr	x1
.LEHE16:
	tst	w0, 255
	bne	.L1168
	ldr	x0, [x20, 72]
	ldr	w1, [x0, 100]
	tbnz	x1, 2, .L1053
	orr	w1, w1, 4
	str	w1, [sp, 120]
	str	x0, [sp, 128]
	mov	w2, w28
	add	x3, sp, 120
	mov	w1, 3
	ldr	w0, [x22, 104]
	bl	epoll_ctl
	cbnz	w0, .L1065
	ldr	x0, [x20, 72]
	ldr	w2, [sp, 120]
	ldr	w1, [x0, 100]
	orr	w1, w1, w2
	str	w1, [x0, 100]
	b	.L1053
	.p2align 2,,3
.L1066:
	str	q0, [x0, 120]
	b	.L1067
	.p2align 2,,3
.L1074:
	ldr	q0, [sp, 96]
	str	q0, [x20, 200]
	b	.L1075
	.p2align 2,,3
.L1160:
	mov	x0, x23
	adrp	x21, :got:_ZZN4asio15system_categoryEvE8instance
	bl	__cxa_guard_acquire
	cbz	w0, .L1023
	adrp	x0, :got:_ZN4asio6detail15system_categoryD1Ev
	adrp	x2, __dso_handle
	ldr	x1, [x21, #:got_lo12:_ZZN4asio15system_categoryEvE8instance]
	add	x2, x2, :lo12:__dso_handle
	ldr	x0, [x0, #:got_lo12:_ZN4asio6detail15system_categoryD1Ev]
	bl	__cxa_atexit
	mov	x0, x23
	bl	__cxa_guard_release
	b	.L1023
	.p2align 2,,3
.L1166:
	ldr	x20, [x22, 40]
	dup	v0.2d, x19
	ldrb	w0, [x20, 40]
	str	q0, [sp, 96]
	orr	w0, w0, w27
	cbz	w0, .L1042
	ldr	x24, [x24, #:got_lo12:_ZN4asio6detail10call_stackINS0_15task_io_serviceENS0_27task_io_service_thread_infoEE4top_E]
	ldr	w0, [x24]
	bl	pthread_getspecific
	cbnz	x0, .L1045
	b	.L1042
	.p2align 2,,3
.L1043:
	ldr	x0, [x0, 16]
	cbz	x0, .L1042
.L1045:
	ldr	x1, [x0]
	cmp	x20, x1
	bne	.L1043
	ldr	x0, [x0, 8]
	cbz	x0, .L1042
	ldp	x3, x1, [x0, 16]
	add	x1, x1, 1
	str	x1, [x0, 24]
	str	xzr, [x19]
	ldr	x1, [x0, 16]
	cbz	x3, .L1046
	str	x19, [x1]
	str	x19, [x0, 16]
	b	.L1047
	.p2align 2,,3
.L1159:
	adrp	x20, :got:_ZGVZN4asio15system_categoryEvE8instance
	ldr	x20, [x20, #:got_lo12:_ZGVZN4asio15system_categoryEvE8instance]
	ldar	x0, [x20]
	adrp	x21, :got:_ZZN4asio15system_categoryEvE8instance
	tbz	x0, 0, .L1169
.L1020:
	ldr	x21, [x21, #:got_lo12:_ZZN4asio15system_categoryEvE8instance]
	mov	w0, 9
	str	w0, [x19, 24]
	str	x21, [x19, 32]
	b	.L1016
	.p2align 2,,3
.L1163:
	ldr	x24, [x24, #:got_lo12:_ZN4asio6detail10call_stackINS0_15task_io_serviceENS0_27task_io_service_thread_infoEE4top_E]
	ldr	w0, [x24]
	bl	pthread_getspecific
	cbnz	x0, .L1033
	b	.L1069
	.p2align 2,,3
.L1031:
	ldr	x0, [x0, 16]
	cbz	x0, .L1069
.L1033:
	ldr	x1, [x0]
	cmp	x20, x1
	bne	.L1031
	b	.L1158
.L1162:
	mov	x0, x20
	adrp	x21, :got:_ZZN4asio15system_categoryEvE8instance
	bl	__cxa_guard_acquire
	cbz	w0, .L1028
	adrp	x0, :got:_ZN4asio6detail15system_categoryD1Ev
	adrp	x2, __dso_handle
	ldr	x1, [x21, #:got_lo12:_ZZN4asio15system_categoryEvE8instance]
	add	x2, x2, :lo12:__dso_handle
	ldr	x0, [x0, #:got_lo12:_ZN4asio6detail15system_categoryD1Ev]
	bl	__cxa_atexit
	mov	x0, x20
	bl	__cxa_guard_release
	b	.L1028
	.p2align 2,,3
.L1042:
	add	x1, x20, 192
	add	x22, x20, 48
	mov	x0, 1
	bl	__aarch64_ldadd8_acq_rel
	mov	x0, x22
	bl	pthread_mutex_lock
	ldr	x1, [x20, 208]
	str	xzr, [x19]
	cbz	x1, .L1048
	str	x19, [x1]
	str	x19, [x20, 208]
.L1049:
	ldr	x0, [x20, 144]
	add	x19, x20, 96
	orr	x0, x0, 1
	str	x0, [x20, 144]
	cmp	x0, 1
	beq	.L1050
	mov	x0, x22
	bl	pthread_mutex_unlock
	mov	x0, x19
	bl	pthread_cond_signal
	b	.L1047
.L1169:
	mov	x0, x20
	adrp	x21, :got:_ZZN4asio15system_categoryEvE8instance
	bl	__cxa_guard_acquire
	cbz	w0, .L1020
	adrp	x0, :got:_ZN4asio6detail15system_categoryD1Ev
	adrp	x2, __dso_handle
	ldr	x1, [x21, #:got_lo12:_ZZN4asio15system_categoryEvE8instance]
	add	x2, x2, :lo12:__dso_handle
	ldr	x0, [x0, #:got_lo12:_ZN4asio6detail15system_categoryD1Ev]
	bl	__cxa_atexit
	mov	x0, x20
	bl	__cxa_guard_release
	b	.L1020
.L1050:
	ldrb	w1, [x20, 184]
	cbnz	w1, .L1052
	ldr	x4, [x20, 152]
	cbz	x4, .L1052
	mov	w1, 9
	strb	w0, [x20, 184]
	ldr	w2, [x4, 96]
	add	x0, x4, 96
	movk	w1, 0x8000, lsl 16
	str	w1, [sp, 120]
	str	x0, [sp, 128]
	add	x3, sp, 120
	mov	w1, 3
	ldr	w0, [x4, 104]
	bl	epoll_ctl
.L1052:
	mov	x0, x22
	bl	pthread_mutex_unlock
	b	.L1047
.L1168:
	mov	x0, x21
	bl	pthread_mutex_unlock
	ldr	x20, [x22, 40]
	dup	v0.2d, x19
	ldrb	w0, [x20, 40]
	str	q0, [sp, 96]
	orr	w0, w0, w27
	cbz	w0, .L1069
	ldr	x24, [x24, #:got_lo12:_ZN4asio6detail10call_stackINS0_15task_io_serviceENS0_27task_io_service_thread_infoEE4top_E]
	ldr	w0, [x24]
	bl	pthread_getspecific
	cbnz	x0, .L1058
	b	.L1069
	.p2align 2,,3
.L1056:
	ldr	x0, [x0, 16]
	cbz	x0, .L1069
.L1058:
	ldr	x1, [x0]
	cmp	x20, x1
	bne	.L1056
	b	.L1158
.L1048:
	ldr	q0, [sp, 96]
	str	q0, [x20, 200]
	b	.L1049
.L1046:
	ldr	q0, [sp, 96]
	str	q0, [x0, 8]
	b	.L1047
.L1065:
	bl	__errno_location
	ldr	w20, [x0]
	bl	_ZN4asio15system_categoryEv
	mov	x1, x0
	ldr	x0, [x22, 40]
	str	w20, [x19, 24]
	str	x1, [x19, 32]
	mov	w2, w27
	mov	x1, x19
	bl	_ZN4asio6detail15task_io_service25post_immediate_completionEPNS0_25task_io_service_operationEb
	b	.L1047
.L1164:
	bl	__stack_chk_fail
.L1081:
	mov	x19, x0
	mov	x0, x21
	bl	pthread_mutex_unlock
	add	x0, sp, 136
	bl	_ZN4asio6detail23reactive_socket_send_opINS_15const_buffers_1ENS0_8write_opINS_19basic_stream_socketINS_2ip3tcpENS_21stream_socket_serviceIS6_EEEES2_NS0_14transfer_all_tENS0_15wrapped_handlerINS_10io_service6strandEZN7asiopal13SocketChannel14BeginWriteImplERKN7openpal6RSliceEEUlRKSt10error_codemE_NS0_26is_continuation_if_runningEEEEEE3ptr5resetEv
	mov	x0, x19
.LEHB17:
	bl	_Unwind_Resume
.LEHE17:
	.cfi_endproc
.LFE7051:
	.section	.gcc_except_table
.LLSDA7051:
	.byte	0xff
	.byte	0xff
	.byte	0x1
	.uleb128 .LLSDACSE7051-.LLSDACSB7051
.LLSDACSB7051:
	.uleb128 .LEHB15-.LFB7051
	.uleb128 .LEHE15-.LEHB15
	.uleb128 0
	.uleb128 0
	.uleb128 .LEHB16-.LFB7051
	.uleb128 .LEHE16-.LEHB16
	.uleb128 .L1081-.LFB7051
	.uleb128 0
	.uleb128 .LEHB17-.LFB7051
	.uleb128 .LEHE17-.LEHB17
	.uleb128 0
	.uleb128 0
.LLSDACSE7051:
	.text
	.size	_ZN7asiopal13SocketChannel14BeginWriteImplERKN7openpal6RSliceE, .-_ZN7asiopal13SocketChannel14BeginWriteImplERKN7openpal6RSliceE
	.section	.text._ZN4asio6detail14strand_service16on_dispatch_exitD2Ev,"axG",@progbits,_ZN4asio6detail14strand_service16on_dispatch_exitD5Ev,comdat
	.align	2
	.p2align 4,,11
	.weak	_ZN4asio6detail14strand_service16on_dispatch_exitD2Ev
	.type	_ZN4asio6detail14strand_service16on_dispatch_exitD2Ev, %function
_ZN4asio6detail14strand_service16on_dispatch_exitD2Ev:
.LFB6410:
	.cfi_startproc
	stp	x29, x30, [sp, -80]!
	.cfi_def_cfa_offset 80
	.cfi_offset 29, -80
	.cfi_offset 30, -72
	adrp	x1, :got:__stack_chk_guard
	mov	x29, sp
	ldr	x1, [x1, #:got_lo12:__stack_chk_guard]
	stp	x19, x20, [sp, 16]
	.cfi_offset 19, -64
	.cfi_offset 20, -56
	mov	x19, x0
	ldr	x2, [x1]
	str	x2, [sp, 72]
	mov	x2, 0
	ldr	x0, [x0, 8]
	add	x0, x0, 24
	bl	pthread_mutex_lock
	ldr	x1, [x19, 8]
	ldr	x20, [x1, 80]
	cbz	x20, .L1206
	ldr	x2, [x1, 104]
	add	x0, x1, 96
	cbz	x2, .L1173
	str	x20, [x2]
	ldr	x20, [x1, 96]
.L1174:
	ldr	x2, [x1, 88]
	str	x2, [x0, 8]
	stp	xzr, xzr, [x1, 80]
.L1172:
	cmp	x20, 0
	cset	w0, ne
	strb	w0, [x1, 72]
	add	x0, x1, 24
	bl	pthread_mutex_unlock
	cbnz	x20, .L1207
.L1170:
	adrp	x0, :got:__stack_chk_guard
	ldr	x0, [x0, #:got_lo12:__stack_chk_guard]
	ldr	x2, [sp, 72]
	ldr	x1, [x0]
	subs	x2, x2, x1
	mov	x1, 0
	bne	.L1208
	ldp	x19, x20, [sp, 16]
	ldp	x29, x30, [sp], 80
	.cfi_remember_state
	.cfi_restore 30
	.cfi_restore 29
	.cfi_restore 19
	.cfi_restore 20
	.cfi_def_cfa_offset 0
	ret
	.p2align 2,,3
.L1173:
	.cfi_restore_state
	str	x20, [x1, 96]
	b	.L1174
	.p2align 2,,3
.L1207:
	ldp	x20, x19, [x19]
	ldrb	w0, [x20, 40]
	cbnz	w0, .L1209
.L1203:
	add	x1, x20, 192
	mov	x0, 1
	str	x21, [sp, 32]
	.cfi_offset 21, -48
	bl	__aarch64_ldadd8_acq_rel
	add	x21, x20, 48
	mov	x0, x21
	bl	pthread_mutex_lock
	ldr	x1, [x20, 208]
	str	xzr, [x19]
	add	x0, x20, 200
	cbz	x1, .L1181
	ldr	x1, [x20, 208]
	str	x19, [x1]
	str	x19, [x0, 8]
.L1182:
	ldr	x1, [x20, 144]
	add	x19, x20, 96
	orr	x1, x1, 1
	str	x1, [x19, 48]
	cmp	x1, 1
	beq	.L1183
	mov	x0, x21
	bl	pthread_mutex_unlock
	adrp	x0, :got:__stack_chk_guard
	ldr	x0, [x0, #:got_lo12:__stack_chk_guard]
	ldr	x2, [sp, 72]
	ldr	x1, [x0]
	subs	x2, x2, x1
	mov	x1, 0
	bne	.L1205
	mov	x0, x19
	ldp	x19, x20, [sp, 16]
	ldr	x21, [sp, 32]
	.cfi_restore 21
	ldp	x29, x30, [sp], 80
	.cfi_restore 30
	.cfi_restore 29
	.cfi_restore 19
	.cfi_restore 20
	.cfi_def_cfa_offset 0
	b	pthread_cond_signal
	.p2align 2,,3
.L1206:
	.cfi_def_cfa_offset 80
	.cfi_offset 19, -64
	.cfi_offset 20, -56
	.cfi_offset 29, -80
	.cfi_offset 30, -72
	ldr	x20, [x1, 96]
	b	.L1172
	.p2align 2,,3
.L1181:
	.cfi_offset 21, -48
	str	x19, [x0, 8]
	str	x19, [x20, 200]
	b	.L1182
	.p2align 2,,3
.L1183:
	ldrb	w0, [x20, 184]
	cbnz	w0, .L1185
	ldr	x3, [x20, 152]
	cbz	x3, .L1185
	ldr	w2, [x3, 96]
	add	x4, x3, 96
	ldr	w0, [x3, 104]
	mov	w5, 9
	movk	w5, 0x8000, lsl 16
	strb	w1, [x20, 184]
	add	x3, sp, 56
	mov	w1, 3
	str	w5, [sp, 56]
	str	x4, [sp, 64]
	bl	epoll_ctl
.L1185:
	adrp	x0, :got:__stack_chk_guard
	ldr	x0, [x0, #:got_lo12:__stack_chk_guard]
	ldr	x2, [sp, 72]
	ldr	x1, [x0]
	subs	x2, x2, x1
	mov	x1, 0
	bne	.L1205
	mov	x0, x21
	ldp	x19, x20, [sp, 16]
	ldr	x21, [sp, 32]
	.cfi_restore 21
	ldp	x29, x30, [sp], 80
	.cfi_restore 30
	.cfi_restore 29
	.cfi_restore 19
	.cfi_restore 20
	.cfi_def_cfa_offset 0
	b	pthread_mutex_unlock
	.p2align 2,,3
.L1209:
	.cfi_def_cfa_offset 80
	.cfi_offset 19, -64
	.cfi_offset 20, -56
	.cfi_offset 29, -80
	.cfi_offset 30, -72
	adrp	x0, :got:_ZN4asio6detail10call_stackINS0_15task_io_serviceENS0_27task_io_service_thread_infoEE4top_E
	ldr	x0, [x0, #:got_lo12:_ZN4asio6detail10call_stackINS0_15task_io_serviceENS0_27task_io_service_thread_infoEE4top_E]
	ldr	w0, [x0]
	bl	pthread_getspecific
	cbnz	x0, .L1179
	b	.L1203
	.p2align 2,,3
.L1177:
	ldr	x0, [x0, 16]
	cbz	x0, .L1203
.L1179:
	ldr	x1, [x0]
	cmp	x20, x1
	bne	.L1177
	ldr	x0, [x0, 8]
	cbz	x0, .L1203
	ldr	x1, [x0, 24]
	add	x2, x0, 8
	ldr	x3, [x2, 8]
	add	x1, x1, 1
	str	x1, [x0, 24]
	str	xzr, [x19]
	ldr	x1, [x0, 16]
	cbz	x3, .L1180
	str	x19, [x1]
	str	x19, [x2, 8]
	b	.L1170
	.p2align 2,,3
.L1180:
	str	x19, [x2, 8]
	str	x19, [x0, 8]
	b	.L1170
.L1208:
	str	x21, [sp, 32]
	.cfi_offset 21, -48
.L1205:
	bl	__stack_chk_fail
	.cfi_endproc
.LFE6410:
	.size	_ZN4asio6detail14strand_service16on_dispatch_exitD2Ev, .-_ZN4asio6detail14strand_service16on_dispatch_exitD2Ev
	.weak	_ZN4asio6detail14strand_service16on_dispatch_exitD1Ev
	.set	_ZN4asio6detail14strand_service16on_dispatch_exitD1Ev,_ZN4asio6detail14strand_service16on_dispatch_exitD2Ev
	.text
	.align	2
	.p2align 4,,11
	.type	_ZN4asio6detail14strand_service8dispatchINS0_7binder2IZN7asiopal13SocketChannel13BeginReadImplEN7openpal6WSliceEEUlRKSt10error_codemE_S8_mEEEEvRPNS1_11strand_implERT_, %function
_ZN4asio6detail14strand_service8dispatchINS0_7binder2IZN7asiopal13SocketChannel13BeginReadImplEN7openpal6WSliceEEUlRKSt10error_codemE_S8_mEEEEvRPNS1_11strand_implERT_:
.LFB9413:
	.cfi_startproc
	.cfi_personality 0x9b,DW.ref.__gxx_personality_v0
	.cfi_lsda 0x1b,.LLSDA9413
	stp	x29, x30, [sp, -224]!
	.cfi_def_cfa_offset 224
	.cfi_offset 29, -224
	.cfi_offset 30, -216
	adrp	x3, :got:__stack_chk_guard
	mov	x29, sp
	stp	x21, x22, [sp, 32]
	.cfi_offset 21, -192
	.cfi_offset 22, -184
	adrp	x22, :got:_ZN4asio6detail10call_stackINS0_14strand_service11strand_implEhE4top_E
	mov	x21, x0
	ldr	x0, [x22, #:got_lo12:_ZN4asio6detail10call_stackINS0_14strand_service11strand_implEhE4top_E]
	stp	x19, x20, [sp, 16]
	.cfi_offset 19, -208
	.cfi_offset 20, -200
	mov	x20, x1
	ldr	x3, [x3, #:got_lo12:__stack_chk_guard]
	stp	x23, x24, [sp, 48]
	ldr	w0, [x0]
	stp	x25, x26, [sp, 64]
	.cfi_offset 23, -176
	.cfi_offset 24, -168
	.cfi_offset 25, -160
	.cfi_offset 26, -152
	mov	x23, x2
	ldr	x1, [x3]
	str	x1, [sp, 216]
	mov	x1, 0
	ldr	x19, [x20]
	bl	pthread_getspecific
	cbnz	x0, .L1214
	b	.L1211
	.p2align 2,,3
.L1212:
	ldr	x0, [x0, 16]
	cbz	x0, .L1211
.L1214:
	ldr	x3, [x0]
	cmp	x19, x3
	bne	.L1212
	ldr	x0, [x0, 8]
	cbz	x0, .L1211
	add	x26, sp, 184
	mov	w0, 1
	mov	x1, x26
	str	wzr, [sp, 184]
	bl	__aarch64_swp4_sync
	ldr	x1, [x23]
	ldr	x2, [x23, 24]
	ldr	x0, [x1, 40]
	strb	wzr, [x1, 57]
	cbz	x0, .L1217
	ldrb	w1, [x1, 56]
	cbnz	w1, .L1217
	ldr	x3, [x0]
	add	x1, x23, 8
	ldr	x3, [x3, 16]
.LEHB18:
	blr	x3
.LEHE18:
.L1217:
	stlr	wzr, [x26]
.L1210:
	adrp	x0, :got:__stack_chk_guard
	ldr	x0, [x0, #:got_lo12:__stack_chk_guard]
	ldr	x2, [sp, 216]
	ldr	x1, [x0]
	subs	x2, x2, x1
	mov	x1, 0
	bne	.L1331
	ldp	x19, x20, [sp, 16]
	ldp	x21, x22, [sp, 32]
	ldp	x23, x24, [sp, 48]
	ldp	x25, x26, [sp, 64]
	ldp	x29, x30, [sp], 224
	.cfi_remember_state
	.cfi_restore 30
	.cfi_restore 29
	.cfi_restore 25
	.cfi_restore 26
	.cfi_restore 23
	.cfi_restore 24
	.cfi_restore 21
	.cfi_restore 22
	.cfi_restore 19
	.cfi_restore 20
	.cfi_def_cfa_offset 0
	ret
	.p2align 2,,3
.L1211:
	.cfi_restore_state
	adrp	x24, :got:_ZN4asio6detail10call_stackINS0_15task_io_serviceENS0_27task_io_service_thread_infoEE4top_E
	ldr	x0, [x24, #:got_lo12:_ZN4asio6detail10call_stackINS0_15task_io_serviceENS0_27task_io_service_thread_infoEE4top_E]
	ldr	w0, [x0]
	bl	pthread_getspecific
	cbz	x0, .L1218
	ldr	x0, [x0, 8]
	cbz	x0, .L1218
	ldr	x19, [x0]
	cbz	x19, .L1218
	str	xzr, [x0]
	ldrb	w0, [x19]
	cmp	w0, 55
	bls	.L1219
	strb	w0, [x19, 56]
	b	.L1220
.L1219:
	mov	x0, x19
	bl	_ZdlPv
.L1218:
	mov	x0, 57
.LEHB19:
	bl	_Znwm
.LEHE19:
	mov	x19, x0
	mov	w1, 56
	strb	w1, [x0, 56]
.L1220:
	ldr	x0, [x24, #:got_lo12:_ZN4asio6detail10call_stackINS0_15task_io_serviceENS0_27task_io_service_thread_infoEE4top_E]
	add	x25, x19, 24
	ldp	q0, q1, [x23]
	adrp	x1, _ZN4asio6detail18completion_handlerINS0_7binder2IZN7asiopal13SocketChannel13BeginReadImplEN7openpal6WSliceEEUlRKSt10error_codemE_S7_mEEE11do_completeEPNS0_15task_io_serviceEPNS0_25task_io_service_operationES9_m
	ldr	w0, [x0]
	add	x1, x1, :lo12:_ZN4asio6detail18completion_handlerINS0_7binder2IZN7asiopal13SocketChannel13BeginReadImplEN7openpal6WSliceEEUlRKSt10error_codemE_S7_mEEE11do_completeEPNS0_15task_io_serviceEPNS0_25task_io_service_operationES9_m
	ldr	x23, [x21, 40]
	stp	xzr, x1, [x19]
	str	wzr, [x19, 16]
	stp	q0, q1, [x25]
	bl	pthread_getspecific
	dup	v0.2d, x19
	mov	x2, x0
	str	q0, [sp, 80]
	cbnz	x0, .L1225
	b	.L1221
	.p2align 2,,3
.L1222:
	ldr	x2, [x2, 16]
	cbz	x2, .L1221
.L1225:
	ldr	x3, [x2]
	cmp	x23, x3
	bne	.L1222
	ldr	x23, [x2, 8]
	ldr	x0, [x20]
	add	x0, x0, 24
	bl	pthread_mutex_lock
	cbz	x23, .L1224
	ldr	x1, [x20]
	ldrb	w0, [x1, 72]
	cbz	w0, .L1332
.L1226:
	str	xzr, [x19]
	ldr	x3, [x1, 88]
	cbz	x3, .L1230
	str	x19, [x3]
	str	x19, [x1, 88]
.L1231:
	adrp	x0, :got:__stack_chk_guard
	ldr	x0, [x0, #:got_lo12:__stack_chk_guard]
	ldr	x3, [sp, 216]
	ldr	x2, [x0]
	subs	x3, x3, x2
	mov	x2, 0
	add	x0, x1, 24
	bne	.L1331
.L1330:
	ldp	x19, x20, [sp, 16]
	ldp	x21, x22, [sp, 32]
	ldp	x23, x24, [sp, 48]
	ldp	x25, x26, [sp, 64]
	ldp	x29, x30, [sp], 224
	.cfi_remember_state
	.cfi_restore 30
	.cfi_restore 29
	.cfi_restore 25
	.cfi_restore 26
	.cfi_restore 23
	.cfi_restore 24
	.cfi_restore 21
	.cfi_restore 22
	.cfi_restore 19
	.cfi_restore 20
	.cfi_def_cfa_offset 0
	b	pthread_mutex_unlock
.L1332:
	.cfi_restore_state
	mov	w0, 1
	strb	w0, [x1, 72]
	add	x0, x1, 24
	add	x26, sp, 184
	bl	pthread_mutex_unlock
	ldr	x23, [x22, #:got_lo12:_ZN4asio6detail10call_stackINS0_14strand_service11strand_implEhE4top_E]
	ldr	x0, [x20]
	str	x0, [sp, 136]
	ldr	w0, [x23]
	bl	pthread_getspecific
	mov	x2, x0
	ldr	w0, [x23]
	add	x1, sp, 136
	stp	x1, x2, [sp, 144]
	bl	pthread_setspecific
	stp	x26, x19, [sp, 160]
	ldr	x0, [x24, #:got_lo12:_ZN4asio6detail10call_stackINS0_15task_io_serviceENS0_27task_io_service_thread_infoEE4top_E]
	str	xzr, [sp, 176]
	ldp	q0, q1, [x25]
	ldr	w0, [x0]
	ldr	x20, [x20]
	stp	q0, q1, [x26]
	ldr	x21, [x21, 40]
	stp	x21, x20, [sp, 120]
	bl	pthread_getspecific
	cbz	x0, .L1228
	ldr	x0, [x0, 8]
	cbz	x0, .L1228
	ldr	x1, [x0]
	cbz	x1, .L1333
.L1228:
	mov	x0, x19
	bl	_ZdlPv
.L1247:
	str	xzr, [sp, 168]
	cbz	x21, .L1334
	add	x19, sp, 112
	mov	w0, 1
	mov	x1, x19
	str	wzr, [sp, 112]
	bl	__aarch64_swp4_sync
	ldr	x1, [sp, 184]
	ldr	x2, [sp, 208]
	ldr	x0, [x1, 40]
	strb	wzr, [x1, 57]
	cbz	x0, .L1253
	ldrb	w1, [x1, 56]
	cbz	w1, .L1335
.L1253:
	stlr	wzr, [x19]
	ldr	x0, [sp, 176]
	cbz	x0, .L1336
	ldr	x20, [sp, 128]
	str	xzr, [sp, 176]
	ldr	x19, [sp, 168]
.L1254:
	dup	v0.2d, x20
	str	q0, [sp, 80]
	cbz	x19, .L1249
	ldr	x0, [x24, #:got_lo12:_ZN4asio6detail10call_stackINS0_15task_io_serviceENS0_27task_io_service_thread_infoEE4top_E]
	ldr	w0, [x0]
	bl	pthread_getspecific
	cbz	x0, .L1255
	ldr	x0, [x0, 8]
	cbz	x0, .L1255
	ldr	x1, [x0]
	cbz	x1, .L1337
.L1255:
	mov	x0, x19
	bl	_ZdlPv
.L1249:
	add	x21, x20, 24
	mov	x0, x21
	bl	pthread_mutex_lock
	ldr	x19, [x20, 80]
	cbz	x19, .L1338
	ldr	x1, [x20, 104]
	add	x0, x20, 96
	cbz	x1, .L1259
	str	x19, [x1]
	ldr	x19, [x20, 96]
.L1260:
	ldr	x1, [x20, 88]
	str	x1, [x0, 8]
	stp	xzr, xzr, [x20, 80]
.L1257:
	cmp	x19, 0
	cset	w0, ne
	strb	w0, [x20, 72]
	mov	x0, x21
	bl	pthread_mutex_unlock
	cbnz	x19, .L1339
.L1261:
	ldr	x22, [x22, #:got_lo12:_ZN4asio6detail10call_stackINS0_14strand_service11strand_implEhE4top_E]
	ldr	x1, [sp, 152]
	ldr	w0, [x22]
	bl	pthread_setspecific
	b	.L1210
	.p2align 2,,3
.L1221:
	ldr	x0, [x20]
	add	x0, x0, 24
	bl	pthread_mutex_lock
.L1224:
	ldr	x1, [x20]
	add	x0, x1, 24
	ldrb	w2, [x1, 72]
	cbnz	w2, .L1226
	mov	w2, 1
	strb	w2, [x1, 72]
	bl	pthread_mutex_unlock
	ldr	x20, [x20]
	dup	v0.2d, x20
	ldr	x1, [x20, 104]
	str	xzr, [x19]
	str	q0, [sp, 96]
	cbz	x1, .L1233
	str	x19, [x1]
	str	x19, [x20, 104]
.L1234:
	ldr	x19, [x21, 40]
	ldrb	w0, [x19, 40]
	cbnz	w0, .L1340
.L1235:
	add	x1, x19, 192
	add	x21, x19, 48
	mov	x0, 1
	bl	__aarch64_ldadd8_acq_rel
	mov	x0, x21
	bl	pthread_mutex_lock
	ldr	x1, [x19, 208]
	str	xzr, [x20]
	cbz	x1, .L1241
	str	x20, [x1]
	str	x20, [x19, 208]
.L1242:
	ldr	x0, [x19, 144]
	add	x20, x19, 96
	orr	x0, x0, 1
	str	x0, [x20, 48]
	cmp	x0, 1
	beq	.L1243
	mov	x0, x21
	bl	pthread_mutex_unlock
	adrp	x0, :got:__stack_chk_guard
	ldr	x0, [x0, #:got_lo12:__stack_chk_guard]
	ldr	x2, [sp, 216]
	ldr	x1, [x0]
	subs	x2, x2, x1
	mov	x1, 0
	bne	.L1331
	mov	x0, x20
	ldp	x19, x20, [sp, 16]
	ldp	x21, x22, [sp, 32]
	ldp	x23, x24, [sp, 48]
	ldp	x25, x26, [sp, 64]
	ldp	x29, x30, [sp], 224
	.cfi_remember_state
	.cfi_restore 30
	.cfi_restore 29
	.cfi_restore 25
	.cfi_restore 26
	.cfi_restore 23
	.cfi_restore 24
	.cfi_restore 21
	.cfi_restore 22
	.cfi_restore 19
	.cfi_restore 20
	.cfi_def_cfa_offset 0
	b	pthread_cond_signal
.L1230:
	.cfi_restore_state
	ldr	q0, [sp, 80]
	str	q0, [x1, 80]
	b	.L1231
.L1335:
	ldr	x3, [x0]
	add	x1, sp, 192
	ldr	x3, [x3, 16]
.LEHB20:
	blr	x3
.LEHE20:
	b	.L1253
.L1241:
	ldr	q0, [sp, 96]
	str	q0, [x19, 200]
	b	.L1242
.L1337:
	ldrb	w1, [x19, 56]
	strb	w1, [x19]
	str	x19, [x0]
	b	.L1249
.L1333:
	ldrb	w1, [x19, 56]
	strb	w1, [x19]
	str	x19, [x0]
	b	.L1247
.L1243:
	ldrb	w1, [x19, 184]
	cbnz	w1, .L1245
	ldr	x4, [x19, 152]
	cbz	x4, .L1245
	mov	w1, 9
	strb	w0, [x19, 184]
	ldr	w2, [x4, 96]
	add	x0, x4, 96
	movk	w1, 0x8000, lsl 16
	str	w1, [sp, 184]
	str	x0, [sp, 192]
	add	x3, sp, 184
	mov	w1, 3
	ldr	w0, [x4, 104]
	bl	epoll_ctl
.L1245:
	adrp	x0, :got:__stack_chk_guard
	ldr	x0, [x0, #:got_lo12:__stack_chk_guard]
	ldr	x2, [sp, 216]
	ldr	x1, [x0]
	subs	x2, x2, x1
	mov	x1, 0
	mov	x0, x21
	beq	.L1330
.L1331:
	bl	__stack_chk_fail
	.p2align 2,,3
.L1339:
	ldr	x19, [sp, 120]
	ldrb	w0, [x19, 40]
	cbnz	w0, .L1341
.L1262:
	add	x1, x19, 192
	add	x21, x19, 48
	mov	x0, 1
	bl	__aarch64_ldadd8_acq_rel
	mov	x0, x21
	bl	pthread_mutex_lock
	ldr	x1, [x19, 208]
	str	xzr, [x20]
	cbz	x1, .L1267
	str	x20, [x1]
	str	x20, [x19, 208]
.L1268:
	ldr	x0, [x19, 144]
	add	x20, x19, 96
	orr	x0, x0, 1
	str	x0, [x19, 144]
	cmp	x0, 1
	beq	.L1269
	mov	x0, x21
	bl	pthread_mutex_unlock
	mov	x0, x20
	bl	pthread_cond_signal
	b	.L1261
.L1338:
	ldr	x19, [x20, 96]
	b	.L1257
.L1334:
	dup	v0.2d, x20
	str	q0, [sp, 80]
	b	.L1249
.L1259:
	str	x19, [x20, 96]
	b	.L1260
.L1269:
	ldrb	w1, [x19, 184]
	cbnz	w1, .L1271
	ldr	x4, [x19, 152]
	cbz	x4, .L1271
	mov	w1, 9
	strb	w0, [x19, 184]
	ldr	w2, [x4, 96]
	add	x0, x4, 96
	movk	w1, 0x8000, lsl 16
	str	w1, [sp, 184]
	str	x0, [sp, 192]
	mov	x3, x26
	mov	w1, 3
	ldr	w0, [x4, 104]
	bl	epoll_ctl
.L1271:
	mov	x0, x21
	bl	pthread_mutex_unlock
	b	.L1261
.L1340:
	ldr	x24, [x24, #:got_lo12:_ZN4asio6detail10call_stackINS0_15task_io_serviceENS0_27task_io_service_thread_infoEE4top_E]
	ldr	w0, [x24]
	bl	pthread_getspecific
	cbnz	x0, .L1238
	b	.L1235
	.p2align 2,,3
.L1236:
	ldr	x0, [x0, 16]
	cbz	x0, .L1235
.L1238:
	ldr	x1, [x0]
	cmp	x19, x1
	bne	.L1236
	ldr	x0, [x0, 8]
	cbz	x0, .L1235
	ldp	x3, x1, [x0, 16]
	add	x1, x1, 1
	str	x1, [x0, 24]
	str	xzr, [x20]
	ldr	x1, [x0, 16]
	cbz	x3, .L1239
	str	x20, [x1]
	str	x20, [x0, 16]
	b	.L1210
.L1233:
	ldr	q0, [sp, 80]
	str	q0, [x20, 96]
	b	.L1234
.L1341:
	ldr	x24, [x24, #:got_lo12:_ZN4asio6detail10call_stackINS0_15task_io_serviceENS0_27task_io_service_thread_infoEE4top_E]
	ldr	w0, [x24]
	bl	pthread_getspecific
	cbnz	x0, .L1265
	b	.L1262
	.p2align 2,,3
.L1263:
	ldr	x0, [x0, 16]
	cbz	x0, .L1262
.L1265:
	ldr	x1, [x0]
	cmp	x19, x1
	bne	.L1263
	ldr	x0, [x0, 8]
	cbz	x0, .L1262
	ldp	x3, x1, [x0, 16]
	add	x1, x1, 1
	str	x1, [x0, 24]
	str	xzr, [x20]
	ldr	x1, [x0, 16]
	cbz	x3, .L1266
	str	x20, [x1]
	str	x20, [x0, 16]
	b	.L1261
.L1267:
	ldr	q0, [sp, 80]
	str	q0, [x19, 200]
	b	.L1268
.L1239:
	ldr	q0, [sp, 96]
	str	q0, [x0, 8]
	b	.L1210
.L1266:
	ldr	q0, [sp, 80]
	str	q0, [x0, 8]
	b	.L1261
.L1336:
	ldr	x20, [sp, 128]
	ldr	x19, [sp, 168]
	b	.L1254
.L1274:
	stlr	wzr, [x26]
.LEHB21:
	bl	_Unwind_Resume
.L1275:
	mov	x20, x0
	stlr	wzr, [x19]
	add	x0, sp, 160
	bl	_ZN4asio6detail18completion_handlerINS0_7binder2IZN7asiopal13SocketChannel13BeginReadImplEN7openpal6WSliceEEUlRKSt10error_codemE_S7_mEEE3ptr5resetEv
	add	x0, sp, 120
	bl	_ZN4asio6detail14strand_service16on_dispatch_exitD1Ev
	ldr	x22, [x22, #:got_lo12:_ZN4asio6detail10call_stackINS0_14strand_service11strand_implEhE4top_E]
	ldr	x1, [sp, 152]
	ldr	w0, [x22]
	bl	pthread_setspecific
	mov	x0, x20
	bl	_Unwind_Resume
.LEHE21:
	.cfi_endproc
.LFE9413:
	.section	.gcc_except_table
.LLSDA9413:
	.byte	0xff
	.byte	0xff
	.byte	0x1
	.uleb128 .LLSDACSE9413-.LLSDACSB9413
.LLSDACSB9413:
	.uleb128 .LEHB18-.LFB9413
	.uleb128 .LEHE18-.LEHB18
	.uleb128 .L1274-.LFB9413
	.uleb128 0
	.uleb128 .LEHB19-.LFB9413
	.uleb128 .LEHE19-.LEHB19
	.uleb128 0
	.uleb128 0
	.uleb128 .LEHB20-.LFB9413
	.uleb128 .LEHE20-.LEHB20
	.uleb128 .L1275-.LFB9413
	.uleb128 0
	.uleb128 .LEHB21-.LFB9413
	.uleb128 .LEHE21-.LEHB21
	.uleb128 0
	.uleb128 0
.LLSDACSE9413:
	.text
	.size	_ZN4asio6detail14strand_service8dispatchINS0_7binder2IZN7asiopal13SocketChannel13BeginReadImplEN7openpal6WSliceEEUlRKSt10error_codemE_S8_mEEEEvRPNS1_11strand_implERT_, .-_ZN4asio6detail14strand_service8dispatchINS0_7binder2IZN7asiopal13SocketChannel13BeginReadImplEN7openpal6WSliceEEUlRKSt10error_codemE_S8_mEEEEvRPNS1_11strand_implERT_
	.align	2
	.p2align 4,,11
	.type	_ZN4asio6detail18completion_handlerINS0_17rewrapped_handlerINS0_7binder2INS0_15wrapped_handlerINS_10io_service6strandEZN7asiopal13SocketChannel13BeginReadImplEN7openpal6WSliceEEUlRKSt10error_codemE_NS0_26is_continuation_if_runningEEESB_mEESE_EEE11do_completeEPNS0_15task_io_serviceEPNS0_25task_io_service_operationESD_m, %function
_ZN4asio6detail18completion_handlerINS0_17rewrapped_handlerINS0_7binder2INS0_15wrapped_handlerINS_10io_service6strandEZN7asiopal13SocketChannel13BeginReadImplEN7openpal6WSliceEEUlRKSt10error_codemE_NS0_26is_continuation_if_runningEEESB_mEESE_EEE11do_completeEPNS0_15task_io_serviceEPNS0_25task_io_service_operationESD_m:
.LFB9338:
	.cfi_startproc
	.cfi_personality 0x9b,DW.ref.__gxx_personality_v0
	.cfi_lsda 0x1b,.LLSDA9338
	stp	x29, x30, [sp, -224]!
	.cfi_def_cfa_offset 224
	.cfi_offset 29, -224
	.cfi_offset 30, -216
	adrp	x2, :got:__stack_chk_guard
	mov	x29, sp
	stp	x19, x20, [sp, 16]
	.cfi_offset 19, -208
	.cfi_offset 20, -200
	mov	x19, x1
	mov	x20, x0
	ldr	x7, [x1, 24]
	ldr	x6, [x1, 48]
	ldr	x1, [x1, 72]
	str	x21, [sp, 32]
	.cfi_offset 21, -192
	adrp	x21, :got:_ZN4asio6detail10call_stackINS0_15task_io_serviceENS0_27task_io_service_thread_infoEE4top_E
	ldr	x3, [x2, #:got_lo12:__stack_chk_guard]
	add	x2, sp, 160
	ldr	x4, [x21, #:got_lo12:_ZN4asio6detail10call_stackINS0_15task_io_serviceENS0_27task_io_service_thread_infoEE4top_E]
	ldr	w0, [x4]
	ldr	x4, [x3]
	str	x4, [sp, 216]
	mov	x4, 0
	stp	x2, x19, [sp, 64]
	ldp	x2, x3, [x19, 32]
	str	xzr, [sp, 80]
	ldp	x4, x5, [x19, 56]
	str	x7, [sp, 160]
	stp	x2, x3, [sp, 168]
	str	x6, [sp, 184]
	stp	x4, x5, [sp, 192]
	str	x1, [sp, 208]
	bl	pthread_getspecific
	cbz	x0, .L1343
	ldr	x0, [x0, 8]
	cbz	x0, .L1343
	ldr	x1, [x0]
	cbz	x1, .L1373
.L1343:
	mov	x0, x19
	bl	_ZdlPv
.L1344:
	str	xzr, [sp, 72]
	cbz	x20, .L1342
	add	x19, sp, 56
	mov	w0, 1
	mov	x1, x19
	str	wzr, [sp, 56]
	bl	__aarch64_swp4_sync
	ldr	w0, [sp, 192]
	add	x2, sp, 120
	ldr	x1, [sp, 184]
	str	x1, [sp, 88]
	str	w0, [sp, 96]
	ldp	x1, x0, [sp, 200]
	stp	x1, x0, [sp, 104]
	add	x1, sp, 88
	ldr	x0, [sp, 168]
	ldp	q0, q1, [x1]
	add	x1, sp, 176
	stp	q0, q1, [x2]
.LEHB22:
	bl	_ZN4asio6detail14strand_service8dispatchINS0_7binder2IZN7asiopal13SocketChannel13BeginReadImplEN7openpal6WSliceEEUlRKSt10error_codemE_S8_mEEEEvRPNS1_11strand_implERT_
.LEHE22:
	stlr	wzr, [x19]
	ldp	x19, x0, [sp, 72]
	cbz	x0, .L1347
	str	xzr, [sp, 80]
.L1347:
	cbz	x19, .L1342
	ldr	x21, [x21, #:got_lo12:_ZN4asio6detail10call_stackINS0_15task_io_serviceENS0_27task_io_service_thread_infoEE4top_E]
	ldr	w0, [x21]
	bl	pthread_getspecific
	cbz	x0, .L1348
	ldr	x0, [x0, 8]
	cbz	x0, .L1348
	ldr	x1, [x0]
	cbz	x1, .L1374
.L1348:
	adrp	x0, :got:__stack_chk_guard
	ldr	x0, [x0, #:got_lo12:__stack_chk_guard]
	ldr	x2, [sp, 216]
	ldr	x1, [x0]
	subs	x2, x2, x1
	mov	x1, 0
	bne	.L1372
	mov	x0, x19
	ldp	x19, x20, [sp, 16]
	ldr	x21, [sp, 32]
	ldp	x29, x30, [sp], 224
	.cfi_remember_state
	.cfi_restore 30
	.cfi_restore 29
	.cfi_restore 21
	.cfi_restore 19
	.cfi_restore 20
	.cfi_def_cfa_offset 0
	b	_ZdlPv
	.p2align 2,,3
.L1374:
	.cfi_restore_state
	ldrb	w1, [x19, 80]
	strb	w1, [x19]
	str	x19, [x0]
	.p2align 3,,7
.L1342:
	adrp	x0, :got:__stack_chk_guard
	ldr	x0, [x0, #:got_lo12:__stack_chk_guard]
	ldr	x2, [sp, 216]
	ldr	x1, [x0]
	subs	x2, x2, x1
	mov	x1, 0
	bne	.L1372
	ldp	x19, x20, [sp, 16]
	ldr	x21, [sp, 32]
	ldp	x29, x30, [sp], 224
	.cfi_remember_state
	.cfi_restore 30
	.cfi_restore 29
	.cfi_restore 21
	.cfi_restore 19
	.cfi_restore 20
	.cfi_def_cfa_offset 0
	ret
	.p2align 2,,3
.L1373:
	.cfi_restore_state
	ldrb	w1, [x19, 80]
	strb	w1, [x19]
	str	x19, [x0]
	b	.L1344
.L1372:
	bl	__stack_chk_fail
.L1352:
	mov	x20, x0
	stlr	wzr, [x19]
	add	x0, sp, 64
	bl	_ZN4asio6detail18completion_handlerINS0_17rewrapped_handlerINS0_7binder2INS0_15wrapped_handlerINS_10io_service6strandEZN7asiopal13SocketChannel13BeginReadImplEN7openpal6WSliceEEUlRKSt10error_codemE_NS0_26is_continuation_if_runningEEESB_mEESE_EEE3ptr5resetEv
	mov	x0, x20
.LEHB23:
	bl	_Unwind_Resume
.LEHE23:
	.cfi_endproc
.LFE9338:
	.section	.gcc_except_table
.LLSDA9338:
	.byte	0xff
	.byte	0xff
	.byte	0x1
	.uleb128 .LLSDACSE9338-.LLSDACSB9338
.LLSDACSB9338:
	.uleb128 .LEHB22-.LFB9338
	.uleb128 .LEHE22-.LEHB22
	.uleb128 .L1352-.LFB9338
	.uleb128 0
	.uleb128 .LEHB23-.LFB9338
	.uleb128 .LEHE23-.LEHB23
	.uleb128 0
	.uleb128 0
.LLSDACSE9338:
	.text
	.size	_ZN4asio6detail18completion_handlerINS0_17rewrapped_handlerINS0_7binder2INS0_15wrapped_handlerINS_10io_service6strandEZN7asiopal13SocketChannel13BeginReadImplEN7openpal6WSliceEEUlRKSt10error_codemE_NS0_26is_continuation_if_runningEEESB_mEESE_EEE11do_completeEPNS0_15task_io_serviceEPNS0_25task_io_service_operationESD_m, .-_ZN4asio6detail18completion_handlerINS0_17rewrapped_handlerINS0_7binder2INS0_15wrapped_handlerINS_10io_service6strandEZN7asiopal13SocketChannel13BeginReadImplEN7openpal6WSliceEEUlRKSt10error_codemE_NS0_26is_continuation_if_runningEEESB_mEESE_EEE11do_completeEPNS0_15task_io_serviceEPNS0_25task_io_service_operationESD_m
	.align	2
	.p2align 4,,11
	.type	_ZN4asio6detail23reactive_socket_recv_opINS_17mutable_buffers_1ENS0_15wrapped_handlerINS_10io_service6strandEZN7asiopal13SocketChannel13BeginReadImplEN7openpal6WSliceEEUlRKSt10error_codemE_NS0_26is_continuation_if_runningEEEE11do_completeEPNS0_15task_io_serviceEPNS0_25task_io_service_operationESC_m, %function
_ZN4asio6detail23reactive_socket_recv_opINS_17mutable_buffers_1ENS0_15wrapped_handlerINS_10io_service6strandEZN7asiopal13SocketChannel13BeginReadImplEN7openpal6WSliceEEUlRKSt10error_codemE_NS0_26is_continuation_if_runningEEEE11do_completeEPNS0_15task_io_serviceEPNS0_25task_io_service_operationESC_m:
.LFB8850:
	.cfi_startproc
	.cfi_personality 0x9b,DW.ref.__gxx_personality_v0
	.cfi_lsda 0x1b,.LLSDA8850
	sub	sp, sp, #528
	.cfi_def_cfa_offset 528
	adrp	x2, :got:__stack_chk_guard
	stp	x29, x30, [sp]
	.cfi_offset 29, -528
	.cfi_offset 30, -520
	mov	x29, sp
	ldr	x2, [x2, #:got_lo12:__stack_chk_guard]
	stp	x19, x20, [sp, 16]
	.cfi_offset 19, -512
	.cfi_offset 20, -504
	adrp	x20, :got:_ZN4asio6detail10call_stackINS0_15task_io_serviceENS0_27task_io_service_thread_infoEE4top_E
	mov	x19, x1
	stp	x21, x22, [sp, 32]
	.cfi_offset 21, -496
	.cfi_offset 22, -488
	mov	x21, x0
	ldr	x1, [x20, #:got_lo12:_ZN4asio6detail10call_stackINS0_15task_io_serviceENS0_27task_io_service_thread_infoEE4top_E]
	ldr	x3, [x2]
	str	x3, [sp, 520]
	mov	x3, 0
	ldp	x4, x5, [x19, 24]
	add	x3, sp, 544
	ldp	x6, x7, [x19, 88]
	str	xzr, [sp, 160]
	ldr	w0, [x1]
	add	x1, sp, 296
	stp	x1, x19, [sp, 144]
	ldr	x2, [x19, 40]
	stp	x6, x7, [x3, -248]
	ldr	x1, [x19, 104]
	str	x1, [sp, 312]
	stp	x4, x5, [sp, 320]
	str	x2, [sp, 336]
	bl	pthread_getspecific
	cbz	x0, .L1376
	ldr	x0, [x0, 8]
	cbz	x0, .L1376
	ldr	x1, [x0]
	cbz	x1, .L1522
.L1376:
	mov	x0, x19
	bl	_ZdlPv
.L1377:
	str	xzr, [sp, 152]
	cbz	x21, .L1375
	add	x21, sp, 112
	adrp	x22, :got:_ZN4asio6detail10call_stackINS0_14strand_service11strand_implEhE4top_E
	mov	x1, x21
	mov	w0, 1
	stp	x23, x24, [sp, 48]
	.cfi_offset 24, -472
	.cfi_offset 23, -480
	str	wzr, [sp, 112]
	bl	__aarch64_swp4_sync
	add	x1, sp, 544
	add	x6, sp, 544
	ldr	x0, [x22, #:got_lo12:_ZN4asio6detail10call_stackINS0_14strand_service11strand_implEhE4top_E]
	ldp	x4, x5, [x1, -248]
	stp	x4, x5, [sp, 352]
	ldr	w0, [x0]
	ldp	x2, x3, [sp, 320]
	stp	x2, x3, [x6, -168]
	ldr	x1, [sp, 312]
	stp	x2, x3, [x6, -56]
	ldr	x24, [sp, 336]
	str	x1, [sp, 344]
	str	x1, [sp, 368]
	str	x1, [sp, 456]
	stp	x4, x5, [sp, 464]
	str	x1, [sp, 480]
	str	x24, [sp, 504]
	ldp	x23, x19, [sp, 296]
	bl	pthread_getspecific
	cbnz	x0, .L1382
	b	.L1518
	.p2align 2,,3
.L1380:
	ldr	x0, [x0, 16]
	cbz	x0, .L1518
.L1382:
	ldr	x1, [x0]
	cmp	x19, x1
	bne	.L1380
	ldr	x0, [x0, 8]
	cbz	x0, .L1518
	add	x19, sp, 256
	mov	w0, 1
	mov	x1, x19
	str	wzr, [sp, 256]
	bl	__aarch64_swp4_sync
	ldr	w0, [sp, 488]
	add	x2, sp, 400
	ldr	x1, [sp, 480]
	str	x1, [sp, 192]
	str	w0, [sp, 200]
	ldp	x1, x0, [sp, 496]
	stp	x1, x0, [sp, 208]
	ldp	q0, q1, [sp, 192]
	add	x1, sp, 472
	ldr	x0, [sp, 464]
	stp	q0, q1, [x2]
.LEHB24:
	bl	_ZN4asio6detail14strand_service8dispatchINS0_7binder2IZN7asiopal13SocketChannel13BeginReadImplEN7openpal6WSliceEEUlRKSt10error_codemE_S8_mEEEEvRPNS1_11strand_implERT_
.LEHE24:
	stlr	wzr, [x19]
.L1383:
	stlr	wzr, [x21]
	ldp	x19, x0, [sp, 152]
	cbz	x0, .L1434
	str	xzr, [sp, 160]
.L1434:
	cbz	x19, .L1519
	ldr	x20, [x20, #:got_lo12:_ZN4asio6detail10call_stackINS0_15task_io_serviceENS0_27task_io_service_thread_infoEE4top_E]
	ldr	w0, [x20]
	bl	pthread_getspecific
	cbz	x0, .L1437
	ldr	x0, [x0, 8]
	cbz	x0, .L1437
	ldr	x1, [x0]
	cbz	x1, .L1523
.L1437:
	adrp	x0, :got:__stack_chk_guard
	ldr	x0, [x0, #:got_lo12:__stack_chk_guard]
	ldr	x2, [sp, 520]
	ldr	x1, [x0]
	subs	x2, x2, x1
	mov	x1, 0
	bne	.L1521
	mov	x0, x19
	ldp	x29, x30, [sp]
	ldp	x19, x20, [sp, 16]
	ldp	x21, x22, [sp, 32]
	ldp	x23, x24, [sp, 48]
	.cfi_remember_state
	.cfi_restore 24
	.cfi_restore 23
	add	sp, sp, 528
	.cfi_restore 29
	.cfi_restore 30
	.cfi_restore 21
	.cfi_restore 22
	.cfi_restore 19
	.cfi_restore 20
	.cfi_def_cfa_offset 0
	b	_ZdlPv
	.p2align 2,,3
.L1519:
	.cfi_restore_state
	ldp	x23, x24, [sp, 48]
	.cfi_restore 24
	.cfi_restore 23
.L1375:
	adrp	x0, :got:__stack_chk_guard
	ldr	x0, [x0, #:got_lo12:__stack_chk_guard]
	ldr	x2, [sp, 520]
	ldr	x1, [x0]
	subs	x2, x2, x1
	mov	x1, 0
	bne	.L1524
	ldp	x29, x30, [sp]
	ldp	x19, x20, [sp, 16]
	ldp	x21, x22, [sp, 32]
	add	sp, sp, 528
	.cfi_restore 29
	.cfi_restore 30
	.cfi_restore 21
	.cfi_restore 22
	.cfi_restore 19
	.cfi_restore 20
	.cfi_def_cfa_offset 0
	ret
	.p2align 2,,3
.L1518:
	.cfi_def_cfa_offset 528
	.cfi_offset 19, -512
	.cfi_offset 20, -504
	.cfi_offset 21, -496
	.cfi_offset 22, -488
	.cfi_offset 23, -480
	.cfi_offset 24, -472
	.cfi_offset 29, -528
	.cfi_offset 30, -520
	ldr	x0, [x20, #:got_lo12:_ZN4asio6detail10call_stackINS0_15task_io_serviceENS0_27task_io_service_thread_infoEE4top_E]
	stp	x25, x26, [sp, 64]
	.cfi_offset 26, -456
	.cfi_offset 25, -464
	ldr	w0, [x0]
	bl	pthread_getspecific
	cbz	x0, .L1384
	ldr	x0, [x0, 8]
	cbz	x0, .L1384
	ldr	x19, [x0]
	cbz	x19, .L1384
	str	xzr, [x0]
	ldrb	w0, [x19]
	cmp	w0, 79
	bls	.L1385
	strb	w0, [x19, 80]
	b	.L1386
	.p2align 2,,3
.L1385:
	mov	x0, x19
	bl	_ZdlPv
.L1384:
	mov	x0, 81
.LEHB25:
	bl	_Znwm
.LEHE25:
	mov	x19, x0
	mov	w1, 80
	strb	w1, [x0, 80]
.L1386:
	ldr	x0, [x20, #:got_lo12:_ZN4asio6detail10call_stackINS0_15task_io_serviceENS0_27task_io_service_thread_infoEE4top_E]
	add	x25, x19, 32
	adrp	x1, _ZN4asio6detail18completion_handlerINS0_17rewrapped_handlerINS0_7binder2INS0_15wrapped_handlerINS_10io_service6strandEZN7asiopal13SocketChannel13BeginReadImplEN7openpal6WSliceEEUlRKSt10error_codemE_NS0_26is_continuation_if_runningEEESB_mEESE_EEE11do_completeEPNS0_15task_io_serviceEPNS0_25task_io_service_operationESD_m
	add	x1, x1, :lo12:_ZN4asio6detail18completion_handlerINS0_17rewrapped_handlerINS0_7binder2INS0_15wrapped_handlerINS_10io_service6strandEZN7asiopal13SocketChannel13BeginReadImplEN7openpal6WSliceEEUlRKSt10error_codemE_NS0_26is_continuation_if_runningEEESB_mEESE_EEE11do_completeEPNS0_15task_io_serviceEPNS0_25task_io_service_operationESD_m
	ldr	x4, [sp, 456]
	str	wzr, [x19, 16]
	ldp	x2, x3, [sp, 464]
	str	x4, [x19, 24]
	ldr	w0, [x0]
	stp	xzr, x1, [x19]
	stp	x2, x3, [x19, 32]
	ldr	x1, [sp, 480]
	str	x1, [x25, 16]
	add	x1, sp, 544
	str	x24, [x25, 40]
	ldr	x24, [x23, 40]
	ldp	x2, x3, [x1, -56]
	stp	x2, x3, [x25, 24]
	bl	pthread_getspecific
	dup	v0.2d, x19
	str	q0, [sp, 80]
	cbnz	x0, .L1391
	b	.L1387
	.p2align 2,,3
.L1388:
	ldr	x0, [x0, 16]
	cbz	x0, .L1387
.L1391:
	ldr	x1, [x0]
	cmp	x24, x1
	bne	.L1388
	ldr	x24, [x0, 8]
	ldr	x0, [sp, 304]
	add	x0, x0, 24
	bl	pthread_mutex_lock
	cbz	x24, .L1390
	ldr	x1, [sp, 304]
	add	x0, x1, 24
	ldrb	w2, [x1, 72]
	cbz	w2, .L1525
.L1392:
	str	xzr, [x19]
	ldr	x4, [x1, 88]
	cbz	x4, .L1396
	str	x19, [x4]
	str	x19, [x1, 88]
.L1520:
	bl	pthread_mutex_unlock
	ldp	x25, x26, [sp, 64]
	.cfi_remember_state
	.cfi_restore 26
	.cfi_restore 25
	b	.L1383
.L1525:
	.cfi_restore_state
	mov	w2, 1
	strb	w2, [x1, 72]
	add	x26, sp, 400
	bl	pthread_mutex_unlock
	ldr	x24, [x22, #:got_lo12:_ZN4asio6detail10call_stackINS0_14strand_service11strand_implEhE4top_E]
	ldr	x0, [sp, 304]
	str	x0, [sp, 168]
	ldr	w0, [x24]
	bl	pthread_getspecific
	mov	x2, x0
	ldr	w0, [x24]
	add	x1, sp, 168
	stp	x1, x2, [sp, 176]
	bl	pthread_setspecific
	stp	x26, x19, [sp, 192]
	ldr	x0, [x20, #:got_lo12:_ZN4asio6detail10call_stackINS0_15task_io_serviceENS0_27task_io_service_thread_infoEE4top_E]
	str	xzr, [sp, 208]
	ldr	x5, [x19, 24]
	ldp	x2, x3, [x25, 24]
	ldp	x6, x7, [x19, 32]
	ldr	x4, [x25, 16]
	ldr	x23, [x23, 40]
	ldr	x1, [x25, 40]
	str	x5, [sp, 400]
	add	x5, sp, 544
	ldr	w0, [x0]
	ldr	x24, [sp, 304]
	stp	x23, x24, [sp, 128]
	stp	x6, x7, [x5, -136]
	str	x4, [sp, 424]
	stp	x2, x3, [sp, 432]
	str	x1, [sp, 448]
	bl	pthread_getspecific
	cbz	x0, .L1394
	ldr	x0, [x0, 8]
	cbz	x0, .L1394
	ldr	x1, [x0]
	cbz	x1, .L1526
.L1394:
	mov	x0, x19
	bl	_ZdlPv
.L1411:
	str	xzr, [sp, 200]
	cbz	x23, .L1527
	add	x19, sp, 120
	mov	w0, 1
	mov	x1, x19
	str	wzr, [sp, 120]
	bl	__aarch64_swp4_sync
	ldr	w0, [sp, 432]
	add	x2, sp, 256
	ldr	x1, [sp, 424]
	str	x1, [sp, 224]
	str	w0, [sp, 232]
	ldp	x1, x0, [sp, 440]
	stp	x1, x0, [sp, 240]
	ldp	q0, q1, [sp, 224]
	add	x1, sp, 416
	ldr	x0, [sp, 408]
	stp	q0, q1, [x2]
.LEHB26:
	bl	_ZN4asio6detail14strand_service8dispatchINS0_7binder2IZN7asiopal13SocketChannel13BeginReadImplEN7openpal6WSliceEEUlRKSt10error_codemE_S8_mEEEEvRPNS1_11strand_implERT_
.LEHE26:
	stlr	wzr, [x19]
	ldr	x24, [sp, 136]
	ldp	x19, x0, [sp, 200]
	dup	v0.2d, x24
	str	q0, [sp, 80]
	cbz	x0, .L1414
	str	xzr, [sp, 208]
.L1414:
	cbz	x19, .L1413
	ldr	x0, [x20, #:got_lo12:_ZN4asio6detail10call_stackINS0_15task_io_serviceENS0_27task_io_service_thread_infoEE4top_E]
	ldr	w0, [x0]
	bl	pthread_getspecific
	cbz	x0, .L1415
	ldr	x0, [x0, 8]
	cbz	x0, .L1415
	ldr	x1, [x0]
	cbz	x1, .L1528
.L1415:
	mov	x0, x19
	bl	_ZdlPv
.L1413:
	add	x23, x24, 24
	mov	x0, x23
	bl	pthread_mutex_lock
	ldr	x19, [x24, 80]
	cbz	x19, .L1529
	ldr	x1, [x24, 104]
	add	x0, x24, 96
	cbz	x1, .L1420
	str	x19, [x1]
	ldr	x19, [x24, 96]
.L1421:
	ldr	x1, [x24, 88]
	str	x1, [x0, 8]
	stp	xzr, xzr, [x24, 80]
.L1417:
	cmp	x19, 0
	cset	w0, ne
	strb	w0, [x24, 72]
	mov	x0, x23
	bl	pthread_mutex_unlock
	cbnz	x19, .L1530
.L1422:
	ldr	x22, [x22, #:got_lo12:_ZN4asio6detail10call_stackINS0_14strand_service11strand_implEhE4top_E]
	ldr	x1, [sp, 184]
	ldr	w0, [x22]
	bl	pthread_setspecific
	ldp	x25, x26, [sp, 64]
	.cfi_remember_state
	.cfi_restore 26
	.cfi_restore 25
	b	.L1383
	.p2align 2,,3
.L1387:
	.cfi_restore_state
	ldr	x0, [sp, 304]
	add	x0, x0, 24
	bl	pthread_mutex_lock
.L1390:
	ldr	x1, [sp, 304]
	add	x0, x1, 24
	ldrb	w2, [x1, 72]
	cbnz	w2, .L1392
	mov	w2, 1
	strb	w2, [x1, 72]
	bl	pthread_mutex_unlock
	ldr	x22, [sp, 304]
	dup	v0.2d, x22
	ldr	x1, [x22, 104]
	str	xzr, [x19]
	str	q0, [sp, 96]
	cbz	x1, .L1399
	str	x19, [x1]
	str	x19, [x22, 104]
.L1400:
	ldr	x19, [x23, 40]
	ldrb	w0, [x19, 40]
	cbnz	w0, .L1531
.L1401:
	add	x1, x19, 192
	add	x23, x19, 48
	mov	x0, 1
	bl	__aarch64_ldadd8_acq_rel
	mov	x0, x23
	bl	pthread_mutex_lock
	ldr	x1, [x19, 208]
	str	xzr, [x22]
	cbz	x1, .L1406
	str	x22, [x1]
	str	x22, [x19, 208]
.L1407:
	ldr	x0, [x19, 144]
	add	x22, x19, 96
	orr	x0, x0, 1
	str	x0, [x19, 144]
	cmp	x0, 1
	beq	.L1408
	mov	x0, x23
	bl	pthread_mutex_unlock
	mov	x0, x22
	bl	pthread_cond_signal
	ldp	x25, x26, [sp, 64]
	.cfi_remember_state
	.cfi_restore 26
	.cfi_restore 25
	b	.L1383
.L1408:
	.cfi_restore_state
	ldrb	w1, [x19, 184]
	cbnz	w1, .L1410
	ldr	x4, [x19, 152]
	cbz	x4, .L1410
	mov	w1, 9
	strb	w0, [x19, 184]
	ldr	w2, [x4, 96]
	add	x0, x4, 96
	movk	w1, 0x8000, lsl 16
	str	w1, [sp, 400]
	str	x0, [sp, 408]
	add	x3, sp, 400
	mov	w1, 3
	ldr	w0, [x4, 104]
	bl	epoll_ctl
.L1410:
	mov	x0, x23
	b	.L1520
	.p2align 2,,3
.L1522:
	.cfi_restore 23
	.cfi_restore 24
	.cfi_restore 25
	.cfi_restore 26
	ldrb	w1, [x19, 112]
	strb	w1, [x19]
	str	x19, [x0]
	b	.L1377
	.p2align 2,,3
.L1523:
	.cfi_offset 23, -480
	.cfi_offset 24, -472
	ldrb	w1, [x19, 112]
	strb	w1, [x19]
	ldp	x23, x24, [sp, 48]
	.cfi_restore 24
	.cfi_restore 23
	str	x19, [x0]
	b	.L1375
.L1396:
	.cfi_offset 23, -480
	.cfi_offset 24, -472
	.cfi_offset 25, -464
	.cfi_offset 26, -456
	ldr	q0, [sp, 80]
	str	q0, [x1, 80]
	b	.L1520
.L1530:
	ldr	x19, [sp, 128]
	ldrb	w0, [x19, 40]
	cbnz	w0, .L1532
.L1423:
	add	x1, x19, 192
	add	x25, x19, 48
	mov	x0, 1
	bl	__aarch64_ldadd8_acq_rel
	mov	x0, x25
	bl	pthread_mutex_lock
	ldr	x1, [x19, 208]
	str	xzr, [x24]
	cbz	x1, .L1428
	str	x24, [x1]
	str	x24, [x19, 208]
.L1429:
	ldr	x0, [x19, 144]
	add	x23, x19, 96
	orr	x0, x0, 1
	str	x0, [x19, 144]
	cmp	x0, 1
	beq	.L1430
	mov	x0, x25
	bl	pthread_mutex_unlock
	mov	x0, x23
	bl	pthread_cond_signal
	b	.L1422
.L1532:
	ldr	x0, [x20, #:got_lo12:_ZN4asio6detail10call_stackINS0_15task_io_serviceENS0_27task_io_service_thread_infoEE4top_E]
	ldr	w0, [x0]
	bl	pthread_getspecific
	cbnz	x0, .L1426
	b	.L1423
	.p2align 2,,3
.L1424:
	ldr	x0, [x0, 16]
	cbz	x0, .L1423
.L1426:
	ldr	x1, [x0]
	cmp	x19, x1
	bne	.L1424
	ldr	x0, [x0, 8]
	cbz	x0, .L1423
	ldp	x3, x1, [x0, 16]
	add	x1, x1, 1
	str	x1, [x0, 24]
	str	xzr, [x24]
	ldr	x1, [x0, 16]
	cbz	x3, .L1427
	str	x24, [x1]
	str	x24, [x0, 16]
	b	.L1422
.L1526:
	ldrb	w1, [x19, 80]
	strb	w1, [x19]
	str	x19, [x0]
	b	.L1411
.L1528:
	ldrb	w1, [x19, 80]
	strb	w1, [x19]
	str	x19, [x0]
	b	.L1413
.L1529:
	ldr	x19, [x24, 96]
	b	.L1417
.L1527:
	dup	v0.2d, x24
	str	q0, [sp, 80]
	b	.L1413
.L1420:
	str	x19, [x24, 96]
	b	.L1421
.L1430:
	ldrb	w1, [x19, 184]
	cbnz	w1, .L1432
	ldr	x4, [x19, 152]
	cbz	x4, .L1432
	mov	w1, 9
	strb	w0, [x19, 184]
	ldr	w2, [x4, 96]
	add	x0, x4, 96
	movk	w1, 0x8000, lsl 16
	str	w1, [sp, 400]
	str	x0, [sp, 408]
	mov	x3, x26
	mov	w1, 3
	ldr	w0, [x4, 104]
	bl	epoll_ctl
.L1432:
	mov	x0, x25
	bl	pthread_mutex_unlock
	b	.L1422
.L1531:
	ldr	x0, [x20, #:got_lo12:_ZN4asio6detail10call_stackINS0_15task_io_serviceENS0_27task_io_service_thread_infoEE4top_E]
	ldr	w0, [x0]
	bl	pthread_getspecific
	cbnz	x0, .L1404
	b	.L1401
	.p2align 2,,3
.L1402:
	ldr	x0, [x0, 16]
	cbz	x0, .L1401
.L1404:
	ldr	x1, [x0]
	cmp	x19, x1
	bne	.L1402
	ldr	x0, [x0, 8]
	cbz	x0, .L1401
	ldp	x3, x1, [x0, 16]
	add	x1, x1, 1
	str	x1, [x0, 24]
	str	xzr, [x22]
	ldr	x1, [x0, 16]
	cbz	x3, .L1405
	ldp	x25, x26, [sp, 64]
	.cfi_remember_state
	.cfi_restore 26
	.cfi_restore 25
	str	x22, [x1]
	str	x22, [x0, 16]
	b	.L1383
.L1399:
	.cfi_restore_state
	ldr	q0, [sp, 80]
	str	q0, [x22, 96]
	b	.L1400
.L1406:
	ldr	q0, [sp, 96]
	str	q0, [x19, 200]
	b	.L1407
.L1428:
	ldr	q0, [sp, 80]
	str	q0, [x19, 200]
	b	.L1429
.L1405:
	ldr	q0, [sp, 96]
	ldp	x25, x26, [sp, 64]
	.cfi_remember_state
	.cfi_restore 26
	.cfi_restore 25
	str	q0, [x0, 8]
	b	.L1383
.L1427:
	.cfi_restore_state
	ldr	q0, [sp, 80]
	str	q0, [x0, 8]
	b	.L1422
.L1524:
	.cfi_restore 23
	.cfi_restore 24
	.cfi_restore 25
	.cfi_restore 26
	stp	x23, x24, [sp, 48]
	.cfi_offset 24, -472
	.cfi_offset 23, -480
.L1521:
	stp	x25, x26, [sp, 64]
	.cfi_remember_state
	.cfi_offset 26, -456
	.cfi_offset 25, -464
	bl	__stack_chk_fail
.L1441:
	.cfi_restore_state
	stlr	wzr, [x19]
	mov	x20, x0
	stp	x25, x26, [sp, 64]
	.cfi_offset 26, -456
	.cfi_offset 25, -464
	b	.L1419
.L1440:
	mov	x20, x0
	b	.L1419
.L1442:
	mov	x20, x0
	stlr	wzr, [x19]
	add	x0, sp, 192
	bl	_ZN4asio6detail18completion_handlerINS0_17rewrapped_handlerINS0_7binder2INS0_15wrapped_handlerINS_10io_service6strandEZN7asiopal13SocketChannel13BeginReadImplEN7openpal6WSliceEEUlRKSt10error_codemE_NS0_26is_continuation_if_runningEEESB_mEESE_EEE3ptr5resetEv
	add	x0, sp, 128
	bl	_ZN4asio6detail14strand_service16on_dispatch_exitD1Ev
	ldr	x22, [x22, #:got_lo12:_ZN4asio6detail10call_stackINS0_14strand_service11strand_implEhE4top_E]
	ldr	x1, [sp, 184]
	ldr	w0, [x22]
	bl	pthread_setspecific
.L1419:
	stlr	wzr, [x21]
	add	x0, sp, 144
	bl	_ZN4asio6detail23reactive_socket_recv_opINS_17mutable_buffers_1ENS0_15wrapped_handlerINS_10io_service6strandEZN7asiopal13SocketChannel13BeginReadImplEN7openpal6WSliceEEUlRKSt10error_codemE_NS0_26is_continuation_if_runningEEEE3ptr5resetEv
	mov	x0, x20
.LEHB27:
	bl	_Unwind_Resume
.LEHE27:
	.cfi_endproc
.LFE8850:
	.section	.gcc_except_table
.LLSDA8850:
	.byte	0xff
	.byte	0xff
	.byte	0x1
	.uleb128 .LLSDACSE8850-.LLSDACSB8850
.LLSDACSB8850:
	.uleb128 .LEHB24-.LFB8850
	.uleb128 .LEHE24-.LEHB24
	.uleb128 .L1441-.LFB8850
	.uleb128 0
	.uleb128 .LEHB25-.LFB8850
	.uleb128 .LEHE25-.LEHB25
	.uleb128 .L1440-.LFB8850
	.uleb128 0
	.uleb128 .LEHB26-.LFB8850
	.uleb128 .LEHE26-.LEHB26
	.uleb128 .L1442-.LFB8850
	.uleb128 0
	.uleb128 .LEHB27-.LFB8850
	.uleb128 .LEHE27-.LEHB27
	.uleb128 0
	.uleb128 0
.LLSDACSE8850:
	.text
	.size	_ZN4asio6detail23reactive_socket_recv_opINS_17mutable_buffers_1ENS0_15wrapped_handlerINS_10io_service6strandEZN7asiopal13SocketChannel13BeginReadImplEN7openpal6WSliceEEUlRKSt10error_codemE_NS0_26is_continuation_if_runningEEEE11do_completeEPNS0_15task_io_serviceEPNS0_25task_io_service_operationESC_m, .-_ZN4asio6detail23reactive_socket_recv_opINS_17mutable_buffers_1ENS0_15wrapped_handlerINS_10io_service6strandEZN7asiopal13SocketChannel13BeginReadImplEN7openpal6WSliceEEUlRKSt10error_codemE_NS0_26is_continuation_if_runningEEEE11do_completeEPNS0_15task_io_serviceEPNS0_25task_io_service_operationESC_m
	.align	2
	.p2align 4,,11
	.type	_ZN4asio6detail8write_opINS_19basic_stream_socketINS_2ip3tcpENS_21stream_socket_serviceIS4_EEEENS_15const_buffers_1ENS0_14transfer_all_tENS0_15wrapped_handlerINS_10io_service6strandEZN7asiopal13SocketChannel14BeginWriteImplERKN7openpal6RSliceEEUlRKSt10error_codemE_NS0_26is_continuation_if_runningEEEEclESL_mi, %function
_ZN4asio6detail8write_opINS_19basic_stream_socketINS_2ip3tcpENS_21stream_socket_serviceIS4_EEEENS_15const_buffers_1ENS0_14transfer_all_tENS0_15wrapped_handlerINS_10io_service6strandEZN7asiopal13SocketChannel14BeginWriteImplERKN7openpal6RSliceEEUlRKSt10error_codemE_NS0_26is_continuation_if_runningEEEEclESL_mi:
.LFB8302:
	.cfi_startproc
	.cfi_personality 0x9b,DW.ref.__gxx_personality_v0
	.cfi_lsda 0x1b,.LLSDA8302
	stp	x29, x30, [sp, -320]!
	.cfi_def_cfa_offset 320
	.cfi_offset 29, -320
	.cfi_offset 30, -312
	adrp	x4, :got:__stack_chk_guard
	mov	x29, sp
	ldr	x4, [x4, #:got_lo12:__stack_chk_guard]
	stp	x19, x20, [sp, 16]
	.cfi_offset 19, -304
	.cfi_offset 20, -296
	mov	x19, x0
	stp	x21, x22, [sp, 32]
	stp	x23, x24, [sp, 48]
	stp	x25, x26, [sp, 64]
	ldr	x0, [x4]
	str	x0, [sp, 312]
	mov	x0, 0
	ldr	w4, [x1]
	str	w3, [x19, 24]
	ldr	x0, [x19, 32]
	cmp	w3, 1
	.cfi_offset 21, -288
	.cfi_offset 22, -280
	.cfi_offset 23, -272
	.cfi_offset 24, -264
	.cfi_offset 25, -256
	.cfi_offset 26, -248
	beq	.L1799
	add	x0, x0, x2
	str	x0, [x19, 32]
	cmp	x2, 0
	ccmp	w4, 0, 0, ne
	beq	.L1800
.L1606:
	adrp	x21, :got:_ZN4asio6detail10call_stackINS0_14strand_service11strand_implEhE4top_E
	str	w4, [sp, 184]
	ldr	x1, [x1, 8]
	stp	x1, x0, [sp, 192]
	add	x24, sp, 240
	ldr	x1, [x21, #:got_lo12:_ZN4asio6detail10call_stackINS0_14strand_service11strand_implEhE4top_E]
	ldr	x0, [x19, 56]
	str	x0, [sp, 176]
	ldr	w0, [x1]
	ldp	q0, q1, [sp, 176]
	ldp	x23, x20, [x19, 40]
	stp	q0, q1, [x24]
	bl	pthread_getspecific
	cbnz	x0, .L1611
	b	.L1608
	.p2align 2,,3
.L1609:
	ldr	x0, [x0, 16]
	cbz	x0, .L1608
.L1611:
	ldr	x1, [x0]
	cmp	x20, x1
	bne	.L1609
	ldr	x0, [x0, 8]
	cbz	x0, .L1608
	add	x24, sp, 208
	mov	w0, 1
	mov	x1, x24
	str	wzr, [sp, 208]
	bl	__aarch64_swp4_sync
	ldr	x1, [sp, 240]
	ldr	x2, [sp, 264]
	ldr	x0, [x1, 40]
	strb	wzr, [x1, 58]
	cbz	x0, .L1614
	ldrb	w1, [x1, 56]
	cbz	w1, .L1801
.L1614:
	stlr	wzr, [x24]
.L1533:
	adrp	x0, :got:__stack_chk_guard
	ldr	x0, [x0, #:got_lo12:__stack_chk_guard]
	ldr	x2, [sp, 312]
	ldr	x1, [x0]
	subs	x2, x2, x1
	mov	x1, 0
	bne	.L1802
	ldp	x19, x20, [sp, 16]
	ldp	x21, x22, [sp, 32]
	ldp	x23, x24, [sp, 48]
	ldp	x25, x26, [sp, 64]
	ldp	x29, x30, [sp], 320
	.cfi_remember_state
	.cfi_restore 30
	.cfi_restore 29
	.cfi_restore 25
	.cfi_restore 26
	.cfi_restore 23
	.cfi_restore 24
	.cfi_restore 21
	.cfi_restore 22
	.cfi_restore 19
	.cfi_restore 20
	.cfi_def_cfa_offset 0
	ret
	.p2align 2,,3
.L1799:
	.cfi_restore_state
	cmp	w4, 0
	stp	x27, x28, [sp, 80]
	.cfi_offset 28, -232
	.cfi_offset 27, -240
	cset	x21, eq
	ldr	x2, [x19, 16]
	lsl	x21, x21, 16
	ldr	x20, [x19]
	cmp	x2, x0
	bcc	.L1535
.L1665:
	ldr	x23, [x19, 8]
	sub	x2, x2, x0
	ldr	x25, [x20, 24]
	add	x23, x23, x0
	str	x0, [sp, 272]
	add	x0, sp, 512
	ldp	x6, x7, [x19, 8]
	str	x20, [sp, 240]
	stp	x6, x7, [sp, 248]
	cmp	x2, x21
	csel	x21, x2, x21, ls
	str	w3, [sp, 264]
	cmp	x21, 0
	ldp	x4, x5, [x19, 40]
	stp	x4, x5, [x0, -232]
	cset	w24, eq
	ldr	x1, [x19, 56]
	str	x1, [sp, 296]
	mov	w26, 1
	cbnz	w3, .L1663
.L1536:
	adrp	x22, :got:_ZN4asio6detail10call_stackINS0_15task_io_serviceENS0_27task_io_service_thread_infoEE4top_E
	add	x0, sp, 240
	str	x0, [sp, 208]
	ldr	x0, [x22, #:got_lo12:_ZN4asio6detail10call_stackINS0_15task_io_serviceENS0_27task_io_service_thread_infoEE4top_E]
	stp	xzr, xzr, [sp, 216]
	ldr	w0, [x0]
	bl	pthread_getspecific
	cbz	x0, .L1539
	ldr	x0, [x0, 8]
	cbz	x0, .L1539
	ldr	x19, [x0]
	cbz	x19, .L1539
	str	xzr, [x0]
	ldrb	w0, [x19]
	cmp	w0, 151
	bls	.L1540
	strb	w0, [x19, 152]
	b	.L1541
	.p2align 2,,3
.L1540:
	mov	x0, x19
	bl	_ZdlPv
.L1539:
	mov	x0, 153
.LEHB28:
	bl	_Znwm
.LEHE28:
	mov	x19, x0
	mov	w1, -104
	strb	w1, [x0, 152]
.L1541:
	ldr	w27, [x20]
	adrp	x0, _ZN4asio6detail23reactive_socket_send_opINS_15const_buffers_1ENS0_8write_opINS_19basic_stream_socketINS_2ip3tcpENS_21stream_socket_serviceIS6_EEEES2_NS0_14transfer_all_tENS0_15wrapped_handlerINS_10io_service6strandEZN7asiopal13SocketChannel14BeginWriteImplERKN7openpal6RSliceEEUlRKSt10error_codemE_NS0_26is_continuation_if_runningEEEEEE11do_completeEPNS0_15task_io_serviceEPNS0_25task_io_service_operationESM_m
	add	x0, x0, :lo12:_ZN4asio6detail23reactive_socket_send_opINS_15const_buffers_1ENS0_8write_opINS_19basic_stream_socketINS_2ip3tcpENS_21stream_socket_serviceIS6_EEEES2_NS0_14transfer_all_tENS0_15wrapped_handlerINS_10io_service6strandEZN7asiopal13SocketChannel14BeginWriteImplERKN7openpal6RSliceEEUlRKSt10error_codemE_NS0_26is_continuation_if_runningEEEEEE11do_completeEPNS0_15task_io_serviceEPNS0_25task_io_service_operationESM_m
	str	x19, [sp, 216]
	stp	xzr, x0, [x19]
	str	wzr, [x19, 16]
	str	wzr, [x19, 24]
	bl	_ZNSt3_V215system_categoryEv
	mov	x28, x0
	adrp	x2, :got:_ZN4asio6detail28reactive_socket_send_op_baseINS_15const_buffers_1EE10do_performEPNS0_10reactor_opE
	ldr	x3, [sp, 240]
	ldr	x2, [x2, #:got_lo12:_ZN4asio6detail28reactive_socket_send_op_baseINS_15const_buffers_1EE10do_performEPNS0_10reactor_opE]
	ldr	x0, [sp, 272]
	str	x2, [x19, 48]
	str	x3, [x19, 88]
	ldp	x2, x3, [sp, 248]
	stp	x2, x3, [x19, 96]
	ldr	w2, [sp, 264]
	str	x0, [x19, 120]
	add	x0, sp, 512
	stp	x28, xzr, [x19, 32]
	ldp	x0, x1, [x0, -232]
	stp	x0, x1, [x19, 128]
	ldr	x0, [sp, 296]
	str	w27, [x19, 56]
	stp	x23, x21, [x19, 64]
	str	wzr, [x19, 80]
	str	w2, [x19, 112]
	str	x0, [x19, 144]
	str	x19, [sp, 224]
	ldrb	w0, [x20, 4]
	tst	x0, 16
	ccmp	w24, 0, 4, ne
	bne	.L1542
	tst	x0, 3
	bne	.L1543
	cmn	w27, #1
	beq	.L1803
	bl	__errno_location
	mov	x21, x0
	mov	w3, 1
	adrp	x23, :got:_ZGVZN4asio15system_categoryEvE8instance
	mov	w0, w27
	add	x2, sp, 176
	str	wzr, [x21]
	mov	x1, 21537
	str	w3, [sp, 176]
	bl	ioctl
	ldr	w27, [x21]
	ldr	x23, [x23, #:got_lo12:_ZGVZN4asio15system_categoryEvE8instance]
	mov	w24, w0
	ldar	x0, [x23]
	adrp	x21, :got:_ZZN4asio15system_categoryEvE8instance
	tbz	x0, 0, .L1804
.L1549:
	ldr	x21, [x21, #:got_lo12:_ZZN4asio15system_categoryEvE8instance]
	str	w27, [x19, 24]
	str	x21, [x19, 32]
	tbnz	w24, #31, .L1542
	ldr	w27, [x20]
	str	wzr, [x19, 24]
	str	x28, [x19, 32]
	ldrb	w0, [x20, 4]
	orr	w0, w0, 2
	strb	w0, [x20, 4]
.L1543:
	ldr	x0, [x20, 8]
	ldr	x23, [x25, 40]
	cbz	x0, .L1805
	add	x21, x0, 40
	mov	x0, x21
	bl	pthread_mutex_lock
	ldr	x0, [x20, 8]
	ldrb	w1, [x0, 152]
	cbnz	w1, .L1806
	ldr	x1, [x0, 120]
	cbz	x1, .L1807
.L1579:
	ldr	x1, [x0, 128]
	str	xzr, [x19]
	dup	v0.2d, x19
	cbz	x1, .L1592
	str	x19, [x1]
	str	x19, [x0, 128]
.L1593:
	ldr	x1, [x23, 40]
	mov	x0, 1
	add	x1, x1, 192
	bl	__aarch64_ldadd8_acq_rel
	mov	x0, x21
	bl	pthread_mutex_unlock
	ldp	x27, x28, [sp, 80]
	.cfi_remember_state
	.cfi_restore 28
	.cfi_restore 27
	b	.L1533
.L1803:
	.cfi_restore_state
	adrp	x20, :got:_ZGVZN4asio15system_categoryEvE8instance
	ldr	x20, [x20, #:got_lo12:_ZGVZN4asio15system_categoryEvE8instance]
	ldar	x0, [x20]
	adrp	x21, :got:_ZZN4asio15system_categoryEvE8instance
	tbz	x0, 0, .L1808
.L1546:
	ldr	x21, [x21, #:got_lo12:_ZZN4asio15system_categoryEvE8instance]
	mov	w0, 9
	str	w0, [x19, 24]
	str	x21, [x19, 32]
	.p2align 3,,7
.L1542:
	ldr	x0, [x25, 40]
	dup	v0.2d, x19
	ldr	x20, [x0, 40]
	str	q0, [sp, 96]
	ldrb	w0, [x20, 40]
	orr	w0, w0, w26
	cbz	w0, .L1595
	ldr	x22, [x22, #:got_lo12:_ZN4asio6detail10call_stackINS0_15task_io_serviceENS0_27task_io_service_thread_infoEE4top_E]
	ldr	w0, [x22]
	bl	pthread_getspecific
	cbnz	x0, .L1598
	b	.L1595
	.p2align 2,,3
.L1596:
	ldr	x0, [x0, 16]
	cbz	x0, .L1595
.L1598:
	ldr	x1, [x0]
	cmp	x20, x1
	bne	.L1596
.L1798:
	ldr	x0, [x0, 8]
	cbz	x0, .L1595
	ldp	x3, x1, [x0, 16]
	add	x1, x1, 1
	str	x1, [x0, 24]
	str	xzr, [x19]
	ldr	x1, [x0, 16]
	cbz	x3, .L1599
	ldp	x27, x28, [sp, 80]
	.cfi_remember_state
	.cfi_restore 28
	.cfi_restore 27
	str	x19, [x1]
	str	x19, [x0, 16]
	b	.L1533
	.p2align 2,,3
.L1595:
	.cfi_restore_state
	add	x1, x20, 192
	add	x21, x20, 48
	mov	x0, 1
	bl	__aarch64_ldadd8_acq_rel
	mov	x0, x21
	bl	pthread_mutex_lock
	str	xzr, [x19]
	ldr	x1, [x20, 208]
	cbz	x1, .L1600
	str	x19, [x1]
	str	x19, [x20, 208]
.L1601:
	ldr	x0, [x20, 144]
	add	x19, x20, 96
	orr	x0, x0, 1
	str	x0, [x20, 144]
	cmp	x0, 1
	beq	.L1602
	mov	x0, x21
	bl	pthread_mutex_unlock
	mov	x0, x19
	bl	pthread_cond_signal
	ldp	x27, x28, [sp, 80]
	.cfi_restore 28
	.cfi_restore 27
	b	.L1533
	.p2align 2,,3
.L1800:
	ldr	x2, [x19, 16]
	cmp	x0, x2
	beq	.L1606
	stp	x27, x28, [sp, 80]
	.cfi_offset 28, -232
	.cfi_offset 27, -240
	mov	x21, 65536
	ldr	x20, [x19]
	bls	.L1665
	ldr	x25, [x20, 24]
	str	x0, [sp, 272]
	add	x0, sp, 512
	str	x20, [sp, 240]
	ldp	x4, x5, [x19, 8]
	stp	x4, x5, [sp, 248]
	mov	w24, 1
	str	wzr, [sp, 264]
	mov	w26, w24
	ldp	x2, x3, [x19, 40]
	stp	x2, x3, [x0, -232]
	mov	x21, 0
	ldr	x1, [x19, 56]
	mov	x23, 0
	str	x1, [sp, 296]
	b	.L1536
	.p2align 2,,3
.L1535:
	ldr	x25, [x20, 24]
	str	x0, [sp, 272]
	add	x0, sp, 512
	str	x20, [sp, 240]
	ldp	x6, x7, [x19, 8]
	stp	x6, x7, [sp, 248]
	mov	w24, w3
	str	w3, [sp, 264]
	mov	x21, 0
	ldp	x4, x5, [x19, 40]
	stp	x4, x5, [x0, -232]
	mov	x23, 0
	ldr	x1, [x19, 56]
	str	x1, [sp, 296]
.L1663:
	adrp	x0, :got:_ZN4asio6detail10call_stackINS0_14strand_service11strand_implEhE4top_E
	ldr	x19, [sp, 288]
	ldr	x0, [x0, #:got_lo12:_ZN4asio6detail10call_stackINS0_14strand_service11strand_implEhE4top_E]
	ldr	w0, [x0]
	bl	pthread_getspecific
	cbnz	x0, .L1538
	b	.L1668
	.p2align 2,,3
.L1537:
	ldr	x0, [x0, 16]
	cbz	x0, .L1668
.L1538:
	ldr	x1, [x0]
	cmp	x19, x1
	bne	.L1537
	ldr	x0, [x0, 8]
	cmp	x0, 0
	cset	w26, ne
	b	.L1536
	.p2align 2,,3
.L1801:
	.cfi_restore 27
	.cfi_restore 28
	ldr	x3, [x0]
	add	x1, sp, 248
	ldr	x3, [x3, 24]
.LEHB29:
	blr	x3
.LEHE29:
	b	.L1614
	.p2align 2,,3
.L1600:
	.cfi_offset 27, -240
	.cfi_offset 28, -232
	ldr	q0, [sp, 96]
	str	q0, [x20, 200]
	b	.L1601
	.p2align 2,,3
.L1608:
	.cfi_restore 27
	.cfi_restore 28
	adrp	x22, :got:_ZN4asio6detail10call_stackINS0_15task_io_serviceENS0_27task_io_service_thread_infoEE4top_E
	ldr	x0, [x22, #:got_lo12:_ZN4asio6detail10call_stackINS0_15task_io_serviceENS0_27task_io_service_thread_infoEE4top_E]
	ldr	w0, [x0]
	bl	pthread_getspecific
	cbz	x0, .L1615
	ldr	x0, [x0, 8]
	cbz	x0, .L1615
	ldr	x20, [x0]
	cbz	x20, .L1615
	str	xzr, [x0]
	ldrb	w0, [x20]
	cmp	w0, 55
	bls	.L1616
	strb	w0, [x20, 56]
	b	.L1617
	.p2align 2,,3
.L1602:
	.cfi_offset 27, -240
	.cfi_offset 28, -232
	ldrb	w1, [x20, 184]
	cbnz	w1, .L1573
	ldr	x4, [x20, 152]
	cbz	x4, .L1573
	mov	w1, 9
	strb	w0, [x20, 184]
	movk	w1, 0x8000, lsl 16
	add	x0, x4, 96
	str	w1, [sp, 176]
	add	x3, sp, 176
	str	x0, [sp, 184]
	mov	w1, 3
	ldr	w2, [x4, 96]
	ldr	w0, [x4, 104]
	bl	epoll_ctl
.L1573:
	mov	x0, x21
	bl	pthread_mutex_unlock
	ldp	x27, x28, [sp, 80]
	.cfi_restore 28
	.cfi_restore 27
	b	.L1533
.L1616:
	mov	x0, x20
	bl	_ZdlPv
.L1615:
	mov	x0, 57
.LEHB30:
	bl	_Znwm
.LEHE30:
	mov	x20, x0
	mov	w1, 56
	strb	w1, [x0, 56]
.L1617:
	ldr	x0, [x22, #:got_lo12:_ZN4asio6detail10call_stackINS0_15task_io_serviceENS0_27task_io_service_thread_infoEE4top_E]
	add	x25, x20, 24
	ldp	q0, q1, [x24]
	adrp	x1, _ZN4asio6detail18completion_handlerINS0_7binder2IZN7asiopal13SocketChannel14BeginWriteImplERKN7openpal6RSliceEEUlRKSt10error_codemE_S9_mEEE11do_completeEPNS0_15task_io_serviceEPNS0_25task_io_service_operationESB_m
	ldr	w0, [x0]
	add	x1, x1, :lo12:_ZN4asio6detail18completion_handlerINS0_7binder2IZN7asiopal13SocketChannel14BeginWriteImplERKN7openpal6RSliceEEUlRKSt10error_codemE_S9_mEEE11do_completeEPNS0_15task_io_serviceEPNS0_25task_io_service_operationESB_m
	ldr	x24, [x23, 40]
	stp	xzr, x1, [x20]
	str	wzr, [x20, 16]
	stp	q0, q1, [x25]
	bl	pthread_getspecific
	dup	v0.2d, x20
	str	q0, [sp, 96]
	cbnz	x0, .L1622
	b	.L1618
	.p2align 2,,3
.L1619:
	ldr	x0, [x0, 16]
	cbz	x0, .L1618
.L1622:
	ldr	x1, [x0]
	cmp	x24, x1
	bne	.L1619
	ldr	x24, [x0, 8]
	ldr	x0, [x19, 48]
	add	x0, x0, 24
	bl	pthread_mutex_lock
	cbz	x24, .L1621
	ldr	x1, [x19, 48]
	add	x0, x1, 24
	ldrb	w2, [x1, 72]
	cbz	w2, .L1809
.L1623:
	str	xzr, [x20]
	ldr	x4, [x1, 88]
	cbz	x4, .L1627
	str	x20, [x4]
	str	x20, [x1, 88]
	bl	pthread_mutex_unlock
	b	.L1533
.L1809:
	mov	w2, 1
	strb	w2, [x1, 72]
	add	x24, sp, 208
	bl	pthread_mutex_unlock
	ldr	x26, [x21, #:got_lo12:_ZN4asio6detail10call_stackINS0_14strand_service11strand_implEhE4top_E]
	ldr	x0, [x19, 48]
	str	x0, [sp, 152]
	ldr	w0, [x26]
	bl	pthread_getspecific
	mov	x2, x0
	ldr	w0, [x26]
	add	x1, sp, 152
	stp	x1, x2, [sp, 160]
	bl	pthread_setspecific
	ldr	x0, [x22, #:got_lo12:_ZN4asio6detail10call_stackINS0_15task_io_serviceENS0_27task_io_service_thread_infoEE4top_E]
	ldp	q0, q1, [x25]
	ldr	w0, [x0]
	ldr	x23, [x23, 40]
	stp	q0, q1, [x24]
	ldr	x19, [x19, 48]
	stp	x23, x19, [sp, 136]
	bl	pthread_getspecific
	cbz	x0, .L1625
	ldr	x0, [x0, 8]
	cbz	x0, .L1625
	ldr	x1, [x0]
	cbz	x1, .L1810
.L1625:
	mov	x0, x20
	bl	_ZdlPv
.L1642:
	cbz	x23, .L1643
	add	x19, sp, 128
	mov	w0, 1
	mov	x1, x19
	str	wzr, [sp, 128]
	bl	__aarch64_swp4_sync
	ldr	x1, [sp, 208]
	ldr	x2, [sp, 232]
	ldr	x0, [x1, 40]
	strb	wzr, [x1, 58]
	cbz	x0, .L1645
	ldrb	w1, [x1, 56]
	cbnz	w1, .L1645
	ldr	x3, [x0]
	add	x1, sp, 216
	ldr	x3, [x3, 24]
.LEHB31:
	blr	x3
.LEHE31:
.L1645:
	stlr	wzr, [x19]
	ldr	x19, [sp, 144]
.L1643:
	add	x23, x19, 24
	mov	x0, x23
	bl	pthread_mutex_lock
	dup	v0.2d, x19
	ldr	x20, [x19, 80]
	str	q0, [sp, 96]
	cbz	x20, .L1811
	ldr	x1, [x19, 104]
	add	x0, x19, 96
	cbz	x1, .L1649
	str	x20, [x1]
	ldr	x20, [x19, 96]
.L1650:
	ldr	x1, [x19, 88]
	str	x1, [x0, 8]
	stp	xzr, xzr, [x19, 80]
.L1647:
	cmp	x20, 0
	cset	w0, ne
	strb	w0, [x19, 72]
	mov	x0, x23
	bl	pthread_mutex_unlock
	cbnz	x20, .L1812
.L1651:
	ldr	x21, [x21, #:got_lo12:_ZN4asio6detail10call_stackINS0_14strand_service11strand_implEhE4top_E]
	ldr	x1, [sp, 168]
	ldr	w0, [x21]
	bl	pthread_setspecific
	b	.L1533
	.p2align 2,,3
.L1668:
	.cfi_offset 27, -240
	.cfi_offset 28, -232
	mov	w26, 0
	b	.L1536
	.p2align 2,,3
.L1804:
	mov	x0, x23
	adrp	x21, :got:_ZZN4asio15system_categoryEvE8instance
	bl	__cxa_guard_acquire
	cbz	w0, .L1549
	adrp	x0, :got:_ZN4asio6detail15system_categoryD1Ev
	adrp	x2, __dso_handle
	ldr	x1, [x21, #:got_lo12:_ZZN4asio15system_categoryEvE8instance]
	add	x2, x2, :lo12:__dso_handle
	ldr	x0, [x0, #:got_lo12:_ZN4asio6detail15system_categoryD1Ev]
	bl	__cxa_atexit
	mov	x0, x23
	bl	__cxa_guard_release
	b	.L1549
	.p2align 2,,3
.L1618:
	.cfi_restore 27
	.cfi_restore 28
	ldr	x0, [x19, 48]
	add	x0, x0, 24
	bl	pthread_mutex_lock
.L1621:
	ldr	x1, [x19, 48]
	add	x0, x1, 24
	ldrb	w2, [x1, 72]
	cbnz	w2, .L1623
	mov	w2, 1
	strb	w2, [x1, 72]
	bl	pthread_mutex_unlock
	ldr	x21, [x19, 48]
	dup	v0.2d, x21
	ldr	x1, [x21, 104]
	str	xzr, [x20]
	str	q0, [sp, 112]
	cbz	x1, .L1630
	str	x20, [x1]
	str	x20, [x21, 104]
.L1631:
	ldr	x19, [x23, 40]
	ldrb	w0, [x19, 40]
	cbnz	w0, .L1813
.L1632:
	add	x1, x19, 192
	add	x22, x19, 48
	mov	x0, 1
	bl	__aarch64_ldadd8_acq_rel
	mov	x0, x22
	bl	pthread_mutex_lock
	ldr	x1, [x19, 208]
	str	xzr, [x21]
	cbz	x1, .L1637
	str	x21, [x1]
	str	x21, [x19, 208]
.L1638:
	ldr	x0, [x19, 144]
	add	x20, x19, 96
	orr	x0, x0, 1
	str	x0, [x19, 144]
	cmp	x0, 1
	beq	.L1639
	mov	x0, x22
	bl	pthread_mutex_unlock
	mov	x0, x20
	bl	pthread_cond_signal
	b	.L1533
.L1599:
	.cfi_offset 27, -240
	.cfi_offset 28, -232
	ldr	q0, [sp, 96]
	ldp	x27, x28, [sp, 80]
	.cfi_remember_state
	.cfi_restore 28
	.cfi_restore 27
	str	q0, [x0, 8]
	b	.L1533
.L1807:
	.cfi_restore_state
	ldr	x1, [x19, 48]
	mov	x0, x19
.LEHB32:
	blr	x1
.LEHE32:
	tst	w0, 255
	bne	.L1814
	ldr	x0, [x20, 8]
	ldr	w1, [x0, 100]
	tbnz	x1, 2, .L1579
	orr	w1, w1, 4
	str	w1, [sp, 176]
	str	x0, [sp, 184]
	mov	w2, w27
	add	x3, sp, 176
	mov	w1, 3
	ldr	w0, [x23, 104]
	bl	epoll_ctl
	cbnz	w0, .L1591
	ldr	x2, [x20, 8]
	ldr	w3, [sp, 176]
	mov	x0, x2
	ldr	w1, [x2, 100]
	orr	w1, w1, w3
	str	w1, [x2, 100]
	b	.L1579
.L1805:
	dup	v0.2d, x19
	adrp	x20, :got:_ZGVZN4asio15system_categoryEvE8instance
	ldr	x20, [x20, #:got_lo12:_ZGVZN4asio15system_categoryEvE8instance]
	str	q0, [sp, 96]
	ldar	x0, [x20]
	adrp	x21, :got:_ZZN4asio15system_categoryEvE8instance
	tbz	x0, 0, .L1815
.L1554:
	ldr	x20, [x23, 40]
	mov	w0, 9
	ldr	x21, [x21, #:got_lo12:_ZZN4asio15system_categoryEvE8instance]
	str	w0, [x19, 24]
	ldrb	w0, [x20, 40]
	str	x21, [x19, 32]
	orr	w0, w0, w26
	cbz	w0, .L1595
	ldr	x22, [x22, #:got_lo12:_ZN4asio6detail10call_stackINS0_15task_io_serviceENS0_27task_io_service_thread_infoEE4top_E]
	ldr	w0, [x22]
	bl	pthread_getspecific
	cbnz	x0, .L1559
	b	.L1595
	.p2align 2,,3
.L1557:
	ldr	x0, [x0, 16]
	cbz	x0, .L1595
.L1559:
	ldr	x1, [x0]
	cmp	x20, x1
	bne	.L1557
	b	.L1798
.L1592:
	str	q0, [x0, 120]
	b	.L1593
.L1806:
	ldr	x20, [x23, 40]
	dup	v0.2d, x19
	ldrb	w0, [x20, 40]
	str	q0, [sp, 96]
	orr	w0, w0, w26
	cbz	w0, .L1568
	ldr	x22, [x22, #:got_lo12:_ZN4asio6detail10call_stackINS0_15task_io_serviceENS0_27task_io_service_thread_infoEE4top_E]
	ldr	w0, [x22]
	bl	pthread_getspecific
	cbnz	x0, .L1571
	b	.L1568
	.p2align 2,,3
.L1569:
	ldr	x0, [x0, 16]
	cbz	x0, .L1568
.L1571:
	ldr	x1, [x0]
	cmp	x20, x1
	bne	.L1569
	ldr	x0, [x0, 8]
	cbz	x0, .L1568
	ldp	x3, x1, [x0, 16]
	add	x1, x1, 1
	str	x1, [x0, 24]
	str	xzr, [x19]
	ldr	x1, [x0, 16]
	cbz	x3, .L1572
	str	x19, [x1]
	str	x19, [x0, 16]
	b	.L1573
.L1639:
	.cfi_restore 27
	.cfi_restore 28
	ldrb	w1, [x19, 184]
	cbnz	w1, .L1641
	ldr	x4, [x19, 152]
	cbz	x4, .L1641
	mov	w1, 9
	strb	w0, [x19, 184]
	ldr	w2, [x4, 96]
	add	x0, x4, 96
	movk	w1, 0x8000, lsl 16
	str	w1, [sp, 208]
	str	x0, [sp, 216]
	add	x3, sp, 208
	mov	w1, 3
	ldr	w0, [x4, 104]
	bl	epoll_ctl
.L1641:
	mov	x0, x22
	bl	pthread_mutex_unlock
	b	.L1533
.L1627:
	ldr	q0, [sp, 96]
	str	q0, [x1, 80]
	bl	pthread_mutex_unlock
	b	.L1533
.L1812:
	ldr	x20, [sp, 136]
	ldrb	w0, [x20, 40]
	cbnz	w0, .L1816
.L1652:
	add	x1, x20, 192
	add	x22, x20, 48
	mov	x0, 1
	bl	__aarch64_ldadd8_acq_rel
	mov	x0, x22
	bl	pthread_mutex_lock
	ldr	x1, [x20, 208]
	str	xzr, [x19]
	cbz	x1, .L1657
	str	x19, [x1]
	str	x19, [x20, 208]
.L1658:
	ldr	x0, [x20, 144]
	add	x19, x20, 96
	orr	x0, x0, 1
	str	x0, [x20, 144]
	cmp	x0, 1
	beq	.L1659
	mov	x0, x22
	bl	pthread_mutex_unlock
	mov	x0, x19
	bl	pthread_cond_signal
	b	.L1651
.L1811:
	ldr	x20, [x19, 96]
	b	.L1647
.L1568:
	.cfi_offset 27, -240
	.cfi_offset 28, -232
	add	x1, x20, 192
	add	x22, x20, 48
	mov	x0, 1
	bl	__aarch64_ldadd8_acq_rel
	mov	x0, x22
	bl	pthread_mutex_lock
	ldr	x1, [x20, 208]
	str	xzr, [x19]
	cbz	x1, .L1574
	str	x19, [x1]
	str	x19, [x20, 208]
.L1575:
	ldr	x0, [x20, 144]
	add	x19, x20, 96
	orr	x0, x0, 1
	str	x0, [x20, 144]
	cmp	x0, 1
	beq	.L1576
	mov	x0, x22
	bl	pthread_mutex_unlock
	mov	x0, x19
	bl	pthread_cond_signal
	b	.L1573
.L1649:
	.cfi_restore 27
	.cfi_restore 28
	str	x20, [x19, 96]
	b	.L1650
.L1659:
	ldrb	w1, [x20, 184]
	cbnz	w1, .L1661
	ldr	x4, [x20, 152]
	cbz	x4, .L1661
	mov	w1, 9
	strb	w0, [x20, 184]
	ldr	w2, [x4, 96]
	add	x0, x4, 96
	movk	w1, 0x8000, lsl 16
	str	w1, [sp, 208]
	str	x0, [sp, 216]
	mov	x3, x24
	mov	w1, 3
	ldr	w0, [x4, 104]
	bl	epoll_ctl
.L1661:
	mov	x0, x22
	bl	pthread_mutex_unlock
	b	.L1651
.L1813:
	ldr	x22, [x22, #:got_lo12:_ZN4asio6detail10call_stackINS0_15task_io_serviceENS0_27task_io_service_thread_infoEE4top_E]
	ldr	w0, [x22]
	bl	pthread_getspecific
	cbnz	x0, .L1635
	b	.L1632
	.p2align 2,,3
.L1633:
	ldr	x0, [x0, 16]
	cbz	x0, .L1632
.L1635:
	ldr	x1, [x0]
	cmp	x19, x1
	bne	.L1633
	ldr	x0, [x0, 8]
	cbz	x0, .L1632
	ldp	x3, x1, [x0, 16]
	add	x1, x1, 1
	str	x1, [x0, 24]
	str	xzr, [x21]
	ldr	x1, [x0, 16]
	cbz	x3, .L1636
	str	x21, [x1]
	str	x21, [x0, 16]
	b	.L1533
.L1630:
	ldr	q0, [sp, 96]
	str	q0, [x21, 96]
	b	.L1631
.L1576:
	.cfi_offset 27, -240
	.cfi_offset 28, -232
	ldrb	w1, [x20, 184]
	cbnz	w1, .L1578
	ldr	x4, [x20, 152]
	cbz	x4, .L1578
	mov	w1, 9
	strb	w0, [x20, 184]
	ldr	w2, [x4, 96]
	add	x0, x4, 96
	movk	w1, 0x8000, lsl 16
	str	w1, [sp, 176]
	str	x0, [sp, 184]
	add	x3, sp, 176
	mov	w1, 3
	ldr	w0, [x4, 104]
	bl	epoll_ctl
.L1578:
	mov	x0, x22
	bl	pthread_mutex_unlock
	b	.L1573
.L1637:
	.cfi_restore 27
	.cfi_restore 28
	ldr	q0, [sp, 112]
	str	q0, [x19, 200]
	b	.L1638
.L1815:
	.cfi_offset 27, -240
	.cfi_offset 28, -232
	mov	x0, x20
	adrp	x21, :got:_ZZN4asio15system_categoryEvE8instance
	bl	__cxa_guard_acquire
	cbz	w0, .L1554
	adrp	x0, :got:_ZN4asio6detail15system_categoryD1Ev
	adrp	x2, __dso_handle
	ldr	x1, [x21, #:got_lo12:_ZZN4asio15system_categoryEvE8instance]
	add	x2, x2, :lo12:__dso_handle
	ldr	x0, [x0, #:got_lo12:_ZN4asio6detail15system_categoryD1Ev]
	bl	__cxa_atexit
	mov	x0, x20
	bl	__cxa_guard_release
	b	.L1554
.L1816:
	.cfi_restore 27
	.cfi_restore 28
	ldr	x22, [x22, #:got_lo12:_ZN4asio6detail10call_stackINS0_15task_io_serviceENS0_27task_io_service_thread_infoEE4top_E]
	ldr	w0, [x22]
	bl	pthread_getspecific
	cbnz	x0, .L1655
	b	.L1652
	.p2align 2,,3
.L1653:
	ldr	x0, [x0, 16]
	cbz	x0, .L1652
.L1655:
	ldr	x1, [x0]
	cmp	x20, x1
	bne	.L1653
	ldr	x0, [x0, 8]
	cbz	x0, .L1652
	ldp	x3, x1, [x0, 16]
	add	x1, x1, 1
	str	x1, [x0, 24]
	str	xzr, [x19]
	ldr	x1, [x0, 16]
	cbz	x3, .L1656
	str	x19, [x1]
	str	x19, [x0, 16]
	b	.L1651
.L1808:
	.cfi_offset 27, -240
	.cfi_offset 28, -232
	mov	x0, x20
	adrp	x21, :got:_ZZN4asio15system_categoryEvE8instance
	bl	__cxa_guard_acquire
	cbz	w0, .L1546
	adrp	x0, :got:_ZN4asio6detail15system_categoryD1Ev
	adrp	x2, __dso_handle
	ldr	x1, [x21, #:got_lo12:_ZZN4asio15system_categoryEvE8instance]
	add	x2, x2, :lo12:__dso_handle
	ldr	x0, [x0, #:got_lo12:_ZN4asio6detail15system_categoryD1Ev]
	bl	__cxa_atexit
	mov	x0, x20
	bl	__cxa_guard_release
	b	.L1546
.L1814:
	mov	x0, x21
	bl	pthread_mutex_unlock
	ldr	x20, [x23, 40]
	dup	v0.2d, x19
	ldrb	w0, [x20, 40]
	str	q0, [sp, 96]
	orr	w0, w0, w26
	cbz	w0, .L1595
	ldr	x22, [x22, #:got_lo12:_ZN4asio6detail10call_stackINS0_15task_io_serviceENS0_27task_io_service_thread_infoEE4top_E]
	ldr	w0, [x22]
	bl	pthread_getspecific
	cbnz	x0, .L1584
	b	.L1595
	.p2align 2,,3
.L1582:
	ldr	x0, [x0, 16]
	cbz	x0, .L1595
.L1584:
	ldr	x1, [x0]
	cmp	x20, x1
	bne	.L1582
	b	.L1798
.L1657:
	.cfi_restore 27
	.cfi_restore 28
	ldr	q0, [sp, 96]
	str	q0, [x20, 200]
	b	.L1658
.L1574:
	.cfi_offset 27, -240
	.cfi_offset 28, -232
	ldr	q0, [sp, 96]
	str	q0, [x20, 200]
	b	.L1575
.L1810:
	.cfi_restore 27
	.cfi_restore 28
	ldrb	w1, [x20, 56]
	strb	w1, [x20]
	str	x20, [x0]
	b	.L1642
.L1572:
	.cfi_offset 27, -240
	.cfi_offset 28, -232
	ldr	q0, [sp, 96]
	str	q0, [x0, 8]
	b	.L1573
.L1636:
	.cfi_restore 27
	.cfi_restore 28
	ldr	q0, [sp, 112]
	str	q0, [x0, 8]
	b	.L1533
.L1591:
	.cfi_offset 27, -240
	.cfi_offset 28, -232
	bl	__errno_location
	ldr	w20, [x0]
	bl	_ZN4asio15system_categoryEv
	mov	x1, x0
	ldr	x0, [x23, 40]
	str	w20, [x19, 24]
	str	x1, [x19, 32]
	mov	w2, w26
	mov	x1, x19
	bl	_ZN4asio6detail15task_io_service25post_immediate_completionEPNS0_25task_io_service_operationEb
	b	.L1573
.L1656:
	.cfi_restore 27
	.cfi_restore 28
	ldr	q0, [sp, 96]
	str	q0, [x0, 8]
	b	.L1651
.L1802:
	stp	x27, x28, [sp, 80]
	.cfi_remember_state
	.cfi_offset 28, -232
	.cfi_offset 27, -240
	bl	__stack_chk_fail
.L1671:
	.cfi_restore_state
	mov	x20, x0
	stp	x27, x28, [sp, 80]
	.cfi_offset 28, -232
	.cfi_offset 27, -240
	stlr	wzr, [x19]
	add	x0, sp, 136
	bl	_ZN4asio6detail14strand_service16on_dispatch_exitD1Ev
	ldr	x21, [x21, #:got_lo12:_ZN4asio6detail10call_stackINS0_14strand_service11strand_implEhE4top_E]
	ldr	x1, [sp, 168]
	ldr	w0, [x21]
	bl	pthread_setspecific
	mov	x0, x20
.LEHB33:
	bl	_Unwind_Resume
.L1669:
	mov	x19, x0
	mov	x0, x21
	bl	pthread_mutex_unlock
	add	x0, sp, 208
	bl	_ZN4asio6detail23reactive_socket_send_opINS_15const_buffers_1ENS0_8write_opINS_19basic_stream_socketINS_2ip3tcpENS_21stream_socket_serviceIS6_EEEES2_NS0_14transfer_all_tENS0_15wrapped_handlerINS_10io_service6strandEZN7asiopal13SocketChannel14BeginWriteImplERKN7openpal6RSliceEEUlRKSt10error_codemE_NS0_26is_continuation_if_runningEEEEEE3ptr5resetEv
	mov	x0, x19
	bl	_Unwind_Resume
.L1670:
	.cfi_restore 27
	.cfi_restore 28
	stp	x27, x28, [sp, 80]
	.cfi_offset 28, -232
	.cfi_offset 27, -240
	stlr	wzr, [x24]
	bl	_Unwind_Resume
.LEHE33:
	.cfi_endproc
.LFE8302:
	.section	.gcc_except_table
.LLSDA8302:
	.byte	0xff
	.byte	0xff
	.byte	0x1
	.uleb128 .LLSDACSE8302-.LLSDACSB8302
.LLSDACSB8302:
	.uleb128 .LEHB28-.LFB8302
	.uleb128 .LEHE28-.LEHB28
	.uleb128 0
	.uleb128 0
	.uleb128 .LEHB29-.LFB8302
	.uleb128 .LEHE29-.LEHB29
	.uleb128 .L1670-.LFB8302
	.uleb128 0
	.uleb128 .LEHB30-.LFB8302
	.uleb128 .LEHE30-.LEHB30
	.uleb128 0
	.uleb128 0
	.uleb128 .LEHB31-.LFB8302
	.uleb128 .LEHE31-.LEHB31
	.uleb128 .L1671-.LFB8302
	.uleb128 0
	.uleb128 .LEHB32-.LFB8302
	.uleb128 .LEHE32-.LEHB32
	.uleb128 .L1669-.LFB8302
	.uleb128 0
	.uleb128 .LEHB33-.LFB8302
	.uleb128 .LEHE33-.LEHB33
	.uleb128 0
	.uleb128 0
.LLSDACSE8302:
	.text
	.size	_ZN4asio6detail8write_opINS_19basic_stream_socketINS_2ip3tcpENS_21stream_socket_serviceIS4_EEEENS_15const_buffers_1ENS0_14transfer_all_tENS0_15wrapped_handlerINS_10io_service6strandEZN7asiopal13SocketChannel14BeginWriteImplERKN7openpal6RSliceEEUlRKSt10error_codemE_NS0_26is_continuation_if_runningEEEEclESL_mi, .-_ZN4asio6detail8write_opINS_19basic_stream_socketINS_2ip3tcpENS_21stream_socket_serviceIS4_EEEENS_15const_buffers_1ENS0_14transfer_all_tENS0_15wrapped_handlerINS_10io_service6strandEZN7asiopal13SocketChannel14BeginWriteImplERKN7openpal6RSliceEEUlRKSt10error_codemE_NS0_26is_continuation_if_runningEEEEclESL_mi
	.align	2
	.p2align 4,,11
	.type	_ZN4asio6detail18completion_handlerINS0_17rewrapped_handlerINS0_7binder2INS0_8write_opINS_19basic_stream_socketINS_2ip3tcpENS_21stream_socket_serviceIS7_EEEENS_15const_buffers_1ENS0_14transfer_all_tENS0_15wrapped_handlerINS_10io_service6strandEZN7asiopal13SocketChannel14BeginWriteImplERKN7openpal6RSliceEEUlRKSt10error_codemE_NS0_26is_continuation_if_runningEEEEESM_mEESP_EEE11do_completeEPNS0_15task_io_serviceEPNS0_25task_io_service_operationESO_m, %function
_ZN4asio6detail18completion_handlerINS0_17rewrapped_handlerINS0_7binder2INS0_8write_opINS_19basic_stream_socketINS_2ip3tcpENS_21stream_socket_serviceIS7_EEEENS_15const_buffers_1ENS0_14transfer_all_tENS0_15wrapped_handlerINS_10io_service6strandEZN7asiopal13SocketChannel14BeginWriteImplERKN7openpal6RSliceEEUlRKSt10error_codemE_NS0_26is_continuation_if_runningEEEEESM_mEESP_EEE11do_completeEPNS0_15task_io_serviceEPNS0_25task_io_service_operationESO_m:
.LFB9392:
	.cfi_startproc
	.cfi_personality 0x9b,DW.ref.__gxx_personality_v0
	.cfi_lsda 0x1b,.LLSDA9392
	stp	x29, x30, [sp, -192]!
	.cfi_def_cfa_offset 192
	.cfi_offset 29, -192
	.cfi_offset 30, -184
	adrp	x2, :got:__stack_chk_guard
	mov	x29, sp
	ldr	w8, [x1, 56]
	stp	x19, x20, [sp, 16]
	.cfi_offset 19, -176
	.cfi_offset 20, -168
	mov	x19, x1
	mov	x20, x0
	ldr	x6, [x1, 32]
	ldp	x10, x11, [x1, 40]
	ldr	x7, [x1, 64]
	ldr	x1, [x1, 112]
	str	x21, [sp, 32]
	.cfi_offset 21, -160
	adrp	x21, :got:_ZN4asio6detail10call_stackINS0_15task_io_serviceENS0_27task_io_service_thread_infoEE4top_E
	ldr	x3, [x2, #:got_lo12:__stack_chk_guard]
	add	x2, sp, 88
	ldr	x4, [x21, #:got_lo12:_ZN4asio6detail10call_stackINS0_15task_io_serviceENS0_27task_io_service_thread_infoEE4top_E]
	ldr	w0, [x4]
	ldr	x4, [x3]
	str	x4, [sp, 184]
	mov	x4, 0
	ldr	x3, [x19, 24]
	stp	x2, x19, [sp, 64]
	stp	xzr, x3, [sp, 80]
	ldp	x2, x3, [x19, 72]
	str	x6, [sp, 96]
	ldp	x4, x5, [x19, 96]
	stp	x10, x11, [sp, 104]
	ldr	x6, [x19, 88]
	str	w8, [sp, 120]
	str	x7, [sp, 128]
	stp	x2, x3, [sp, 136]
	str	x6, [sp, 152]
	stp	x4, x5, [sp, 160]
	str	x1, [sp, 176]
	bl	pthread_getspecific
	cbz	x0, .L1818
	ldr	x0, [x0, 8]
	cbz	x0, .L1818
	ldr	x1, [x0]
	cbz	x1, .L1848
.L1818:
	mov	x0, x19
	bl	_ZdlPv
.L1819:
	str	xzr, [sp, 72]
	cbz	x20, .L1817
	add	x19, sp, 56
	mov	w0, 1
	mov	x1, x19
	str	wzr, [sp, 56]
	bl	__aarch64_swp4_sync
	ldr	x2, [sp, 176]
	add	x1, sp, 160
	add	x0, sp, 96
	mov	w3, 0
.LEHB34:
	bl	_ZN4asio6detail8write_opINS_19basic_stream_socketINS_2ip3tcpENS_21stream_socket_serviceIS4_EEEENS_15const_buffers_1ENS0_14transfer_all_tENS0_15wrapped_handlerINS_10io_service6strandEZN7asiopal13SocketChannel14BeginWriteImplERKN7openpal6RSliceEEUlRKSt10error_codemE_NS0_26is_continuation_if_runningEEEEclESL_mi
.LEHE34:
	stlr	wzr, [x19]
	ldp	x19, x0, [sp, 72]
	cbz	x0, .L1822
	str	xzr, [sp, 80]
.L1822:
	cbz	x19, .L1817
	ldr	x21, [x21, #:got_lo12:_ZN4asio6detail10call_stackINS0_15task_io_serviceENS0_27task_io_service_thread_infoEE4top_E]
	ldr	w0, [x21]
	bl	pthread_getspecific
	cbz	x0, .L1823
	ldr	x0, [x0, 8]
	cbz	x0, .L1823
	ldr	x1, [x0]
	cbz	x1, .L1849
.L1823:
	adrp	x0, :got:__stack_chk_guard
	ldr	x0, [x0, #:got_lo12:__stack_chk_guard]
	ldr	x2, [sp, 184]
	ldr	x1, [x0]
	subs	x2, x2, x1
	mov	x1, 0
	bne	.L1847
	mov	x0, x19
	ldp	x19, x20, [sp, 16]
	ldr	x21, [sp, 32]
	ldp	x29, x30, [sp], 192
	.cfi_remember_state
	.cfi_restore 30
	.cfi_restore 29
	.cfi_restore 21
	.cfi_restore 19
	.cfi_restore 20
	.cfi_def_cfa_offset 0
	b	_ZdlPv
	.p2align 2,,3
.L1849:
	.cfi_restore_state
	ldrb	w1, [x19, 120]
	strb	w1, [x19]
	str	x19, [x0]
	.p2align 3,,7
.L1817:
	adrp	x0, :got:__stack_chk_guard
	ldr	x0, [x0, #:got_lo12:__stack_chk_guard]
	ldr	x2, [sp, 184]
	ldr	x1, [x0]
	subs	x2, x2, x1
	mov	x1, 0
	bne	.L1847
	ldp	x19, x20, [sp, 16]
	ldr	x21, [sp, 32]
	ldp	x29, x30, [sp], 192
	.cfi_remember_state
	.cfi_restore 30
	.cfi_restore 29
	.cfi_restore 21
	.cfi_restore 19
	.cfi_restore 20
	.cfi_def_cfa_offset 0
	ret
	.p2align 2,,3
.L1848:
	.cfi_restore_state
	ldrb	w1, [x19, 120]
	strb	w1, [x19]
	str	x19, [x0]
	b	.L1819
.L1847:
	bl	__stack_chk_fail
.L1827:
	mov	x20, x0
	stlr	wzr, [x19]
	add	x0, sp, 64
	bl	_ZN4asio6detail18completion_handlerINS0_17rewrapped_handlerINS0_7binder2INS0_8write_opINS_19basic_stream_socketINS_2ip3tcpENS_21stream_socket_serviceIS7_EEEENS_15const_buffers_1ENS0_14transfer_all_tENS0_15wrapped_handlerINS_10io_service6strandEZN7asiopal13SocketChannel14BeginWriteImplERKN7openpal6RSliceEEUlRKSt10error_codemE_NS0_26is_continuation_if_runningEEEEESM_mEESP_EEE3ptr5resetEv
	mov	x0, x20
.LEHB35:
	bl	_Unwind_Resume
.LEHE35:
	.cfi_endproc
.LFE9392:
	.section	.gcc_except_table
.LLSDA9392:
	.byte	0xff
	.byte	0xff
	.byte	0x1
	.uleb128 .LLSDACSE9392-.LLSDACSB9392
.LLSDACSB9392:
	.uleb128 .LEHB34-.LFB9392
	.uleb128 .LEHE34-.LEHB34
	.uleb128 .L1827-.LFB9392
	.uleb128 0
	.uleb128 .LEHB35-.LFB9392
	.uleb128 .LEHE35-.LEHB35
	.uleb128 0
	.uleb128 0
.LLSDACSE9392:
	.text
	.size	_ZN4asio6detail18completion_handlerINS0_17rewrapped_handlerINS0_7binder2INS0_8write_opINS_19basic_stream_socketINS_2ip3tcpENS_21stream_socket_serviceIS7_EEEENS_15const_buffers_1ENS0_14transfer_all_tENS0_15wrapped_handlerINS_10io_service6strandEZN7asiopal13SocketChannel14BeginWriteImplERKN7openpal6RSliceEEUlRKSt10error_codemE_NS0_26is_continuation_if_runningEEEEESM_mEESP_EEE11do_completeEPNS0_15task_io_serviceEPNS0_25task_io_service_operationESO_m, .-_ZN4asio6detail18completion_handlerINS0_17rewrapped_handlerINS0_7binder2INS0_8write_opINS_19basic_stream_socketINS_2ip3tcpENS_21stream_socket_serviceIS7_EEEENS_15const_buffers_1ENS0_14transfer_all_tENS0_15wrapped_handlerINS_10io_service6strandEZN7asiopal13SocketChannel14BeginWriteImplERKN7openpal6RSliceEEUlRKSt10error_codemE_NS0_26is_continuation_if_runningEEEEESM_mEESP_EEE11do_completeEPNS0_15task_io_serviceEPNS0_25task_io_service_operationESO_m
	.align	2
	.p2align 4,,11
	.type	_ZN4asio6detail23reactive_socket_send_opINS_15const_buffers_1ENS0_8write_opINS_19basic_stream_socketINS_2ip3tcpENS_21stream_socket_serviceIS6_EEEES2_NS0_14transfer_all_tENS0_15wrapped_handlerINS_10io_service6strandEZN7asiopal13SocketChannel14BeginWriteImplERKN7openpal6RSliceEEUlRKSt10error_codemE_NS0_26is_continuation_if_runningEEEEEE11do_completeEPNS0_15task_io_serviceEPNS0_25task_io_service_operationESM_m, %function
_ZN4asio6detail23reactive_socket_send_opINS_15const_buffers_1ENS0_8write_opINS_19basic_stream_socketINS_2ip3tcpENS_21stream_socket_serviceIS6_EEEES2_NS0_14transfer_all_tENS0_15wrapped_handlerINS_10io_service6strandEZN7asiopal13SocketChannel14BeginWriteImplERKN7openpal6RSliceEEUlRKSt10error_codemE_NS0_26is_continuation_if_runningEEEEEE11do_completeEPNS0_15task_io_serviceEPNS0_25task_io_service_operationESM_m:
.LFB9210:
	.cfi_startproc
	.cfi_personality 0x9b,DW.ref.__gxx_personality_v0
	.cfi_lsda 0x1b,.LLSDA9210
	sub	sp, sp, #624
	.cfi_def_cfa_offset 624
	adrp	x2, :got:__stack_chk_guard
	stp	x29, x30, [sp]
	.cfi_offset 29, -624
	.cfi_offset 30, -616
	mov	x29, sp
	ldr	x3, [x2, #:got_lo12:__stack_chk_guard]
	stp	x19, x20, [sp, 16]
	.cfi_offset 19, -608
	.cfi_offset 20, -600
	adrp	x20, :got:_ZN4asio6detail10call_stackINS0_15task_io_serviceENS0_27task_io_service_thread_infoEE4top_E
	mov	x19, x1
	stp	x21, x22, [sp, 32]
	add	x2, sp, 232
	ldr	x4, [x20, #:got_lo12:_ZN4asio6detail10call_stackINS0_15task_io_serviceENS0_27task_io_service_thread_infoEE4top_E]
	.cfi_offset 21, -592
	.cfi_offset 22, -584
	mov	x21, x0
	ldp	x10, x11, [x1, 96]
	ldr	w0, [x4]
	ldr	x4, [x3]
	str	x4, [sp, 616]
	mov	x4, 0
	stp	x2, x19, [sp, 160]
	ldr	w8, [x1, 112]
	ldr	x2, [x19, 88]
	str	x2, [sp, 232]
	ldp	x2, x3, [x19, 128]
	stp	x2, x3, [sp, 272]
	ldp	x4, x5, [x1, 24]
	add	x2, sp, 544
	ldr	x1, [x1, 40]
	str	xzr, [sp, 176]
	ldr	x7, [x19, 120]
	stp	x4, x5, [x2, -248]
	ldr	x6, [x19, 144]
	stp	x10, x11, [sp, 240]
	str	w8, [sp, 256]
	str	x7, [sp, 264]
	str	x6, [sp, 288]
	str	x1, [sp, 312]
	bl	pthread_getspecific
	cbz	x0, .L1851
	ldr	x0, [x0, 8]
	cbz	x0, .L1851
	ldr	x1, [x0]
	cbz	x1, .L1996
.L1851:
	mov	x0, x19
	bl	_ZdlPv
.L1852:
	str	xzr, [sp, 168]
	cbz	x21, .L1850
	add	x21, sp, 128
	mov	w0, 1
	mov	x1, x21
	stp	x23, x24, [sp, 48]
	.cfi_offset 24, -568
	.cfi_offset 23, -576
	adrp	x22, :got:_ZN4asio6detail10call_stackINS0_14strand_service11strand_implEhE4top_E
	str	wzr, [sp, 128]
	bl	__aarch64_swp4_sync
	ldr	x1, [sp, 232]
	str	x1, [sp, 520]
	add	x1, sp, 512
	add	x9, sp, 544
	ldp	x2, x3, [sp, 240]
	stp	x2, x3, [sp, 336]
	ldr	w8, [sp, 256]
	stp	x2, x3, [x1, 16]
	add	x2, sp, 544
	ldr	x0, [x22, #:got_lo12:_ZN4asio6detail10call_stackINS0_14strand_service11strand_implEhE4top_E]
	str	w8, [sp, 544]
	ldp	x2, x3, [x2, -248]
	stp	x2, x3, [x9, -152]
	ldr	w0, [x0]
	ldp	x7, x23, [sp, 264]
	stp	x2, x3, [x9, 40]
	ldp	x4, x5, [sp, 272]
	stp	x4, x5, [x9, 16]
	ldr	x1, [sp, 288]
	str	x1, [sp, 320]
	ldr	x6, [sp, 312]
	stp	x4, x5, [sp, 368]
	str	x1, [sp, 384]
	str	x1, [sp, 512]
	str	x7, [sp, 552]
	str	x1, [sp, 576]
	str	x6, [sp, 600]
	ldr	x19, [sp, 280]
	bl	pthread_getspecific
	cbnz	x0, .L1857
	b	.L1854
	.p2align 2,,3
.L1855:
	ldr	x0, [x0, 16]
	cbz	x0, .L1854
.L1857:
	ldr	x1, [x0]
	cmp	x19, x1
	bne	.L1855
	ldr	x0, [x0, 8]
	cbz	x0, .L1854
	str	x27, [sp, 80]
	.cfi_offset 27, -544
	add	x27, sp, 416
	mov	x1, x27
	mov	w0, 1
	str	wzr, [sp, 416]
	bl	__aarch64_swp4_sync
	ldr	x2, [sp, 600]
	add	x1, sp, 584
	add	x0, sp, 520
	mov	w3, 0
.LEHB36:
	bl	_ZN4asio6detail8write_opINS_19basic_stream_socketINS_2ip3tcpENS_21stream_socket_serviceIS4_EEEENS_15const_buffers_1ENS0_14transfer_all_tENS0_15wrapped_handlerINS_10io_service6strandEZN7asiopal13SocketChannel14BeginWriteImplERKN7openpal6RSliceEEUlRKSt10error_codemE_NS0_26is_continuation_if_runningEEEEclESL_mi
.LEHE36:
	stlr	wzr, [x27]
	ldr	x27, [sp, 80]
	.cfi_restore 27
.L1858:
	stlr	wzr, [x21]
	ldp	x19, x0, [sp, 168]
	cbz	x0, .L1909
	str	xzr, [sp, 176]
.L1909:
	cbz	x19, .L1993
	ldr	x20, [x20, #:got_lo12:_ZN4asio6detail10call_stackINS0_15task_io_serviceENS0_27task_io_service_thread_infoEE4top_E]
	ldr	w0, [x20]
	bl	pthread_getspecific
	cbz	x0, .L1912
	ldr	x0, [x0, 8]
	cbz	x0, .L1912
	ldr	x1, [x0]
	cbz	x1, .L1997
.L1912:
	adrp	x0, :got:__stack_chk_guard
	ldr	x0, [x0, #:got_lo12:__stack_chk_guard]
	ldr	x2, [sp, 616]
	ldr	x1, [x0]
	subs	x2, x2, x1
	mov	x1, 0
	bne	.L1995
	mov	x0, x19
	ldp	x29, x30, [sp]
	ldp	x19, x20, [sp, 16]
	ldp	x21, x22, [sp, 32]
	ldp	x23, x24, [sp, 48]
	.cfi_remember_state
	.cfi_restore 24
	.cfi_restore 23
	add	sp, sp, 624
	.cfi_restore 29
	.cfi_restore 30
	.cfi_restore 21
	.cfi_restore 22
	.cfi_restore 19
	.cfi_restore 20
	.cfi_def_cfa_offset 0
	b	_ZdlPv
	.p2align 2,,3
.L1993:
	.cfi_restore_state
	ldp	x23, x24, [sp, 48]
	.cfi_restore 24
	.cfi_restore 23
.L1850:
	adrp	x0, :got:__stack_chk_guard
	ldr	x0, [x0, #:got_lo12:__stack_chk_guard]
	ldr	x2, [sp, 616]
	ldr	x1, [x0]
	subs	x2, x2, x1
	mov	x1, 0
	bne	.L1998
	ldp	x29, x30, [sp]
	ldp	x19, x20, [sp, 16]
	ldp	x21, x22, [sp, 32]
	add	sp, sp, 624
	.cfi_restore 29
	.cfi_restore 30
	.cfi_restore 21
	.cfi_restore 22
	.cfi_restore 19
	.cfi_restore 20
	.cfi_def_cfa_offset 0
	ret
	.p2align 2,,3
.L1854:
	.cfi_def_cfa_offset 624
	.cfi_offset 19, -608
	.cfi_offset 20, -600
	.cfi_offset 21, -592
	.cfi_offset 22, -584
	.cfi_offset 23, -576
	.cfi_offset 24, -568
	.cfi_offset 29, -624
	.cfi_offset 30, -616
	ldr	x0, [x20, #:got_lo12:_ZN4asio6detail10call_stackINS0_15task_io_serviceENS0_27task_io_service_thread_infoEE4top_E]
	ldr	w0, [x0]
	bl	pthread_getspecific
	cbz	x0, .L1859
	ldr	x0, [x0, 8]
	cbz	x0, .L1859
	ldr	x24, [x0]
	cbz	x24, .L1859
	str	xzr, [x0]
	ldrb	w0, [x24]
	cmp	w0, 119
	bls	.L1860
	stp	x25, x26, [sp, 64]
	.cfi_remember_state
	.cfi_offset 26, -552
	.cfi_offset 25, -560
	strb	w0, [x24, 120]
	b	.L1861
	.p2align 2,,3
.L1860:
	.cfi_restore_state
	mov	x0, x24
	bl	_ZdlPv
.L1859:
	mov	x0, 121
.LEHB37:
	bl	_Znwm
.LEHE37:
	mov	x24, x0
	stp	x25, x26, [sp, 64]
	.cfi_offset 26, -552
	.cfi_offset 25, -560
	mov	w1, 120
	strb	w1, [x0, 120]
.L1861:
	ldr	x0, [x20, #:got_lo12:_ZN4asio6detail10call_stackINS0_15task_io_serviceENS0_27task_io_service_thread_infoEE4top_E]
	adrp	x1, _ZN4asio6detail18completion_handlerINS0_17rewrapped_handlerINS0_7binder2INS0_8write_opINS_19basic_stream_socketINS_2ip3tcpENS_21stream_socket_serviceIS7_EEEENS_15const_buffers_1ENS0_14transfer_all_tENS0_15wrapped_handlerINS_10io_service6strandEZN7asiopal13SocketChannel14BeginWriteImplERKN7openpal6RSliceEEUlRKSt10error_codemE_NS0_26is_continuation_if_runningEEEEESM_mEESP_EEE11do_completeEPNS0_15task_io_serviceEPNS0_25task_io_service_operationESO_m
	add	x1, x1, :lo12:_ZN4asio6detail18completion_handlerINS0_17rewrapped_handlerINS0_7binder2INS0_8write_opINS_19basic_stream_socketINS_2ip3tcpENS_21stream_socket_serviceIS7_EEEENS_15const_buffers_1ENS0_14transfer_all_tENS0_15wrapped_handlerINS_10io_service6strandEZN7asiopal13SocketChannel14BeginWriteImplERKN7openpal6RSliceEEUlRKSt10error_codemE_NS0_26is_continuation_if_runningEEEEESM_mEESP_EEE11do_completeEPNS0_15task_io_serviceEPNS0_25task_io_service_operationESO_m
	add	x26, x24, 32
	ldr	x3, [sp, 512]
	str	wzr, [x24, 16]
	ldr	w0, [x0]
	add	x25, x24, 72
	ldr	x2, [sp, 520]
	stp	xzr, x1, [x24]
	add	x1, sp, 512
	stp	x3, x2, [x24, 24]
	ldp	x2, x3, [x1, 16]
	stp	x2, x3, [x26, 8]
	ldr	w2, [sp, 544]
	ldr	x1, [sp, 552]
	ldr	x19, [x23, 40]
	str	x1, [x26, 32]
	add	x1, sp, 544
	str	w2, [x26, 24]
	ldp	x2, x3, [x1, 16]
	stp	x2, x3, [x24, 72]
	ldr	x1, [sp, 576]
	str	x1, [x25, 16]
	add	x1, sp, 544
	ldp	x2, x3, [x1, 40]
	stp	x2, x3, [x26, 64]
	ldr	x1, [sp, 600]
	str	x1, [x26, 80]
	bl	pthread_getspecific
	dup	v0.2d, x24
	str	q0, [sp, 96]
	cbnz	x0, .L1866
	b	.L1862
	.p2align 2,,3
.L1863:
	ldr	x0, [x0, 16]
	cbz	x0, .L1862
.L1866:
	ldr	x1, [x0]
	cmp	x19, x1
	bne	.L1863
	ldr	x19, [x0, 8]
	ldr	x0, [sp, 280]
	add	x0, x0, 24
	bl	pthread_mutex_lock
	cbz	x19, .L1865
	ldr	x1, [sp, 280]
	add	x0, x1, 24
	ldrb	w2, [x1, 72]
	cbz	w2, .L1999
.L1867:
	str	xzr, [x24]
	ldr	x4, [x1, 88]
	cbz	x4, .L1871
	str	x24, [x4]
	str	x24, [x1, 88]
.L1994:
	bl	pthread_mutex_unlock
	ldp	x25, x26, [sp, 64]
	.cfi_remember_state
	.cfi_restore 26
	.cfi_restore 25
	b	.L1858
.L1999:
	.cfi_restore_state
	str	x27, [sp, 80]
	.cfi_offset 27, -544
	mov	w2, 1
	strb	w2, [x1, 72]
	add	x27, sp, 416
	bl	pthread_mutex_unlock
	ldr	x19, [x22, #:got_lo12:_ZN4asio6detail10call_stackINS0_14strand_service11strand_implEhE4top_E]
	ldr	x0, [sp, 280]
	str	x0, [sp, 184]
	ldr	w0, [x19]
	bl	pthread_getspecific
	mov	x2, x0
	ldr	w0, [x19]
	add	x1, sp, 184
	stp	x1, x2, [sp, 192]
	bl	pthread_setspecific
	stp	x27, x24, [sp, 208]
	ldr	w10, [x26, 24]
	ldr	x0, [x20, #:got_lo12:_ZN4asio6detail10call_stackINS0_15task_io_serviceENS0_27task_io_service_thread_infoEE4top_E]
	str	xzr, [sp, 224]
	ldp	x8, x1, [x24, 24]
	ldp	x6, x7, [x26, 8]
	ldr	x4, [x25, 16]
	ldr	x5, [x26, 32]
	ldr	x23, [x23, 40]
	ldp	x2, x3, [x26, 64]
	str	x8, [sp, 416]
	ldp	x8, x9, [x24, 72]
	str	x1, [sp, 424]
	ldr	x1, [x26, 80]
	str	x4, [sp, 480]
	add	x4, sp, 544
	ldr	w0, [x0]
	stp	x6, x7, [sp, 432]
	str	w10, [sp, 448]
	str	x5, [sp, 456]
	stp	x8, x9, [sp, 464]
	stp	x2, x3, [x4, -56]
	ldr	x19, [sp, 280]
	stp	x23, x19, [sp, 144]
	str	x1, [sp, 504]
	bl	pthread_getspecific
	cbz	x0, .L1869
	ldr	x0, [x0, 8]
	cbz	x0, .L1869
	ldr	x1, [x0]
	cbz	x1, .L2000
.L1869:
	mov	x0, x24
	bl	_ZdlPv
.L1886:
	str	xzr, [sp, 216]
	cbz	x23, .L2001
	add	x19, sp, 136
	mov	w0, 1
	mov	x1, x19
	str	wzr, [sp, 136]
	bl	__aarch64_swp4_sync
	ldr	x2, [sp, 504]
	add	x1, sp, 488
	add	x0, sp, 424
	mov	w3, 0
.LEHB38:
	bl	_ZN4asio6detail8write_opINS_19basic_stream_socketINS_2ip3tcpENS_21stream_socket_serviceIS4_EEEENS_15const_buffers_1ENS0_14transfer_all_tENS0_15wrapped_handlerINS_10io_service6strandEZN7asiopal13SocketChannel14BeginWriteImplERKN7openpal6RSliceEEUlRKSt10error_codemE_NS0_26is_continuation_if_runningEEEEclESL_mi
.LEHE38:
	stlr	wzr, [x19]
	ldr	x19, [sp, 152]
	ldp	x23, x0, [sp, 216]
	dup	v0.2d, x19
	str	q0, [sp, 96]
	cbz	x0, .L1889
	str	xzr, [sp, 224]
.L1889:
	cbz	x23, .L1888
	ldr	x0, [x20, #:got_lo12:_ZN4asio6detail10call_stackINS0_15task_io_serviceENS0_27task_io_service_thread_infoEE4top_E]
	ldr	w0, [x0]
	bl	pthread_getspecific
	cbz	x0, .L1890
	ldr	x0, [x0, 8]
	cbz	x0, .L1890
	ldr	x1, [x0]
	cbz	x1, .L2002
.L1890:
	mov	x0, x23
	bl	_ZdlPv
.L1888:
	add	x24, x19, 24
	mov	x0, x24
	bl	pthread_mutex_lock
	ldr	x23, [x19, 80]
	cbz	x23, .L2003
	ldr	x1, [x19, 104]
	add	x0, x19, 96
	cbz	x1, .L1895
	str	x23, [x1]
	ldr	x23, [x19, 96]
.L1896:
	ldr	x1, [x19, 88]
	str	x1, [x0, 8]
	stp	xzr, xzr, [x19, 80]
.L1892:
	cmp	x23, 0
	cset	w0, ne
	strb	w0, [x19, 72]
	mov	x0, x24
	bl	pthread_mutex_unlock
	cbnz	x23, .L2004
.L1897:
	ldr	x22, [x22, #:got_lo12:_ZN4asio6detail10call_stackINS0_14strand_service11strand_implEhE4top_E]
	ldr	x1, [sp, 200]
	ldr	w0, [x22]
	bl	pthread_setspecific
	ldp	x25, x26, [sp, 64]
	.cfi_restore 26
	.cfi_restore 25
	ldr	x27, [sp, 80]
	.cfi_restore 27
	b	.L1858
	.p2align 2,,3
.L1862:
	.cfi_offset 25, -560
	.cfi_offset 26, -552
	ldr	x0, [sp, 280]
	add	x0, x0, 24
	bl	pthread_mutex_lock
.L1865:
	ldr	x1, [sp, 280]
	add	x0, x1, 24
	ldrb	w2, [x1, 72]
	cbnz	w2, .L1867
	mov	w2, 1
	strb	w2, [x1, 72]
	bl	pthread_mutex_unlock
	ldr	x22, [sp, 280]
	dup	v0.2d, x22
	ldr	x1, [x22, 104]
	str	xzr, [x24]
	str	q0, [sp, 112]
	cbz	x1, .L1874
	str	x24, [x1]
	str	x24, [x22, 104]
.L1875:
	ldr	x19, [x23, 40]
	ldrb	w0, [x19, 40]
	cbnz	w0, .L2005
.L1876:
	add	x1, x19, 192
	add	x23, x19, 48
	mov	x0, 1
	bl	__aarch64_ldadd8_acq_rel
	mov	x0, x23
	bl	pthread_mutex_lock
	ldr	x1, [x19, 208]
	str	xzr, [x22]
	cbz	x1, .L1881
	str	x22, [x1]
	str	x22, [x19, 208]
.L1882:
	ldr	x0, [x19, 144]
	add	x22, x19, 96
	orr	x0, x0, 1
	str	x0, [x19, 144]
	cmp	x0, 1
	beq	.L1883
	mov	x0, x23
	bl	pthread_mutex_unlock
	mov	x0, x22
	bl	pthread_cond_signal
	ldp	x25, x26, [sp, 64]
	.cfi_remember_state
	.cfi_restore 26
	.cfi_restore 25
	b	.L1858
.L1883:
	.cfi_restore_state
	ldrb	w1, [x19, 184]
	cbnz	w1, .L1885
	ldr	x4, [x19, 152]
	cbz	x4, .L1885
	mov	w1, 9
	strb	w0, [x19, 184]
	ldr	w2, [x4, 96]
	add	x0, x4, 96
	movk	w1, 0x8000, lsl 16
	str	w1, [sp, 416]
	str	x0, [sp, 424]
	add	x3, sp, 416
	mov	w1, 3
	ldr	w0, [x4, 104]
	bl	epoll_ctl
.L1885:
	mov	x0, x23
	b	.L1994
	.p2align 2,,3
.L1996:
	.cfi_restore 23
	.cfi_restore 24
	.cfi_restore 25
	.cfi_restore 26
	ldrb	w1, [x19, 152]
	strb	w1, [x19]
	str	x19, [x0]
	b	.L1852
	.p2align 2,,3
.L1997:
	.cfi_offset 23, -576
	.cfi_offset 24, -568
	ldrb	w1, [x19, 152]
	strb	w1, [x19]
	ldp	x23, x24, [sp, 48]
	.cfi_restore 24
	.cfi_restore 23
	str	x19, [x0]
	b	.L1850
.L1871:
	.cfi_offset 23, -576
	.cfi_offset 24, -568
	.cfi_offset 25, -560
	.cfi_offset 26, -552
	ldr	q0, [sp, 96]
	str	q0, [x1, 80]
	b	.L1994
.L2004:
	.cfi_offset 27, -544
	ldr	x23, [sp, 144]
	ldrb	w0, [x23, 40]
	cbnz	w0, .L2006
.L1898:
	add	x1, x23, 192
	add	x24, x23, 48
	mov	x0, 1
	bl	__aarch64_ldadd8_acq_rel
	mov	x0, x24
	bl	pthread_mutex_lock
	ldr	x1, [x23, 208]
	str	xzr, [x19]
	cbz	x1, .L1903
	str	x19, [x1]
	str	x19, [x23, 208]
.L1904:
	ldr	x0, [x23, 144]
	add	x19, x23, 96
	orr	x0, x0, 1
	str	x0, [x23, 144]
	cmp	x0, 1
	beq	.L1905
	mov	x0, x24
	bl	pthread_mutex_unlock
	mov	x0, x19
	bl	pthread_cond_signal
	b	.L1897
.L2006:
	ldr	x0, [x20, #:got_lo12:_ZN4asio6detail10call_stackINS0_15task_io_serviceENS0_27task_io_service_thread_infoEE4top_E]
	ldr	w0, [x0]
	bl	pthread_getspecific
	cbnz	x0, .L1901
	b	.L1898
	.p2align 2,,3
.L1899:
	ldr	x0, [x0, 16]
	cbz	x0, .L1898
.L1901:
	ldr	x1, [x0]
	cmp	x23, x1
	bne	.L1899
	ldr	x0, [x0, 8]
	cbz	x0, .L1898
	ldp	x3, x1, [x0, 16]
	add	x1, x1, 1
	str	x1, [x0, 24]
	str	xzr, [x19]
	ldr	x1, [x0, 16]
	cbz	x3, .L1902
	str	x19, [x1]
	str	x19, [x0, 16]
	b	.L1897
.L2000:
	ldrb	w1, [x24, 120]
	strb	w1, [x24]
	str	x24, [x0]
	b	.L1886
.L2002:
	ldrb	w1, [x23, 120]
	strb	w1, [x23]
	str	x23, [x0]
	b	.L1888
.L2003:
	ldr	x23, [x19, 96]
	b	.L1892
.L2001:
	dup	v0.2d, x19
	str	q0, [sp, 96]
	b	.L1888
.L1895:
	str	x23, [x19, 96]
	b	.L1896
.L1905:
	ldrb	w1, [x23, 184]
	cbnz	w1, .L1907
	ldr	x4, [x23, 152]
	cbz	x4, .L1907
	mov	w1, 9
	strb	w0, [x23, 184]
	ldr	w2, [x4, 96]
	add	x0, x4, 96
	movk	w1, 0x8000, lsl 16
	str	w1, [sp, 416]
	str	x0, [sp, 424]
	mov	x3, x27
	mov	w1, 3
	ldr	w0, [x4, 104]
	bl	epoll_ctl
.L1907:
	mov	x0, x24
	bl	pthread_mutex_unlock
	b	.L1897
.L2005:
	.cfi_restore 27
	ldr	x0, [x20, #:got_lo12:_ZN4asio6detail10call_stackINS0_15task_io_serviceENS0_27task_io_service_thread_infoEE4top_E]
	ldr	w0, [x0]
	bl	pthread_getspecific
	cbnz	x0, .L1879
	b	.L1876
	.p2align 2,,3
.L1877:
	ldr	x0, [x0, 16]
	cbz	x0, .L1876
.L1879:
	ldr	x1, [x0]
	cmp	x19, x1
	bne	.L1877
	ldr	x0, [x0, 8]
	cbz	x0, .L1876
	ldp	x3, x1, [x0, 16]
	add	x1, x1, 1
	str	x1, [x0, 24]
	str	xzr, [x22]
	ldr	x1, [x0, 16]
	cbz	x3, .L1880
	ldp	x25, x26, [sp, 64]
	.cfi_remember_state
	.cfi_restore 26
	.cfi_restore 25
	str	x22, [x1]
	str	x22, [x0, 16]
	b	.L1858
.L1874:
	.cfi_restore_state
	ldr	q0, [sp, 96]
	str	q0, [x22, 96]
	b	.L1875
.L1881:
	ldr	q0, [sp, 112]
	str	q0, [x19, 200]
	b	.L1882
.L1903:
	.cfi_offset 27, -544
	ldr	q0, [sp, 96]
	str	q0, [x23, 200]
	b	.L1904
.L1880:
	.cfi_restore 27
	ldr	q0, [sp, 112]
	ldp	x25, x26, [sp, 64]
	.cfi_restore 26
	.cfi_restore 25
	str	q0, [x0, 8]
	b	.L1858
.L1902:
	.cfi_offset 25, -560
	.cfi_offset 26, -552
	.cfi_offset 27, -544
	ldr	q0, [sp, 96]
	str	q0, [x0, 8]
	b	.L1897
.L1998:
	.cfi_restore 23
	.cfi_restore 24
	.cfi_restore 25
	.cfi_restore 26
	.cfi_restore 27
	stp	x23, x24, [sp, 48]
	.cfi_offset 24, -568
	.cfi_offset 23, -576
.L1995:
	stp	x25, x26, [sp, 64]
	.cfi_offset 26, -552
	.cfi_offset 25, -560
	str	x27, [sp, 80]
	.cfi_offset 27, -544
	bl	__stack_chk_fail
.L1916:
	.cfi_restore 25
	.cfi_restore 26
	mov	x19, x0
	stlr	wzr, [x27]
	stp	x25, x26, [sp, 64]
	.cfi_offset 26, -552
	.cfi_offset 25, -560
	b	.L1894
.L1915:
	.cfi_restore 25
	.cfi_restore 26
	.cfi_restore 27
	mov	x19, x0
	stp	x25, x26, [sp, 64]
	.cfi_offset 26, -552
	.cfi_offset 25, -560
	str	x27, [sp, 80]
	.cfi_offset 27, -544
	b	.L1894
.L1917:
	mov	x20, x0
	stlr	wzr, [x19]
	add	x0, sp, 208
	bl	_ZN4asio6detail18completion_handlerINS0_17rewrapped_handlerINS0_7binder2INS0_8write_opINS_19basic_stream_socketINS_2ip3tcpENS_21stream_socket_serviceIS7_EEEENS_15const_buffers_1ENS0_14transfer_all_tENS0_15wrapped_handlerINS_10io_service6strandEZN7asiopal13SocketChannel14BeginWriteImplERKN7openpal6RSliceEEUlRKSt10error_codemE_NS0_26is_continuation_if_runningEEEEESM_mEESP_EEE3ptr5resetEv
	mov	x19, x20
	add	x0, sp, 144
	bl	_ZN4asio6detail14strand_service16on_dispatch_exitD1Ev
	ldr	x22, [x22, #:got_lo12:_ZN4asio6detail10call_stackINS0_14strand_service11strand_implEhE4top_E]
	ldr	x1, [sp, 200]
	ldr	w0, [x22]
	bl	pthread_setspecific
.L1894:
	stlr	wzr, [x21]
	add	x0, sp, 160
	bl	_ZN4asio6detail23reactive_socket_send_opINS_15const_buffers_1ENS0_8write_opINS_19basic_stream_socketINS_2ip3tcpENS_21stream_socket_serviceIS6_EEEES2_NS0_14transfer_all_tENS0_15wrapped_handlerINS_10io_service6strandEZN7asiopal13SocketChannel14BeginWriteImplERKN7openpal6RSliceEEUlRKSt10error_codemE_NS0_26is_continuation_if_runningEEEEEE3ptr5resetEv
	mov	x0, x19
.LEHB39:
	bl	_Unwind_Resume
.LEHE39:
	.cfi_endproc
.LFE9210:
	.section	.gcc_except_table
.LLSDA9210:
	.byte	0xff
	.byte	0xff
	.byte	0x1
	.uleb128 .LLSDACSE9210-.LLSDACSB9210
.LLSDACSB9210:
	.uleb128 .LEHB36-.LFB9210
	.uleb128 .LEHE36-.LEHB36
	.uleb128 .L1916-.LFB9210
	.uleb128 0
	.uleb128 .LEHB37-.LFB9210
	.uleb128 .LEHE37-.LEHB37
	.uleb128 .L1915-.LFB9210
	.uleb128 0
	.uleb128 .LEHB38-.LFB9210
	.uleb128 .LEHE38-.LEHB38
	.uleb128 .L1917-.LFB9210
	.uleb128 0
	.uleb128 .LEHB39-.LFB9210
	.uleb128 .LEHE39-.LEHB39
	.uleb128 0
	.uleb128 0
.LLSDACSE9210:
	.text
	.size	_ZN4asio6detail23reactive_socket_send_opINS_15const_buffers_1ENS0_8write_opINS_19basic_stream_socketINS_2ip3tcpENS_21stream_socket_serviceIS6_EEEES2_NS0_14transfer_all_tENS0_15wrapped_handlerINS_10io_service6strandEZN7asiopal13SocketChannel14BeginWriteImplERKN7openpal6RSliceEEUlRKSt10error_codemE_NS0_26is_continuation_if_runningEEEEEE11do_completeEPNS0_15task_io_serviceEPNS0_25task_io_service_operationESM_m, .-_ZN4asio6detail23reactive_socket_send_opINS_15const_buffers_1ENS0_8write_opINS_19basic_stream_socketINS_2ip3tcpENS_21stream_socket_serviceIS6_EEEES2_NS0_14transfer_all_tENS0_15wrapped_handlerINS_10io_service6strandEZN7asiopal13SocketChannel14BeginWriteImplERKN7openpal6RSliceEEUlRKSt10error_codemE_NS0_26is_continuation_if_runningEEEEEE11do_completeEPNS0_15task_io_serviceEPNS0_25task_io_service_operationESM_m
	.align	2
	.p2align 4,,11
	.global	_ZN7asiopal13SocketChannelC2ESt10shared_ptrINS_8ExecutorEEN4asio19basic_stream_socketINS4_2ip3tcpENS4_21stream_socket_serviceIS7_EEEE
	.type	_ZN7asiopal13SocketChannelC2ESt10shared_ptrINS_8ExecutorEEN4asio19basic_stream_socketINS4_2ip3tcpENS4_21stream_socket_serviceIS7_EEEE, %function
_ZN7asiopal13SocketChannelC2ESt10shared_ptrINS_8ExecutorEEN4asio19basic_stream_socketINS4_2ip3tcpENS4_21stream_socket_serviceIS7_EEEE:
.LFB7044:
	.cfi_startproc
	stp	x29, x30, [sp, -32]!
	.cfi_def_cfa_offset 32
	.cfi_offset 29, -32
	.cfi_offset 30, -24
	adrp	x3, :got:_ZTVN7asiopal13IAsyncChannelE
	mov	x29, sp
	ldr	x3, [x3, #:got_lo12:_ZTVN7asiopal13IAsyncChannelE]
	stp	x19, x20, [sp, 16]
	.cfi_offset 19, -16
	.cfi_offset 20, -8
	mov	x19, x0
	ldr	x0, [x1, 8]
	add	x3, x3, 16
	ldr	x1, [x1]
	stp	x3, xzr, [x19]
	mov	x20, x2
	stp	xzr, x1, [x19, 16]
	str	x0, [x19, 32]
	cbz	x0, .L2008
	adrp	x1, :got:__libc_single_threaded
	ldr	x1, [x1, #:got_lo12:__libc_single_threaded]
	ldrb	w1, [x1]
	cbz	w1, .L2009
	ldr	w1, [x0, 8]
	add	w1, w1, 1
	str	w1, [x0, 8]
.L2008:
	adrp	x1, :got:_ZTVN7asiopal13SocketChannelE
	mov	x0, x19
	stp	xzr, xzr, [x19, 40]
	mov	w2, 2
	mov	w3, -1
	ldr	x1, [x1, #:got_lo12:_ZTVN7asiopal13SocketChannelE]
	strh	wzr, [x19, 56]
	strb	wzr, [x19, 58]
	ldr	w5, [x20]
	add	x1, x1, 16
	str	x1, [x0], 64
	ldr	x1, [x20, 24]
	str	w2, [x0, 16]
	str	x1, [x0, 24]
	ldrb	w4, [x20, 4]
	ldr	x1, [x20, 8]
	str	w5, [x19, 64]
	strb	w4, [x19, 68]
	str	x1, [x19, 72]
	ldr	w1, [x20, 16]
	str	w3, [x20]
	strb	wzr, [x20, 4]
	str	xzr, [x20, 8]
	str	w2, [x20, 16]
	str	w1, [x0, 16]
	ldp	x19, x20, [sp, 16]
	ldp	x29, x30, [sp], 32
	.cfi_remember_state
	.cfi_restore 30
	.cfi_restore 29
	.cfi_restore 19
	.cfi_restore 20
	.cfi_def_cfa_offset 0
	ret
	.p2align 2,,3
.L2009:
	.cfi_restore_state
	add	x1, x0, 8
	mov	w0, 1
	bl	__aarch64_ldadd4_acq_rel
	b	.L2008
	.cfi_endproc
.LFE7044:
	.size	_ZN7asiopal13SocketChannelC2ESt10shared_ptrINS_8ExecutorEEN4asio19basic_stream_socketINS4_2ip3tcpENS4_21stream_socket_serviceIS7_EEEE, .-_ZN7asiopal13SocketChannelC2ESt10shared_ptrINS_8ExecutorEEN4asio19basic_stream_socketINS4_2ip3tcpENS4_21stream_socket_serviceIS7_EEEE
	.global	_ZN7asiopal13SocketChannelC1ESt10shared_ptrINS_8ExecutorEEN4asio19basic_stream_socketINS4_2ip3tcpENS4_21stream_socket_serviceIS7_EEEE
	.set	_ZN7asiopal13SocketChannelC1ESt10shared_ptrINS_8ExecutorEEN4asio19basic_stream_socketINS4_2ip3tcpENS4_21stream_socket_serviceIS7_EEEE,_ZN7asiopal13SocketChannelC2ESt10shared_ptrINS_8ExecutorEEN4asio19basic_stream_socketINS4_2ip3tcpENS4_21stream_socket_serviceIS7_EEEE
	.section	.text.startup,"ax",@progbits
	.align	2
	.p2align 4,,11
	.type	_GLOBAL__sub_I_SocketChannel.cpp, %function
_GLOBAL__sub_I_SocketChannel.cpp:
.LFB9610:
	.cfi_startproc
	stp	x29, x30, [sp, -32]!
	.cfi_def_cfa_offset 32
	.cfi_offset 29, -32
	.cfi_offset 30, -24
	mov	x29, sp
	str	x19, [sp, 16]
	.cfi_offset 19, -16
	adrp	x19, :got:_ZGVZN4asio5error18get_netdb_categoryEvE8instance
	bl	_ZN4asio15system_categoryEv
	ldr	x19, [x19, #:got_lo12:_ZGVZN4asio5error18get_netdb_categoryEvE8instance]
	ldar	x0, [x19]
	tbz	x0, 0, .L2039
.L2016:
	adrp	x19, :got:_ZGVZN4asio5error21get_addrinfo_categoryEvE8instance
	ldr	x19, [x19, #:got_lo12:_ZGVZN4asio5error21get_addrinfo_categoryEvE8instance]
	ldar	x0, [x19]
	tbz	x0, 0, .L2040
.L2019:
	adrp	x19, :got:_ZGVZN4asio5error17get_misc_categoryEvE8instance
	ldr	x19, [x19, #:got_lo12:_ZGVZN4asio5error17get_misc_categoryEvE8instance]
	ldar	x0, [x19]
	tbz	x0, 0, .L2041
.L2022:
	adrp	x2, :got:_ZGVN4asio6detail10call_stackINS0_15task_io_serviceENS0_27task_io_service_thread_infoEE4top_E
	ldr	x2, [x2, #:got_lo12:_ZGVN4asio6detail10call_stackINS0_15task_io_serviceENS0_27task_io_service_thread_infoEE4top_E]
	ldr	x0, [x2]
	tbz	x0, 0, .L2042
.L2024:
	adrp	x3, :got:_ZGVN4asio6detail12service_baseINS0_13epoll_reactorEE2idE
	ldr	x3, [x3, #:got_lo12:_ZGVN4asio6detail12service_baseINS0_13epoll_reactorEE2idE]
	ldr	x0, [x3]
	tbz	x0, 0, .L2043
.L2025:
	adrp	x3, :got:_ZGVN4asio6detail12service_baseINS0_15task_io_serviceEE2idE
	ldr	x3, [x3, #:got_lo12:_ZGVN4asio6detail12service_baseINS0_15task_io_serviceEE2idE]
	ldr	x0, [x3]
	tbz	x0, 0, .L2044
.L2026:
	adrp	x2, :got:_ZGVN4asio6detail10call_stackINS0_14strand_service11strand_implEhE4top_E
	ldr	x2, [x2, #:got_lo12:_ZGVN4asio6detail10call_stackINS0_14strand_service11strand_implEhE4top_E]
	ldr	x0, [x2]
	tbz	x0, 0, .L2045
.L2027:
	adrp	x3, :got:_ZGVN4asio6detail12service_baseINS0_14strand_serviceEE2idE
	ldr	x3, [x3, #:got_lo12:_ZGVN4asio6detail12service_baseINS0_14strand_serviceEE2idE]
	ldr	x0, [x3]
	tbz	x0, 0, .L2046
	ldr	x19, [sp, 16]
	ldp	x29, x30, [sp], 32
	.cfi_remember_state
	.cfi_restore 30
	.cfi_restore 29
	.cfi_restore 19
	.cfi_def_cfa_offset 0
	ret
.L2039:
	.cfi_restore_state
	mov	x0, x19
	bl	__cxa_guard_acquire
	cbz	w0, .L2016
	adrp	x1, :got:_ZZN4asio5error18get_netdb_categoryEvE8instance
	adrp	x0, :got:_ZN4asio5error6detail14netdb_categoryD1Ev
	adrp	x2, __dso_handle
	add	x2, x2, :lo12:__dso_handle
	ldr	x1, [x1, #:got_lo12:_ZZN4asio5error18get_netdb_categoryEvE8instance]
	ldr	x0, [x0, #:got_lo12:_ZN4asio5error6detail14netdb_categoryD1Ev]
	bl	__cxa_atexit
	mov	x0, x19
	bl	__cxa_guard_release
	b	.L2016
.L2046:
	mov	x4, 1
	adrp	x1, :got:_ZN4asio6detail12service_baseINS0_14strand_serviceEE2idE
	ldr	x19, [sp, 16]
	str	x4, [x3]
	adrp	x0, :got:_ZN4asio6detail10service_idINS0_14strand_serviceEED1Ev
	adrp	x2, __dso_handle
	ldp	x29, x30, [sp], 32
	.cfi_remember_state
	.cfi_restore 30
	.cfi_restore 29
	.cfi_restore 19
	.cfi_def_cfa_offset 0
	add	x2, x2, :lo12:__dso_handle
	ldr	x1, [x1, #:got_lo12:_ZN4asio6detail12service_baseINS0_14strand_serviceEE2idE]
	ldr	x0, [x0, #:got_lo12:_ZN4asio6detail10service_idINS0_14strand_serviceEED1Ev]
	b	__cxa_atexit
.L2045:
	.cfi_restore_state
	adrp	x19, :got:_ZN4asio6detail10call_stackINS0_14strand_service11strand_implEhE4top_E
	mov	x0, 1
	str	x0, [x2]
	ldr	x19, [x19, #:got_lo12:_ZN4asio6detail10call_stackINS0_14strand_service11strand_implEhE4top_E]
	mov	x0, x19
	bl	_ZN4asio6detail20posix_tss_ptr_createERj
	adrp	x0, :got:_ZN4asio6detail7tss_ptrINS0_10call_stackINS0_14strand_service11strand_implEhE7contextEED1Ev
	mov	x1, x19
	adrp	x2, __dso_handle
	add	x2, x2, :lo12:__dso_handle
	ldr	x0, [x0, #:got_lo12:_ZN4asio6detail7tss_ptrINS0_10call_stackINS0_14strand_service11strand_implEhE7contextEED1Ev]
	bl	__cxa_atexit
	b	.L2027
.L2044:
	adrp	x1, :got:_ZN4asio6detail12service_baseINS0_15task_io_serviceEE2idE
	adrp	x0, :got:_ZN4asio6detail10service_idINS0_15task_io_serviceEED1Ev
	mov	x4, 1
	adrp	x2, __dso_handle
	ldr	x1, [x1, #:got_lo12:_ZN4asio6detail12service_baseINS0_15task_io_serviceEE2idE]
	add	x2, x2, :lo12:__dso_handle
	ldr	x0, [x0, #:got_lo12:_ZN4asio6detail10service_idINS0_15task_io_serviceEED1Ev]
	str	x4, [x3]
	bl	__cxa_atexit
	b	.L2026
.L2043:
	adrp	x1, :got:_ZN4asio6detail12service_baseINS0_13epoll_reactorEE2idE
	adrp	x0, :got:_ZN4asio6detail10service_idINS0_13epoll_reactorEED1Ev
	mov	x4, 1
	adrp	x2, __dso_handle
	ldr	x1, [x1, #:got_lo12:_ZN4asio6detail12service_baseINS0_13epoll_reactorEE2idE]
	add	x2, x2, :lo12:__dso_handle
	ldr	x0, [x0, #:got_lo12:_ZN4asio6detail10service_idINS0_13epoll_reactorEED1Ev]
	str	x4, [x3]
	bl	__cxa_atexit
	b	.L2025
.L2042:
	adrp	x19, :got:_ZN4asio6detail10call_stackINS0_15task_io_serviceENS0_27task_io_service_thread_infoEE4top_E
	mov	x0, 1
	str	x0, [x2]
	ldr	x19, [x19, #:got_lo12:_ZN4asio6detail10call_stackINS0_15task_io_serviceENS0_27task_io_service_thread_infoEE4top_E]
	mov	x0, x19
	bl	_ZN4asio6detail20posix_tss_ptr_createERj
	adrp	x0, :got:_ZN4asio6detail7tss_ptrINS0_10call_stackINS0_15task_io_serviceENS0_27task_io_service_thread_infoEE7contextEED1Ev
	mov	x1, x19
	adrp	x2, __dso_handle
	add	x2, x2, :lo12:__dso_handle
	ldr	x0, [x0, #:got_lo12:_ZN4asio6detail7tss_ptrINS0_10call_stackINS0_15task_io_serviceENS0_27task_io_service_thread_infoEE7contextEED1Ev]
	bl	__cxa_atexit
	b	.L2024
.L2041:
	mov	x0, x19
	bl	__cxa_guard_acquire
	cbz	w0, .L2022
	adrp	x1, :got:_ZZN4asio5error17get_misc_categoryEvE8instance
	adrp	x0, :got:_ZN4asio5error6detail13misc_categoryD1Ev
	adrp	x2, __dso_handle
	add	x2, x2, :lo12:__dso_handle
	ldr	x1, [x1, #:got_lo12:_ZZN4asio5error17get_misc_categoryEvE8instance]
	ldr	x0, [x0, #:got_lo12:_ZN4asio5error6detail13misc_categoryD1Ev]
	bl	__cxa_atexit
	mov	x0, x19
	bl	__cxa_guard_release
	b	.L2022
.L2040:
	mov	x0, x19
	bl	__cxa_guard_acquire
	cbz	w0, .L2019
	adrp	x1, :got:_ZZN4asio5error21get_addrinfo_categoryEvE8instance
	adrp	x0, :got:_ZN4asio5error6detail17addrinfo_categoryD1Ev
	adrp	x2, __dso_handle
	add	x2, x2, :lo12:__dso_handle
	ldr	x1, [x1, #:got_lo12:_ZZN4asio5error21get_addrinfo_categoryEvE8instance]
	ldr	x0, [x0, #:got_lo12:_ZN4asio5error6detail17addrinfo_categoryD1Ev]
	bl	__cxa_atexit
	mov	x0, x19
	bl	__cxa_guard_release
	b	.L2019
	.cfi_endproc
.LFE9610:
	.size	_GLOBAL__sub_I_SocketChannel.cpp, .-_GLOBAL__sub_I_SocketChannel.cpp
	.section	.init_array,"aw"
	.align	3
	.xword	_GLOBAL__sub_I_SocketChannel.cpp
	.weak	_ZTSN7openpal10UncopyableE
	.section	.rodata._ZTSN7openpal10UncopyableE,"aG",@progbits,_ZTSN7openpal10UncopyableE,comdat
	.align	3
	.type	_ZTSN7openpal10UncopyableE, %object
	.size	_ZTSN7openpal10UncopyableE, 23
_ZTSN7openpal10UncopyableE:
	.string	"N7openpal10UncopyableE"
	.weak	_ZTIN7openpal10UncopyableE
	.section	.data.rel.ro._ZTIN7openpal10UncopyableE,"awG",@progbits,_ZTIN7openpal10UncopyableE,comdat
	.align	3
	.type	_ZTIN7openpal10UncopyableE, %object
	.size	_ZTIN7openpal10UncopyableE, 16
_ZTIN7openpal10UncopyableE:
	.xword	_ZTVN10__cxxabiv117__class_type_infoE+16
	.xword	_ZTSN7openpal10UncopyableE
	.weak	_ZTSSt23enable_shared_from_thisIN7asiopal13IAsyncChannelEE
	.section	.rodata._ZTSSt23enable_shared_from_thisIN7asiopal13IAsyncChannelEE,"aG",@progbits,_ZTSSt23enable_shared_from_thisIN7asiopal13IAsyncChannelEE,comdat
	.align	3
	.type	_ZTSSt23enable_shared_from_thisIN7asiopal13IAsyncChannelEE, %object
	.size	_ZTSSt23enable_shared_from_thisIN7asiopal13IAsyncChannelEE, 55
_ZTSSt23enable_shared_from_thisIN7asiopal13IAsyncChannelEE:
	.string	"St23enable_shared_from_thisIN7asiopal13IAsyncChannelEE"
	.weak	_ZTISt23enable_shared_from_thisIN7asiopal13IAsyncChannelEE
	.section	.data.rel.ro._ZTISt23enable_shared_from_thisIN7asiopal13IAsyncChannelEE,"awG",@progbits,_ZTISt23enable_shared_from_thisIN7asiopal13IAsyncChannelEE,comdat
	.align	3
	.type	_ZTISt23enable_shared_from_thisIN7asiopal13IAsyncChannelEE, %object
	.size	_ZTISt23enable_shared_from_thisIN7asiopal13IAsyncChannelEE, 16
_ZTISt23enable_shared_from_thisIN7asiopal13IAsyncChannelEE:
	.xword	_ZTVN10__cxxabiv117__class_type_infoE+16
	.xword	_ZTSSt23enable_shared_from_thisIN7asiopal13IAsyncChannelEE
	.weak	_ZGVN4asio6detail12service_baseINS0_14strand_serviceEE2idE
	.section	.bss._ZGVN4asio6detail12service_baseINS0_14strand_serviceEE2idE,"awG",@nobits,_ZGVN4asio6detail12service_baseINS0_14strand_serviceEE2idE,comdat
	.align	3
	.type	_ZGVN4asio6detail12service_baseINS0_14strand_serviceEE2idE, %gnu_unique_object
	.size	_ZGVN4asio6detail12service_baseINS0_14strand_serviceEE2idE, 8
_ZGVN4asio6detail12service_baseINS0_14strand_serviceEE2idE:
	.zero	8
	.weak	_ZGVN4asio6detail10call_stackINS0_14strand_service11strand_implEhE4top_E
	.section	.bss._ZGVN4asio6detail10call_stackINS0_14strand_service11strand_implEhE4top_E,"awG",@nobits,_ZGVN4asio6detail10call_stackINS0_14strand_service11strand_implEhE4top_E,comdat
	.align	3
	.type	_ZGVN4asio6detail10call_stackINS0_14strand_service11strand_implEhE4top_E, %gnu_unique_object
	.size	_ZGVN4asio6detail10call_stackINS0_14strand_service11strand_implEhE4top_E, 8
_ZGVN4asio6detail10call_stackINS0_14strand_service11strand_implEhE4top_E:
	.zero	8
	.weak	_ZGVN4asio6detail12service_baseINS0_15task_io_serviceEE2idE
	.section	.bss._ZGVN4asio6detail12service_baseINS0_15task_io_serviceEE2idE,"awG",@nobits,_ZGVN4asio6detail12service_baseINS0_15task_io_serviceEE2idE,comdat
	.align	3
	.type	_ZGVN4asio6detail12service_baseINS0_15task_io_serviceEE2idE, %gnu_unique_object
	.size	_ZGVN4asio6detail12service_baseINS0_15task_io_serviceEE2idE, 8
_ZGVN4asio6detail12service_baseINS0_15task_io_serviceEE2idE:
	.zero	8
	.weak	_ZGVN4asio6detail12service_baseINS0_13epoll_reactorEE2idE
	.section	.bss._ZGVN4asio6detail12service_baseINS0_13epoll_reactorEE2idE,"awG",@nobits,_ZGVN4asio6detail12service_baseINS0_13epoll_reactorEE2idE,comdat
	.align	3
	.type	_ZGVN4asio6detail12service_baseINS0_13epoll_reactorEE2idE, %gnu_unique_object
	.size	_ZGVN4asio6detail12service_baseINS0_13epoll_reactorEE2idE, 8
_ZGVN4asio6detail12service_baseINS0_13epoll_reactorEE2idE:
	.zero	8
	.weak	_ZGVN4asio6detail10call_stackINS0_15task_io_serviceENS0_27task_io_service_thread_infoEE4top_E
	.section	.bss._ZGVN4asio6detail10call_stackINS0_15task_io_serviceENS0_27task_io_service_thread_infoEE4top_E,"awG",@nobits,_ZGVN4asio6detail10call_stackINS0_15task_io_serviceENS0_27task_io_service_thread_infoEE4top_E,comdat
	.align	3
	.type	_ZGVN4asio6detail10call_stackINS0_15task_io_serviceENS0_27task_io_service_thread_infoEE4top_E, %gnu_unique_object
	.size	_ZGVN4asio6detail10call_stackINS0_15task_io_serviceENS0_27task_io_service_thread_infoEE4top_E, 8
_ZGVN4asio6detail10call_stackINS0_15task_io_serviceENS0_27task_io_service_thread_infoEE4top_E:
	.zero	8
	.weak	_ZN4asio6detail12service_baseINS0_14strand_serviceEE2idE
	.section	.bss._ZN4asio6detail12service_baseINS0_14strand_serviceEE2idE,"awG",@nobits,_ZN4asio6detail12service_baseINS0_14strand_serviceEE2idE,comdat
	.align	3
	.type	_ZN4asio6detail12service_baseINS0_14strand_serviceEE2idE, %gnu_unique_object
	.size	_ZN4asio6detail12service_baseINS0_14strand_serviceEE2idE, 1
_ZN4asio6detail12service_baseINS0_14strand_serviceEE2idE:
	.zero	1
	.weak	_ZN4asio6detail10call_stackINS0_14strand_service11strand_implEhE4top_E
	.section	.bss._ZN4asio6detail10call_stackINS0_14strand_service11strand_implEhE4top_E,"awG",@nobits,_ZN4asio6detail10call_stackINS0_14strand_service11strand_implEhE4top_E,comdat
	.align	3
	.type	_ZN4asio6detail10call_stackINS0_14strand_service11strand_implEhE4top_E, %gnu_unique_object
	.size	_ZN4asio6detail10call_stackINS0_14strand_service11strand_implEhE4top_E, 4
_ZN4asio6detail10call_stackINS0_14strand_service11strand_implEhE4top_E:
	.zero	4
	.weak	_ZN4asio6detail12service_baseINS0_15task_io_serviceEE2idE
	.section	.bss._ZN4asio6detail12service_baseINS0_15task_io_serviceEE2idE,"awG",@nobits,_ZN4asio6detail12service_baseINS0_15task_io_serviceEE2idE,comdat
	.align	3
	.type	_ZN4asio6detail12service_baseINS0_15task_io_serviceEE2idE, %gnu_unique_object
	.size	_ZN4asio6detail12service_baseINS0_15task_io_serviceEE2idE, 1
_ZN4asio6detail12service_baseINS0_15task_io_serviceEE2idE:
	.zero	1
	.weak	_ZN4asio6detail12service_baseINS0_13epoll_reactorEE2idE
	.section	.bss._ZN4asio6detail12service_baseINS0_13epoll_reactorEE2idE,"awG",@nobits,_ZN4asio6detail12service_baseINS0_13epoll_reactorEE2idE,comdat
	.align	3
	.type	_ZN4asio6detail12service_baseINS0_13epoll_reactorEE2idE, %gnu_unique_object
	.size	_ZN4asio6detail12service_baseINS0_13epoll_reactorEE2idE, 1
_ZN4asio6detail12service_baseINS0_13epoll_reactorEE2idE:
	.zero	1
	.weak	_ZN4asio6detail10call_stackINS0_15task_io_serviceENS0_27task_io_service_thread_infoEE4top_E
	.section	.bss._ZN4asio6detail10call_stackINS0_15task_io_serviceENS0_27task_io_service_thread_infoEE4top_E,"awG",@nobits,_ZN4asio6detail10call_stackINS0_15task_io_serviceENS0_27task_io_service_thread_infoEE4top_E,comdat
	.align	3
	.type	_ZN4asio6detail10call_stackINS0_15task_io_serviceENS0_27task_io_service_thread_infoEE4top_E, %gnu_unique_object
	.size	_ZN4asio6detail10call_stackINS0_15task_io_serviceENS0_27task_io_service_thread_infoEE4top_E, 4
_ZN4asio6detail10call_stackINS0_15task_io_serviceENS0_27task_io_service_thread_infoEE4top_E:
	.zero	4
	.weak	_ZTSN4asio6detail15system_categoryE
	.section	.rodata._ZTSN4asio6detail15system_categoryE,"aG",@progbits,_ZTSN4asio6detail15system_categoryE,comdat
	.align	3
	.type	_ZTSN4asio6detail15system_categoryE, %object
	.size	_ZTSN4asio6detail15system_categoryE, 32
_ZTSN4asio6detail15system_categoryE:
	.string	"N4asio6detail15system_categoryE"
	.weak	_ZTIN4asio6detail15system_categoryE
	.section	.data.rel.ro._ZTIN4asio6detail15system_categoryE,"awG",@progbits,_ZTIN4asio6detail15system_categoryE,comdat
	.align	3
	.type	_ZTIN4asio6detail15system_categoryE, %object
	.size	_ZTIN4asio6detail15system_categoryE, 24
_ZTIN4asio6detail15system_categoryE:
	.xword	_ZTVN10__cxxabiv120__si_class_type_infoE+16
	.xword	_ZTSN4asio6detail15system_categoryE
	.xword	_ZTINSt3_V214error_categoryE
	.weak	_ZTSN4asio5error6detail14netdb_categoryE
	.section	.rodata._ZTSN4asio5error6detail14netdb_categoryE,"aG",@progbits,_ZTSN4asio5error6detail14netdb_categoryE,comdat
	.align	3
	.type	_ZTSN4asio5error6detail14netdb_categoryE, %object
	.size	_ZTSN4asio5error6detail14netdb_categoryE, 37
_ZTSN4asio5error6detail14netdb_categoryE:
	.string	"N4asio5error6detail14netdb_categoryE"
	.weak	_ZTIN4asio5error6detail14netdb_categoryE
	.section	.data.rel.ro._ZTIN4asio5error6detail14netdb_categoryE,"awG",@progbits,_ZTIN4asio5error6detail14netdb_categoryE,comdat
	.align	3
	.type	_ZTIN4asio5error6detail14netdb_categoryE, %object
	.size	_ZTIN4asio5error6detail14netdb_categoryE, 24
_ZTIN4asio5error6detail14netdb_categoryE:
	.xword	_ZTVN10__cxxabiv120__si_class_type_infoE+16
	.xword	_ZTSN4asio5error6detail14netdb_categoryE
	.xword	_ZTINSt3_V214error_categoryE
	.weak	_ZTSN4asio5error6detail17addrinfo_categoryE
	.section	.rodata._ZTSN4asio5error6detail17addrinfo_categoryE,"aG",@progbits,_ZTSN4asio5error6detail17addrinfo_categoryE,comdat
	.align	3
	.type	_ZTSN4asio5error6detail17addrinfo_categoryE, %object
	.size	_ZTSN4asio5error6detail17addrinfo_categoryE, 40
_ZTSN4asio5error6detail17addrinfo_categoryE:
	.string	"N4asio5error6detail17addrinfo_categoryE"
	.weak	_ZTIN4asio5error6detail17addrinfo_categoryE
	.section	.data.rel.ro._ZTIN4asio5error6detail17addrinfo_categoryE,"awG",@progbits,_ZTIN4asio5error6detail17addrinfo_categoryE,comdat
	.align	3
	.type	_ZTIN4asio5error6detail17addrinfo_categoryE, %object
	.size	_ZTIN4asio5error6detail17addrinfo_categoryE, 24
_ZTIN4asio5error6detail17addrinfo_categoryE:
	.xword	_ZTVN10__cxxabiv120__si_class_type_infoE+16
	.xword	_ZTSN4asio5error6detail17addrinfo_categoryE
	.xword	_ZTINSt3_V214error_categoryE
	.weak	_ZTSN4asio5error6detail13misc_categoryE
	.section	.rodata._ZTSN4asio5error6detail13misc_categoryE,"aG",@progbits,_ZTSN4asio5error6detail13misc_categoryE,comdat
	.align	3
	.type	_ZTSN4asio5error6detail13misc_categoryE, %object
	.size	_ZTSN4asio5error6detail13misc_categoryE, 36
_ZTSN4asio5error6detail13misc_categoryE:
	.string	"N4asio5error6detail13misc_categoryE"
	.weak	_ZTIN4asio5error6detail13misc_categoryE
	.section	.data.rel.ro._ZTIN4asio5error6detail13misc_categoryE,"awG",@progbits,_ZTIN4asio5error6detail13misc_categoryE,comdat
	.align	3
	.type	_ZTIN4asio5error6detail13misc_categoryE, %object
	.size	_ZTIN4asio5error6detail13misc_categoryE, 24
_ZTIN4asio5error6detail13misc_categoryE:
	.xword	_ZTVN10__cxxabiv120__si_class_type_infoE+16
	.xword	_ZTSN4asio5error6detail13misc_categoryE
	.xword	_ZTINSt3_V214error_categoryE
	.weak	_ZTSN7asiopal13IAsyncChannelE
	.section	.rodata._ZTSN7asiopal13IAsyncChannelE,"aG",@progbits,_ZTSN7asiopal13IAsyncChannelE,comdat
	.align	3
	.type	_ZTSN7asiopal13IAsyncChannelE, %object
	.size	_ZTSN7asiopal13IAsyncChannelE, 26
_ZTSN7asiopal13IAsyncChannelE:
	.string	"N7asiopal13IAsyncChannelE"
	.weak	_ZTIN7asiopal13IAsyncChannelE
	.section	.data.rel.ro._ZTIN7asiopal13IAsyncChannelE,"awG",@progbits,_ZTIN7asiopal13IAsyncChannelE,comdat
	.align	3
	.type	_ZTIN7asiopal13IAsyncChannelE, %object
	.size	_ZTIN7asiopal13IAsyncChannelE, 56
_ZTIN7asiopal13IAsyncChannelE:
	.xword	_ZTVN10__cxxabiv121__vmi_class_type_infoE+16
	.xword	_ZTSN7asiopal13IAsyncChannelE
	.word	0
	.word	2
	.xword	_ZTISt23enable_shared_from_thisIN7asiopal13IAsyncChannelEE
	.xword	2050
	.xword	_ZTIN7openpal10UncopyableE
	.xword	0
	.weak	_ZTSN7asiopal13SocketChannelE
	.section	.rodata._ZTSN7asiopal13SocketChannelE,"aG",@progbits,_ZTSN7asiopal13SocketChannelE,comdat
	.align	3
	.type	_ZTSN7asiopal13SocketChannelE, %object
	.size	_ZTSN7asiopal13SocketChannelE, 26
_ZTSN7asiopal13SocketChannelE:
	.string	"N7asiopal13SocketChannelE"
	.weak	_ZTIN7asiopal13SocketChannelE
	.section	.data.rel.ro._ZTIN7asiopal13SocketChannelE,"awG",@progbits,_ZTIN7asiopal13SocketChannelE,comdat
	.align	3
	.type	_ZTIN7asiopal13SocketChannelE, %object
	.size	_ZTIN7asiopal13SocketChannelE, 24
_ZTIN7asiopal13SocketChannelE:
	.xword	_ZTVN10__cxxabiv120__si_class_type_infoE+16
	.xword	_ZTSN7asiopal13SocketChannelE
	.xword	_ZTIN7asiopal13IAsyncChannelE
	.weak	_ZTVN4asio6detail15system_categoryE
	.section	.data.rel.ro._ZTVN4asio6detail15system_categoryE,"awG",@progbits,_ZTVN4asio6detail15system_categoryE,comdat
	.align	3
	.type	_ZTVN4asio6detail15system_categoryE, %object
	.size	_ZTVN4asio6detail15system_categoryE, 80
_ZTVN4asio6detail15system_categoryE:
	.xword	0
	.xword	_ZTIN4asio6detail15system_categoryE
	.xword	_ZN4asio6detail15system_categoryD1Ev
	.xword	_ZN4asio6detail15system_categoryD0Ev
	.xword	_ZNK4asio6detail15system_category4nameEv
	.xword	_ZNKSt3_V214error_category10_M_messageB5cxx11Ei
	.xword	_ZNK4asio6detail15system_category7messageB5cxx11Ei
	.xword	_ZNKSt3_V214error_category23default_error_conditionEi
	.xword	_ZNKSt3_V214error_category10equivalentEiRKSt15error_condition
	.xword	_ZNKSt3_V214error_category10equivalentERKSt10error_codei
	.weak	_ZTVN4asio5error6detail14netdb_categoryE
	.section	.data.rel.ro._ZTVN4asio5error6detail14netdb_categoryE,"awG",@progbits,_ZTVN4asio5error6detail14netdb_categoryE,comdat
	.align	3
	.type	_ZTVN4asio5error6detail14netdb_categoryE, %object
	.size	_ZTVN4asio5error6detail14netdb_categoryE, 80
_ZTVN4asio5error6detail14netdb_categoryE:
	.xword	0
	.xword	_ZTIN4asio5error6detail14netdb_categoryE
	.xword	_ZN4asio5error6detail14netdb_categoryD1Ev
	.xword	_ZN4asio5error6detail14netdb_categoryD0Ev
	.xword	_ZNK4asio5error6detail14netdb_category4nameEv
	.xword	_ZNKSt3_V214error_category10_M_messageB5cxx11Ei
	.xword	_ZNK4asio5error6detail14netdb_category7messageB5cxx11Ei
	.xword	_ZNKSt3_V214error_category23default_error_conditionEi
	.xword	_ZNKSt3_V214error_category10equivalentEiRKSt15error_condition
	.xword	_ZNKSt3_V214error_category10equivalentERKSt10error_codei
	.weak	_ZTVN4asio5error6detail17addrinfo_categoryE
	.section	.data.rel.ro._ZTVN4asio5error6detail17addrinfo_categoryE,"awG",@progbits,_ZTVN4asio5error6detail17addrinfo_categoryE,comdat
	.align	3
	.type	_ZTVN4asio5error6detail17addrinfo_categoryE, %object
	.size	_ZTVN4asio5error6detail17addrinfo_categoryE, 80
_ZTVN4asio5error6detail17addrinfo_categoryE:
	.xword	0
	.xword	_ZTIN4asio5error6detail17addrinfo_categoryE
	.xword	_ZN4asio5error6detail17addrinfo_categoryD1Ev
	.xword	_ZN4asio5error6detail17addrinfo_categoryD0Ev
	.xword	_ZNK4asio5error6detail17addrinfo_category4nameEv
	.xword	_ZNKSt3_V214error_category10_M_messageB5cxx11Ei
	.xword	_ZNK4asio5error6detail17addrinfo_category7messageB5cxx11Ei
	.xword	_ZNKSt3_V214error_category23default_error_conditionEi
	.xword	_ZNKSt3_V214error_category10equivalentEiRKSt15error_condition
	.xword	_ZNKSt3_V214error_category10equivalentERKSt10error_codei
	.weak	_ZTVN4asio5error6detail13misc_categoryE
	.section	.data.rel.ro._ZTVN4asio5error6detail13misc_categoryE,"awG",@progbits,_ZTVN4asio5error6detail13misc_categoryE,comdat
	.align	3
	.type	_ZTVN4asio5error6detail13misc_categoryE, %object
	.size	_ZTVN4asio5error6detail13misc_categoryE, 80
_ZTVN4asio5error6detail13misc_categoryE:
	.xword	0
	.xword	_ZTIN4asio5error6detail13misc_categoryE
	.xword	_ZN4asio5error6detail13misc_categoryD1Ev
	.xword	_ZN4asio5error6detail13misc_categoryD0Ev
	.xword	_ZNK4asio5error6detail13misc_category4nameEv
	.xword	_ZNKSt3_V214error_category10_M_messageB5cxx11Ei
	.xword	_ZNK4asio5error6detail13misc_category7messageB5cxx11Ei
	.xword	_ZNKSt3_V214error_category23default_error_conditionEi
	.xword	_ZNKSt3_V214error_category10equivalentEiRKSt15error_condition
	.xword	_ZNKSt3_V214error_category10equivalentERKSt10error_codei
	.weak	_ZTVN7asiopal13IAsyncChannelE
	.section	.data.rel.ro._ZTVN7asiopal13IAsyncChannelE,"awG",@progbits,_ZTVN7asiopal13IAsyncChannelE,comdat
	.align	3
	.type	_ZTVN7asiopal13IAsyncChannelE, %object
	.size	_ZTVN7asiopal13IAsyncChannelE, 56
_ZTVN7asiopal13IAsyncChannelE:
	.xword	0
	.xword	_ZTIN7asiopal13IAsyncChannelE
	.xword	0
	.xword	0
	.xword	__cxa_pure_virtual
	.xword	__cxa_pure_virtual
	.xword	__cxa_pure_virtual
	.weak	_ZTVN7asiopal13SocketChannelE
	.section	.data.rel.ro._ZTVN7asiopal13SocketChannelE,"awG",@progbits,_ZTVN7asiopal13SocketChannelE,comdat
	.align	3
	.type	_ZTVN7asiopal13SocketChannelE, %object
	.size	_ZTVN7asiopal13SocketChannelE, 56
_ZTVN7asiopal13SocketChannelE:
	.xword	0
	.xword	_ZTIN7asiopal13SocketChannelE
	.xword	_ZN7asiopal13SocketChannelD1Ev
	.xword	_ZN7asiopal13SocketChannelD0Ev
	.xword	_ZN7asiopal13SocketChannel13BeginReadImplEN7openpal6WSliceE
	.xword	_ZN7asiopal13SocketChannel14BeginWriteImplERKN7openpal6RSliceE
	.xword	_ZN7asiopal13SocketChannel12ShutdownImplEv
	.weak	_ZGVZN4asio5error17get_misc_categoryEvE8instance
	.section	.bss._ZGVZN4asio5error17get_misc_categoryEvE8instance,"awG",@nobits,_ZGVZN4asio5error17get_misc_categoryEvE8instance,comdat
	.align	3
	.type	_ZGVZN4asio5error17get_misc_categoryEvE8instance, %gnu_unique_object
	.size	_ZGVZN4asio5error17get_misc_categoryEvE8instance, 8
_ZGVZN4asio5error17get_misc_categoryEvE8instance:
	.zero	8
	.weak	_ZZN4asio5error17get_misc_categoryEvE8instance
	.section	.data.rel._ZZN4asio5error17get_misc_categoryEvE8instance,"awG",@progbits,_ZZN4asio5error17get_misc_categoryEvE8instance,comdat
	.align	3
	.type	_ZZN4asio5error17get_misc_categoryEvE8instance, %gnu_unique_object
	.size	_ZZN4asio5error17get_misc_categoryEvE8instance, 8
_ZZN4asio5error17get_misc_categoryEvE8instance:
	.xword	_ZTVN4asio5error6detail13misc_categoryE+16
	.weak	_ZGVZN4asio5error21get_addrinfo_categoryEvE8instance
	.section	.bss._ZGVZN4asio5error21get_addrinfo_categoryEvE8instance,"awG",@nobits,_ZGVZN4asio5error21get_addrinfo_categoryEvE8instance,comdat
	.align	3
	.type	_ZGVZN4asio5error21get_addrinfo_categoryEvE8instance, %gnu_unique_object
	.size	_ZGVZN4asio5error21get_addrinfo_categoryEvE8instance, 8
_ZGVZN4asio5error21get_addrinfo_categoryEvE8instance:
	.zero	8
	.weak	_ZZN4asio5error21get_addrinfo_categoryEvE8instance
	.section	.data.rel._ZZN4asio5error21get_addrinfo_categoryEvE8instance,"awG",@progbits,_ZZN4asio5error21get_addrinfo_categoryEvE8instance,comdat
	.align	3
	.type	_ZZN4asio5error21get_addrinfo_categoryEvE8instance, %gnu_unique_object
	.size	_ZZN4asio5error21get_addrinfo_categoryEvE8instance, 8
_ZZN4asio5error21get_addrinfo_categoryEvE8instance:
	.xword	_ZTVN4asio5error6detail17addrinfo_categoryE+16
	.weak	_ZGVZN4asio5error18get_netdb_categoryEvE8instance
	.section	.bss._ZGVZN4asio5error18get_netdb_categoryEvE8instance,"awG",@nobits,_ZGVZN4asio5error18get_netdb_categoryEvE8instance,comdat
	.align	3
	.type	_ZGVZN4asio5error18get_netdb_categoryEvE8instance, %gnu_unique_object
	.size	_ZGVZN4asio5error18get_netdb_categoryEvE8instance, 8
_ZGVZN4asio5error18get_netdb_categoryEvE8instance:
	.zero	8
	.weak	_ZZN4asio5error18get_netdb_categoryEvE8instance
	.section	.data.rel._ZZN4asio5error18get_netdb_categoryEvE8instance,"awG",@progbits,_ZZN4asio5error18get_netdb_categoryEvE8instance,comdat
	.align	3
	.type	_ZZN4asio5error18get_netdb_categoryEvE8instance, %gnu_unique_object
	.size	_ZZN4asio5error18get_netdb_categoryEvE8instance, 8
_ZZN4asio5error18get_netdb_categoryEvE8instance:
	.xword	_ZTVN4asio5error6detail14netdb_categoryE+16
	.weak	_ZGVZN4asio15system_categoryEvE8instance
	.section	.bss._ZGVZN4asio15system_categoryEvE8instance,"awG",@nobits,_ZGVZN4asio15system_categoryEvE8instance,comdat
	.align	3
	.type	_ZGVZN4asio15system_categoryEvE8instance, %gnu_unique_object
	.size	_ZGVZN4asio15system_categoryEvE8instance, 8
_ZGVZN4asio15system_categoryEvE8instance:
	.zero	8
	.weak	_ZZN4asio15system_categoryEvE8instance
	.section	.data.rel._ZZN4asio15system_categoryEvE8instance,"awG",@progbits,_ZZN4asio15system_categoryEvE8instance,comdat
	.align	3
	.type	_ZZN4asio15system_categoryEvE8instance, %gnu_unique_object
	.size	_ZZN4asio15system_categoryEvE8instance, 8
_ZZN4asio15system_categoryEvE8instance:
	.xword	_ZTVN4asio6detail15system_categoryE+16
	.weak	__cxa_pure_virtual
	.hidden	DW.ref.__gxx_personality_v0
	.weak	DW.ref.__gxx_personality_v0
	.section	.data.rel.local.DW.ref.__gxx_personality_v0,"awG",@progbits,DW.ref.__gxx_personality_v0,comdat
	.align	3
	.type	DW.ref.__gxx_personality_v0, %object
	.size	DW.ref.__gxx_personality_v0, 8
DW.ref.__gxx_personality_v0:
	.xword	__gxx_personality_v0
	.hidden	__dso_handle
	.ident	"GCC: (Ubuntu 11.4.0-1ubuntu1~22.04) 11.4.0"
	.section	.note.GNU-stack,"",@progbits
