	.arch armv8-a
	.file	"TCPClient.cpp"
	.text
	.section	.rodata._ZNK4asio6detail15system_category4nameEv.str1.8,"aMS",@progbits,1
	.align	3
.LC0:
	.string	"asio.system"
	.section	.text._ZNK4asio6detail15system_category4nameEv,"axG",@progbits,_ZNK4asio6detail15system_category4nameEv,comdat
	.align	2
	.p2align 4,,11
	.weak	_ZNK4asio6detail15system_category4nameEv
	.type	_ZNK4asio6detail15system_category4nameEv, %function
_ZNK4asio6detail15system_category4nameEv:
.LFB2268:
	.cfi_startproc
	adrp	x0, .LC0
	add	x0, x0, :lo12:.LC0
	ret
	.cfi_endproc
.LFE2268:
	.size	_ZNK4asio6detail15system_category4nameEv, .-_ZNK4asio6detail15system_category4nameEv
	.section	.rodata._ZNK4asio5error6detail14netdb_category4nameEv.str1.8,"aMS",@progbits,1
	.align	3
.LC1:
	.string	"asio.netdb"
	.section	.text._ZNK4asio5error6detail14netdb_category4nameEv,"axG",@progbits,_ZNK4asio5error6detail14netdb_category4nameEv,comdat
	.align	2
	.p2align 4,,11
	.weak	_ZNK4asio5error6detail14netdb_category4nameEv
	.type	_ZNK4asio5error6detail14netdb_category4nameEv, %function
_ZNK4asio5error6detail14netdb_category4nameEv:
.LFB2289:
	.cfi_startproc
	adrp	x0, .LC1
	add	x0, x0, :lo12:.LC1
	ret
	.cfi_endproc
.LFE2289:
	.size	_ZNK4asio5error6detail14netdb_category4nameEv, .-_ZNK4asio5error6detail14netdb_category4nameEv
	.section	.rodata._ZNK4asio5error6detail17addrinfo_category4nameEv.str1.8,"aMS",@progbits,1
	.align	3
.LC2:
	.string	"asio.addrinfo"
	.section	.text._ZNK4asio5error6detail17addrinfo_category4nameEv,"axG",@progbits,_ZNK4asio5error6detail17addrinfo_category4nameEv,comdat
	.align	2
	.p2align 4,,11
	.weak	_ZNK4asio5error6detail17addrinfo_category4nameEv
	.type	_ZNK4asio5error6detail17addrinfo_category4nameEv, %function
_ZNK4asio5error6detail17addrinfo_category4nameEv:
.LFB2295:
	.cfi_startproc
	adrp	x0, .LC2
	add	x0, x0, :lo12:.LC2
	ret
	.cfi_endproc
.LFE2295:
	.size	_ZNK4asio5error6detail17addrinfo_category4nameEv, .-_ZNK4asio5error6detail17addrinfo_category4nameEv
	.section	.rodata._ZNK4asio5error6detail13misc_category4nameEv.str1.8,"aMS",@progbits,1
	.align	3
.LC3:
	.string	"asio.misc"
	.section	.text._ZNK4asio5error6detail13misc_category4nameEv,"axG",@progbits,_ZNK4asio5error6detail13misc_category4nameEv,comdat
	.align	2
	.p2align 4,,11
	.weak	_ZNK4asio5error6detail13misc_category4nameEv
	.type	_ZNK4asio5error6detail13misc_category4nameEv, %function
_ZNK4asio5error6detail13misc_category4nameEv:
.LFB2301:
	.cfi_startproc
	adrp	x0, .LC3
	add	x0, x0, :lo12:.LC3
	ret
	.cfi_endproc
.LFE2301:
	.size	_ZNK4asio5error6detail13misc_category4nameEv, .-_ZNK4asio5error6detail13misc_category4nameEv
	.section	.text._ZN4asio10io_service7service12fork_serviceENS0_10fork_eventE,"axG",@progbits,_ZN4asio10io_service7service12fork_serviceENS0_10fork_eventE,comdat
	.align	2
	.p2align 4,,11
	.weak	_ZN4asio10io_service7service12fork_serviceENS0_10fork_eventE
	.type	_ZN4asio10io_service7service12fork_serviceENS0_10fork_eventE, %function
_ZN4asio10io_service7service12fork_serviceENS0_10fork_eventE:
.LFB3417:
	.cfi_startproc
	ret
	.cfi_endproc
.LFE3417:
	.size	_ZN4asio10io_service7service12fork_serviceENS0_10fork_eventE, .-_ZN4asio10io_service7service12fork_serviceENS0_10fork_eventE
	.section	.text._ZNSt15_Sp_counted_ptrIPSt6vectorIN4asio2ip20basic_resolver_entryINS2_3tcpEEESaIS5_EELN9__gnu_cxx12_Lock_policyE2EED2Ev,"axG",@progbits,_ZNSt15_Sp_counted_ptrIPSt6vectorIN4asio2ip20basic_resolver_entryINS2_3tcpEEESaIS5_EELN9__gnu_cxx12_Lock_policyE2EED5Ev,comdat
	.align	2
	.p2align 4,,11
	.weak	_ZNSt15_Sp_counted_ptrIPSt6vectorIN4asio2ip20basic_resolver_entryINS2_3tcpEEESaIS5_EELN9__gnu_cxx12_Lock_policyE2EED2Ev
	.type	_ZNSt15_Sp_counted_ptrIPSt6vectorIN4asio2ip20basic_resolver_entryINS2_3tcpEEESaIS5_EELN9__gnu_cxx12_Lock_policyE2EED2Ev, %function
_ZNSt15_Sp_counted_ptrIPSt6vectorIN4asio2ip20basic_resolver_entryINS2_3tcpEEESaIS5_EELN9__gnu_cxx12_Lock_policyE2EED2Ev:
.LFB10136:
	.cfi_startproc
	ret
	.cfi_endproc
.LFE10136:
	.size	_ZNSt15_Sp_counted_ptrIPSt6vectorIN4asio2ip20basic_resolver_entryINS2_3tcpEEESaIS5_EELN9__gnu_cxx12_Lock_policyE2EED2Ev, .-_ZNSt15_Sp_counted_ptrIPSt6vectorIN4asio2ip20basic_resolver_entryINS2_3tcpEEESaIS5_EELN9__gnu_cxx12_Lock_policyE2EED2Ev
	.weak	_ZNSt15_Sp_counted_ptrIPSt6vectorIN4asio2ip20basic_resolver_entryINS2_3tcpEEESaIS5_EELN9__gnu_cxx12_Lock_policyE2EED1Ev
	.set	_ZNSt15_Sp_counted_ptrIPSt6vectorIN4asio2ip20basic_resolver_entryINS2_3tcpEEESaIS5_EELN9__gnu_cxx12_Lock_policyE2EED1Ev,_ZNSt15_Sp_counted_ptrIPSt6vectorIN4asio2ip20basic_resolver_entryINS2_3tcpEEESaIS5_EELN9__gnu_cxx12_Lock_policyE2EED2Ev
	.section	.text._ZN4asio6detail12posix_thread4funcINS0_21resolver_service_base22work_io_service_runnerEED2Ev,"axG",@progbits,_ZN4asio6detail12posix_thread4funcINS0_21resolver_service_base22work_io_service_runnerEED5Ev,comdat
	.align	2
	.p2align 4,,11
	.weak	_ZN4asio6detail12posix_thread4funcINS0_21resolver_service_base22work_io_service_runnerEED2Ev
	.type	_ZN4asio6detail12posix_thread4funcINS0_21resolver_service_base22work_io_service_runnerEED2Ev, %function
_ZN4asio6detail12posix_thread4funcINS0_21resolver_service_base22work_io_service_runnerEED2Ev:
.LFB10140:
	.cfi_startproc
	ret
	.cfi_endproc
.LFE10140:
	.size	_ZN4asio6detail12posix_thread4funcINS0_21resolver_service_base22work_io_service_runnerEED2Ev, .-_ZN4asio6detail12posix_thread4funcINS0_21resolver_service_base22work_io_service_runnerEED2Ev
	.weak	_ZN4asio6detail12posix_thread4funcINS0_21resolver_service_base22work_io_service_runnerEED1Ev
	.set	_ZN4asio6detail12posix_thread4funcINS0_21resolver_service_base22work_io_service_runnerEED1Ev,_ZN4asio6detail12posix_thread4funcINS0_21resolver_service_base22work_io_service_runnerEED2Ev
	.section	.text._ZN4asio21stream_socket_serviceINS_2ip3tcpEED2Ev,"axG",@progbits,_ZN4asio21stream_socket_serviceINS_2ip3tcpEED5Ev,comdat
	.align	2
	.p2align 4,,11
	.weak	_ZN4asio21stream_socket_serviceINS_2ip3tcpEED2Ev
	.type	_ZN4asio21stream_socket_serviceINS_2ip3tcpEED2Ev, %function
_ZN4asio21stream_socket_serviceINS_2ip3tcpEED2Ev:
.LFB10144:
	.cfi_startproc
	ret
	.cfi_endproc
.LFE10144:
	.size	_ZN4asio21stream_socket_serviceINS_2ip3tcpEED2Ev, .-_ZN4asio21stream_socket_serviceINS_2ip3tcpEED2Ev
	.weak	_ZN4asio21stream_socket_serviceINS_2ip3tcpEED1Ev
	.set	_ZN4asio21stream_socket_serviceINS_2ip3tcpEED1Ev,_ZN4asio21stream_socket_serviceINS_2ip3tcpEED2Ev
	.section	.text._ZN4asio6detail10service_idINS0_13epoll_reactorEED2Ev,"axG",@progbits,_ZN4asio6detail10service_idINS0_13epoll_reactorEED5Ev,comdat
	.align	2
	.p2align 4,,11
	.weak	_ZN4asio6detail10service_idINS0_13epoll_reactorEED2Ev
	.type	_ZN4asio6detail10service_idINS0_13epoll_reactorEED2Ev, %function
_ZN4asio6detail10service_idINS0_13epoll_reactorEED2Ev:
.LFB10224:
	.cfi_startproc
	ret
	.cfi_endproc
.LFE10224:
	.size	_ZN4asio6detail10service_idINS0_13epoll_reactorEED2Ev, .-_ZN4asio6detail10service_idINS0_13epoll_reactorEED2Ev
	.weak	_ZN4asio6detail10service_idINS0_13epoll_reactorEED1Ev
	.set	_ZN4asio6detail10service_idINS0_13epoll_reactorEED1Ev,_ZN4asio6detail10service_idINS0_13epoll_reactorEED2Ev
	.section	.text._ZN4asio6detail10service_idINS0_15task_io_serviceEED2Ev,"axG",@progbits,_ZN4asio6detail10service_idINS0_15task_io_serviceEED5Ev,comdat
	.align	2
	.p2align 4,,11
	.weak	_ZN4asio6detail10service_idINS0_15task_io_serviceEED2Ev
	.type	_ZN4asio6detail10service_idINS0_15task_io_serviceEED2Ev, %function
_ZN4asio6detail10service_idINS0_15task_io_serviceEED2Ev:
.LFB10227:
	.cfi_startproc
	ret
	.cfi_endproc
.LFE10227:
	.size	_ZN4asio6detail10service_idINS0_15task_io_serviceEED2Ev, .-_ZN4asio6detail10service_idINS0_15task_io_serviceEED2Ev
	.weak	_ZN4asio6detail10service_idINS0_15task_io_serviceEED1Ev
	.set	_ZN4asio6detail10service_idINS0_15task_io_serviceEED1Ev,_ZN4asio6detail10service_idINS0_15task_io_serviceEED2Ev
	.section	.text._ZN4asio6detail10service_idINS0_14strand_serviceEED2Ev,"axG",@progbits,_ZN4asio6detail10service_idINS0_14strand_serviceEED5Ev,comdat
	.align	2
	.p2align 4,,11
	.weak	_ZN4asio6detail10service_idINS0_14strand_serviceEED2Ev
	.type	_ZN4asio6detail10service_idINS0_14strand_serviceEED2Ev, %function
_ZN4asio6detail10service_idINS0_14strand_serviceEED2Ev:
.LFB10233:
	.cfi_startproc
	ret
	.cfi_endproc
.LFE10233:
	.size	_ZN4asio6detail10service_idINS0_14strand_serviceEED2Ev, .-_ZN4asio6detail10service_idINS0_14strand_serviceEED2Ev
	.weak	_ZN4asio6detail10service_idINS0_14strand_serviceEED1Ev
	.set	_ZN4asio6detail10service_idINS0_14strand_serviceEED1Ev,_ZN4asio6detail10service_idINS0_14strand_serviceEED2Ev
	.section	.text._ZN4asio6detail10service_idINS_2ip16resolver_serviceINS2_3tcpEEEED2Ev,"axG",@progbits,_ZN4asio6detail10service_idINS_2ip16resolver_serviceINS2_3tcpEEEED5Ev,comdat
	.align	2
	.p2align 4,,11
	.weak	_ZN4asio6detail10service_idINS_2ip16resolver_serviceINS2_3tcpEEEED2Ev
	.type	_ZN4asio6detail10service_idINS_2ip16resolver_serviceINS2_3tcpEEEED2Ev, %function
_ZN4asio6detail10service_idINS_2ip16resolver_serviceINS2_3tcpEEEED2Ev:
.LFB10236:
	.cfi_startproc
	ret
	.cfi_endproc
.LFE10236:
	.size	_ZN4asio6detail10service_idINS_2ip16resolver_serviceINS2_3tcpEEEED2Ev, .-_ZN4asio6detail10service_idINS_2ip16resolver_serviceINS2_3tcpEEEED2Ev
	.weak	_ZN4asio6detail10service_idINS_2ip16resolver_serviceINS2_3tcpEEEED1Ev
	.set	_ZN4asio6detail10service_idINS_2ip16resolver_serviceINS2_3tcpEEEED1Ev,_ZN4asio6detail10service_idINS_2ip16resolver_serviceINS2_3tcpEEEED2Ev
	.section	.text._ZN4asio6detail10service_idINS_21stream_socket_serviceINS_2ip3tcpEEEED2Ev,"axG",@progbits,_ZN4asio6detail10service_idINS_21stream_socket_serviceINS_2ip3tcpEEEED5Ev,comdat
	.align	2
	.p2align 4,,11
	.weak	_ZN4asio6detail10service_idINS_21stream_socket_serviceINS_2ip3tcpEEEED2Ev
	.type	_ZN4asio6detail10service_idINS_21stream_socket_serviceINS_2ip3tcpEEEED2Ev, %function
_ZN4asio6detail10service_idINS_21stream_socket_serviceINS_2ip3tcpEEEED2Ev:
.LFB10239:
	.cfi_startproc
	ret
	.cfi_endproc
.LFE10239:
	.size	_ZN4asio6detail10service_idINS_21stream_socket_serviceINS_2ip3tcpEEEED2Ev, .-_ZN4asio6detail10service_idINS_21stream_socket_serviceINS_2ip3tcpEEEED2Ev
	.weak	_ZN4asio6detail10service_idINS_21stream_socket_serviceINS_2ip3tcpEEEED1Ev
	.set	_ZN4asio6detail10service_idINS_21stream_socket_serviceINS_2ip3tcpEEEED1Ev,_ZN4asio6detail10service_idINS_21stream_socket_serviceINS_2ip3tcpEEEED2Ev
	.section	.text._ZNSt15_Sp_counted_ptrIPSt6vectorIN4asio2ip20basic_resolver_entryINS2_3tcpEEESaIS5_EELN9__gnu_cxx12_Lock_policyE2EE14_M_get_deleterERKSt9type_info,"axG",@progbits,_ZNSt15_Sp_counted_ptrIPSt6vectorIN4asio2ip20basic_resolver_entryINS2_3tcpEEESaIS5_EELN9__gnu_cxx12_Lock_policyE2EE14_M_get_deleterERKSt9type_info,comdat
	.align	2
	.p2align 4,,11
	.weak	_ZNSt15_Sp_counted_ptrIPSt6vectorIN4asio2ip20basic_resolver_entryINS2_3tcpEEESaIS5_EELN9__gnu_cxx12_Lock_policyE2EE14_M_get_deleterERKSt9type_info
	.type	_ZNSt15_Sp_counted_ptrIPSt6vectorIN4asio2ip20basic_resolver_entryINS2_3tcpEEESaIS5_EELN9__gnu_cxx12_Lock_policyE2EE14_M_get_deleterERKSt9type_info, %function
_ZNSt15_Sp_counted_ptrIPSt6vectorIN4asio2ip20basic_resolver_entryINS2_3tcpEEESaIS5_EELN9__gnu_cxx12_Lock_policyE2EE14_M_get_deleterERKSt9type_info:
.LFB10243:
	.cfi_startproc
	mov	x0, 0
	ret
	.cfi_endproc
.LFE10243:
	.size	_ZNSt15_Sp_counted_ptrIPSt6vectorIN4asio2ip20basic_resolver_entryINS2_3tcpEEESaIS5_EELN9__gnu_cxx12_Lock_policyE2EE14_M_get_deleterERKSt9type_info, .-_ZNSt15_Sp_counted_ptrIPSt6vectorIN4asio2ip20basic_resolver_entryINS2_3tcpEEESaIS5_EELN9__gnu_cxx12_Lock_policyE2EE14_M_get_deleterERKSt9type_info
	.section	.text._ZNSt19_Sp_counted_deleterIPvN4asio6detail10socket_ops12noop_deleterESaIvELN9__gnu_cxx12_Lock_policyE2EED2Ev,"axG",@progbits,_ZNSt19_Sp_counted_deleterIPvN4asio6detail10socket_ops12noop_deleterESaIvELN9__gnu_cxx12_Lock_policyE2EED5Ev,comdat
	.align	2
	.p2align 4,,11
	.weak	_ZNSt19_Sp_counted_deleterIPvN4asio6detail10socket_ops12noop_deleterESaIvELN9__gnu_cxx12_Lock_policyE2EED2Ev
	.type	_ZNSt19_Sp_counted_deleterIPvN4asio6detail10socket_ops12noop_deleterESaIvELN9__gnu_cxx12_Lock_policyE2EED2Ev, %function
_ZNSt19_Sp_counted_deleterIPvN4asio6detail10socket_ops12noop_deleterESaIvELN9__gnu_cxx12_Lock_policyE2EED2Ev:
.LFB10280:
	.cfi_startproc
	ret
	.cfi_endproc
.LFE10280:
	.size	_ZNSt19_Sp_counted_deleterIPvN4asio6detail10socket_ops12noop_deleterESaIvELN9__gnu_cxx12_Lock_policyE2EED2Ev, .-_ZNSt19_Sp_counted_deleterIPvN4asio6detail10socket_ops12noop_deleterESaIvELN9__gnu_cxx12_Lock_policyE2EED2Ev
	.weak	_ZNSt19_Sp_counted_deleterIPvN4asio6detail10socket_ops12noop_deleterESaIvELN9__gnu_cxx12_Lock_policyE2EED1Ev
	.set	_ZNSt19_Sp_counted_deleterIPvN4asio6detail10socket_ops12noop_deleterESaIvELN9__gnu_cxx12_Lock_policyE2EED1Ev,_ZNSt19_Sp_counted_deleterIPvN4asio6detail10socket_ops12noop_deleterESaIvELN9__gnu_cxx12_Lock_policyE2EED2Ev
	.section	.text._ZNSt19_Sp_counted_deleterIPvN4asio6detail10socket_ops12noop_deleterESaIvELN9__gnu_cxx12_Lock_policyE2EE10_M_disposeEv,"axG",@progbits,_ZNSt19_Sp_counted_deleterIPvN4asio6detail10socket_ops12noop_deleterESaIvELN9__gnu_cxx12_Lock_policyE2EE10_M_disposeEv,comdat
	.align	2
	.p2align 4,,11
	.weak	_ZNSt19_Sp_counted_deleterIPvN4asio6detail10socket_ops12noop_deleterESaIvELN9__gnu_cxx12_Lock_policyE2EE10_M_disposeEv
	.type	_ZNSt19_Sp_counted_deleterIPvN4asio6detail10socket_ops12noop_deleterESaIvELN9__gnu_cxx12_Lock_policyE2EE10_M_disposeEv, %function
_ZNSt19_Sp_counted_deleterIPvN4asio6detail10socket_ops12noop_deleterESaIvELN9__gnu_cxx12_Lock_policyE2EE10_M_disposeEv:
.LFB10283:
	.cfi_startproc
	ret
	.cfi_endproc
.LFE10283:
	.size	_ZNSt19_Sp_counted_deleterIPvN4asio6detail10socket_ops12noop_deleterESaIvELN9__gnu_cxx12_Lock_policyE2EE10_M_disposeEv, .-_ZNSt19_Sp_counted_deleterIPvN4asio6detail10socket_ops12noop_deleterESaIvELN9__gnu_cxx12_Lock_policyE2EE10_M_disposeEv
	.section	.text._ZN4asio21stream_socket_serviceINS_2ip3tcpEE16shutdown_serviceEv,"axG",@progbits,_ZN4asio21stream_socket_serviceINS_2ip3tcpEE16shutdown_serviceEv,comdat
	.align	2
	.p2align 4,,11
	.weak	_ZN4asio21stream_socket_serviceINS_2ip3tcpEE16shutdown_serviceEv
	.type	_ZN4asio21stream_socket_serviceINS_2ip3tcpEE16shutdown_serviceEv, %function
_ZN4asio21stream_socket_serviceINS_2ip3tcpEE16shutdown_serviceEv:
.LFB10287:
	.cfi_startproc
	ret
	.cfi_endproc
.LFE10287:
	.size	_ZN4asio21stream_socket_serviceINS_2ip3tcpEE16shutdown_serviceEv, .-_ZN4asio21stream_socket_serviceINS_2ip3tcpEE16shutdown_serviceEv
	.section	.text._ZN4asio6detail12posix_thread4funcINS0_21resolver_service_base22work_io_service_runnerEED0Ev,"axG",@progbits,_ZN4asio6detail12posix_thread4funcINS0_21resolver_service_base22work_io_service_runnerEED5Ev,comdat
	.align	2
	.p2align 4,,11
	.weak	_ZN4asio6detail12posix_thread4funcINS0_21resolver_service_base22work_io_service_runnerEED0Ev
	.type	_ZN4asio6detail12posix_thread4funcINS0_21resolver_service_base22work_io_service_runnerEED0Ev, %function
_ZN4asio6detail12posix_thread4funcINS0_21resolver_service_base22work_io_service_runnerEED0Ev:
.LFB10142:
	.cfi_startproc
	mov	x1, 16
	b	_ZdlPvm
	.cfi_endproc
.LFE10142:
	.size	_ZN4asio6detail12posix_thread4funcINS0_21resolver_service_base22work_io_service_runnerEED0Ev, .-_ZN4asio6detail12posix_thread4funcINS0_21resolver_service_base22work_io_service_runnerEED0Ev
	.section	.text._ZNSt15_Sp_counted_ptrIPSt6vectorIN4asio2ip20basic_resolver_entryINS2_3tcpEEESaIS5_EELN9__gnu_cxx12_Lock_policyE2EED0Ev,"axG",@progbits,_ZNSt15_Sp_counted_ptrIPSt6vectorIN4asio2ip20basic_resolver_entryINS2_3tcpEEESaIS5_EELN9__gnu_cxx12_Lock_policyE2EED5Ev,comdat
	.align	2
	.p2align 4,,11
	.weak	_ZNSt15_Sp_counted_ptrIPSt6vectorIN4asio2ip20basic_resolver_entryINS2_3tcpEEESaIS5_EELN9__gnu_cxx12_Lock_policyE2EED0Ev
	.type	_ZNSt15_Sp_counted_ptrIPSt6vectorIN4asio2ip20basic_resolver_entryINS2_3tcpEEESaIS5_EELN9__gnu_cxx12_Lock_policyE2EED0Ev, %function
_ZNSt15_Sp_counted_ptrIPSt6vectorIN4asio2ip20basic_resolver_entryINS2_3tcpEEESaIS5_EELN9__gnu_cxx12_Lock_policyE2EED0Ev:
.LFB10138:
	.cfi_startproc
	mov	x1, 24
	b	_ZdlPvm
	.cfi_endproc
.LFE10138:
	.size	_ZNSt15_Sp_counted_ptrIPSt6vectorIN4asio2ip20basic_resolver_entryINS2_3tcpEEESaIS5_EELN9__gnu_cxx12_Lock_policyE2EED0Ev, .-_ZNSt15_Sp_counted_ptrIPSt6vectorIN4asio2ip20basic_resolver_entryINS2_3tcpEEESaIS5_EELN9__gnu_cxx12_Lock_policyE2EED0Ev
	.section	.text._ZNSt15_Sp_counted_ptrIPSt6vectorIN4asio2ip20basic_resolver_entryINS2_3tcpEEESaIS5_EELN9__gnu_cxx12_Lock_policyE2EE10_M_destroyEv,"axG",@progbits,_ZNSt15_Sp_counted_ptrIPSt6vectorIN4asio2ip20basic_resolver_entryINS2_3tcpEEESaIS5_EELN9__gnu_cxx12_Lock_policyE2EE10_M_destroyEv,comdat
	.align	2
	.p2align 4,,11
	.weak	_ZNSt15_Sp_counted_ptrIPSt6vectorIN4asio2ip20basic_resolver_entryINS2_3tcpEEESaIS5_EELN9__gnu_cxx12_Lock_policyE2EE10_M_destroyEv
	.type	_ZNSt15_Sp_counted_ptrIPSt6vectorIN4asio2ip20basic_resolver_entryINS2_3tcpEEESaIS5_EELN9__gnu_cxx12_Lock_policyE2EE10_M_destroyEv, %function
_ZNSt15_Sp_counted_ptrIPSt6vectorIN4asio2ip20basic_resolver_entryINS2_3tcpEEESaIS5_EELN9__gnu_cxx12_Lock_policyE2EE10_M_destroyEv:
.LFB10242:
	.cfi_startproc
	mov	x1, 24
	b	_ZdlPvm
	.cfi_endproc
.LFE10242:
	.size	_ZNSt15_Sp_counted_ptrIPSt6vectorIN4asio2ip20basic_resolver_entryINS2_3tcpEEESaIS5_EELN9__gnu_cxx12_Lock_policyE2EE10_M_destroyEv, .-_ZNSt15_Sp_counted_ptrIPSt6vectorIN4asio2ip20basic_resolver_entryINS2_3tcpEEESaIS5_EELN9__gnu_cxx12_Lock_policyE2EE10_M_destroyEv
	.section	.text._ZNSt19_Sp_counted_deleterIPvN4asio6detail10socket_ops12noop_deleterESaIvELN9__gnu_cxx12_Lock_policyE2EED0Ev,"axG",@progbits,_ZNSt19_Sp_counted_deleterIPvN4asio6detail10socket_ops12noop_deleterESaIvELN9__gnu_cxx12_Lock_policyE2EED5Ev,comdat
	.align	2
	.p2align 4,,11
	.weak	_ZNSt19_Sp_counted_deleterIPvN4asio6detail10socket_ops12noop_deleterESaIvELN9__gnu_cxx12_Lock_policyE2EED0Ev
	.type	_ZNSt19_Sp_counted_deleterIPvN4asio6detail10socket_ops12noop_deleterESaIvELN9__gnu_cxx12_Lock_policyE2EED0Ev, %function
_ZNSt19_Sp_counted_deleterIPvN4asio6detail10socket_ops12noop_deleterESaIvELN9__gnu_cxx12_Lock_policyE2EED0Ev:
.LFB10282:
	.cfi_startproc
	mov	x1, 24
	b	_ZdlPvm
	.cfi_endproc
.LFE10282:
	.size	_ZNSt19_Sp_counted_deleterIPvN4asio6detail10socket_ops12noop_deleterESaIvELN9__gnu_cxx12_Lock_policyE2EED0Ev, .-_ZNSt19_Sp_counted_deleterIPvN4asio6detail10socket_ops12noop_deleterESaIvELN9__gnu_cxx12_Lock_policyE2EED0Ev
	.section	.text._ZN4asio21stream_socket_serviceINS_2ip3tcpEED0Ev,"axG",@progbits,_ZN4asio21stream_socket_serviceINS_2ip3tcpEED5Ev,comdat
	.align	2
	.p2align 4,,11
	.weak	_ZN4asio21stream_socket_serviceINS_2ip3tcpEED0Ev
	.type	_ZN4asio21stream_socket_serviceINS_2ip3tcpEED0Ev, %function
_ZN4asio21stream_socket_serviceINS_2ip3tcpEED0Ev:
.LFB10146:
	.cfi_startproc
	mov	x1, 48
	b	_ZdlPvm
	.cfi_endproc
.LFE10146:
	.size	_ZN4asio21stream_socket_serviceINS_2ip3tcpEED0Ev, .-_ZN4asio21stream_socket_serviceINS_2ip3tcpEED0Ev
	.section	.text._ZNSt19_Sp_counted_deleterIPvN4asio6detail10socket_ops12noop_deleterESaIvELN9__gnu_cxx12_Lock_policyE2EE10_M_destroyEv,"axG",@progbits,_ZNSt19_Sp_counted_deleterIPvN4asio6detail10socket_ops12noop_deleterESaIvELN9__gnu_cxx12_Lock_policyE2EE10_M_destroyEv,comdat
	.align	2
	.p2align 4,,11
	.weak	_ZNSt19_Sp_counted_deleterIPvN4asio6detail10socket_ops12noop_deleterESaIvELN9__gnu_cxx12_Lock_policyE2EE10_M_destroyEv
	.type	_ZNSt19_Sp_counted_deleterIPvN4asio6detail10socket_ops12noop_deleterESaIvELN9__gnu_cxx12_Lock_policyE2EE10_M_destroyEv, %function
_ZNSt19_Sp_counted_deleterIPvN4asio6detail10socket_ops12noop_deleterESaIvELN9__gnu_cxx12_Lock_policyE2EE10_M_destroyEv:
.LFB10284:
	.cfi_startproc
	mov	x1, 24
	b	_ZdlPvm
	.cfi_endproc
.LFE10284:
	.size	_ZNSt19_Sp_counted_deleterIPvN4asio6detail10socket_ops12noop_deleterESaIvELN9__gnu_cxx12_Lock_policyE2EE10_M_destroyEv, .-_ZNSt19_Sp_counted_deleterIPvN4asio6detail10socket_ops12noop_deleterESaIvELN9__gnu_cxx12_Lock_policyE2EE10_M_destroyEv
	.section	.text._ZN4asio6detail15system_categoryD2Ev,"axG",@progbits,_ZN4asio6detail15system_categoryD5Ev,comdat
	.align	2
	.p2align 4,,11
	.weak	_ZN4asio6detail15system_categoryD2Ev
	.type	_ZN4asio6detail15system_categoryD2Ev, %function
_ZN4asio6detail15system_categoryD2Ev:
.LFB10200:
	.cfi_startproc
	adrp	x1, :got:_ZTVN4asio6detail15system_categoryE
	ldr	x1, [x1, #:got_lo12:_ZTVN4asio6detail15system_categoryE]
	add	x1, x1, 16
	str	x1, [x0]
	b	_ZNSt3_V214error_categoryD2Ev
	.cfi_endproc
.LFE10200:
	.size	_ZN4asio6detail15system_categoryD2Ev, .-_ZN4asio6detail15system_categoryD2Ev
	.weak	_ZN4asio6detail15system_categoryD1Ev
	.set	_ZN4asio6detail15system_categoryD1Ev,_ZN4asio6detail15system_categoryD2Ev
	.section	.text._ZN4asio6detail15system_categoryD0Ev,"axG",@progbits,_ZN4asio6detail15system_categoryD5Ev,comdat
	.align	2
	.p2align 4,,11
	.weak	_ZN4asio6detail15system_categoryD0Ev
	.type	_ZN4asio6detail15system_categoryD0Ev, %function
_ZN4asio6detail15system_categoryD0Ev:
.LFB10202:
	.cfi_startproc
	stp	x29, x30, [sp, -32]!
	.cfi_def_cfa_offset 32
	.cfi_offset 29, -32
	.cfi_offset 30, -24
	adrp	x1, :got:_ZTVN4asio6detail15system_categoryE
	mov	x29, sp
	ldr	x1, [x1, #:got_lo12:_ZTVN4asio6detail15system_categoryE]
	str	x19, [sp, 16]
	.cfi_offset 19, -16
	mov	x19, x0
	add	x1, x1, 16
	str	x1, [x0]
	bl	_ZNSt3_V214error_categoryD2Ev
	mov	x0, x19
	mov	x1, 8
	ldr	x19, [sp, 16]
	ldp	x29, x30, [sp], 32
	.cfi_restore 30
	.cfi_restore 29
	.cfi_restore 19
	.cfi_def_cfa_offset 0
	b	_ZdlPvm
	.cfi_endproc
.LFE10202:
	.size	_ZN4asio6detail15system_categoryD0Ev, .-_ZN4asio6detail15system_categoryD0Ev
	.section	.text._ZN4asio5error6detail13misc_categoryD2Ev,"axG",@progbits,_ZN4asio5error6detail13misc_categoryD5Ev,comdat
	.align	2
	.p2align 4,,11
	.weak	_ZN4asio5error6detail13misc_categoryD2Ev
	.type	_ZN4asio5error6detail13misc_categoryD2Ev, %function
_ZN4asio5error6detail13misc_categoryD2Ev:
.LFB10188:
	.cfi_startproc
	adrp	x1, :got:_ZTVN4asio5error6detail13misc_categoryE
	ldr	x1, [x1, #:got_lo12:_ZTVN4asio5error6detail13misc_categoryE]
	add	x1, x1, 16
	str	x1, [x0]
	b	_ZNSt3_V214error_categoryD2Ev
	.cfi_endproc
.LFE10188:
	.size	_ZN4asio5error6detail13misc_categoryD2Ev, .-_ZN4asio5error6detail13misc_categoryD2Ev
	.weak	_ZN4asio5error6detail13misc_categoryD1Ev
	.set	_ZN4asio5error6detail13misc_categoryD1Ev,_ZN4asio5error6detail13misc_categoryD2Ev
	.section	.text._ZN4asio5error6detail13misc_categoryD0Ev,"axG",@progbits,_ZN4asio5error6detail13misc_categoryD5Ev,comdat
	.align	2
	.p2align 4,,11
	.weak	_ZN4asio5error6detail13misc_categoryD0Ev
	.type	_ZN4asio5error6detail13misc_categoryD0Ev, %function
_ZN4asio5error6detail13misc_categoryD0Ev:
.LFB10190:
	.cfi_startproc
	stp	x29, x30, [sp, -32]!
	.cfi_def_cfa_offset 32
	.cfi_offset 29, -32
	.cfi_offset 30, -24
	adrp	x1, :got:_ZTVN4asio5error6detail13misc_categoryE
	mov	x29, sp
	ldr	x1, [x1, #:got_lo12:_ZTVN4asio5error6detail13misc_categoryE]
	str	x19, [sp, 16]
	.cfi_offset 19, -16
	mov	x19, x0
	add	x1, x1, 16
	str	x1, [x0]
	bl	_ZNSt3_V214error_categoryD2Ev
	mov	x0, x19
	mov	x1, 8
	ldr	x19, [sp, 16]
	ldp	x29, x30, [sp], 32
	.cfi_restore 30
	.cfi_restore 29
	.cfi_restore 19
	.cfi_def_cfa_offset 0
	b	_ZdlPvm
	.cfi_endproc
.LFE10190:
	.size	_ZN4asio5error6detail13misc_categoryD0Ev, .-_ZN4asio5error6detail13misc_categoryD0Ev
	.section	.text._ZN4asio5error6detail14netdb_categoryD2Ev,"axG",@progbits,_ZN4asio5error6detail14netdb_categoryD5Ev,comdat
	.align	2
	.p2align 4,,11
	.weak	_ZN4asio5error6detail14netdb_categoryD2Ev
	.type	_ZN4asio5error6detail14netdb_categoryD2Ev, %function
_ZN4asio5error6detail14netdb_categoryD2Ev:
.LFB10196:
	.cfi_startproc
	adrp	x1, :got:_ZTVN4asio5error6detail14netdb_categoryE
	ldr	x1, [x1, #:got_lo12:_ZTVN4asio5error6detail14netdb_categoryE]
	add	x1, x1, 16
	str	x1, [x0]
	b	_ZNSt3_V214error_categoryD2Ev
	.cfi_endproc
.LFE10196:
	.size	_ZN4asio5error6detail14netdb_categoryD2Ev, .-_ZN4asio5error6detail14netdb_categoryD2Ev
	.weak	_ZN4asio5error6detail14netdb_categoryD1Ev
	.set	_ZN4asio5error6detail14netdb_categoryD1Ev,_ZN4asio5error6detail14netdb_categoryD2Ev
	.section	.text._ZN4asio5error6detail14netdb_categoryD0Ev,"axG",@progbits,_ZN4asio5error6detail14netdb_categoryD5Ev,comdat
	.align	2
	.p2align 4,,11
	.weak	_ZN4asio5error6detail14netdb_categoryD0Ev
	.type	_ZN4asio5error6detail14netdb_categoryD0Ev, %function
_ZN4asio5error6detail14netdb_categoryD0Ev:
.LFB10198:
	.cfi_startproc
	stp	x29, x30, [sp, -32]!
	.cfi_def_cfa_offset 32
	.cfi_offset 29, -32
	.cfi_offset 30, -24
	adrp	x1, :got:_ZTVN4asio5error6detail14netdb_categoryE
	mov	x29, sp
	ldr	x1, [x1, #:got_lo12:_ZTVN4asio5error6detail14netdb_categoryE]
	str	x19, [sp, 16]
	.cfi_offset 19, -16
	mov	x19, x0
	add	x1, x1, 16
	str	x1, [x0]
	bl	_ZNSt3_V214error_categoryD2Ev
	mov	x0, x19
	mov	x1, 8
	ldr	x19, [sp, 16]
	ldp	x29, x30, [sp], 32
	.cfi_restore 30
	.cfi_restore 29
	.cfi_restore 19
	.cfi_def_cfa_offset 0
	b	_ZdlPvm
	.cfi_endproc
.LFE10198:
	.size	_ZN4asio5error6detail14netdb_categoryD0Ev, .-_ZN4asio5error6detail14netdb_categoryD0Ev
	.section	.text._ZN4asio5error6detail17addrinfo_categoryD2Ev,"axG",@progbits,_ZN4asio5error6detail17addrinfo_categoryD5Ev,comdat
	.align	2
	.p2align 4,,11
	.weak	_ZN4asio5error6detail17addrinfo_categoryD2Ev
	.type	_ZN4asio5error6detail17addrinfo_categoryD2Ev, %function
_ZN4asio5error6detail17addrinfo_categoryD2Ev:
.LFB10192:
	.cfi_startproc
	adrp	x1, :got:_ZTVN4asio5error6detail17addrinfo_categoryE
	ldr	x1, [x1, #:got_lo12:_ZTVN4asio5error6detail17addrinfo_categoryE]
	add	x1, x1, 16
	str	x1, [x0]
	b	_ZNSt3_V214error_categoryD2Ev
	.cfi_endproc
.LFE10192:
	.size	_ZN4asio5error6detail17addrinfo_categoryD2Ev, .-_ZN4asio5error6detail17addrinfo_categoryD2Ev
	.weak	_ZN4asio5error6detail17addrinfo_categoryD1Ev
	.set	_ZN4asio5error6detail17addrinfo_categoryD1Ev,_ZN4asio5error6detail17addrinfo_categoryD2Ev
	.section	.text._ZN4asio5error6detail17addrinfo_categoryD0Ev,"axG",@progbits,_ZN4asio5error6detail17addrinfo_categoryD5Ev,comdat
	.align	2
	.p2align 4,,11
	.weak	_ZN4asio5error6detail17addrinfo_categoryD0Ev
	.type	_ZN4asio5error6detail17addrinfo_categoryD0Ev, %function
_ZN4asio5error6detail17addrinfo_categoryD0Ev:
.LFB10194:
	.cfi_startproc
	stp	x29, x30, [sp, -32]!
	.cfi_def_cfa_offset 32
	.cfi_offset 29, -32
	.cfi_offset 30, -24
	adrp	x1, :got:_ZTVN4asio5error6detail17addrinfo_categoryE
	mov	x29, sp
	ldr	x1, [x1, #:got_lo12:_ZTVN4asio5error6detail17addrinfo_categoryE]
	str	x19, [sp, 16]
	.cfi_offset 19, -16
	mov	x19, x0
	add	x1, x1, 16
	str	x1, [x0]
	bl	_ZNSt3_V214error_categoryD2Ev
	mov	x0, x19
	mov	x1, 8
	ldr	x19, [sp, 16]
	ldp	x29, x30, [sp], 32
	.cfi_restore 30
	.cfi_restore 29
	.cfi_restore 19
	.cfi_def_cfa_offset 0
	b	_ZdlPvm
	.cfi_endproc
.LFE10194:
	.size	_ZN4asio5error6detail17addrinfo_categoryD0Ev, .-_ZN4asio5error6detail17addrinfo_categoryD0Ev
	.section	.text._ZN4asio6detail15task_io_service16shutdown_serviceEv,"axG",@progbits,_ZN4asio6detail15task_io_service16shutdown_serviceEv,comdat
	.align	2
	.p2align 4,,11
	.weak	_ZN4asio6detail15task_io_service16shutdown_serviceEv
	.type	_ZN4asio6detail15task_io_service16shutdown_serviceEv, %function
_ZN4asio6detail15task_io_service16shutdown_serviceEv:
.LFB3345:
	.cfi_startproc
	stp	x29, x30, [sp, -96]!
	.cfi_def_cfa_offset 96
	.cfi_offset 29, -96
	.cfi_offset 30, -88
	adrp	x1, :got:__stack_chk_guard
	mov	x29, sp
	ldr	x1, [x1, #:got_lo12:__stack_chk_guard]
	stp	x19, x20, [sp, 16]
	.cfi_offset 19, -80
	.cfi_offset 20, -72
	add	x19, x0, 48
	stp	x21, x22, [sp, 32]
	.cfi_offset 21, -64
	.cfi_offset 22, -56
	mov	x22, x0
	add	x20, x22, 200
	stp	x23, x24, [sp, 48]
	.cfi_offset 23, -48
	.cfi_offset 24, -40
	mov	x0, x19
	add	x23, sp, 72
	ldr	x2, [x1]
	str	x2, [sp, 88]
	mov	x2, 0
	add	x21, x22, 160
	bl	pthread_mutex_lock
	mov	w0, 1
	strb	w0, [x22, 217]
	mov	x0, x19
	bl	pthread_mutex_unlock
	ldr	x19, [x20]
.L42:
	cbz	x19, .L46
	.p2align 3,,7
.L43:
	ldr	x1, [x19]
	str	x1, [x20]
	cbz	x1, .L47
	str	xzr, [x19]
	cmp	x19, x21
	bne	.L40
.L41:
	mov	x19, x1
	cbnz	x19, .L43
.L46:
	adrp	x0, :got:__stack_chk_guard
	str	xzr, [x22, 152]
	ldr	x0, [x0, #:got_lo12:__stack_chk_guard]
	ldr	x2, [sp, 88]
	ldr	x1, [x0]
	subs	x2, x2, x1
	mov	x1, 0
	bne	.L48
	ldp	x19, x20, [sp, 16]
	ldp	x21, x22, [sp, 32]
	ldp	x23, x24, [sp, 48]
	ldp	x29, x30, [sp], 96
	.cfi_remember_state
	.cfi_restore 30
	.cfi_restore 29
	.cfi_restore 23
	.cfi_restore 24
	.cfi_restore 21
	.cfi_restore 22
	.cfi_restore 19
	.cfi_restore 20
	.cfi_def_cfa_offset 0
	ret
	.p2align 2,,3
.L47:
	.cfi_restore_state
	str	xzr, [x20, 8]
	str	xzr, [x19]
	cmp	x19, x21
	beq	.L41
.L40:
	ldr	x24, [x19, 8]
	str	wzr, [sp, 72]
	bl	_ZNSt3_V215system_categoryEv
	str	x0, [sp, 80]
	mov	x1, x19
	mov	x2, x23
	mov	x3, 0
	mov	x0, 0
	blr	x24
	ldr	x19, [x20]
	b	.L42
.L48:
	bl	__stack_chk_fail
	.cfi_endproc
.LFE3345:
	.size	_ZN4asio6detail15task_io_service16shutdown_serviceEv, .-_ZN4asio6detail15task_io_service16shutdown_serviceEv
	.section	.text._ZN4asio6detail7tss_ptrINS0_10call_stackINS0_15task_io_serviceENS0_27task_io_service_thread_infoEE7contextEED2Ev,"axG",@progbits,_ZN4asio6detail7tss_ptrINS0_10call_stackINS0_15task_io_serviceENS0_27task_io_service_thread_infoEE7contextEED5Ev,comdat
	.align	2
	.p2align 4,,11
	.weak	_ZN4asio6detail7tss_ptrINS0_10call_stackINS0_15task_io_serviceENS0_27task_io_service_thread_infoEE7contextEED2Ev
	.type	_ZN4asio6detail7tss_ptrINS0_10call_stackINS0_15task_io_serviceENS0_27task_io_service_thread_infoEE7contextEED2Ev, %function
_ZN4asio6detail7tss_ptrINS0_10call_stackINS0_15task_io_serviceENS0_27task_io_service_thread_infoEE7contextEED2Ev:
.LFB10221:
	.cfi_startproc
	ldr	w0, [x0]
	b	pthread_key_delete
	.cfi_endproc
.LFE10221:
	.size	_ZN4asio6detail7tss_ptrINS0_10call_stackINS0_15task_io_serviceENS0_27task_io_service_thread_infoEE7contextEED2Ev, .-_ZN4asio6detail7tss_ptrINS0_10call_stackINS0_15task_io_serviceENS0_27task_io_service_thread_infoEE7contextEED2Ev
	.weak	_ZN4asio6detail7tss_ptrINS0_10call_stackINS0_15task_io_serviceENS0_27task_io_service_thread_infoEE7contextEED1Ev
	.set	_ZN4asio6detail7tss_ptrINS0_10call_stackINS0_15task_io_serviceENS0_27task_io_service_thread_infoEE7contextEED1Ev,_ZN4asio6detail7tss_ptrINS0_10call_stackINS0_15task_io_serviceENS0_27task_io_service_thread_infoEE7contextEED2Ev
	.section	.text._ZN4asio6detail7tss_ptrINS0_10call_stackINS0_14strand_service11strand_implEhE7contextEED2Ev,"axG",@progbits,_ZN4asio6detail7tss_ptrINS0_10call_stackINS0_14strand_service11strand_implEhE7contextEED5Ev,comdat
	.align	2
	.p2align 4,,11
	.weak	_ZN4asio6detail7tss_ptrINS0_10call_stackINS0_14strand_service11strand_implEhE7contextEED2Ev
	.type	_ZN4asio6detail7tss_ptrINS0_10call_stackINS0_14strand_service11strand_implEhE7contextEED2Ev, %function
_ZN4asio6detail7tss_ptrINS0_10call_stackINS0_14strand_service11strand_implEhE7contextEED2Ev:
.LFB10230:
	.cfi_startproc
	ldr	w0, [x0]
	b	pthread_key_delete
	.cfi_endproc
.LFE10230:
	.size	_ZN4asio6detail7tss_ptrINS0_10call_stackINS0_14strand_service11strand_implEhE7contextEED2Ev, .-_ZN4asio6detail7tss_ptrINS0_10call_stackINS0_14strand_service11strand_implEhE7contextEED2Ev
	.weak	_ZN4asio6detail7tss_ptrINS0_10call_stackINS0_14strand_service11strand_implEhE7contextEED1Ev
	.set	_ZN4asio6detail7tss_ptrINS0_10call_stackINS0_14strand_service11strand_implEhE7contextEED1Ev,_ZN4asio6detail7tss_ptrINS0_10call_stackINS0_14strand_service11strand_implEhE7contextEED2Ev
	.section	.rodata.str1.8,"aMS",@progbits,1
	.align	3
.LC4:
	.string	"basic_string::_M_construct null not valid"
	.text
	.align	2
	.p2align 4,,11
	.type	_ZNSt7__cxx1112basic_stringIcSt11char_traitsIcESaIcEEC2EPKcRKS3_.constprop.0, %function
_ZNSt7__cxx1112basic_stringIcSt11char_traitsIcESaIcEEC2EPKcRKS3_.constprop.0:
.LFB10365:
	.cfi_startproc
	stp	x29, x30, [sp, -64]!
	.cfi_def_cfa_offset 64
	.cfi_offset 29, -64
	.cfi_offset 30, -56
	adrp	x2, :got:__stack_chk_guard
	mov	x29, sp
	ldr	x2, [x2, #:got_lo12:__stack_chk_guard]
	stp	x19, x20, [sp, 16]
	.cfi_offset 19, -48
	.cfi_offset 20, -40
	mov	x20, x0
	stp	x21, x22, [sp, 32]
	.cfi_offset 21, -32
	.cfi_offset 22, -24
	add	x22, x0, 16
	ldr	x0, [x2]
	str	x0, [sp, 56]
	mov	x0, 0
	str	x22, [x20]
	cbz	x1, .L52
	mov	x21, x1
	mov	x0, x1
	bl	strlen
	str	x0, [sp, 48]
	mov	x19, x0
	cmp	x0, 15
	bhi	.L64
	cmp	x0, 1
	bne	.L56
	ldrb	w0, [x21]
	strb	w0, [x20, 16]
.L57:
	adrp	x0, :got:__stack_chk_guard
	str	x19, [x20, 8]
	strb	wzr, [x22, x19]
	ldr	x0, [x0, #:got_lo12:__stack_chk_guard]
	ldr	x2, [sp, 56]
	ldr	x1, [x0]
	subs	x2, x2, x1
	mov	x1, 0
	bne	.L65
	ldp	x19, x20, [sp, 16]
	ldp	x21, x22, [sp, 32]
	ldp	x29, x30, [sp], 64
	.cfi_remember_state
	.cfi_restore 30
	.cfi_restore 29
	.cfi_restore 21
	.cfi_restore 22
	.cfi_restore 19
	.cfi_restore 20
	.cfi_def_cfa_offset 0
	ret
	.p2align 2,,3
.L56:
	.cfi_restore_state
	cbz	x0, .L57
	b	.L55
	.p2align 2,,3
.L64:
	add	x1, sp, 48
	mov	x0, x20
	mov	x2, 0
	bl	_ZNSt7__cxx1112basic_stringIcSt11char_traitsIcESaIcEE9_M_createERmm
	mov	x22, x0
	str	x0, [x20]
	ldr	x1, [sp, 48]
	str	x1, [x20, 16]
.L55:
	mov	x2, x19
	mov	x0, x22
	mov	x1, x21
	bl	memcpy
	ldr	x22, [x20]
	ldr	x19, [sp, 48]
	b	.L57
.L65:
	bl	__stack_chk_fail
.L52:
	adrp	x0, .LC4
	add	x0, x0, :lo12:.LC4
	bl	_ZSt19__throw_logic_errorPKc
	.cfi_endproc
.LFE10365:
	.size	_ZNSt7__cxx1112basic_stringIcSt11char_traitsIcESaIcEEC2EPKcRKS3_.constprop.0, .-_ZNSt7__cxx1112basic_stringIcSt11char_traitsIcESaIcEEC2EPKcRKS3_.constprop.0
	.section	.text.unlikely,"ax",@progbits
	.align	2
	.type	_ZN4asio6detail15throw_exceptionISt8bad_castEEvRKT_.isra.0, %function
_ZN4asio6detail15throw_exceptionISt8bad_castEEvRKT_.isra.0:
.LFB10368:
	.cfi_startproc
	stp	x29, x30, [sp, -16]!
	.cfi_def_cfa_offset 16
	.cfi_offset 29, -16
	.cfi_offset 30, -8
	mov	x0, 8
	mov	x29, sp
	bl	__cxa_allocate_exception
	adrp	x3, :got:_ZTVSt8bad_cast
	adrp	x2, :got:_ZNSt8bad_castD1Ev
	adrp	x1, :got:_ZTISt8bad_cast
	ldr	x3, [x3, #:got_lo12:_ZTVSt8bad_cast]
	ldr	x2, [x2, #:got_lo12:_ZNSt8bad_castD1Ev]
	add	x3, x3, 16
	ldr	x1, [x1, #:got_lo12:_ZTISt8bad_cast]
	str	x3, [x0]
	bl	__cxa_throw
	.cfi_endproc
.LFE10368:
	.size	_ZN4asio6detail15throw_exceptionISt8bad_castEEvRKT_.isra.0, .-_ZN4asio6detail15throw_exceptionISt8bad_castEEvRKT_.isra.0
	.text
	.align	2
	.p2align 4,,11
	.type	_ZNSt7__cxx1112basic_stringIcSt11char_traitsIcESaIcEE12_M_constructIPcEEvT_S7_St20forward_iterator_tag.constprop.0, %function
_ZNSt7__cxx1112basic_stringIcSt11char_traitsIcESaIcEE12_M_constructIPcEEvT_S7_St20forward_iterator_tag.constprop.0:
.LFB10369:
	.cfi_startproc
	stp	x29, x30, [sp, -64]!
	.cfi_def_cfa_offset 64
	.cfi_offset 29, -64
	.cfi_offset 30, -56
	adrp	x3, :got:__stack_chk_guard
	cmp	x2, 0
	mov	x29, sp
	ldr	x3, [x3, #:got_lo12:__stack_chk_guard]
	stp	x19, x20, [sp, 16]
	str	x21, [sp, 32]
	.cfi_offset 19, -48
	.cfi_offset 20, -40
	.cfi_offset 21, -32
	mov	x21, x1
	ccmp	x21, 0, 0, ne
	ldr	x1, [x3]
	str	x1, [sp, 56]
	mov	x1, 0
	beq	.L79
	sub	x19, x2, x21
	str	x19, [sp, 48]
	mov	x20, x0
	cmp	x19, 15
	bhi	.L80
	ldr	x0, [x0]
	cmp	x19, 1
	bne	.L72
	ldrb	w1, [x21]
	strb	w1, [x0]
	ldr	x0, [x20]
	ldr	x19, [sp, 48]
.L73:
	adrp	x1, :got:__stack_chk_guard
	str	x19, [x20, 8]
	ldr	x1, [x1, #:got_lo12:__stack_chk_guard]
	strb	wzr, [x0, x19]
	ldr	x0, [sp, 56]
	ldr	x2, [x1]
	subs	x0, x0, x2
	mov	x2, 0
	bne	.L81
	ldp	x19, x20, [sp, 16]
	ldr	x21, [sp, 32]
	ldp	x29, x30, [sp], 64
	.cfi_remember_state
	.cfi_restore 30
	.cfi_restore 29
	.cfi_restore 21
	.cfi_restore 19
	.cfi_restore 20
	.cfi_def_cfa_offset 0
	ret
	.p2align 2,,3
.L72:
	.cfi_restore_state
	cbz	x19, .L73
	b	.L71
	.p2align 2,,3
.L80:
	add	x1, sp, 48
	mov	x2, 0
	bl	_ZNSt7__cxx1112basic_stringIcSt11char_traitsIcESaIcEE9_M_createERmm
	str	x0, [x20]
	ldr	x1, [sp, 48]
	str	x1, [x20, 16]
.L71:
	mov	x2, x19
	mov	x1, x21
	bl	memcpy
	ldr	x0, [x20]
	ldr	x19, [sp, 48]
	b	.L73
.L81:
	bl	__stack_chk_fail
.L79:
	adrp	x0, .LC4
	add	x0, x0, :lo12:.LC4
	bl	_ZSt19__throw_logic_errorPKc
	.cfi_endproc
.LFE10369:
	.size	_ZNSt7__cxx1112basic_stringIcSt11char_traitsIcESaIcEE12_M_constructIPcEEvT_S7_St20forward_iterator_tag.constprop.0, .-_ZNSt7__cxx1112basic_stringIcSt11char_traitsIcESaIcEE12_M_constructIPcEEvT_S7_St20forward_iterator_tag.constprop.0
	.section	.text._ZNSt19_Sp_counted_deleterIPvN4asio6detail10socket_ops12noop_deleterESaIvELN9__gnu_cxx12_Lock_policyE2EE14_M_get_deleterERKSt9type_info,"axG",@progbits,_ZNSt19_Sp_counted_deleterIPvN4asio6detail10socket_ops12noop_deleterESaIvELN9__gnu_cxx12_Lock_policyE2EE14_M_get_deleterERKSt9type_info,comdat
	.align	2
	.p2align 4,,11
	.weak	_ZNSt19_Sp_counted_deleterIPvN4asio6detail10socket_ops12noop_deleterESaIvELN9__gnu_cxx12_Lock_policyE2EE14_M_get_deleterERKSt9type_info
	.type	_ZNSt19_Sp_counted_deleterIPvN4asio6detail10socket_ops12noop_deleterESaIvELN9__gnu_cxx12_Lock_policyE2EE14_M_get_deleterERKSt9type_info, %function
_ZNSt19_Sp_counted_deleterIPvN4asio6detail10socket_ops12noop_deleterESaIvELN9__gnu_cxx12_Lock_policyE2EE14_M_get_deleterERKSt9type_info:
.LFB10285:
	.cfi_startproc
	stp	x29, x30, [sp, -32]!
	.cfi_def_cfa_offset 32
	.cfi_offset 29, -32
	.cfi_offset 30, -24
	adrp	x2, :got:_ZTSN4asio6detail10socket_ops12noop_deleterE
	mov	x29, sp
	ldr	x2, [x2, #:got_lo12:_ZTSN4asio6detail10socket_ops12noop_deleterE]
	stp	x19, x20, [sp, 16]
	.cfi_offset 19, -16
	.cfi_offset 20, -8
	mov	x19, x0
	ldr	x0, [x1, 8]
	cmp	x0, x2
	beq	.L83
	ldrb	w1, [x0]
	mov	x20, 0
	cmp	w1, 42
	beq	.L82
	mov	x1, x2
	bl	strcmp
	cbnz	w0, .L82
.L83:
	add	x20, x19, 16
.L82:
	mov	x0, x20
	ldp	x19, x20, [sp, 16]
	ldp	x29, x30, [sp], 32
	.cfi_restore 30
	.cfi_restore 29
	.cfi_restore 19
	.cfi_restore 20
	.cfi_def_cfa_offset 0
	ret
	.cfi_endproc
.LFE10285:
	.size	_ZNSt19_Sp_counted_deleterIPvN4asio6detail10socket_ops12noop_deleterESaIvELN9__gnu_cxx12_Lock_policyE2EE14_M_get_deleterERKSt9type_info, .-_ZNSt19_Sp_counted_deleterIPvN4asio6detail10socket_ops12noop_deleterESaIvELN9__gnu_cxx12_Lock_policyE2EE14_M_get_deleterERKSt9type_info
	.section	.text._ZN4asio6detail13epoll_reactorD2Ev,"axG",@progbits,_ZN4asio6detail13epoll_reactorD5Ev,comdat
	.align	2
	.p2align 4,,11
	.weak	_ZN4asio6detail13epoll_reactorD2Ev
	.type	_ZN4asio6detail13epoll_reactorD2Ev, %function
_ZN4asio6detail13epoll_reactorD2Ev:
.LFB3294:
	.cfi_startproc
	.cfi_personality 0x9b,DW.ref.__gxx_personality_v0
	.cfi_lsda 0x1b,.LLSDA3294
	stp	x29, x30, [sp, -128]!
	.cfi_def_cfa_offset 128
	.cfi_offset 29, -128
	.cfi_offset 30, -120
	adrp	x2, :got:__stack_chk_guard
	adrp	x1, :got:_ZTVN4asio6detail13epoll_reactorE
	mov	x29, sp
	ldr	x2, [x2, #:got_lo12:__stack_chk_guard]
	stp	x19, x20, [sp, 16]
	stp	x21, x22, [sp, 32]
	.cfi_offset 19, -112
	.cfi_offset 20, -104
	.cfi_offset 21, -96
	.cfi_offset 22, -88
	mov	x21, x0
	stp	x23, x24, [sp, 48]
	str	x25, [sp, 64]
	.cfi_offset 23, -80
	.cfi_offset 24, -72
	.cfi_offset 25, -64
	ldr	x1, [x1, #:got_lo12:_ZTVN4asio6detail13epoll_reactorE]
	ldr	x0, [x2]
	str	x0, [sp, 120]
	mov	x0, 0
	ldr	w0, [x21, 104]
	add	x1, x1, 16
	str	x1, [x21]
	cmn	w0, #1
	beq	.L90
	bl	close
.L90:
	ldr	w0, [x21, 108]
	cmn	w0, #1
	beq	.L91
	bl	close
.L91:
	ldr	x24, [x21, 176]
	add	x22, sp, 104
	cbz	x24, .L102
	.p2align 3,,7
.L92:
	mov	x23, x24
	add	x19, x24, 136
	add	x25, x24, 88
	ldr	x24, [x24, 24]
.L97:
	ldr	x1, [x19]
	cbz	x1, .L99
	str	x1, [sp, 88]
	bl	_ZNSt3_V215system_categoryEv
	mov	x20, x0
	ldr	x1, [sp, 88]
	b	.L101
	.p2align 2,,3
.L98:
	ldr	x4, [x1, 8]
	str	xzr, [x1]
	str	wzr, [sp, 104]
	mov	x2, x22
	str	x20, [sp, 112]
	mov	x3, 0
	mov	x0, 0
	blr	x4
	ldr	x1, [x19]
	cbz	x1, .L99
.L101:
	ldr	x2, [x1]
	str	x2, [x19]
	cbnz	x2, .L98
	ldr	x4, [x1, 8]
	str	xzr, [x19, 8]
	str	xzr, [x1]
	mov	x2, x22
	str	wzr, [sp, 104]
	mov	x3, 0
	str	x20, [sp, 112]
	mov	x0, 0
	blr	x4
	ldr	x1, [x19]
	cbnz	x1, .L101
.L99:
	sub	x19, x19, #16
	cmp	x19, x25
	bne	.L97
	add	x0, x23, 40
	bl	pthread_mutex_destroy
	mov	x0, x23
	mov	x1, 160
	bl	_ZdlPvm
	cbnz	x24, .L92
.L102:
	ldr	x24, [x21, 184]
	add	x22, sp, 104
	cbz	x24, .L94
	.p2align 3,,7
.L93:
	mov	x23, x24
	add	x19, x24, 136
	add	x25, x24, 88
	ldr	x24, [x24, 24]
.L107:
	ldr	x1, [x19]
	cbz	x1, .L109
	str	x1, [sp, 88]
	bl	_ZNSt3_V215system_categoryEv
	mov	x20, x0
	ldr	x1, [sp, 88]
	b	.L111
	.p2align 2,,3
.L108:
	ldr	x4, [x1, 8]
	str	xzr, [x1]
	str	wzr, [sp, 104]
	mov	x2, x22
	str	x20, [sp, 112]
	mov	x3, 0
	mov	x0, 0
	blr	x4
	ldr	x1, [x19]
	cbz	x1, .L109
.L111:
	ldr	x2, [x1]
	str	x2, [x19]
	cbnz	x2, .L108
	ldr	x4, [x1, 8]
	str	xzr, [x19, 8]
	str	xzr, [x1]
	mov	x2, x22
	str	wzr, [sp, 104]
	mov	x3, 0
	str	x20, [sp, 112]
	mov	x0, 0
	blr	x4
	ldr	x1, [x19]
	cbnz	x1, .L111
.L109:
	sub	x19, x19, #16
	cmp	x19, x25
	bne	.L107
	add	x0, x23, 40
	bl	pthread_mutex_destroy
	mov	x0, x23
	mov	x1, 160
	bl	_ZdlPvm
	cbnz	x24, .L93
.L94:
	add	x0, x21, 128
	bl	pthread_mutex_destroy
	ldr	w1, [x21, 100]
	cmn	w1, #1
	beq	.L148
	ldr	w0, [x21, 96]
	cmp	w1, w0
	bne	.L149
.L113:
	bl	close
	b	.L114
.L149:
	mov	w0, w1
	bl	close
.L148:
	ldr	w0, [x21, 96]
	cmn	w0, #1
	bne	.L113
.L114:
	adrp	x0, :got:__stack_chk_guard
	ldr	x0, [x0, #:got_lo12:__stack_chk_guard]
	ldr	x2, [sp, 120]
	ldr	x1, [x0]
	subs	x2, x2, x1
	mov	x1, 0
	bne	.L150
	add	x0, x21, 48
	ldp	x19, x20, [sp, 16]
	ldp	x21, x22, [sp, 32]
	ldp	x23, x24, [sp, 48]
	ldr	x25, [sp, 64]
	ldp	x29, x30, [sp], 128
	.cfi_remember_state
	.cfi_restore 30
	.cfi_restore 29
	.cfi_restore 25
	.cfi_restore 23
	.cfi_restore 24
	.cfi_restore 21
	.cfi_restore 22
	.cfi_restore 19
	.cfi_restore 20
	.cfi_def_cfa_offset 0
	b	pthread_mutex_destroy
.L150:
	.cfi_restore_state
	bl	__stack_chk_fail
	.cfi_endproc
.LFE3294:
	.global	__gxx_personality_v0
	.section	.gcc_except_table._ZN4asio6detail13epoll_reactorD2Ev,"aG",@progbits,_ZN4asio6detail13epoll_reactorD5Ev,comdat
.LLSDA3294:
	.byte	0xff
	.byte	0xff
	.byte	0x1
	.uleb128 .LLSDACSE3294-.LLSDACSB3294
.LLSDACSB3294:
.LLSDACSE3294:
	.section	.text._ZN4asio6detail13epoll_reactorD2Ev,"axG",@progbits,_ZN4asio6detail13epoll_reactorD5Ev,comdat
	.size	_ZN4asio6detail13epoll_reactorD2Ev, .-_ZN4asio6detail13epoll_reactorD2Ev
	.weak	_ZN4asio6detail13epoll_reactorD1Ev
	.set	_ZN4asio6detail13epoll_reactorD1Ev,_ZN4asio6detail13epoll_reactorD2Ev
	.section	.text._ZN4asio6detail13epoll_reactorD0Ev,"axG",@progbits,_ZN4asio6detail13epoll_reactorD5Ev,comdat
	.align	2
	.p2align 4,,11
	.weak	_ZN4asio6detail13epoll_reactorD0Ev
	.type	_ZN4asio6detail13epoll_reactorD0Ev, %function
_ZN4asio6detail13epoll_reactorD0Ev:
.LFB3296:
	.cfi_startproc
	.cfi_personality 0x9b,DW.ref.__gxx_personality_v0
	.cfi_lsda 0x1b,.LLSDA3296
	stp	x29, x30, [sp, -128]!
	.cfi_def_cfa_offset 128
	.cfi_offset 29, -128
	.cfi_offset 30, -120
	adrp	x2, :got:__stack_chk_guard
	adrp	x1, :got:_ZTVN4asio6detail13epoll_reactorE
	mov	x29, sp
	ldr	x2, [x2, #:got_lo12:__stack_chk_guard]
	stp	x19, x20, [sp, 16]
	stp	x21, x22, [sp, 32]
	.cfi_offset 19, -112
	.cfi_offset 20, -104
	.cfi_offset 21, -96
	.cfi_offset 22, -88
	mov	x21, x0
	stp	x23, x24, [sp, 48]
	str	x25, [sp, 64]
	.cfi_offset 23, -80
	.cfi_offset 24, -72
	.cfi_offset 25, -64
	ldr	x1, [x1, #:got_lo12:_ZTVN4asio6detail13epoll_reactorE]
	ldr	x0, [x2]
	str	x0, [sp, 120]
	mov	x0, 0
	ldr	w0, [x21, 104]
	add	x1, x1, 16
	str	x1, [x21]
	cmn	w0, #1
	beq	.L152
	bl	close
.L152:
	ldr	w0, [x21, 108]
	cmn	w0, #1
	beq	.L153
	bl	close
.L153:
	ldr	x24, [x21, 176]
	add	x22, sp, 104
	cbz	x24, .L164
	.p2align 3,,7
.L154:
	mov	x23, x24
	add	x19, x24, 152
	add	x25, x24, 104
	ldr	x24, [x24, 24]
.L159:
	ldr	x1, [x19, -16]!
	cbz	x1, .L161
	str	x1, [sp, 88]
	bl	_ZNSt3_V215system_categoryEv
	mov	x20, x0
	ldr	x1, [sp, 88]
	b	.L163
	.p2align 2,,3
.L160:
	ldr	x4, [x1, 8]
	str	xzr, [x1]
	str	wzr, [sp, 104]
	mov	x2, x22
	str	x20, [sp, 112]
	mov	x3, 0
	mov	x0, 0
	blr	x4
	ldr	x1, [x19]
	cbz	x1, .L161
.L163:
	ldr	x2, [x1]
	str	x2, [x19]
	cbnz	x2, .L160
	ldr	x4, [x1, 8]
	str	xzr, [x19, 8]
	str	xzr, [x1]
	mov	x2, x22
	str	wzr, [sp, 104]
	mov	x3, 0
	str	x20, [sp, 112]
	mov	x0, 0
	blr	x4
	ldr	x1, [x19]
	cbnz	x1, .L163
.L161:
	cmp	x19, x25
	bne	.L159
	add	x0, x23, 40
	bl	pthread_mutex_destroy
	mov	x0, x23
	mov	x1, 160
	bl	_ZdlPvm
	cbnz	x24, .L154
.L164:
	ldr	x24, [x21, 184]
	add	x22, sp, 104
	cbz	x24, .L156
	.p2align 3,,7
.L155:
	mov	x23, x24
	add	x19, x24, 136
	add	x25, x24, 88
	ldr	x24, [x24, 24]
.L169:
	ldr	x1, [x19]
	cbz	x1, .L171
	str	x1, [sp, 88]
	bl	_ZNSt3_V215system_categoryEv
	mov	x20, x0
	ldr	x1, [sp, 88]
	b	.L173
	.p2align 2,,3
.L170:
	ldr	x4, [x1, 8]
	str	xzr, [x1]
	str	wzr, [sp, 104]
	mov	x2, x22
	str	x20, [sp, 112]
	mov	x3, 0
	mov	x0, 0
	blr	x4
	ldr	x1, [x19]
	cbz	x1, .L171
.L173:
	ldr	x2, [x1]
	str	x2, [x19]
	cbnz	x2, .L170
	ldr	x4, [x1, 8]
	str	xzr, [x19, 8]
	str	xzr, [x1]
	mov	x2, x22
	str	wzr, [sp, 104]
	mov	x3, 0
	str	x20, [sp, 112]
	mov	x0, 0
	blr	x4
	ldr	x1, [x19]
	cbnz	x1, .L173
.L171:
	sub	x19, x19, #16
	cmp	x19, x25
	bne	.L169
	add	x0, x23, 40
	bl	pthread_mutex_destroy
	mov	x0, x23
	mov	x1, 160
	bl	_ZdlPvm
	cbnz	x24, .L155
.L156:
	add	x0, x21, 128
	bl	pthread_mutex_destroy
	ldr	w1, [x21, 100]
	cmn	w1, #1
	beq	.L210
	ldr	w0, [x21, 96]
	cmp	w1, w0
	bne	.L211
.L175:
	bl	close
	b	.L176
.L211:
	mov	w0, w1
	bl	close
.L210:
	ldr	w0, [x21, 96]
	cmn	w0, #1
	bne	.L175
.L176:
	add	x0, x21, 48
	bl	pthread_mutex_destroy
	adrp	x0, :got:__stack_chk_guard
	ldr	x0, [x0, #:got_lo12:__stack_chk_guard]
	ldr	x2, [sp, 120]
	ldr	x1, [x0]
	subs	x2, x2, x1
	mov	x1, 0
	bne	.L212
	mov	x0, x21
	mov	x1, 192
	ldp	x19, x20, [sp, 16]
	ldp	x21, x22, [sp, 32]
	ldp	x23, x24, [sp, 48]
	ldr	x25, [sp, 64]
	ldp	x29, x30, [sp], 128
	.cfi_remember_state
	.cfi_restore 30
	.cfi_restore 29
	.cfi_restore 25
	.cfi_restore 23
	.cfi_restore 24
	.cfi_restore 21
	.cfi_restore 22
	.cfi_restore 19
	.cfi_restore 20
	.cfi_def_cfa_offset 0
	b	_ZdlPvm
.L212:
	.cfi_restore_state
	bl	__stack_chk_fail
	.cfi_endproc
.LFE3296:
	.section	.gcc_except_table._ZN4asio6detail13epoll_reactorD0Ev,"aG",@progbits,_ZN4asio6detail13epoll_reactorD5Ev,comdat
.LLSDA3296:
	.byte	0xff
	.byte	0xff
	.byte	0x1
	.uleb128 .LLSDACSE3296-.LLSDACSB3296
.LLSDACSB3296:
.LLSDACSE3296:
	.section	.text._ZN4asio6detail13epoll_reactorD0Ev,"axG",@progbits,_ZN4asio6detail13epoll_reactorD5Ev,comdat
	.size	_ZN4asio6detail13epoll_reactorD0Ev, .-_ZN4asio6detail13epoll_reactorD0Ev
	.section	.text._ZNSt15_Sp_counted_ptrIPSt6vectorIN4asio2ip20basic_resolver_entryINS2_3tcpEEESaIS5_EELN9__gnu_cxx12_Lock_policyE2EE10_M_disposeEv,"axG",@progbits,_ZNSt15_Sp_counted_ptrIPSt6vectorIN4asio2ip20basic_resolver_entryINS2_3tcpEEESaIS5_EELN9__gnu_cxx12_Lock_policyE2EE10_M_disposeEv,comdat
	.align	2
	.p2align 4,,11
	.weak	_ZNSt15_Sp_counted_ptrIPSt6vectorIN4asio2ip20basic_resolver_entryINS2_3tcpEEESaIS5_EELN9__gnu_cxx12_Lock_policyE2EE10_M_disposeEv
	.type	_ZNSt15_Sp_counted_ptrIPSt6vectorIN4asio2ip20basic_resolver_entryINS2_3tcpEEESaIS5_EELN9__gnu_cxx12_Lock_policyE2EE10_M_disposeEv, %function
_ZNSt15_Sp_counted_ptrIPSt6vectorIN4asio2ip20basic_resolver_entryINS2_3tcpEEESaIS5_EELN9__gnu_cxx12_Lock_policyE2EE10_M_disposeEv:
.LFB10241:
	.cfi_startproc
	stp	x29, x30, [sp, -48]!
	.cfi_def_cfa_offset 48
	.cfi_offset 29, -48
	.cfi_offset 30, -40
	mov	x29, sp
	str	x21, [sp, 32]
	.cfi_offset 21, -16
	ldr	x21, [x0, 16]
	cbz	x21, .L213
	stp	x19, x20, [sp, 16]
	.cfi_offset 20, -24
	.cfi_offset 19, -32
	ldp	x19, x20, [x21]
	cmp	x19, x20
	beq	.L215
	.p2align 3,,7
.L220:
	ldr	x0, [x19, 64]
	add	x1, x19, 80
	cmp	x0, x1
	beq	.L216
	ldr	x1, [x19, 80]
	add	x1, x1, 1
	bl	_ZdlPvm
.L216:
	ldr	x0, [x19, 32]
	add	x1, x19, 48
	cmp	x0, x1
	beq	.L217
	ldr	x1, [x19, 48]
	add	x19, x19, 96
	add	x1, x1, 1
	bl	_ZdlPvm
	cmp	x20, x19
	bne	.L220
	ldr	x20, [x21]
.L215:
	cbz	x20, .L221
	ldr	x1, [x21, 16]
	mov	x0, x20
	sub	x1, x1, x20
	bl	_ZdlPvm
.L221:
	mov	x0, x21
	mov	x1, 24
	ldp	x19, x20, [sp, 16]
	.cfi_remember_state
	.cfi_restore 20
	.cfi_restore 19
	ldr	x21, [sp, 32]
	ldp	x29, x30, [sp], 48
	.cfi_restore 30
	.cfi_restore 29
	.cfi_restore 21
	.cfi_def_cfa_offset 0
	b	_ZdlPvm
	.p2align 2,,3
.L217:
	.cfi_restore_state
	add	x19, x19, 96
	cmp	x20, x19
	bne	.L220
	ldr	x20, [x21]
	b	.L215
	.p2align 2,,3
.L213:
	.cfi_restore 19
	.cfi_restore 20
	ldr	x21, [sp, 32]
	ldp	x29, x30, [sp], 48
	.cfi_restore 30
	.cfi_restore 29
	.cfi_restore 21
	.cfi_def_cfa_offset 0
	ret
	.cfi_endproc
.LFE10241:
	.size	_ZNSt15_Sp_counted_ptrIPSt6vectorIN4asio2ip20basic_resolver_entryINS2_3tcpEEESaIS5_EELN9__gnu_cxx12_Lock_policyE2EE10_M_disposeEv, .-_ZNSt15_Sp_counted_ptrIPSt6vectorIN4asio2ip20basic_resolver_entryINS2_3tcpEEESaIS5_EELN9__gnu_cxx12_Lock_policyE2EE10_M_disposeEv
	.section	.text._ZN4asio6detail15task_io_serviceD2Ev,"axG",@progbits,_ZN4asio6detail15task_io_serviceD5Ev,comdat
	.align	2
	.p2align 4,,11
	.weak	_ZN4asio6detail15task_io_serviceD2Ev
	.type	_ZN4asio6detail15task_io_serviceD2Ev, %function
_ZN4asio6detail15task_io_serviceD2Ev:
.LFB10176:
	.cfi_startproc
	.cfi_personality 0x9b,DW.ref.__gxx_personality_v0
	.cfi_lsda 0x1b,.LLSDA10176
	stp	x29, x30, [sp, -96]!
	.cfi_def_cfa_offset 96
	.cfi_offset 29, -96
	.cfi_offset 30, -88
	adrp	x1, :got:__stack_chk_guard
	mov	x29, sp
	ldr	x1, [x1, #:got_lo12:__stack_chk_guard]
	stp	x21, x22, [sp, 32]
	.cfi_offset 21, -64
	.cfi_offset 22, -56
	mov	x22, x0
	adrp	x0, :got:_ZTVN4asio6detail15task_io_serviceE
	ldr	x2, [x1]
	str	x2, [sp, 88]
	mov	x2, 0
	ldr	x0, [x0, #:got_lo12:_ZTVN4asio6detail15task_io_serviceE]
	ldr	x1, [x22, 200]
	add	x0, x0, 16
	str	x0, [x22]
	str	x1, [sp, 56]
	cbz	x1, .L227
	stp	x19, x20, [sp, 16]
	.cfi_offset 20, -72
	.cfi_offset 19, -80
	bl	_ZNSt3_V215system_categoryEv
	add	x19, x22, 200
	mov	x20, x0
	add	x21, sp, 72
	ldr	x1, [sp, 56]
	b	.L230
	.p2align 2,,3
.L228:
	ldr	x4, [x1, 8]
	str	xzr, [x1]
	str	wzr, [sp, 72]
	mov	x2, x21
	str	x20, [sp, 80]
	mov	x3, 0
	mov	x0, 0
	blr	x4
	ldr	x1, [x19]
	cbz	x1, .L246
.L230:
	ldr	x3, [x1]
	str	x3, [x19]
	cbnz	x3, .L228
	ldr	x4, [x1, 8]
	str	xzr, [x19, 8]
	str	xzr, [x1]
	mov	x2, x21
	str	wzr, [sp, 72]
	mov	x0, 0
	str	x20, [sp, 80]
	blr	x4
	ldr	x1, [x19]
	cbnz	x1, .L230
.L246:
	ldp	x19, x20, [sp, 16]
	.cfi_restore 20
	.cfi_restore 19
.L227:
	add	x0, x22, 96
	bl	pthread_cond_destroy
	adrp	x0, :got:__stack_chk_guard
	ldr	x0, [x0, #:got_lo12:__stack_chk_guard]
	ldr	x2, [sp, 88]
	ldr	x1, [x0]
	subs	x2, x2, x1
	mov	x1, 0
	bne	.L247
	add	x0, x22, 48
	ldp	x21, x22, [sp, 32]
	ldp	x29, x30, [sp], 96
	.cfi_remember_state
	.cfi_restore 30
	.cfi_restore 29
	.cfi_restore 21
	.cfi_restore 22
	.cfi_def_cfa_offset 0
	b	pthread_mutex_destroy
.L247:
	.cfi_restore_state
	stp	x19, x20, [sp, 16]
	.cfi_offset 20, -72
	.cfi_offset 19, -80
	bl	__stack_chk_fail
	.cfi_endproc
.LFE10176:
	.section	.gcc_except_table._ZN4asio6detail15task_io_serviceD2Ev,"aG",@progbits,_ZN4asio6detail15task_io_serviceD5Ev,comdat
.LLSDA10176:
	.byte	0xff
	.byte	0xff
	.byte	0x1
	.uleb128 .LLSDACSE10176-.LLSDACSB10176
.LLSDACSB10176:
.LLSDACSE10176:
	.section	.text._ZN4asio6detail15task_io_serviceD2Ev,"axG",@progbits,_ZN4asio6detail15task_io_serviceD5Ev,comdat
	.size	_ZN4asio6detail15task_io_serviceD2Ev, .-_ZN4asio6detail15task_io_serviceD2Ev
	.weak	_ZN4asio6detail15task_io_serviceD1Ev
	.set	_ZN4asio6detail15task_io_serviceD1Ev,_ZN4asio6detail15task_io_serviceD2Ev
	.section	.text._ZN4asio6detail15task_io_serviceD0Ev,"axG",@progbits,_ZN4asio6detail15task_io_serviceD5Ev,comdat
	.align	2
	.p2align 4,,11
	.weak	_ZN4asio6detail15task_io_serviceD0Ev
	.type	_ZN4asio6detail15task_io_serviceD0Ev, %function
_ZN4asio6detail15task_io_serviceD0Ev:
.LFB10178:
	.cfi_startproc
	.cfi_personality 0x9b,DW.ref.__gxx_personality_v0
	.cfi_lsda 0x1b,.LLSDA10178
	stp	x29, x30, [sp, -96]!
	.cfi_def_cfa_offset 96
	.cfi_offset 29, -96
	.cfi_offset 30, -88
	adrp	x1, :got:__stack_chk_guard
	mov	x29, sp
	ldr	x1, [x1, #:got_lo12:__stack_chk_guard]
	stp	x21, x22, [sp, 32]
	.cfi_offset 21, -64
	.cfi_offset 22, -56
	mov	x22, x0
	adrp	x0, :got:_ZTVN4asio6detail15task_io_serviceE
	ldr	x2, [x1]
	str	x2, [sp, 88]
	mov	x2, 0
	ldr	x0, [x0, #:got_lo12:_ZTVN4asio6detail15task_io_serviceE]
	ldr	x1, [x22, 200]
	add	x0, x0, 16
	str	x0, [x22]
	str	x1, [sp, 56]
	cbz	x1, .L249
	stp	x19, x20, [sp, 16]
	.cfi_offset 20, -72
	.cfi_offset 19, -80
	bl	_ZNSt3_V215system_categoryEv
	add	x19, x22, 200
	mov	x20, x0
	add	x21, sp, 72
	ldr	x1, [sp, 56]
	b	.L252
	.p2align 2,,3
.L250:
	ldr	x4, [x1, 8]
	str	xzr, [x1]
	str	wzr, [sp, 72]
	mov	x2, x21
	str	x20, [sp, 80]
	mov	x3, 0
	mov	x0, 0
	blr	x4
	ldr	x1, [x19]
	cbz	x1, .L268
.L252:
	ldr	x3, [x1]
	str	x3, [x19]
	cbnz	x3, .L250
	ldr	x4, [x1, 8]
	str	xzr, [x19, 8]
	str	xzr, [x1]
	mov	x2, x21
	str	wzr, [sp, 72]
	mov	x0, 0
	str	x20, [sp, 80]
	blr	x4
	ldr	x1, [x19]
	cbnz	x1, .L252
.L268:
	ldp	x19, x20, [sp, 16]
	.cfi_restore 20
	.cfi_restore 19
.L249:
	add	x0, x22, 96
	bl	pthread_cond_destroy
	add	x0, x22, 48
	bl	pthread_mutex_destroy
	adrp	x0, :got:__stack_chk_guard
	ldr	x0, [x0, #:got_lo12:__stack_chk_guard]
	ldr	x2, [sp, 88]
	ldr	x1, [x0]
	subs	x2, x2, x1
	mov	x1, 0
	bne	.L269
	mov	x0, x22
	mov	x1, 224
	ldp	x21, x22, [sp, 32]
	ldp	x29, x30, [sp], 96
	.cfi_remember_state
	.cfi_restore 30
	.cfi_restore 29
	.cfi_restore 21
	.cfi_restore 22
	.cfi_def_cfa_offset 0
	b	_ZdlPvm
.L269:
	.cfi_restore_state
	stp	x19, x20, [sp, 16]
	.cfi_offset 20, -72
	.cfi_offset 19, -80
	bl	__stack_chk_fail
	.cfi_endproc
.LFE10178:
	.section	.gcc_except_table._ZN4asio6detail15task_io_serviceD0Ev,"aG",@progbits,_ZN4asio6detail15task_io_serviceD5Ev,comdat
.LLSDA10178:
	.byte	0xff
	.byte	0xff
	.byte	0x1
	.uleb128 .LLSDACSE10178-.LLSDACSB10178
.LLSDACSB10178:
.LLSDACSE10178:
	.section	.text._ZN4asio6detail15task_io_serviceD0Ev,"axG",@progbits,_ZN4asio6detail15task_io_serviceD5Ev,comdat
	.size	_ZN4asio6detail15task_io_serviceD0Ev, .-_ZN4asio6detail15task_io_serviceD0Ev
	.section	.text._ZN4asio6detail13epoll_reactor16shutdown_serviceEv,"axG",@progbits,_ZN4asio6detail13epoll_reactor16shutdown_serviceEv,comdat
	.align	2
	.p2align 4,,11
	.weak	_ZN4asio6detail13epoll_reactor16shutdown_serviceEv
	.type	_ZN4asio6detail13epoll_reactor16shutdown_serviceEv, %function
_ZN4asio6detail13epoll_reactor16shutdown_serviceEv:
.LFB3297:
	.cfi_startproc
	.cfi_personality 0x9b,DW.ref.__gxx_personality_v0
	.cfi_lsda 0x1b,.LLSDA3297
	stp	x29, x30, [sp, -112]!
	.cfi_def_cfa_offset 112
	.cfi_offset 29, -112
	.cfi_offset 30, -104
	adrp	x1, :got:__stack_chk_guard
	mov	x29, sp
	ldr	x1, [x1, #:got_lo12:__stack_chk_guard]
	stp	x19, x20, [sp, 16]
	.cfi_offset 19, -96
	.cfi_offset 20, -88
	mov	x20, x0
	stp	x21, x22, [sp, 32]
	.cfi_offset 21, -80
	.cfi_offset 22, -72
	add	x21, x0, 48
	mov	x0, x21
	ldr	x2, [x1]
	str	x2, [sp, 104]
	mov	x2, 0
	mov	w19, 1
	bl	pthread_mutex_lock
	strb	w19, [x20, 120]
	mov	x0, x21
	bl	pthread_mutex_unlock
	movi	v0.4s, 0
	mov	x2, x20
	ldr	x1, [x2, 176]!
	str	q0, [sp, 64]
	cbz	x1, .L288
	.p2align 3,,7
.L271:
	ldr	x3, [x1, 104]
	cbz	x3, .L274
	ldr	x4, [sp, 72]
	cbz	x4, .L339
	str	x3, [x4]
.L277:
	ldr	x3, [x1, 112]
	str	x3, [sp, 72]
	str	q0, [x1, 104]
.L274:
	ldr	x3, [x1, 120]
	cbz	x3, .L278
	ldr	x4, [sp, 72]
	cbz	x4, .L340
	str	x3, [x4]
.L281:
	ldr	x3, [x1, 128]
	str	x3, [sp, 72]
	str	q0, [x1, 120]
.L278:
	ldr	x3, [x1, 136]
	cbz	x3, .L282
	ldr	x4, [sp, 72]
	cbz	x4, .L341
	str	x3, [x4]
.L285:
	ldr	x3, [x1, 144]
	str	x3, [sp, 72]
	str	q0, [x1, 136]
.L282:
	strb	w19, [x1, 152]
	ldr	x3, [x1, 24]
	str	x3, [x2]
	ldr	x3, [x1, 32]
	cbz	x3, .L286
	ldr	x4, [x1, 24]
	str	x4, [x3, 24]
.L286:
	ldr	x3, [x1, 24]
	cbz	x3, .L287
	ldr	x4, [x1, 32]
	str	x4, [x3, 32]
	ldr	x3, [x2, 8]
	stp	x3, xzr, [x1, 24]
	str	x1, [x2, 8]
	ldr	x1, [x2]
	cbnz	x1, .L271
.L288:
	ldr	x19, [x20, 112]
	add	x20, sp, 64
	cbz	x19, .L273
	.p2align 3,,7
.L272:
	ldr	x2, [x19]
	mov	x1, x20
	mov	x0, x19
	ldr	x2, [x2, 48]
.LEHB0:
	blr	x2
.LEHE0:
	ldr	x19, [x19, 8]
	cbnz	x19, .L272
.L273:
	ldr	x19, [sp, 64]
	cbz	x19, .L270
	add	x20, sp, 88
	stp	xzr, xzr, [sp, 64]
	bl	_ZNSt3_V215system_categoryEv
	mov	x21, x0
	.p2align 3,,7
.L292:
	mov	x1, x19
	mov	x2, x20
	ldr	x4, [x19, 8]
	mov	x3, 0
	ldr	x19, [x19]
	str	xzr, [x1]
	str	wzr, [sp, 88]
	mov	x0, 0
	str	x21, [sp, 96]
	blr	x4
	cbnz	x19, .L292
	ldr	x1, [sp, 64]
	str	x1, [sp, 56]
	cbz	x1, .L270
	bl	_ZNSt3_V215system_categoryEv
	mov	x19, x0
	ldr	x1, [sp, 56]
	b	.L297
	.p2align 2,,3
.L294:
	ldr	x4, [x1, 8]
	str	xzr, [x1]
	str	wzr, [sp, 88]
	mov	x2, x20
	str	x19, [sp, 96]
	mov	x3, 0
	mov	x0, 0
	blr	x4
	ldr	x1, [sp, 64]
	cbz	x1, .L270
.L297:
	ldr	x2, [x1]
	str	x2, [sp, 64]
	cbnz	x2, .L294
	ldr	x4, [x1, 8]
	str	xzr, [sp, 72]
	str	xzr, [x1]
	mov	x2, x20
	str	wzr, [sp, 88]
	mov	x3, 0
	str	x19, [sp, 96]
	mov	x0, 0
	blr	x4
	ldr	x1, [sp, 64]
	cbnz	x1, .L297
.L270:
	adrp	x0, :got:__stack_chk_guard
	ldr	x0, [x0, #:got_lo12:__stack_chk_guard]
	ldr	x2, [sp, 104]
	ldr	x1, [x0]
	subs	x2, x2, x1
	mov	x1, 0
	bne	.L342
	ldp	x19, x20, [sp, 16]
	ldp	x21, x22, [sp, 32]
	ldp	x29, x30, [sp], 112
	.cfi_remember_state
	.cfi_restore 30
	.cfi_restore 29
	.cfi_restore 21
	.cfi_restore 22
	.cfi_restore 19
	.cfi_restore 20
	.cfi_def_cfa_offset 0
	ret
	.p2align 2,,3
.L287:
	.cfi_restore_state
	ldr	x0, [x2, 8]
	stp	x0, xzr, [x1, 24]
	str	x1, [x2, 8]
	ldr	x1, [x2]
	cbnz	x1, .L271
	b	.L288
	.p2align 2,,3
.L339:
	str	x3, [sp, 64]
	b	.L277
	.p2align 2,,3
.L340:
	str	x3, [sp, 64]
	b	.L281
	.p2align 2,,3
.L341:
	str	x3, [sp, 64]
	b	.L285
.L342:
	bl	__stack_chk_fail
.L302:
	add	x21, sp, 88
	mov	x20, x0
.L298:
	ldr	x19, [sp, 64]
	cbnz	x19, .L343
	mov	x0, x20
.LEHB1:
	bl	_Unwind_Resume
.LEHE1:
.L343:
	ldr	x0, [x19]
	str	x0, [sp, 64]
	cbnz	x0, .L300
	str	xzr, [sp, 72]
.L300:
	str	xzr, [x19]
	ldr	x22, [x19, 8]
	str	wzr, [sp, 88]
	bl	_ZNSt3_V215system_categoryEv
	str	x0, [sp, 96]
	mov	x1, x19
	mov	x2, x21
	mov	x3, 0
	mov	x0, 0
	blr	x22
	b	.L298
	.cfi_endproc
.LFE3297:
	.section	.gcc_except_table._ZN4asio6detail13epoll_reactor16shutdown_serviceEv,"aG",@progbits,_ZN4asio6detail13epoll_reactor16shutdown_serviceEv,comdat
.LLSDA3297:
	.byte	0xff
	.byte	0xff
	.byte	0x1
	.uleb128 .LLSDACSE3297-.LLSDACSB3297
.LLSDACSB3297:
	.uleb128 .LEHB0-.LFB3297
	.uleb128 .LEHE0-.LEHB0
	.uleb128 .L302-.LFB3297
	.uleb128 0
	.uleb128 .LEHB1-.LFB3297
	.uleb128 .LEHE1-.LEHB1
	.uleb128 0
	.uleb128 0
.LLSDACSE3297:
	.section	.text._ZN4asio6detail13epoll_reactor16shutdown_serviceEv,"axG",@progbits,_ZN4asio6detail13epoll_reactor16shutdown_serviceEv,comdat
	.size	_ZN4asio6detail13epoll_reactor16shutdown_serviceEv, .-_ZN4asio6detail13epoll_reactor16shutdown_serviceEv
	.global	__aarch64_ldadd8_acq_rel
	.section	.text._ZN4asio2ip16resolver_serviceINS0_3tcpEE16shutdown_serviceEv,"axG",@progbits,_ZN4asio2ip16resolver_serviceINS0_3tcpEE16shutdown_serviceEv,comdat
	.align	2
	.p2align 4,,11
	.weak	_ZN4asio2ip16resolver_serviceINS0_3tcpEE16shutdown_serviceEv
	.type	_ZN4asio2ip16resolver_serviceINS0_3tcpEE16shutdown_serviceEv, %function
_ZN4asio2ip16resolver_serviceINS0_3tcpEE16shutdown_serviceEv:
.LFB10288:
	.cfi_startproc
	.cfi_personality 0x9b,DW.ref.__gxx_personality_v0
	.cfi_lsda 0x1b,.LLSDA10288
	stp	x29, x30, [sp, -96]!
	.cfi_def_cfa_offset 96
	.cfi_offset 29, -96
	.cfi_offset 30, -88
	adrp	x1, :got:__stack_chk_guard
	mov	x29, sp
	ldr	x1, [x1, #:got_lo12:__stack_chk_guard]
	stp	x19, x20, [sp, 16]
	.cfi_offset 19, -80
	.cfi_offset 20, -72
	mov	x19, x0
	stp	x21, x22, [sp, 32]
	ldr	x20, [x0, 112]
	ldr	x0, [x1]
	str	x0, [sp, 88]
	mov	x0, 0
	.cfi_offset 21, -64
	.cfi_offset 22, -56
	cbz	x20, .L345
	ldr	x21, [x20]
	mov	x22, 1
	mov	x0, -1
	add	x1, x21, 192
	bl	__aarch64_ldadd8_acq_rel
	cmp	x0, x22
	beq	.L390
.L346:
	mov	x0, x20
	mov	x1, 8
	bl	_ZdlPvm
.L345:
	ldr	x0, [x19, 96]
	str	xzr, [x19, 112]
	cbz	x0, .L344
	ldr	x20, [x0, 8]
	mov	w22, 1
	add	x21, x20, 48
	mov	x0, x21
	bl	pthread_mutex_lock
	ldr	x1, [x20, 144]
	strb	w22, [x20, 216]
	add	x0, x20, 96
	orr	x1, x1, 1
	str	x1, [x0, 48]
	bl	pthread_cond_broadcast
	ldrb	w0, [x20, 184]
	cbnz	w0, .L349
	ldr	x0, [x20, 152]
	cbz	x0, .L349
	mov	w2, 9
	strb	w22, [x20, 184]
	add	x1, x0, 96
	movk	w2, 0x8000, lsl 16
	str	w2, [sp, 72]
	add	x3, sp, 72
	str	x1, [sp, 80]
	mov	w1, 3
	ldr	w2, [x0, 96]
	ldr	w0, [x0, 104]
	bl	epoll_ctl
.L349:
	mov	x0, x21
	bl	pthread_mutex_unlock
	ldr	x20, [x19, 120]
	cbz	x20, .L350
	ldrb	w0, [x20, 8]
	cbz	w0, .L391
.L351:
	mov	x0, x20
	mov	x1, 16
	bl	_ZdlPvm
.L352:
	str	xzr, [x19, 120]
.L350:
	ldr	x22, [x19, 96]
	cbz	x22, .L353
	ldr	x21, [x22]
	cbz	x21, .L354
	ldr	x20, [x21, 64]
	cbz	x20, .L356
	.p2align 3,,7
.L355:
	ldr	x1, [x20]
	mov	x0, x20
	ldr	x1, [x1, 16]
	blr	x1
	ldr	x20, [x20, 32]
	cbnz	x20, .L355
	ldr	x20, [x21, 64]
	cbz	x20, .L356
	.p2align 3,,7
.L357:
	ldr	x1, [x20]
	mov	x0, x20
	ldr	x20, [x20, 32]
	ldr	x1, [x1, 8]
	blr	x1
	str	x20, [x21, 64]
	cbnz	x20, .L357
.L356:
	add	x0, x21, 8
	bl	pthread_mutex_destroy
	mov	x0, x21
	mov	x1, 72
	bl	_ZdlPvm
.L354:
	mov	x0, x22
	mov	x1, 16
	bl	_ZdlPvm
.L353:
	str	xzr, [x19, 96]
.L344:
	adrp	x0, :got:__stack_chk_guard
	ldr	x0, [x0, #:got_lo12:__stack_chk_guard]
	ldr	x2, [sp, 88]
	ldr	x1, [x0]
	subs	x2, x2, x1
	mov	x1, 0
	bne	.L392
	ldp	x19, x20, [sp, 16]
	ldp	x21, x22, [sp, 32]
	ldp	x29, x30, [sp], 96
	.cfi_remember_state
	.cfi_restore 30
	.cfi_restore 29
	.cfi_restore 21
	.cfi_restore 22
	.cfi_restore 19
	.cfi_restore 20
	.cfi_def_cfa_offset 0
	ret
	.p2align 2,,3
.L390:
	.cfi_restore_state
	str	x23, [sp, 48]
	.cfi_offset 23, -48
	add	x23, x21, 48
	mov	x0, x23
	bl	pthread_mutex_lock
	ldr	x1, [x21, 144]
	strb	w22, [x21, 216]
	add	x0, x21, 96
	orr	x1, x1, x22
	str	x1, [x0, 48]
	bl	pthread_cond_broadcast
	ldrb	w0, [x21, 184]
	cbnz	w0, .L347
	ldr	x0, [x21, 152]
	cbz	x0, .L347
	mov	w2, 9
	strb	w22, [x21, 184]
	add	x1, x0, 96
	movk	w2, 0x8000, lsl 16
	str	w2, [sp, 72]
	add	x3, sp, 72
	str	x1, [sp, 80]
	mov	w1, 3
	ldr	w2, [x0, 96]
	ldr	w0, [x0, 104]
	bl	epoll_ctl
.L347:
	mov	x0, x23
	bl	pthread_mutex_unlock
	ldr	x23, [sp, 48]
	.cfi_restore 23
	b	.L346
	.p2align 2,,3
.L391:
	ldr	x0, [x20]
	mov	x1, 0
.LEHB2:
	bl	pthread_join
.LEHE2:
	mov	w0, 1
	strb	w0, [x20, 8]
	ldr	x20, [x19, 120]
	cbz	x20, .L352
	ldrb	w0, [x20, 8]
	cbnz	w0, .L351
	ldr	x0, [x20]
	bl	pthread_detach
	b	.L351
.L392:
	str	x23, [sp, 48]
	.cfi_offset 23, -48
	bl	__stack_chk_fail
	.cfi_endproc
.LFE10288:
	.section	.gcc_except_table._ZN4asio2ip16resolver_serviceINS0_3tcpEE16shutdown_serviceEv,"aG",@progbits,_ZN4asio2ip16resolver_serviceINS0_3tcpEE16shutdown_serviceEv,comdat
.LLSDA10288:
	.byte	0xff
	.byte	0xff
	.byte	0x1
	.uleb128 .LLSDACSE10288-.LLSDACSB10288
.LLSDACSB10288:
	.uleb128 .LEHB2-.LFB10288
	.uleb128 .LEHE2-.LEHB2
	.uleb128 0
	.uleb128 0
.LLSDACSE10288:
	.section	.text._ZN4asio2ip16resolver_serviceINS0_3tcpEE16shutdown_serviceEv,"axG",@progbits,_ZN4asio2ip16resolver_serviceINS0_3tcpEE16shutdown_serviceEv,comdat
	.size	_ZN4asio2ip16resolver_serviceINS0_3tcpEE16shutdown_serviceEv, .-_ZN4asio2ip16resolver_serviceINS0_3tcpEE16shutdown_serviceEv
	.section	.rodata._ZNK4asio6detail15system_category7messageB5cxx11Ei.str1.8,"aMS",@progbits,1
	.align	3
.LC5:
	.string	"Operation aborted."
	.section	.text._ZNK4asio6detail15system_category7messageB5cxx11Ei,"axG",@progbits,_ZNK4asio6detail15system_category7messageB5cxx11Ei,comdat
	.align	2
	.p2align 4,,11
	.weak	_ZNK4asio6detail15system_category7messageB5cxx11Ei
	.type	_ZNK4asio6detail15system_category7messageB5cxx11Ei, %function
_ZNK4asio6detail15system_category7messageB5cxx11Ei:
.LFB2269:
	.cfi_startproc
	stp	x29, x30, [sp, -320]!
	.cfi_def_cfa_offset 320
	.cfi_offset 29, -320
	.cfi_offset 30, -312
	adrp	x0, :got:__stack_chk_guard
	mov	x29, sp
	ldr	x2, [x0, #:got_lo12:__stack_chk_guard]
	stp	x19, x20, [sp, 16]
	mov	w0, w1
	stp	x21, x22, [sp, 32]
	.cfi_offset 19, -304
	.cfi_offset 20, -296
	.cfi_offset 21, -288
	.cfi_offset 22, -280
	mov	x19, x8
	add	x21, x8, 16
	ldr	x1, [x2]
	str	x1, [sp, 312]
	mov	x1, 0
	cmp	w0, 125
	beq	.L408
	movi	v0.4s, 0
	add	x3, sp, 72
	add	x1, sp, 56
	mov	x2, 256
	stp	xzr, xzr, [sp, 56]
	stp	q0, q0, [x3]
	stp	q0, q0, [x3, 32]
	stp	q0, q0, [x3, 64]
	stp	q0, q0, [x3, 96]
	stp	q0, q0, [x3, 128]
	stp	q0, q0, [x3, 160]
	stp	q0, q0, [x3, 192]
	str	q0, [x3, 224]
	bl	strerror_r
	mov	x22, x0
	str	x21, [x19]
	cbz	x0, .L396
	bl	strlen
	str	x0, [sp, 48]
	mov	x20, x0
	cmp	x0, 15
	bhi	.L409
	cmp	x0, 1
	bne	.L400
	ldrb	w0, [x22]
	strb	w0, [x19, 16]
.L401:
	str	x20, [x19, 8]
	strb	wzr, [x21, x20]
.L393:
	adrp	x0, :got:__stack_chk_guard
	ldr	x0, [x0, #:got_lo12:__stack_chk_guard]
	ldr	x2, [sp, 312]
	ldr	x1, [x0]
	subs	x2, x2, x1
	mov	x1, 0
	bne	.L410
	mov	x0, x19
	ldp	x19, x20, [sp, 16]
	ldp	x21, x22, [sp, 32]
	ldp	x29, x30, [sp], 320
	.cfi_remember_state
	.cfi_restore 30
	.cfi_restore 29
	.cfi_restore 21
	.cfi_restore 22
	.cfi_restore 19
	.cfi_restore 20
	.cfi_def_cfa_offset 0
	ret
	.p2align 2,,3
.L409:
	.cfi_restore_state
	add	x1, sp, 48
	mov	x0, x19
	mov	x2, 0
	bl	_ZNSt7__cxx1112basic_stringIcSt11char_traitsIcESaIcEE9_M_createERmm
	mov	x21, x0
	str	x0, [x19]
	ldr	x1, [sp, 48]
	str	x1, [x19, 16]
.L399:
	mov	x2, x20
	mov	x0, x21
	mov	x1, x22
	bl	memcpy
	ldr	x21, [x19]
	ldr	x20, [sp, 48]
	b	.L401
	.p2align 2,,3
.L408:
	mov	x3, 18
	str	x21, [x8]
	add	x1, sp, 48
	mov	x2, 0
	mov	x0, x8
	str	x3, [sp, 48]
	bl	_ZNSt7__cxx1112basic_stringIcSt11char_traitsIcESaIcEE9_M_createERmm
	str	x0, [x19]
	adrp	x1, .LC5
	add	x1, x1, :lo12:.LC5
	ldr	x2, [sp, 48]
	str	x2, [x19, 16]
	ldp	x2, x3, [x1]
	stp	x2, x3, [x0]
	ldrh	w1, [x1, 16]
	strh	w1, [x0, 16]
	ldr	x1, [x19]
	ldr	x0, [sp, 48]
	str	x0, [x19, 8]
	strb	wzr, [x1, x0]
	b	.L393
	.p2align 2,,3
.L400:
	cbz	x0, .L401
	b	.L399
.L396:
	adrp	x0, .LC4
	add	x0, x0, :lo12:.LC4
	bl	_ZSt19__throw_logic_errorPKc
.L410:
	bl	__stack_chk_fail
	.cfi_endproc
.LFE2269:
	.size	_ZNK4asio6detail15system_category7messageB5cxx11Ei, .-_ZNK4asio6detail15system_category7messageB5cxx11Ei
	.section	.text._ZN4asio2ip16resolver_serviceINS0_3tcpEED2Ev,"axG",@progbits,_ZN4asio2ip16resolver_serviceINS0_3tcpEED5Ev,comdat
	.align	2
	.p2align 4,,11
	.weak	_ZN4asio2ip16resolver_serviceINS0_3tcpEED2Ev
	.type	_ZN4asio2ip16resolver_serviceINS0_3tcpEED2Ev, %function
_ZN4asio2ip16resolver_serviceINS0_3tcpEED2Ev:
.LFB10148:
	.cfi_startproc
	.cfi_personality 0x9b,DW.ref.__gxx_personality_v0
	.cfi_lsda 0x1b,.LLSDA10148
	stp	x29, x30, [sp, -96]!
	.cfi_def_cfa_offset 96
	.cfi_offset 29, -96
	.cfi_offset 30, -88
	adrp	x1, :got:__stack_chk_guard
	mov	x29, sp
	stp	x19, x20, [sp, 16]
	.cfi_offset 19, -80
	.cfi_offset 20, -72
	mov	x19, x0
	adrp	x0, :got:_ZTVN4asio2ip16resolver_serviceINS0_3tcpEEE
	ldr	x1, [x1, #:got_lo12:__stack_chk_guard]
	stp	x21, x22, [sp, 32]
	ldr	x0, [x0, #:got_lo12:_ZTVN4asio2ip16resolver_serviceINS0_3tcpEEE]
	ldr	x2, [x1]
	str	x2, [sp, 88]
	mov	x2, 0
	ldr	x20, [x19, 112]
	add	x0, x0, 16
	str	x0, [x19]
	.cfi_offset 21, -64
	.cfi_offset 22, -56
	cbz	x20, .L412
	ldr	x21, [x20]
	mov	x22, 1
	mov	x0, -1
	add	x1, x21, 192
	bl	__aarch64_ldadd8_acq_rel
	cmp	x0, x22
	beq	.L482
.L413:
	mov	x0, x20
	mov	x1, 8
	bl	_ZdlPvm
.L412:
	ldr	x0, [x19, 96]
	str	xzr, [x19, 112]
	cbz	x0, .L481
	ldr	x20, [x0, 8]
	mov	w22, 1
	add	x21, x20, 48
	mov	x0, x21
	bl	pthread_mutex_lock
	ldr	x1, [x20, 144]
	strb	w22, [x20, 216]
	add	x0, x20, 96
	orr	x1, x1, 1
	str	x1, [x0, 48]
	bl	pthread_cond_broadcast
	ldrb	w0, [x20, 184]
	cbnz	w0, .L417
	ldr	x0, [x20, 152]
	cbz	x0, .L417
	mov	w2, 9
	strb	w22, [x20, 184]
	add	x1, x0, 96
	movk	w2, 0x8000, lsl 16
	str	w2, [sp, 72]
	add	x3, sp, 72
	str	x1, [sp, 80]
	mov	w1, 3
	ldr	w2, [x0, 96]
	ldr	w0, [x0, 104]
	bl	epoll_ctl
.L417:
	mov	x0, x21
	bl	pthread_mutex_unlock
	ldr	x20, [x19, 120]
	cbz	x20, .L418
	ldrb	w0, [x20, 8]
	cbz	w0, .L483
.L419:
	mov	x0, x20
	mov	x1, 16
	bl	_ZdlPvm
.L420:
	ldr	x22, [x19, 96]
	str	xzr, [x19, 120]
	cbz	x22, .L422
.L421:
	ldr	x21, [x22]
	cbz	x21, .L423
	ldr	x20, [x21, 64]
	cbz	x20, .L425
	.p2align 3,,7
.L424:
	ldr	x1, [x20]
	mov	x0, x20
	ldr	x1, [x1, 16]
	blr	x1
	ldr	x20, [x20, 32]
	cbnz	x20, .L424
	ldr	x20, [x21, 64]
	cbz	x20, .L425
	.p2align 3,,7
.L426:
	ldr	x1, [x20]
	mov	x0, x20
	ldr	x20, [x20, 32]
	ldr	x1, [x1, 8]
	blr	x1
	str	x20, [x21, 64]
	cbnz	x20, .L426
.L425:
	add	x0, x21, 8
	bl	pthread_mutex_destroy
	mov	x0, x21
	mov	x1, 72
	bl	_ZdlPvm
.L423:
	mov	x0, x22
	mov	x1, 16
	bl	_ZdlPvm
	str	xzr, [x19, 96]
.L481:
	ldr	x20, [x19, 120]
	cbz	x20, .L422
	ldrb	w0, [x20, 8]
	cbz	w0, .L484
.L427:
	mov	x0, x20
	mov	x1, 16
	bl	_ZdlPvm
.L422:
	ldr	x20, [x19, 112]
	cbz	x20, .L428
	ldr	x21, [x20]
	mov	x22, 1
	mov	x0, -1
	add	x1, x21, 192
	bl	__aarch64_ldadd8_acq_rel
	cmp	x0, x22
	beq	.L485
.L429:
	mov	x0, x20
	mov	x1, 8
	bl	_ZdlPvm
.L428:
	ldr	x22, [x19, 96]
	cbz	x22, .L431
	ldr	x21, [x22]
	cbz	x21, .L432
	ldr	x20, [x21, 64]
	cbz	x20, .L434
	.p2align 3,,7
.L433:
	ldr	x1, [x20]
	mov	x0, x20
	ldr	x1, [x1, 16]
	blr	x1
	ldr	x20, [x20, 32]
	cbnz	x20, .L433
	ldr	x20, [x21, 64]
	cbz	x20, .L434
	.p2align 3,,7
.L435:
	ldr	x1, [x20]
	mov	x0, x20
	ldr	x20, [x20, 32]
	ldr	x1, [x1, 8]
	blr	x1
	str	x20, [x21, 64]
	cbnz	x20, .L435
.L434:
	add	x0, x21, 8
	bl	pthread_mutex_destroy
	mov	x0, x21
	mov	x1, 72
	bl	_ZdlPvm
.L432:
	mov	x0, x22
	mov	x1, 16
	bl	_ZdlPvm
.L431:
	adrp	x0, :got:__stack_chk_guard
	ldr	x0, [x0, #:got_lo12:__stack_chk_guard]
	ldr	x2, [sp, 88]
	ldr	x1, [x0]
	subs	x2, x2, x1
	mov	x1, 0
	bne	.L486
	add	x0, x19, 48
	ldp	x19, x20, [sp, 16]
	ldp	x21, x22, [sp, 32]
	ldp	x29, x30, [sp], 96
	.cfi_remember_state
	.cfi_restore 30
	.cfi_restore 29
	.cfi_restore 21
	.cfi_restore 22
	.cfi_restore 19
	.cfi_restore 20
	.cfi_def_cfa_offset 0
	b	pthread_mutex_destroy
	.p2align 2,,3
.L484:
	.cfi_restore_state
	ldr	x0, [x20]
	bl	pthread_detach
	b	.L427
	.p2align 2,,3
.L482:
	str	x23, [sp, 48]
	.cfi_offset 23, -48
	add	x23, x21, 48
	mov	x0, x23
	bl	pthread_mutex_lock
	ldr	x1, [x21, 144]
	strb	w22, [x21, 216]
	add	x0, x21, 96
	orr	x1, x1, x22
	str	x1, [x0, 48]
	bl	pthread_cond_broadcast
	ldrb	w0, [x21, 184]
	cbnz	w0, .L414
	ldr	x0, [x21, 152]
	cbz	x0, .L414
	mov	w2, 9
	strb	w22, [x21, 184]
	add	x1, x0, 96
	movk	w2, 0x8000, lsl 16
	str	w2, [sp, 72]
	add	x3, sp, 72
	str	x1, [sp, 80]
	mov	w1, 3
	ldr	w2, [x0, 96]
	ldr	w0, [x0, 104]
	bl	epoll_ctl
.L414:
	mov	x0, x23
	bl	pthread_mutex_unlock
	ldr	x23, [sp, 48]
	.cfi_restore 23
	b	.L413
	.p2align 2,,3
.L485:
	str	x23, [sp, 48]
	.cfi_offset 23, -48
	add	x23, x21, 48
	mov	x0, x23
	bl	pthread_mutex_lock
	ldr	x1, [x21, 144]
	strb	w22, [x21, 216]
	add	x0, x21, 96
	orr	x1, x1, x22
	str	x1, [x0, 48]
	bl	pthread_cond_broadcast
	ldrb	w0, [x21, 184]
	cbnz	w0, .L430
	ldr	x0, [x21, 152]
	cbz	x0, .L430
	mov	w2, 9
	strb	w22, [x21, 184]
	add	x1, x0, 96
	movk	w2, 0x8000, lsl 16
	str	w2, [sp, 72]
	add	x3, sp, 72
	str	x1, [sp, 80]
	mov	w1, 3
	ldr	w2, [x0, 96]
	ldr	w0, [x0, 104]
	bl	epoll_ctl
.L430:
	mov	x0, x23
	bl	pthread_mutex_unlock
	ldr	x23, [sp, 48]
	.cfi_restore 23
	b	.L429
	.p2align 2,,3
.L418:
	ldr	x22, [x19, 96]
	cbnz	x22, .L421
	b	.L422
	.p2align 2,,3
.L483:
	ldr	x0, [x20]
	mov	x1, 0
	bl	pthread_join
	mov	w0, 1
	strb	w0, [x20, 8]
	ldr	x20, [x19, 120]
	cbz	x20, .L420
	ldrb	w0, [x20, 8]
	cbnz	w0, .L419
	ldr	x0, [x20]
	bl	pthread_detach
	b	.L419
.L486:
	str	x23, [sp, 48]
	.cfi_offset 23, -48
	bl	__stack_chk_fail
	.cfi_endproc
.LFE10148:
	.section	.gcc_except_table._ZN4asio2ip16resolver_serviceINS0_3tcpEED2Ev,"aG",@progbits,_ZN4asio2ip16resolver_serviceINS0_3tcpEED5Ev,comdat
.LLSDA10148:
	.byte	0xff
	.byte	0xff
	.byte	0x1
	.uleb128 .LLSDACSE10148-.LLSDACSB10148
.LLSDACSB10148:
.LLSDACSE10148:
	.section	.text._ZN4asio2ip16resolver_serviceINS0_3tcpEED2Ev,"axG",@progbits,_ZN4asio2ip16resolver_serviceINS0_3tcpEED5Ev,comdat
	.size	_ZN4asio2ip16resolver_serviceINS0_3tcpEED2Ev, .-_ZN4asio2ip16resolver_serviceINS0_3tcpEED2Ev
	.weak	_ZN4asio2ip16resolver_serviceINS0_3tcpEED1Ev
	.set	_ZN4asio2ip16resolver_serviceINS0_3tcpEED1Ev,_ZN4asio2ip16resolver_serviceINS0_3tcpEED2Ev
	.section	.text._ZN4asio2ip16resolver_serviceINS0_3tcpEED0Ev,"axG",@progbits,_ZN4asio2ip16resolver_serviceINS0_3tcpEED5Ev,comdat
	.align	2
	.p2align 4,,11
	.weak	_ZN4asio2ip16resolver_serviceINS0_3tcpEED0Ev
	.type	_ZN4asio2ip16resolver_serviceINS0_3tcpEED0Ev, %function
_ZN4asio2ip16resolver_serviceINS0_3tcpEED0Ev:
.LFB10150:
	.cfi_startproc
	.cfi_personality 0x9b,DW.ref.__gxx_personality_v0
	.cfi_lsda 0x1b,.LLSDA10150
	stp	x29, x30, [sp, -96]!
	.cfi_def_cfa_offset 96
	.cfi_offset 29, -96
	.cfi_offset 30, -88
	adrp	x1, :got:__stack_chk_guard
	mov	x29, sp
	stp	x19, x20, [sp, 16]
	.cfi_offset 19, -80
	.cfi_offset 20, -72
	mov	x19, x0
	adrp	x0, :got:_ZTVN4asio2ip16resolver_serviceINS0_3tcpEEE
	ldr	x1, [x1, #:got_lo12:__stack_chk_guard]
	stp	x21, x22, [sp, 32]
	ldr	x0, [x0, #:got_lo12:_ZTVN4asio2ip16resolver_serviceINS0_3tcpEEE]
	ldr	x2, [x1]
	str	x2, [sp, 88]
	mov	x2, 0
	ldr	x20, [x19, 112]
	add	x0, x0, 16
	str	x0, [x19]
	.cfi_offset 21, -64
	.cfi_offset 22, -56
	cbz	x20, .L488
	ldr	x21, [x20]
	mov	x22, 1
	mov	x0, -1
	add	x1, x21, 192
	bl	__aarch64_ldadd8_acq_rel
	cmp	x0, x22
	beq	.L558
.L489:
	mov	x0, x20
	mov	x1, 8
	bl	_ZdlPvm
.L488:
	ldr	x0, [x19, 96]
	str	xzr, [x19, 112]
	cbz	x0, .L557
	ldr	x20, [x0, 8]
	mov	w22, 1
	add	x21, x20, 48
	mov	x0, x21
	bl	pthread_mutex_lock
	ldr	x1, [x20, 144]
	strb	w22, [x20, 216]
	add	x0, x20, 96
	orr	x1, x1, 1
	str	x1, [x0, 48]
	bl	pthread_cond_broadcast
	ldrb	w0, [x20, 184]
	cbnz	w0, .L493
	ldr	x0, [x20, 152]
	cbz	x0, .L493
	mov	w2, 9
	strb	w22, [x20, 184]
	add	x1, x0, 96
	movk	w2, 0x8000, lsl 16
	str	w2, [sp, 72]
	add	x3, sp, 72
	str	x1, [sp, 80]
	mov	w1, 3
	ldr	w2, [x0, 96]
	ldr	w0, [x0, 104]
	bl	epoll_ctl
.L493:
	mov	x0, x21
	bl	pthread_mutex_unlock
	ldr	x20, [x19, 120]
	cbz	x20, .L494
	ldrb	w0, [x20, 8]
	cbz	w0, .L559
.L495:
	mov	x0, x20
	mov	x1, 16
	bl	_ZdlPvm
.L496:
	ldr	x22, [x19, 96]
	str	xzr, [x19, 120]
	cbz	x22, .L498
.L497:
	ldr	x21, [x22]
	cbz	x21, .L499
	ldr	x20, [x21, 64]
	cbz	x20, .L501
	.p2align 3,,7
.L500:
	ldr	x1, [x20]
	mov	x0, x20
	ldr	x1, [x1, 16]
	blr	x1
	ldr	x20, [x20, 32]
	cbnz	x20, .L500
	ldr	x20, [x21, 64]
	cbz	x20, .L501
	.p2align 3,,7
.L502:
	ldr	x1, [x20]
	mov	x0, x20
	ldr	x20, [x20, 32]
	ldr	x1, [x1, 8]
	blr	x1
	str	x20, [x21, 64]
	cbnz	x20, .L502
.L501:
	add	x0, x21, 8
	bl	pthread_mutex_destroy
	mov	x0, x21
	mov	x1, 72
	bl	_ZdlPvm
.L499:
	mov	x0, x22
	mov	x1, 16
	bl	_ZdlPvm
	str	xzr, [x19, 96]
.L557:
	ldr	x20, [x19, 120]
	cbz	x20, .L498
	ldrb	w0, [x20, 8]
	cbz	w0, .L560
.L503:
	mov	x0, x20
	mov	x1, 16
	bl	_ZdlPvm
.L498:
	ldr	x20, [x19, 112]
	cbz	x20, .L504
	ldr	x21, [x20]
	mov	x22, 1
	mov	x0, -1
	add	x1, x21, 192
	bl	__aarch64_ldadd8_acq_rel
	cmp	x0, x22
	beq	.L561
.L505:
	mov	x0, x20
	mov	x1, 8
	bl	_ZdlPvm
.L504:
	ldr	x22, [x19, 96]
	cbz	x22, .L507
	ldr	x21, [x22]
	cbz	x21, .L508
	ldr	x20, [x21, 64]
	cbz	x20, .L510
	.p2align 3,,7
.L509:
	ldr	x1, [x20]
	mov	x0, x20
	ldr	x1, [x1, 16]
	blr	x1
	ldr	x20, [x20, 32]
	cbnz	x20, .L509
	ldr	x20, [x21, 64]
	cbz	x20, .L510
	.p2align 3,,7
.L511:
	ldr	x1, [x20]
	mov	x0, x20
	ldr	x20, [x20, 32]
	ldr	x1, [x1, 8]
	blr	x1
	str	x20, [x21, 64]
	cbnz	x20, .L511
.L510:
	add	x0, x21, 8
	bl	pthread_mutex_destroy
	mov	x0, x21
	mov	x1, 72
	bl	_ZdlPvm
.L508:
	mov	x0, x22
	mov	x1, 16
	bl	_ZdlPvm
.L507:
	add	x0, x19, 48
	bl	pthread_mutex_destroy
	adrp	x0, :got:__stack_chk_guard
	ldr	x0, [x0, #:got_lo12:__stack_chk_guard]
	ldr	x2, [sp, 88]
	ldr	x1, [x0]
	subs	x2, x2, x1
	mov	x1, 0
	bne	.L562
	mov	x0, x19
	mov	x1, 128
	ldp	x19, x20, [sp, 16]
	ldp	x21, x22, [sp, 32]
	ldp	x29, x30, [sp], 96
	.cfi_remember_state
	.cfi_restore 30
	.cfi_restore 29
	.cfi_restore 21
	.cfi_restore 22
	.cfi_restore 19
	.cfi_restore 20
	.cfi_def_cfa_offset 0
	b	_ZdlPvm
	.p2align 2,,3
.L560:
	.cfi_restore_state
	ldr	x0, [x20]
	bl	pthread_detach
	b	.L503
	.p2align 2,,3
.L558:
	str	x23, [sp, 48]
	.cfi_offset 23, -48
	add	x23, x21, 48
	mov	x0, x23
	bl	pthread_mutex_lock
	ldr	x1, [x21, 144]
	strb	w22, [x21, 216]
	add	x0, x21, 96
	orr	x1, x1, x22
	str	x1, [x0, 48]
	bl	pthread_cond_broadcast
	ldrb	w0, [x21, 184]
	cbnz	w0, .L490
	ldr	x0, [x21, 152]
	cbz	x0, .L490
	mov	w2, 9
	strb	w22, [x21, 184]
	add	x1, x0, 96
	movk	w2, 0x8000, lsl 16
	str	w2, [sp, 72]
	add	x3, sp, 72
	str	x1, [sp, 80]
	mov	w1, 3
	ldr	w2, [x0, 96]
	ldr	w0, [x0, 104]
	bl	epoll_ctl
.L490:
	mov	x0, x23
	bl	pthread_mutex_unlock
	ldr	x23, [sp, 48]
	.cfi_restore 23
	b	.L489
	.p2align 2,,3
.L561:
	str	x23, [sp, 48]
	.cfi_offset 23, -48
	add	x23, x21, 48
	mov	x0, x23
	bl	pthread_mutex_lock
	ldr	x1, [x21, 144]
	strb	w22, [x21, 216]
	add	x0, x21, 96
	orr	x1, x1, x22
	str	x1, [x0, 48]
	bl	pthread_cond_broadcast
	ldrb	w0, [x21, 184]
	cbnz	w0, .L506
	ldr	x0, [x21, 152]
	cbz	x0, .L506
	mov	w2, 9
	strb	w22, [x21, 184]
	add	x1, x0, 96
	movk	w2, 0x8000, lsl 16
	str	w2, [sp, 72]
	add	x3, sp, 72
	str	x1, [sp, 80]
	mov	w1, 3
	ldr	w2, [x0, 96]
	ldr	w0, [x0, 104]
	bl	epoll_ctl
.L506:
	mov	x0, x23
	bl	pthread_mutex_unlock
	ldr	x23, [sp, 48]
	.cfi_restore 23
	b	.L505
	.p2align 2,,3
.L494:
	ldr	x22, [x19, 96]
	cbnz	x22, .L497
	b	.L498
	.p2align 2,,3
.L559:
	ldr	x0, [x20]
	mov	x1, 0
	bl	pthread_join
	mov	w0, 1
	strb	w0, [x20, 8]
	ldr	x20, [x19, 120]
	cbz	x20, .L496
	ldrb	w0, [x20, 8]
	cbnz	w0, .L495
	ldr	x0, [x20]
	bl	pthread_detach
	b	.L495
.L562:
	str	x23, [sp, 48]
	.cfi_offset 23, -48
	bl	__stack_chk_fail
	.cfi_endproc
.LFE10150:
	.section	.gcc_except_table._ZN4asio2ip16resolver_serviceINS0_3tcpEED0Ev,"aG",@progbits,_ZN4asio2ip16resolver_serviceINS0_3tcpEED5Ev,comdat
.LLSDA10150:
	.byte	0xff
	.byte	0xff
	.byte	0x1
	.uleb128 .LLSDACSE10150-.LLSDACSB10150
.LLSDACSB10150:
.LLSDACSE10150:
	.section	.text._ZN4asio2ip16resolver_serviceINS0_3tcpEED0Ev,"axG",@progbits,_ZN4asio2ip16resolver_serviceINS0_3tcpEED5Ev,comdat
	.size	_ZN4asio2ip16resolver_serviceINS0_3tcpEED0Ev, .-_ZN4asio2ip16resolver_serviceINS0_3tcpEED0Ev
	.section	.rodata._ZNK4asio5error6detail17addrinfo_category7messageB5cxx11Ei.str1.8,"aMS",@progbits,1
	.align	3
.LC6:
	.string	"Service not found"
	.align	3
.LC7:
	.string	"Socket type not supported"
	.align	3
.LC8:
	.string	"asio.addrinfo error"
	.section	.text._ZNK4asio5error6detail17addrinfo_category7messageB5cxx11Ei,"axG",@progbits,_ZNK4asio5error6detail17addrinfo_category7messageB5cxx11Ei,comdat
	.align	2
	.p2align 4,,11
	.weak	_ZNK4asio5error6detail17addrinfo_category7messageB5cxx11Ei
	.type	_ZNK4asio5error6detail17addrinfo_category7messageB5cxx11Ei, %function
_ZNK4asio5error6detail17addrinfo_category7messageB5cxx11Ei:
.LFB2296:
	.cfi_startproc
	stp	x29, x30, [sp, -48]!
	.cfi_def_cfa_offset 48
	.cfi_offset 29, -48
	.cfi_offset 30, -40
	adrp	x0, :got:__stack_chk_guard
	add	x2, x8, 16
	mov	x29, sp
	ldr	x0, [x0, #:got_lo12:__stack_chk_guard]
	str	x19, [sp, 16]
	.cfi_offset 19, -32
	mov	x19, x8
	ldr	x3, [x0]
	str	x3, [sp, 40]
	mov	x3, 0
	str	x2, [x8]
	cmn	w1, #8
	beq	.L569
	cmn	w1, #7
	beq	.L570
	mov	x3, 19
	add	x1, sp, 32
	mov	x2, 0
	mov	x0, x8
	str	x3, [sp, 32]
	bl	_ZNSt7__cxx1112basic_stringIcSt11char_traitsIcESaIcEE9_M_createERmm
	adrp	x1, .LC8
	add	x1, x1, :lo12:.LC8
	ldr	x2, [sp, 32]
	str	x0, [x19]
	str	x2, [x19, 16]
	ldp	x2, x3, [x1]
	stp	x2, x3, [x0]
	ldr	w1, [x1, 15]
	str	w1, [x0, 15]
	ldr	x1, [x19]
	ldr	x0, [sp, 32]
	str	x0, [x19, 8]
	strb	wzr, [x1, x0]
.L563:
	adrp	x0, :got:__stack_chk_guard
	ldr	x0, [x0, #:got_lo12:__stack_chk_guard]
	ldr	x2, [sp, 40]
	ldr	x1, [x0]
	subs	x2, x2, x1
	mov	x1, 0
	bne	.L571
	mov	x0, x19
	ldr	x19, [sp, 16]
	ldp	x29, x30, [sp], 48
	.cfi_remember_state
	.cfi_restore 30
	.cfi_restore 29
	.cfi_restore 19
	.cfi_def_cfa_offset 0
	ret
	.p2align 2,,3
.L570:
	.cfi_restore_state
	mov	x3, 25
	add	x1, sp, 32
	mov	x2, 0
	mov	x0, x8
	str	x3, [sp, 32]
	bl	_ZNSt7__cxx1112basic_stringIcSt11char_traitsIcESaIcEE9_M_createERmm
	adrp	x1, .LC7
	add	x1, x1, :lo12:.LC7
	ldr	x2, [sp, 32]
	str	x0, [x19]
	ldr	q1, [x1]
	str	x2, [x19, 16]
	ldr	q0, [x1, 9]
	str	q1, [x0]
	str	q0, [x0, 9]
	ldr	x1, [x19]
	ldr	x0, [sp, 32]
	str	x0, [x19, 8]
	strb	wzr, [x1, x0]
	b	.L563
	.p2align 2,,3
.L569:
	mov	x3, 17
	add	x1, sp, 32
	mov	x2, 0
	mov	x0, x8
	str	x3, [sp, 32]
	bl	_ZNSt7__cxx1112basic_stringIcSt11char_traitsIcESaIcEE9_M_createERmm
	adrp	x1, .LC6
	add	x1, x1, :lo12:.LC6
	ldr	x2, [sp, 32]
	str	x0, [x19]
	str	x2, [x19, 16]
	ldp	x2, x3, [x1]
	stp	x2, x3, [x0]
	ldrb	w1, [x1, 16]
	strb	w1, [x0, 16]
	ldr	x1, [x19]
	ldr	x0, [sp, 32]
	str	x0, [x19, 8]
	strb	wzr, [x1, x0]
	b	.L563
.L571:
	bl	__stack_chk_fail
	.cfi_endproc
.LFE2296:
	.size	_ZNK4asio5error6detail17addrinfo_category7messageB5cxx11Ei, .-_ZNK4asio5error6detail17addrinfo_category7messageB5cxx11Ei
	.section	.rodata._ZNK4asio5error6detail14netdb_category7messageB5cxx11Ei.str1.8,"aMS",@progbits,1
	.align	3
.LC9:
	.string	"Host not found (authoritative)"
	.align	3
.LC10:
	.string	"Host not found (non-authoritative), try again later"
	.align	3
.LC11:
	.string	"The query is valid, but it does not have associated data"
	.align	3
.LC12:
	.string	"A non-recoverable error occurred during database lookup"
	.align	3
.LC13:
	.string	"asio.netdb error"
	.section	.text._ZNK4asio5error6detail14netdb_category7messageB5cxx11Ei,"axG",@progbits,_ZNK4asio5error6detail14netdb_category7messageB5cxx11Ei,comdat
	.align	2
	.p2align 4,,11
	.weak	_ZNK4asio5error6detail14netdb_category7messageB5cxx11Ei
	.type	_ZNK4asio5error6detail14netdb_category7messageB5cxx11Ei, %function
_ZNK4asio5error6detail14netdb_category7messageB5cxx11Ei:
.LFB2290:
	.cfi_startproc
	stp	x29, x30, [sp, -48]!
	.cfi_def_cfa_offset 48
	.cfi_offset 29, -48
	.cfi_offset 30, -40
	adrp	x0, :got:__stack_chk_guard
	mov	x29, sp
	ldr	x0, [x0, #:got_lo12:__stack_chk_guard]
	str	x19, [sp, 16]
	.cfi_offset 19, -32
	mov	x19, x8
	ldr	x2, [x0]
	str	x2, [sp, 40]
	mov	x2, 0
	cmp	w1, 1
	beq	.L580
	cmp	w1, 2
	beq	.L581
	cmp	w1, 4
	beq	.L582
	add	x0, x8, 16
	str	x0, [x8]
	cmp	w1, 3
	beq	.L583
	mov	x3, 16
	add	x1, sp, 32
	mov	x2, 0
	mov	x0, x8
	str	x3, [sp, 32]
	bl	_ZNSt7__cxx1112basic_stringIcSt11char_traitsIcESaIcEE9_M_createERmm
	adrp	x1, .LC13
	add	x1, x1, :lo12:.LC13
	ldr	x2, [sp, 32]
	str	x0, [x19]
	str	x2, [x19, 16]
	ldp	x2, x3, [x1]
	stp	x2, x3, [x0]
	ldr	x1, [x19]
	ldr	x0, [sp, 32]
	str	x0, [x19, 8]
	strb	wzr, [x1, x0]
.L572:
	adrp	x0, :got:__stack_chk_guard
	ldr	x0, [x0, #:got_lo12:__stack_chk_guard]
	ldr	x2, [sp, 40]
	ldr	x1, [x0]
	subs	x2, x2, x1
	mov	x1, 0
	bne	.L584
	mov	x0, x19
	ldr	x19, [sp, 16]
	ldp	x29, x30, [sp], 48
	.cfi_remember_state
	.cfi_restore 30
	.cfi_restore 29
	.cfi_restore 19
	.cfi_def_cfa_offset 0
	ret
	.p2align 2,,3
.L580:
	.cfi_restore_state
	add	x0, x8, 16
	mov	x3, 30
	str	x0, [x8]
	add	x1, sp, 32
	mov	x0, x8
	str	x3, [sp, 32]
	bl	_ZNSt7__cxx1112basic_stringIcSt11char_traitsIcESaIcEE9_M_createERmm
	str	x0, [x19]
	adrp	x1, .LC9
	add	x1, x1, :lo12:.LC9
	ldr	x2, [sp, 32]
	str	x2, [x19, 16]
	ldr	q1, [x1]
	ldr	q0, [x1, 14]
	str	q1, [x0]
	str	q0, [x0, 14]
	ldr	x1, [x19]
	ldr	x0, [sp, 32]
	str	x0, [x19, 8]
	strb	wzr, [x1, x0]
	b	.L572
	.p2align 2,,3
.L583:
	mov	x3, 55
	add	x1, sp, 32
	mov	x2, 0
	mov	x0, x8
	str	x3, [sp, 32]
	bl	_ZNSt7__cxx1112basic_stringIcSt11char_traitsIcESaIcEE9_M_createERmm
	adrp	x1, .LC12
	add	x1, x1, :lo12:.LC12
	ldr	x2, [sp, 32]
	str	x0, [x19]
	ldr	q2, [x1, 32]
	str	x2, [x19, 16]
	ldp	q0, q1, [x1]
	str	q2, [x0, 32]
	ldr	x1, [x1, 47]
	str	x1, [x0, 47]
	stp	q0, q1, [x0]
	ldr	x1, [x19]
	ldr	x0, [sp, 32]
	str	x0, [x19, 8]
	strb	wzr, [x1, x0]
	b	.L572
	.p2align 2,,3
.L581:
	mov	x0, x8
	adrp	x1, .LC10
	add	x1, x1, :lo12:.LC10
	bl	_ZNSt7__cxx1112basic_stringIcSt11char_traitsIcESaIcEEC2EPKcRKS3_.constprop.0
	b	.L572
	.p2align 2,,3
.L582:
	mov	x0, x8
	adrp	x1, .LC11
	add	x1, x1, :lo12:.LC11
	bl	_ZNSt7__cxx1112basic_stringIcSt11char_traitsIcESaIcEEC2EPKcRKS3_.constprop.0
	b	.L572
.L584:
	bl	__stack_chk_fail
	.cfi_endproc
.LFE2290:
	.size	_ZNK4asio5error6detail14netdb_category7messageB5cxx11Ei, .-_ZNK4asio5error6detail14netdb_category7messageB5cxx11Ei
	.section	.rodata._ZNK4asio5error6detail13misc_category7messageB5cxx11Ei.str1.8,"aMS",@progbits,1
	.align	3
.LC14:
	.string	"Already open"
	.align	3
.LC15:
	.string	"End of file"
	.align	3
.LC16:
	.string	"Element not found"
	.align	3
.LC17:
	.string	"The descriptor does not fit into the select call's fd_set"
	.align	3
.LC18:
	.string	"asio.misc error"
	.section	.text._ZNK4asio5error6detail13misc_category7messageB5cxx11Ei,"axG",@progbits,_ZNK4asio5error6detail13misc_category7messageB5cxx11Ei,comdat
	.align	2
	.p2align 4,,11
	.weak	_ZNK4asio5error6detail13misc_category7messageB5cxx11Ei
	.type	_ZNK4asio5error6detail13misc_category7messageB5cxx11Ei, %function
_ZNK4asio5error6detail13misc_category7messageB5cxx11Ei:
.LFB2302:
	.cfi_startproc
	stp	x29, x30, [sp, -48]!
	.cfi_def_cfa_offset 48
	.cfi_offset 29, -48
	.cfi_offset 30, -40
	adrp	x0, :got:__stack_chk_guard
	mov	x29, sp
	ldr	x0, [x0, #:got_lo12:__stack_chk_guard]
	str	x19, [sp, 16]
	.cfi_offset 19, -32
	mov	x19, x8
	ldr	x2, [x0]
	str	x2, [sp, 40]
	mov	x2, 0
	cmp	w1, 1
	beq	.L593
	cmp	w1, 2
	beq	.L594
	cmp	w1, 3
	beq	.L595
	add	x2, x8, 16
	cmp	w1, 4
	beq	.L596
	adrp	x0, .LC18
	add	x0, x0, :lo12:.LC18
	str	x2, [x8]
	mov	x1, 15
	ldr	x3, [x0]
	str	x3, [x8, 16]
	ldr	x0, [x0, 7]
	str	x0, [x2, 7]
	str	x1, [x8, 8]
	strb	wzr, [x8, 31]
.L585:
	adrp	x0, :got:__stack_chk_guard
	ldr	x0, [x0, #:got_lo12:__stack_chk_guard]
	ldr	x2, [sp, 40]
	ldr	x1, [x0]
	subs	x2, x2, x1
	mov	x1, 0
	bne	.L597
	mov	x0, x19
	ldr	x19, [sp, 16]
	ldp	x29, x30, [sp], 48
	.cfi_remember_state
	.cfi_restore 30
	.cfi_restore 29
	.cfi_restore 19
	.cfi_def_cfa_offset 0
	ret
	.p2align 2,,3
.L593:
	.cfi_restore_state
	adrp	x0, .LC14
	add	x0, x0, :lo12:.LC14
	add	x1, x8, 16
	mov	x2, 12
	stp	x1, x2, [x8]
	ldr	x3, [x0]
	str	x3, [x8, 16]
	ldr	w0, [x0, 8]
	str	w0, [x8, 24]
	strb	wzr, [x8, 28]
	b	.L585
	.p2align 2,,3
.L596:
	mov	x3, 57
	str	x2, [x8]
	add	x1, sp, 32
	mov	x2, 0
	mov	x0, x8
	str	x3, [sp, 32]
	bl	_ZNSt7__cxx1112basic_stringIcSt11char_traitsIcESaIcEE9_M_createERmm
	str	x0, [x19]
	adrp	x1, .LC17
	add	x1, x1, :lo12:.LC17
	ldr	x2, [sp, 32]
	str	x2, [x19, 16]
	ldr	q3, [x1, 32]
	ldp	q1, q2, [x1]
	ldr	q0, [x1, 41]
	str	q3, [x0, 32]
	stp	q1, q2, [x0]
	str	q0, [x0, 41]
	ldr	x1, [x19]
	ldr	x0, [sp, 32]
	str	x0, [x19, 8]
	strb	wzr, [x1, x0]
	b	.L585
	.p2align 2,,3
.L594:
	adrp	x0, .LC15
	add	x0, x0, :lo12:.LC15
	add	x1, x8, 16
	mov	x2, 11
	stp	x1, x2, [x8]
	ldr	x3, [x0]
	str	x3, [x8, 16]
	ldr	w0, [x0, 7]
	str	w0, [x8, 23]
	strb	wzr, [x8, 27]
	b	.L585
	.p2align 2,,3
.L595:
	mov	x0, x8
	adrp	x1, .LC16
	add	x1, x1, :lo12:.LC16
	bl	_ZNSt7__cxx1112basic_stringIcSt11char_traitsIcESaIcEEC2EPKcRKS3_.constprop.0
	b	.L585
.L597:
	bl	__stack_chk_fail
	.cfi_endproc
.LFE2302:
	.size	_ZNK4asio5error6detail13misc_category7messageB5cxx11Ei, .-_ZNK4asio5error6detail13misc_category7messageB5cxx11Ei
	.section	.rodata._ZNSt12system_errorC2ESt10error_codePKc.str1.8,"aMS",@progbits,1
	.align	3
.LC19:
	.string	": "
	.section	.text._ZNSt12system_errorC2ESt10error_codePKc,"axG",@progbits,_ZNSt12system_errorC5ESt10error_codePKc,comdat
	.align	2
	.p2align 4,,11
	.weak	_ZNSt12system_errorC2ESt10error_codePKc
	.type	_ZNSt12system_errorC2ESt10error_codePKc, %function
_ZNSt12system_errorC2ESt10error_codePKc:
.LFB2219:
	.cfi_startproc
	.cfi_personality 0x9b,DW.ref.__gxx_personality_v0
	.cfi_lsda 0x1b,.LLSDA2219
	stp	x29, x30, [sp, -176]!
	.cfi_def_cfa_offset 176
	.cfi_offset 29, -176
	.cfi_offset 30, -168
	adrp	x4, :got:__stack_chk_guard
	mov	x29, sp
	stp	x19, x20, [sp, 16]
	.cfi_offset 19, -160
	.cfi_offset 20, -152
	mov	x20, x2
	mov	x19, x0
	ldr	x2, [x4, #:got_lo12:__stack_chk_guard]
	stp	x21, x22, [sp, 32]
	mov	x0, x20
	ldr	x4, [x20]
	.cfi_offset 21, -144
	.cfi_offset 22, -136
	mov	x21, x1
	mov	x22, x3
	ldr	x4, [x4, 32]
	str	x23, [sp, 48]
	.cfi_offset 23, -128
	add	x23, sp, 136
	mov	x8, x23
	ldr	x3, [x2]
	str	x3, [sp, 168]
	mov	x3, 0
.LEHB3:
	blr	x4
.LEHE3:
	adrp	x3, .LC19
	mov	x0, x23
	add	x3, x3, :lo12:.LC19
	mov	x4, 2
	mov	x2, 0
	mov	x1, 0
.LEHB4:
	bl	_ZNSt7__cxx1112basic_stringIcSt11char_traitsIcESaIcEE10_M_replaceEmmPKcm
.LEHE4:
	add	x23, sp, 120
	str	x23, [sp, 104]
	mov	x4, x0
	ldr	x1, [x0], 16
	cmp	x1, x0
	beq	.L618
	ldr	x2, [x4, 16]
	str	x1, [sp, 104]
	str	x2, [sp, 120]
.L600:
	ldr	x1, [x4, 8]
	str	x1, [sp, 112]
	stp	x0, xzr, [x4]
	mov	x0, x22
	strb	wzr, [x4, 16]
	bl	strlen
	mov	x4, x0
	mov	x3, x22
	add	x0, sp, 104
	mov	x2, 0
	mov	x1, 0
.LEHB5:
	bl	_ZNSt7__cxx1112basic_stringIcSt11char_traitsIcESaIcEE10_M_replaceEmmPKcm
.LEHE5:
	add	x22, sp, 88
	str	x22, [sp, 72]
	mov	x3, x0
	ldr	x1, [x0], 16
	cmp	x1, x0
	beq	.L619
	ldr	x2, [x3, 16]
	str	x1, [sp, 72]
	str	x2, [sp, 88]
.L602:
	ldr	x1, [x3, 8]
	str	x1, [sp, 80]
	stp	x0, xzr, [x3]
	add	x1, sp, 72
	mov	x0, x19
	strb	wzr, [x3, 16]
.LEHB6:
	bl	_ZNSt13runtime_errorC2ERKNSt7__cxx1112basic_stringIcSt11char_traitsIcESaIcEEE
.LEHE6:
	ldr	x0, [sp, 72]
	cmp	x0, x22
	beq	.L603
	ldr	x1, [sp, 88]
	add	x1, x1, 1
	bl	_ZdlPvm
.L603:
	ldr	x0, [sp, 104]
	cmp	x0, x23
	beq	.L604
	ldr	x1, [sp, 120]
	add	x1, x1, 1
	bl	_ZdlPvm
.L604:
	ldr	x0, [sp, 136]
	add	x1, sp, 152
	cmp	x0, x1
	beq	.L605
	ldr	x1, [sp, 152]
	add	x1, x1, 1
	bl	_ZdlPvm
.L605:
	adrp	x0, :got:_ZTVSt12system_error
	adrp	x1, :got:__stack_chk_guard
	stp	x21, x20, [x19, 16]
	ldr	x0, [x0, #:got_lo12:_ZTVSt12system_error]
	ldr	x1, [x1, #:got_lo12:__stack_chk_guard]
	add	x0, x0, 16
	str	x0, [x19]
	ldr	x0, [sp, 168]
	ldr	x2, [x1]
	subs	x0, x0, x2
	mov	x2, 0
	bne	.L620
	ldp	x19, x20, [sp, 16]
	ldp	x21, x22, [sp, 32]
	ldr	x23, [sp, 48]
	ldp	x29, x30, [sp], 176
	.cfi_remember_state
	.cfi_restore 30
	.cfi_restore 29
	.cfi_restore 23
	.cfi_restore 21
	.cfi_restore 22
	.cfi_restore 19
	.cfi_restore 20
	.cfi_def_cfa_offset 0
	ret
	.p2align 2,,3
.L618:
	.cfi_restore_state
	ldp	x2, x3, [x4, 16]
	stp	x2, x3, [sp, 120]
	b	.L600
	.p2align 2,,3
.L619:
	ldp	x4, x5, [x3, 16]
	stp	x4, x5, [sp, 88]
	b	.L602
.L620:
	bl	__stack_chk_fail
.L615:
	ldr	x2, [sp, 72]
	mov	x19, x0
	cmp	x2, x22
	beq	.L608
	ldr	x1, [sp, 88]
	mov	x0, x2
	add	x1, x1, 1
	bl	_ZdlPvm
.L608:
	ldr	x0, [sp, 104]
	cmp	x0, x23
	beq	.L610
	ldr	x1, [sp, 120]
	add	x1, x1, 1
	bl	_ZdlPvm
.L610:
	ldr	x0, [sp, 136]
	add	x1, sp, 152
	cmp	x0, x1
	beq	.L611
	ldr	x1, [sp, 152]
	add	x1, x1, 1
	bl	_ZdlPvm
.L611:
	mov	x0, x19
.LEHB7:
	bl	_Unwind_Resume
.LEHE7:
.L613:
	mov	x19, x0
	b	.L610
.L614:
	mov	x19, x0
	b	.L608
	.cfi_endproc
.LFE2219:
	.section	.gcc_except_table._ZNSt12system_errorC2ESt10error_codePKc,"aG",@progbits,_ZNSt12system_errorC5ESt10error_codePKc,comdat
.LLSDA2219:
	.byte	0xff
	.byte	0xff
	.byte	0x1
	.uleb128 .LLSDACSE2219-.LLSDACSB2219
.LLSDACSB2219:
	.uleb128 .LEHB3-.LFB2219
	.uleb128 .LEHE3-.LEHB3
	.uleb128 0
	.uleb128 0
	.uleb128 .LEHB4-.LFB2219
	.uleb128 .LEHE4-.LEHB4
	.uleb128 .L613-.LFB2219
	.uleb128 0
	.uleb128 .LEHB5-.LFB2219
	.uleb128 .LEHE5-.LEHB5
	.uleb128 .L614-.LFB2219
	.uleb128 0
	.uleb128 .LEHB6-.LFB2219
	.uleb128 .LEHE6-.LEHB6
	.uleb128 .L615-.LFB2219
	.uleb128 0
	.uleb128 .LEHB7-.LFB2219
	.uleb128 .LEHE7-.LEHB7
	.uleb128 0
	.uleb128 0
.LLSDACSE2219:
	.section	.text._ZNSt12system_errorC2ESt10error_codePKc,"axG",@progbits,_ZNSt12system_errorC5ESt10error_codePKc,comdat
	.size	_ZNSt12system_errorC2ESt10error_codePKc, .-_ZNSt12system_errorC2ESt10error_codePKc
	.weak	_ZNSt12system_errorC1ESt10error_codePKc
	.set	_ZNSt12system_errorC1ESt10error_codePKc,_ZNSt12system_errorC2ESt10error_codePKc
	.section	.text._ZN4asio15system_categoryEv,"axG",@progbits,_ZN4asio15system_categoryEv,comdat
	.align	2
	.p2align 4,,11
	.weak	_ZN4asio15system_categoryEv
	.type	_ZN4asio15system_categoryEv, %function
_ZN4asio15system_categoryEv:
.LFB2272:
	.cfi_startproc
	stp	x29, x30, [sp, -32]!
	.cfi_def_cfa_offset 32
	.cfi_offset 29, -32
	.cfi_offset 30, -24
	mov	x29, sp
	stp	x19, x20, [sp, 16]
	.cfi_offset 19, -16
	.cfi_offset 20, -8
	adrp	x19, :got:_ZGVZN4asio15system_categoryEvE8instance
	ldr	x19, [x19, #:got_lo12:_ZGVZN4asio15system_categoryEvE8instance]
	ldar	x0, [x19]
	adrp	x20, :got:_ZZN4asio15system_categoryEvE8instance
	tbz	x0, 0, .L629
.L623:
	ldr	x0, [x20, #:got_lo12:_ZZN4asio15system_categoryEvE8instance]
	ldp	x19, x20, [sp, 16]
	ldp	x29, x30, [sp], 32
	.cfi_remember_state
	.cfi_restore 30
	.cfi_restore 29
	.cfi_restore 19
	.cfi_restore 20
	.cfi_def_cfa_offset 0
	ret
	.p2align 2,,3
.L629:
	.cfi_restore_state
	mov	x0, x19
	adrp	x20, :got:_ZZN4asio15system_categoryEvE8instance
	bl	__cxa_guard_acquire
	cbz	w0, .L623
	adrp	x0, :got:_ZN4asio6detail15system_categoryD1Ev
	adrp	x2, __dso_handle
	ldr	x1, [x20, #:got_lo12:_ZZN4asio15system_categoryEvE8instance]
	add	x2, x2, :lo12:__dso_handle
	ldr	x0, [x0, #:got_lo12:_ZN4asio6detail15system_categoryD1Ev]
	bl	__cxa_atexit
	mov	x0, x19
	bl	__cxa_guard_release
	ldr	x0, [x20, #:got_lo12:_ZZN4asio15system_categoryEvE8instance]
	ldp	x19, x20, [sp, 16]
	ldp	x29, x30, [sp], 32
	.cfi_restore 30
	.cfi_restore 29
	.cfi_restore 19
	.cfi_restore 20
	.cfi_def_cfa_offset 0
	ret
	.cfi_endproc
.LFE2272:
	.size	_ZN4asio15system_categoryEv, .-_ZN4asio15system_categoryEv
	.section	.text._ZN4asio6detail31reactive_socket_connect_op_base10do_performEPNS0_10reactor_opE,"axG",@progbits,_ZN4asio6detail31reactive_socket_connect_op_base10do_performEPNS0_10reactor_opE,comdat
	.align	2
	.p2align 4,,11
	.weak	_ZN4asio6detail31reactive_socket_connect_op_base10do_performEPNS0_10reactor_opE
	.type	_ZN4asio6detail31reactive_socket_connect_op_base10do_performEPNS0_10reactor_opE, %function
_ZN4asio6detail31reactive_socket_connect_op_base10do_performEPNS0_10reactor_opE:
.LFB3795:
	.cfi_startproc
	stp	x29, x30, [sp, -80]!
	.cfi_def_cfa_offset 80
	.cfi_offset 29, -80
	.cfi_offset 30, -72
	adrp	x1, :got:__stack_chk_guard
	mov	w2, 0
	mov	x29, sp
	stp	x19, x20, [sp, 16]
	.cfi_offset 19, -64
	.cfi_offset 20, -56
	mov	x19, x0
	ldr	x0, [x1, #:got_lo12:__stack_chk_guard]
	stp	x21, x22, [sp, 32]
	.cfi_offset 21, -48
	.cfi_offset 22, -40
	ldr	w20, [x19, 56]
	ldr	x3, [x0]
	str	x3, [sp, 72]
	mov	x3, 0
	mov	w21, 4
	add	x0, sp, 64
	mov	x1, 1
	stp	w20, w21, [sp, 64]
	bl	poll
	mov	w2, 0
	cbnz	w0, .L644
.L631:
	adrp	x1, :got:__stack_chk_guard
	ldr	x1, [x1, #:got_lo12:__stack_chk_guard]
	ldr	x0, [sp, 72]
	ldr	x3, [x1]
	subs	x0, x0, x3
	mov	x3, 0
	bne	.L645
	mov	w0, w2
	ldp	x19, x20, [sp, 16]
	ldp	x21, x22, [sp, 32]
	ldp	x29, x30, [sp], 80
	.cfi_remember_state
	.cfi_restore 30
	.cfi_restore 29
	.cfi_restore 21
	.cfi_restore 22
	.cfi_restore 19
	.cfi_restore 20
	.cfi_def_cfa_offset 0
	ret
	.p2align 2,,3
.L644:
	.cfi_restore_state
	str	wzr, [sp, 56]
	cmn	w20, #1
	beq	.L646
	bl	__errno_location
	mov	x22, x0
	mov	w2, w21
	add	x4, sp, 60
	add	x3, sp, 56
	mov	w1, 1
	str	wzr, [x22]
	mov	w0, w20
	str	w21, [sp, 60]
	bl	getsockopt
	ldr	w21, [x22]
	mov	w20, w0
	bl	_ZN4asio15system_categoryEv
	str	w21, [x19, 24]
	str	x0, [x19, 32]
	cbnz	w20, .L633
	bl	_ZNSt3_V215system_categoryEv
	ldr	w20, [sp, 56]
	str	wzr, [x19, 24]
	str	x0, [x19, 32]
	cbnz	w20, .L647
.L633:
	mov	w2, 1
	b	.L631
	.p2align 2,,3
.L647:
	bl	_ZN4asio15system_categoryEv
	str	w20, [x19, 24]
	mov	w2, 1
	str	x0, [x19, 32]
	b	.L631
.L646:
	bl	_ZN4asio15system_categoryEv
	str	x0, [x19, 32]
	mov	w1, 9
	mov	w2, 1
	str	w1, [x19, 24]
	b	.L631
.L645:
	bl	__stack_chk_fail
	.cfi_endproc
.LFE3795:
	.size	_ZN4asio6detail31reactive_socket_connect_op_base10do_performEPNS0_10reactor_opE, .-_ZN4asio6detail31reactive_socket_connect_op_base10do_performEPNS0_10reactor_opE
	.text
	.align	2
	.p2align 4,,11
	.type	_ZN4asio6detail10socket_ops5closeEiRhbRSt10error_code.isra.0, %function
_ZN4asio6detail10socket_ops5closeEiRhbRSt10error_code.isra.0:
.LFB10374:
	.cfi_startproc
	stp	x29, x30, [sp, -80]!
	.cfi_def_cfa_offset 80
	.cfi_offset 29, -80
	.cfi_offset 30, -72
	adrp	x4, :got:__stack_chk_guard
	mov	x29, sp
	ldr	x4, [x4, #:got_lo12:__stack_chk_guard]
	stp	x19, x20, [sp, 16]
	.cfi_offset 19, -64
	.cfi_offset 20, -56
	mov	x19, x3
	stp	x21, x22, [sp, 32]
	.cfi_offset 21, -48
	.cfi_offset 22, -40
	mov	w22, w0
	ldr	x0, [x4]
	str	x0, [sp, 72]
	mov	x0, 0
	cmn	w22, #1
	beq	.L652
	and	w21, w2, 255
	stp	x23, x24, [sp, 48]
	.cfi_offset 24, -24
	.cfi_offset 23, -32
	mov	x23, x1
	bl	__errno_location
	mov	x20, x0
	cbz	w21, .L651
	ldrb	w0, [x23]
	tbnz	x0, 3, .L678
.L651:
	str	wzr, [x20]
	mov	w0, w22
	bl	close
	ldr	w24, [x20]
	mov	w21, w0
	bl	_ZN4asio15system_categoryEv
	str	w24, [x19]
	str	x0, [x19, 8]
	cbnz	w21, .L679
.L674:
	ldp	x23, x24, [sp, 48]
	.cfi_restore 24
	.cfi_restore 23
.L652:
	bl	_ZNSt3_V215system_categoryEv
	str	wzr, [x19]
	str	x0, [x19, 8]
.L648:
	adrp	x0, :got:__stack_chk_guard
	ldr	x0, [x0, #:got_lo12:__stack_chk_guard]
	ldr	x2, [sp, 72]
	ldr	x1, [x0]
	subs	x2, x2, x1
	mov	x1, 0
	bne	.L680
	ldp	x19, x20, [sp, 16]
	ldp	x21, x22, [sp, 32]
	ldp	x29, x30, [sp], 80
	.cfi_restore 30
	.cfi_restore 29
	.cfi_restore 21
	.cfi_restore 22
	.cfi_restore 19
	.cfi_restore 20
	.cfi_def_cfa_offset 0
	ret
	.p2align 2,,3
.L679:
	.cfi_def_cfa_offset 80
	.cfi_offset 19, -64
	.cfi_offset 20, -56
	.cfi_offset 21, -48
	.cfi_offset 22, -40
	.cfi_offset 23, -32
	.cfi_offset 24, -24
	.cfi_offset 29, -80
	.cfi_offset 30, -72
	bl	_ZN4asio15system_categoryEv
	ldr	x1, [x19, 8]
	cmp	x1, x0
	beq	.L681
.L653:
	bl	_ZN4asio15system_categoryEv
	ldr	x1, [x19, 8]
	cmp	x1, x0
	beq	.L682
	ldp	x23, x24, [sp, 48]
	.cfi_remember_state
	.cfi_restore 24
	.cfi_restore 23
	b	.L648
	.p2align 2,,3
.L678:
	.cfi_restore_state
	orr	w0, w0, 8
	strb	w0, [x23]
	add	x3, sp, 64
	str	wzr, [x20]
	mov	w4, 8
	mov	w2, 13
	mov	w1, 1
	mov	w0, w22
	str	xzr, [sp, 64]
	bl	setsockopt
	bl	_ZN4asio15system_categoryEv
	b	.L651
	.p2align 2,,3
.L681:
	ldr	w0, [x19]
	cmp	w0, 11
	bne	.L653
.L656:
	add	x2, sp, 64
	mov	x1, 21537
	mov	w0, w22
	str	wzr, [sp, 64]
	bl	ioctl
	ldrb	w1, [x23]
	mov	w0, w22
	and	w1, w1, -4
	strb	w1, [x23]
	str	wzr, [x20]
	bl	close
	ldr	w21, [x20]
	mov	w20, w0
	bl	_ZN4asio15system_categoryEv
	str	w21, [x19]
	str	x0, [x19, 8]
	cbz	w20, .L674
	ldp	x23, x24, [sp, 48]
	.cfi_remember_state
	.cfi_restore 24
	.cfi_restore 23
	b	.L648
	.p2align 2,,3
.L682:
	.cfi_restore_state
	ldr	w0, [x19]
	cmp	w0, 11
	beq	.L656
	ldp	x23, x24, [sp, 48]
	.cfi_restore 24
	.cfi_restore 23
	b	.L648
.L680:
	stp	x23, x24, [sp, 48]
	.cfi_offset 24, -24
	.cfi_offset 23, -32
	bl	__stack_chk_fail
	.cfi_endproc
.LFE10374:
	.size	_ZN4asio6detail10socket_ops5closeEiRhbRSt10error_code.isra.0, .-_ZN4asio6detail10socket_ops5closeEiRhbRSt10error_code.isra.0
	.section	.text._ZN4asio21asio_handler_allocateEmz,"axG",@progbits,_ZN4asio21asio_handler_allocateEmz,comdat
	.align	2
	.p2align 4,,11
	.weak	_ZN4asio21asio_handler_allocateEmz
	.type	_ZN4asio21asio_handler_allocateEmz, %function
_ZN4asio21asio_handler_allocateEmz:
.LFB2335:
	.cfi_startproc
	stp	x29, x30, [sp, -32]!
	.cfi_def_cfa_offset 32
	.cfi_offset 29, -32
	.cfi_offset 30, -24
	adrp	x1, :got:_ZN4asio6detail10call_stackINS0_15task_io_serviceENS0_27task_io_service_thread_infoEE4top_E
	mov	x29, sp
	ldr	x1, [x1, #:got_lo12:_ZN4asio6detail10call_stackINS0_15task_io_serviceENS0_27task_io_service_thread_infoEE4top_E]
	str	x19, [sp, 16]
	.cfi_offset 19, -16
	mov	x19, x0
	ldr	w0, [x1]
	bl	pthread_getspecific
	cbz	x0, .L684
	ldr	x1, [x0, 8]
	cbz	x1, .L684
	ldr	x0, [x1]
	cbz	x0, .L684
	str	xzr, [x1]
	ldrb	w1, [x0]
	cmp	x19, w1, uxtb
	bhi	.L685
	strb	w1, [x0, x19]
	ldr	x19, [sp, 16]
	ldp	x29, x30, [sp], 32
	.cfi_remember_state
	.cfi_restore 30
	.cfi_restore 29
	.cfi_restore 19
	.cfi_def_cfa_offset 0
	ret
	.p2align 2,,3
.L685:
	.cfi_restore_state
	bl	_ZdlPv
.L684:
	add	x0, x19, 1
	bl	_Znwm
	cmp	x19, 256
	csel	x1, x19, xzr, cc
	strb	w1, [x0, x19]
	ldr	x19, [sp, 16]
	ldp	x29, x30, [sp], 32
	.cfi_restore 30
	.cfi_restore 29
	.cfi_restore 19
	.cfi_def_cfa_offset 0
	ret
	.cfi_endproc
.LFE2335:
	.size	_ZN4asio21asio_handler_allocateEmz, .-_ZN4asio21asio_handler_allocateEmz
	.section	.text._ZN4asio6detail16service_registry14do_use_serviceERKNS_10io_service7service3keyEPFPS3_RS2_E,"axG",@progbits,_ZN4asio6detail16service_registry14do_use_serviceERKNS_10io_service7service3keyEPFPS3_RS2_E,comdat
	.align	2
	.p2align 4,,11
	.weak	_ZN4asio6detail16service_registry14do_use_serviceERKNS_10io_service7service3keyEPFPS3_RS2_E
	.type	_ZN4asio6detail16service_registry14do_use_serviceERKNS_10io_service7service3keyEPFPS3_RS2_E, %function
_ZN4asio6detail16service_registry14do_use_serviceERKNS_10io_service7service3keyEPFPS3_RS2_E:
.LFB2779:
	.cfi_startproc
	stp	x29, x30, [sp, -64]!
	.cfi_def_cfa_offset 64
	.cfi_offset 29, -64
	.cfi_offset 30, -56
	mov	x29, sp
	stp	x21, x22, [sp, 32]
	.cfi_offset 21, -32
	.cfi_offset 22, -24
	mov	x21, x0
	add	x22, x0, 8
	mov	x0, x22
	stp	x19, x20, [sp, 16]
	.cfi_offset 19, -48
	.cfi_offset 20, -40
	mov	x20, x1
	stp	x23, x24, [sp, 48]
	.cfi_offset 23, -16
	.cfi_offset 24, -8
	mov	x23, x2
	bl	pthread_mutex_lock
	ldr	x19, [x21, 64]
	cbz	x19, .L701
	.p2align 3,,7
.L705:
	ldp	x4, x3, [x19, 8]
	cbz	x3, .L702
	ldr	x1, [x20, 8]
	cmp	x1, 0
	ccmp	x3, x1, 0, ne
	beq	.L703
.L702:
	cbz	x4, .L704
	ldr	x1, [x20]
	cbz	x1, .L704
	ldr	x1, [x1, 8]
	ldr	x0, [x4, 8]
	cmp	x0, x1
	beq	.L703
	ldrb	w2, [x0]
	cmp	w2, 42
	beq	.L704
	bl	strcmp
	cbnz	w0, .L704
.L703:
	mov	x0, x22
	bl	pthread_mutex_unlock
	mov	x0, x19
	ldp	x19, x20, [sp, 16]
	ldp	x21, x22, [sp, 32]
	ldp	x23, x24, [sp, 48]
	ldp	x29, x30, [sp], 64
	.cfi_remember_state
	.cfi_restore 30
	.cfi_restore 29
	.cfi_restore 23
	.cfi_restore 24
	.cfi_restore 21
	.cfi_restore 22
	.cfi_restore 19
	.cfi_restore 20
	.cfi_def_cfa_offset 0
	ret
	.p2align 2,,3
.L704:
	.cfi_restore_state
	ldr	x19, [x19, 32]
	cbnz	x19, .L705
.L701:
	mov	x0, x22
	bl	pthread_mutex_unlock
	ldr	x0, [x21, 56]
	blr	x23
	mov	x24, x0
	ldp	x2, x3, [x20]
	mov	x0, x22
	stp	x2, x3, [x24, 8]
	bl	pthread_mutex_lock
	ldr	x23, [x21, 64]
	cbz	x23, .L706
	mov	x19, x23
	.p2align 3,,7
.L710:
	ldp	x2, x1, [x19, 8]
	cbz	x1, .L707
	ldr	x3, [x20, 8]
	cmp	x3, 0
	ccmp	x1, x3, 0, ne
	beq	.L708
.L707:
	cbz	x2, .L709
	ldr	x1, [x20]
	cbz	x1, .L709
	ldr	x1, [x1, 8]
	ldr	x0, [x2, 8]
	cmp	x0, x1
	beq	.L708
	ldrb	w2, [x0]
	cmp	w2, 42
	beq	.L709
	bl	strcmp
	cbnz	w0, .L709
.L708:
	ldr	x1, [x24]
	mov	x0, x24
	ldr	x1, [x1, 8]
	blr	x1
	mov	x0, x22
	bl	pthread_mutex_unlock
	mov	x0, x19
	ldp	x19, x20, [sp, 16]
	ldp	x21, x22, [sp, 32]
	ldp	x23, x24, [sp, 48]
	ldp	x29, x30, [sp], 64
	.cfi_remember_state
	.cfi_restore 30
	.cfi_restore 29
	.cfi_restore 23
	.cfi_restore 24
	.cfi_restore 21
	.cfi_restore 22
	.cfi_restore 19
	.cfi_restore 20
	.cfi_def_cfa_offset 0
	ret
	.p2align 2,,3
.L709:
	.cfi_restore_state
	ldr	x19, [x19, 32]
	cbnz	x19, .L710
.L706:
	str	x23, [x24, 32]
	mov	x19, x24
	str	x24, [x21, 64]
	b	.L703
	.cfi_endproc
.LFE2779:
	.size	_ZN4asio6detail16service_registry14do_use_serviceERKNS_10io_service7service3keyEPFPS3_RS2_E, .-_ZN4asio6detail16service_registry14do_use_serviceERKNS_10io_service7service3keyEPFPS3_RS2_E
	.section	.text._ZN4asio6detail13epoll_reactor3runEbRNS0_8op_queueINS0_25task_io_service_operationEEE,"axG",@progbits,_ZN4asio6detail13epoll_reactor3runEbRNS0_8op_queueINS0_25task_io_service_operationEEE,comdat
	.align	2
	.p2align 4,,11
	.weak	_ZN4asio6detail13epoll_reactor3runEbRNS0_8op_queueINS0_25task_io_service_operationEEE
	.type	_ZN4asio6detail13epoll_reactor3runEbRNS0_8op_queueINS0_25task_io_service_operationEEE, %function
_ZN4asio6detail13epoll_reactor3runEbRNS0_8op_queueINS0_25task_io_service_operationEEE:
.LFB3307:
	.cfi_startproc
	.cfi_personality 0x9b,DW.ref.__gxx_personality_v0
	.cfi_lsda 0x1b,.LLSDA3307
	sub	sp, sp, #2192
	.cfi_def_cfa_offset 2192
	adrp	x3, :got:__stack_chk_guard
	stp	x29, x30, [sp]
	.cfi_offset 29, -2192
	.cfi_offset 30, -2184
	mov	x29, sp
	ldr	x3, [x3, #:got_lo12:__stack_chk_guard]
	stp	x19, x20, [sp, 16]
	.cfi_offset 19, -2176
	.cfi_offset 20, -2168
	and	w19, w1, 255
	stp	x21, x22, [sp, 32]
	.cfi_offset 21, -2160
	.cfi_offset 22, -2152
	mov	x21, x0
	ldr	w0, [x0, 108]
	ldr	x1, [x3]
	str	x1, [sp, 2184]
	mov	x1, 0
	mov	x20, x2
	cmn	w0, #1
	beq	.L752
	neg	w3, w19
.L753:
	ldr	w0, [x21, 104]
	add	x19, sp, 136
	mov	x1, x19
	mov	w2, 128
.LEHB8:
	bl	epoll_wait
.LEHE8:
	ldr	w1, [x21, 108]
	cmn	w1, #1
	cset	w5, eq
	cmp	w0, 0
	ble	.L757
	sub	w4, w0, #1
	add	x0, sp, 152
	mov	x1, x19
	add	x2, x21, 96
	add	x4, x0, w4, uxtw 4
	add	x6, x21, 108
	mov	w7, 1
	b	.L761
	.p2align 2,,3
.L758:
	cmp	x3, x6
	beq	.L777
	ldr	w0, [x1]
	str	xzr, [x3]
	str	w0, [x3, 16]
	ldr	x0, [x20, 8]
	cbz	x0, .L760
	str	x3, [x0]
	str	x3, [x20, 8]
.L759:
	add	x1, x1, 16
	cmp	x1, x4
	beq	.L757
.L761:
	ldr	x3, [x1, 8]
	dup	v0.2d, x3
	cmp	x3, x2
	bne	.L758
	ldr	w0, [x21, 108]
	add	x1, x1, 16
	cmn	w0, #1
	csel	w5, w5, w7, ne
	cmp	x1, x4
	bne	.L761
.L757:
	cbnz	w5, .L793
.L751:
	adrp	x0, :got:__stack_chk_guard
	ldr	x0, [x0, #:got_lo12:__stack_chk_guard]
	ldr	x2, [sp, 2184]
	ldr	x1, [x0]
	subs	x2, x2, x1
	mov	x1, 0
	bne	.L794
	ldp	x29, x30, [sp]
	ldp	x19, x20, [sp, 16]
	ldp	x21, x22, [sp, 32]
	add	sp, sp, 2192
	.cfi_remember_state
	.cfi_restore 29
	.cfi_restore 30
	.cfi_restore 21
	.cfi_restore 22
	.cfi_restore 19
	.cfi_restore 20
	.cfi_def_cfa_offset 0
	ret
	.p2align 2,,3
.L777:
	.cfi_restore_state
	mov	w5, 1
	b	.L759
	.p2align 2,,3
.L760:
	str	q0, [x20]
	b	.L759
	.p2align 2,,3
.L793:
	add	x22, x21, 48
	mov	x0, x22
	bl	pthread_mutex_lock
	ldr	x19, [x21, 112]
	cbz	x19, .L766
	.p2align 3,,7
.L763:
	ldr	x2, [x19]
	mov	x1, x20
	mov	x0, x19
	ldr	x2, [x2, 40]
.LEHB9:
	blr	x2
	ldr	x19, [x19, 8]
	cbnz	x19, .L763
.L766:
	ldr	w0, [x21, 108]
	cmn	w0, #1
	beq	.L765
	ldr	x19, [x21, 112]
	stp	xzr, xzr, [sp, 64]
	cbz	x19, .L767
	mov	x1, 41728
	movk	x1, 0x11e1, lsl 16
	.p2align 3,,7
.L768:
	ldr	x2, [x19]
	mov	x0, x19
	ldr	x2, [x2, 32]
	blr	x2
.LEHE9:
	ldr	x19, [x19, 8]
	mov	x1, x0
	cbnz	x19, .L768
	mov	x2, 13531
	cmp	x0, 0
	movk	x2, 0xd7b6, lsl 16
	cset	w3, eq
	movk	x2, 0xde82, lsl 32
	mov	x4, 1
	movk	x2, 0x431b, lsl 48
	smulh	x2, x0, x2
	asr	x2, x2, 18
	sub	x2, x2, x0, asr 63
	str	x2, [sp, 80]
	ldr	w0, [x21, 108]
	beq	.L771
	mov	x4, 16960
	movk	x4, 0xf, lsl 16
	msub	x2, x2, x4, x1
	lsl	x4, x2, 5
	sub	x4, x4, x2
	add	x4, x2, x4, lsl 2
	lsl	x4, x4, 3
.L771:
	mov	w1, w3
	add	x2, sp, 64
	add	x3, sp, 104
	str	x4, [sp, 88]
	bl	timerfd_settime
.L765:
	mov	x0, x22
	bl	pthread_mutex_unlock
	b	.L751
	.p2align 2,,3
.L752:
	add	x22, x21, 48
	mov	x0, x22
	bl	pthread_mutex_lock
	cbz	w19, .L775
	ldr	x19, [x21, 112]
	cbz	x19, .L776
	mov	x1, 37856
	movk	x1, 0x4, lsl 16
	.p2align 3,,7
.L756:
	ldr	x2, [x19]
	mov	x0, x19
	ldr	x2, [x2, 24]
.LEHB10:
	blr	x2
.LEHE10:
	ldr	x19, [x19, 8]
	mov	x1, x0
	cbnz	x19, .L756
	mov	w3, w0
.L754:
	mov	x0, x22
	str	w3, [sp, 60]
	bl	pthread_mutex_unlock
	ldr	w3, [sp, 60]
	b	.L753
.L775:
	mov	w3, 0
	b	.L754
.L767:
	mov	x1, 300
	mov	w3, 0
	mov	x4, 0
	str	x1, [sp, 80]
	b	.L771
.L776:
	mov	w3, 37856
	movk	w3, 0x4, lsl 16
	b	.L754
.L794:
	bl	__stack_chk_fail
.L779:
.L792:
	mov	x19, x0
	mov	x0, x22
	bl	pthread_mutex_unlock
	mov	x0, x19
.LEHB11:
	bl	_Unwind_Resume
.LEHE11:
.L780:
	b	.L792
	.cfi_endproc
.LFE3307:
	.section	.gcc_except_table._ZN4asio6detail13epoll_reactor3runEbRNS0_8op_queueINS0_25task_io_service_operationEEE,"aG",@progbits,_ZN4asio6detail13epoll_reactor3runEbRNS0_8op_queueINS0_25task_io_service_operationEEE,comdat
.LLSDA3307:
	.byte	0xff
	.byte	0xff
	.byte	0x1
	.uleb128 .LLSDACSE3307-.LLSDACSB3307
.LLSDACSB3307:
	.uleb128 .LEHB8-.LFB3307
	.uleb128 .LEHE8-.LEHB8
	.uleb128 0
	.uleb128 0
	.uleb128 .LEHB9-.LFB3307
	.uleb128 .LEHE9-.LEHB9
	.uleb128 .L780-.LFB3307
	.uleb128 0
	.uleb128 .LEHB10-.LFB3307
	.uleb128 .LEHE10-.LEHB10
	.uleb128 .L779-.LFB3307
	.uleb128 0
	.uleb128 .LEHB11-.LFB3307
	.uleb128 .LEHE11-.LEHB11
	.uleb128 0
	.uleb128 0
.LLSDACSE3307:
	.section	.text._ZN4asio6detail13epoll_reactor3runEbRNS0_8op_queueINS0_25task_io_service_operationEEE,"axG",@progbits,_ZN4asio6detail13epoll_reactor3runEbRNS0_8op_queueINS0_25task_io_service_operationEEE,comdat
	.size	_ZN4asio6detail13epoll_reactor3runEbRNS0_8op_queueINS0_25task_io_service_operationEEE, .-_ZN4asio6detail13epoll_reactor3runEbRNS0_8op_queueINS0_25task_io_service_operationEEE
	.section	.text._ZN4asio6detail15task_io_service12task_cleanupD2Ev,"axG",@progbits,_ZN4asio6detail15task_io_service12task_cleanupD5Ev,comdat
	.align	2
	.p2align 4,,11
	.weak	_ZN4asio6detail15task_io_service12task_cleanupD2Ev
	.type	_ZN4asio6detail15task_io_service12task_cleanupD2Ev, %function
_ZN4asio6detail15task_io_service12task_cleanupD2Ev:
.LFB3330:
	.cfi_startproc
	stp	x29, x30, [sp, -32]!
	.cfi_def_cfa_offset 32
	.cfi_offset 29, -32
	.cfi_offset 30, -24
	mov	x29, sp
	ldr	x1, [x0, 16]
	stp	x19, x20, [sp, 16]
	.cfi_offset 19, -16
	.cfi_offset 20, -8
	mov	x19, x0
	ldr	x0, [x1, 24]
	cmp	x0, 0
	ble	.L796
	ldr	x1, [x19]
	add	x1, x1, 192
	bl	__aarch64_ldadd8_acq_rel
	ldr	x1, [x19, 16]
.L796:
	ldr	x20, [x19, 8]
	ldrb	w0, [x20, 8]
	str	xzr, [x1, 24]
	cbz	w0, .L807
.L797:
	ldr	x0, [x19]
	mov	w4, 1
	ldr	x3, [x1, 8]
	add	x2, x0, 200
	strb	w4, [x0, 184]
	cbz	x3, .L798
	ldr	x4, [x2, 8]
	cbz	x4, .L799
	str	x3, [x4]
.L800:
	ldr	x3, [x1, 16]
	str	x3, [x2, 8]
	stp	xzr, xzr, [x1, 8]
.L798:
	add	x1, x0, 160
	ldr	x3, [x2, 8]
	str	xzr, [x0, 160]
	dup	v0.2d, x1
	cbz	x3, .L801
	str	x1, [x3]
	str	x1, [x2, 8]
	ldp	x19, x20, [sp, 16]
	ldp	x29, x30, [sp], 32
	.cfi_remember_state
	.cfi_restore 30
	.cfi_restore 29
	.cfi_restore 19
	.cfi_restore 20
	.cfi_def_cfa_offset 0
	ret
	.p2align 2,,3
.L799:
	.cfi_restore_state
	str	x3, [x0, 200]
	b	.L800
	.p2align 2,,3
.L807:
	ldr	x0, [x20]
	bl	pthread_mutex_lock
	mov	w0, 1
	ldr	x1, [x19, 16]
	strb	w0, [x20, 8]
	b	.L797
	.p2align 2,,3
.L801:
	str	q0, [x0, 200]
	ldp	x19, x20, [sp, 16]
	ldp	x29, x30, [sp], 32
	.cfi_restore 30
	.cfi_restore 29
	.cfi_restore 19
	.cfi_restore 20
	.cfi_def_cfa_offset 0
	ret
	.cfi_endproc
.LFE3330:
	.size	_ZN4asio6detail15task_io_service12task_cleanupD2Ev, .-_ZN4asio6detail15task_io_service12task_cleanupD2Ev
	.weak	_ZN4asio6detail15task_io_service12task_cleanupD1Ev
	.set	_ZN4asio6detail15task_io_service12task_cleanupD1Ev,_ZN4asio6detail15task_io_service12task_cleanupD2Ev
	.section	.text._ZN4asio6detail15task_io_service12work_cleanupD2Ev,"axG",@progbits,_ZN4asio6detail15task_io_service12work_cleanupD5Ev,comdat
	.align	2
	.p2align 4,,11
	.weak	_ZN4asio6detail15task_io_service12work_cleanupD2Ev
	.type	_ZN4asio6detail15task_io_service12work_cleanupD2Ev, %function
_ZN4asio6detail15task_io_service12work_cleanupD2Ev:
.LFB3333:
	.cfi_startproc
	stp	x29, x30, [sp, -80]!
	.cfi_def_cfa_offset 80
	.cfi_offset 29, -80
	.cfi_offset 30, -72
	adrp	x1, :got:__stack_chk_guard
	mov	x29, sp
	stp	x19, x20, [sp, 16]
	.cfi_offset 19, -64
	.cfi_offset 20, -56
	mov	x19, x0
	ldr	x0, [x1, #:got_lo12:__stack_chk_guard]
	ldr	x1, [x19, 16]
	ldr	x2, [x0]
	str	x2, [sp, 72]
	mov	x2, 0
	ldr	x0, [x1, 24]
	cmp	x0, 1
	bgt	.L829
	bne	.L830
.L810:
	ldr	x0, [x1, 8]
	str	xzr, [x1, 24]
	cbz	x0, .L808
	ldr	x20, [x19, 8]
	ldrb	w2, [x20, 8]
	cbz	w2, .L831
	ldr	x3, [x19]
.L819:
	add	x2, x3, 200
	ldr	x4, [x2, 8]
	cbz	x4, .L817
	str	x0, [x4]
.L818:
	ldr	x0, [x1, 16]
	str	x0, [x2, 8]
	stp	xzr, xzr, [x1, 8]
.L808:
	adrp	x0, :got:__stack_chk_guard
	ldr	x0, [x0, #:got_lo12:__stack_chk_guard]
	ldr	x2, [sp, 72]
	ldr	x1, [x0]
	subs	x2, x2, x1
	mov	x1, 0
	bne	.L832
	ldp	x19, x20, [sp, 16]
	ldp	x29, x30, [sp], 80
	.cfi_remember_state
	.cfi_restore 30
	.cfi_restore 29
	.cfi_restore 19
	.cfi_restore 20
	.cfi_def_cfa_offset 0
	ret
	.p2align 2,,3
.L830:
	.cfi_restore_state
	ldr	x20, [x19]
	mov	x0, -1
	stp	x21, x22, [sp, 32]
	.cfi_offset 22, -40
	.cfi_offset 21, -48
	mov	x21, 1
	add	x1, x20, 192
	bl	__aarch64_ldadd8_acq_rel
	cmp	x0, x21
	beq	.L811
.L828:
	ldr	x1, [x19, 16]
	ldp	x21, x22, [sp, 32]
	.cfi_restore 22
	.cfi_restore 21
	b	.L810
	.p2align 2,,3
.L831:
	ldr	x0, [x20]
	bl	pthread_mutex_lock
	ldr	x1, [x19, 16]
	mov	w0, 1
	ldr	x3, [x19]
	strb	w0, [x20, 8]
	ldr	x0, [x1, 8]
	cbz	x0, .L808
	b	.L819
	.p2align 2,,3
.L829:
	ldr	x1, [x19]
	sub	x0, x0, #1
	add	x1, x1, 192
	bl	__aarch64_ldadd8_acq_rel
	ldr	x1, [x19, 16]
	b	.L810
	.p2align 2,,3
.L811:
	.cfi_offset 21, -48
	.cfi_offset 22, -40
	add	x22, x20, 48
	mov	x0, x22
	bl	pthread_mutex_lock
	ldr	x1, [x20, 144]
	strb	w21, [x20, 216]
	add	x0, x20, 96
	orr	x1, x1, 1
	str	x1, [x0, 48]
	bl	pthread_cond_broadcast
	ldrb	w0, [x20, 184]
	cbnz	w0, .L812
	ldr	x1, [x20, 152]
	cbz	x1, .L812
	ldr	w2, [x1, 96]
	add	x4, x1, 96
	ldr	w0, [x1, 104]
	mov	w5, 9
	movk	w5, 0x8000, lsl 16
	strb	w21, [x20, 184]
	add	x3, sp, 56
	mov	w1, 3
	str	w5, [sp, 56]
	str	x4, [sp, 64]
	bl	epoll_ctl
.L812:
	mov	x0, x22
	bl	pthread_mutex_unlock
	b	.L828
	.p2align 2,,3
.L817:
	.cfi_restore 21
	.cfi_restore 22
	str	x0, [x3, 200]
	b	.L818
.L832:
	stp	x21, x22, [sp, 32]
	.cfi_offset 22, -40
	.cfi_offset 21, -48
	bl	__stack_chk_fail
	.cfi_endproc
.LFE3333:
	.size	_ZN4asio6detail15task_io_service12work_cleanupD2Ev, .-_ZN4asio6detail15task_io_service12work_cleanupD2Ev
	.weak	_ZN4asio6detail15task_io_service12work_cleanupD1Ev
	.set	_ZN4asio6detail15task_io_service12work_cleanupD1Ev,_ZN4asio6detail15task_io_service12work_cleanupD2Ev
	.section	.text._ZN4asio6detail15task_io_service25post_immediate_completionEPNS0_25task_io_service_operationEb,"axG",@progbits,_ZN4asio6detail15task_io_service25post_immediate_completionEPNS0_25task_io_service_operationEb,comdat
	.align	2
	.p2align 4,,11
	.weak	_ZN4asio6detail15task_io_service25post_immediate_completionEPNS0_25task_io_service_operationEb
	.type	_ZN4asio6detail15task_io_service25post_immediate_completionEPNS0_25task_io_service_operationEb, %function
_ZN4asio6detail15task_io_service25post_immediate_completionEPNS0_25task_io_service_operationEb:
.LFB3360:
	.cfi_startproc
	stp	x29, x30, [sp, -96]!
	.cfi_def_cfa_offset 96
	.cfi_offset 29, -96
	.cfi_offset 30, -88
	adrp	x3, :got:__stack_chk_guard
	mov	x29, sp
	stp	x19, x20, [sp, 16]
	.cfi_offset 19, -80
	.cfi_offset 20, -72
	mov	x20, x1
	mov	x19, x0
	dup	v0.2d, x20
	ldrb	w0, [x0, 40]
	ldr	x3, [x3, #:got_lo12:__stack_chk_guard]
	orr	w2, w2, w0
	ldr	x1, [x3]
	str	x1, [sp, 88]
	mov	x1, 0
	str	q0, [sp, 48]
	tst	w2, 255
	beq	.L859
	adrp	x0, :got:_ZN4asio6detail10call_stackINS0_15task_io_serviceENS0_27task_io_service_thread_infoEE4top_E
	ldr	x0, [x0, #:got_lo12:_ZN4asio6detail10call_stackINS0_15task_io_serviceENS0_27task_io_service_thread_infoEE4top_E]
	ldr	w0, [x0]
	bl	pthread_getspecific
	cbnz	x0, .L837
	b	.L859
	.p2align 2,,3
.L835:
	ldr	x0, [x0, 16]
	cbz	x0, .L859
.L837:
	ldr	x2, [x0]
	cmp	x19, x2
	bne	.L835
	ldr	x0, [x0, 8]
	cbz	x0, .L859
	ldp	x3, x1, [x0, 16]
	add	x1, x1, 1
	str	x1, [x0, 24]
	str	xzr, [x20]
	ldr	x1, [x0, 16]
	cbz	x3, .L838
	str	x20, [x1]
	str	x20, [x0, 16]
.L833:
	adrp	x0, :got:__stack_chk_guard
	ldr	x0, [x0, #:got_lo12:__stack_chk_guard]
	ldr	x2, [sp, 88]
	ldr	x1, [x0]
	subs	x2, x2, x1
	mov	x1, 0
	bne	.L862
	ldp	x19, x20, [sp, 16]
	ldp	x29, x30, [sp], 96
	.cfi_remember_state
	.cfi_restore 30
	.cfi_restore 29
	.cfi_restore 19
	.cfi_restore 20
	.cfi_def_cfa_offset 0
	ret
	.p2align 2,,3
.L859:
	.cfi_restore_state
	add	x1, x19, 192
	mov	x0, 1
	str	x21, [sp, 32]
	.cfi_offset 21, -64
	bl	__aarch64_ldadd8_acq_rel
	add	x21, x19, 48
	mov	x0, x21
	bl	pthread_mutex_lock
	ldr	x1, [x19, 208]
	str	xzr, [x20]
	cbz	x1, .L840
	str	x20, [x1]
	str	x20, [x19, 208]
.L841:
	ldr	x1, [x19, 144]
	add	x20, x19, 96
	orr	x1, x1, 1
	str	x1, [x20, 48]
	cmp	x1, 1
	beq	.L842
	mov	x0, x21
	bl	pthread_mutex_unlock
	adrp	x0, :got:__stack_chk_guard
	ldr	x0, [x0, #:got_lo12:__stack_chk_guard]
	ldr	x2, [sp, 88]
	ldr	x1, [x0]
	subs	x2, x2, x1
	mov	x1, 0
	bne	.L861
	mov	x0, x20
	ldp	x19, x20, [sp, 16]
	ldr	x21, [sp, 32]
	.cfi_remember_state
	.cfi_restore 21
	ldp	x29, x30, [sp], 96
	.cfi_restore 30
	.cfi_restore 29
	.cfi_restore 19
	.cfi_restore 20
	.cfi_def_cfa_offset 0
	b	pthread_cond_signal
	.p2align 2,,3
.L842:
	.cfi_restore_state
	ldrb	w0, [x19, 184]
	cbnz	w0, .L844
	ldr	x3, [x19, 152]
	cbz	x3, .L844
	ldr	w2, [x3, 96]
	add	x4, x3, 96
	ldr	w0, [x3, 104]
	mov	w5, 9
	movk	w5, 0x8000, lsl 16
	strb	w1, [x19, 184]
	add	x3, sp, 72
	mov	w1, 3
	str	w5, [sp, 72]
	str	x4, [sp, 80]
	bl	epoll_ctl
.L844:
	adrp	x0, :got:__stack_chk_guard
	ldr	x0, [x0, #:got_lo12:__stack_chk_guard]
	ldr	x2, [sp, 88]
	ldr	x1, [x0]
	subs	x2, x2, x1
	mov	x1, 0
	bne	.L861
	mov	x0, x21
	ldp	x19, x20, [sp, 16]
	ldr	x21, [sp, 32]
	.cfi_remember_state
	.cfi_restore 21
	ldp	x29, x30, [sp], 96
	.cfi_restore 30
	.cfi_restore 29
	.cfi_restore 19
	.cfi_restore 20
	.cfi_def_cfa_offset 0
	b	pthread_mutex_unlock
	.p2align 2,,3
.L840:
	.cfi_restore_state
	ldr	q0, [sp, 48]
	str	q0, [x19, 200]
	b	.L841
	.p2align 2,,3
.L838:
	.cfi_restore 21
	ldr	q0, [sp, 48]
	str	q0, [x0, 8]
	b	.L833
.L862:
	str	x21, [sp, 32]
	.cfi_offset 21, -64
.L861:
	bl	__stack_chk_fail
	.cfi_endproc
.LFE3360:
	.size	_ZN4asio6detail15task_io_service25post_immediate_completionEPNS0_25task_io_service_operationEb, .-_ZN4asio6detail15task_io_service25post_immediate_completionEPNS0_25task_io_service_operationEb
	.section	.text._ZN4asio6detail15task_io_service25post_deferred_completionsERNS0_8op_queueINS0_25task_io_service_operationEEE,"axG",@progbits,_ZN4asio6detail15task_io_service25post_deferred_completionsERNS0_8op_queueINS0_25task_io_service_operationEEE,comdat
	.align	2
	.p2align 4,,11
	.weak	_ZN4asio6detail15task_io_service25post_deferred_completionsERNS0_8op_queueINS0_25task_io_service_operationEEE
	.type	_ZN4asio6detail15task_io_service25post_deferred_completionsERNS0_8op_queueINS0_25task_io_service_operationEEE, %function
_ZN4asio6detail15task_io_service25post_deferred_completionsERNS0_8op_queueINS0_25task_io_service_operationEEE:
.LFB3362:
	.cfi_startproc
	stp	x29, x30, [sp, -80]!
	.cfi_def_cfa_offset 80
	.cfi_offset 29, -80
	.cfi_offset 30, -72
	adrp	x2, :got:__stack_chk_guard
	mov	x29, sp
	ldr	x2, [x2, #:got_lo12:__stack_chk_guard]
	stp	x19, x20, [sp, 16]
	.cfi_offset 19, -64
	.cfi_offset 20, -56
	mov	x19, x0
	ldr	x0, [x1]
	mov	x20, x1
	ldr	x1, [x2]
	str	x1, [sp, 72]
	mov	x1, 0
	cbz	x0, .L863
	ldrb	w0, [x19, 40]
	cbz	w0, .L899
	adrp	x0, :got:_ZN4asio6detail10call_stackINS0_15task_io_serviceENS0_27task_io_service_thread_infoEE4top_E
	ldr	x0, [x0, #:got_lo12:_ZN4asio6detail10call_stackINS0_15task_io_serviceENS0_27task_io_service_thread_infoEE4top_E]
	ldr	w0, [x0]
	bl	pthread_getspecific
	mov	x2, x0
	cbnz	x0, .L869
	b	.L899
	.p2align 2,,3
.L867:
	ldr	x2, [x2, 16]
	cbz	x2, .L899
.L869:
	ldr	x0, [x2]
	cmp	x19, x0
	bne	.L867
	ldr	x0, [x2, 8]
	cbz	x0, .L899
	ldr	x1, [x20]
	cbz	x1, .L863
	ldr	x3, [x0, 16]
	add	x2, x0, 8
	cbz	x3, .L871
	str	x1, [x3]
.L872:
	ldr	x0, [x20, 8]
	str	x0, [x2, 8]
	stp	xzr, xzr, [x20]
.L863:
	adrp	x0, :got:__stack_chk_guard
	ldr	x0, [x0, #:got_lo12:__stack_chk_guard]
	ldr	x2, [sp, 72]
	ldr	x1, [x0]
	subs	x2, x2, x1
	mov	x1, 0
	bne	.L902
	ldp	x19, x20, [sp, 16]
	ldp	x29, x30, [sp], 80
	.cfi_remember_state
	.cfi_restore 30
	.cfi_restore 29
	.cfi_restore 19
	.cfi_restore 20
	.cfi_def_cfa_offset 0
	ret
	.p2align 2,,3
.L899:
	.cfi_restore_state
	str	x21, [sp, 32]
	.cfi_offset 21, -48
	add	x21, x19, 48
	mov	x0, x21
	bl	pthread_mutex_lock
	ldr	x0, [x20]
	cbz	x0, .L873
	ldr	x2, [x19, 208]
	add	x1, x19, 200
	cbz	x2, .L874
	str	x0, [x2]
.L875:
	ldr	x0, [x20, 8]
	str	x0, [x1, 8]
	stp	xzr, xzr, [x20]
.L873:
	add	x20, x19, 96
	ldr	x1, [x20, 48]
	orr	x1, x1, 1
	str	x1, [x20, 48]
	cmp	x1, 1
	beq	.L876
	mov	x0, x21
	bl	pthread_mutex_unlock
	adrp	x0, :got:__stack_chk_guard
	ldr	x0, [x0, #:got_lo12:__stack_chk_guard]
	ldr	x2, [sp, 72]
	ldr	x1, [x0]
	subs	x2, x2, x1
	mov	x1, 0
	bne	.L901
	mov	x0, x20
	ldp	x19, x20, [sp, 16]
	ldr	x21, [sp, 32]
	.cfi_remember_state
	.cfi_restore 21
	ldp	x29, x30, [sp], 80
	.cfi_restore 30
	.cfi_restore 29
	.cfi_restore 19
	.cfi_restore 20
	.cfi_def_cfa_offset 0
	b	pthread_cond_signal
	.p2align 2,,3
.L876:
	.cfi_restore_state
	ldrb	w0, [x19, 184]
	cbnz	w0, .L878
	ldr	x3, [x19, 152]
	cbz	x3, .L878
	ldr	w2, [x3, 96]
	add	x4, x3, 96
	ldr	w0, [x3, 104]
	mov	w5, 9
	movk	w5, 0x8000, lsl 16
	strb	w1, [x19, 184]
	add	x3, sp, 56
	mov	w1, 3
	str	w5, [sp, 56]
	str	x4, [sp, 64]
	bl	epoll_ctl
.L878:
	adrp	x0, :got:__stack_chk_guard
	ldr	x0, [x0, #:got_lo12:__stack_chk_guard]
	ldr	x2, [sp, 72]
	ldr	x1, [x0]
	subs	x2, x2, x1
	mov	x1, 0
	bne	.L901
	mov	x0, x21
	ldp	x19, x20, [sp, 16]
	ldr	x21, [sp, 32]
	.cfi_remember_state
	.cfi_restore 21
	ldp	x29, x30, [sp], 80
	.cfi_restore 30
	.cfi_restore 29
	.cfi_restore 19
	.cfi_restore 20
	.cfi_def_cfa_offset 0
	b	pthread_mutex_unlock
	.p2align 2,,3
.L874:
	.cfi_restore_state
	str	x0, [x19, 200]
	b	.L875
	.p2align 2,,3
.L871:
	.cfi_restore 21
	str	x1, [x0, 8]
	b	.L872
.L902:
	str	x21, [sp, 32]
	.cfi_offset 21, -48
.L901:
	bl	__stack_chk_fail
	.cfi_endproc
.LFE3362:
	.size	_ZN4asio6detail15task_io_service25post_deferred_completionsERNS0_8op_queueINS0_25task_io_service_operationEEE, .-_ZN4asio6detail15task_io_service25post_deferred_completionsERNS0_8op_queueINS0_25task_io_service_operationEEE
	.section	.text._ZN4asio6detail15task_io_service26wake_one_thread_and_unlockERNS0_11scoped_lockINS0_11posix_mutexEEE,"axG",@progbits,_ZN4asio6detail15task_io_service26wake_one_thread_and_unlockERNS0_11scoped_lockINS0_11posix_mutexEEE,comdat
	.align	2
	.p2align 4,,11
	.weak	_ZN4asio6detail15task_io_service26wake_one_thread_and_unlockERNS0_11scoped_lockINS0_11posix_mutexEEE
	.type	_ZN4asio6detail15task_io_service26wake_one_thread_and_unlockERNS0_11scoped_lockINS0_11posix_mutexEEE, %function
_ZN4asio6detail15task_io_service26wake_one_thread_and_unlockERNS0_11scoped_lockINS0_11posix_mutexEEE:
.LFB3368:
	.cfi_startproc
	stp	x29, x30, [sp, -64]!
	.cfi_def_cfa_offset 64
	.cfi_offset 29, -64
	.cfi_offset 30, -56
	adrp	x2, :got:__stack_chk_guard
	mov	x3, x0
	mov	x29, sp
	stp	x19, x20, [sp, 16]
	.cfi_offset 19, -48
	.cfi_offset 20, -40
	add	x20, x0, 96
	mov	x19, x1
	ldr	x2, [x2, #:got_lo12:__stack_chk_guard]
	ldr	x4, [x20, 48]
	ldr	x0, [x2]
	str	x0, [sp, 56]
	mov	x0, 0
	orr	x4, x4, 1
	str	x4, [x20, 48]
	cmp	x4, 1
	beq	.L904
	ldrb	w0, [x1, 8]
	cbnz	w0, .L921
	adrp	x0, :got:__stack_chk_guard
	ldr	x0, [x0, #:got_lo12:__stack_chk_guard]
	ldr	x2, [sp, 56]
	ldr	x1, [x0]
	subs	x2, x2, x1
	mov	x1, 0
	bne	.L920
.L906:
	mov	x0, x20
	ldp	x19, x20, [sp, 16]
	ldp	x29, x30, [sp], 64
	.cfi_remember_state
	.cfi_restore 30
	.cfi_restore 29
	.cfi_restore 19
	.cfi_restore 20
	.cfi_def_cfa_offset 0
	b	pthread_cond_signal
	.p2align 2,,3
.L904:
	.cfi_restore_state
	ldrb	w0, [x3, 184]
	cbnz	w0, .L907
	ldr	x1, [x3, 152]
	cbz	x1, .L907
	ldr	w2, [x1, 96]
	add	x5, x1, 96
	ldr	w0, [x1, 104]
	mov	w6, 9
	movk	w6, 0x8000, lsl 16
	strb	w4, [x3, 184]
	mov	w1, 3
	add	x3, sp, 40
	str	w6, [sp, 40]
	str	x5, [sp, 48]
	bl	epoll_ctl
.L907:
	ldrb	w0, [x19, 8]
	cbnz	w0, .L922
.L903:
	adrp	x0, :got:__stack_chk_guard
	ldr	x0, [x0, #:got_lo12:__stack_chk_guard]
	ldr	x2, [sp, 56]
	ldr	x1, [x0]
	subs	x2, x2, x1
	mov	x1, 0
	bne	.L920
	ldp	x19, x20, [sp, 16]
	ldp	x29, x30, [sp], 64
	.cfi_remember_state
	.cfi_restore 30
	.cfi_restore 29
	.cfi_restore 19
	.cfi_restore 20
	.cfi_def_cfa_offset 0
	ret
	.p2align 2,,3
.L922:
	.cfi_restore_state
	ldr	x0, [x19]
	bl	pthread_mutex_unlock
	strb	wzr, [x19, 8]
	b	.L903
	.p2align 2,,3
.L921:
	ldr	x0, [x1]
	bl	pthread_mutex_unlock
	strb	wzr, [x19, 8]
	adrp	x0, :got:__stack_chk_guard
	ldr	x0, [x0, #:got_lo12:__stack_chk_guard]
	ldr	x2, [sp, 56]
	ldr	x1, [x0]
	subs	x2, x2, x1
	mov	x1, 0
	beq	.L906
.L920:
	bl	__stack_chk_fail
	.cfi_endproc
.LFE3368:
	.size	_ZN4asio6detail15task_io_service26wake_one_thread_and_unlockERNS0_11scoped_lockINS0_11posix_mutexEEE, .-_ZN4asio6detail15task_io_service26wake_one_thread_and_unlockERNS0_11scoped_lockINS0_11posix_mutexEEE
	.section	.text._ZN4asio6detail15task_io_service3runERSt10error_code,"axG",@progbits,_ZN4asio6detail15task_io_service3runERSt10error_code,comdat
	.align	2
	.p2align 4,,11
	.weak	_ZN4asio6detail15task_io_service3runERSt10error_code
	.type	_ZN4asio6detail15task_io_service3runERSt10error_code, %function
_ZN4asio6detail15task_io_service3runERSt10error_code:
.LFB3347:
	.cfi_startproc
	.cfi_personality 0x9b,DW.ref.__gxx_personality_v0
	.cfi_lsda 0x1b,.LLSDA3347
	stp	x29, x30, [sp, -272]!
	.cfi_def_cfa_offset 272
	.cfi_offset 29, -272
	.cfi_offset 30, -264
	adrp	x2, :got:__stack_chk_guard
	mov	x29, sp
	ldr	x2, [x2, #:got_lo12:__stack_chk_guard]
	stp	x19, x20, [sp, 16]
	.cfi_offset 19, -256
	.cfi_offset 20, -248
	mov	x19, x1
	stp	x25, x26, [sp, 64]
	mov	x20, x0
	.cfi_offset 25, -208
	.cfi_offset 26, -200
	add	x26, x0, 192
	str	x1, [sp, 128]
	ldr	x0, [x2]
	str	x0, [sp, 264]
	mov	x0, 0
	bl	_ZNSt3_V215system_categoryEv
	str	wzr, [x19]
	str	x0, [x19, 8]
	str	x0, [sp, 120]
	ldar	x0, [x26]
	str	x0, [sp, 112]
	add	x1, x20, 48
	str	x1, [sp, 136]
	cbz	x0, .L1037
	adrp	x0, :got:_ZN4asio6detail10call_stackINS0_15task_io_serviceENS0_27task_io_service_thread_infoEE4top_E
	stp	x21, x22, [sp, 32]
	.cfi_offset 22, -232
	.cfi_offset 21, -240
	add	x19, x20, 96
	ldr	x21, [x0, #:got_lo12:_ZN4asio6detail10call_stackINS0_15task_io_serviceENS0_27task_io_service_thread_infoEE4top_E]
	stp	x23, x24, [sp, 48]
	.cfi_offset 24, -216
	.cfi_offset 23, -224
	add	x24, sp, 224
	stp	x27, x28, [sp, 80]
	.cfi_offset 28, -184
	.cfi_offset 27, -192
	add	x25, x20, 160
	ldr	w0, [x21]
	str	xzr, [sp, 112]
	stp	x20, x24, [sp, 176]
	stp	xzr, xzr, [sp, 224]
	stp	xzr, xzr, [sp, 240]
	bl	pthread_getspecific
	mov	x2, x0
	ldr	w0, [x21]
	add	x1, sp, 176
	str	x2, [sp, 192]
	bl	pthread_setspecific
	add	x0, x20, 48
	str	x0, [sp, 144]
	bl	pthread_mutex_lock
	mov	w0, 1
	strb	w0, [sp, 152]
	.p2align 3,,7
.L927:
	ldrb	w0, [x20, 216]
	cbnz	w0, .L960
	add	x21, x20, 200
	add	x23, sp, 144
	mov	w22, 1
	.p2align 3,,7
.L929:
	ldr	x2, [x21]
	cbz	x2, .L932
	ldr	x0, [x2]
	str	x0, [x21]
	cbz	x0, .L1038
	ldrb	w28, [x20, 40]
	str	xzr, [x2]
	cmp	x2, x25
	bne	.L1039
	strb	w22, [x20, 184]
	ldrb	w0, [sp, 152]
	cbz	w28, .L1040
	mov	w28, 0
	cbnz	w0, .L1041
.L937:
	ldr	x0, [x20, 152]
	mov	w1, w28
	add	x2, sp, 232
	stp	x20, x23, [sp, 200]
	str	x24, [sp, 216]
.LEHB12:
	bl	_ZN4asio6detail13epoll_reactor3runEbRNS0_8op_queueINS0_25task_io_service_operationEEE
.LEHE12:
	ldr	x0, [sp, 248]
	cmp	x0, 0
	bgt	.L1042
	mov	x3, x23
	mov	x27, x24
	mov	x28, x20
	ldrb	w0, [x3, 8]
	str	xzr, [x27, 24]
	cbz	w0, .L1043
.L939:
	ldr	x3, [x27, 8]
	strb	w22, [x28, 184]
	add	x0, x28, 200
	cbz	x3, .L940
	ldr	x4, [x0, 8]
	cbz	x4, .L941
	str	x3, [x4]
.L942:
	ldr	x3, [x27, 16]
	str	x3, [x0, 8]
	stp	xzr, xzr, [x27, 8]
.L940:
	add	x2, x28, 160
	ldr	x3, [x0, 8]
	str	xzr, [x28, 160]
	dup	v0.2d, x2
	cbz	x3, .L943
	str	x2, [x3]
	str	x2, [x0, 8]
.L945:
	ldrb	w0, [x20, 216]
	cbz	w0, .L929
.L960:
	ldrb	w0, [sp, 152]
	cbnz	w0, .L1044
.L931:
	adrp	x0, :got:_ZN4asio6detail10call_stackINS0_15task_io_serviceENS0_27task_io_service_thread_infoEE4top_E
	add	x19, sp, 200
	ldr	x1, [sp, 192]
	ldr	x0, [x0, #:got_lo12:_ZN4asio6detail10call_stackINS0_15task_io_serviceENS0_27task_io_service_thread_infoEE4top_E]
	ldr	w0, [x0]
	bl	pthread_setspecific
	ldr	x1, [sp, 232]
	cbnz	x1, .L964
	b	.L968
	.p2align 2,,3
.L967:
	ldr	x4, [x1, 8]
	str	xzr, [x1]
	ldr	x0, [sp, 120]
	str	wzr, [sp, 200]
	str	x0, [sp, 208]
	mov	x2, x19
	mov	x3, 0
	mov	x0, 0
	blr	x4
	ldr	x1, [sp, 232]
	cbz	x1, .L968
.L964:
	ldr	x0, [x1]
	str	x0, [sp, 232]
	cbnz	x0, .L967
	ldr	x4, [x1, 8]
	str	xzr, [sp, 240]
	str	xzr, [x1]
	mov	x2, x19
	ldr	x0, [sp, 120]
	str	wzr, [sp, 200]
	str	x0, [sp, 208]
	mov	x3, 0
	mov	x0, 0
	blr	x4
	ldr	x1, [sp, 232]
	cbnz	x1, .L964
.L968:
	ldr	x0, [sp, 224]
	cbz	x0, .L1036
	bl	_ZdlPv
.L1036:
	ldp	x21, x22, [sp, 32]
	.cfi_restore 22
	.cfi_restore 21
	ldp	x23, x24, [sp, 48]
	.cfi_restore 24
	.cfi_restore 23
	ldp	x27, x28, [sp, 80]
	.cfi_restore 28
	.cfi_restore 27
.L923:
	adrp	x0, :got:__stack_chk_guard
	ldr	x0, [x0, #:got_lo12:__stack_chk_guard]
	ldr	x2, [sp, 264]
	ldr	x1, [x0]
	subs	x2, x2, x1
	mov	x1, 0
	bne	.L1045
	ldp	x19, x20, [sp, 16]
	ldp	x25, x26, [sp, 64]
	ldr	x0, [sp, 112]
	ldp	x29, x30, [sp], 272
	.cfi_restore 30
	.cfi_restore 29
	.cfi_restore 25
	.cfi_restore 26
	.cfi_restore 19
	.cfi_restore 20
	.cfi_def_cfa_offset 0
	ret
	.p2align 2,,3
.L1042:
	.cfi_def_cfa_offset 272
	.cfi_offset 19, -256
	.cfi_offset 20, -248
	.cfi_offset 21, -240
	.cfi_offset 22, -232
	.cfi_offset 23, -224
	.cfi_offset 24, -216
	.cfi_offset 25, -208
	.cfi_offset 26, -200
	.cfi_offset 27, -192
	.cfi_offset 28, -184
	.cfi_offset 29, -272
	.cfi_offset 30, -264
	mov	x1, x26
	bl	__aarch64_ldadd8_acq_rel
	ldp	x28, x3, [sp, 200]
	ldr	x27, [sp, 216]
	ldrb	w0, [x3, 8]
	str	xzr, [x27, 24]
	cbnz	w0, .L939
.L1043:
	ldr	x0, [x3]
	str	x3, [sp, 104]
	bl	pthread_mutex_lock
	ldr	x3, [sp, 104]
	strb	w22, [x3, 8]
	b	.L939
	.p2align 2,,3
.L1038:
	str	xzr, [x21, 8]
	str	xzr, [x2]
	cmp	x2, x25
	bne	.L1046
	ldrb	w0, [sp, 152]
	mov	w28, 1
	strb	wzr, [x20, 184]
	cbz	w0, .L937
.L1041:
	ldr	x0, [sp, 144]
	bl	pthread_mutex_unlock
	strb	wzr, [sp, 152]
	b	.L937
	.p2align 2,,3
.L943:
	str	q0, [x28, 200]
	b	.L945
	.p2align 2,,3
.L1040:
	ldr	x2, [x19, 48]
	orr	x27, x2, 1
	str	x27, [x19, 48]
	cbnz	w0, .L1047
.L936:
	cmp	x27, 1
	beq	.L937
	mov	x0, x19
	bl	pthread_cond_signal
	b	.L937
	.p2align 2,,3
.L932:
	ldr	x0, [x19, 48]
	and	x0, x0, -2
	.p2align 3,,7
.L959:
	ldr	x1, [sp, 144]
	add	x0, x0, 2
	str	x0, [x19, 48]
	mov	x0, x19
.LEHB13:
	bl	pthread_cond_wait
.LEHE13:
	ldr	x0, [x19, 48]
	sub	x0, x0, #2
	str	x0, [x19, 48]
	tbz	x0, 0, .L959
	b	.L945
	.p2align 2,,3
.L941:
	str	x3, [x0]
	b	.L942
	.p2align 2,,3
.L1047:
	ldr	x0, [sp, 144]
	bl	pthread_mutex_unlock
	strb	wzr, [sp, 152]
	b	.L936
	.p2align 2,,3
.L1039:
	ldr	w22, [x2, 16]
	cbz	w28, .L1048
	ldrb	w0, [sp, 152]
	add	x21, sp, 144
	cbnz	w0, .L1049
.L946:
	mov	x1, x2
	mov	x3, x22
	ldr	x4, [x2, 8]
	stp	x20, x21, [sp, 200]
	mov	x0, x20
	ldr	x2, [sp, 128]
	str	x24, [sp, 216]
.LEHB14:
	blr	x4
.LEHE14:
	ldr	x0, [sp, 248]
	cmp	x0, 1
	bgt	.L1050
	mov	x21, x24
	beq	.L948
	mov	x1, x26
	mov	x0, -1
	mov	x21, 1
	bl	__aarch64_ldadd8_acq_rel
	cmp	x0, x21
	beq	.L949
.L1033:
	ldr	x21, [sp, 216]
.L948:
	str	xzr, [x21, 24]
	ldr	x0, [x21, 8]
	cbz	x0, .L952
	ldp	x23, x22, [sp, 200]
	ldrb	w1, [x22, 8]
	cbz	w1, .L1051
.L953:
	ldr	x2, [x23, 208]
	add	x1, x23, 200
	cbz	x2, .L955
	str	x0, [x2]
.L956:
	ldr	x0, [x21, 16]
	str	x0, [x1, 8]
	stp	xzr, xzr, [x21, 8]
.L952:
	ldrb	w0, [sp, 152]
	ldr	x1, [sp, 112]
	cmn	x1, #1
	cinc	x1, x1, ne
	str	x1, [sp, 112]
	cbnz	w0, .L927
	ldr	x0, [sp, 144]
	bl	pthread_mutex_lock
	mov	w0, 1
	strb	w0, [sp, 152]
	b	.L927
	.p2align 2,,3
.L1050:
	sub	x0, x0, #1
	mov	x1, x26
	bl	__aarch64_ldadd8_acq_rel
	ldr	x21, [sp, 216]
	b	.L948
.L1046:
	ldrb	w0, [sp, 152]
	add	x21, sp, 144
	ldr	w22, [x2, 16]
	cbz	w0, .L946
.L1049:
	ldr	x0, [sp, 144]
	str	x2, [sp, 104]
	bl	pthread_mutex_unlock
	strb	wzr, [sp, 152]
	ldr	x2, [sp, 104]
	b	.L946
.L1048:
	add	x21, sp, 144
	mov	x0, x20
	mov	x1, x21
	str	x2, [sp, 104]
	bl	_ZN4asio6detail15task_io_service26wake_one_thread_and_unlockERNS0_11scoped_lockINS0_11posix_mutexEEE
	ldr	x2, [sp, 104]
	b	.L946
.L1051:
	ldr	x0, [x22]
	bl	pthread_mutex_lock
	ldr	x0, [x21, 8]
	mov	w1, 1
	strb	w1, [x22, 8]
	cbz	x0, .L952
	b	.L953
.L949:
	ldr	x0, [sp, 136]
	bl	pthread_mutex_lock
	ldr	x1, [x19, 48]
	strb	w21, [x20, 216]
	mov	x0, x19
	orr	x1, x1, 1
	str	x1, [x19, 48]
	bl	pthread_cond_broadcast
	ldrb	w0, [x20, 184]
	cbnz	w0, .L950
	ldr	x0, [x20, 152]
	cbz	x0, .L950
	ldr	w2, [x0, 96]
	add	x4, x0, 96
	ldr	w0, [x0, 104]
	mov	w5, 9
	movk	w5, 0x8000, lsl 16
	strb	w21, [x20, 184]
	add	x3, sp, 160
	mov	w1, 3
	str	w5, [sp, 160]
	str	x4, [sp, 168]
	bl	epoll_ctl
.L950:
	ldr	x0, [sp, 136]
	bl	pthread_mutex_unlock
	b	.L1033
.L955:
	str	x0, [x23, 200]
	b	.L956
.L1037:
	.cfi_restore 21
	.cfi_restore 22
	.cfi_restore 23
	.cfi_restore 24
	.cfi_restore 27
	.cfi_restore 28
	mov	x0, x1
	bl	pthread_mutex_lock
	ldr	x1, [x20, 144]
	mov	w19, 1
	strb	w19, [x20, 216]
	add	x0, x20, 96
	orr	x1, x1, 1
	str	x1, [x0, 48]
	bl	pthread_cond_broadcast
	ldrb	w0, [x20, 184]
	cbnz	w0, .L925
	ldr	x0, [x20, 152]
	cbz	x0, .L925
	mov	w2, 9
	add	x1, x0, 96
	movk	w2, 0x8000, lsl 16
	str	w2, [sp, 224]
	str	x1, [sp, 232]
	add	x3, sp, 224
	ldr	w2, [x0, 96]
	mov	w1, 3
	ldr	w0, [x0, 104]
	strb	w19, [x20, 184]
	bl	epoll_ctl
.L925:
	ldr	x0, [sp, 136]
	bl	pthread_mutex_unlock
	b	.L923
	.p2align 2,,3
.L1044:
	.cfi_offset 21, -240
	.cfi_offset 22, -232
	.cfi_offset 23, -224
	.cfi_offset 24, -216
	.cfi_offset 27, -192
	.cfi_offset 28, -184
	ldr	x0, [sp, 144]
	bl	pthread_mutex_unlock
	b	.L931
.L1045:
	.cfi_restore 21
	.cfi_restore 22
	.cfi_restore 23
	.cfi_restore 24
	.cfi_restore 27
	.cfi_restore 28
	stp	x21, x22, [sp, 32]
	.cfi_offset 22, -232
	.cfi_offset 21, -240
	stp	x23, x24, [sp, 48]
	.cfi_offset 24, -216
	.cfi_offset 23, -224
	stp	x27, x28, [sp, 80]
	.cfi_offset 28, -184
	.cfi_offset 27, -192
	bl	__stack_chk_fail
.L985:
	mov	x19, x0
	add	x0, sp, 200
	bl	_ZN4asio6detail15task_io_service12work_cleanupD1Ev
.L962:
	ldrb	w0, [sp, 152]
	cbnz	w0, .L1052
.L970:
	adrp	x0, :got:_ZN4asio6detail10call_stackINS0_15task_io_serviceENS0_27task_io_service_thread_infoEE4top_E
	add	x20, sp, 200
	ldr	x1, [sp, 192]
	ldr	x0, [x0, #:got_lo12:_ZN4asio6detail10call_stackINS0_15task_io_serviceENS0_27task_io_service_thread_infoEE4top_E]
	ldr	w0, [x0]
	bl	pthread_setspecific
.L973:
	ldr	x1, [sp, 232]
	cbnz	x1, .L1053
	ldr	x0, [sp, 224]
	cbz	x0, .L974
	bl	_ZdlPv
.L974:
	mov	x0, x19
.LEHB15:
	bl	_Unwind_Resume
.LEHE15:
.L984:
	mov	x19, x0
	b	.L962
.L986:
	mov	x19, x0
	add	x0, sp, 200
	bl	_ZN4asio6detail15task_io_service12task_cleanupD1Ev
	b	.L962
.L1052:
	ldr	x0, [sp, 144]
	bl	pthread_mutex_unlock
	b	.L970
.L1053:
	ldr	x0, [x1]
	str	x0, [sp, 232]
	cbnz	x0, .L972
	str	xzr, [sp, 240]
.L972:
	ldr	x4, [x1, 8]
	str	xzr, [x1]
	ldr	x0, [sp, 120]
	str	wzr, [sp, 200]
	str	x0, [sp, 208]
	mov	x2, x20
	mov	x3, 0
	mov	x0, 0
	blr	x4
	b	.L973
	.cfi_endproc
.LFE3347:
	.section	.gcc_except_table._ZN4asio6detail15task_io_service3runERSt10error_code,"aG",@progbits,_ZN4asio6detail15task_io_service3runERSt10error_code,comdat
.LLSDA3347:
	.byte	0xff
	.byte	0xff
	.byte	0x1
	.uleb128 .LLSDACSE3347-.LLSDACSB3347
.LLSDACSB3347:
	.uleb128 .LEHB12-.LFB3347
	.uleb128 .LEHE12-.LEHB12
	.uleb128 .L986-.LFB3347
	.uleb128 0
	.uleb128 .LEHB13-.LFB3347
	.uleb128 .LEHE13-.LEHB13
	.uleb128 .L984-.LFB3347
	.uleb128 0
	.uleb128 .LEHB14-.LFB3347
	.uleb128 .LEHE14-.LEHB14
	.uleb128 .L985-.LFB3347
	.uleb128 0
	.uleb128 .LEHB15-.LFB3347
	.uleb128 .LEHE15-.LEHB15
	.uleb128 0
	.uleb128 0
.LLSDACSE3347:
	.section	.text._ZN4asio6detail15task_io_service3runERSt10error_code,"axG",@progbits,_ZN4asio6detail15task_io_service3runERSt10error_code,comdat
	.size	_ZN4asio6detail15task_io_service3runERSt10error_code, .-_ZN4asio6detail15task_io_service3runERSt10error_code
	.section	.text._ZN4asio6detail13epoll_reactor32perform_io_cleanup_on_block_exitD2Ev,"axG",@progbits,_ZN4asio6detail13epoll_reactor32perform_io_cleanup_on_block_exitD5Ev,comdat
	.align	2
	.p2align 4,,11
	.weak	_ZN4asio6detail13epoll_reactor32perform_io_cleanup_on_block_exitD2Ev
	.type	_ZN4asio6detail13epoll_reactor32perform_io_cleanup_on_block_exitD2Ev, %function
_ZN4asio6detail13epoll_reactor32perform_io_cleanup_on_block_exitD2Ev:
.LFB3322:
	.cfi_startproc
	.cfi_personality 0x9b,DW.ref.__gxx_personality_v0
	.cfi_lsda 0x1b,.LLSDA3322
	stp	x29, x30, [sp, -96]!
	.cfi_def_cfa_offset 96
	.cfi_offset 29, -96
	.cfi_offset 30, -88
	adrp	x1, :got:__stack_chk_guard
	mov	x29, sp
	ldr	x1, [x1, #:got_lo12:__stack_chk_guard]
	stp	x19, x20, [sp, 16]
	.cfi_offset 19, -80
	.cfi_offset 20, -72
	mov	x19, x0
	ldr	x0, [x0, 24]
	ldr	x2, [x1]
	str	x2, [sp, 88]
	mov	x2, 0
	cbz	x0, .L1055
	ldr	x0, [x19, 8]
	cbz	x0, .L1054
	ldr	x0, [x19]
	ldr	x20, [x0, 40]
	ldrb	w0, [x20, 40]
	cbz	w0, .L1057
	adrp	x0, :got:_ZN4asio6detail10call_stackINS0_15task_io_serviceENS0_27task_io_service_thread_infoEE4top_E
	ldr	x0, [x0, #:got_lo12:_ZN4asio6detail10call_stackINS0_15task_io_serviceENS0_27task_io_service_thread_infoEE4top_E]
	ldr	w0, [x0]
	bl	pthread_getspecific
	cbnz	x0, .L1060
	.p2align 3,,7
.L1057:
	add	x0, x20, 48
	str	x0, [sp, 72]
	bl	pthread_mutex_lock
	ldr	x0, [x19, 8]
	mov	w1, 1
	strb	w1, [sp, 80]
	cbz	x0, .L1064
	ldr	x2, [x20, 208]
	add	x1, x20, 200
	cbz	x2, .L1065
	str	x0, [x2]
.L1066:
	ldr	x0, [x19, 16]
	str	x0, [x1, 8]
	stp	xzr, xzr, [x19, 8]
.L1064:
	mov	x0, x20
	add	x1, sp, 72
	bl	_ZN4asio6detail15task_io_service26wake_one_thread_and_unlockERNS0_11scoped_lockINS0_11posix_mutexEEE
	ldrb	w0, [sp, 80]
	cbnz	w0, .L1107
.L1069:
	ldr	x1, [x19, 8]
	cbz	x1, .L1054
	str	x21, [sp, 32]
	.cfi_offset 21, -64
	add	x19, x19, 8
	str	x1, [sp, 56]
	bl	_ZNSt3_V215system_categoryEv
	add	x21, sp, 72
	mov	x20, x0
	ldr	x1, [sp, 56]
	b	.L1072
	.p2align 2,,3
.L1070:
	ldr	x4, [x1, 8]
	str	xzr, [x1]
	str	wzr, [sp, 72]
	mov	x2, x21
	str	x20, [sp, 80]
	mov	x3, 0
	mov	x0, 0
	blr	x4
	ldr	x1, [x19]
	cbz	x1, .L1108
.L1072:
	ldr	x3, [x1]
	str	x3, [x19]
	cbnz	x3, .L1070
	ldr	x4, [x1, 8]
	str	xzr, [x19, 8]
	str	xzr, [x1]
	mov	x2, x21
	str	wzr, [sp, 72]
	mov	x0, 0
	str	x20, [sp, 80]
	blr	x4
	ldr	x1, [x19]
	cbnz	x1, .L1072
.L1108:
	ldr	x21, [sp, 32]
	.cfi_restore 21
.L1054:
	adrp	x0, :got:__stack_chk_guard
	ldr	x0, [x0, #:got_lo12:__stack_chk_guard]
	ldr	x2, [sp, 88]
	ldr	x1, [x0]
	subs	x2, x2, x1
	mov	x1, 0
	bne	.L1109
	ldp	x19, x20, [sp, 16]
	ldp	x29, x30, [sp], 96
	.cfi_remember_state
	.cfi_restore 30
	.cfi_restore 29
	.cfi_restore 19
	.cfi_restore 20
	.cfi_def_cfa_offset 0
	ret
	.p2align 2,,3
.L1058:
	.cfi_restore_state
	ldr	x0, [x0, 16]
	cbz	x0, .L1057
.L1060:
	ldr	x1, [x0]
	cmp	x20, x1
	bne	.L1058
	ldr	x0, [x0, 8]
	cbz	x0, .L1057
	ldr	x1, [x19, 8]
	cbz	x1, .L1054
	ldr	x3, [x0, 16]
	add	x2, x0, 8
	cbz	x3, .L1061
	str	x1, [x3]
.L1062:
	ldr	x0, [x19, 16]
	str	x0, [x2, 8]
	b	.L1054
.L1107:
	ldr	x0, [sp, 72]
	bl	pthread_mutex_unlock
	b	.L1069
	.p2align 2,,3
.L1055:
	ldr	x1, [x19]
	mov	x0, 1
	ldr	x1, [x1, 40]
	add	x1, x1, 192
	bl	__aarch64_ldadd8_acq_rel
	b	.L1069
.L1065:
	str	x0, [x20, 200]
	b	.L1066
.L1061:
	str	x1, [x0, 8]
	b	.L1062
.L1109:
	str	x21, [sp, 32]
	.cfi_offset 21, -64
	bl	__stack_chk_fail
	.cfi_endproc
.LFE3322:
	.section	.gcc_except_table._ZN4asio6detail13epoll_reactor32perform_io_cleanup_on_block_exitD2Ev,"aG",@progbits,_ZN4asio6detail13epoll_reactor32perform_io_cleanup_on_block_exitD5Ev,comdat
.LLSDA3322:
	.byte	0xff
	.byte	0xff
	.byte	0x1
	.uleb128 .LLSDACSE3322-.LLSDACSB3322
.LLSDACSB3322:
.LLSDACSE3322:
	.section	.text._ZN4asio6detail13epoll_reactor32perform_io_cleanup_on_block_exitD2Ev,"axG",@progbits,_ZN4asio6detail13epoll_reactor32perform_io_cleanup_on_block_exitD5Ev,comdat
	.size	_ZN4asio6detail13epoll_reactor32perform_io_cleanup_on_block_exitD2Ev, .-_ZN4asio6detail13epoll_reactor32perform_io_cleanup_on_block_exitD2Ev
	.weak	_ZN4asio6detail13epoll_reactor32perform_io_cleanup_on_block_exitD1Ev
	.set	_ZN4asio6detail13epoll_reactor32perform_io_cleanup_on_block_exitD1Ev,_ZN4asio6detail13epoll_reactor32perform_io_cleanup_on_block_exitD2Ev
	.section	.text._ZN4asio6detail13epoll_reactor21deregister_descriptorEiRPNS1_16descriptor_stateEb,"axG",@progbits,_ZN4asio6detail13epoll_reactor21deregister_descriptorEiRPNS1_16descriptor_stateEb,comdat
	.align	2
	.p2align 4,,11
	.weak	_ZN4asio6detail13epoll_reactor21deregister_descriptorEiRPNS1_16descriptor_stateEb
	.type	_ZN4asio6detail13epoll_reactor21deregister_descriptorEiRPNS1_16descriptor_stateEb, %function
_ZN4asio6detail13epoll_reactor21deregister_descriptorEiRPNS1_16descriptor_stateEb:
.LFB3305:
	.cfi_startproc
	stp	x29, x30, [sp, -144]!
	.cfi_def_cfa_offset 144
	.cfi_offset 29, -144
	.cfi_offset 30, -136
	adrp	x4, :got:__stack_chk_guard
	mov	x29, sp
	ldr	x4, [x4, #:got_lo12:__stack_chk_guard]
	stp	x21, x22, [sp, 32]
	stp	x27, x28, [sp, 80]
	.cfi_offset 21, -112
	.cfi_offset 22, -104
	.cfi_offset 27, -64
	.cfi_offset 28, -56
	mov	x27, x2
	ldr	x21, [x2]
	ldr	x2, [x4]
	str	x2, [sp, 136]
	mov	x2, 0
	str	x0, [sp, 96]
	cbz	x21, .L1110
	add	x21, x21, 40
	stp	x19, x20, [sp, 16]
	.cfi_offset 20, -120
	.cfi_offset 19, -128
	mov	x0, x21
	mov	w19, w1
	and	w20, w3, 255
	bl	pthread_mutex_lock
	ldr	x4, [x27]
	ldrb	w0, [x4, 152]
	cbnz	w0, .L1112
	stp	x23, x24, [sp, 48]
	.cfi_offset 24, -88
	.cfi_offset 23, -96
	stp	x25, x26, [sp, 64]
	.cfi_offset 26, -72
	.cfi_offset 25, -80
	cbz	w20, .L1175
.L1113:
	mov	w20, 0
	adrp	x25, __dso_handle
	add	x0, x25, :lo12:__dso_handle
	str	x0, [sp, 104]
	add	x0, x4, w20, sxtw 4
	adrp	x28, :got:_ZGVZN4asio15system_categoryEvE8instance
	sxtw	x22, w20
	mov	x26, 0
	ldr	x28, [x28, #:got_lo12:_ZGVZN4asio15system_categoryEvE8instance]
	mov	x24, 0
	ldr	x19, [x0, 104]
	cbz	x19, .L1142
.L1180:
	adrp	x23, :got:_ZN4asio6detail15system_categoryD1Ev
	adrp	x25, :got:_ZZN4asio15system_categoryEvE8instance
	ldr	x23, [x23, #:got_lo12:_ZN4asio6detail15system_categoryD1Ev]
	ldar	x0, [x28]
	tbz	x0, 0, .L1176
	.p2align 3,,7
.L1116:
	ldr	x4, [x27]
	mov	w0, 125
	ldr	x1, [x25, #:got_lo12:_ZZN4asio15system_categoryEvE8instance]
	str	x1, [x19, 32]
	add	x3, x4, x22, lsl 4
	str	w0, [x19, 24]
	ldr	x1, [x3, 104]
	cbz	x1, .L1118
.L1179:
	ldr	x0, [x1]
	str	x0, [x3, 104]
	cbz	x0, .L1177
	str	xzr, [x1]
	str	xzr, [x19]
	cbz	x26, .L1178
.L1139:
	str	x19, [x26]
	cbz	x0, .L1120
.L1121:
	mov	x26, x19
	mov	x19, x0
	ldar	x0, [x28]
	tbnz	x0, 0, .L1116
.L1176:
	mov	x0, x28
	bl	__cxa_guard_acquire
	cbz	w0, .L1116
	ldr	x1, [x25, #:got_lo12:_ZZN4asio15system_categoryEvE8instance]
	mov	x0, x23
	ldr	x2, [sp, 104]
	bl	__cxa_atexit
	mov	x0, x28
	bl	__cxa_guard_release
	ldr	x4, [x27]
	mov	w0, 125
	ldr	x1, [x25, #:got_lo12:_ZZN4asio15system_categoryEvE8instance]
	str	x1, [x19, 32]
	add	x3, x4, x22, lsl 4
	str	w0, [x19, 24]
	ldr	x1, [x3, 104]
	cbnz	x1, .L1179
	.p2align 3,,7
.L1118:
	str	xzr, [x19]
	cbz	x26, .L1143
	str	x19, [x26]
.L1120:
	add	w20, w20, 1
	cmp	w20, 3
	beq	.L1122
.L1181:
	add	x0, x4, w20, sxtw 4
	mov	x26, x19
	sxtw	x22, w20
	ldr	x19, [x0, 104]
	cbnz	x19, .L1180
.L1142:
	add	w20, w20, 1
	mov	x19, x26
	cmp	w20, 3
	bne	.L1181
	.p2align 3,,7
.L1122:
	ldr	x22, [sp, 96]
	mov	w1, 1
	mov	w0, -1
	str	w0, [x4, 96]
	strb	w1, [x4, 152]
	mov	x0, x21
	add	x21, x22, 128
	bl	pthread_mutex_unlock
	mov	x0, x21
	ldr	x20, [x27]
	bl	pthread_mutex_lock
	ldr	x0, [x22, 176]
	cmp	x20, x0
	beq	.L1182
.L1124:
	ldr	x0, [x20, 32]
	cbz	x0, .L1125
	ldr	x1, [x20, 24]
	str	x1, [x0, 24]
.L1125:
	ldr	x0, [x20, 24]
	cbz	x0, .L1126
	ldr	x1, [x20, 32]
	str	x1, [x0, 32]
.L1126:
	ldr	x22, [sp, 96]
	mov	x0, x21
	ldr	x2, [x22, 184]
	stp	x2, xzr, [x20, 24]
	str	x20, [x22, 184]
	bl	pthread_mutex_unlock
	str	xzr, [x27]
	cbz	x24, .L1171
	ldr	x20, [x22, 40]
	ldrb	w0, [x20, 40]
	cbnz	w0, .L1183
.L1128:
	add	x0, x20, 48
	str	x0, [sp, 120]
	bl	pthread_mutex_lock
	add	x0, x20, 200
	mov	w1, 1
	strb	w1, [sp, 128]
	ldr	x1, [x0, 8]
	cbz	x1, .L1134
	str	x24, [x1]
.L1135:
	str	x19, [x0, 8]
	add	x1, sp, 120
	mov	x0, x20
	bl	_ZN4asio6detail15task_io_service26wake_one_thread_and_unlockERNS0_11scoped_lockINS0_11posix_mutexEEE
	ldrb	w0, [sp, 128]
	cbz	w0, .L1171
	adrp	x0, :got:__stack_chk_guard
	ldr	x0, [x0, #:got_lo12:__stack_chk_guard]
	ldr	x2, [sp, 136]
	ldr	x1, [x0]
	subs	x2, x2, x1
	mov	x1, 0
	bne	.L1173
	ldp	x19, x20, [sp, 16]
	.cfi_remember_state
	.cfi_restore 20
	.cfi_restore 19
	ldp	x23, x24, [sp, 48]
	.cfi_restore 24
	.cfi_restore 23
	ldp	x25, x26, [sp, 64]
	.cfi_restore 26
	.cfi_restore 25
	ldr	x0, [sp, 120]
	b	.L1172
	.p2align 2,,3
.L1171:
	.cfi_restore_state
	ldp	x19, x20, [sp, 16]
	.cfi_restore 20
	.cfi_restore 19
	ldp	x23, x24, [sp, 48]
	.cfi_restore 24
	.cfi_restore 23
	ldp	x25, x26, [sp, 64]
	.cfi_restore 26
	.cfi_restore 25
.L1110:
	adrp	x0, :got:__stack_chk_guard
	ldr	x0, [x0, #:got_lo12:__stack_chk_guard]
	ldr	x2, [sp, 136]
	ldr	x1, [x0]
	subs	x2, x2, x1
	mov	x1, 0
	bne	.L1184
	ldp	x21, x22, [sp, 32]
	ldp	x27, x28, [sp, 80]
	ldp	x29, x30, [sp], 144
	.cfi_restore 30
	.cfi_restore 29
	.cfi_restore 27
	.cfi_restore 28
	.cfi_restore 21
	.cfi_restore 22
	.cfi_def_cfa_offset 0
	ret
	.p2align 2,,3
.L1112:
	.cfi_def_cfa_offset 144
	.cfi_offset 19, -128
	.cfi_offset 20, -120
	.cfi_offset 21, -112
	.cfi_offset 22, -104
	.cfi_offset 27, -64
	.cfi_offset 28, -56
	.cfi_offset 29, -144
	.cfi_offset 30, -136
	adrp	x0, :got:__stack_chk_guard
	ldr	x0, [x0, #:got_lo12:__stack_chk_guard]
	ldr	x2, [sp, 136]
	ldr	x1, [x0]
	subs	x2, x2, x1
	mov	x1, 0
	bne	.L1174
	ldp	x19, x20, [sp, 16]
	.cfi_restore 20
	.cfi_restore 19
	mov	x0, x21
.L1172:
	ldp	x21, x22, [sp, 32]
	ldp	x27, x28, [sp, 80]
	ldp	x29, x30, [sp], 144
	.cfi_restore 30
	.cfi_restore 29
	.cfi_restore 27
	.cfi_restore 28
	.cfi_restore 21
	.cfi_restore 22
	.cfi_def_cfa_offset 0
	b	pthread_mutex_unlock
	.p2align 2,,3
.L1177:
	.cfi_def_cfa_offset 144
	.cfi_offset 19, -128
	.cfi_offset 20, -120
	.cfi_offset 21, -112
	.cfi_offset 22, -104
	.cfi_offset 23, -96
	.cfi_offset 24, -88
	.cfi_offset 25, -80
	.cfi_offset 26, -72
	.cfi_offset 27, -64
	.cfi_offset 28, -56
	.cfi_offset 29, -144
	.cfi_offset 30, -136
	str	xzr, [x3, 112]
	str	xzr, [x1]
	str	xzr, [x19]
	cbnz	x26, .L1139
	.p2align 3,,7
.L1143:
	mov	x24, x19
	b	.L1120
	.p2align 2,,3
.L1178:
	mov	x24, x19
	b	.L1121
	.p2align 2,,3
.L1183:
	adrp	x0, :got:_ZN4asio6detail10call_stackINS0_15task_io_serviceENS0_27task_io_service_thread_infoEE4top_E
	ldr	x0, [x0, #:got_lo12:_ZN4asio6detail10call_stackINS0_15task_io_serviceENS0_27task_io_service_thread_infoEE4top_E]
	ldr	w0, [x0]
	bl	pthread_getspecific
	cbnz	x0, .L1131
	b	.L1128
	.p2align 2,,3
.L1129:
	ldr	x0, [x0, 16]
	cbz	x0, .L1128
.L1131:
	ldr	x1, [x0]
	cmp	x20, x1
	bne	.L1129
	ldr	x0, [x0, 8]
	cbz	x0, .L1128
	ldr	x2, [x0, 16]
	add	x1, x0, 8
	cbz	x2, .L1132
	str	x24, [x2]
.L1133:
	ldp	x23, x24, [sp, 48]
	.cfi_remember_state
	.cfi_restore 24
	.cfi_restore 23
	ldp	x25, x26, [sp, 64]
	.cfi_restore 26
	.cfi_restore 25
	str	x19, [x1, 8]
	ldp	x19, x20, [sp, 16]
	.cfi_restore 20
	.cfi_restore 19
	b	.L1110
	.p2align 2,,3
.L1175:
	.cfi_restore_state
	ldr	x0, [sp, 96]
	mov	w2, w19
	add	x3, sp, 120
	mov	w1, 2
	str	wzr, [sp, 120]
	ldr	w0, [x0, 104]
	str	xzr, [sp, 128]
	bl	epoll_ctl
	ldr	x4, [x27]
	b	.L1113
	.p2align 2,,3
.L1182:
	ldr	x1, [sp, 96]
	ldr	x0, [x20, 24]
	str	x0, [x1, 176]
	b	.L1124
.L1132:
	str	x24, [x0, 8]
	b	.L1133
.L1134:
	str	x24, [x20, 200]
	b	.L1135
.L1184:
	.cfi_restore 19
	.cfi_restore 20
	.cfi_restore 23
	.cfi_restore 24
	.cfi_restore 25
	.cfi_restore 26
	stp	x19, x20, [sp, 16]
	.cfi_offset 20, -120
	.cfi_offset 19, -128
.L1174:
	stp	x23, x24, [sp, 48]
	.cfi_offset 24, -88
	.cfi_offset 23, -96
	stp	x25, x26, [sp, 64]
	.cfi_offset 26, -72
	.cfi_offset 25, -80
.L1173:
	bl	__stack_chk_fail
	.cfi_endproc
.LFE3305:
	.size	_ZN4asio6detail13epoll_reactor21deregister_descriptorEiRPNS1_16descriptor_stateEb, .-_ZN4asio6detail13epoll_reactor21deregister_descriptorEiRPNS1_16descriptor_stateEb
	.section	.text._ZN4asio6detail13epoll_reactor16descriptor_state11do_completeEPNS0_15task_io_serviceEPNS0_25task_io_service_operationERKSt10error_codem,"axG",@progbits,_ZN4asio6detail13epoll_reactor16descriptor_state11do_completeEPNS0_15task_io_serviceEPNS0_25task_io_service_operationERKSt10error_codem,comdat
	.align	2
	.p2align 4,,11
	.weak	_ZN4asio6detail13epoll_reactor16descriptor_state11do_completeEPNS0_15task_io_serviceEPNS0_25task_io_service_operationERKSt10error_codem
	.type	_ZN4asio6detail13epoll_reactor16descriptor_state11do_completeEPNS0_15task_io_serviceEPNS0_25task_io_service_operationERKSt10error_codem, %function
_ZN4asio6detail13epoll_reactor16descriptor_state11do_completeEPNS0_15task_io_serviceEPNS0_25task_io_service_operationERKSt10error_codem:
.LFB3328:
	.cfi_startproc
	.cfi_personality 0x9b,DW.ref.__gxx_personality_v0
	.cfi_lsda 0x1b,.LLSDA3328
	stp	x29, x30, [sp, -160]!
	.cfi_def_cfa_offset 160
	.cfi_offset 29, -160
	.cfi_offset 30, -152
	adrp	x4, :got:__stack_chk_guard
	mov	x29, sp
	ldr	x4, [x4, #:got_lo12:__stack_chk_guard]
	stp	x23, x24, [sp, 48]
	.cfi_offset 23, -112
	.cfi_offset 24, -104
	mov	x23, x0
	ldr	x0, [x4]
	str	x0, [sp, 152]
	mov	x0, 0
	cbz	x23, .L1185
	stp	x19, x20, [sp, 16]
	.cfi_offset 20, -136
	.cfi_offset 19, -144
	mov	x19, x1
	mov	x24, x2
	stp	x21, x22, [sp, 32]
	.cfi_offset 22, -120
	.cfi_offset 21, -128
	adrp	x21, :got:_ZZN4asio6detail13epoll_reactor16descriptor_state10perform_ioEjE4flag
	mov	w22, w3
	stp	x25, x26, [sp, 64]
	.cfi_offset 26, -88
	.cfi_offset 25, -96
	add	x26, x1, 40
	mov	x0, x26
	add	x20, x1, 136
	add	x25, x1, 88
	str	x27, [sp, 80]
	.cfi_offset 27, -80
	bl	pthread_mutex_lock
	ldr	x21, [x21, #:got_lo12:_ZZN4asio6detail13epoll_reactor16descriptor_state10perform_ioEjE4flag]
	stp	xzr, xzr, [sp, 136]
	ldr	x27, [x19, 88]
	stp	x27, xzr, [sp, 120]
.L1195:
	ldr	w0, [x21, 8]
	orr	w0, w0, 24
	tst	w0, w22
	bne	.L1247
.L1188:
	sub	x20, x20, #16
	sub	x21, x21, #4
	cmp	x20, x25
	bne	.L1195
	ldr	x19, [sp, 128]
	str	x19, [sp, 144]
	cbz	x19, .L1196
	ldr	x21, [x19]
	str	x21, [sp, 128]
	cbz	x21, .L1248
	str	xzr, [x19]
	mov	x0, x26
	bl	pthread_mutex_unlock
	ldr	x20, [x27, 40]
	ldrb	w0, [x20, 40]
	cbnz	w0, .L1214
.L1199:
	add	x0, x20, 48
	str	x0, [sp, 104]
	bl	pthread_mutex_lock
	add	x0, x20, 200
	mov	w1, 1
	strb	w1, [sp, 112]
	ldr	x1, [x0, 8]
	cbz	x1, .L1205
	str	x21, [x1]
.L1206:
	ldr	x1, [sp, 136]
	str	x1, [x0, 8]
	mov	x0, x20
	add	x1, sp, 104
	bl	_ZN4asio6detail15task_io_service26wake_one_thread_and_unlockERNS0_11scoped_lockINS0_11posix_mutexEEE
	ldrb	w0, [sp, 112]
	cbnz	w0, .L1249
.L1198:
	adrp	x0, :got:__stack_chk_guard
	ldr	x0, [x0, #:got_lo12:__stack_chk_guard]
	ldr	x2, [sp, 152]
	ldr	x1, [x0]
	subs	x2, x2, x1
	mov	x1, 0
	bne	.L1246
	mov	x2, x24
	mov	x0, x23
	mov	x1, x19
	mov	x3, 0
	ldr	x4, [x19, 8]
	ldp	x19, x20, [sp, 16]
	.cfi_remember_state
	.cfi_restore 20
	.cfi_restore 19
	mov	x16, x4
	ldp	x21, x22, [sp, 32]
	.cfi_restore 22
	.cfi_restore 21
	ldp	x23, x24, [sp, 48]
	ldp	x25, x26, [sp, 64]
	.cfi_restore 26
	.cfi_restore 25
	ldr	x27, [sp, 80]
	.cfi_restore 27
	ldp	x29, x30, [sp], 160
	.cfi_restore 30
	.cfi_restore 29
	.cfi_restore 23
	.cfi_restore 24
	.cfi_def_cfa_offset 0
.LEHB16:
	br	x16
.LEHE16:
	.p2align 2,,3
.L1196:
	.cfi_restore_state
	mov	x0, x26
	bl	pthread_mutex_unlock
	ldr	x1, [x27, 40]
	mov	x0, 1
	add	x1, x1, 192
	bl	__aarch64_ldadd8_acq_rel
	ldr	x20, [sp, 128]
	cbz	x20, .L1245
	bl	_ZNSt3_V215system_categoryEv
	add	x22, sp, 104
	ldp	x19, x4, [x20]
	str	x19, [sp, 128]
	mov	x21, x0
	cbz	x19, .L1211
	.p2align 3,,7
.L1212:
	str	xzr, [x20]
	mov	x1, x20
	str	wzr, [sp, 104]
	mov	x20, x19
	str	x21, [sp, 112]
	mov	x2, x22
	mov	x3, 0
	mov	x0, 0
	blr	x4
	ldr	x19, [x19]
	ldr	x4, [x20, 8]
	str	x19, [sp, 128]
	cbnz	x19, .L1212
.L1211:
	str	xzr, [x20]
	mov	x2, x22
	str	wzr, [sp, 104]
	mov	x1, x20
	str	x21, [sp, 112]
	mov	x3, 0
	mov	x0, 0
	blr	x4
	ldp	x19, x20, [sp, 16]
	.cfi_restore 20
	.cfi_restore 19
	ldp	x21, x22, [sp, 32]
	.cfi_restore 22
	.cfi_restore 21
	ldp	x25, x26, [sp, 64]
	.cfi_restore 26
	.cfi_restore 25
	ldr	x27, [sp, 80]
	.cfi_restore 27
.L1185:
	adrp	x0, :got:__stack_chk_guard
	ldr	x0, [x0, #:got_lo12:__stack_chk_guard]
	ldr	x2, [sp, 152]
	ldr	x1, [x0]
	subs	x2, x2, x1
	mov	x1, 0
	bne	.L1250
	ldp	x23, x24, [sp, 48]
	ldp	x29, x30, [sp], 160
	.cfi_restore 30
	.cfi_restore 29
	.cfi_restore 23
	.cfi_restore 24
	.cfi_def_cfa_offset 0
	ret
	.p2align 2,,3
.L1247:
	.cfi_def_cfa_offset 160
	.cfi_offset 19, -144
	.cfi_offset 20, -136
	.cfi_offset 21, -128
	.cfi_offset 22, -120
	.cfi_offset 23, -112
	.cfi_offset 24, -104
	.cfi_offset 25, -96
	.cfi_offset 26, -88
	.cfi_offset 27, -80
	.cfi_offset 29, -160
	.cfi_offset 30, -152
	ldr	x19, [x20]
	cbz	x19, .L1188
	.p2align 3,,7
.L1189:
	ldr	x1, [x19, 48]
	mov	x0, x19
.LEHB17:
	blr	x1
.LEHE17:
	tst	w0, 255
	beq	.L1188
	ldr	x1, [x20]
	cbz	x1, .L1190
	ldr	x0, [x1]
	str	x0, [x20]
	cbz	x0, .L1251
	ldr	x2, [sp, 136]
	str	xzr, [x1]
	str	xzr, [x19]
	cbz	x2, .L1193
	str	x19, [x2]
	str	x19, [sp, 136]
	mov	x19, x0
	b	.L1189
	.p2align 2,,3
.L1190:
	ldr	x0, [sp, 136]
	str	xzr, [x19]
	cbnz	x0, .L1215
.L1192:
	stp	x19, x19, [sp, 128]
	b	.L1188
	.p2align 2,,3
.L1251:
	str	xzr, [x20, 8]
	ldr	x0, [sp, 136]
	str	xzr, [x1]
	str	xzr, [x19]
	cbz	x0, .L1192
.L1215:
	str	x19, [sp, 136]
	str	x19, [x0]
	b	.L1188
	.p2align 2,,3
.L1214:
	adrp	x0, :got:_ZN4asio6detail10call_stackINS0_15task_io_serviceENS0_27task_io_service_thread_infoEE4top_E
	ldr	x0, [x0, #:got_lo12:_ZN4asio6detail10call_stackINS0_15task_io_serviceENS0_27task_io_service_thread_infoEE4top_E]
	ldr	w0, [x0]
	bl	pthread_getspecific
	cbnz	x0, .L1202
	b	.L1199
	.p2align 2,,3
.L1200:
	ldr	x0, [x0, 16]
	cbz	x0, .L1199
.L1202:
	ldr	x1, [x0]
	cmp	x20, x1
	bne	.L1200
	ldr	x0, [x0, 8]
	cbz	x0, .L1199
	ldr	x2, [x0, 16]
	add	x1, x0, 8
	cbz	x2, .L1203
	str	x21, [x2]
.L1204:
	ldr	x0, [sp, 136]
	str	x0, [x1, 8]
	b	.L1198
	.p2align 2,,3
.L1248:
	mov	x0, x26
	bl	pthread_mutex_unlock
	b	.L1198
	.p2align 2,,3
.L1193:
	stp	x19, x19, [sp, 128]
	mov	x19, x0
	b	.L1189
.L1249:
	ldr	x0, [sp, 104]
	bl	pthread_mutex_unlock
	b	.L1198
.L1205:
	str	x21, [x20, 200]
	b	.L1206
.L1203:
	str	x21, [x0, 8]
	b	.L1204
.L1250:
	.cfi_restore 19
	.cfi_restore 20
	.cfi_restore 21
	.cfi_restore 22
	.cfi_restore 25
	.cfi_restore 26
	.cfi_restore 27
	stp	x19, x20, [sp, 16]
	.cfi_offset 20, -136
	.cfi_offset 19, -144
	stp	x21, x22, [sp, 32]
	.cfi_offset 22, -120
	.cfi_offset 21, -128
	stp	x25, x26, [sp, 64]
	.cfi_offset 26, -88
	.cfi_offset 25, -96
	str	x27, [sp, 80]
	.cfi_offset 27, -80
.L1246:
	bl	__stack_chk_fail
.L1245:
	ldp	x19, x20, [sp, 16]
	.cfi_remember_state
	.cfi_restore 20
	.cfi_restore 19
	ldp	x21, x22, [sp, 32]
	.cfi_restore 22
	.cfi_restore 21
	ldp	x25, x26, [sp, 64]
	.cfi_restore 26
	.cfi_restore 25
	ldr	x27, [sp, 80]
	.cfi_restore 27
	b	.L1185
.L1217:
	.cfi_restore_state
	mov	x19, x0
	mov	x0, x26
	bl	pthread_mutex_unlock
	add	x0, sp, 120
	bl	_ZN4asio6detail13epoll_reactor32perform_io_cleanup_on_block_exitD1Ev
	mov	x0, x19
.LEHB18:
	bl	_Unwind_Resume
.LEHE18:
	.cfi_endproc
.LFE3328:
	.section	.gcc_except_table._ZN4asio6detail13epoll_reactor16descriptor_state11do_completeEPNS0_15task_io_serviceEPNS0_25task_io_service_operationERKSt10error_codem,"aG",@progbits,_ZN4asio6detail13epoll_reactor16descriptor_state11do_completeEPNS0_15task_io_serviceEPNS0_25task_io_service_operationERKSt10error_codem,comdat
.LLSDA3328:
	.byte	0xff
	.byte	0xff
	.byte	0x1
	.uleb128 .LLSDACSE3328-.LLSDACSB3328
.LLSDACSB3328:
	.uleb128 .LEHB16-.LFB3328
	.uleb128 .LEHE16-.LEHB16
	.uleb128 0
	.uleb128 0
	.uleb128 .LEHB17-.LFB3328
	.uleb128 .LEHE17-.LEHB17
	.uleb128 .L1217-.LFB3328
	.uleb128 0
	.uleb128 .LEHB18-.LFB3328
	.uleb128 .LEHE18-.LEHB18
	.uleb128 0
	.uleb128 0
.LLSDACSE3328:
	.section	.text._ZN4asio6detail13epoll_reactor16descriptor_state11do_completeEPNS0_15task_io_serviceEPNS0_25task_io_service_operationERKSt10error_codem,"axG",@progbits,_ZN4asio6detail13epoll_reactor16descriptor_state11do_completeEPNS0_15task_io_serviceEPNS0_25task_io_service_operationERKSt10error_codem,comdat
	.size	_ZN4asio6detail13epoll_reactor16descriptor_state11do_completeEPNS0_15task_io_serviceEPNS0_25task_io_service_operationERKSt10error_codem, .-_ZN4asio6detail13epoll_reactor16descriptor_state11do_completeEPNS0_15task_io_serviceEPNS0_25task_io_service_operationERKSt10error_codem
	.section	.text._ZN4asio6detail10socket_ops24translate_addrinfo_errorEi,"axG",@progbits,_ZN4asio6detail10socket_ops24translate_addrinfo_errorEi,comdat
	.align	2
	.p2align 4,,11
	.weak	_ZN4asio6detail10socket_ops24translate_addrinfo_errorEi
	.type	_ZN4asio6detail10socket_ops24translate_addrinfo_errorEi, %function
_ZN4asio6detail10socket_ops24translate_addrinfo_errorEi:
.LFB3759:
	.cfi_startproc
	stp	x29, x30, [sp, -32]!
	.cfi_def_cfa_offset 32
	.cfi_offset 29, -32
	.cfi_offset 30, -24
	mov	x29, sp
	cmn	w0, #5
	beq	.L1308
	cmn	w0, #4
	blt	.L1311
	cmn	w0, #2
	beq	.L1308
	cmn	w0, #1
	blt	.L1312
	beq	.L1264
	cbnz	w0, .L1309
	bl	_ZNSt3_V215system_categoryEv
	mov	x1, x0
	ldp	x29, x30, [sp], 32
	.cfi_remember_state
	.cfi_restore 30
	.cfi_restore 29
	.cfi_def_cfa_offset 0
	mov	x0, 0
	ret
	.p2align 2,,3
.L1312:
	.cfi_restore_state
	stp	x19, x20, [sp, 16]
	.cfi_offset 20, -8
	.cfi_offset 19, -16
	cmn	w0, #4
	beq	.L1262
	cmn	w0, #3
	bne	.L1258
	adrp	x20, :got:_ZGVZN4asio5error18get_netdb_categoryEvE8instance
	ldr	x20, [x20, #:got_lo12:_ZGVZN4asio5error18get_netdb_categoryEvE8instance]
	ldar	x0, [x20]
	adrp	x19, :got:_ZZN4asio5error18get_netdb_categoryEvE8instance
	tbz	x0, 0, .L1313
.L1267:
	mov	x2, 2
	mov	x0, 0
	ldr	x1, [x19, #:got_lo12:_ZZN4asio5error18get_netdb_categoryEvE8instance]
	bfi	x0, x2, 0, 32
	ldp	x19, x20, [sp, 16]
	.cfi_restore 20
	.cfi_restore 19
	ldp	x29, x30, [sp], 32
	.cfi_restore 30
	.cfi_restore 29
	.cfi_def_cfa_offset 0
	ret
	.p2align 2,,3
.L1311:
	.cfi_def_cfa_offset 32
	.cfi_offset 29, -32
	.cfi_offset 30, -24
	cmn	w0, #8
	beq	.L1255
	cmn	w0, #7
	blt	.L1314
	beq	.L1315
	bl	_ZN4asio15system_categoryEv
	mov	x1, x0
	mov	x2, 97
	mov	x0, 0
	bfi	x0, x2, 0, 32
	ldp	x29, x30, [sp], 32
	.cfi_remember_state
	.cfi_restore 30
	.cfi_restore 29
	.cfi_def_cfa_offset 0
	ret
	.p2align 2,,3
.L1314:
	.cfi_restore_state
	cmn	w0, #10
	bne	.L1316
	bl	_ZN4asio15system_categoryEv
	mov	x1, x0
	mov	x2, 12
	mov	x0, 0
	bfi	x0, x2, 0, 32
	ldp	x29, x30, [sp], 32
	.cfi_remember_state
	.cfi_restore 30
	.cfi_restore 29
	.cfi_def_cfa_offset 0
	ret
	.p2align 2,,3
.L1316:
	.cfi_restore_state
	stp	x19, x20, [sp, 16]
	.cfi_offset 20, -8
	.cfi_offset 19, -16
	cmn	w0, #9
	bne	.L1258
.L1253:
	adrp	x20, :got:_ZGVZN4asio5error18get_netdb_categoryEvE8instance
	ldr	x20, [x20, #:got_lo12:_ZGVZN4asio5error18get_netdb_categoryEvE8instance]
	ldar	x0, [x20]
	adrp	x19, :got:_ZZN4asio5error18get_netdb_categoryEvE8instance
	tbz	x0, 0, .L1317
.L1273:
	mov	x2, 1
	mov	x0, 0
	ldr	x1, [x19, #:got_lo12:_ZZN4asio5error18get_netdb_categoryEvE8instance]
	bfi	x0, x2, 0, 32
	ldp	x19, x20, [sp, 16]
	.cfi_restore 20
	.cfi_restore 19
	ldp	x29, x30, [sp], 32
	.cfi_restore 30
	.cfi_restore 29
	.cfi_def_cfa_offset 0
	ret
	.p2align 2,,3
.L1315:
	.cfi_def_cfa_offset 32
	.cfi_offset 29, -32
	.cfi_offset 30, -24
	stp	x19, x20, [sp, 16]
	.cfi_offset 20, -8
	.cfi_offset 19, -16
	adrp	x20, :got:_ZGVZN4asio5error21get_addrinfo_categoryEvE8instance
	ldr	x20, [x20, #:got_lo12:_ZGVZN4asio5error21get_addrinfo_categoryEvE8instance]
	ldar	x0, [x20]
	adrp	x19, :got:_ZZN4asio5error21get_addrinfo_categoryEvE8instance
	tbz	x0, 0, .L1318
.L1279:
	mov	x2, -7
	mov	x0, 0
	ldr	x1, [x19, #:got_lo12:_ZZN4asio5error21get_addrinfo_categoryEvE8instance]
	bfi	x0, x2, 0, 32
	ldp	x19, x20, [sp, 16]
	.cfi_restore 20
	.cfi_restore 19
	ldp	x29, x30, [sp], 32
	.cfi_restore 30
	.cfi_restore 29
	.cfi_def_cfa_offset 0
	ret
	.p2align 2,,3
.L1308:
	.cfi_def_cfa_offset 32
	.cfi_offset 29, -32
	.cfi_offset 30, -24
	stp	x19, x20, [sp, 16]
	.cfi_offset 20, -8
	.cfi_offset 19, -16
	b	.L1253
	.p2align 2,,3
.L1262:
	adrp	x20, :got:_ZGVZN4asio5error18get_netdb_categoryEvE8instance
	ldr	x20, [x20, #:got_lo12:_ZGVZN4asio5error18get_netdb_categoryEvE8instance]
	ldar	x0, [x20]
	adrp	x19, :got:_ZZN4asio5error18get_netdb_categoryEvE8instance
	tbz	x0, 0, .L1319
.L1270:
	mov	x2, 3
	mov	x0, 0
	ldr	x1, [x19, #:got_lo12:_ZZN4asio5error18get_netdb_categoryEvE8instance]
	bfi	x0, x2, 0, 32
	ldp	x19, x20, [sp, 16]
	.cfi_restore 20
	.cfi_restore 19
	ldp	x29, x30, [sp], 32
	.cfi_restore 30
	.cfi_restore 29
	.cfi_def_cfa_offset 0
	ret
	.p2align 2,,3
.L1255:
	.cfi_def_cfa_offset 32
	.cfi_offset 29, -32
	.cfi_offset 30, -24
	stp	x19, x20, [sp, 16]
	.cfi_offset 20, -8
	.cfi_offset 19, -16
	adrp	x20, :got:_ZGVZN4asio5error21get_addrinfo_categoryEvE8instance
	ldr	x20, [x20, #:got_lo12:_ZGVZN4asio5error21get_addrinfo_categoryEvE8instance]
	ldar	x0, [x20]
	adrp	x19, :got:_ZZN4asio5error21get_addrinfo_categoryEvE8instance
	tbz	x0, 0, .L1320
.L1276:
	mov	x2, -8
	mov	x0, 0
	ldr	x1, [x19, #:got_lo12:_ZZN4asio5error21get_addrinfo_categoryEvE8instance]
	bfi	x0, x2, 0, 32
	ldp	x19, x20, [sp, 16]
	.cfi_restore 20
	.cfi_restore 19
	ldp	x29, x30, [sp], 32
	.cfi_restore 30
	.cfi_restore 29
	.cfi_def_cfa_offset 0
	ret
.L1309:
	.cfi_def_cfa_offset 32
	.cfi_offset 29, -32
	.cfi_offset 30, -24
	stp	x19, x20, [sp, 16]
	.cfi_offset 20, -8
	.cfi_offset 19, -16
.L1258:
	bl	__errno_location
	ldr	w19, [x0]
	bl	_ZN4asio15system_categoryEv
	mov	x1, x0
	mov	x0, 0
	bfi	x0, x19, 0, 32
	ldp	x19, x20, [sp, 16]
	.cfi_restore 20
	.cfi_restore 19
	ldp	x29, x30, [sp], 32
	.cfi_restore 30
	.cfi_restore 29
	.cfi_def_cfa_offset 0
	ret
	.p2align 2,,3
.L1264:
	.cfi_def_cfa_offset 32
	.cfi_offset 29, -32
	.cfi_offset 30, -24
	bl	_ZN4asio15system_categoryEv
	mov	x1, x0
	mov	x2, 22
	mov	x0, 0
	bfi	x0, x2, 0, 32
	ldp	x29, x30, [sp], 32
	.cfi_restore 30
	.cfi_restore 29
	.cfi_def_cfa_offset 0
	ret
	.p2align 2,,3
.L1313:
	.cfi_def_cfa_offset 32
	.cfi_offset 19, -16
	.cfi_offset 20, -8
	.cfi_offset 29, -32
	.cfi_offset 30, -24
	mov	x0, x20
	adrp	x19, :got:_ZZN4asio5error18get_netdb_categoryEvE8instance
	bl	__cxa_guard_acquire
	cbz	w0, .L1267
	adrp	x0, :got:_ZN4asio5error6detail14netdb_categoryD1Ev
	adrp	x2, __dso_handle
	ldr	x1, [x19, #:got_lo12:_ZZN4asio5error18get_netdb_categoryEvE8instance]
	add	x2, x2, :lo12:__dso_handle
	ldr	x0, [x0, #:got_lo12:_ZN4asio5error6detail14netdb_categoryD1Ev]
	bl	__cxa_atexit
	mov	x0, x20
	bl	__cxa_guard_release
	b	.L1267
	.p2align 2,,3
.L1317:
	mov	x0, x20
	adrp	x19, :got:_ZZN4asio5error18get_netdb_categoryEvE8instance
	bl	__cxa_guard_acquire
	cbz	w0, .L1273
	adrp	x0, :got:_ZN4asio5error6detail14netdb_categoryD1Ev
	adrp	x2, __dso_handle
	ldr	x1, [x19, #:got_lo12:_ZZN4asio5error18get_netdb_categoryEvE8instance]
	add	x2, x2, :lo12:__dso_handle
	ldr	x0, [x0, #:got_lo12:_ZN4asio5error6detail14netdb_categoryD1Ev]
	bl	__cxa_atexit
	mov	x0, x20
	bl	__cxa_guard_release
	b	.L1273
	.p2align 2,,3
.L1319:
	mov	x0, x20
	adrp	x19, :got:_ZZN4asio5error18get_netdb_categoryEvE8instance
	bl	__cxa_guard_acquire
	cbz	w0, .L1270
	adrp	x0, :got:_ZN4asio5error6detail14netdb_categoryD1Ev
	adrp	x2, __dso_handle
	ldr	x1, [x19, #:got_lo12:_ZZN4asio5error18get_netdb_categoryEvE8instance]
	add	x2, x2, :lo12:__dso_handle
	ldr	x0, [x0, #:got_lo12:_ZN4asio5error6detail14netdb_categoryD1Ev]
	bl	__cxa_atexit
	mov	x0, x20
	bl	__cxa_guard_release
	b	.L1270
	.p2align 2,,3
.L1318:
	mov	x0, x20
	adrp	x19, :got:_ZZN4asio5error21get_addrinfo_categoryEvE8instance
	bl	__cxa_guard_acquire
	cbz	w0, .L1279
	adrp	x0, :got:_ZN4asio5error6detail17addrinfo_categoryD1Ev
	adrp	x2, __dso_handle
	ldr	x1, [x19, #:got_lo12:_ZZN4asio5error21get_addrinfo_categoryEvE8instance]
	add	x2, x2, :lo12:__dso_handle
	ldr	x0, [x0, #:got_lo12:_ZN4asio5error6detail17addrinfo_categoryD1Ev]
	bl	__cxa_atexit
	mov	x0, x20
	bl	__cxa_guard_release
	b	.L1279
	.p2align 2,,3
.L1320:
	mov	x0, x20
	adrp	x19, :got:_ZZN4asio5error21get_addrinfo_categoryEvE8instance
	bl	__cxa_guard_acquire
	cbz	w0, .L1276
	adrp	x0, :got:_ZN4asio5error6detail17addrinfo_categoryD1Ev
	adrp	x2, __dso_handle
	ldr	x1, [x19, #:got_lo12:_ZZN4asio5error21get_addrinfo_categoryEvE8instance]
	add	x2, x2, :lo12:__dso_handle
	ldr	x0, [x0, #:got_lo12:_ZN4asio5error6detail17addrinfo_categoryD1Ev]
	bl	__cxa_atexit
	mov	x0, x20
	bl	__cxa_guard_release
	b	.L1276
	.cfi_endproc
.LFE3759:
	.size	_ZN4asio6detail10socket_ops24translate_addrinfo_errorEi, .-_ZN4asio6detail10socket_ops24translate_addrinfo_errorEi
	.section	.text._ZN4asio6detail13socket_holderD2Ev,"axG",@progbits,_ZN4asio6detail13socket_holderD5Ev,comdat
	.align	2
	.p2align 4,,11
	.weak	_ZN4asio6detail13socket_holderD2Ev
	.type	_ZN4asio6detail13socket_holderD2Ev, %function
_ZN4asio6detail13socket_holderD2Ev:
.LFB3777:
	.cfi_startproc
	.cfi_personality 0x9b,DW.ref.__gxx_personality_v0
	.cfi_lsda 0x1b,.LLSDA3777
	stp	x29, x30, [sp, -80]!
	.cfi_def_cfa_offset 80
	.cfi_offset 29, -80
	.cfi_offset 30, -72
	adrp	x1, :got:__stack_chk_guard
	mov	x29, sp
	ldr	x1, [x1, #:got_lo12:__stack_chk_guard]
	stp	x19, x20, [sp, 16]
	.cfi_offset 19, -64
	.cfi_offset 20, -56
	ldr	w19, [x0]
	ldr	x0, [x1]
	str	x0, [sp, 72]
	mov	x0, 0
	cmn	w19, #1
	bne	.L1334
.L1321:
	adrp	x0, :got:__stack_chk_guard
	ldr	x0, [x0, #:got_lo12:__stack_chk_guard]
	ldr	x2, [sp, 72]
	ldr	x1, [x0]
	subs	x2, x2, x1
	mov	x1, 0
	bne	.L1335
	ldp	x19, x20, [sp, 16]
	ldp	x29, x30, [sp], 80
	.cfi_remember_state
	.cfi_restore 30
	.cfi_restore 29
	.cfi_restore 19
	.cfi_restore 20
	.cfi_def_cfa_offset 0
	ret
	.p2align 2,,3
.L1334:
	.cfi_restore_state
	stp	x21, x22, [sp, 32]
	.cfi_offset 22, -40
	.cfi_offset 21, -48
	str	x23, [sp, 48]
	.cfi_offset 23, -32
	bl	__errno_location
	mov	x20, x0
	mov	w0, w19
	str	wzr, [x20]
	bl	close
	ldr	w23, [x20]
	mov	w21, w0
	bl	_ZN4asio15system_categoryEv
	mov	x22, x0
	cbnz	w21, .L1336
.L1333:
	ldp	x21, x22, [sp, 32]
	.cfi_remember_state
	.cfi_restore 22
	.cfi_restore 21
	ldr	x23, [sp, 48]
	.cfi_restore 23
	b	.L1321
	.p2align 2,,3
.L1336:
	.cfi_restore_state
	bl	_ZN4asio15system_categoryEv
	cmp	w23, 11
	cset	w21, eq
	cmp	w21, 0
	ccmp	x22, x0, 0, ne
	beq	.L1326
	bl	_ZN4asio15system_categoryEv
	cmp	w21, 0
	ccmp	x22, x0, 0, ne
	bne	.L1333
.L1326:
	add	x2, sp, 68
	mov	x1, 21537
	mov	w0, w19
	str	wzr, [sp, 68]
	bl	ioctl
	str	wzr, [x20]
	mov	w0, w19
	bl	close
	bl	_ZN4asio15system_categoryEv
	ldp	x21, x22, [sp, 32]
	.cfi_restore 22
	.cfi_restore 21
	ldr	x23, [sp, 48]
	.cfi_restore 23
	b	.L1321
.L1335:
	stp	x21, x22, [sp, 32]
	.cfi_offset 22, -40
	.cfi_offset 21, -48
	str	x23, [sp, 48]
	.cfi_offset 23, -32
	bl	__stack_chk_fail
	.cfi_endproc
.LFE3777:
	.section	.gcc_except_table._ZN4asio6detail13socket_holderD2Ev,"aG",@progbits,_ZN4asio6detail13socket_holderD5Ev,comdat
.LLSDA3777:
	.byte	0xff
	.byte	0xff
	.byte	0x1
	.uleb128 .LLSDACSE3777-.LLSDACSB3777
.LLSDACSB3777:
.LLSDACSE3777:
	.section	.text._ZN4asio6detail13socket_holderD2Ev,"axG",@progbits,_ZN4asio6detail13socket_holderD5Ev,comdat
	.size	_ZN4asio6detail13socket_holderD2Ev, .-_ZN4asio6detail13socket_holderD2Ev
	.weak	_ZN4asio6detail13socket_holderD1Ev
	.set	_ZN4asio6detail13socket_holderD1Ev,_ZN4asio6detail13socket_holderD2Ev
	.section	.text._ZN4asio6detail28reactive_socket_service_base7destroyERNS1_24base_implementation_typeE,"axG",@progbits,_ZN4asio6detail28reactive_socket_service_base7destroyERNS1_24base_implementation_typeE,comdat
	.align	2
	.p2align 4,,11
	.weak	_ZN4asio6detail28reactive_socket_service_base7destroyERNS1_24base_implementation_typeE
	.type	_ZN4asio6detail28reactive_socket_service_base7destroyERNS1_24base_implementation_typeE, %function
_ZN4asio6detail28reactive_socket_service_base7destroyERNS1_24base_implementation_typeE:
.LFB3860:
	.cfi_startproc
	stp	x29, x30, [sp, -80]!
	.cfi_def_cfa_offset 80
	.cfi_offset 29, -80
	.cfi_offset 30, -72
	adrp	x2, :got:__stack_chk_guard
	mov	x29, sp
	ldr	x2, [x2, #:got_lo12:__stack_chk_guard]
	stp	x19, x20, [sp, 16]
	.cfi_offset 19, -64
	.cfi_offset 20, -56
	mov	x19, x1
	ldr	w1, [x1]
	ldr	x3, [x2]
	str	x3, [sp, 72]
	mov	x3, 0
	cmn	w1, #1
	bne	.L1359
.L1337:
	adrp	x0, :got:__stack_chk_guard
	ldr	x0, [x0, #:got_lo12:__stack_chk_guard]
	ldr	x2, [sp, 72]
	ldr	x1, [x0]
	subs	x2, x2, x1
	mov	x1, 0
	bne	.L1360
	ldp	x19, x20, [sp, 16]
	ldp	x29, x30, [sp], 80
	.cfi_remember_state
	.cfi_restore 30
	.cfi_restore 29
	.cfi_restore 19
	.cfi_restore 20
	.cfi_def_cfa_offset 0
	ret
	.p2align 2,,3
.L1359:
	.cfi_restore_state
	stp	x23, x24, [sp, 48]
	.cfi_offset 24, -24
	.cfi_offset 23, -32
	add	x2, x19, 8
	ldrb	w3, [x19, 4]
	ldr	x0, [x0]
	eor	x3, x3, 64
	ubfx	x3, x3, 6, 1
	bl	_ZN4asio6detail13epoll_reactor21deregister_descriptorEiRPNS1_16descriptor_stateEb
	ldr	w23, [x19]
	cmn	w23, #1
	beq	.L1358
	stp	x21, x22, [sp, 32]
	.cfi_offset 22, -40
	.cfi_offset 21, -48
	bl	__errno_location
	mov	x20, x0
	ldrb	w21, [x19, 4]
	tbnz	x21, 3, .L1361
.L1341:
	str	wzr, [x20]
	mov	w0, w23
	bl	close
	ldr	w24, [x20]
	mov	w21, w0
	bl	_ZN4asio15system_categoryEv
	mov	x22, x0
	cbnz	w21, .L1362
.L1357:
	ldp	x21, x22, [sp, 32]
	.cfi_restore 22
	.cfi_restore 21
.L1358:
	ldp	x23, x24, [sp, 48]
	.cfi_restore 24
	.cfi_restore 23
	b	.L1337
	.p2align 2,,3
.L1362:
	.cfi_offset 21, -48
	.cfi_offset 22, -40
	.cfi_offset 23, -32
	.cfi_offset 24, -24
	bl	_ZN4asio15system_categoryEv
	cmp	w24, 11
	cset	w21, eq
	cmp	w21, 0
	ccmp	x22, x0, 0, ne
	beq	.L1344
	bl	_ZN4asio15system_categoryEv
	cmp	w21, 0
	ccmp	x22, x0, 0, ne
	bne	.L1357
.L1344:
	add	x2, sp, 64
	mov	w0, w23
	mov	x1, 21537
	str	wzr, [sp, 64]
	bl	ioctl
	ldrb	w1, [x19, 4]
	mov	w0, w23
	and	w1, w1, -4
	strb	w1, [x19, 4]
	str	wzr, [x20]
	bl	close
	bl	_ZN4asio15system_categoryEv
	ldp	x21, x22, [sp, 32]
	.cfi_remember_state
	.cfi_restore 22
	.cfi_restore 21
	ldp	x23, x24, [sp, 48]
	.cfi_restore 24
	.cfi_restore 23
	b	.L1337
	.p2align 2,,3
.L1361:
	.cfi_restore_state
	orr	w21, w21, 8
	strb	w21, [x19, 4]
	add	x3, sp, 64
	str	wzr, [x20]
	mov	w4, 8
	mov	w2, 13
	mov	w1, 1
	mov	w0, w23
	str	xzr, [sp, 64]
	bl	setsockopt
	bl	_ZN4asio15system_categoryEv
	b	.L1341
.L1360:
	.cfi_restore 21
	.cfi_restore 22
	.cfi_restore 23
	.cfi_restore 24
	stp	x21, x22, [sp, 32]
	.cfi_offset 22, -40
	.cfi_offset 21, -48
	stp	x23, x24, [sp, 48]
	.cfi_offset 24, -24
	.cfi_offset 23, -32
	bl	__stack_chk_fail
	.cfi_endproc
.LFE3860:
	.size	_ZN4asio6detail28reactive_socket_service_base7destroyERNS1_24base_implementation_typeE, .-_ZN4asio6detail28reactive_socket_service_base7destroyERNS1_24base_implementation_typeE
	.section	.text._ZN4asio6detail28reactive_socket_service_base16start_connect_opERNS1_24base_implementation_typeEPNS0_10reactor_opEbPK8sockaddrm,"axG",@progbits,_ZN4asio6detail28reactive_socket_service_base16start_connect_opERNS1_24base_implementation_typeEPNS0_10reactor_opEbPK8sockaddrm,comdat
	.align	2
	.p2align 4,,11
	.weak	_ZN4asio6detail28reactive_socket_service_base16start_connect_opERNS1_24base_implementation_typeEPNS0_10reactor_opEbPK8sockaddrm
	.type	_ZN4asio6detail28reactive_socket_service_base16start_connect_opERNS1_24base_implementation_typeEPNS0_10reactor_opEbPK8sockaddrm, %function
_ZN4asio6detail28reactive_socket_service_base16start_connect_opERNS1_24base_implementation_typeEPNS0_10reactor_opEbPK8sockaddrm:
.LFB3867:
	.cfi_startproc
	stp	x29, x30, [sp, -128]!
	.cfi_def_cfa_offset 128
	.cfi_offset 29, -128
	.cfi_offset 30, -120
	adrp	x6, :got:__stack_chk_guard
	mov	x29, sp
	stp	x19, x20, [sp, 16]
	.cfi_offset 19, -112
	.cfi_offset 20, -104
	mov	x19, x2
	mov	x20, x1
	dup	v0.2d, x19
	stp	x21, x22, [sp, 32]
	.cfi_offset 21, -96
	.cfi_offset 22, -88
	mov	x21, x0
	stp	x23, x24, [sp, 48]
	mov	x22, x4
	.cfi_offset 23, -80
	.cfi_offset 24, -72
	mov	x23, x5
	stp	x25, x26, [sp, 64]
	.cfi_offset 25, -64
	.cfi_offset 26, -56
	and	w25, w3, 255
	ldr	w26, [x20]
	ldr	x6, [x6, #:got_lo12:__stack_chk_guard]
	ldrb	w1, [x1, 4]
	ldr	x2, [x6]
	str	x2, [sp, 120]
	mov	x2, 0
	str	q0, [sp, 80]
	tst	x1, 3
	bne	.L1364
	cmn	w26, #1
	beq	.L1391
	bl	__errno_location
	mov	x24, x0
	mov	w3, 1
	add	x2, sp, 104
	mov	x1, 21537
	mov	w0, w26
	str	wzr, [x24]
	str	w3, [sp, 104]
	bl	ioctl
	ldr	w26, [x24]
	mov	w24, w0
	bl	_ZN4asio15system_categoryEv
	str	w26, [x19, 24]
	str	x0, [x19, 32]
	tbnz	w24, #31, .L1366
	bl	_ZNSt3_V215system_categoryEv
	ldr	w26, [x20]
	str	wzr, [x19, 24]
	str	x0, [x19, 32]
	ldrb	w0, [x20, 4]
	orr	w0, w0, 2
	strb	w0, [x20, 4]
.L1364:
	cmn	w26, #1
	beq	.L1392
	bl	__errno_location
	mov	x24, x0
	mov	w2, w23
	mov	x1, x22
	mov	w0, w26
	str	wzr, [x24]
	bl	connect
	ldr	w23, [x24]
	mov	w22, w0
	bl	_ZN4asio15system_categoryEv
	str	w23, [x19, 24]
	str	x0, [x19, 32]
	cbnz	w22, .L1370
	bl	_ZNSt3_V215system_categoryEv
	str	wzr, [x19, 24]
	str	x0, [x19, 32]
.L1366:
	adrp	x0, :got:__stack_chk_guard
	ldr	x0, [x0, #:got_lo12:__stack_chk_guard]
	ldr	x2, [sp, 120]
	ldr	x1, [x0]
	subs	x2, x2, x1
	mov	x1, 0
	bne	.L1390
	ldr	x0, [x21]
	mov	w2, w25
	mov	x1, x19
	ldr	x0, [x0, 40]
.L1389:
	ldp	x19, x20, [sp, 16]
	ldp	x21, x22, [sp, 32]
	ldp	x23, x24, [sp, 48]
	ldp	x25, x26, [sp, 64]
	ldp	x29, x30, [sp], 128
	.cfi_remember_state
	.cfi_restore 30
	.cfi_restore 29
	.cfi_restore 25
	.cfi_restore 26
	.cfi_restore 23
	.cfi_restore 24
	.cfi_restore 21
	.cfi_restore 22
	.cfi_restore 19
	.cfi_restore 20
	.cfi_def_cfa_offset 0
	b	_ZN4asio6detail15task_io_service25post_immediate_completionEPNS0_25task_io_service_operationEb
	.p2align 2,,3
.L1370:
	.cfi_restore_state
	bl	_ZN4asio15system_categoryEv
	ldr	x1, [x19, 32]
	cmp	x1, x0
	beq	.L1393
.L1369:
	bl	_ZN4asio15system_categoryEv
	ldr	x1, [x19, 32]
	cmp	x1, x0
	beq	.L1394
.L1371:
	bl	_ZN4asio15system_categoryEv
	ldr	x1, [x19, 32]
	cmp	x1, x0
	bne	.L1366
	ldr	w0, [x19, 24]
	cmp	w0, 11
	bne	.L1366
.L1374:
	bl	_ZNSt3_V215system_categoryEv
	ldr	w23, [x20]
	ldr	x1, [x20, 8]
	ldr	x22, [x21]
	str	wzr, [x19, 24]
	str	x0, [x19, 32]
	cbz	x1, .L1395
	add	x21, x1, 40
	mov	x0, x21
	bl	pthread_mutex_lock
	ldr	x0, [x20, 8]
	ldrb	w1, [x0, 152]
	cbnz	w1, .L1396
	ldr	x1, [x0, 120]
	cbz	x1, .L1397
.L1378:
	ldr	x1, [x0, 128]
	str	xzr, [x19]
	cbz	x1, .L1379
	str	x19, [x1]
	str	x19, [x0, 128]
.L1380:
	ldr	x1, [x22, 40]
	mov	x0, 1
	add	x1, x1, 192
	bl	__aarch64_ldadd8_acq_rel
	adrp	x0, :got:__stack_chk_guard
	ldr	x0, [x0, #:got_lo12:__stack_chk_guard]
	ldr	x2, [sp, 120]
	ldr	x1, [x0]
	subs	x2, x2, x1
	mov	x1, 0
	bne	.L1390
.L1381:
	mov	x0, x21
	ldp	x19, x20, [sp, 16]
	ldp	x21, x22, [sp, 32]
	ldp	x23, x24, [sp, 48]
	ldp	x25, x26, [sp, 64]
	ldp	x29, x30, [sp], 128
	.cfi_remember_state
	.cfi_restore 30
	.cfi_restore 29
	.cfi_restore 25
	.cfi_restore 26
	.cfi_restore 23
	.cfi_restore 24
	.cfi_restore 21
	.cfi_restore 22
	.cfi_restore 19
	.cfi_restore 20
	.cfi_def_cfa_offset 0
	b	pthread_mutex_unlock
	.p2align 2,,3
.L1394:
	.cfi_restore_state
	ldr	w0, [x19, 24]
	cmp	w0, 115
	bne	.L1371
	b	.L1374
	.p2align 2,,3
.L1393:
	ldr	w0, [x19, 24]
	cmp	w0, 11
	bne	.L1369
	bl	_ZN4asio15system_categoryEv
	str	x0, [x19, 32]
	mov	w1, 105
	str	w1, [x19, 24]
	b	.L1369
	.p2align 2,,3
.L1391:
	bl	_ZN4asio15system_categoryEv
	str	x0, [x19, 32]
	mov	w1, 9
	str	w1, [x19, 24]
	b	.L1366
.L1379:
	ldr	q0, [sp, 80]
	str	q0, [x0, 120]
	b	.L1380
.L1397:
	ldr	w4, [x0, 100]
	mov	w2, w23
	add	x3, sp, 104
	mov	w1, 3
	orr	w4, w4, 4
	str	w4, [x0, 100]
	str	w4, [sp, 104]
	str	x0, [sp, 112]
	ldr	w0, [x22, 104]
	bl	epoll_ctl
	ldr	x0, [x20, 8]
	b	.L1378
.L1395:
	bl	_ZN4asio15system_categoryEv
	str	x0, [x19, 32]
	adrp	x1, :got:__stack_chk_guard
	mov	w2, 9
	str	w2, [x19, 24]
	ldr	x1, [x1, #:got_lo12:__stack_chk_guard]
	ldr	x0, [sp, 120]
	ldr	x2, [x1]
	subs	x0, x0, x2
	mov	x2, 0
	bne	.L1390
	mov	w2, w25
	mov	x1, x19
	ldr	x0, [x22, 40]
	b	.L1389
.L1396:
	ldr	x0, [x22, 40]
	mov	w2, w25
	mov	x1, x19
	bl	_ZN4asio6detail15task_io_service25post_immediate_completionEPNS0_25task_io_service_operationEb
	adrp	x0, :got:__stack_chk_guard
	ldr	x0, [x0, #:got_lo12:__stack_chk_guard]
	ldr	x2, [sp, 120]
	ldr	x1, [x0]
	subs	x2, x2, x1
	mov	x1, 0
	beq	.L1381
.L1390:
	bl	__stack_chk_fail
	.p2align 2,,3
.L1392:
	bl	_ZN4asio15system_categoryEv
	str	x0, [x19, 32]
	mov	w1, 9
	str	w1, [x19, 24]
	b	.L1369
	.cfi_endproc
.LFE3867:
	.size	_ZN4asio6detail28reactive_socket_service_base16start_connect_opERNS1_24base_implementation_typeEPNS0_10reactor_opEbPK8sockaddrm, .-_ZN4asio6detail28reactive_socket_service_base16start_connect_opERNS1_24base_implementation_typeEPNS0_10reactor_opEbPK8sockaddrm
	.section	.text._ZN4asio2ip7address11from_stringEPKcRSt10error_code,"axG",@progbits,_ZN4asio2ip7address11from_stringEPKcRSt10error_code,comdat
	.align	2
	.p2align 4,,11
	.weak	_ZN4asio2ip7address11from_stringEPKcRSt10error_code
	.type	_ZN4asio2ip7address11from_stringEPKcRSt10error_code, %function
_ZN4asio2ip7address11from_stringEPKcRSt10error_code:
.LFB5853:
	.cfi_startproc
	stp	x29, x30, [sp, -224]!
	.cfi_def_cfa_offset 224
	.cfi_offset 29, -224
	.cfi_offset 30, -216
	adrp	x2, :got:__stack_chk_guard
	mov	x29, sp
	ldr	x2, [x2, #:got_lo12:__stack_chk_guard]
	stp	x19, x20, [sp, 16]
	.cfi_offset 19, -208
	.cfi_offset 20, -200
	mov	x19, x1
	stp	x21, x22, [sp, 32]
	.cfi_offset 21, -192
	.cfi_offset 22, -184
	mov	x21, x0
	mov	x20, x8
	stp	x23, x24, [sp, 48]
	ldr	x0, [x2]
	str	x0, [sp, 216]
	mov	x0, 0
	stp	xzr, xzr, [sp, 120]
	str	xzr, [sp, 136]
	.cfi_offset 23, -176
	.cfi_offset 24, -168
	bl	__errno_location
	mov	x22, x0
	mov	w1, 37
	mov	x0, x21
	str	wzr, [x22]
	bl	strchr
	cbz	x0, .L1399
	sub	x24, x0, x21
	mov	x23, x0
	cmp	x24, 63
	bgt	.L1431
	add	x4, sp, 152
	mov	x2, x24
	mov	x3, 64
	mov	x0, x4
	mov	x1, x21
	str	x25, [sp, 64]
	.cfi_offset 25, -160
	bl	__memcpy_chk
	mov	x4, x0
	mov	x1, x0
	add	x2, sp, 120
	mov	w0, 10
	strb	wzr, [x4, x24]
	bl	inet_pton
	ldr	w24, [x22]
	mov	w25, w0
	bl	_ZN4asio15system_categoryEv
	str	w24, [x19]
	str	x0, [x19, 8]
	cmp	w25, 0
	ble	.L1432
	ldrb	w0, [sp, 120]
	str	xzr, [sp, 136]
	cmp	w0, 254
	beq	.L1433
	cmp	w0, 255
	bne	.L1430
	ldrb	w0, [sp, 121]
	add	x24, x23, 1
	and	w0, w0, 15
	cmp	w0, 2
	beq	.L1404
.L1406:
	mov	x0, x24
	mov	w2, 10
	mov	x1, 0
	bl	strtol
	ldr	w24, [x19]
	sxtw	x0, w0
	ldr	x25, [sp, 64]
	.cfi_restore 25
.L1405:
	ldp	x2, x3, [sp, 120]
	stp	x2, x3, [sp, 96]
	cbnz	w24, .L1401
	adrp	x1, .LC20
	stp	x2, x3, [sp, 128]
	ldr	d0, [x1, #:lo12:.LC20]
	mov	x1, x20
	str	d0, [x1], 8
	stp	x2, x3, [x20, 8]
	str	x0, [x1, 16]
.L1398:
	adrp	x0, :got:__stack_chk_guard
	ldr	x0, [x0, #:got_lo12:__stack_chk_guard]
	ldr	x2, [sp, 216]
	ldr	x1, [x0]
	subs	x2, x2, x1
	mov	x1, 0
	bne	.L1434
	mov	x0, x20
	ldp	x19, x20, [sp, 16]
	ldp	x21, x22, [sp, 32]
	ldp	x23, x24, [sp, 48]
	ldp	x29, x30, [sp], 224
	.cfi_restore 30
	.cfi_restore 29
	.cfi_restore 23
	.cfi_restore 24
	.cfi_restore 21
	.cfi_restore 22
	.cfi_restore 19
	.cfi_restore 20
	.cfi_def_cfa_offset 0
	ret
	.p2align 2,,3
.L1432:
	.cfi_def_cfa_offset 224
	.cfi_offset 19, -208
	.cfi_offset 20, -200
	.cfi_offset 21, -192
	.cfi_offset 22, -184
	.cfi_offset 23, -176
	.cfi_offset 24, -168
	.cfi_offset 25, -160
	.cfi_offset 29, -224
	.cfi_offset 30, -216
	ldr	x25, [sp, 64]
	.cfi_restore 25
	cbnz	w24, .L1401
	.p2align 3,,7
.L1431:
	bl	_ZN4asio15system_categoryEv
	str	x0, [x19, 8]
	mov	w1, 22
	str	w1, [x19]
.L1401:
	mov	x1, x21
	add	x2, sp, 88
	str	wzr, [x22]
	mov	w0, 2
	str	wzr, [sp, 88]
	bl	inet_pton
	ldr	w22, [x22]
	mov	w21, w0
	bl	_ZN4asio15system_categoryEv
	str	w22, [x19]
	str	x0, [x19, 8]
	cmp	w21, 0
	ble	.L1435
	ldr	w0, [sp, 88]
	cbnz	w22, .L1411
	stp	wzr, w0, [x20]
	stp	xzr, xzr, [x20, 8]
	str	xzr, [x20, 24]
	stp	xzr, xzr, [sp, 128]
	b	.L1398
	.p2align 2,,3
.L1399:
	add	x2, sp, 120
	mov	x1, x21
	mov	w0, 10
	bl	inet_pton
	ldr	w24, [x22]
	mov	w23, w0
	bl	_ZN4asio15system_categoryEv
	str	w24, [x19]
	str	x0, [x19, 8]
	mov	x0, 0
	cmp	w23, 0
	bgt	.L1405
	cbnz	w24, .L1401
	b	.L1431
	.p2align 2,,3
.L1435:
	cbz	w22, .L1436
.L1411:
	mov	x0, x20
	str	xzr, [x0], 8
	stp	xzr, xzr, [x20, 8]
	str	xzr, [x0, 16]
	b	.L1398
	.p2align 2,,3
.L1433:
	.cfi_offset 25, -160
	ldrb	w0, [sp, 121]
	and	w0, w0, 192
	cmp	w0, 128
	beq	.L1404
.L1430:
	add	x24, x23, 1
	b	.L1406
	.p2align 2,,3
.L1404:
	add	x24, x23, 1
	mov	x0, x24
	bl	if_nametoindex
	uxtw	x0, w0
	str	x0, [sp, 136]
	cbz	x0, .L1406
	ldr	w24, [x19]
	ldr	x25, [sp, 64]
	.cfi_restore 25
	b	.L1405
	.p2align 2,,3
.L1436:
	bl	_ZN4asio15system_categoryEv
	str	x0, [x19, 8]
	mov	w1, 22
	str	w1, [x19]
	b	.L1411
.L1434:
	str	x25, [sp, 64]
	.cfi_offset 25, -160
	bl	__stack_chk_fail
	.cfi_endproc
.LFE5853:
	.size	_ZN4asio2ip7address11from_stringEPKcRSt10error_code, .-_ZN4asio2ip7address11from_stringEPKcRSt10error_code
	.section	.text._ZN4asio6detail14strand_service16on_dispatch_exitD2Ev,"axG",@progbits,_ZN4asio6detail14strand_service16on_dispatch_exitD5Ev,comdat
	.align	2
	.p2align 4,,11
	.weak	_ZN4asio6detail14strand_service16on_dispatch_exitD2Ev
	.type	_ZN4asio6detail14strand_service16on_dispatch_exitD2Ev, %function
_ZN4asio6detail14strand_service16on_dispatch_exitD2Ev:
.LFB6403:
	.cfi_startproc
	stp	x29, x30, [sp, -32]!
	.cfi_def_cfa_offset 32
	.cfi_offset 29, -32
	.cfi_offset 30, -24
	mov	x29, sp
	stp	x19, x20, [sp, 16]
	.cfi_offset 19, -16
	.cfi_offset 20, -8
	mov	x19, x0
	ldr	x0, [x0, 8]
	add	x0, x0, 24
	bl	pthread_mutex_lock
	ldr	x1, [x19, 8]
	ldr	x20, [x1, 80]
	cbz	x20, .L1444
	ldr	x2, [x1, 104]
	add	x0, x1, 96
	cbz	x2, .L1440
	str	x20, [x2]
	ldr	x20, [x1, 96]
.L1441:
	ldr	x2, [x1, 88]
	str	x2, [x0, 8]
	stp	xzr, xzr, [x1, 80]
.L1439:
	cmp	x20, 0
	cset	w0, ne
	strb	w0, [x1, 72]
	add	x0, x1, 24
	bl	pthread_mutex_unlock
	cbnz	x20, .L1445
	ldp	x19, x20, [sp, 16]
	ldp	x29, x30, [sp], 32
	.cfi_remember_state
	.cfi_restore 30
	.cfi_restore 29
	.cfi_restore 19
	.cfi_restore 20
	.cfi_def_cfa_offset 0
	ret
	.p2align 2,,3
.L1440:
	.cfi_restore_state
	str	x20, [x1, 96]
	b	.L1441
	.p2align 2,,3
.L1445:
	ldp	x0, x1, [x19]
	mov	w2, 0
	ldp	x19, x20, [sp, 16]
	ldp	x29, x30, [sp], 32
	.cfi_remember_state
	.cfi_restore 30
	.cfi_restore 29
	.cfi_restore 19
	.cfi_restore 20
	.cfi_def_cfa_offset 0
	b	_ZN4asio6detail15task_io_service25post_immediate_completionEPNS0_25task_io_service_operationEb
	.p2align 2,,3
.L1444:
	.cfi_restore_state
	ldr	x20, [x1, 96]
	b	.L1439
	.cfi_endproc
.LFE6403:
	.size	_ZN4asio6detail14strand_service16on_dispatch_exitD2Ev, .-_ZN4asio6detail14strand_service16on_dispatch_exitD2Ev
	.weak	_ZN4asio6detail14strand_service16on_dispatch_exitD1Ev
	.set	_ZN4asio6detail14strand_service16on_dispatch_exitD1Ev,_ZN4asio6detail14strand_service16on_dispatch_exitD2Ev
	.section	.text._ZN4asio6detail14strand_service11do_dispatchERPNS1_11strand_implEPNS0_25task_io_service_operationE,"axG",@progbits,_ZN4asio6detail14strand_service11do_dispatchERPNS1_11strand_implEPNS0_25task_io_service_operationE,comdat
	.align	2
	.p2align 4,,11
	.weak	_ZN4asio6detail14strand_service11do_dispatchERPNS1_11strand_implEPNS0_25task_io_service_operationE
	.type	_ZN4asio6detail14strand_service11do_dispatchERPNS1_11strand_implEPNS0_25task_io_service_operationE, %function
_ZN4asio6detail14strand_service11do_dispatchERPNS1_11strand_implEPNS0_25task_io_service_operationE:
.LFB6420:
	.cfi_startproc
	stp	x29, x30, [sp, -64]!
	.cfi_def_cfa_offset 64
	.cfi_offset 29, -64
	.cfi_offset 30, -56
	adrp	x3, :got:_ZN4asio6detail10call_stackINS0_15task_io_serviceENS0_27task_io_service_thread_infoEE4top_E
	dup	v0.2d, x2
	mov	x29, sp
	ldr	x3, [x3, #:got_lo12:_ZN4asio6detail10call_stackINS0_15task_io_serviceENS0_27task_io_service_thread_infoEE4top_E]
	stp	x21, x22, [sp, 32]
	.cfi_offset 21, -32
	.cfi_offset 22, -24
	mov	x22, x0
	mov	x21, x1
	stp	x19, x20, [sp, 16]
	.cfi_offset 19, -48
	.cfi_offset 20, -40
	ldr	w0, [x3]
	mov	x20, x2
	str	q0, [sp, 48]
	ldr	x19, [x22, 40]
	bl	pthread_getspecific
	cbnz	x0, .L1451
	b	.L1447
	.p2align 2,,3
.L1448:
	ldr	x0, [x0, 16]
	cbz	x0, .L1447
.L1451:
	ldr	x3, [x0]
	cmp	x19, x3
	bne	.L1448
	ldr	x19, [x0, 8]
	ldr	x0, [x21]
	add	x0, x0, 24
	bl	pthread_mutex_lock
	cbz	x19, .L1450
	ldr	x1, [x21]
	add	x0, x1, 24
	ldrb	w2, [x1, 72]
	cbz	w2, .L1466
.L1452:
	str	xzr, [x20]
	ldr	x4, [x1, 88]
	cbz	x4, .L1455
	str	x20, [x4]
	str	x20, [x1, 88]
.L1456:
	bl	pthread_mutex_unlock
	mov	w19, 0
	mov	w0, w19
	ldp	x19, x20, [sp, 16]
	ldp	x21, x22, [sp, 32]
	ldp	x29, x30, [sp], 64
	.cfi_remember_state
	.cfi_restore 30
	.cfi_restore 29
	.cfi_restore 21
	.cfi_restore 22
	.cfi_restore 19
	.cfi_restore 20
	.cfi_def_cfa_offset 0
	ret
	.p2align 2,,3
.L1447:
	.cfi_restore_state
	ldr	x0, [x21]
	add	x0, x0, 24
	bl	pthread_mutex_lock
.L1450:
	ldr	x1, [x21]
	add	x0, x1, 24
	ldrb	w19, [x1, 72]
	cbnz	w19, .L1452
	mov	w2, 1
	strb	w2, [x1, 72]
	bl	pthread_mutex_unlock
	ldr	x1, [x21]
	ldr	x2, [x1, 104]
	str	xzr, [x20]
	cbz	x2, .L1457
	str	x20, [x2]
	str	x20, [x1, 104]
.L1458:
	ldr	x0, [x22, 40]
	mov	w2, 0
	bl	_ZN4asio6detail15task_io_service25post_immediate_completionEPNS0_25task_io_service_operationEb
	mov	w0, w19
	ldp	x19, x20, [sp, 16]
	ldp	x21, x22, [sp, 32]
	ldp	x29, x30, [sp], 64
	.cfi_remember_state
	.cfi_restore 30
	.cfi_restore 29
	.cfi_restore 21
	.cfi_restore 22
	.cfi_restore 19
	.cfi_restore 20
	.cfi_def_cfa_offset 0
	ret
	.p2align 2,,3
.L1455:
	.cfi_restore_state
	ldr	q0, [sp, 48]
	str	q0, [x1, 80]
	b	.L1456
.L1457:
	ldr	q0, [sp, 48]
	str	q0, [x1, 96]
	b	.L1458
	.p2align 2,,3
.L1466:
	mov	w2, 1
	strb	w2, [x1, 72]
	mov	w19, 1
	bl	pthread_mutex_unlock
	mov	w0, w19
	ldp	x19, x20, [sp, 16]
	ldp	x21, x22, [sp, 32]
	ldp	x29, x30, [sp], 64
	.cfi_restore 30
	.cfi_restore 29
	.cfi_restore 21
	.cfi_restore 22
	.cfi_restore 19
	.cfi_restore 20
	.cfi_def_cfa_offset 0
	ret
	.cfi_endproc
.LFE6420:
	.size	_ZN4asio6detail14strand_service11do_dispatchERPNS1_11strand_implEPNS0_25task_io_service_operationE, .-_ZN4asio6detail14strand_service11do_dispatchERPNS1_11strand_implEPNS0_25task_io_service_operationE
	.section	.text._ZN4asio2ip20basic_resolver_queryINS0_3tcpEED2Ev,"axG",@progbits,_ZN4asio2ip20basic_resolver_queryINS0_3tcpEED5Ev,comdat
	.align	2
	.p2align 4,,11
	.weak	_ZN4asio2ip20basic_resolver_queryINS0_3tcpEED2Ev
	.type	_ZN4asio2ip20basic_resolver_queryINS0_3tcpEED2Ev, %function
_ZN4asio2ip20basic_resolver_queryINS0_3tcpEED2Ev:
.LFB7085:
	.cfi_startproc
	stp	x29, x30, [sp, -32]!
	.cfi_def_cfa_offset 32
	.cfi_offset 29, -32
	.cfi_offset 30, -24
	add	x1, x0, 96
	mov	x29, sp
	str	x19, [sp, 16]
	.cfi_offset 19, -16
	mov	x19, x0
	ldr	x0, [x0, 80]
	cmp	x0, x1
	beq	.L1468
	ldr	x1, [x19, 96]
	add	x1, x1, 1
	bl	_ZdlPvm
.L1468:
	ldr	x0, [x19, 48]
	add	x1, x19, 64
	add	x19, x19, 48
	cmp	x0, x1
	beq	.L1467
	ldr	x1, [x19, 16]
	ldr	x19, [sp, 16]
	add	x1, x1, 1
	ldp	x29, x30, [sp], 32
	.cfi_remember_state
	.cfi_restore 30
	.cfi_restore 29
	.cfi_restore 19
	.cfi_def_cfa_offset 0
	b	_ZdlPvm
	.p2align 2,,3
.L1467:
	.cfi_restore_state
	ldr	x19, [sp, 16]
	ldp	x29, x30, [sp], 32
	.cfi_restore 30
	.cfi_restore 29
	.cfi_restore 19
	.cfi_def_cfa_offset 0
	ret
	.cfi_endproc
.LFE7085:
	.size	_ZN4asio2ip20basic_resolver_queryINS0_3tcpEED2Ev, .-_ZN4asio2ip20basic_resolver_queryINS0_3tcpEED2Ev
	.weak	_ZN4asio2ip20basic_resolver_queryINS0_3tcpEED1Ev
	.set	_ZN4asio2ip20basic_resolver_queryINS0_3tcpEED1Ev,_ZN4asio2ip20basic_resolver_queryINS0_3tcpEED2Ev
	.section	.text.unlikely._ZN4asio6detail15throw_exceptionISt12system_errorEEvRKT_,"axG",@progbits,_ZN4asio6detail15throw_exceptionISt12system_errorEEvRKT_,comdat
	.align	2
	.weak	_ZN4asio6detail15throw_exceptionISt12system_errorEEvRKT_
	.type	_ZN4asio6detail15throw_exceptionISt12system_errorEEvRKT_, %function
_ZN4asio6detail15throw_exceptionISt12system_errorEEvRKT_:
.LFB7397:
	.cfi_startproc
	stp	x29, x30, [sp, -32]!
	.cfi_def_cfa_offset 32
	.cfi_offset 29, -32
	.cfi_offset 30, -24
	mov	x29, sp
	stp	x19, x20, [sp, 16]
	.cfi_offset 19, -16
	.cfi_offset 20, -8
	mov	x20, x0
	mov	x0, 32
	bl	__cxa_allocate_exception
	mov	x19, x0
	mov	x1, x20
	bl	_ZNSt13runtime_errorC2ERKS_
	adrp	x3, :got:_ZTVSt12system_error
	adrp	x2, :got:_ZNSt12system_errorD1Ev
	adrp	x1, :got:_ZTISt12system_error
	mov	x0, x19
	ldr	x3, [x3, #:got_lo12:_ZTVSt12system_error]
	ldp	x4, x5, [x20, 16]
	add	x3, x3, 16
	ldr	x2, [x2, #:got_lo12:_ZNSt12system_errorD1Ev]
	str	x3, [x19]
	ldr	x1, [x1, #:got_lo12:_ZTISt12system_error]
	stp	x4, x5, [x19, 16]
	bl	__cxa_throw
	.cfi_endproc
.LFE7397:
	.size	_ZN4asio6detail15throw_exceptionISt12system_errorEEvRKT_, .-_ZN4asio6detail15throw_exceptionISt12system_errorEEvRKT_
	.section	.text._ZN4asio6detail14do_throw_errorERKSt10error_code,"axG",@progbits,_ZN4asio6detail14do_throw_errorERKSt10error_code,comdat
	.align	2
	.p2align 4,,11
	.weak	_ZN4asio6detail14do_throw_errorERKSt10error_code
	.type	_ZN4asio6detail14do_throw_errorERKSt10error_code, %function
_ZN4asio6detail14do_throw_errorERKSt10error_code:
.LFB2282:
	.cfi_startproc
	.cfi_personality 0x9b,DW.ref.__gxx_personality_v0
	.cfi_lsda 0x1b,.LLSDA2282
	stp	x29, x30, [sp, -128]!
	.cfi_def_cfa_offset 128
	.cfi_offset 29, -128
	.cfi_offset 30, -120
	adrp	x1, :got:__stack_chk_guard
	mov	x29, sp
	ldr	x1, [x1, #:got_lo12:__stack_chk_guard]
	stp	x19, x20, [sp, 16]
	.cfi_offset 19, -112
	.cfi_offset 20, -104
	add	x19, sp, 88
	ldr	x20, [x0, 8]
	stp	x21, x22, [sp, 32]
	.cfi_offset 21, -96
	.cfi_offset 22, -88
	mov	x8, x19
	ldr	x2, [x1]
	str	x2, [sp, 120]
	mov	x2, 0
	ldr	w22, [x0]
	ldr	x2, [x20]
	mov	w1, w22
	mov	x0, x20
	add	x21, sp, 56
	ldr	x2, [x2, 32]
.LEHB19:
	blr	x2
.LEHE19:
	mov	x1, x19
	mov	x0, x21
.LEHB20:
	bl	_ZNSt13runtime_errorC2ERKNSt7__cxx1112basic_stringIcSt11char_traitsIcESaIcEEE
.LEHE20:
	ldr	x0, [sp, 88]
	add	x1, sp, 104
	cmp	x0, x1
	beq	.L1474
	ldr	x1, [sp, 104]
	add	x1, x1, 1
	bl	_ZdlPvm
.L1474:
	adrp	x1, :got:_ZTVSt12system_error
	mov	x0, x21
	str	w22, [sp, 72]
	ldr	x1, [x1, #:got_lo12:_ZTVSt12system_error]
	str	x20, [sp, 80]
	add	x1, x1, 16
	str	x1, [sp, 56]
.LEHB21:
	bl	_ZN4asio6detail15throw_exceptionISt12system_errorEEvRKT_
.LEHE21:
.L1480:
	ldr	x2, [sp, 88]
	add	x1, sp, 104
	mov	x19, x0
	cmp	x2, x1
	beq	.L1482
	ldr	x1, [sp, 104]
	mov	x0, x2
	add	x1, x1, 1
	bl	_ZdlPvm
	b	.L1482
.L1479:
	mov	x19, x0
	mov	x0, x21
	bl	_ZNSt12system_errorD1Ev
.L1482:
	mov	x0, x19
.LEHB22:
	bl	_Unwind_Resume
.LEHE22:
	.cfi_endproc
.LFE2282:
	.section	.gcc_except_table._ZN4asio6detail14do_throw_errorERKSt10error_code,"aG",@progbits,_ZN4asio6detail14do_throw_errorERKSt10error_code,comdat
.LLSDA2282:
	.byte	0xff
	.byte	0xff
	.byte	0x1
	.uleb128 .LLSDACSE2282-.LLSDACSB2282
.LLSDACSB2282:
	.uleb128 .LEHB19-.LFB2282
	.uleb128 .LEHE19-.LEHB19
	.uleb128 0
	.uleb128 0
	.uleb128 .LEHB20-.LFB2282
	.uleb128 .LEHE20-.LEHB20
	.uleb128 .L1480-.LFB2282
	.uleb128 0
	.uleb128 .LEHB21-.LFB2282
	.uleb128 .LEHE21-.LEHB21
	.uleb128 .L1479-.LFB2282
	.uleb128 0
	.uleb128 .LEHB22-.LFB2282
	.uleb128 .LEHE22-.LEHB22
	.uleb128 0
	.uleb128 0
.LLSDACSE2282:
	.section	.text._ZN4asio6detail14do_throw_errorERKSt10error_code,"axG",@progbits,_ZN4asio6detail14do_throw_errorERKSt10error_code,comdat
	.size	_ZN4asio6detail14do_throw_errorERKSt10error_code, .-_ZN4asio6detail14do_throw_errorERKSt10error_code
	.section	.text.asio_detail_posix_thread_function,"axG",@progbits,asio_detail_posix_thread_function,comdat
	.align	2
	.p2align 4,,11
	.weak	asio_detail_posix_thread_function
	.type	asio_detail_posix_thread_function, %function
asio_detail_posix_thread_function:
.LFB6029:
	.cfi_startproc
	.cfi_personality 0x9b,DW.ref.__gxx_personality_v0
	.cfi_lsda 0x1b,.LLSDA6029
	stp	x29, x30, [sp, -80]!
	.cfi_def_cfa_offset 80
	.cfi_offset 29, -80
	.cfi_offset 30, -72
	adrp	x2, :got:__stack_chk_guard
	adrp	x1, :got:_ZN4asio6detail12posix_thread4funcINS0_21resolver_service_base22work_io_service_runnerEE3runEv
	mov	x29, sp
	ldr	x3, [x0]
	stp	x19, x20, [sp, 16]
	.cfi_offset 19, -64
	.cfi_offset 20, -56
	mov	x19, x0
	ldr	x2, [x2, #:got_lo12:__stack_chk_guard]
	str	x21, [sp, 32]
	.cfi_offset 21, -48
	ldr	x1, [x1, #:got_lo12:_ZN4asio6detail12posix_thread4funcINS0_21resolver_service_base22work_io_service_runnerEE3runEv]
	ldr	x4, [x2]
	str	x4, [sp, 72]
	mov	x4, 0
	ldr	x2, [x3, 16]
	cmp	x2, x1
	bne	.L1484
	ldr	x21, [x0, 8]
	str	wzr, [sp, 56]
	bl	_ZNSt3_V215system_categoryEv
	str	x0, [sp, 64]
	add	x20, sp, 56
	ldr	x0, [x21, 8]
	mov	x1, x20
.LEHB23:
	bl	_ZN4asio6detail15task_io_service3runERSt10error_code
	ldr	w0, [sp, 56]
	cbnz	w0, .L1495
.L1486:
	ldr	x1, [x19]
	mov	x0, x19
	ldr	x1, [x1, 8]
	blr	x1
	adrp	x0, :got:__stack_chk_guard
	ldr	x0, [x0, #:got_lo12:__stack_chk_guard]
	ldr	x2, [sp, 72]
	ldr	x1, [x0]
	subs	x2, x2, x1
	mov	x1, 0
	bne	.L1496
	mov	x0, 0
	ldp	x19, x20, [sp, 16]
	ldr	x21, [sp, 32]
	ldp	x29, x30, [sp], 80
	.cfi_remember_state
	.cfi_restore 30
	.cfi_restore 29
	.cfi_restore 21
	.cfi_restore 19
	.cfi_restore 20
	.cfi_def_cfa_offset 0
	ret
	.p2align 2,,3
.L1484:
	.cfi_restore_state
	blr	x2
	b	.L1486
.L1496:
	bl	__stack_chk_fail
.L1495:
	mov	x0, x20
	bl	_ZN4asio6detail14do_throw_errorERKSt10error_code
.LEHE23:
.L1489:
	ldr	x1, [x19]
	mov	x20, x0
	mov	x0, x19
	ldr	x1, [x1, 8]
	blr	x1
	mov	x0, x20
.LEHB24:
	bl	_Unwind_Resume
.LEHE24:
	.cfi_endproc
.LFE6029:
	.section	.gcc_except_table.asio_detail_posix_thread_function,"aG",@progbits,asio_detail_posix_thread_function,comdat
.LLSDA6029:
	.byte	0xff
	.byte	0xff
	.byte	0x1
	.uleb128 .LLSDACSE6029-.LLSDACSB6029
.LLSDACSB6029:
	.uleb128 .LEHB23-.LFB6029
	.uleb128 .LEHE23-.LEHB23
	.uleb128 .L1489-.LFB6029
	.uleb128 0
	.uleb128 .LEHB24-.LFB6029
	.uleb128 .LEHE24-.LEHB24
	.uleb128 0
	.uleb128 0
.LLSDACSE6029:
	.section	.text.asio_detail_posix_thread_function,"axG",@progbits,asio_detail_posix_thread_function,comdat
	.size	asio_detail_posix_thread_function, .-asio_detail_posix_thread_function
	.section	.text._ZN4asio6detail12posix_thread4funcINS0_21resolver_service_base22work_io_service_runnerEE3runEv,"axG",@progbits,_ZN4asio6detail12posix_thread4funcINS0_21resolver_service_base22work_io_service_runnerEE3runEv,comdat
	.align	2
	.p2align 4,,11
	.weak	_ZN4asio6detail12posix_thread4funcINS0_21resolver_service_base22work_io_service_runnerEE3runEv
	.type	_ZN4asio6detail12posix_thread4funcINS0_21resolver_service_base22work_io_service_runnerEE3runEv, %function
_ZN4asio6detail12posix_thread4funcINS0_21resolver_service_base22work_io_service_runnerEE3runEv:
.LFB10286:
	.cfi_startproc
	stp	x29, x30, [sp, -64]!
	.cfi_def_cfa_offset 64
	.cfi_offset 29, -64
	.cfi_offset 30, -56
	adrp	x1, :got:__stack_chk_guard
	mov	x29, sp
	ldr	x1, [x1, #:got_lo12:__stack_chk_guard]
	stp	x19, x20, [sp, 16]
	.cfi_offset 19, -48
	.cfi_offset 20, -40
	add	x19, sp, 40
	ldr	x20, [x0, 8]
	ldr	x0, [x1]
	str	x0, [sp, 56]
	mov	x0, 0
	str	wzr, [sp, 40]
	bl	_ZNSt3_V215system_categoryEv
	mov	x2, x0
	ldr	x0, [x20, 8]
	mov	x1, x19
	str	x2, [sp, 48]
	bl	_ZN4asio6detail15task_io_service3runERSt10error_code
	ldr	w0, [sp, 40]
	cbnz	w0, .L1501
	adrp	x0, :got:__stack_chk_guard
	ldr	x0, [x0, #:got_lo12:__stack_chk_guard]
	ldr	x2, [sp, 56]
	ldr	x1, [x0]
	subs	x2, x2, x1
	mov	x1, 0
	bne	.L1502
	ldp	x19, x20, [sp, 16]
	ldp	x29, x30, [sp], 64
	.cfi_remember_state
	.cfi_restore 30
	.cfi_restore 29
	.cfi_restore 19
	.cfi_restore 20
	.cfi_def_cfa_offset 0
	ret
.L1501:
	.cfi_restore_state
	mov	x0, x19
	bl	_ZN4asio6detail14do_throw_errorERKSt10error_code
.L1502:
	bl	__stack_chk_fail
	.cfi_endproc
.LFE10286:
	.size	_ZN4asio6detail12posix_thread4funcINS0_21resolver_service_base22work_io_service_runnerEE3runEv, .-_ZN4asio6detail12posix_thread4funcINS0_21resolver_service_base22work_io_service_runnerEE3runEv
	.section	.text._ZN4asio6detail14do_throw_errorERKSt10error_codePKc,"axG",@progbits,_ZN4asio6detail14do_throw_errorERKSt10error_codePKc,comdat
	.align	2
	.p2align 4,,11
	.weak	_ZN4asio6detail14do_throw_errorERKSt10error_codePKc
	.type	_ZN4asio6detail14do_throw_errorERKSt10error_codePKc, %function
_ZN4asio6detail14do_throw_errorERKSt10error_codePKc:
.LFB2283:
	.cfi_startproc
	.cfi_personality 0x9b,DW.ref.__gxx_personality_v0
	.cfi_lsda 0x1b,.LLSDA2283
	stp	x29, x30, [sp, -80]!
	.cfi_def_cfa_offset 80
	.cfi_offset 29, -80
	.cfi_offset 30, -72
	adrp	x2, :got:__stack_chk_guard
	mov	x3, x1
	mov	x29, sp
	ldp	x4, x5, [x0]
	str	x19, [sp, 16]
	.cfi_offset 19, -64
	ldr	x2, [x2, #:got_lo12:__stack_chk_guard]
	add	x19, sp, 40
	mov	x0, x19
	ldr	x1, [x2]
	str	x1, [sp, 72]
	mov	x1, 0
	mov	x1, x4
	mov	x2, x5
.LEHB25:
	bl	_ZNSt12system_errorC1ESt10error_codePKc
.LEHE25:
	mov	x0, x19
.LEHB26:
	bl	_ZN4asio6detail15throw_exceptionISt12system_errorEEvRKT_
.LEHE26:
.L1506:
	mov	x1, x0
	mov	x0, x19
	mov	x19, x1
	bl	_ZNSt12system_errorD1Ev
	mov	x0, x19
.LEHB27:
	bl	_Unwind_Resume
.LEHE27:
	.cfi_endproc
.LFE2283:
	.section	.gcc_except_table._ZN4asio6detail14do_throw_errorERKSt10error_codePKc,"aG",@progbits,_ZN4asio6detail14do_throw_errorERKSt10error_codePKc,comdat
.LLSDA2283:
	.byte	0xff
	.byte	0xff
	.byte	0x1
	.uleb128 .LLSDACSE2283-.LLSDACSB2283
.LLSDACSB2283:
	.uleb128 .LEHB25-.LFB2283
	.uleb128 .LEHE25-.LEHB25
	.uleb128 0
	.uleb128 0
	.uleb128 .LEHB26-.LFB2283
	.uleb128 .LEHE26-.LEHB26
	.uleb128 .L1506-.LFB2283
	.uleb128 0
	.uleb128 .LEHB27-.LFB2283
	.uleb128 .LEHE27-.LEHB27
	.uleb128 0
	.uleb128 0
.LLSDACSE2283:
	.section	.text._ZN4asio6detail14do_throw_errorERKSt10error_codePKc,"axG",@progbits,_ZN4asio6detail14do_throw_errorERKSt10error_codePKc,comdat
	.size	_ZN4asio6detail14do_throw_errorERKSt10error_codePKc, .-_ZN4asio6detail14do_throw_errorERKSt10error_codePKc
	.section	.rodata._ZN4asio6detail13epoll_reactor12fork_serviceENS_10io_service10fork_eventE.str1.8,"aMS",@progbits,1
	.align	3
.LC21:
	.string	"epoll"
	.align	3
.LC22:
	.string	"eventfd_select_interrupter"
	.align	3
.LC23:
	.string	"epoll re-registration"
	.section	.text._ZN4asio6detail13epoll_reactor12fork_serviceENS_10io_service10fork_eventE,"axG",@progbits,_ZN4asio6detail13epoll_reactor12fork_serviceENS_10io_service10fork_eventE,comdat
	.align	2
	.p2align 4,,11
	.weak	_ZN4asio6detail13epoll_reactor12fork_serviceENS_10io_service10fork_eventE
	.type	_ZN4asio6detail13epoll_reactor12fork_serviceENS_10io_service10fork_eventE, %function
_ZN4asio6detail13epoll_reactor12fork_serviceENS_10io_service10fork_eventE:
.LFB3298:
	.cfi_startproc
	.cfi_personality 0x9b,DW.ref.__gxx_personality_v0
	.cfi_lsda 0x1b,.LLSDA3298
	stp	x29, x30, [sp, -160]!
	.cfi_def_cfa_offset 160
	.cfi_offset 29, -160
	.cfi_offset 30, -152
	adrp	x2, :got:__stack_chk_guard
	mov	x29, sp
	ldr	x2, [x2, #:got_lo12:__stack_chk_guard]
	stp	x19, x20, [sp, 16]
	.cfi_offset 19, -144
	.cfi_offset 20, -136
	mov	x20, x0
	ldr	x0, [x2]
	str	x0, [sp, 152]
	mov	x0, 0
	cmp	w1, 2
	beq	.L1588
.L1508:
	adrp	x0, :got:__stack_chk_guard
	ldr	x0, [x0, #:got_lo12:__stack_chk_guard]
	ldr	x2, [sp, 152]
	ldr	x1, [x0]
	subs	x2, x2, x1
	mov	x1, 0
	bne	.L1589
	ldp	x19, x20, [sp, 16]
	ldp	x29, x30, [sp], 160
	.cfi_remember_state
	.cfi_restore 30
	.cfi_restore 29
	.cfi_restore 19
	.cfi_restore 20
	.cfi_def_cfa_offset 0
	ret
	.p2align 2,,3
.L1588:
	.cfi_restore_state
	ldr	w0, [x20, 104]
	stp	x21, x22, [sp, 32]
	.cfi_offset 22, -120
	.cfi_offset 21, -128
	stp	x23, x24, [sp, 48]
	.cfi_offset 24, -104
	.cfi_offset 23, -112
	cmn	w0, #1
	bne	.L1590
	mov	w0, -1
	str	w0, [x20, 104]
	mov	w0, 524288
	bl	epoll_create1
	mov	w19, w0
	cmn	w0, #1
	beq	.L1591
.L1511:
	ldr	w0, [x20, 108]
	str	w19, [x20, 104]
	cmn	w0, #1
	bne	.L1592
	mov	w0, -1
	str	w0, [x20, 108]
	mov	w1, 524288
	mov	w0, 1
	bl	timerfd_create
	mov	w19, w0
	cmn	w0, #1
	beq	.L1593
.L1516:
	add	x22, x20, 96
	str	w19, [x20, 108]
	ldr	w0, [x20, 96]
	ldr	w1, [x22, 4]
	cmn	w1, #1
	beq	.L1517
	cmp	w1, w0
	bne	.L1594
.L1518:
.LEHB28:
	bl	close
.L1519:
	mvni	v0.2s, 0
	mov	w1, 2048
	movk	w1, 0x8, lsl 16
	mov	w0, 0
	str	d0, [x20, 96]
	bl	eventfd
	dup	v0.2s, w0
	mov	w2, w0
	str	d0, [x20, 96]
	cmn	w0, #1
	beq	.L1595
.L1520:
	ldr	w0, [x20, 104]
	mov	w4, 9
	movk	w4, 0x8000, lsl 16
	add	x21, sp, 64
	mov	x3, x21
	mov	w1, 1
	str	w4, [sp, 64]
	add	x23, sp, 112
	str	x22, [sp, 72]
	bl	epoll_ctl
	ldr	w0, [x22, 4]
	mov	x2, 8
	mov	x1, x23
	mov	x19, 1
	str	x19, [sp, 112]
	bl	write
.LEHE28:
	ldr	w2, [x20, 108]
	cmn	w2, #1
	bne	.L1596
.L1525:
	ldr	w2, [x20, 96]
	mov	w4, 9
	ldr	w0, [x20, 104]
	movk	w4, 0x8000, lsl 16
	mov	x3, x23
	mov	w1, 3
	str	w4, [sp, 112]
	str	x22, [sp, 120]
	bl	epoll_ctl
.L1531:
	add	x24, x20, 128
	mov	x0, x24
	bl	pthread_mutex_lock
	ldr	x19, [x20, 176]
	cbnz	x19, .L1532
	b	.L1535
	.p2align 2,,3
.L1533:
	ldr	x19, [x19, 24]
	cbz	x19, .L1535
.L1532:
	ldp	w2, w4, [x19, 96]
	mov	x3, x21
	ldr	w0, [x20, 104]
	mov	w1, 1
	str	w4, [sp, 64]
	str	x19, [sp, 72]
	bl	epoll_ctl
	cbz	w0, .L1533
	bl	__errno_location
	ldr	w22, [x0]
	bl	_ZN4asio15system_categoryEv
	str	w22, [sp, 112]
	str	x0, [sp, 120]
	cbz	w22, .L1533
	adrp	x1, .LC23
	mov	x0, x23
	add	x1, x1, :lo12:.LC23
.LEHB29:
	bl	_ZN4asio6detail14do_throw_errorERKSt10error_codePKc
.LEHE29:
	.p2align 2,,3
.L1594:
	mov	w0, w1
.LEHB30:
	bl	close
	ldr	w0, [x20, 96]
.L1517:
	cmn	w0, #1
	beq	.L1519
	b	.L1518
	.p2align 2,,3
.L1596:
	ldr	w0, [x20, 104]
	add	x4, x20, 108
	mov	w5, 9
	mov	w1, w19
	mov	x3, x21
	str	w5, [sp, 64]
	str	x4, [sp, 72]
	bl	epoll_ctl
	ldr	w0, [x20, 108]
	cmn	w0, #1
	beq	.L1525
	ldr	x19, [x20, 112]
	stp	xzr, xzr, [sp, 80]
	cbz	x19, .L1526
	mov	x1, 41728
	movk	x1, 0x11e1, lsl 16
	.p2align 3,,7
.L1527:
	ldr	x2, [x19]
	mov	x0, x19
	ldr	x2, [x2, 32]
	blr	x2
	mov	x1, x0
	ldr	x19, [x19, 8]
	cbnz	x19, .L1527
	mov	x2, 13531
	cmp	x0, 0
	movk	x2, 0xd7b6, lsl 16
	cset	w3, eq
	movk	x2, 0xde82, lsl 32
	mov	x4, 1
	movk	x2, 0x431b, lsl 48
	smulh	x2, x0, x2
	asr	x2, x2, 18
	sub	x2, x2, x0, asr 63
	str	x2, [sp, 96]
	ldr	w0, [x20, 108]
	beq	.L1530
	mov	x4, 16960
	movk	x4, 0xf, lsl 16
	msub	x2, x2, x4, x1
	lsl	x4, x2, 5
	sub	x4, x4, x2
	add	x4, x2, x4, lsl 2
	lsl	x4, x4, 3
.L1530:
	mov	w1, w3
	add	x2, sp, 80
	mov	x3, x23
	str	x4, [sp, 104]
	bl	timerfd_settime
	b	.L1531
	.p2align 2,,3
.L1592:
	bl	close
	mov	w0, -1
	str	w0, [x20, 108]
	mov	w1, 524288
	mov	w0, 1
	bl	timerfd_create
	mov	w19, w0
	cmn	w0, #1
	bne	.L1516
.L1593:
	bl	__errno_location
	ldr	w0, [x0]
	cmp	w0, 22
	bne	.L1516
	mov	w1, 0
	mov	w0, 1
	bl	timerfd_create
	mov	w19, w0
	cmn	w0, #1
	beq	.L1516
	mov	w2, 1
	mov	w1, 2
	bl	fcntl
	b	.L1516
	.p2align 2,,3
.L1590:
	bl	close
	mov	w0, -1
	str	w0, [x20, 104]
	mov	w0, 524288
	bl	epoll_create1
	mov	w19, w0
	cmn	w0, #1
	bne	.L1511
.L1591:
	bl	__errno_location
	ldr	w22, [x0]
	mov	x21, x0
	sub	w0, w22, #22
	tst	w0, -17
	bne	.L1512
	mov	w0, 20000
	bl	epoll_create
	cmn	w0, #1
	beq	.L1597
	mov	w19, w0
	mov	w2, 1
	mov	w1, 2
	bl	fcntl
	b	.L1511
	.p2align 2,,3
.L1535:
	mov	x0, x24
	bl	pthread_mutex_unlock
	ldp	x21, x22, [sp, 32]
	.cfi_remember_state
	.cfi_restore 22
	.cfi_restore 21
	ldp	x23, x24, [sp, 48]
	.cfi_restore 24
	.cfi_restore 23
	b	.L1508
	.p2align 2,,3
.L1595:
	.cfi_restore_state
	bl	__errno_location
	mov	x19, x0
	ldr	w0, [x0]
	cmp	w0, 22
	beq	.L1598
.L1522:
	add	x0, sp, 144
	bl	pipe
	cbnz	w0, .L1599
	ldr	w0, [sp, 144]
	mov	w2, 2048
	str	w0, [x20, 96]
	mov	w1, 4
	bl	fcntl
	ldr	w0, [x20, 96]
	mov	w2, 1
	mov	w1, 2
	bl	fcntl
	ldr	w0, [sp, 148]
	mov	w2, 2048
	str	w0, [x22, 4]
	mov	w1, 4
	bl	fcntl
	ldr	w0, [x22, 4]
	mov	w2, 1
	mov	w1, 2
	bl	fcntl
.L1523:
	ldr	w2, [x20, 96]
	b	.L1520
.L1597:
	ldr	w22, [x21]
.L1512:
	bl	_ZN4asio15system_categoryEv
	str	w22, [sp, 112]
	str	x0, [sp, 120]
	cbz	w22, .L1511
	adrp	x1, .LC21
	add	x0, sp, 112
	add	x1, x1, :lo12:.LC21
	bl	_ZN4asio6detail14do_throw_errorERKSt10error_codePKc
	.p2align 2,,3
.L1599:
	ldr	w19, [x19]
	bl	_ZN4asio15system_categoryEv
	str	w19, [sp, 112]
	str	x0, [sp, 120]
	cbz	w19, .L1523
	adrp	x1, .LC22
	add	x0, sp, 112
	add	x1, x1, :lo12:.LC22
	bl	_ZN4asio6detail14do_throw_errorERKSt10error_codePKc
	.p2align 2,,3
.L1598:
	mov	w1, 0
	mov	w0, 0
	bl	eventfd
	dup	v0.2s, w0
	str	d0, [x20, 96]
	cmn	w0, #1
	beq	.L1522
	mov	w2, 2048
	mov	w1, 4
	bl	fcntl
	ldr	w0, [x20, 96]
	mov	w2, 1
	mov	w1, 2
	bl	fcntl
	ldr	w2, [x20, 96]
	cmn	w2, #1
	bne	.L1520
	b	.L1522
	.p2align 2,,3
.L1526:
	mov	x1, 300
	mov	w3, 0
	mov	x4, 0
	str	x1, [sp, 96]
	b	.L1530
.L1589:
	.cfi_restore 21
	.cfi_restore 22
	.cfi_restore 23
	.cfi_restore 24
	stp	x21, x22, [sp, 32]
	.cfi_offset 22, -120
	.cfi_offset 21, -128
	stp	x23, x24, [sp, 48]
	.cfi_offset 24, -104
	.cfi_offset 23, -112
	bl	__stack_chk_fail
.L1541:
	mov	x19, x0
	mov	x0, x24
	bl	pthread_mutex_unlock
	mov	x0, x19
	bl	_Unwind_Resume
.LEHE30:
	.cfi_endproc
.LFE3298:
	.section	.gcc_except_table._ZN4asio6detail13epoll_reactor12fork_serviceENS_10io_service10fork_eventE,"aG",@progbits,_ZN4asio6detail13epoll_reactor12fork_serviceENS_10io_service10fork_eventE,comdat
.LLSDA3298:
	.byte	0xff
	.byte	0xff
	.byte	0x1
	.uleb128 .LLSDACSE3298-.LLSDACSB3298
.LLSDACSB3298:
	.uleb128 .LEHB28-.LFB3298
	.uleb128 .LEHE28-.LEHB28
	.uleb128 0
	.uleb128 0
	.uleb128 .LEHB29-.LFB3298
	.uleb128 .LEHE29-.LEHB29
	.uleb128 .L1541-.LFB3298
	.uleb128 0
	.uleb128 .LEHB30-.LFB3298
	.uleb128 .LEHE30-.LEHB30
	.uleb128 0
	.uleb128 0
.LLSDACSE3298:
	.section	.text._ZN4asio6detail13epoll_reactor12fork_serviceENS_10io_service10fork_eventE,"axG",@progbits,_ZN4asio6detail13epoll_reactor12fork_serviceENS_10io_service10fork_eventE,comdat
	.size	_ZN4asio6detail13epoll_reactor12fork_serviceENS_10io_service10fork_eventE, .-_ZN4asio6detail13epoll_reactor12fork_serviceENS_10io_service10fork_eventE
	.section	.rodata._ZN4asio6detail11posix_mutexC2Ev.str1.8,"aMS",@progbits,1
	.align	3
.LC24:
	.string	"mutex"
	.section	.text._ZN4asio6detail11posix_mutexC2Ev,"axG",@progbits,_ZN4asio6detail11posix_mutexC5Ev,comdat
	.align	2
	.p2align 4,,11
	.weak	_ZN4asio6detail11posix_mutexC2Ev
	.type	_ZN4asio6detail11posix_mutexC2Ev, %function
_ZN4asio6detail11posix_mutexC2Ev:
.LFB2448:
	.cfi_startproc
	stp	x29, x30, [sp, -80]!
	.cfi_def_cfa_offset 80
	.cfi_offset 29, -80
	.cfi_offset 30, -72
	adrp	x2, :got:__stack_chk_guard
	mov	x1, 0
	mov	x29, sp
	ldr	x2, [x2, #:got_lo12:__stack_chk_guard]
	stp	x19, x20, [sp, 16]
	.cfi_offset 19, -64
	.cfi_offset 20, -56
	adrp	x20, :got:_ZGVZN4asio15system_categoryEvE8instance
	str	x21, [sp, 32]
	.cfi_offset 21, -48
	ldr	x3, [x2]
	str	x3, [sp, 72]
	mov	x3, 0
	bl	pthread_mutex_init
	mov	w19, w0
	ldr	x20, [x20, #:got_lo12:_ZGVZN4asio15system_categoryEvE8instance]
	ldar	x0, [x20]
	adrp	x21, :got:_ZZN4asio15system_categoryEvE8instance
	tbz	x0, 0, .L1610
.L1602:
	ldr	x21, [x21, #:got_lo12:_ZZN4asio15system_categoryEvE8instance]
	str	w19, [sp, 56]
	str	x21, [sp, 64]
	cbnz	w19, .L1611
	adrp	x0, :got:__stack_chk_guard
	ldr	x0, [x0, #:got_lo12:__stack_chk_guard]
	ldr	x2, [sp, 72]
	ldr	x1, [x0]
	subs	x2, x2, x1
	mov	x1, 0
	bne	.L1612
	ldp	x19, x20, [sp, 16]
	ldr	x21, [sp, 32]
	ldp	x29, x30, [sp], 80
	.cfi_remember_state
	.cfi_restore 30
	.cfi_restore 29
	.cfi_restore 21
	.cfi_restore 19
	.cfi_restore 20
	.cfi_def_cfa_offset 0
	ret
	.p2align 2,,3
.L1610:
	.cfi_restore_state
	mov	x0, x20
	adrp	x21, :got:_ZZN4asio15system_categoryEvE8instance
	bl	__cxa_guard_acquire
	cbz	w0, .L1602
	adrp	x0, :got:_ZN4asio6detail15system_categoryD1Ev
	adrp	x2, __dso_handle
	ldr	x1, [x21, #:got_lo12:_ZZN4asio15system_categoryEvE8instance]
	add	x2, x2, :lo12:__dso_handle
	ldr	x0, [x0, #:got_lo12:_ZN4asio6detail15system_categoryD1Ev]
	bl	__cxa_atexit
	mov	x0, x20
	bl	__cxa_guard_release
	b	.L1602
.L1611:
	adrp	x1, .LC24
	add	x0, sp, 56
	add	x1, x1, :lo12:.LC24
	bl	_ZN4asio6detail14do_throw_errorERKSt10error_codePKc
.L1612:
	bl	__stack_chk_fail
	.cfi_endproc
.LFE2448:
	.size	_ZN4asio6detail11posix_mutexC2Ev, .-_ZN4asio6detail11posix_mutexC2Ev
	.weak	_ZN4asio6detail11posix_mutexC1Ev
	.set	_ZN4asio6detail11posix_mutexC1Ev,_ZN4asio6detail11posix_mutexC2Ev
	.section	.rodata._ZN4asio6detail20posix_tss_ptr_createERj.str1.8,"aMS",@progbits,1
	.align	3
.LC25:
	.string	"tss"
	.section	.text._ZN4asio6detail20posix_tss_ptr_createERj,"axG",@progbits,_ZN4asio6detail20posix_tss_ptr_createERj,comdat
	.align	2
	.p2align 4,,11
	.weak	_ZN4asio6detail20posix_tss_ptr_createERj
	.type	_ZN4asio6detail20posix_tss_ptr_createERj, %function
_ZN4asio6detail20posix_tss_ptr_createERj:
.LFB2307:
	.cfi_startproc
	stp	x29, x30, [sp, -80]!
	.cfi_def_cfa_offset 80
	.cfi_offset 29, -80
	.cfi_offset 30, -72
	adrp	x2, :got:__stack_chk_guard
	mov	x1, 0
	mov	x29, sp
	ldr	x2, [x2, #:got_lo12:__stack_chk_guard]
	stp	x19, x20, [sp, 16]
	.cfi_offset 19, -64
	.cfi_offset 20, -56
	adrp	x20, :got:_ZGVZN4asio15system_categoryEvE8instance
	str	x21, [sp, 32]
	.cfi_offset 21, -48
	ldr	x3, [x2]
	str	x3, [sp, 72]
	mov	x3, 0
	bl	pthread_key_create
	mov	w19, w0
	ldr	x20, [x20, #:got_lo12:_ZGVZN4asio15system_categoryEvE8instance]
	ldar	x0, [x20]
	adrp	x21, :got:_ZZN4asio15system_categoryEvE8instance
	tbz	x0, 0, .L1623
.L1615:
	ldr	x21, [x21, #:got_lo12:_ZZN4asio15system_categoryEvE8instance]
	str	w19, [sp, 56]
	str	x21, [sp, 64]
	cbnz	w19, .L1624
	adrp	x0, :got:__stack_chk_guard
	ldr	x0, [x0, #:got_lo12:__stack_chk_guard]
	ldr	x2, [sp, 72]
	ldr	x1, [x0]
	subs	x2, x2, x1
	mov	x1, 0
	bne	.L1625
	ldp	x19, x20, [sp, 16]
	ldr	x21, [sp, 32]
	ldp	x29, x30, [sp], 80
	.cfi_remember_state
	.cfi_restore 30
	.cfi_restore 29
	.cfi_restore 21
	.cfi_restore 19
	.cfi_restore 20
	.cfi_def_cfa_offset 0
	ret
	.p2align 2,,3
.L1623:
	.cfi_restore_state
	mov	x0, x20
	adrp	x21, :got:_ZZN4asio15system_categoryEvE8instance
	bl	__cxa_guard_acquire
	cbz	w0, .L1615
	adrp	x0, :got:_ZN4asio6detail15system_categoryD1Ev
	adrp	x2, __dso_handle
	ldr	x1, [x21, #:got_lo12:_ZZN4asio15system_categoryEvE8instance]
	add	x2, x2, :lo12:__dso_handle
	ldr	x0, [x0, #:got_lo12:_ZN4asio6detail15system_categoryD1Ev]
	bl	__cxa_atexit
	mov	x0, x20
	bl	__cxa_guard_release
	b	.L1615
.L1624:
	adrp	x1, .LC25
	add	x0, sp, 56
	add	x1, x1, :lo12:.LC25
	bl	_ZN4asio6detail14do_throw_errorERKSt10error_codePKc
.L1625:
	bl	__stack_chk_fail
	.cfi_endproc
.LFE2307:
	.size	_ZN4asio6detail20posix_tss_ptr_createERj, .-_ZN4asio6detail20posix_tss_ptr_createERj
	.section	.rodata._ZN4asio2ip16resolver_serviceINS0_3tcpEE12fork_serviceENS_10io_service10fork_eventE.str1.8,"aMS",@progbits,1
	.align	3
.LC26:
	.string	"thread"
	.section	.text._ZN4asio2ip16resolver_serviceINS0_3tcpEE12fork_serviceENS_10io_service10fork_eventE,"axG",@progbits,_ZN4asio2ip16resolver_serviceINS0_3tcpEE12fork_serviceENS_10io_service10fork_eventE,comdat
	.align	2
	.p2align 4,,11
	.weak	_ZN4asio2ip16resolver_serviceINS0_3tcpEE12fork_serviceENS_10io_service10fork_eventE
	.type	_ZN4asio2ip16resolver_serviceINS0_3tcpEE12fork_serviceENS_10io_service10fork_eventE, %function
_ZN4asio2ip16resolver_serviceINS0_3tcpEE12fork_serviceENS_10io_service10fork_eventE:
.LFB10289:
	.cfi_startproc
	.cfi_personality 0x9b,DW.ref.__gxx_personality_v0
	.cfi_lsda 0x1b,.LLSDA10289
	stp	x29, x30, [sp, -80]!
	.cfi_def_cfa_offset 80
	.cfi_offset 29, -80
	.cfi_offset 30, -72
	adrp	x2, :got:__stack_chk_guard
	mov	x29, sp
	ldr	x2, [x2, #:got_lo12:__stack_chk_guard]
	stp	x19, x20, [sp, 16]
	.cfi_offset 19, -64
	.cfi_offset 20, -56
	mov	x19, x0
	ldr	x0, [x0, 120]
	ldr	x3, [x2]
	str	x3, [sp, 72]
	mov	x3, 0
	cbz	x0, .L1626
	ldr	x0, [x19, 96]
	stp	x21, x22, [sp, 32]
	.cfi_offset 22, -40
	.cfi_offset 21, -48
	ldr	x20, [x0, 8]
	add	x21, x20, 48
	mov	x0, x21
	cbz	w1, .L1646
	bl	pthread_mutex_lock
	strb	wzr, [x20, 216]
	mov	x0, x21
	bl	pthread_mutex_unlock
	mov	x0, 16
	ldr	x22, [x19, 96]
.LEHB31:
	bl	_Znwm
.LEHE31:
	mov	x21, x0
	mov	x0, 16
	strb	wzr, [x21, 8]
.LEHB32:
	bl	_Znwm
.LEHE32:
	adrp	x4, :got:_ZTVN4asio6detail12posix_thread4funcINS0_21resolver_service_base22work_io_service_runnerEEE
	adrp	x2, :got:asio_detail_posix_thread_function
	mov	x20, x0
	mov	x3, x0
	ldr	x4, [x4, #:got_lo12:_ZTVN4asio6detail12posix_thread4funcINS0_21resolver_service_base22work_io_service_runnerEEE]
	mov	x0, x21
	ldr	x2, [x2, #:got_lo12:asio_detail_posix_thread_function]
	add	x4, x4, 16
	stp	x4, x22, [x20]
	mov	x1, 0
	bl	pthread_create
	mov	w22, w0
	cbnz	w0, .L1647
	ldr	x20, [x19, 120]
	cbz	x20, .L1633
	ldrb	w0, [x20, 8]
	cbz	w0, .L1648
.L1634:
	mov	x0, x20
	mov	x1, 16
	bl	_ZdlPvm
.L1633:
	str	x21, [x19, 120]
	ldp	x21, x22, [sp, 32]
	.cfi_restore 22
	.cfi_restore 21
.L1626:
	adrp	x0, :got:__stack_chk_guard
	ldr	x0, [x0, #:got_lo12:__stack_chk_guard]
	ldr	x2, [sp, 72]
	ldr	x1, [x0]
	subs	x2, x2, x1
	mov	x1, 0
	bne	.L1649
	ldp	x19, x20, [sp, 16]
	ldp	x29, x30, [sp], 80
	.cfi_restore 30
	.cfi_restore 29
	.cfi_restore 19
	.cfi_restore 20
	.cfi_def_cfa_offset 0
	ret
	.p2align 2,,3
.L1646:
	.cfi_def_cfa_offset 80
	.cfi_offset 19, -64
	.cfi_offset 20, -56
	.cfi_offset 21, -48
	.cfi_offset 22, -40
	.cfi_offset 29, -80
	.cfi_offset 30, -72
	bl	pthread_mutex_lock
	mov	w22, 1
	ldr	x1, [x20, 144]
	strb	w22, [x20, 216]
	add	x0, x20, 96
	orr	x1, x1, 1
	str	x1, [x0, 48]
	bl	pthread_cond_broadcast
	ldrb	w0, [x20, 184]
	cbnz	w0, .L1630
	ldr	x0, [x20, 152]
	cbz	x0, .L1630
	mov	w2, 9
	strb	w22, [x20, 184]
	add	x1, x0, 96
	movk	w2, 0x8000, lsl 16
	str	w2, [sp, 56]
	add	x3, sp, 56
	str	x1, [sp, 64]
	mov	w1, 3
	ldr	w2, [x0, 96]
	ldr	w0, [x0, 104]
	bl	epoll_ctl
.L1630:
	mov	x0, x21
	bl	pthread_mutex_unlock
	ldr	x19, [x19, 120]
	ldrb	w0, [x19, 8]
	cbz	w0, .L1650
	ldp	x21, x22, [sp, 32]
	.cfi_remember_state
	.cfi_restore 22
	.cfi_restore 21
	b	.L1626
	.p2align 2,,3
.L1648:
	.cfi_restore_state
	ldr	x0, [x20]
	bl	pthread_detach
	b	.L1634
	.p2align 2,,3
.L1650:
	ldr	x0, [x19]
	mov	x1, 0
.LEHB33:
	bl	pthread_join
.LEHE33:
	mov	w0, 1
	strb	w0, [x19, 8]
	ldp	x21, x22, [sp, 32]
	.cfi_restore 22
	.cfi_restore 21
	b	.L1626
.L1649:
	stp	x21, x22, [sp, 32]
	.cfi_offset 22, -40
	.cfi_offset 21, -48
	bl	__stack_chk_fail
.L1647:
	mov	x0, x20
	bl	_ZN4asio6detail12posix_thread4funcINS0_21resolver_service_base22work_io_service_runnerEED0Ev
	bl	_ZN4asio15system_categoryEv
	mov	x2, x0
	adrp	x1, .LC26
	add	x0, sp, 56
	add	x1, x1, :lo12:.LC26
	str	w22, [sp, 56]
	str	x2, [sp, 64]
.LEHB34:
	bl	_ZN4asio6detail14do_throw_errorERKSt10error_codePKc
.LEHE34:
.L1637:
	mov	x1, 16
	mov	x19, x0
	mov	x0, x21
	bl	_ZdlPvm
	mov	x0, x19
.LEHB35:
	bl	_Unwind_Resume
.LEHE35:
	.cfi_endproc
.LFE10289:
	.section	.gcc_except_table._ZN4asio2ip16resolver_serviceINS0_3tcpEE12fork_serviceENS_10io_service10fork_eventE,"aG",@progbits,_ZN4asio2ip16resolver_serviceINS0_3tcpEE12fork_serviceENS_10io_service10fork_eventE,comdat
.LLSDA10289:
	.byte	0xff
	.byte	0xff
	.byte	0x1
	.uleb128 .LLSDACSE10289-.LLSDACSB10289
.LLSDACSB10289:
	.uleb128 .LEHB31-.LFB10289
	.uleb128 .LEHE31-.LEHB31
	.uleb128 0
	.uleb128 0
	.uleb128 .LEHB32-.LFB10289
	.uleb128 .LEHE32-.LEHB32
	.uleb128 .L1637-.LFB10289
	.uleb128 0
	.uleb128 .LEHB33-.LFB10289
	.uleb128 .LEHE33-.LEHB33
	.uleb128 0
	.uleb128 0
	.uleb128 .LEHB34-.LFB10289
	.uleb128 .LEHE34-.LEHB34
	.uleb128 .L1637-.LFB10289
	.uleb128 0
	.uleb128 .LEHB35-.LFB10289
	.uleb128 .LEHE35-.LEHB35
	.uleb128 0
	.uleb128 0
.LLSDACSE10289:
	.section	.text._ZN4asio2ip16resolver_serviceINS0_3tcpEE12fork_serviceENS_10io_service10fork_eventE,"axG",@progbits,_ZN4asio2ip16resolver_serviceINS0_3tcpEE12fork_serviceENS_10io_service10fork_eventE,comdat
	.size	_ZN4asio2ip16resolver_serviceINS0_3tcpEE12fork_serviceENS_10io_service10fork_eventE, .-_ZN4asio2ip16resolver_serviceINS0_3tcpEE12fork_serviceENS_10io_service10fork_eventE
	.section	.text._ZN4asio6detail11object_poolINS0_13epoll_reactor16descriptor_stateEED2Ev,"axG",@progbits,_ZN4asio6detail11object_poolINS0_13epoll_reactor16descriptor_stateEED5Ev,comdat
	.align	2
	.p2align 4,,11
	.weak	_ZN4asio6detail11object_poolINS0_13epoll_reactor16descriptor_stateEED2Ev
	.type	_ZN4asio6detail11object_poolINS0_13epoll_reactor16descriptor_stateEED2Ev, %function
_ZN4asio6detail11object_poolINS0_13epoll_reactor16descriptor_stateEED2Ev:
.LFB7466:
	.cfi_startproc
	.cfi_personality 0x9b,DW.ref.__gxx_personality_v0
	.cfi_lsda 0x1b,.LLSDA7466
	stp	x29, x30, [sp, -128]!
	.cfi_def_cfa_offset 128
	.cfi_offset 29, -128
	.cfi_offset 30, -120
	adrp	x1, :got:__stack_chk_guard
	mov	x29, sp
	ldr	x1, [x1, #:got_lo12:__stack_chk_guard]
	stp	x19, x20, [sp, 16]
	stp	x21, x22, [sp, 32]
	stp	x23, x24, [sp, 48]
	.cfi_offset 19, -112
	.cfi_offset 20, -104
	.cfi_offset 21, -96
	.cfi_offset 22, -88
	.cfi_offset 23, -80
	.cfi_offset 24, -72
	ldr	x23, [x0]
	str	x25, [sp, 64]
	.cfi_offset 25, -64
	mov	x25, x0
	ldr	x0, [x1]
	str	x0, [sp, 120]
	mov	x0, 0
	cbz	x23, .L1652
	add	x21, sp, 104
	.p2align 3,,7
.L1658:
	mov	x22, x23
	add	x19, x23, 136
	add	x24, x23, 88
	ldr	x23, [x23, 24]
.L1657:
	ldr	x1, [x19]
	str	x1, [sp, 88]
	cbz	x1, .L1653
	bl	_ZNSt3_V215system_categoryEv
	mov	x20, x0
	ldr	x1, [sp, 88]
	b	.L1656
	.p2align 2,,3
.L1654:
	ldr	x4, [x1, 8]
	str	xzr, [x1]
	str	wzr, [sp, 104]
	mov	x2, x21
	str	x20, [sp, 112]
	mov	x3, 0
	mov	x0, 0
	blr	x4
	ldr	x1, [x19]
	cbz	x1, .L1653
.L1656:
	ldr	x2, [x1]
	str	x2, [x19]
	cbnz	x2, .L1654
	ldr	x4, [x1, 8]
	str	xzr, [x19, 8]
	str	xzr, [x1]
	mov	x2, x21
	str	wzr, [sp, 104]
	mov	x3, 0
	str	x20, [sp, 112]
	mov	x0, 0
	blr	x4
	ldr	x1, [x19]
	cbnz	x1, .L1656
.L1653:
	sub	x19, x19, #16
	cmp	x19, x24
	bne	.L1657
	add	x0, x22, 40
	bl	pthread_mutex_destroy
	mov	x0, x22
	mov	x1, 160
	bl	_ZdlPvm
	cbnz	x23, .L1658
.L1652:
	ldr	x23, [x25, 8]
	cbz	x23, .L1651
	add	x21, sp, 104
	.p2align 3,,7
.L1665:
	mov	x22, x23
	add	x19, x23, 136
	add	x24, x23, 88
	ldr	x23, [x23, 24]
.L1664:
	ldr	x1, [x19]
	str	x1, [sp, 88]
	cbz	x1, .L1660
	bl	_ZNSt3_V215system_categoryEv
	mov	x20, x0
	ldr	x1, [sp, 88]
	b	.L1663
	.p2align 2,,3
.L1661:
	ldr	x4, [x1, 8]
	str	xzr, [x1]
	str	wzr, [sp, 104]
	mov	x2, x21
	str	x20, [sp, 112]
	mov	x3, 0
	mov	x0, 0
	blr	x4
	ldr	x1, [x19]
	cbz	x1, .L1660
.L1663:
	ldr	x2, [x1]
	str	x2, [x19]
	cbnz	x2, .L1661
	ldr	x4, [x1, 8]
	str	xzr, [x19, 8]
	str	xzr, [x1]
	mov	x2, x21
	str	wzr, [sp, 104]
	mov	x3, 0
	str	x20, [sp, 112]
	mov	x0, 0
	blr	x4
	ldr	x1, [x19]
	cbnz	x1, .L1663
.L1660:
	sub	x19, x19, #16
	cmp	x19, x24
	bne	.L1664
	add	x0, x22, 40
	bl	pthread_mutex_destroy
	mov	x0, x22
	mov	x1, 160
	bl	_ZdlPvm
	cbnz	x23, .L1665
.L1651:
	adrp	x0, :got:__stack_chk_guard
	ldr	x0, [x0, #:got_lo12:__stack_chk_guard]
	ldr	x2, [sp, 120]
	ldr	x1, [x0]
	subs	x2, x2, x1
	mov	x1, 0
	bne	.L1700
	ldp	x19, x20, [sp, 16]
	ldp	x21, x22, [sp, 32]
	ldp	x23, x24, [sp, 48]
	ldr	x25, [sp, 64]
	ldp	x29, x30, [sp], 128
	.cfi_remember_state
	.cfi_restore 30
	.cfi_restore 29
	.cfi_restore 25
	.cfi_restore 23
	.cfi_restore 24
	.cfi_restore 21
	.cfi_restore 22
	.cfi_restore 19
	.cfi_restore 20
	.cfi_def_cfa_offset 0
	ret
.L1700:
	.cfi_restore_state
	bl	__stack_chk_fail
	.cfi_endproc
.LFE7466:
	.section	.gcc_except_table._ZN4asio6detail11object_poolINS0_13epoll_reactor16descriptor_stateEED2Ev,"aG",@progbits,_ZN4asio6detail11object_poolINS0_13epoll_reactor16descriptor_stateEED5Ev,comdat
.LLSDA7466:
	.byte	0xff
	.byte	0xff
	.byte	0x1
	.uleb128 .LLSDACSE7466-.LLSDACSB7466
.LLSDACSB7466:
.LLSDACSE7466:
	.section	.text._ZN4asio6detail11object_poolINS0_13epoll_reactor16descriptor_stateEED2Ev,"axG",@progbits,_ZN4asio6detail11object_poolINS0_13epoll_reactor16descriptor_stateEED5Ev,comdat
	.size	_ZN4asio6detail11object_poolINS0_13epoll_reactor16descriptor_stateEED2Ev, .-_ZN4asio6detail11object_poolINS0_13epoll_reactor16descriptor_stateEED2Ev
	.weak	_ZN4asio6detail11object_poolINS0_13epoll_reactor16descriptor_stateEED1Ev
	.set	_ZN4asio6detail11object_poolINS0_13epoll_reactor16descriptor_stateEED1Ev,_ZN4asio6detail11object_poolINS0_13epoll_reactor16descriptor_stateEED2Ev
	.section	.text._ZN4asio6detail16service_registry6createINS0_13epoll_reactorEEEPNS_10io_service7serviceERS4_,"axG",@progbits,_ZN4asio6detail16service_registry6createINS0_13epoll_reactorEEEPNS_10io_service7serviceERS4_,comdat
	.align	2
	.p2align 4,,11
	.weak	_ZN4asio6detail16service_registry6createINS0_13epoll_reactorEEEPNS_10io_service7serviceERS4_
	.type	_ZN4asio6detail16service_registry6createINS0_13epoll_reactorEEEPNS_10io_service7serviceERS4_, %function
_ZN4asio6detail16service_registry6createINS0_13epoll_reactorEEEPNS_10io_service7serviceERS4_:
.LFB8553:
	.cfi_startproc
	.cfi_personality 0x9b,DW.ref.__gxx_personality_v0
	.cfi_lsda 0x1b,.LLSDA8553
	stp	x29, x30, [sp, -112]!
	.cfi_def_cfa_offset 112
	.cfi_offset 29, -112
	.cfi_offset 30, -104
	adrp	x1, :got:__stack_chk_guard
	mov	x29, sp
	ldr	x1, [x1, #:got_lo12:__stack_chk_guard]
	stp	x19, x20, [sp, 16]
	.cfi_offset 19, -96
	.cfi_offset 20, -88
	mov	x20, x0
	stp	x21, x22, [sp, 32]
	mov	x0, 192
	stp	x23, x24, [sp, 48]
	.cfi_offset 21, -80
	.cfi_offset 22, -72
	.cfi_offset 23, -64
	.cfi_offset 24, -56
	ldr	x2, [x1]
	str	x2, [sp, 104]
	mov	x2, 0
.LEHB36:
	bl	_Znwm
.LEHE36:
	mov	x19, x0
	adrp	x2, :got:_ZTVN4asio6detail13epoll_reactorE
	mov	x1, 0
	ldr	x3, [x20, 8]
	add	x21, x0, 48
	ldr	x2, [x2, #:got_lo12:_ZTVN4asio6detail13epoll_reactorE]
	mov	x0, x21
	stp	xzr, x20, [x19, 16]
	add	x2, x2, 16
	stp	x2, xzr, [x19]
	stp	xzr, x3, [x19, 32]
	bl	pthread_mutex_init
	mov	w20, w0
	bl	_ZN4asio15system_categoryEv
	str	w20, [sp, 80]
	str	x0, [sp, 88]
	cbnz	w20, .L1760
	mov	w1, 2048
	mov	w0, 0
	movk	w1, 0x8, lsl 16
	bl	eventfd
	dup	v0.2s, w0
	add	x22, x19, 96
	str	d0, [x19, 96]
	cmn	w0, #1
	beq	.L1761
.L1704:
	mov	w0, 524288
	bl	epoll_create1
	mov	w20, w0
	cmn	w0, #1
	beq	.L1762
.L1710:
	mov	w1, 524288
	mov	w0, 1
	str	w20, [x19, 104]
	bl	timerfd_create
	mov	w20, w0
	cmn	w0, #1
	beq	.L1763
.L1714:
	mov	x1, 0
	add	x23, x19, 128
	mov	x0, x23
	str	w20, [x19, 108]
	str	xzr, [x19, 112]
	strb	wzr, [x19, 120]
	bl	pthread_mutex_init
	mov	w20, w0
	bl	_ZN4asio15system_categoryEv
	str	w20, [sp, 80]
	str	x0, [sp, 88]
	cbnz	w20, .L1764
	ldr	w2, [x19, 96]
	mov	w4, 9
	ldr	w0, [x19, 104]
	movk	w4, 0x8000, lsl 16
	add	x20, sp, 80
	mov	w1, 1
	mov	x3, x20
	str	w4, [sp, 80]
	str	x22, [sp, 88]
	add	x24, x19, 176
	stp	xzr, xzr, [x19, 176]
	bl	epoll_ctl
	ldr	w0, [x22, 4]
	mov	x3, 1
	add	x1, sp, 72
	mov	x2, 8
	str	x3, [sp, 72]
.LEHB37:
	bl	write
.LEHE37:
	ldr	w2, [x19, 108]
	cmn	w2, #1
	beq	.L1701
	ldr	w0, [x19, 104]
	add	x4, x19, 108
	mov	w5, 9
	mov	x3, x20
	mov	w1, 1
	str	w5, [sp, 80]
	str	x4, [sp, 88]
	bl	epoll_ctl
.L1701:
	adrp	x0, :got:__stack_chk_guard
	ldr	x0, [x0, #:got_lo12:__stack_chk_guard]
	ldr	x2, [sp, 104]
	ldr	x1, [x0]
	subs	x2, x2, x1
	mov	x1, 0
	bne	.L1765
	mov	x0, x19
	ldp	x19, x20, [sp, 16]
	ldp	x21, x22, [sp, 32]
	ldp	x23, x24, [sp, 48]
	ldp	x29, x30, [sp], 112
	.cfi_remember_state
	.cfi_restore 30
	.cfi_restore 29
	.cfi_restore 23
	.cfi_restore 24
	.cfi_restore 21
	.cfi_restore 22
	.cfi_restore 19
	.cfi_restore 20
	.cfi_def_cfa_offset 0
	ret
	.p2align 2,,3
.L1762:
	.cfi_restore_state
	bl	__errno_location
	ldr	w23, [x0]
	mov	x24, x0
	sub	w0, w23, #22
	tst	w0, -17
	bne	.L1711
	mov	w0, 20000
	bl	epoll_create
	mov	w23, w0
	cmn	w0, #1
	beq	.L1766
	mov	w2, 1
	mov	w1, 2
.LEHB38:
	bl	fcntl
	mov	w20, w23
	mov	w1, 524288
	mov	w0, 1
	str	w20, [x19, 104]
	bl	timerfd_create
	mov	w20, w0
	cmn	w0, #1
	bne	.L1714
.L1763:
	bl	__errno_location
	ldr	w0, [x0]
	cmp	w0, 22
	bne	.L1714
	mov	w1, 0
	mov	w0, 1
	bl	timerfd_create
	mov	w23, w0
	cmn	w0, #1
	beq	.L1714
	mov	w2, 1
	mov	w1, 2
	bl	fcntl
.LEHE38:
	mov	w20, w23
	b	.L1714
	.p2align 2,,3
.L1761:
	bl	__errno_location
	mov	x20, x0
	ldr	w0, [x0]
	cmp	w0, 22
	beq	.L1767
.L1706:
	add	x0, sp, 96
	bl	pipe
	cbnz	w0, .L1768
	ldr	w0, [sp, 96]
	mov	w2, 2048
	mov	w1, 4
	str	w0, [x19, 96]
.LEHB39:
	bl	fcntl
	ldr	w0, [x19, 96]
	mov	w2, 1
	mov	w1, 2
	bl	fcntl
	ldr	w0, [sp, 100]
	mov	w2, 2048
	str	w0, [x22, 4]
	mov	w1, 4
	bl	fcntl
	ldr	w0, [x22, 4]
	mov	w2, 1
	mov	w1, 2
	bl	fcntl
.LEHE39:
	b	.L1704
.L1766:
	ldr	w23, [x24]
.L1711:
	bl	_ZN4asio15system_categoryEv
	str	w23, [sp, 80]
	str	x0, [sp, 88]
	cbz	w23, .L1710
	adrp	x1, .LC21
	add	x0, sp, 80
	add	x1, x1, :lo12:.LC21
.LEHB40:
	bl	_ZN4asio6detail14do_throw_errorERKSt10error_codePKc
.LEHE40:
	.p2align 2,,3
.L1768:
	ldr	w20, [x20]
	bl	_ZN4asio15system_categoryEv
	str	w20, [sp, 80]
	str	x0, [sp, 88]
	cbz	w20, .L1704
	adrp	x1, .LC22
	add	x0, sp, 80
	add	x1, x1, :lo12:.LC22
.LEHB41:
	bl	_ZN4asio6detail14do_throw_errorERKSt10error_codePKc
	.p2align 2,,3
.L1767:
	mov	w1, 0
	mov	w0, 0
	bl	eventfd
	dup	v0.2s, w0
	str	d0, [x19, 96]
	cmn	w0, #1
	beq	.L1706
	mov	w2, 2048
	mov	w1, 4
	bl	fcntl
	ldr	w0, [x19, 96]
	mov	w2, 1
	mov	w1, 2
	bl	fcntl
.LEHE41:
	ldr	w0, [x19, 96]
	cmn	w0, #1
	bne	.L1704
	b	.L1706
.L1764:
	adrp	x1, .LC24
	add	x0, sp, 80
	add	x1, x1, :lo12:.LC24
.LEHB42:
	bl	_ZN4asio6detail14do_throw_errorERKSt10error_codePKc
.LEHE42:
.L1765:
	bl	__stack_chk_fail
.L1760:
	adrp	x1, .LC24
	add	x0, sp, 80
	add	x1, x1, :lo12:.LC24
.LEHB43:
	bl	_ZN4asio6detail14do_throw_errorERKSt10error_codePKc
.LEHE43:
.L1731:
	mov	x20, x0
	b	.L1720
.L1732:
	mov	x20, x0
	mov	x0, x24
	bl	_ZN4asio6detail11object_poolINS0_13epoll_reactor16descriptor_stateEED1Ev
	mov	x0, x23
	bl	pthread_mutex_destroy
.L1720:
	ldr	w1, [x22, 4]
	ldr	w0, [x19, 96]
	cmn	w1, #1
	beq	.L1721
	cmp	w0, w1
	beq	.L1721
	mov	w0, w1
	bl	close
	ldr	w0, [x19, 96]
.L1721:
	cmn	w0, #1
	bne	.L1769
.L1723:
	mov	x0, x21
	bl	pthread_mutex_destroy
.L1724:
	mov	x1, 192
	mov	x0, x19
	bl	_ZdlPvm
	mov	x0, x20
.LEHB44:
	bl	_Unwind_Resume
.LEHE44:
.L1730:
	mov	x20, x0
	b	.L1723
.L1729:
	mov	x20, x0
	b	.L1724
.L1769:
	bl	close
	b	.L1723
	.cfi_endproc
.LFE8553:
	.section	.gcc_except_table._ZN4asio6detail16service_registry6createINS0_13epoll_reactorEEEPNS_10io_service7serviceERS4_,"aG",@progbits,_ZN4asio6detail16service_registry6createINS0_13epoll_reactorEEEPNS_10io_service7serviceERS4_,comdat
.LLSDA8553:
	.byte	0xff
	.byte	0xff
	.byte	0x1
	.uleb128 .LLSDACSE8553-.LLSDACSB8553
.LLSDACSB8553:
	.uleb128 .LEHB36-.LFB8553
	.uleb128 .LEHE36-.LEHB36
	.uleb128 0
	.uleb128 0
	.uleb128 .LEHB37-.LFB8553
	.uleb128 .LEHE37-.LEHB37
	.uleb128 .L1732-.LFB8553
	.uleb128 0
	.uleb128 .LEHB38-.LFB8553
	.uleb128 .LEHE38-.LEHB38
	.uleb128 .L1731-.LFB8553
	.uleb128 0
	.uleb128 .LEHB39-.LFB8553
	.uleb128 .LEHE39-.LEHB39
	.uleb128 .L1730-.LFB8553
	.uleb128 0
	.uleb128 .LEHB40-.LFB8553
	.uleb128 .LEHE40-.LEHB40
	.uleb128 .L1731-.LFB8553
	.uleb128 0
	.uleb128 .LEHB41-.LFB8553
	.uleb128 .LEHE41-.LEHB41
	.uleb128 .L1730-.LFB8553
	.uleb128 0
	.uleb128 .LEHB42-.LFB8553
	.uleb128 .LEHE42-.LEHB42
	.uleb128 .L1731-.LFB8553
	.uleb128 0
	.uleb128 .LEHB43-.LFB8553
	.uleb128 .LEHE43-.LEHB43
	.uleb128 .L1729-.LFB8553
	.uleb128 0
	.uleb128 .LEHB44-.LFB8553
	.uleb128 .LEHE44-.LEHB44
	.uleb128 0
	.uleb128 0
.LLSDACSE8553:
	.section	.text._ZN4asio6detail16service_registry6createINS0_13epoll_reactorEEEPNS_10io_service7serviceERS4_,"axG",@progbits,_ZN4asio6detail16service_registry6createINS0_13epoll_reactorEEEPNS_10io_service7serviceERS4_,comdat
	.size	_ZN4asio6detail16service_registry6createINS0_13epoll_reactorEEEPNS_10io_service7serviceERS4_, .-_ZN4asio6detail16service_registry6createINS0_13epoll_reactorEEEPNS_10io_service7serviceERS4_
	.section	.text._ZN4asio6detail10scoped_ptrINS_10io_serviceEED2Ev,"axG",@progbits,_ZN4asio6detail10scoped_ptrINS_10io_serviceEED5Ev,comdat
	.align	2
	.p2align 4,,11
	.weak	_ZN4asio6detail10scoped_ptrINS_10io_serviceEED2Ev
	.type	_ZN4asio6detail10scoped_ptrINS_10io_serviceEED2Ev, %function
_ZN4asio6detail10scoped_ptrINS_10io_serviceEED2Ev:
.LFB7653:
	.cfi_startproc
	.cfi_personality 0x9b,DW.ref.__gxx_personality_v0
	.cfi_lsda 0x1b,.LLSDA7653
	stp	x29, x30, [sp, -48]!
	.cfi_def_cfa_offset 48
	.cfi_offset 29, -48
	.cfi_offset 30, -40
	mov	x29, sp
	str	x21, [sp, 32]
	.cfi_offset 21, -16
	ldr	x21, [x0]
	cbz	x21, .L1770
	stp	x19, x20, [sp, 16]
	.cfi_offset 20, -24
	.cfi_offset 19, -32
	ldr	x20, [x21]
	cbz	x20, .L1772
	ldr	x19, [x20, 64]
	cbz	x19, .L1773
	.p2align 3,,7
.L1774:
	ldr	x1, [x19]
	mov	x0, x19
	ldr	x1, [x1, 16]
	blr	x1
	ldr	x19, [x19, 32]
	cbnz	x19, .L1774
	ldr	x19, [x20, 64]
	cbz	x19, .L1773
	.p2align 3,,7
.L1775:
	ldr	x1, [x19]
	mov	x0, x19
	ldr	x19, [x19, 32]
	ldr	x1, [x1, 8]
	blr	x1
	str	x19, [x20, 64]
	cbnz	x19, .L1775
.L1773:
	add	x0, x20, 8
	bl	pthread_mutex_destroy
	mov	x0, x20
	mov	x1, 72
	bl	_ZdlPvm
.L1772:
	mov	x0, x21
	mov	x1, 16
	ldp	x19, x20, [sp, 16]
	.cfi_restore 20
	.cfi_restore 19
	ldr	x21, [sp, 32]
	ldp	x29, x30, [sp], 48
	.cfi_restore 30
	.cfi_restore 29
	.cfi_restore 21
	.cfi_def_cfa_offset 0
	b	_ZdlPvm
	.p2align 2,,3
.L1770:
	.cfi_def_cfa_offset 48
	.cfi_offset 21, -16
	.cfi_offset 29, -48
	.cfi_offset 30, -40
	ldr	x21, [sp, 32]
	ldp	x29, x30, [sp], 48
	.cfi_restore 30
	.cfi_restore 29
	.cfi_restore 21
	.cfi_def_cfa_offset 0
	ret
	.cfi_endproc
.LFE7653:
	.section	.gcc_except_table._ZN4asio6detail10scoped_ptrINS_10io_serviceEED2Ev,"aG",@progbits,_ZN4asio6detail10scoped_ptrINS_10io_serviceEED5Ev,comdat
.LLSDA7653:
	.byte	0xff
	.byte	0xff
	.byte	0x1
	.uleb128 .LLSDACSE7653-.LLSDACSB7653
.LLSDACSB7653:
.LLSDACSE7653:
	.section	.text._ZN4asio6detail10scoped_ptrINS_10io_serviceEED2Ev,"axG",@progbits,_ZN4asio6detail10scoped_ptrINS_10io_serviceEED5Ev,comdat
	.size	_ZN4asio6detail10scoped_ptrINS_10io_serviceEED2Ev, .-_ZN4asio6detail10scoped_ptrINS_10io_serviceEED2Ev
	.weak	_ZN4asio6detail10scoped_ptrINS_10io_serviceEED1Ev
	.set	_ZN4asio6detail10scoped_ptrINS_10io_serviceEED1Ev,_ZN4asio6detail10scoped_ptrINS_10io_serviceEED2Ev
	.section	.text._ZN4asio6detail10call_stackINS0_14strand_service11strand_implEhE8containsEPS3_,"axG",@progbits,_ZN4asio6detail10call_stackINS0_14strand_service11strand_implEhE8containsEPS3_,comdat
	.align	2
	.p2align 4,,11
	.weak	_ZN4asio6detail10call_stackINS0_14strand_service11strand_implEhE8containsEPS3_
	.type	_ZN4asio6detail10call_stackINS0_14strand_service11strand_implEhE8containsEPS3_, %function
_ZN4asio6detail10call_stackINS0_14strand_service11strand_implEhE8containsEPS3_:
.LFB7702:
	.cfi_startproc
	stp	x29, x30, [sp, -32]!
	.cfi_def_cfa_offset 32
	.cfi_offset 29, -32
	.cfi_offset 30, -24
	adrp	x1, :got:_ZN4asio6detail10call_stackINS0_14strand_service11strand_implEhE4top_E
	mov	x29, sp
	ldr	x1, [x1, #:got_lo12:_ZN4asio6detail10call_stackINS0_14strand_service11strand_implEhE4top_E]
	str	x19, [sp, 16]
	.cfi_offset 19, -16
	mov	x19, x0
	ldr	w0, [x1]
	bl	pthread_getspecific
	cbnz	x0, .L1791
	b	.L1788
	.p2align 2,,3
.L1790:
	ldr	x0, [x0, 16]
	cbz	x0, .L1788
.L1791:
	ldr	x1, [x0]
	cmp	x1, x19
	bne	.L1790
	ldr	x0, [x0, 8]
.L1788:
	ldr	x19, [sp, 16]
	ldp	x29, x30, [sp], 32
	.cfi_restore 30
	.cfi_restore 29
	.cfi_restore 19
	.cfi_def_cfa_offset 0
	ret
	.cfi_endproc
.LFE7702:
	.size	_ZN4asio6detail10call_stackINS0_14strand_service11strand_implEhE8containsEPS3_, .-_ZN4asio6detail10call_stackINS0_14strand_service11strand_implEhE8containsEPS3_
	.global	__aarch64_ldadd4_acq_rel
	.section	.text._ZNSt14__shared_countILN9__gnu_cxx12_Lock_policyE2EEC2ERKS2_,"axG",@progbits,_ZNSt14__shared_countILN9__gnu_cxx12_Lock_policyE2EEC5ERKS2_,comdat
	.align	2
	.p2align 4,,11
	.weak	_ZNSt14__shared_countILN9__gnu_cxx12_Lock_policyE2EEC2ERKS2_
	.type	_ZNSt14__shared_countILN9__gnu_cxx12_Lock_policyE2EEC2ERKS2_, %function
_ZNSt14__shared_countILN9__gnu_cxx12_Lock_policyE2EEC2ERKS2_:
.LFB7932:
	.cfi_startproc
	ldr	x1, [x1]
	str	x1, [x0]
	cbz	x1, .L1804
	adrp	x0, :got:__libc_single_threaded
	ldr	x0, [x0, #:got_lo12:__libc_single_threaded]
	ldrb	w0, [x0]
	cbz	w0, .L1799
	ldr	w0, [x1, 8]
	add	w0, w0, 1
	str	w0, [x1, 8]
	ret
	.p2align 2,,3
.L1804:
	ret
	.p2align 2,,3
.L1799:
	stp	x29, x30, [sp, -16]!
	.cfi_def_cfa_offset 16
	.cfi_offset 29, -16
	.cfi_offset 30, -8
	add	x1, x1, 8
	mov	w0, 1
	mov	x29, sp
	bl	__aarch64_ldadd4_acq_rel
	ldp	x29, x30, [sp], 16
	.cfi_restore 30
	.cfi_restore 29
	.cfi_def_cfa_offset 0
	ret
	.cfi_endproc
.LFE7932:
	.size	_ZNSt14__shared_countILN9__gnu_cxx12_Lock_policyE2EEC2ERKS2_, .-_ZNSt14__shared_countILN9__gnu_cxx12_Lock_policyE2EEC2ERKS2_
	.weak	_ZNSt14__shared_countILN9__gnu_cxx12_Lock_policyE2EEC1ERKS2_
	.set	_ZNSt14__shared_countILN9__gnu_cxx12_Lock_policyE2EEC1ERKS2_,_ZNSt14__shared_countILN9__gnu_cxx12_Lock_policyE2EEC2ERKS2_
	.section	.text._ZNSt8functionIFvRKSt10shared_ptrIN7asiopal8ExecutorEEN4asio19basic_stream_socketINS6_2ip3tcpENS6_21stream_socket_serviceIS9_EEEERKSt10error_codeEEC2ERKSH_,"axG",@progbits,_ZNSt8functionIFvRKSt10shared_ptrIN7asiopal8ExecutorEEN4asio19basic_stream_socketINS6_2ip3tcpENS6_21stream_socket_serviceIS9_EEEERKSt10error_codeEEC5ERKSH_,comdat
	.align	2
	.p2align 4,,11
	.weak	_ZNSt8functionIFvRKSt10shared_ptrIN7asiopal8ExecutorEEN4asio19basic_stream_socketINS6_2ip3tcpENS6_21stream_socket_serviceIS9_EEEERKSt10error_codeEEC2ERKSH_
	.type	_ZNSt8functionIFvRKSt10shared_ptrIN7asiopal8ExecutorEEN4asio19basic_stream_socketINS6_2ip3tcpENS6_21stream_socket_serviceIS9_EEEERKSt10error_codeEEC2ERKSH_, %function
_ZNSt8functionIFvRKSt10shared_ptrIN7asiopal8ExecutorEEN4asio19basic_stream_socketINS6_2ip3tcpENS6_21stream_socket_serviceIS9_EEEERKSt10error_codeEEC2ERKSH_:
.LFB7980:
	.cfi_startproc
	.cfi_personality 0x9b,DW.ref.__gxx_personality_v0
	.cfi_lsda 0x1b,.LLSDA7980
	ldr	x3, [x1, 16]
	stp	xzr, xzr, [x0]
	stp	xzr, xzr, [x0, 16]
	cbz	x3, .L1818
	stp	x29, x30, [sp, -32]!
	.cfi_def_cfa_offset 32
	.cfi_offset 29, -32
	.cfi_offset 30, -24
	mov	w2, 2
	mov	x29, sp
	stp	x19, x20, [sp, 16]
	.cfi_offset 19, -16
	.cfi_offset 20, -8
	mov	x20, x1
	mov	x19, x0
.LEHB45:
	blr	x3
.LEHE45:
	ldr	q0, [x20, 16]
	str	q0, [x19, 16]
	ldp	x19, x20, [sp, 16]
	ldp	x29, x30, [sp], 32
	.cfi_restore 30
	.cfi_restore 29
	.cfi_restore 19
	.cfi_restore 20
	.cfi_def_cfa_offset 0
	ret
	.p2align 2,,3
.L1818:
	ret
.L1810:
	.cfi_def_cfa_offset 32
	.cfi_offset 19, -16
	.cfi_offset 20, -8
	.cfi_offset 29, -32
	.cfi_offset 30, -24
	ldr	x3, [x19, 16]
	mov	x20, x0
	cbz	x3, .L1809
	mov	x1, x19
	mov	x0, x19
	mov	w2, 3
	blr	x3
.L1809:
	mov	x0, x20
.LEHB46:
	bl	_Unwind_Resume
.LEHE46:
	.cfi_endproc
.LFE7980:
	.section	.gcc_except_table._ZNSt8functionIFvRKSt10shared_ptrIN7asiopal8ExecutorEEN4asio19basic_stream_socketINS6_2ip3tcpENS6_21stream_socket_serviceIS9_EEEERKSt10error_codeEEC2ERKSH_,"aG",@progbits,_ZNSt8functionIFvRKSt10shared_ptrIN7asiopal8ExecutorEEN4asio19basic_stream_socketINS6_2ip3tcpENS6_21stream_socket_serviceIS9_EEEERKSt10error_codeEEC5ERKSH_,comdat
.LLSDA7980:
	.byte	0xff
	.byte	0xff
	.byte	0x1
	.uleb128 .LLSDACSE7980-.LLSDACSB7980
.LLSDACSB7980:
	.uleb128 .LEHB45-.LFB7980
	.uleb128 .LEHE45-.LEHB45
	.uleb128 .L1810-.LFB7980
	.uleb128 0
	.uleb128 .LEHB46-.LFB7980
	.uleb128 .LEHE46-.LEHB46
	.uleb128 0
	.uleb128 0
.LLSDACSE7980:
	.section	.text._ZNSt8functionIFvRKSt10shared_ptrIN7asiopal8ExecutorEEN4asio19basic_stream_socketINS6_2ip3tcpENS6_21stream_socket_serviceIS9_EEEERKSt10error_codeEEC2ERKSH_,"axG",@progbits,_ZNSt8functionIFvRKSt10shared_ptrIN7asiopal8ExecutorEEN4asio19basic_stream_socketINS6_2ip3tcpENS6_21stream_socket_serviceIS9_EEEERKSt10error_codeEEC5ERKSH_,comdat
	.size	_ZNSt8functionIFvRKSt10shared_ptrIN7asiopal8ExecutorEEN4asio19basic_stream_socketINS6_2ip3tcpENS6_21stream_socket_serviceIS9_EEEERKSt10error_codeEEC2ERKSH_, .-_ZNSt8functionIFvRKSt10shared_ptrIN7asiopal8ExecutorEEN4asio19basic_stream_socketINS6_2ip3tcpENS6_21stream_socket_serviceIS9_EEEERKSt10error_codeEEC2ERKSH_
	.weak	_ZNSt8functionIFvRKSt10shared_ptrIN7asiopal8ExecutorEEN4asio19basic_stream_socketINS6_2ip3tcpENS6_21stream_socket_serviceIS9_EEEERKSt10error_codeEEC1ERKSH_
	.set	_ZNSt8functionIFvRKSt10shared_ptrIN7asiopal8ExecutorEEN4asio19basic_stream_socketINS6_2ip3tcpENS6_21stream_socket_serviceIS9_EEEERKSt10error_codeEEC1ERKSH_,_ZNSt8functionIFvRKSt10shared_ptrIN7asiopal8ExecutorEEN4asio19basic_stream_socketINS6_2ip3tcpENS6_21stream_socket_serviceIS9_EEEERKSt10error_codeEEC2ERKSH_
	.section	.text._ZNSt16_Sp_counted_baseILN9__gnu_cxx12_Lock_policyE2EE10_M_releaseEv,"axG",@progbits,_ZNSt16_Sp_counted_baseILN9__gnu_cxx12_Lock_policyE2EE10_M_releaseEv,comdat
	.align	2
	.p2align 4,,11
	.weak	_ZNSt16_Sp_counted_baseILN9__gnu_cxx12_Lock_policyE2EE10_M_releaseEv
	.type	_ZNSt16_Sp_counted_baseILN9__gnu_cxx12_Lock_policyE2EE10_M_releaseEv, %function
_ZNSt16_Sp_counted_baseILN9__gnu_cxx12_Lock_policyE2EE10_M_releaseEv:
.LFB8266:
	.cfi_startproc
	stp	x29, x30, [sp, -32]!
	.cfi_def_cfa_offset 32
	.cfi_offset 29, -32
	.cfi_offset 30, -24
	mov	x29, sp
	stp	x19, x20, [sp, 16]
	.cfi_offset 19, -16
	.cfi_offset 20, -8
	adrp	x20, :got:__libc_single_threaded
	mov	x19, x0
	ldr	x0, [x20, #:got_lo12:__libc_single_threaded]
	ldrb	w0, [x0]
	cbz	w0, .L1822
	ldr	w0, [x19, 8]
	sub	w1, w0, #1
	str	w1, [x19, 8]
.L1823:
	cmp	w0, 1
	beq	.L1830
.L1821:
	ldp	x19, x20, [sp, 16]
	ldp	x29, x30, [sp], 32
	.cfi_remember_state
	.cfi_restore 30
	.cfi_restore 29
	.cfi_restore 19
	.cfi_restore 20
	.cfi_def_cfa_offset 0
	ret
	.p2align 2,,3
.L1830:
	.cfi_restore_state
	ldr	x1, [x19]
	mov	x0, x19
	ldr	x1, [x1, 16]
	blr	x1
	ldr	x20, [x20, #:got_lo12:__libc_single_threaded]
	ldrb	w0, [x20]
	cbz	w0, .L1826
	ldr	w0, [x19, 12]
	sub	w1, w0, #1
	str	w1, [x19, 12]
.L1827:
	cmp	w0, 1
	bne	.L1821
	ldr	x1, [x19]
	mov	x0, x19
	ldp	x19, x20, [sp, 16]
	ldp	x29, x30, [sp], 32
	.cfi_remember_state
	.cfi_restore 30
	.cfi_restore 29
	.cfi_restore 19
	.cfi_restore 20
	.cfi_def_cfa_offset 0
	ldr	x1, [x1, 24]
	mov	x16, x1
	br	x16
	.p2align 2,,3
.L1822:
	.cfi_restore_state
	add	x1, x19, 8
	mov	w0, -1
	bl	__aarch64_ldadd4_acq_rel
	b	.L1823
	.p2align 2,,3
.L1826:
	add	x1, x19, 12
	mov	w0, -1
	bl	__aarch64_ldadd4_acq_rel
	b	.L1827
	.cfi_endproc
.LFE8266:
	.size	_ZNSt16_Sp_counted_baseILN9__gnu_cxx12_Lock_policyE2EE10_M_releaseEv, .-_ZNSt16_Sp_counted_baseILN9__gnu_cxx12_Lock_policyE2EE10_M_releaseEv
	.section	.text._ZN7openpal6LoggerD2Ev,"axG",@progbits,_ZN7openpal6LoggerD5Ev,comdat
	.align	2
	.p2align 4,,11
	.weak	_ZN7openpal6LoggerD2Ev
	.type	_ZN7openpal6LoggerD2Ev, %function
_ZN7openpal6LoggerD2Ev:
.LFB6993:
	.cfi_startproc
	stp	x29, x30, [sp, -48]!
	.cfi_def_cfa_offset 48
	.cfi_offset 29, -48
	.cfi_offset 30, -40
	mov	x29, sp
	stp	x19, x20, [sp, 16]
	.cfi_offset 19, -32
	.cfi_offset 20, -24
	mov	x19, x0
	ldr	x20, [x0, 24]
	cbz	x20, .L1833
	str	x21, [sp, 32]
	.cfi_offset 21, -16
	adrp	x21, :got:__libc_single_threaded
	ldr	x0, [x21, #:got_lo12:__libc_single_threaded]
	ldrb	w0, [x0]
	cbz	w0, .L1834
	ldr	w0, [x20, 8]
	sub	w1, w0, #1
	str	w1, [x20, 8]
.L1835:
	cmp	w0, 1
	beq	.L1843
.L1842:
	ldr	x21, [sp, 32]
	.cfi_restore 21
.L1833:
	ldr	x0, [x19, 8]
	cbz	x0, .L1831
	ldp	x19, x20, [sp, 16]
	ldp	x29, x30, [sp], 48
	.cfi_remember_state
	.cfi_restore 30
	.cfi_restore 29
	.cfi_restore 19
	.cfi_restore 20
	.cfi_def_cfa_offset 0
	b	_ZNSt16_Sp_counted_baseILN9__gnu_cxx12_Lock_policyE2EE10_M_releaseEv
	.p2align 2,,3
.L1831:
	.cfi_restore_state
	ldp	x19, x20, [sp, 16]
	ldp	x29, x30, [sp], 48
	.cfi_restore 30
	.cfi_restore 29
	.cfi_restore 19
	.cfi_restore 20
	.cfi_def_cfa_offset 0
	ret
	.p2align 2,,3
.L1843:
	.cfi_def_cfa_offset 48
	.cfi_offset 19, -32
	.cfi_offset 20, -24
	.cfi_offset 21, -16
	.cfi_offset 29, -48
	.cfi_offset 30, -40
	ldr	x1, [x20]
	mov	x0, x20
	ldr	x1, [x1, 16]
	blr	x1
	ldr	x21, [x21, #:got_lo12:__libc_single_threaded]
	ldrb	w0, [x21]
	cbz	w0, .L1837
	ldr	w0, [x20, 12]
	sub	w1, w0, #1
	str	w1, [x20, 12]
.L1838:
	cmp	w0, 1
	bne	.L1842
	ldr	x1, [x20]
	mov	x0, x20
	ldr	x1, [x1, 24]
	blr	x1
	ldr	x21, [sp, 32]
	.cfi_remember_state
	.cfi_restore 21
	b	.L1833
	.p2align 2,,3
.L1834:
	.cfi_restore_state
	add	x1, x20, 8
	mov	w0, -1
	bl	__aarch64_ldadd4_acq_rel
	b	.L1835
	.p2align 2,,3
.L1837:
	add	x1, x20, 12
	mov	w0, -1
	bl	__aarch64_ldadd4_acq_rel
	b	.L1838
	.cfi_endproc
.LFE6993:
	.size	_ZN7openpal6LoggerD2Ev, .-_ZN7openpal6LoggerD2Ev
	.weak	_ZN7openpal6LoggerD1Ev
	.set	_ZN7openpal6LoggerD1Ev,_ZN7openpal6LoggerD2Ev
	.text
	.align	2
	.p2align 4,,11
	.type	_ZZN7asiopal9TCPClient12BeginConnectERKSt8functionIFvRKSt10shared_ptrINS_8ExecutorEEN4asio19basic_stream_socketINS7_2ip3tcpENS7_21stream_socket_serviceISA_EEEERKSt10error_codeEEENUlSG_NS9_23basic_resolver_iteratorISA_EEE_D2Ev, %function
_ZZN7asiopal9TCPClient12BeginConnectERKSt8functionIFvRKSt10shared_ptrINS_8ExecutorEEN4asio19basic_stream_socketINS7_2ip3tcpENS7_21stream_socket_serviceISA_EEEERKSt10error_codeEEENUlSG_NS9_23basic_resolver_iteratorISA_EEE_D2Ev:
.LFB7079:
	.cfi_startproc
	.cfi_personality 0x9b,DW.ref.__gxx_personality_v0
	.cfi_lsda 0x1b,.LLSDA7079
	add	x1, x0, 16
	stp	x29, x30, [sp, -32]!
	.cfi_def_cfa_offset 32
	.cfi_offset 29, -32
	.cfi_offset 30, -24
	mov	x29, sp
	ldr	x3, [x1, 16]
	str	x19, [sp, 16]
	.cfi_offset 19, -16
	mov	x19, x0
	cbz	x3, .L1845
	mov	x0, x1
	mov	w2, 3
	blr	x3
.L1845:
	ldr	x0, [x19, 8]
	cbz	x0, .L1844
	ldr	x19, [sp, 16]
	ldp	x29, x30, [sp], 32
	.cfi_remember_state
	.cfi_restore 30
	.cfi_restore 29
	.cfi_restore 19
	.cfi_def_cfa_offset 0
	b	_ZNSt16_Sp_counted_baseILN9__gnu_cxx12_Lock_policyE2EE10_M_releaseEv
	.p2align 2,,3
.L1844:
	.cfi_restore_state
	ldr	x19, [sp, 16]
	ldp	x29, x30, [sp], 32
	.cfi_restore 30
	.cfi_restore 29
	.cfi_restore 19
	.cfi_def_cfa_offset 0
	ret
	.cfi_endproc
.LFE7079:
	.section	.gcc_except_table,"a",@progbits
.LLSDA7079:
	.byte	0xff
	.byte	0xff
	.byte	0x1
	.uleb128 .LLSDACSE7079-.LLSDACSB7079
.LLSDACSB7079:
.LLSDACSE7079:
	.text
	.size	_ZZN7asiopal9TCPClient12BeginConnectERKSt8functionIFvRKSt10shared_ptrINS_8ExecutorEEN4asio19basic_stream_socketINS7_2ip3tcpENS7_21stream_socket_serviceISA_EEEERKSt10error_codeEEENUlSG_NS9_23basic_resolver_iteratorISA_EEE_D2Ev, .-_ZZN7asiopal9TCPClient12BeginConnectERKSt8functionIFvRKSt10shared_ptrINS_8ExecutorEEN4asio19basic_stream_socketINS7_2ip3tcpENS7_21stream_socket_serviceISA_EEEERKSt10error_codeEEENUlSG_NS9_23basic_resolver_iteratorISA_EEE_D2Ev
	.set	_ZZN7asiopal9TCPClient12BeginConnectERKSt8functionIFvRKSt10shared_ptrINS_8ExecutorEEN4asio19basic_stream_socketINS7_2ip3tcpENS7_21stream_socket_serviceISA_EEEERKSt10error_codeEEENUlSG_NS9_23basic_resolver_iteratorISA_EEE_D1Ev,_ZZN7asiopal9TCPClient12BeginConnectERKSt8functionIFvRKSt10shared_ptrINS_8ExecutorEEN4asio19basic_stream_socketINS7_2ip3tcpENS7_21stream_socket_serviceISA_EEEERKSt10error_codeEEENUlSG_NS9_23basic_resolver_iteratorISA_EEE_D2Ev
	.align	2
	.p2align 4,,11
	.type	_ZZN7asiopal9TCPClient12BeginConnectERKSt8functionIFvRKSt10shared_ptrINS_8ExecutorEEN4asio19basic_stream_socketINS7_2ip3tcpENS7_21stream_socket_serviceISA_EEEERKSt10error_codeEEENUlSG_E0_D2Ev, %function
_ZZN7asiopal9TCPClient12BeginConnectERKSt8functionIFvRKSt10shared_ptrINS_8ExecutorEEN4asio19basic_stream_socketINS7_2ip3tcpENS7_21stream_socket_serviceISA_EEEERKSt10error_codeEEENUlSG_E0_D2Ev:
.LFB7095:
	.cfi_startproc
	.cfi_personality 0x9b,DW.ref.__gxx_personality_v0
	.cfi_lsda 0x1b,.LLSDA7095
	add	x1, x0, 16
	stp	x29, x30, [sp, -32]!
	.cfi_def_cfa_offset 32
	.cfi_offset 29, -32
	.cfi_offset 30, -24
	mov	x29, sp
	ldr	x3, [x1, 16]
	str	x19, [sp, 16]
	.cfi_offset 19, -16
	mov	x19, x0
	cbz	x3, .L1852
	mov	x0, x1
	mov	w2, 3
	blr	x3
.L1852:
	ldr	x0, [x19, 8]
	cbz	x0, .L1851
	ldr	x19, [sp, 16]
	ldp	x29, x30, [sp], 32
	.cfi_remember_state
	.cfi_restore 30
	.cfi_restore 29
	.cfi_restore 19
	.cfi_def_cfa_offset 0
	b	_ZNSt16_Sp_counted_baseILN9__gnu_cxx12_Lock_policyE2EE10_M_releaseEv
	.p2align 2,,3
.L1851:
	.cfi_restore_state
	ldr	x19, [sp, 16]
	ldp	x29, x30, [sp], 32
	.cfi_restore 30
	.cfi_restore 29
	.cfi_restore 19
	.cfi_def_cfa_offset 0
	ret
	.cfi_endproc
.LFE7095:
	.section	.gcc_except_table
.LLSDA7095:
	.byte	0xff
	.byte	0xff
	.byte	0x1
	.uleb128 .LLSDACSE7095-.LLSDACSB7095
.LLSDACSB7095:
.LLSDACSE7095:
	.text
	.size	_ZZN7asiopal9TCPClient12BeginConnectERKSt8functionIFvRKSt10shared_ptrINS_8ExecutorEEN4asio19basic_stream_socketINS7_2ip3tcpENS7_21stream_socket_serviceISA_EEEERKSt10error_codeEEENUlSG_E0_D2Ev, .-_ZZN7asiopal9TCPClient12BeginConnectERKSt8functionIFvRKSt10shared_ptrINS_8ExecutorEEN4asio19basic_stream_socketINS7_2ip3tcpENS7_21stream_socket_serviceISA_EEEERKSt10error_codeEEENUlSG_E0_D2Ev
	.set	_ZZN7asiopal9TCPClient12BeginConnectERKSt8functionIFvRKSt10shared_ptrINS_8ExecutorEEN4asio19basic_stream_socketINS7_2ip3tcpENS7_21stream_socket_serviceISA_EEEERKSt10error_codeEEENUlSG_E0_D1Ev,_ZZN7asiopal9TCPClient12BeginConnectERKSt8functionIFvRKSt10shared_ptrINS_8ExecutorEEN4asio19basic_stream_socketINS7_2ip3tcpENS7_21stream_socket_serviceISA_EEEERKSt10error_codeEEENUlSG_E0_D2Ev
	.align	2
	.p2align 4,,11
	.type	_ZZN7asiopal9TCPClient19HandleResolveResultERKSt8functionIFvRKSt10shared_ptrINS_8ExecutorEEN4asio19basic_stream_socketINS7_2ip3tcpENS7_21stream_socket_serviceISA_EEEERKSt10error_codeEERKNS9_23basic_resolver_iteratorISA_EESG_ENUlSG_SM_E_D2Ev, %function
_ZZN7asiopal9TCPClient19HandleResolveResultERKSt8functionIFvRKSt10shared_ptrINS_8ExecutorEEN4asio19basic_stream_socketINS7_2ip3tcpENS7_21stream_socket_serviceISA_EEEERKSt10error_codeEERKNS9_23basic_resolver_iteratorISA_EESG_ENUlSG_SM_E_D2Ev:
.LFB7109:
	.cfi_startproc
	.cfi_personality 0x9b,DW.ref.__gxx_personality_v0
	.cfi_lsda 0x1b,.LLSDA7109
	add	x1, x0, 16
	stp	x29, x30, [sp, -32]!
	.cfi_def_cfa_offset 32
	.cfi_offset 29, -32
	.cfi_offset 30, -24
	mov	x29, sp
	ldr	x3, [x1, 16]
	str	x19, [sp, 16]
	.cfi_offset 19, -16
	mov	x19, x0
	cbz	x3, .L1859
	mov	x0, x1
	mov	w2, 3
	blr	x3
.L1859:
	ldr	x0, [x19, 8]
	cbz	x0, .L1858
	ldr	x19, [sp, 16]
	ldp	x29, x30, [sp], 32
	.cfi_remember_state
	.cfi_restore 30
	.cfi_restore 29
	.cfi_restore 19
	.cfi_def_cfa_offset 0
	b	_ZNSt16_Sp_counted_baseILN9__gnu_cxx12_Lock_policyE2EE10_M_releaseEv
	.p2align 2,,3
.L1858:
	.cfi_restore_state
	ldr	x19, [sp, 16]
	ldp	x29, x30, [sp], 32
	.cfi_restore 30
	.cfi_restore 29
	.cfi_restore 19
	.cfi_def_cfa_offset 0
	ret
	.cfi_endproc
.LFE7109:
	.section	.gcc_except_table
.LLSDA7109:
	.byte	0xff
	.byte	0xff
	.byte	0x1
	.uleb128 .LLSDACSE7109-.LLSDACSB7109
.LLSDACSB7109:
.LLSDACSE7109:
	.text
	.size	_ZZN7asiopal9TCPClient19HandleResolveResultERKSt8functionIFvRKSt10shared_ptrINS_8ExecutorEEN4asio19basic_stream_socketINS7_2ip3tcpENS7_21stream_socket_serviceISA_EEEERKSt10error_codeEERKNS9_23basic_resolver_iteratorISA_EESG_ENUlSG_SM_E_D2Ev, .-_ZZN7asiopal9TCPClient19HandleResolveResultERKSt8functionIFvRKSt10shared_ptrINS_8ExecutorEEN4asio19basic_stream_socketINS7_2ip3tcpENS7_21stream_socket_serviceISA_EEEERKSt10error_codeEERKNS9_23basic_resolver_iteratorISA_EESG_ENUlSG_SM_E_D2Ev
	.set	_ZZN7asiopal9TCPClient19HandleResolveResultERKSt8functionIFvRKSt10shared_ptrINS_8ExecutorEEN4asio19basic_stream_socketINS7_2ip3tcpENS7_21stream_socket_serviceISA_EEEERKSt10error_codeEERKNS9_23basic_resolver_iteratorISA_EESG_ENUlSG_SM_E_D1Ev,_ZZN7asiopal9TCPClient19HandleResolveResultERKSt8functionIFvRKSt10shared_ptrINS_8ExecutorEEN4asio19basic_stream_socketINS7_2ip3tcpENS7_21stream_socket_serviceISA_EEEERKSt10error_codeEERKNS9_23basic_resolver_iteratorISA_EESG_ENUlSG_SM_E_D2Ev
	.section	.text.unlikely
	.align	2
	.type	_ZZN7asiopal9TCPClient16PostConnectErrorERKSt8functionIFvRKSt10shared_ptrINS_8ExecutorEEN4asio19basic_stream_socketINS7_2ip3tcpENS7_21stream_socket_serviceISA_EEEERKSt10error_codeEESG_ENUlvE_D2Ev, %function
_ZZN7asiopal9TCPClient16PostConnectErrorERKSt8functionIFvRKSt10shared_ptrINS_8ExecutorEEN4asio19basic_stream_socketINS7_2ip3tcpENS7_21stream_socket_serviceISA_EEEERKSt10error_codeEESG_ENUlvE_D2Ev:
.LFB7144:
	.cfi_startproc
	.cfi_personality 0x9b,DW.ref.__gxx_personality_v0
	.cfi_lsda 0x1b,.LLSDA7144
	add	x1, x0, 32
	stp	x29, x30, [sp, -32]!
	.cfi_def_cfa_offset 32
	.cfi_offset 29, -32
	.cfi_offset 30, -24
	mov	x29, sp
	ldr	x3, [x1, 16]
	str	x19, [sp, 16]
	.cfi_offset 19, -16
	mov	x19, x0
	cbz	x3, .L1866
	mov	x0, x1
	mov	w2, 3
	blr	x3
.L1866:
	ldr	x0, [x19, 8]
	cbz	x0, .L1865
	ldr	x19, [sp, 16]
	ldp	x29, x30, [sp], 32
	.cfi_remember_state
	.cfi_restore 30
	.cfi_restore 29
	.cfi_restore 19
	.cfi_def_cfa_offset 0
	b	_ZNSt16_Sp_counted_baseILN9__gnu_cxx12_Lock_policyE2EE10_M_releaseEv
.L1865:
	.cfi_restore_state
	ldr	x19, [sp, 16]
	ldp	x29, x30, [sp], 32
	.cfi_restore 30
	.cfi_restore 29
	.cfi_restore 19
	.cfi_def_cfa_offset 0
	ret
	.cfi_endproc
.LFE7144:
	.section	.gcc_except_table
.LLSDA7144:
	.byte	0xff
	.byte	0xff
	.byte	0x1
	.uleb128 .LLSDACSE7144-.LLSDACSB7144
.LLSDACSB7144:
.LLSDACSE7144:
	.section	.text.unlikely
	.size	_ZZN7asiopal9TCPClient16PostConnectErrorERKSt8functionIFvRKSt10shared_ptrINS_8ExecutorEEN4asio19basic_stream_socketINS7_2ip3tcpENS7_21stream_socket_serviceISA_EEEERKSt10error_codeEESG_ENUlvE_D2Ev, .-_ZZN7asiopal9TCPClient16PostConnectErrorERKSt8functionIFvRKSt10shared_ptrINS_8ExecutorEEN4asio19basic_stream_socketINS7_2ip3tcpENS7_21stream_socket_serviceISA_EEEERKSt10error_codeEESG_ENUlvE_D2Ev
	.set	_ZZN7asiopal9TCPClient16PostConnectErrorERKSt8functionIFvRKSt10shared_ptrINS_8ExecutorEEN4asio19basic_stream_socketINS7_2ip3tcpENS7_21stream_socket_serviceISA_EEEERKSt10error_codeEESG_ENUlvE_D1Ev,_ZZN7asiopal9TCPClient16PostConnectErrorERKSt8functionIFvRKSt10shared_ptrINS_8ExecutorEEN4asio19basic_stream_socketINS7_2ip3tcpENS7_21stream_socket_serviceISA_EEEERKSt10error_codeEESG_ENUlvE_D2Ev
	.text
	.align	2
	.p2align 4,,11
	.type	_ZZN7asiopal9TCPClient12BeginConnectERKSt8functionIFvRKSt10shared_ptrINS_8ExecutorEEN4asio19basic_stream_socketINS7_2ip3tcpENS7_21stream_socket_serviceISA_EEEERKSt10error_codeEEENUlSG_NS9_23basic_resolver_iteratorISA_EEE_C2EOSN_, %function
_ZZN7asiopal9TCPClient12BeginConnectERKSt8functionIFvRKSt10shared_ptrINS_8ExecutorEEN4asio19basic_stream_socketINS7_2ip3tcpENS7_21stream_socket_serviceISA_EEEERKSt10error_codeEEENUlSG_NS9_23basic_resolver_iteratorISA_EEE_C2EOSN_:
.LFB7082:
	.cfi_startproc
	.cfi_personality 0x9b,DW.ref.__gxx_personality_v0
	.cfi_lsda 0x1b,.LLSDA7082
	stp	x29, x30, [sp, -48]!
	.cfi_def_cfa_offset 48
	.cfi_offset 29, -48
	.cfi_offset 30, -40
	mov	x29, sp
	stp	x19, x20, [sp, 16]
	.cfi_offset 19, -32
	.cfi_offset 20, -24
	mov	x19, x0
	mov	x20, x1
	str	x21, [sp, 32]
	.cfi_offset 21, -16
	add	x21, x0, 16
	ldr	x0, [x1]
	stp	x0, xzr, [x19]
	ldr	x0, [x1, 8]
	stp	xzr, xzr, [x1], 16
	ldr	x3, [x1, 16]
	str	x0, [x19, 8]
	stp	xzr, xzr, [x19, 16]
	stp	xzr, xzr, [x21, 16]
	cbz	x3, .L1872
	mov	x0, x21
	mov	w2, 2
.LEHB47:
	blr	x3
.LEHE47:
	ldr	q0, [x20, 32]
	str	q0, [x19, 32]
.L1872:
	ldp	x19, x20, [sp, 16]
	ldr	x21, [sp, 32]
	ldp	x29, x30, [sp], 48
	.cfi_remember_state
	.cfi_restore 30
	.cfi_restore 29
	.cfi_restore 21
	.cfi_restore 19
	.cfi_restore 20
	.cfi_def_cfa_offset 0
	ret
.L1877:
	.cfi_restore_state
	ldr	x3, [x21, 16]
	mov	x20, x0
	cbz	x3, .L1875
	mov	x1, x21
	mov	x0, x21
	mov	w2, 3
	blr	x3
.L1875:
	ldr	x0, [x19, 8]
	cbz	x0, .L1876
	bl	_ZNSt16_Sp_counted_baseILN9__gnu_cxx12_Lock_policyE2EE10_M_releaseEv
.L1876:
	mov	x0, x20
.LEHB48:
	bl	_Unwind_Resume
.LEHE48:
	.cfi_endproc
.LFE7082:
	.section	.gcc_except_table
.LLSDA7082:
	.byte	0xff
	.byte	0xff
	.byte	0x1
	.uleb128 .LLSDACSE7082-.LLSDACSB7082
.LLSDACSB7082:
	.uleb128 .LEHB47-.LFB7082
	.uleb128 .LEHE47-.LEHB47
	.uleb128 .L1877-.LFB7082
	.uleb128 0
	.uleb128 .LEHB48-.LFB7082
	.uleb128 .LEHE48-.LEHB48
	.uleb128 0
	.uleb128 0
.LLSDACSE7082:
	.text
	.size	_ZZN7asiopal9TCPClient12BeginConnectERKSt8functionIFvRKSt10shared_ptrINS_8ExecutorEEN4asio19basic_stream_socketINS7_2ip3tcpENS7_21stream_socket_serviceISA_EEEERKSt10error_codeEEENUlSG_NS9_23basic_resolver_iteratorISA_EEE_C2EOSN_, .-_ZZN7asiopal9TCPClient12BeginConnectERKSt8functionIFvRKSt10shared_ptrINS_8ExecutorEEN4asio19basic_stream_socketINS7_2ip3tcpENS7_21stream_socket_serviceISA_EEEERKSt10error_codeEEENUlSG_NS9_23basic_resolver_iteratorISA_EEE_C2EOSN_
	.set	_ZZN7asiopal9TCPClient12BeginConnectERKSt8functionIFvRKSt10shared_ptrINS_8ExecutorEEN4asio19basic_stream_socketINS7_2ip3tcpENS7_21stream_socket_serviceISA_EEEERKSt10error_codeEEENUlSG_NS9_23basic_resolver_iteratorISA_EEE_C1EOSN_,_ZZN7asiopal9TCPClient12BeginConnectERKSt8functionIFvRKSt10shared_ptrINS_8ExecutorEEN4asio19basic_stream_socketINS7_2ip3tcpENS7_21stream_socket_serviceISA_EEEERKSt10error_codeEEENUlSG_NS9_23basic_resolver_iteratorISA_EEE_C2EOSN_
	.align	2
	.p2align 4,,11
	.type	_ZZN7asiopal9TCPClient12BeginConnectERKSt8functionIFvRKSt10shared_ptrINS_8ExecutorEEN4asio19basic_stream_socketINS7_2ip3tcpENS7_21stream_socket_serviceISA_EEEERKSt10error_codeEEENUlSG_E0_C2EOSL_, %function
_ZZN7asiopal9TCPClient12BeginConnectERKSt8functionIFvRKSt10shared_ptrINS_8ExecutorEEN4asio19basic_stream_socketINS7_2ip3tcpENS7_21stream_socket_serviceISA_EEEERKSt10error_codeEEENUlSG_E0_C2EOSL_:
.LFB7098:
	.cfi_startproc
	.cfi_personality 0x9b,DW.ref.__gxx_personality_v0
	.cfi_lsda 0x1b,.LLSDA7098
	stp	x29, x30, [sp, -48]!
	.cfi_def_cfa_offset 48
	.cfi_offset 29, -48
	.cfi_offset 30, -40
	mov	x29, sp
	stp	x19, x20, [sp, 16]
	.cfi_offset 19, -32
	.cfi_offset 20, -24
	mov	x19, x0
	mov	x20, x1
	str	x21, [sp, 32]
	.cfi_offset 21, -16
	add	x21, x0, 16
	ldr	x0, [x1]
	stp	x0, xzr, [x19]
	ldr	x0, [x1, 8]
	stp	xzr, xzr, [x1], 16
	ldr	x3, [x1, 16]
	str	x0, [x19, 8]
	stp	xzr, xzr, [x19, 16]
	stp	xzr, xzr, [x21, 16]
	cbz	x3, .L1888
	mov	x0, x21
	mov	w2, 2
.LEHB49:
	blr	x3
.LEHE49:
	ldr	q0, [x20, 32]
	str	q0, [x19, 32]
.L1888:
	ldp	x19, x20, [sp, 16]
	ldr	x21, [sp, 32]
	ldp	x29, x30, [sp], 48
	.cfi_remember_state
	.cfi_restore 30
	.cfi_restore 29
	.cfi_restore 21
	.cfi_restore 19
	.cfi_restore 20
	.cfi_def_cfa_offset 0
	ret
.L1893:
	.cfi_restore_state
	ldr	x3, [x21, 16]
	mov	x20, x0
	cbz	x3, .L1891
	mov	x1, x21
	mov	x0, x21
	mov	w2, 3
	blr	x3
.L1891:
	ldr	x0, [x19, 8]
	cbz	x0, .L1892
	bl	_ZNSt16_Sp_counted_baseILN9__gnu_cxx12_Lock_policyE2EE10_M_releaseEv
.L1892:
	mov	x0, x20
.LEHB50:
	bl	_Unwind_Resume
.LEHE50:
	.cfi_endproc
.LFE7098:
	.section	.gcc_except_table
.LLSDA7098:
	.byte	0xff
	.byte	0xff
	.byte	0x1
	.uleb128 .LLSDACSE7098-.LLSDACSB7098
.LLSDACSB7098:
	.uleb128 .LEHB49-.LFB7098
	.uleb128 .LEHE49-.LEHB49
	.uleb128 .L1893-.LFB7098
	.uleb128 0
	.uleb128 .LEHB50-.LFB7098
	.uleb128 .LEHE50-.LEHB50
	.uleb128 0
	.uleb128 0
.LLSDACSE7098:
	.text
	.size	_ZZN7asiopal9TCPClient12BeginConnectERKSt8functionIFvRKSt10shared_ptrINS_8ExecutorEEN4asio19basic_stream_socketINS7_2ip3tcpENS7_21stream_socket_serviceISA_EEEERKSt10error_codeEEENUlSG_E0_C2EOSL_, .-_ZZN7asiopal9TCPClient12BeginConnectERKSt8functionIFvRKSt10shared_ptrINS_8ExecutorEEN4asio19basic_stream_socketINS7_2ip3tcpENS7_21stream_socket_serviceISA_EEEERKSt10error_codeEEENUlSG_E0_C2EOSL_
	.set	_ZZN7asiopal9TCPClient12BeginConnectERKSt8functionIFvRKSt10shared_ptrINS_8ExecutorEEN4asio19basic_stream_socketINS7_2ip3tcpENS7_21stream_socket_serviceISA_EEEERKSt10error_codeEEENUlSG_E0_C1EOSL_,_ZZN7asiopal9TCPClient12BeginConnectERKSt8functionIFvRKSt10shared_ptrINS_8ExecutorEEN4asio19basic_stream_socketINS7_2ip3tcpENS7_21stream_socket_serviceISA_EEEERKSt10error_codeEEENUlSG_E0_C2EOSL_
	.align	2
	.p2align 4,,11
	.global	_ZN7asiopal9TCPClient6CancelEv
	.type	_ZN7asiopal9TCPClient6CancelEv, %function
_ZN7asiopal9TCPClient6CancelEv:
.LFB7065:
	.cfi_startproc
	.cfi_personality 0x9b,DW.ref.__gxx_personality_v0
	.cfi_lsda 0x1b,.LLSDA7065
	stp	x29, x30, [sp, -160]!
	.cfi_def_cfa_offset 160
	.cfi_offset 29, -160
	.cfi_offset 30, -152
	adrp	x1, :got:__stack_chk_guard
	mov	x29, sp
	ldr	x1, [x1, #:got_lo12:__stack_chk_guard]
	stp	x19, x20, [sp, 16]
	.cfi_offset 19, -144
	.cfi_offset 20, -136
	mov	x20, x0
	stp	x21, x22, [sp, 32]
	ldrb	w0, [x0, 17]
	ldr	x2, [x1]
	str	x2, [sp, 152]
	mov	x2, 0
	.cfi_offset 21, -128
	.cfi_offset 22, -120
	cbnz	w0, .L1931
	ldrb	w21, [x20, 16]
	cbnz	w21, .L1956
.L1905:
	adrp	x0, :got:__stack_chk_guard
	ldr	x0, [x0, #:got_lo12:__stack_chk_guard]
	ldr	x2, [sp, 152]
	ldr	x1, [x0]
	subs	x2, x2, x1
	mov	x1, 0
	bne	.L1957
	mov	w0, w21
	ldp	x19, x20, [sp, 16]
	ldp	x21, x22, [sp, 32]
	ldp	x29, x30, [sp], 160
