	.arch armv8-a
	.file	"TCPServer.cpp"
	.text
	.section	.rodata._ZNK4asio6detail15system_category4nameEv.str1.8,"aMS",@progbits,1
	.align	3
.LC0:
	.string	"asio.system"
	.section	.text._ZNK4asio6detail15system_category4nameEv,"axG",@progbits,_ZNK4asio6detail15system_category4nameEv,comdat
	.align	2
	.p2align 4,,11
	.weak	_ZNK4asio6detail15system_category4nameEv
	.type	_ZNK4asio6detail15system_category4nameEv, %function
_ZNK4asio6detail15system_category4nameEv:
.LFB2279:
	.cfi_startproc
	adrp	x0, .LC0
	add	x0, x0, :lo12:.LC0
	ret
	.cfi_endproc
.LFE2279:
	.size	_ZNK4asio6detail15system_category4nameEv, .-_ZNK4asio6detail15system_category4nameEv
	.section	.rodata._ZNK4asio5error6detail14netdb_category4nameEv.str1.8,"aMS",@progbits,1
	.align	3
.LC1:
	.string	"asio.netdb"
	.section	.text._ZNK4asio5error6detail14netdb_category4nameEv,"axG",@progbits,_ZNK4asio5error6detail14netdb_category4nameEv,comdat
	.align	2
	.p2align 4,,11
	.weak	_ZNK4asio5error6detail14netdb_category4nameEv
	.type	_ZNK4asio5error6detail14netdb_category4nameEv, %function
_ZNK4asio5error6detail14netdb_category4nameEv:
.LFB2300:
	.cfi_startproc
	adrp	x0, .LC1
	add	x0, x0, :lo12:.LC1
	ret
	.cfi_endproc
.LFE2300:
	.size	_ZNK4asio5error6detail14netdb_category4nameEv, .-_ZNK4asio5error6detail14netdb_category4nameEv
	.section	.rodata._ZNK4asio5error6detail17addrinfo_category4nameEv.str1.8,"aMS",@progbits,1
	.align	3
.LC2:
	.string	"asio.addrinfo"
	.section	.text._ZNK4asio5error6detail17addrinfo_category4nameEv,"axG",@progbits,_ZNK4asio5error6detail17addrinfo_category4nameEv,comdat
	.align	2
	.p2align 4,,11
	.weak	_ZNK4asio5error6detail17addrinfo_category4nameEv
	.type	_ZNK4asio5error6detail17addrinfo_category4nameEv, %function
_ZNK4asio5error6detail17addrinfo_category4nameEv:
.LFB2306:
	.cfi_startproc
	adrp	x0, .LC2
	add	x0, x0, :lo12:.LC2
	ret
	.cfi_endproc
.LFE2306:
	.size	_ZNK4asio5error6detail17addrinfo_category4nameEv, .-_ZNK4asio5error6detail17addrinfo_category4nameEv
	.section	.rodata._ZNK4asio5error6detail13misc_category4nameEv.str1.8,"aMS",@progbits,1
	.align	3
.LC3:
	.string	"asio.misc"
	.section	.text._ZNK4asio5error6detail13misc_category4nameEv,"axG",@progbits,_ZNK4asio5error6detail13misc_category4nameEv,comdat
	.align	2
	.p2align 4,,11
	.weak	_ZNK4asio5error6detail13misc_category4nameEv
	.type	_ZNK4asio5error6detail13misc_category4nameEv, %function
_ZNK4asio5error6detail13misc_category4nameEv:
.LFB2312:
	.cfi_startproc
	adrp	x0, .LC3
	add	x0, x0, :lo12:.LC3
	ret
	.cfi_endproc
.LFE2312:
	.size	_ZNK4asio5error6detail13misc_category4nameEv, .-_ZNK4asio5error6detail13misc_category4nameEv
	.section	.text._ZN4asio10io_service7service12fork_serviceENS0_10fork_eventE,"axG",@progbits,_ZN4asio10io_service7service12fork_serviceENS0_10fork_eventE,comdat
	.align	2
	.p2align 4,,11
	.weak	_ZN4asio10io_service7service12fork_serviceENS0_10fork_eventE
	.type	_ZN4asio10io_service7service12fork_serviceENS0_10fork_eventE, %function
_ZN4asio10io_service7service12fork_serviceENS0_10fork_eventE:
.LFB3428:
	.cfi_startproc
	ret
	.cfi_endproc
.LFE3428:
	.size	_ZN4asio10io_service7service12fork_serviceENS0_10fork_eventE, .-_ZN4asio10io_service7service12fork_serviceENS0_10fork_eventE
	.section	.text._ZNKSt5ctypeIcE8do_widenEc,"axG",@progbits,_ZNKSt5ctypeIcE8do_widenEc,comdat
	.align	2
	.p2align 4,,11
	.weak	_ZNKSt5ctypeIcE8do_widenEc
	.type	_ZNKSt5ctypeIcE8do_widenEc, %function
_ZNKSt5ctypeIcE8do_widenEc:
.LFB4614:
	.cfi_startproc
	mov	w0, w1
	ret
	.cfi_endproc
.LFE4614:
	.size	_ZNKSt5ctypeIcE8do_widenEc, .-_ZNKSt5ctypeIcE8do_widenEc
	.section	.text._ZN4asio21stream_socket_serviceINS_2ip3tcpEED2Ev,"axG",@progbits,_ZN4asio21stream_socket_serviceINS_2ip3tcpEED5Ev,comdat
	.align	2
	.p2align 4,,11
	.weak	_ZN4asio21stream_socket_serviceINS_2ip3tcpEED2Ev
	.type	_ZN4asio21stream_socket_serviceINS_2ip3tcpEED2Ev, %function
_ZN4asio21stream_socket_serviceINS_2ip3tcpEED2Ev:
.LFB9349:
	.cfi_startproc
	ret
	.cfi_endproc
.LFE9349:
	.size	_ZN4asio21stream_socket_serviceINS_2ip3tcpEED2Ev, .-_ZN4asio21stream_socket_serviceINS_2ip3tcpEED2Ev
	.weak	_ZN4asio21stream_socket_serviceINS_2ip3tcpEED1Ev
	.set	_ZN4asio21stream_socket_serviceINS_2ip3tcpEED1Ev,_ZN4asio21stream_socket_serviceINS_2ip3tcpEED2Ev
	.section	.text._ZN4asio23socket_acceptor_serviceINS_2ip3tcpEED2Ev,"axG",@progbits,_ZN4asio23socket_acceptor_serviceINS_2ip3tcpEED5Ev,comdat
	.align	2
	.p2align 4,,11
	.weak	_ZN4asio23socket_acceptor_serviceINS_2ip3tcpEED2Ev
	.type	_ZN4asio23socket_acceptor_serviceINS_2ip3tcpEED2Ev, %function
_ZN4asio23socket_acceptor_serviceINS_2ip3tcpEED2Ev:
.LFB9353:
	.cfi_startproc
	ret
	.cfi_endproc
.LFE9353:
	.size	_ZN4asio23socket_acceptor_serviceINS_2ip3tcpEED2Ev, .-_ZN4asio23socket_acceptor_serviceINS_2ip3tcpEED2Ev
	.weak	_ZN4asio23socket_acceptor_serviceINS_2ip3tcpEED1Ev
	.set	_ZN4asio23socket_acceptor_serviceINS_2ip3tcpEED1Ev,_ZN4asio23socket_acceptor_serviceINS_2ip3tcpEED2Ev
	.section	.text._ZN4asio6detail10service_idINS0_13epoll_reactorEED2Ev,"axG",@progbits,_ZN4asio6detail10service_idINS0_13epoll_reactorEED5Ev,comdat
	.align	2
	.p2align 4,,11
	.weak	_ZN4asio6detail10service_idINS0_13epoll_reactorEED2Ev
	.type	_ZN4asio6detail10service_idINS0_13epoll_reactorEED2Ev, %function
_ZN4asio6detail10service_idINS0_13epoll_reactorEED2Ev:
.LFB9429:
	.cfi_startproc
	ret
	.cfi_endproc
.LFE9429:
	.size	_ZN4asio6detail10service_idINS0_13epoll_reactorEED2Ev, .-_ZN4asio6detail10service_idINS0_13epoll_reactorEED2Ev
	.weak	_ZN4asio6detail10service_idINS0_13epoll_reactorEED1Ev
	.set	_ZN4asio6detail10service_idINS0_13epoll_reactorEED1Ev,_ZN4asio6detail10service_idINS0_13epoll_reactorEED2Ev
	.section	.text._ZN4asio6detail10service_idINS0_15task_io_serviceEED2Ev,"axG",@progbits,_ZN4asio6detail10service_idINS0_15task_io_serviceEED5Ev,comdat
	.align	2
	.p2align 4,,11
	.weak	_ZN4asio6detail10service_idINS0_15task_io_serviceEED2Ev
	.type	_ZN4asio6detail10service_idINS0_15task_io_serviceEED2Ev, %function
_ZN4asio6detail10service_idINS0_15task_io_serviceEED2Ev:
.LFB9432:
	.cfi_startproc
	ret
	.cfi_endproc
.LFE9432:
	.size	_ZN4asio6detail10service_idINS0_15task_io_serviceEED2Ev, .-_ZN4asio6detail10service_idINS0_15task_io_serviceEED2Ev
	.weak	_ZN4asio6detail10service_idINS0_15task_io_serviceEED1Ev
	.set	_ZN4asio6detail10service_idINS0_15task_io_serviceEED1Ev,_ZN4asio6detail10service_idINS0_15task_io_serviceEED2Ev
	.section	.text._ZN4asio6detail10service_idINS0_14strand_serviceEED2Ev,"axG",@progbits,_ZN4asio6detail10service_idINS0_14strand_serviceEED5Ev,comdat
	.align	2
	.p2align 4,,11
	.weak	_ZN4asio6detail10service_idINS0_14strand_serviceEED2Ev
	.type	_ZN4asio6detail10service_idINS0_14strand_serviceEED2Ev, %function
_ZN4asio6detail10service_idINS0_14strand_serviceEED2Ev:
.LFB9438:
	.cfi_startproc
	ret
	.cfi_endproc
.LFE9438:
	.size	_ZN4asio6detail10service_idINS0_14strand_serviceEED2Ev, .-_ZN4asio6detail10service_idINS0_14strand_serviceEED2Ev
	.weak	_ZN4asio6detail10service_idINS0_14strand_serviceEED1Ev
	.set	_ZN4asio6detail10service_idINS0_14strand_serviceEED1Ev,_ZN4asio6detail10service_idINS0_14strand_serviceEED2Ev
	.section	.text._ZN4asio6detail10service_idINS_23socket_acceptor_serviceINS_2ip3tcpEEEED2Ev,"axG",@progbits,_ZN4asio6detail10service_idINS_23socket_acceptor_serviceINS_2ip3tcpEEEED5Ev,comdat
	.align	2
	.p2align 4,,11
	.weak	_ZN4asio6detail10service_idINS_23socket_acceptor_serviceINS_2ip3tcpEEEED2Ev
	.type	_ZN4asio6detail10service_idINS_23socket_acceptor_serviceINS_2ip3tcpEEEED2Ev, %function
_ZN4asio6detail10service_idINS_23socket_acceptor_serviceINS_2ip3tcpEEEED2Ev:
.LFB9441:
	.cfi_startproc
	ret
	.cfi_endproc
.LFE9441:
	.size	_ZN4asio6detail10service_idINS_23socket_acceptor_serviceINS_2ip3tcpEEEED2Ev, .-_ZN4asio6detail10service_idINS_23socket_acceptor_serviceINS_2ip3tcpEEEED2Ev
	.weak	_ZN4asio6detail10service_idINS_23socket_acceptor_serviceINS_2ip3tcpEEEED1Ev
	.set	_ZN4asio6detail10service_idINS_23socket_acceptor_serviceINS_2ip3tcpEEEED1Ev,_ZN4asio6detail10service_idINS_23socket_acceptor_serviceINS_2ip3tcpEEEED2Ev
	.section	.text._ZN4asio6detail10service_idINS_21stream_socket_serviceINS_2ip3tcpEEEED2Ev,"axG",@progbits,_ZN4asio6detail10service_idINS_21stream_socket_serviceINS_2ip3tcpEEEED5Ev,comdat
	.align	2
	.p2align 4,,11
	.weak	_ZN4asio6detail10service_idINS_21stream_socket_serviceINS_2ip3tcpEEEED2Ev
	.type	_ZN4asio6detail10service_idINS_21stream_socket_serviceINS_2ip3tcpEEEED2Ev, %function
_ZN4asio6detail10service_idINS_21stream_socket_serviceINS_2ip3tcpEEEED2Ev:
.LFB9444:
	.cfi_startproc
	ret
	.cfi_endproc
.LFE9444:
	.size	_ZN4asio6detail10service_idINS_21stream_socket_serviceINS_2ip3tcpEEEED2Ev, .-_ZN4asio6detail10service_idINS_21stream_socket_serviceINS_2ip3tcpEEEED2Ev
	.weak	_ZN4asio6detail10service_idINS_21stream_socket_serviceINS_2ip3tcpEEEED1Ev
	.set	_ZN4asio6detail10service_idINS_21stream_socket_serviceINS_2ip3tcpEEEED1Ev,_ZN4asio6detail10service_idINS_21stream_socket_serviceINS_2ip3tcpEEEED2Ev
	.section	.text._ZN4asio21stream_socket_serviceINS_2ip3tcpEE16shutdown_serviceEv,"axG",@progbits,_ZN4asio21stream_socket_serviceINS_2ip3tcpEE16shutdown_serviceEv,comdat
	.align	2
	.p2align 4,,11
	.weak	_ZN4asio21stream_socket_serviceINS_2ip3tcpEE16shutdown_serviceEv
	.type	_ZN4asio21stream_socket_serviceINS_2ip3tcpEE16shutdown_serviceEv, %function
_ZN4asio21stream_socket_serviceINS_2ip3tcpEE16shutdown_serviceEv:
.LFB9482:
	.cfi_startproc
	ret
	.cfi_endproc
.LFE9482:
	.size	_ZN4asio21stream_socket_serviceINS_2ip3tcpEE16shutdown_serviceEv, .-_ZN4asio21stream_socket_serviceINS_2ip3tcpEE16shutdown_serviceEv
	.section	.text._ZN4asio23socket_acceptor_serviceINS_2ip3tcpEE16shutdown_serviceEv,"axG",@progbits,_ZN4asio23socket_acceptor_serviceINS_2ip3tcpEE16shutdown_serviceEv,comdat
	.align	2
	.p2align 4,,11
	.weak	_ZN4asio23socket_acceptor_serviceINS_2ip3tcpEE16shutdown_serviceEv
	.type	_ZN4asio23socket_acceptor_serviceINS_2ip3tcpEE16shutdown_serviceEv, %function
_ZN4asio23socket_acceptor_serviceINS_2ip3tcpEE16shutdown_serviceEv:
.LFB9483:
	.cfi_startproc
	ret
	.cfi_endproc
.LFE9483:
	.size	_ZN4asio23socket_acceptor_serviceINS_2ip3tcpEE16shutdown_serviceEv, .-_ZN4asio23socket_acceptor_serviceINS_2ip3tcpEE16shutdown_serviceEv
	.section	.text._ZN4asio23socket_acceptor_serviceINS_2ip3tcpEED0Ev,"axG",@progbits,_ZN4asio23socket_acceptor_serviceINS_2ip3tcpEED5Ev,comdat
	.align	2
	.p2align 4,,11
	.weak	_ZN4asio23socket_acceptor_serviceINS_2ip3tcpEED0Ev
	.type	_ZN4asio23socket_acceptor_serviceINS_2ip3tcpEED0Ev, %function
_ZN4asio23socket_acceptor_serviceINS_2ip3tcpEED0Ev:
.LFB9355:
	.cfi_startproc
	mov	x1, 48
	b	_ZdlPvm
	.cfi_endproc
.LFE9355:
	.size	_ZN4asio23socket_acceptor_serviceINS_2ip3tcpEED0Ev, .-_ZN4asio23socket_acceptor_serviceINS_2ip3tcpEED0Ev
	.section	.text._ZN4asio21stream_socket_serviceINS_2ip3tcpEED0Ev,"axG",@progbits,_ZN4asio21stream_socket_serviceINS_2ip3tcpEED5Ev,comdat
	.align	2
	.p2align 4,,11
	.weak	_ZN4asio21stream_socket_serviceINS_2ip3tcpEED0Ev
	.type	_ZN4asio21stream_socket_serviceINS_2ip3tcpEED0Ev, %function
_ZN4asio21stream_socket_serviceINS_2ip3tcpEED0Ev:
.LFB9351:
	.cfi_startproc
	mov	x1, 48
	b	_ZdlPvm
	.cfi_endproc
.LFE9351:
	.size	_ZN4asio21stream_socket_serviceINS_2ip3tcpEED0Ev, .-_ZN4asio21stream_socket_serviceINS_2ip3tcpEED0Ev
	.section	.text._ZN4asio6detail15system_categoryD2Ev,"axG",@progbits,_ZN4asio6detail15system_categoryD5Ev,comdat
	.align	2
	.p2align 4,,11
	.weak	_ZN4asio6detail15system_categoryD2Ev
	.type	_ZN4asio6detail15system_categoryD2Ev, %function
_ZN4asio6detail15system_categoryD2Ev:
.LFB9405:
	.cfi_startproc
	adrp	x1, :got:_ZTVN4asio6detail15system_categoryE
	ldr	x1, [x1, #:got_lo12:_ZTVN4asio6detail15system_categoryE]
	add	x1, x1, 16
	str	x1, [x0]
	b	_ZNSt3_V214error_categoryD2Ev
	.cfi_endproc
.LFE9405:
	.size	_ZN4asio6detail15system_categoryD2Ev, .-_ZN4asio6detail15system_categoryD2Ev
	.weak	_ZN4asio6detail15system_categoryD1Ev
	.set	_ZN4asio6detail15system_categoryD1Ev,_ZN4asio6detail15system_categoryD2Ev
	.section	.text._ZN4asio6detail15system_categoryD0Ev,"axG",@progbits,_ZN4asio6detail15system_categoryD5Ev,comdat
	.align	2
	.p2align 4,,11
	.weak	_ZN4asio6detail15system_categoryD0Ev
	.type	_ZN4asio6detail15system_categoryD0Ev, %function
_ZN4asio6detail15system_categoryD0Ev:
.LFB9407:
	.cfi_startproc
	stp	x29, x30, [sp, -32]!
	.cfi_def_cfa_offset 32
	.cfi_offset 29, -32
	.cfi_offset 30, -24
	adrp	x1, :got:_ZTVN4asio6detail15system_categoryE
	mov	x29, sp
	ldr	x1, [x1, #:got_lo12:_ZTVN4asio6detail15system_categoryE]
	str	x19, [sp, 16]
	.cfi_offset 19, -16
	mov	x19, x0
	add	x1, x1, 16
	str	x1, [x0]
	bl	_ZNSt3_V214error_categoryD2Ev
	mov	x0, x19
	mov	x1, 8
	ldr	x19, [sp, 16]
	ldp	x29, x30, [sp], 32
	.cfi_restore 30
	.cfi_restore 29
	.cfi_restore 19
	.cfi_def_cfa_offset 0
	b	_ZdlPvm
	.cfi_endproc
.LFE9407:
	.size	_ZN4asio6detail15system_categoryD0Ev, .-_ZN4asio6detail15system_categoryD0Ev
	.section	.text._ZN4asio5error6detail13misc_categoryD2Ev,"axG",@progbits,_ZN4asio5error6detail13misc_categoryD5Ev,comdat
	.align	2
	.p2align 4,,11
	.weak	_ZN4asio5error6detail13misc_categoryD2Ev
	.type	_ZN4asio5error6detail13misc_categoryD2Ev, %function
_ZN4asio5error6detail13misc_categoryD2Ev:
.LFB9393:
	.cfi_startproc
	adrp	x1, :got:_ZTVN4asio5error6detail13misc_categoryE
	ldr	x1, [x1, #:got_lo12:_ZTVN4asio5error6detail13misc_categoryE]
	add	x1, x1, 16
	str	x1, [x0]
	b	_ZNSt3_V214error_categoryD2Ev
	.cfi_endproc
.LFE9393:
	.size	_ZN4asio5error6detail13misc_categoryD2Ev, .-_ZN4asio5error6detail13misc_categoryD2Ev
	.weak	_ZN4asio5error6detail13misc_categoryD1Ev
	.set	_ZN4asio5error6detail13misc_categoryD1Ev,_ZN4asio5error6detail13misc_categoryD2Ev
	.section	.text._ZN4asio5error6detail13misc_categoryD0Ev,"axG",@progbits,_ZN4asio5error6detail13misc_categoryD5Ev,comdat
	.align	2
	.p2align 4,,11
	.weak	_ZN4asio5error6detail13misc_categoryD0Ev
	.type	_ZN4asio5error6detail13misc_categoryD0Ev, %function
_ZN4asio5error6detail13misc_categoryD0Ev:
.LFB9395:
	.cfi_startproc
	stp	x29, x30, [sp, -32]!
	.cfi_def_cfa_offset 32
	.cfi_offset 29, -32
	.cfi_offset 30, -24
	adrp	x1, :got:_ZTVN4asio5error6detail13misc_categoryE
	mov	x29, sp
	ldr	x1, [x1, #:got_lo12:_ZTVN4asio5error6detail13misc_categoryE]
	str	x19, [sp, 16]
	.cfi_offset 19, -16
	mov	x19, x0
	add	x1, x1, 16
	str	x1, [x0]
	bl	_ZNSt3_V214error_categoryD2Ev
	mov	x0, x19
	mov	x1, 8
	ldr	x19, [sp, 16]
	ldp	x29, x30, [sp], 32
	.cfi_restore 30
	.cfi_restore 29
	.cfi_restore 19
	.cfi_def_cfa_offset 0
	b	_ZdlPvm
	.cfi_endproc
.LFE9395:
	.size	_ZN4asio5error6detail13misc_categoryD0Ev, .-_ZN4asio5error6detail13misc_categoryD0Ev
	.section	.text._ZN4asio5error6detail14netdb_categoryD2Ev,"axG",@progbits,_ZN4asio5error6detail14netdb_categoryD5Ev,comdat
	.align	2
	.p2align 4,,11
	.weak	_ZN4asio5error6detail14netdb_categoryD2Ev
	.type	_ZN4asio5error6detail14netdb_categoryD2Ev, %function
_ZN4asio5error6detail14netdb_categoryD2Ev:
.LFB9401:
	.cfi_startproc
	adrp	x1, :got:_ZTVN4asio5error6detail14netdb_categoryE
	ldr	x1, [x1, #:got_lo12:_ZTVN4asio5error6detail14netdb_categoryE]
	add	x1, x1, 16
	str	x1, [x0]
	b	_ZNSt3_V214error_categoryD2Ev
	.cfi_endproc
.LFE9401:
	.size	_ZN4asio5error6detail14netdb_categoryD2Ev, .-_ZN4asio5error6detail14netdb_categoryD2Ev
	.weak	_ZN4asio5error6detail14netdb_categoryD1Ev
	.set	_ZN4asio5error6detail14netdb_categoryD1Ev,_ZN4asio5error6detail14netdb_categoryD2Ev
	.section	.text._ZN4asio5error6detail14netdb_categoryD0Ev,"axG",@progbits,_ZN4asio5error6detail14netdb_categoryD5Ev,comdat
	.align	2
	.p2align 4,,11
	.weak	_ZN4asio5error6detail14netdb_categoryD0Ev
	.type	_ZN4asio5error6detail14netdb_categoryD0Ev, %function
_ZN4asio5error6detail14netdb_categoryD0Ev:
.LFB9403:
	.cfi_startproc
	stp	x29, x30, [sp, -32]!
	.cfi_def_cfa_offset 32
	.cfi_offset 29, -32
	.cfi_offset 30, -24
	adrp	x1, :got:_ZTVN4asio5error6detail14netdb_categoryE
	mov	x29, sp
	ldr	x1, [x1, #:got_lo12:_ZTVN4asio5error6detail14netdb_categoryE]
	str	x19, [sp, 16]
	.cfi_offset 19, -16
	mov	x19, x0
	add	x1, x1, 16
	str	x1, [x0]
	bl	_ZNSt3_V214error_categoryD2Ev
	mov	x0, x19
	mov	x1, 8
	ldr	x19, [sp, 16]
	ldp	x29, x30, [sp], 32
	.cfi_restore 30
	.cfi_restore 29
	.cfi_restore 19
	.cfi_def_cfa_offset 0
	b	_ZdlPvm
	.cfi_endproc
.LFE9403:
	.size	_ZN4asio5error6detail14netdb_categoryD0Ev, .-_ZN4asio5error6detail14netdb_categoryD0Ev
	.section	.text._ZN4asio5error6detail17addrinfo_categoryD2Ev,"axG",@progbits,_ZN4asio5error6detail17addrinfo_categoryD5Ev,comdat
	.align	2
	.p2align 4,,11
	.weak	_ZN4asio5error6detail17addrinfo_categoryD2Ev
	.type	_ZN4asio5error6detail17addrinfo_categoryD2Ev, %function
_ZN4asio5error6detail17addrinfo_categoryD2Ev:
.LFB9397:
	.cfi_startproc
	adrp	x1, :got:_ZTVN4asio5error6detail17addrinfo_categoryE
	ldr	x1, [x1, #:got_lo12:_ZTVN4asio5error6detail17addrinfo_categoryE]
	add	x1, x1, 16
	str	x1, [x0]
	b	_ZNSt3_V214error_categoryD2Ev
	.cfi_endproc
.LFE9397:
	.size	_ZN4asio5error6detail17addrinfo_categoryD2Ev, .-_ZN4asio5error6detail17addrinfo_categoryD2Ev
	.weak	_ZN4asio5error6detail17addrinfo_categoryD1Ev
	.set	_ZN4asio5error6detail17addrinfo_categoryD1Ev,_ZN4asio5error6detail17addrinfo_categoryD2Ev
	.section	.text._ZN4asio5error6detail17addrinfo_categoryD0Ev,"axG",@progbits,_ZN4asio5error6detail17addrinfo_categoryD5Ev,comdat
	.align	2
	.p2align 4,,11
	.weak	_ZN4asio5error6detail17addrinfo_categoryD0Ev
	.type	_ZN4asio5error6detail17addrinfo_categoryD0Ev, %function
_ZN4asio5error6detail17addrinfo_categoryD0Ev:
.LFB9399:
	.cfi_startproc
	stp	x29, x30, [sp, -32]!
	.cfi_def_cfa_offset 32
	.cfi_offset 29, -32
	.cfi_offset 30, -24
	adrp	x1, :got:_ZTVN4asio5error6detail17addrinfo_categoryE
	mov	x29, sp
	ldr	x1, [x1, #:got_lo12:_ZTVN4asio5error6detail17addrinfo_categoryE]
	str	x19, [sp, 16]
	.cfi_offset 19, -16
	mov	x19, x0
	add	x1, x1, 16
	str	x1, [x0]
	bl	_ZNSt3_V214error_categoryD2Ev
	mov	x0, x19
	mov	x1, 8
	ldr	x19, [sp, 16]
	ldp	x29, x30, [sp], 32
	.cfi_restore 30
	.cfi_restore 29
	.cfi_restore 19
	.cfi_def_cfa_offset 0
	b	_ZdlPvm
	.cfi_endproc
.LFE9399:
	.size	_ZN4asio5error6detail17addrinfo_categoryD0Ev, .-_ZN4asio5error6detail17addrinfo_categoryD0Ev
	.section	.text._ZN4asio6detail7tss_ptrINS0_10call_stackINS0_15task_io_serviceENS0_27task_io_service_thread_infoEE7contextEED2Ev,"axG",@progbits,_ZN4asio6detail7tss_ptrINS0_10call_stackINS0_15task_io_serviceENS0_27task_io_service_thread_infoEE7contextEED5Ev,comdat
	.align	2
	.p2align 4,,11
	.weak	_ZN4asio6detail7tss_ptrINS0_10call_stackINS0_15task_io_serviceENS0_27task_io_service_thread_infoEE7contextEED2Ev
	.type	_ZN4asio6detail7tss_ptrINS0_10call_stackINS0_15task_io_serviceENS0_27task_io_service_thread_infoEE7contextEED2Ev, %function
_ZN4asio6detail7tss_ptrINS0_10call_stackINS0_15task_io_serviceENS0_27task_io_service_thread_infoEE7contextEED2Ev:
.LFB9426:
	.cfi_startproc
	ldr	w0, [x0]
	b	pthread_key_delete
	.cfi_endproc
.LFE9426:
	.size	_ZN4asio6detail7tss_ptrINS0_10call_stackINS0_15task_io_serviceENS0_27task_io_service_thread_infoEE7contextEED2Ev, .-_ZN4asio6detail7tss_ptrINS0_10call_stackINS0_15task_io_serviceENS0_27task_io_service_thread_infoEE7contextEED2Ev
	.weak	_ZN4asio6detail7tss_ptrINS0_10call_stackINS0_15task_io_serviceENS0_27task_io_service_thread_infoEE7contextEED1Ev
	.set	_ZN4asio6detail7tss_ptrINS0_10call_stackINS0_15task_io_serviceENS0_27task_io_service_thread_infoEE7contextEED1Ev,_ZN4asio6detail7tss_ptrINS0_10call_stackINS0_15task_io_serviceENS0_27task_io_service_thread_infoEE7contextEED2Ev
	.section	.text._ZN4asio6detail7tss_ptrINS0_10call_stackINS0_14strand_service11strand_implEhE7contextEED2Ev,"axG",@progbits,_ZN4asio6detail7tss_ptrINS0_10call_stackINS0_14strand_service11strand_implEhE7contextEED5Ev,comdat
	.align	2
	.p2align 4,,11
	.weak	_ZN4asio6detail7tss_ptrINS0_10call_stackINS0_14strand_service11strand_implEhE7contextEED2Ev
	.type	_ZN4asio6detail7tss_ptrINS0_10call_stackINS0_14strand_service11strand_implEhE7contextEED2Ev, %function
_ZN4asio6detail7tss_ptrINS0_10call_stackINS0_14strand_service11strand_implEhE7contextEED2Ev:
.LFB9435:
	.cfi_startproc
	ldr	w0, [x0]
	b	pthread_key_delete
	.cfi_endproc
.LFE9435:
	.size	_ZN4asio6detail7tss_ptrINS0_10call_stackINS0_14strand_service11strand_implEhE7contextEED2Ev, .-_ZN4asio6detail7tss_ptrINS0_10call_stackINS0_14strand_service11strand_implEhE7contextEED2Ev
	.weak	_ZN4asio6detail7tss_ptrINS0_10call_stackINS0_14strand_service11strand_implEhE7contextEED1Ev
	.set	_ZN4asio6detail7tss_ptrINS0_10call_stackINS0_14strand_service11strand_implEhE7contextEED1Ev,_ZN4asio6detail7tss_ptrINS0_10call_stackINS0_14strand_service11strand_implEhE7contextEED2Ev
	.section	.text.unlikely,"ax",@progbits
	.align	2
	.type	_ZN4asio6detail15throw_exceptionISt8bad_castEEvRKT_.isra.0, %function
_ZN4asio6detail15throw_exceptionISt8bad_castEEvRKT_.isra.0:
.LFB9552:
	.cfi_startproc
	stp	x29, x30, [sp, -16]!
	.cfi_def_cfa_offset 16
	.cfi_offset 29, -16
	.cfi_offset 30, -8
	mov	x0, 8
	mov	x29, sp
	bl	__cxa_allocate_exception
	adrp	x3, :got:_ZTVSt8bad_cast
	adrp	x2, :got:_ZNSt8bad_castD1Ev
	adrp	x1, :got:_ZTISt8bad_cast
	ldr	x3, [x3, #:got_lo12:_ZTVSt8bad_cast]
	ldr	x2, [x2, #:got_lo12:_ZNSt8bad_castD1Ev]
	add	x3, x3, 16
	ldr	x1, [x1, #:got_lo12:_ZTISt8bad_cast]
	str	x3, [x0]
	bl	__cxa_throw
	.cfi_endproc
.LFE9552:
	.size	_ZN4asio6detail15throw_exceptionISt8bad_castEEvRKT_.isra.0, .-_ZN4asio6detail15throw_exceptionISt8bad_castEEvRKT_.isra.0
	.section	.text._ZN4asio6detail13epoll_reactorD2Ev,"axG",@progbits,_ZN4asio6detail13epoll_reactorD5Ev,comdat
	.align	2
	.p2align 4,,11
	.weak	_ZN4asio6detail13epoll_reactorD2Ev
	.type	_ZN4asio6detail13epoll_reactorD2Ev, %function
_ZN4asio6detail13epoll_reactorD2Ev:
.LFB3305:
	.cfi_startproc
	.cfi_personality 0x9b,DW.ref.__gxx_personality_v0
	.cfi_lsda 0x1b,.LLSDA3305
	stp	x29, x30, [sp, -128]!
	.cfi_def_cfa_offset 128
	.cfi_offset 29, -128
	.cfi_offset 30, -120
	adrp	x2, :got:__stack_chk_guard
	adrp	x1, :got:_ZTVN4asio6detail13epoll_reactorE
	mov	x29, sp
	ldr	x2, [x2, #:got_lo12:__stack_chk_guard]
	stp	x19, x20, [sp, 16]
	stp	x21, x22, [sp, 32]
	.cfi_offset 19, -112
	.cfi_offset 20, -104
	.cfi_offset 21, -96
	.cfi_offset 22, -88
	mov	x21, x0
	stp	x23, x24, [sp, 48]
	str	x25, [sp, 64]
	.cfi_offset 23, -80
	.cfi_offset 24, -72
	.cfi_offset 25, -64
	ldr	x1, [x1, #:got_lo12:_ZTVN4asio6detail13epoll_reactorE]
	ldr	x0, [x2]
	str	x0, [sp, 120]
	mov	x0, 0
	ldr	w0, [x21, 104]
	add	x1, x1, 16
	str	x1, [x21]
	cmn	w0, #1
	beq	.L36
	bl	close
.L36:
	ldr	w0, [x21, 108]
	cmn	w0, #1
	beq	.L37
	bl	close
.L37:
	ldr	x24, [x21, 176]
	add	x22, sp, 104
	cbz	x24, .L48
	.p2align 3,,7
.L38:
	mov	x23, x24
	add	x19, x24, 136
	add	x25, x24, 88
	ldr	x24, [x24, 24]
.L43:
	ldr	x1, [x19]
	cbz	x1, .L45
	str	x1, [sp, 88]
	bl	_ZNSt3_V215system_categoryEv
	mov	x20, x0
	ldr	x1, [sp, 88]
	b	.L47
	.p2align 2,,3
.L44:
	ldr	x4, [x1, 8]
	str	xzr, [x1]
	str	wzr, [sp, 104]
	mov	x2, x22
	str	x20, [sp, 112]
	mov	x3, 0
	mov	x0, 0
	blr	x4
	ldr	x1, [x19]
	cbz	x1, .L45
.L47:
	ldr	x2, [x1]
	str	x2, [x19]
	cbnz	x2, .L44
	ldr	x4, [x1, 8]
	str	xzr, [x19, 8]
	str	xzr, [x1]
	mov	x2, x22
	str	wzr, [sp, 104]
	mov	x3, 0
	str	x20, [sp, 112]
	mov	x0, 0
	blr	x4
	ldr	x1, [x19]
	cbnz	x1, .L47
.L45:
	sub	x19, x19, #16
	cmp	x19, x25
	bne	.L43
	add	x0, x23, 40
	bl	pthread_mutex_destroy
	mov	x0, x23
	mov	x1, 160
	bl	_ZdlPvm
	cbnz	x24, .L38
.L48:
	ldr	x24, [x21, 184]
	add	x22, sp, 104
	cbz	x24, .L40
	.p2align 3,,7
.L39:
	mov	x23, x24
	add	x19, x24, 136
	add	x25, x24, 88
	ldr	x24, [x24, 24]
.L53:
	ldr	x1, [x19]
	cbz	x1, .L55
	str	x1, [sp, 88]
	bl	_ZNSt3_V215system_categoryEv
	mov	x20, x0
	ldr	x1, [sp, 88]
	b	.L57
	.p2align 2,,3
.L54:
	ldr	x4, [x1, 8]
	str	xzr, [x1]
	str	wzr, [sp, 104]
	mov	x2, x22
	str	x20, [sp, 112]
	mov	x3, 0
	mov	x0, 0
	blr	x4
	ldr	x1, [x19]
	cbz	x1, .L55
.L57:
	ldr	x2, [x1]
	str	x2, [x19]
	cbnz	x2, .L54
	ldr	x4, [x1, 8]
	str	xzr, [x19, 8]
	str	xzr, [x1]
	mov	x2, x22
	str	wzr, [sp, 104]
	mov	x3, 0
	str	x20, [sp, 112]
	mov	x0, 0
	blr	x4
	ldr	x1, [x19]
	cbnz	x1, .L57
.L55:
	sub	x19, x19, #16
	cmp	x19, x25
	bne	.L53
	add	x0, x23, 40
	bl	pthread_mutex_destroy
	mov	x0, x23
	mov	x1, 160
	bl	_ZdlPvm
	cbnz	x24, .L39
.L40:
	add	x0, x21, 128
	bl	pthread_mutex_destroy
	ldr	w1, [x21, 100]
	cmn	w1, #1
	beq	.L94
	ldr	w0, [x21, 96]
	cmp	w1, w0
	bne	.L95
.L59:
	bl	close
	b	.L60
.L95:
	mov	w0, w1
	bl	close
.L94:
	ldr	w0, [x21, 96]
	cmn	w0, #1
	bne	.L59
.L60:
	adrp	x0, :got:__stack_chk_guard
	ldr	x0, [x0, #:got_lo12:__stack_chk_guard]
	ldr	x2, [sp, 120]
	ldr	x1, [x0]
	subs	x2, x2, x1
	mov	x1, 0
	bne	.L96
	add	x0, x21, 48
	ldp	x19, x20, [sp, 16]
	ldp	x21, x22, [sp, 32]
	ldp	x23, x24, [sp, 48]
	ldr	x25, [sp, 64]
	ldp	x29, x30, [sp], 128
	.cfi_remember_state
	.cfi_restore 30
	.cfi_restore 29
	.cfi_restore 25
	.cfi_restore 23
	.cfi_restore 24
	.cfi_restore 21
	.cfi_restore 22
	.cfi_restore 19
	.cfi_restore 20
	.cfi_def_cfa_offset 0
	b	pthread_mutex_destroy
.L96:
	.cfi_restore_state
	bl	__stack_chk_fail
	.cfi_endproc
.LFE3305:
	.global	__gxx_personality_v0
	.section	.gcc_except_table._ZN4asio6detail13epoll_reactorD2Ev,"aG",@progbits,_ZN4asio6detail13epoll_reactorD5Ev,comdat
.LLSDA3305:
	.byte	0xff
	.byte	0xff
	.byte	0x1
	.uleb128 .LLSDACSE3305-.LLSDACSB3305
.LLSDACSB3305:
.LLSDACSE3305:
	.section	.text._ZN4asio6detail13epoll_reactorD2Ev,"axG",@progbits,_ZN4asio6detail13epoll_reactorD5Ev,comdat
	.size	_ZN4asio6detail13epoll_reactorD2Ev, .-_ZN4asio6detail13epoll_reactorD2Ev
	.weak	_ZN4asio6detail13epoll_reactorD1Ev
	.set	_ZN4asio6detail13epoll_reactorD1Ev,_ZN4asio6detail13epoll_reactorD2Ev
	.section	.text._ZN4asio6detail13epoll_reactorD0Ev,"axG",@progbits,_ZN4asio6detail13epoll_reactorD5Ev,comdat
	.align	2
	.p2align 4,,11
	.weak	_ZN4asio6detail13epoll_reactorD0Ev
	.type	_ZN4asio6detail13epoll_reactorD0Ev, %function
_ZN4asio6detail13epoll_reactorD0Ev:
.LFB3307:
	.cfi_startproc
	.cfi_personality 0x9b,DW.ref.__gxx_personality_v0
	.cfi_lsda 0x1b,.LLSDA3307
	stp	x29, x30, [sp, -128]!
	.cfi_def_cfa_offset 128
	.cfi_offset 29, -128
	.cfi_offset 30, -120
	adrp	x2, :got:__stack_chk_guard
	adrp	x1, :got:_ZTVN4asio6detail13epoll_reactorE
	mov	x29, sp
	ldr	x2, [x2, #:got_lo12:__stack_chk_guard]
	stp	x19, x20, [sp, 16]
	stp	x21, x22, [sp, 32]
	.cfi_offset 19, -112
	.cfi_offset 20, -104
	.cfi_offset 21, -96
	.cfi_offset 22, -88
	mov	x21, x0
	stp	x23, x24, [sp, 48]
	str	x25, [sp, 64]
	.cfi_offset 23, -80
	.cfi_offset 24, -72
	.cfi_offset 25, -64
	ldr	x1, [x1, #:got_lo12:_ZTVN4asio6detail13epoll_reactorE]
	ldr	x0, [x2]
	str	x0, [sp, 120]
	mov	x0, 0
	ldr	w0, [x21, 104]
	add	x1, x1, 16
	str	x1, [x21]
	cmn	w0, #1
	beq	.L98
	bl	close
.L98:
	ldr	w0, [x21, 108]
	cmn	w0, #1
	beq	.L99
	bl	close
.L99:
	ldr	x24, [x21, 176]
	add	x22, sp, 104
	cbz	x24, .L110
	.p2align 3,,7
.L100:
	mov	x23, x24
	add	x19, x24, 152
	add	x25, x24, 104
	ldr	x24, [x24, 24]
.L105:
	ldr	x1, [x19, -16]!
	cbz	x1, .L107
	str	x1, [sp, 88]
	bl	_ZNSt3_V215system_categoryEv
	mov	x20, x0
	ldr	x1, [sp, 88]
	b	.L109
	.p2align 2,,3
.L106:
	ldr	x4, [x1, 8]
	str	xzr, [x1]
	str	wzr, [sp, 104]
	mov	x2, x22
	str	x20, [sp, 112]
	mov	x3, 0
	mov	x0, 0
	blr	x4
	ldr	x1, [x19]
	cbz	x1, .L107
.L109:
	ldr	x2, [x1]
	str	x2, [x19]
	cbnz	x2, .L106
	ldr	x4, [x1, 8]
	str	xzr, [x19, 8]
	str	xzr, [x1]
	mov	x2, x22
	str	wzr, [sp, 104]
	mov	x3, 0
	str	x20, [sp, 112]
	mov	x0, 0
	blr	x4
	ldr	x1, [x19]
	cbnz	x1, .L109
.L107:
	cmp	x19, x25
	bne	.L105
	add	x0, x23, 40
	bl	pthread_mutex_destroy
	mov	x0, x23
	mov	x1, 160
	bl	_ZdlPvm
	cbnz	x24, .L100
.L110:
	ldr	x24, [x21, 184]
	add	x22, sp, 104
	cbz	x24, .L102
	.p2align 3,,7
.L101:
	mov	x23, x24
	add	x19, x24, 136
	add	x25, x24, 88
	ldr	x24, [x24, 24]
.L115:
	ldr	x1, [x19]
	cbz	x1, .L117
	str	x1, [sp, 88]
	bl	_ZNSt3_V215system_categoryEv
	mov	x20, x0
	ldr	x1, [sp, 88]
	b	.L119
	.p2align 2,,3
.L116:
	ldr	x4, [x1, 8]
	str	xzr, [x1]
	str	wzr, [sp, 104]
	mov	x2, x22
	str	x20, [sp, 112]
	mov	x3, 0
	mov	x0, 0
	blr	x4
	ldr	x1, [x19]
	cbz	x1, .L117
.L119:
	ldr	x2, [x1]
	str	x2, [x19]
	cbnz	x2, .L116
	ldr	x4, [x1, 8]
	str	xzr, [x19, 8]
	str	xzr, [x1]
	mov	x2, x22
	str	wzr, [sp, 104]
	mov	x3, 0
	str	x20, [sp, 112]
	mov	x0, 0
	blr	x4
	ldr	x1, [x19]
	cbnz	x1, .L119
.L117:
	sub	x19, x19, #16
	cmp	x19, x25
	bne	.L115
	add	x0, x23, 40
	bl	pthread_mutex_destroy
	mov	x0, x23
	mov	x1, 160
	bl	_ZdlPvm
	cbnz	x24, .L101
.L102:
	add	x0, x21, 128
	bl	pthread_mutex_destroy
	ldr	w1, [x21, 100]
	cmn	w1, #1
	beq	.L156
	ldr	w0, [x21, 96]
	cmp	w1, w0
	bne	.L157
.L121:
	bl	close
	b	.L122
.L157:
	mov	w0, w1
	bl	close
.L156:
	ldr	w0, [x21, 96]
	cmn	w0, #1
	bne	.L121
.L122:
	add	x0, x21, 48
	bl	pthread_mutex_destroy
	adrp	x0, :got:__stack_chk_guard
	ldr	x0, [x0, #:got_lo12:__stack_chk_guard]
	ldr	x2, [sp, 120]
	ldr	x1, [x0]
	subs	x2, x2, x1
	mov	x1, 0
	bne	.L158
	mov	x0, x21
	mov	x1, 192
	ldp	x19, x20, [sp, 16]
	ldp	x21, x22, [sp, 32]
	ldp	x23, x24, [sp, 48]
	ldr	x25, [sp, 64]
	ldp	x29, x30, [sp], 128
	.cfi_remember_state
	.cfi_restore 30
	.cfi_restore 29
	.cfi_restore 25
	.cfi_restore 23
	.cfi_restore 24
	.cfi_restore 21
	.cfi_restore 22
	.cfi_restore 19
	.cfi_restore 20
	.cfi_def_cfa_offset 0
	b	_ZdlPvm
.L158:
	.cfi_restore_state
	bl	__stack_chk_fail
	.cfi_endproc
.LFE3307:
	.section	.gcc_except_table._ZN4asio6detail13epoll_reactorD0Ev,"aG",@progbits,_ZN4asio6detail13epoll_reactorD5Ev,comdat
.LLSDA3307:
	.byte	0xff
	.byte	0xff
	.byte	0x1
	.uleb128 .LLSDACSE3307-.LLSDACSB3307
.LLSDACSB3307:
.LLSDACSE3307:
	.section	.text._ZN4asio6detail13epoll_reactorD0Ev,"axG",@progbits,_ZN4asio6detail13epoll_reactorD5Ev,comdat
	.size	_ZN4asio6detail13epoll_reactorD0Ev, .-_ZN4asio6detail13epoll_reactorD0Ev
	.section	.text._ZN4asio6detail13epoll_reactor16shutdown_serviceEv,"axG",@progbits,_ZN4asio6detail13epoll_reactor16shutdown_serviceEv,comdat
	.align	2
	.p2align 4,,11
	.weak	_ZN4asio6detail13epoll_reactor16shutdown_serviceEv
	.type	_ZN4asio6detail13epoll_reactor16shutdown_serviceEv, %function
_ZN4asio6detail13epoll_reactor16shutdown_serviceEv:
.LFB3308:
	.cfi_startproc
	.cfi_personality 0x9b,DW.ref.__gxx_personality_v0
	.cfi_lsda 0x1b,.LLSDA3308
	stp	x29, x30, [sp, -112]!
	.cfi_def_cfa_offset 112
	.cfi_offset 29, -112
	.cfi_offset 30, -104
	adrp	x1, :got:__stack_chk_guard
	mov	x29, sp
	ldr	x1, [x1, #:got_lo12:__stack_chk_guard]
	stp	x19, x20, [sp, 16]
	.cfi_offset 19, -96
	.cfi_offset 20, -88
	mov	x20, x0
	stp	x21, x22, [sp, 32]
	.cfi_offset 21, -80
	.cfi_offset 22, -72
	add	x21, x0, 48
	mov	x0, x21
	ldr	x2, [x1]
	str	x2, [sp, 104]
	mov	x2, 0
	mov	w19, 1
	bl	pthread_mutex_lock
	strb	w19, [x20, 120]
	mov	x0, x21
	bl	pthread_mutex_unlock
	movi	v0.4s, 0
	mov	x2, x20
	ldr	x1, [x2, 176]!
	str	q0, [sp, 64]
	cbz	x1, .L177
	.p2align 3,,7
.L160:
	ldr	x3, [x1, 104]
	cbz	x3, .L163
	ldr	x4, [sp, 72]
	cbz	x4, .L228
	str	x3, [x4]
.L166:
	ldr	x3, [x1, 112]
	str	x3, [sp, 72]
	str	q0, [x1, 104]
.L163:
	ldr	x3, [x1, 120]
	cbz	x3, .L167
	ldr	x4, [sp, 72]
	cbz	x4, .L229
	str	x3, [x4]
.L170:
	ldr	x3, [x1, 128]
	str	x3, [sp, 72]
	str	q0, [x1, 120]
.L167:
	ldr	x3, [x1, 136]
	cbz	x3, .L171
	ldr	x4, [sp, 72]
	cbz	x4, .L230
	str	x3, [x4]
.L174:
	ldr	x3, [x1, 144]
	str	x3, [sp, 72]
	str	q0, [x1, 136]
.L171:
	strb	w19, [x1, 152]
	ldr	x3, [x1, 24]
	str	x3, [x2]
	ldr	x3, [x1, 32]
	cbz	x3, .L175
	ldr	x4, [x1, 24]
	str	x4, [x3, 24]
.L175:
	ldr	x3, [x1, 24]
	cbz	x3, .L176
	ldr	x4, [x1, 32]
	str	x4, [x3, 32]
	ldr	x3, [x2, 8]
	stp	x3, xzr, [x1, 24]
	str	x1, [x2, 8]
	ldr	x1, [x2]
	cbnz	x1, .L160
.L177:
	ldr	x19, [x20, 112]
	add	x20, sp, 64
	cbz	x19, .L162
	.p2align 3,,7
.L161:
	ldr	x2, [x19]
	mov	x1, x20
	mov	x0, x19
	ldr	x2, [x2, 48]
.LEHB0:
	blr	x2
.LEHE0:
	ldr	x19, [x19, 8]
	cbnz	x19, .L161
.L162:
	ldr	x19, [sp, 64]
	cbz	x19, .L159
	add	x20, sp, 88
	stp	xzr, xzr, [sp, 64]
	bl	_ZNSt3_V215system_categoryEv
	mov	x21, x0
	.p2align 3,,7
.L181:
	mov	x1, x19
	mov	x2, x20
	ldr	x4, [x19, 8]
	mov	x3, 0
	ldr	x19, [x19]
	str	xzr, [x1]
	str	wzr, [sp, 88]
	mov	x0, 0
	str	x21, [sp, 96]
	blr	x4
	cbnz	x19, .L181
	ldr	x1, [sp, 64]
	str	x1, [sp, 56]
	cbz	x1, .L159
	bl	_ZNSt3_V215system_categoryEv
	mov	x19, x0
	ldr	x1, [sp, 56]
	b	.L186
	.p2align 2,,3
.L183:
	ldr	x4, [x1, 8]
	str	xzr, [x1]
	str	wzr, [sp, 88]
	mov	x2, x20
	str	x19, [sp, 96]
	mov	x3, 0
	mov	x0, 0
	blr	x4
	ldr	x1, [sp, 64]
	cbz	x1, .L159
.L186:
	ldr	x2, [x1]
	str	x2, [sp, 64]
	cbnz	x2, .L183
	ldr	x4, [x1, 8]
	str	xzr, [sp, 72]
	str	xzr, [x1]
	mov	x2, x20
	str	wzr, [sp, 88]
	mov	x3, 0
	str	x19, [sp, 96]
	mov	x0, 0
	blr	x4
	ldr	x1, [sp, 64]
	cbnz	x1, .L186
.L159:
	adrp	x0, :got:__stack_chk_guard
	ldr	x0, [x0, #:got_lo12:__stack_chk_guard]
	ldr	x2, [sp, 104]
	ldr	x1, [x0]
	subs	x2, x2, x1
	mov	x1, 0
	bne	.L231
	ldp	x19, x20, [sp, 16]
	ldp	x21, x22, [sp, 32]
	ldp	x29, x30, [sp], 112
	.cfi_remember_state
	.cfi_restore 30
	.cfi_restore 29
	.cfi_restore 21
	.cfi_restore 22
	.cfi_restore 19
	.cfi_restore 20
	.cfi_def_cfa_offset 0
	ret
	.p2align 2,,3
.L176:
	.cfi_restore_state
	ldr	x0, [x2, 8]
	stp	x0, xzr, [x1, 24]
	str	x1, [x2, 8]
	ldr	x1, [x2]
	cbnz	x1, .L160
	b	.L177
	.p2align 2,,3
.L228:
	str	x3, [sp, 64]
	b	.L166
	.p2align 2,,3
.L229:
	str	x3, [sp, 64]
	b	.L170
	.p2align 2,,3
.L230:
	str	x3, [sp, 64]
	b	.L174
.L231:
	bl	__stack_chk_fail
.L191:
	add	x21, sp, 88
	mov	x20, x0
.L187:
	ldr	x19, [sp, 64]
	cbnz	x19, .L232
	mov	x0, x20
.LEHB1:
	bl	_Unwind_Resume
.LEHE1:
.L232:
	ldr	x0, [x19]
	str	x0, [sp, 64]
	cbnz	x0, .L189
	str	xzr, [sp, 72]
.L189:
	str	xzr, [x19]
	ldr	x22, [x19, 8]
	str	wzr, [sp, 88]
	bl	_ZNSt3_V215system_categoryEv
	str	x0, [sp, 96]
	mov	x1, x19
	mov	x2, x21
	mov	x3, 0
	mov	x0, 0
	blr	x22
	b	.L187
	.cfi_endproc
.LFE3308:
	.section	.gcc_except_table._ZN4asio6detail13epoll_reactor16shutdown_serviceEv,"aG",@progbits,_ZN4asio6detail13epoll_reactor16shutdown_serviceEv,comdat
.LLSDA3308:
	.byte	0xff
	.byte	0xff
	.byte	0x1
	.uleb128 .LLSDACSE3308-.LLSDACSB3308
.LLSDACSB3308:
	.uleb128 .LEHB0-.LFB3308
	.uleb128 .LEHE0-.LEHB0
	.uleb128 .L191-.LFB3308
	.uleb128 0
	.uleb128 .LEHB1-.LFB3308
	.uleb128 .LEHE1-.LEHB1
	.uleb128 0
	.uleb128 0
.LLSDACSE3308:
	.section	.text._ZN4asio6detail13epoll_reactor16shutdown_serviceEv,"axG",@progbits,_ZN4asio6detail13epoll_reactor16shutdown_serviceEv,comdat
	.size	_ZN4asio6detail13epoll_reactor16shutdown_serviceEv, .-_ZN4asio6detail13epoll_reactor16shutdown_serviceEv
	.section	.rodata._ZNK4asio6detail15system_category7messageB5cxx11Ei.str1.8,"aMS",@progbits,1
	.align	3
.LC4:
	.string	"Operation aborted."
	.align	3
.LC5:
	.string	"basic_string::_M_construct null not valid"
	.section	.text._ZNK4asio6detail15system_category7messageB5cxx11Ei,"axG",@progbits,_ZNK4asio6detail15system_category7messageB5cxx11Ei,comdat
	.align	2
	.p2align 4,,11
	.weak	_ZNK4asio6detail15system_category7messageB5cxx11Ei
	.type	_ZNK4asio6detail15system_category7messageB5cxx11Ei, %function
_ZNK4asio6detail15system_category7messageB5cxx11Ei:
.LFB2280:
	.cfi_startproc
	stp	x29, x30, [sp, -320]!
	.cfi_def_cfa_offset 320
	.cfi_offset 29, -320
	.cfi_offset 30, -312
	adrp	x0, :got:__stack_chk_guard
	mov	x29, sp
	ldr	x2, [x0, #:got_lo12:__stack_chk_guard]
	stp	x19, x20, [sp, 16]
	mov	w0, w1
	stp	x21, x22, [sp, 32]
	.cfi_offset 19, -304
	.cfi_offset 20, -296
	.cfi_offset 21, -288
	.cfi_offset 22, -280
	mov	x19, x8
	add	x21, x8, 16
	ldr	x1, [x2]
	str	x1, [sp, 312]
	mov	x1, 0
	cmp	w0, 125
	beq	.L248
	movi	v0.4s, 0
	add	x3, sp, 72
	add	x1, sp, 56
	mov	x2, 256
	stp	xzr, xzr, [sp, 56]
	stp	q0, q0, [x3]
	stp	q0, q0, [x3, 32]
	stp	q0, q0, [x3, 64]
	stp	q0, q0, [x3, 96]
	stp	q0, q0, [x3, 128]
	stp	q0, q0, [x3, 160]
	stp	q0, q0, [x3, 192]
	str	q0, [x3, 224]
	bl	strerror_r
	mov	x22, x0
	str	x21, [x19]
	cbz	x0, .L236
	bl	strlen
	str	x0, [sp, 48]
	mov	x20, x0
	cmp	x0, 15
	bhi	.L249
	cmp	x0, 1
	bne	.L240
	ldrb	w0, [x22]
	strb	w0, [x19, 16]
.L241:
	str	x20, [x19, 8]
	strb	wzr, [x21, x20]
.L233:
	adrp	x0, :got:__stack_chk_guard
	ldr	x0, [x0, #:got_lo12:__stack_chk_guard]
	ldr	x2, [sp, 312]
	ldr	x1, [x0]
	subs	x2, x2, x1
	mov	x1, 0
	bne	.L250
	mov	x0, x19
	ldp	x19, x20, [sp, 16]
	ldp	x21, x22, [sp, 32]
	ldp	x29, x30, [sp], 320
	.cfi_remember_state
	.cfi_restore 30
	.cfi_restore 29
	.cfi_restore 21
	.cfi_restore 22
	.cfi_restore 19
	.cfi_restore 20
	.cfi_def_cfa_offset 0
	ret
	.p2align 2,,3
.L249:
	.cfi_restore_state
	add	x1, sp, 48
	mov	x0, x19
	mov	x2, 0
	bl	_ZNSt7__cxx1112basic_stringIcSt11char_traitsIcESaIcEE9_M_createERmm
	mov	x21, x0
	str	x0, [x19]
	ldr	x1, [sp, 48]
	str	x1, [x19, 16]
.L239:
	mov	x2, x20
	mov	x0, x21
	mov	x1, x22
	bl	memcpy
	ldr	x21, [x19]
	ldr	x20, [sp, 48]
	b	.L241
	.p2align 2,,3
.L248:
	mov	x3, 18
	str	x21, [x8]
	add	x1, sp, 48
	mov	x2, 0
	mov	x0, x8
	str	x3, [sp, 48]
	bl	_ZNSt7__cxx1112basic_stringIcSt11char_traitsIcESaIcEE9_M_createERmm
	str	x0, [x19]
	adrp	x1, .LC4
	add	x1, x1, :lo12:.LC4
	ldr	x2, [sp, 48]
	str	x2, [x19, 16]
	ldp	x2, x3, [x1]
	stp	x2, x3, [x0]
	ldrh	w1, [x1, 16]
	strh	w1, [x0, 16]
	ldr	x1, [x19]
	ldr	x0, [sp, 48]
	str	x0, [x19, 8]
	strb	wzr, [x1, x0]
	b	.L233
	.p2align 2,,3
.L240:
	cbz	x0, .L241
	b	.L239
.L236:
	adrp	x0, .LC5
	add	x0, x0, :lo12:.LC5
	bl	_ZSt19__throw_logic_errorPKc
.L250:
	bl	__stack_chk_fail
	.cfi_endproc
.LFE2280:
	.size	_ZNK4asio6detail15system_category7messageB5cxx11Ei, .-_ZNK4asio6detail15system_category7messageB5cxx11Ei
	.section	.rodata._ZNK4asio5error6detail17addrinfo_category7messageB5cxx11Ei.str1.8,"aMS",@progbits,1
	.align	3
.LC6:
	.string	"Service not found"
	.align	3
.LC7:
	.string	"Socket type not supported"
	.align	3
.LC8:
	.string	"asio.addrinfo error"
	.section	.text._ZNK4asio5error6detail17addrinfo_category7messageB5cxx11Ei,"axG",@progbits,_ZNK4asio5error6detail17addrinfo_category7messageB5cxx11Ei,comdat
	.align	2
	.p2align 4,,11
	.weak	_ZNK4asio5error6detail17addrinfo_category7messageB5cxx11Ei
	.type	_ZNK4asio5error6detail17addrinfo_category7messageB5cxx11Ei, %function
_ZNK4asio5error6detail17addrinfo_category7messageB5cxx11Ei:
.LFB2307:
	.cfi_startproc
	stp	x29, x30, [sp, -48]!
	.cfi_def_cfa_offset 48
	.cfi_offset 29, -48
	.cfi_offset 30, -40
	adrp	x0, :got:__stack_chk_guard
	add	x2, x8, 16
	mov	x29, sp
	ldr	x0, [x0, #:got_lo12:__stack_chk_guard]
	str	x19, [sp, 16]
	.cfi_offset 19, -32
	mov	x19, x8
	ldr	x3, [x0]
	str	x3, [sp, 40]
	mov	x3, 0
	str	x2, [x8]
	cmn	w1, #8
	beq	.L257
	cmn	w1, #7
	beq	.L258
	mov	x3, 19
	add	x1, sp, 32
	mov	x2, 0
	mov	x0, x8
	str	x3, [sp, 32]
	bl	_ZNSt7__cxx1112basic_stringIcSt11char_traitsIcESaIcEE9_M_createERmm
	adrp	x1, .LC8
	add	x1, x1, :lo12:.LC8
	ldr	x2, [sp, 32]
	str	x0, [x19]
	str	x2, [x19, 16]
	ldp	x2, x3, [x1]
	stp	x2, x3, [x0]
	ldr	w1, [x1, 15]
	str	w1, [x0, 15]
	ldr	x1, [x19]
	ldr	x0, [sp, 32]
	str	x0, [x19, 8]
	strb	wzr, [x1, x0]
.L251:
	adrp	x0, :got:__stack_chk_guard
	ldr	x0, [x0, #:got_lo12:__stack_chk_guard]
	ldr	x2, [sp, 40]
	ldr	x1, [x0]
	subs	x2, x2, x1
	mov	x1, 0
	bne	.L259
	mov	x0, x19
	ldr	x19, [sp, 16]
	ldp	x29, x30, [sp], 48
	.cfi_remember_state
	.cfi_restore 30
	.cfi_restore 29
	.cfi_restore 19
	.cfi_def_cfa_offset 0
	ret
	.p2align 2,,3
.L258:
	.cfi_restore_state
	mov	x3, 25
	add	x1, sp, 32
	mov	x2, 0
	mov	x0, x8
	str	x3, [sp, 32]
	bl	_ZNSt7__cxx1112basic_stringIcSt11char_traitsIcESaIcEE9_M_createERmm
	adrp	x1, .LC7
	add	x1, x1, :lo12:.LC7
	ldr	x2, [sp, 32]
	str	x0, [x19]
	ldr	q1, [x1]
	str	x2, [x19, 16]
	ldr	q0, [x1, 9]
	str	q1, [x0]
	str	q0, [x0, 9]
	ldr	x1, [x19]
	ldr	x0, [sp, 32]
	str	x0, [x19, 8]
	strb	wzr, [x1, x0]
	b	.L251
	.p2align 2,,3
.L257:
	mov	x3, 17
	add	x1, sp, 32
	mov	x2, 0
	mov	x0, x8
	str	x3, [sp, 32]
	bl	_ZNSt7__cxx1112basic_stringIcSt11char_traitsIcESaIcEE9_M_createERmm
	adrp	x1, .LC6
	add	x1, x1, :lo12:.LC6
	ldr	x2, [sp, 32]
	str	x0, [x19]
	str	x2, [x19, 16]
	ldp	x2, x3, [x1]
	stp	x2, x3, [x0]
	ldrb	w1, [x1, 16]
	strb	w1, [x0, 16]
	ldr	x1, [x19]
	ldr	x0, [sp, 32]
	str	x0, [x19, 8]
	strb	wzr, [x1, x0]
	b	.L251
.L259:
	bl	__stack_chk_fail
	.cfi_endproc
.LFE2307:
	.size	_ZNK4asio5error6detail17addrinfo_category7messageB5cxx11Ei, .-_ZNK4asio5error6detail17addrinfo_category7messageB5cxx11Ei
	.section	.rodata._ZNK4asio5error6detail13misc_category7messageB5cxx11Ei.str1.8,"aMS",@progbits,1
	.align	3
.LC9:
	.string	"Already open"
	.align	3
.LC10:
	.string	"End of file"
	.align	3
.LC11:
	.string	"Element not found"
	.align	3
.LC12:
	.string	"The descriptor does not fit into the select call's fd_set"
	.align	3
.LC13:
	.string	"asio.misc error"
	.section	.text._ZNK4asio5error6detail13misc_category7messageB5cxx11Ei,"axG",@progbits,_ZNK4asio5error6detail13misc_category7messageB5cxx11Ei,comdat
	.align	2
	.p2align 4,,11
	.weak	_ZNK4asio5error6detail13misc_category7messageB5cxx11Ei
	.type	_ZNK4asio5error6detail13misc_category7messageB5cxx11Ei, %function
_ZNK4asio5error6detail13misc_category7messageB5cxx11Ei:
.LFB2313:
	.cfi_startproc
	stp	x29, x30, [sp, -48]!
	.cfi_def_cfa_offset 48
	.cfi_offset 29, -48
	.cfi_offset 30, -40
	adrp	x0, :got:__stack_chk_guard
	add	x2, x8, 16
	mov	x29, sp
	ldr	x0, [x0, #:got_lo12:__stack_chk_guard]
	str	x19, [sp, 16]
	.cfi_offset 19, -32
	mov	x19, x8
	ldr	x3, [x0]
	str	x3, [sp, 40]
	mov	x3, 0
	cmp	w1, 1
	beq	.L268
	cmp	w1, 2
	beq	.L269
	cmp	w1, 3
	beq	.L270
	cmp	w1, 4
	beq	.L271
	adrp	x0, .LC13
	add	x0, x0, :lo12:.LC13
	str	x2, [x8]
	mov	x1, 15
	ldr	x3, [x0]
	str	x3, [x8, 16]
	ldr	x0, [x0, 7]
	str	x0, [x2, 7]
	str	x1, [x8, 8]
	strb	wzr, [x8, 31]
.L260:
	adrp	x0, :got:__stack_chk_guard
	ldr	x0, [x0, #:got_lo12:__stack_chk_guard]
	ldr	x2, [sp, 40]
	ldr	x1, [x0]
	subs	x2, x2, x1
	mov	x1, 0
	bne	.L272
	mov	x0, x19
	ldr	x19, [sp, 16]
	ldp	x29, x30, [sp], 48
	.cfi_remember_state
	.cfi_restore 30
	.cfi_restore 29
	.cfi_restore 19
	.cfi_def_cfa_offset 0
	ret
	.p2align 2,,3
.L268:
	.cfi_restore_state
	adrp	x0, .LC9
	add	x0, x0, :lo12:.LC9
	str	x2, [x8]
	mov	x1, 12
	ldr	x3, [x0]
	str	x3, [x8, 16]
	ldr	w0, [x0, 8]
	str	w0, [x2, 8]
	str	x1, [x8, 8]
	strb	wzr, [x8, 28]
	b	.L260
	.p2align 2,,3
.L271:
	mov	x3, 57
	str	x2, [x8]
	add	x1, sp, 32
	mov	x2, 0
	mov	x0, x8
	str	x3, [sp, 32]
	bl	_ZNSt7__cxx1112basic_stringIcSt11char_traitsIcESaIcEE9_M_createERmm
	str	x0, [x19]
	adrp	x1, .LC12
	add	x1, x1, :lo12:.LC12
	ldr	x2, [sp, 32]
	str	x2, [x19, 16]
	ldr	q3, [x1, 32]
	ldp	q1, q2, [x1]
	ldr	q0, [x1, 41]
	str	q3, [x0, 32]
	stp	q1, q2, [x0]
	str	q0, [x0, 41]
	ldr	x1, [x19]
	ldr	x0, [sp, 32]
	str	x0, [x19, 8]
	strb	wzr, [x1, x0]
	b	.L260
	.p2align 2,,3
.L269:
	adrp	x0, .LC10
	add	x0, x0, :lo12:.LC10
	str	x2, [x8]
	mov	x1, 11
	ldr	x3, [x0]
	str	x3, [x8, 16]
	ldr	w0, [x0, 7]
	str	w0, [x2, 7]
	str	x1, [x8, 8]
	strb	wzr, [x8, 27]
	b	.L260
	.p2align 2,,3
.L270:
	mov	x3, 17
	str	x2, [x8]
	add	x1, sp, 32
	mov	x2, 0
	mov	x0, x8
	str	x3, [sp, 32]
	bl	_ZNSt7__cxx1112basic_stringIcSt11char_traitsIcESaIcEE9_M_createERmm
	str	x0, [x19]
	adrp	x1, .LC11
	add	x1, x1, :lo12:.LC11
	ldr	x2, [sp, 32]
	str	x2, [x19, 16]
	ldp	x2, x3, [x1]
	stp	x2, x3, [x0]
	ldrb	w1, [x1, 16]
	strb	w1, [x0, 16]
	ldr	x1, [x19]
	ldr	x0, [sp, 32]
	str	x0, [x19, 8]
	strb	wzr, [x1, x0]
	b	.L260
.L272:
	bl	__stack_chk_fail
	.cfi_endproc
.LFE2313:
	.size	_ZNK4asio5error6detail13misc_category7messageB5cxx11Ei, .-_ZNK4asio5error6detail13misc_category7messageB5cxx11Ei
	.section	.rodata._ZNK4asio5error6detail14netdb_category7messageB5cxx11Ei.str1.8,"aMS",@progbits,1
	.align	3
.LC14:
	.string	"Host not found (authoritative)"
	.align	3
.LC15:
	.string	"Host not found (non-authoritative), try again later"
	.align	3
.LC16:
	.string	"The query is valid, but it does not have associated data"
	.align	3
.LC17:
	.string	"A non-recoverable error occurred during database lookup"
	.align	3
.LC18:
	.string	"asio.netdb error"
	.section	.text._ZNK4asio5error6detail14netdb_category7messageB5cxx11Ei,"axG",@progbits,_ZNK4asio5error6detail14netdb_category7messageB5cxx11Ei,comdat
	.align	2
	.p2align 4,,11
	.weak	_ZNK4asio5error6detail14netdb_category7messageB5cxx11Ei
	.type	_ZNK4asio5error6detail14netdb_category7messageB5cxx11Ei, %function
_ZNK4asio5error6detail14netdb_category7messageB5cxx11Ei:
.LFB2301:
	.cfi_startproc
	stp	x29, x30, [sp, -48]!
	.cfi_def_cfa_offset 48
	.cfi_offset 29, -48
	.cfi_offset 30, -40
	adrp	x0, :got:__stack_chk_guard
	add	x2, x8, 16
	mov	x29, sp
	ldr	x0, [x0, #:got_lo12:__stack_chk_guard]
	str	x19, [sp, 16]
	.cfi_offset 19, -32
	mov	x19, x8
	ldr	x3, [x0]
	str	x3, [sp, 40]
	mov	x3, 0
	str	x2, [x8]
	cmp	w1, 1
	beq	.L282
	cmp	w1, 2
	beq	.L283
	cmp	w1, 4
	beq	.L284
	cmp	w1, 3
	beq	.L285
	mov	x3, 16
	add	x1, sp, 32
	mov	x2, 0
	mov	x0, x8
	str	x3, [sp, 32]
	bl	_ZNSt7__cxx1112basic_stringIcSt11char_traitsIcESaIcEE9_M_createERmm
	adrp	x1, .LC18
	add	x1, x1, :lo12:.LC18
	ldr	x2, [sp, 32]
	str	x0, [x19]
	str	x2, [x19, 16]
	ldp	x2, x3, [x1]
	stp	x2, x3, [x0]
	ldr	x1, [x19]
	ldr	x0, [sp, 32]
	str	x0, [x19, 8]
	strb	wzr, [x1, x0]
.L273:
	adrp	x0, :got:__stack_chk_guard
	ldr	x0, [x0, #:got_lo12:__stack_chk_guard]
	ldr	x2, [sp, 40]
	ldr	x1, [x0]
	subs	x2, x2, x1
	mov	x1, 0
	bne	.L286
	mov	x0, x19
	ldr	x19, [sp, 16]
	ldp	x29, x30, [sp], 48
	.cfi_remember_state
	.cfi_restore 30
	.cfi_restore 29
	.cfi_restore 19
	.cfi_def_cfa_offset 0
	ret
	.p2align 2,,3
.L282:
	.cfi_restore_state
	mov	x3, 30
	add	x1, sp, 32
	mov	x2, 0
	mov	x0, x8
	str	x3, [sp, 32]
	bl	_ZNSt7__cxx1112basic_stringIcSt11char_traitsIcESaIcEE9_M_createERmm
	adrp	x1, .LC14
	add	x1, x1, :lo12:.LC14
	ldr	x2, [sp, 32]
	str	x0, [x19]
	ldr	q1, [x1]
	str	x2, [x19, 16]
	ldr	q0, [x1, 14]
	str	q1, [x0]
	str	q0, [x0, 14]
	ldr	x1, [x19]
	ldr	x0, [sp, 32]
	str	x0, [x19, 8]
	strb	wzr, [x1, x0]
	b	.L273
	.p2align 2,,3
.L285:
	mov	x3, 55
	add	x1, sp, 32
	mov	x2, 0
	mov	x0, x8
	str	x3, [sp, 32]
	bl	_ZNSt7__cxx1112basic_stringIcSt11char_traitsIcESaIcEE9_M_createERmm
	adrp	x1, .LC17
	add	x1, x1, :lo12:.LC17
	ldr	x2, [sp, 32]
	str	x0, [x19]
	ldr	q2, [x1, 32]
	str	x2, [x19, 16]
	ldp	q0, q1, [x1]
	str	q2, [x0, 32]
	ldr	x1, [x1, 47]
	str	x1, [x0, 47]
.L281:
	stp	q0, q1, [x0]
	ldr	x1, [x19]
	ldr	x0, [sp, 32]
	str	x0, [x19, 8]
	strb	wzr, [x1, x0]
	b	.L273
	.p2align 2,,3
.L283:
	mov	x3, 51
	add	x1, sp, 32
	mov	x2, 0
	mov	x0, x8
	str	x3, [sp, 32]
	bl	_ZNSt7__cxx1112basic_stringIcSt11char_traitsIcESaIcEE9_M_createERmm
	adrp	x1, .LC15
	add	x1, x1, :lo12:.LC15
	ldr	x2, [sp, 32]
	str	x0, [x19]
	ldr	q2, [x1, 32]
	str	x2, [x19, 16]
	ldp	q0, q1, [x1]
	ldr	w1, [x1, 47]
	str	q2, [x0, 32]
	str	w1, [x0, 47]
	b	.L281
	.p2align 2,,3
.L284:
	mov	x3, 56
	add	x1, sp, 32
	mov	x2, 0
	mov	x0, x8
	str	x3, [sp, 32]
	bl	_ZNSt7__cxx1112basic_stringIcSt11char_traitsIcESaIcEE9_M_createERmm
	adrp	x1, .LC16
	add	x1, x1, :lo12:.LC16
	ldr	x2, [sp, 32]
	str	x0, [x19]
	ldp	q1, q2, [x1]
	str	x2, [x19, 16]
	ldr	q0, [x1, 32]
	ldr	x1, [x1, 48]
	str	x1, [x0, 48]
	stp	q1, q2, [x0]
	str	q0, [x0, 32]
	ldr	x1, [x19]
	ldr	x0, [sp, 32]
	str	x0, [x19, 8]
	strb	wzr, [x1, x0]
	b	.L273
.L286:
	bl	__stack_chk_fail
	.cfi_endproc
.LFE2301:
	.size	_ZNK4asio5error6detail14netdb_category7messageB5cxx11Ei, .-_ZNK4asio5error6detail14netdb_category7messageB5cxx11Ei
	.global	__aarch64_ldadd4_acq_rel
	.section	.text.unlikely
	.align	2
	.type	_ZN4asio6detail17rewrapped_handlerINS0_7binder1INS0_15wrapped_handlerINS_10io_service6strandEZN7asiopal9TCPServer11StartAcceptEvEUlSt10error_codeE_NS0_26is_continuation_if_runningEEES8_EES9_ED2Ev, %function
_ZN4asio6detail17rewrapped_handlerINS0_7binder1INS0_15wrapped_handlerINS_10io_service6strandEZN7asiopal9TCPServer11StartAcceptEvEUlSt10error_codeE_NS0_26is_continuation_if_runningEEES8_EES9_ED2Ev:
.LFB9184:
	.cfi_startproc
	stp	x29, x30, [sp, -48]!
	.cfi_def_cfa_offset 48
	.cfi_offset 29, -48
	.cfi_offset 30, -40
	mov	x29, sp
	stp	x19, x20, [sp, 16]
	.cfi_offset 19, -32
	.cfi_offset 20, -24
	mov	x20, x0
	ldr	x19, [x0, 40]
	str	x21, [sp, 32]
	.cfi_offset 21, -16
	cbz	x19, .L289
	adrp	x0, :got:__libc_single_threaded
	mov	x21, x0
	ldr	x0, [x0, #:got_lo12:__libc_single_threaded]
	ldrb	w0, [x0]
	cbz	w0, .L290
	ldr	w0, [x19, 8]
	sub	w1, w0, #1
	str	w1, [x19, 8]
	b	.L291
.L290:
	add	x1, x19, 8
	mov	w0, -1
	bl	__aarch64_ldadd4_acq_rel
.L291:
	cmp	w0, 1
	bne	.L289
	ldr	x1, [x19]
	mov	x0, x19
	ldr	x1, [x1, 16]
	blr	x1
	ldr	x21, [x21, #:got_lo12:__libc_single_threaded]
	ldrb	w0, [x21]
	cbz	w0, .L293
	ldr	w0, [x19, 12]
	sub	w1, w0, #1
	str	w1, [x19, 12]
	b	.L294
.L293:
	add	x1, x19, 12
	mov	w0, -1
	bl	__aarch64_ldadd4_acq_rel
.L294:
	cmp	w0, 1
	bne	.L289
	ldr	x1, [x19]
	mov	x0, x19
	ldr	x1, [x1, 24]
	blr	x1
.L289:
	ldr	x19, [x20, 8]
	cbz	x19, .L287
	adrp	x0, :got:__libc_single_threaded
	mov	x20, x0
	ldr	x0, [x0, #:got_lo12:__libc_single_threaded]
	ldrb	w0, [x0]
	cbz	w0, .L297
	ldr	w0, [x19, 8]
	sub	w1, w0, #1
	str	w1, [x19, 8]
	b	.L298
.L297:
	add	x1, x19, 8
	mov	w0, -1
	bl	__aarch64_ldadd4_acq_rel
.L298:
	cmp	w0, 1
	bne	.L287
	ldr	x1, [x19]
	mov	x0, x19
	ldr	x1, [x1, 16]
	blr	x1
	ldr	x20, [x20, #:got_lo12:__libc_single_threaded]
	ldrb	w0, [x20]
	cbz	w0, .L300
	ldr	w0, [x19, 12]
	sub	w1, w0, #1
	str	w1, [x19, 12]
	b	.L301
.L300:
	add	x1, x19, 12
	mov	w0, -1
	bl	__aarch64_ldadd4_acq_rel
.L301:
	cmp	w0, 1
	bne	.L287
	ldr	x1, [x19]
	mov	x0, x19
	ldp	x19, x20, [sp, 16]
	ldr	x21, [sp, 32]
	ldp	x29, x30, [sp], 48
	.cfi_remember_state
	.cfi_restore 30
	.cfi_restore 29
	.cfi_restore 21
	.cfi_restore 19
	.cfi_restore 20
	.cfi_def_cfa_offset 0
	ldr	x1, [x1, 24]
	mov	x16, x1
	br	x16
.L287:
	.cfi_restore_state
	ldp	x19, x20, [sp, 16]
	ldr	x21, [sp, 32]
	ldp	x29, x30, [sp], 48
	.cfi_restore 30
	.cfi_restore 29
	.cfi_restore 21
	.cfi_restore 19
	.cfi_restore 20
	.cfi_def_cfa_offset 0
	ret
	.cfi_endproc
.LFE9184:
	.size	_ZN4asio6detail17rewrapped_handlerINS0_7binder1INS0_15wrapped_handlerINS_10io_service6strandEZN7asiopal9TCPServer11StartAcceptEvEUlSt10error_codeE_NS0_26is_continuation_if_runningEEES8_EES9_ED2Ev, .-_ZN4asio6detail17rewrapped_handlerINS0_7binder1INS0_15wrapped_handlerINS_10io_service6strandEZN7asiopal9TCPServer11StartAcceptEvEUlSt10error_codeE_NS0_26is_continuation_if_runningEEES8_EES9_ED2Ev
	.set	_ZN4asio6detail17rewrapped_handlerINS0_7binder1INS0_15wrapped_handlerINS_10io_service6strandEZN7asiopal9TCPServer11StartAcceptEvEUlSt10error_codeE_NS0_26is_continuation_if_runningEEES8_EES9_ED1Ev,_ZN4asio6detail17rewrapped_handlerINS0_7binder1INS0_15wrapped_handlerINS_10io_service6strandEZN7asiopal9TCPServer11StartAcceptEvEUlSt10error_codeE_NS0_26is_continuation_if_runningEEES8_EES9_ED2Ev
	.align	2
	.type	_ZN4asio6detail25reactive_socket_accept_opINS_12basic_socketINS_2ip3tcpENS_21stream_socket_serviceIS4_EEEES4_NS0_15wrapped_handlerINS_10io_service6strandEZN7asiopal9TCPServer11StartAcceptEvEUlSt10error_codeE_NS0_26is_continuation_if_runningEEEE3ptr5resetEv, %function
_ZN4asio6detail25reactive_socket_accept_opINS_12basic_socketINS_2ip3tcpENS_21stream_socket_serviceIS4_EEEES4_NS0_15wrapped_handlerINS_10io_service6strandEZN7asiopal9TCPServer11StartAcceptEvEUlSt10error_codeE_NS0_26is_continuation_if_runningEEEE3ptr5resetEv:
.LFB8865:
	.cfi_startproc
	stp	x29, x30, [sp, -48]!
	.cfi_def_cfa_offset 48
	.cfi_offset 29, -48
	.cfi_offset 30, -40
	mov	x29, sp
	stp	x19, x20, [sp, 16]
	.cfi_offset 19, -32
	.cfi_offset 20, -24
	mov	x20, x0
	ldr	x0, [x0, 16]
	str	x21, [sp, 32]
	.cfi_offset 21, -16
	cbz	x0, .L304
	ldr	x19, [x0, 112]
	cbz	x19, .L306
	adrp	x0, :got:__libc_single_threaded
	mov	x21, x0
	ldr	x0, [x0, #:got_lo12:__libc_single_threaded]
	ldrb	w0, [x0]
	cbz	w0, .L307
	ldr	w0, [x19, 8]
	sub	w1, w0, #1
	str	w1, [x19, 8]
	b	.L308
.L307:
	add	x1, x19, 8
	mov	w0, -1
	bl	__aarch64_ldadd4_acq_rel
.L308:
	cmp	w0, 1
	bne	.L306
	ldr	x1, [x19]
	mov	x0, x19
	ldr	x1, [x1, 16]
	blr	x1
	ldr	x21, [x21, #:got_lo12:__libc_single_threaded]
	ldrb	w0, [x21]
	cbz	w0, .L310
	ldr	w0, [x19, 12]
	sub	w1, w0, #1
	str	w1, [x19, 12]
	b	.L311
.L310:
	add	x1, x19, 12
	mov	w0, -1
	bl	__aarch64_ldadd4_acq_rel
.L311:
	cmp	w0, 1
	bne	.L306
	ldr	x1, [x19]
	mov	x0, x19
	ldr	x1, [x1, 24]
	blr	x1
.L306:
	str	xzr, [x20, 16]
.L304:
	ldr	x19, [x20, 8]
	cbz	x19, .L303
	adrp	x0, :got:_ZN4asio6detail10call_stackINS0_15task_io_serviceENS0_27task_io_service_thread_infoEE4top_E
	ldr	x0, [x0, #:got_lo12:_ZN4asio6detail10call_stackINS0_15task_io_serviceENS0_27task_io_service_thread_infoEE4top_E]
	ldr	w0, [x0]
	bl	pthread_getspecific
	cbz	x0, .L313
	ldr	x0, [x0, 8]
	cbz	x0, .L313
	ldr	x1, [x0]
	cbnz	x1, .L313
	ldrb	w1, [x19, 120]
	strb	w1, [x19]
	str	x19, [x0]
	b	.L314
.L313:
	mov	x0, x19
	bl	_ZdlPv
.L314:
	str	xzr, [x20, 8]
.L303:
	ldp	x19, x20, [sp, 16]
	ldr	x21, [sp, 32]
	ldp	x29, x30, [sp], 48
	.cfi_restore 30
	.cfi_restore 29
	.cfi_restore 21
	.cfi_restore 19
	.cfi_restore 20
	.cfi_def_cfa_offset 0
	ret
	.cfi_endproc
.LFE8865:
	.size	_ZN4asio6detail25reactive_socket_accept_opINS_12basic_socketINS_2ip3tcpENS_21stream_socket_serviceIS4_EEEES4_NS0_15wrapped_handlerINS_10io_service6strandEZN7asiopal9TCPServer11StartAcceptEvEUlSt10error_codeE_NS0_26is_continuation_if_runningEEEE3ptr5resetEv, .-_ZN4asio6detail25reactive_socket_accept_opINS_12basic_socketINS_2ip3tcpENS_21stream_socket_serviceIS4_EEEES4_NS0_15wrapped_handlerINS_10io_service6strandEZN7asiopal9TCPServer11StartAcceptEvEUlSt10error_codeE_NS0_26is_continuation_if_runningEEEE3ptr5resetEv
	.align	2
	.type	_ZN4asio6detail18completion_handlerINS0_7binder1IZN7asiopal9TCPServer11StartAcceptEvEUlSt10error_codeE_S5_EEE3ptr5resetEv, %function
_ZN4asio6detail18completion_handlerINS0_7binder1IZN7asiopal9TCPServer11StartAcceptEvEUlSt10error_codeE_S5_EEE3ptr5resetEv:
.LFB9335:
	.cfi_startproc
	stp	x29, x30, [sp, -48]!
	.cfi_def_cfa_offset 48
	.cfi_offset 29, -48
	.cfi_offset 30, -40
	mov	x29, sp
	stp	x19, x20, [sp, 16]
	.cfi_offset 19, -32
	.cfi_offset 20, -24
	mov	x20, x0
	ldr	x0, [x0, 16]
	str	x21, [sp, 32]
	.cfi_offset 21, -16
	cbz	x0, .L329
	ldr	x19, [x0, 32]
	cbz	x19, .L331
	adrp	x0, :got:__libc_single_threaded
	mov	x21, x0
	ldr	x0, [x0, #:got_lo12:__libc_single_threaded]
	ldrb	w0, [x0]
	cbz	w0, .L332
	ldr	w0, [x19, 8]
	sub	w1, w0, #1
	str	w1, [x19, 8]
	b	.L333
.L332:
	add	x1, x19, 8
	mov	w0, -1
	bl	__aarch64_ldadd4_acq_rel
.L333:
	cmp	w0, 1
	bne	.L331
	ldr	x1, [x19]
	mov	x0, x19
	ldr	x1, [x1, 16]
	blr	x1
	ldr	x21, [x21, #:got_lo12:__libc_single_threaded]
	ldrb	w0, [x21]
	cbz	w0, .L335
	ldr	w0, [x19, 12]
	sub	w1, w0, #1
	str	w1, [x19, 12]
	b	.L336
.L335:
	add	x1, x19, 12
	mov	w0, -1
	bl	__aarch64_ldadd4_acq_rel
.L336:
	cmp	w0, 1
	bne	.L331
	ldr	x1, [x19]
	mov	x0, x19
	ldr	x1, [x1, 24]
	blr	x1
.L331:
	str	xzr, [x20, 16]
.L329:
	ldr	x19, [x20, 8]
	cbz	x19, .L328
	adrp	x0, :got:_ZN4asio6detail10call_stackINS0_15task_io_serviceENS0_27task_io_service_thread_infoEE4top_E
	ldr	x0, [x0, #:got_lo12:_ZN4asio6detail10call_stackINS0_15task_io_serviceENS0_27task_io_service_thread_infoEE4top_E]
	ldr	w0, [x0]
	bl	pthread_getspecific
	cbz	x0, .L338
	ldr	x0, [x0, 8]
	cbz	x0, .L338
	ldr	x1, [x0]
	cbnz	x1, .L338
	ldrb	w1, [x19, 56]
	strb	w1, [x19]
	str	x19, [x0]
	b	.L339
.L338:
	mov	x0, x19
	bl	_ZdlPv
.L339:
	str	xzr, [x20, 8]
.L328:
	ldp	x19, x20, [sp, 16]
	ldr	x21, [sp, 32]
	ldp	x29, x30, [sp], 48
	.cfi_restore 30
	.cfi_restore 29
	.cfi_restore 21
	.cfi_restore 19
	.cfi_restore 20
	.cfi_def_cfa_offset 0
	ret
	.cfi_endproc
.LFE9335:
	.size	_ZN4asio6detail18completion_handlerINS0_7binder1IZN7asiopal9TCPServer11StartAcceptEvEUlSt10error_codeE_S5_EEE3ptr5resetEv, .-_ZN4asio6detail18completion_handlerINS0_7binder1IZN7asiopal9TCPServer11StartAcceptEvEUlSt10error_codeE_S5_EEE3ptr5resetEv
	.align	2
	.type	_ZN4asio6detail18completion_handlerINS0_17rewrapped_handlerINS0_7binder1INS0_15wrapped_handlerINS_10io_service6strandEZN7asiopal9TCPServer11StartAcceptEvEUlSt10error_codeE_NS0_26is_continuation_if_runningEEES9_EESA_EEE3ptr5resetEv, %function
_ZN4asio6detail18completion_handlerINS0_17rewrapped_handlerINS0_7binder1INS0_15wrapped_handlerINS_10io_service6strandEZN7asiopal9TCPServer11StartAcceptEvEUlSt10error_codeE_NS0_26is_continuation_if_runningEEES9_EESA_EEE3ptr5resetEv:
.LFB9289:
	.cfi_startproc
	stp	x29, x30, [sp, -48]!
	.cfi_def_cfa_offset 48
	.cfi_offset 29, -48
	.cfi_offset 30, -40
	mov	x29, sp
	stp	x21, x22, [sp, 32]
	.cfi_offset 21, -16
	.cfi_offset 22, -8
	ldr	x21, [x0, 16]
	stp	x19, x20, [sp, 16]
	.cfi_offset 19, -32
	.cfi_offset 20, -24
	mov	x20, x0
	cbz	x21, .L354
	ldr	x19, [x21, 64]
	cbz	x19, .L356
	adrp	x0, :got:__libc_single_threaded
	mov	x22, x0
	ldr	x0, [x0, #:got_lo12:__libc_single_threaded]
	ldrb	w0, [x0]
	cbz	w0, .L357
	ldr	w0, [x19, 8]
	sub	w1, w0, #1
	str	w1, [x19, 8]
	b	.L358
.L357:
	add	x1, x19, 8
	mov	w0, -1
	bl	__aarch64_ldadd4_acq_rel
.L358:
	cmp	w0, 1
	bne	.L356
	ldr	x1, [x19]
	mov	x0, x19
	ldr	x1, [x1, 16]
	blr	x1
	ldr	x22, [x22, #:got_lo12:__libc_single_threaded]
	ldrb	w0, [x22]
	cbz	w0, .L360
	ldr	w0, [x19, 12]
	sub	w1, w0, #1
	str	w1, [x19, 12]
	b	.L361
.L360:
	add	x1, x19, 12
	mov	w0, -1
	bl	__aarch64_ldadd4_acq_rel
.L361:
	cmp	w0, 1
	bne	.L356
	ldr	x1, [x19]
	mov	x0, x19
	ldr	x1, [x1, 24]
	blr	x1
.L356:
	ldr	x19, [x21, 32]
	cbz	x19, .L363
	adrp	x0, :got:__libc_single_threaded
	mov	x21, x0
	ldr	x0, [x0, #:got_lo12:__libc_single_threaded]
	ldrb	w0, [x0]
	cbz	w0, .L364
	ldr	w0, [x19, 8]
	sub	w1, w0, #1
	str	w1, [x19, 8]
	b	.L365
.L364:
	add	x1, x19, 8
	mov	w0, -1
	bl	__aarch64_ldadd4_acq_rel
.L365:
	cmp	w0, 1
	bne	.L363
	ldr	x1, [x19]
	mov	x0, x19
	ldr	x1, [x1, 16]
	blr	x1
	ldr	x21, [x21, #:got_lo12:__libc_single_threaded]
	ldrb	w0, [x21]
	cbz	w0, .L367
	ldr	w0, [x19, 12]
	sub	w1, w0, #1
	str	w1, [x19, 12]
	b	.L368
.L367:
	add	x1, x19, 12
	mov	w0, -1
	bl	__aarch64_ldadd4_acq_rel
.L368:
	cmp	w0, 1
	bne	.L363
	ldr	x1, [x19]
	mov	x0, x19
	ldr	x1, [x1, 24]
	blr	x1
.L363:
	str	xzr, [x20, 16]
.L354:
	ldr	x19, [x20, 8]
	cbz	x19, .L353
	adrp	x0, :got:_ZN4asio6detail10call_stackINS0_15task_io_serviceENS0_27task_io_service_thread_infoEE4top_E
	ldr	x0, [x0, #:got_lo12:_ZN4asio6detail10call_stackINS0_15task_io_serviceENS0_27task_io_service_thread_infoEE4top_E]
	ldr	w0, [x0]
	bl	pthread_getspecific
	cbz	x0, .L370
	ldr	x0, [x0, 8]
	cbz	x0, .L370
	ldr	x1, [x0]
	cbnz	x1, .L370
	ldrb	w1, [x19, 88]
	strb	w1, [x19]
	str	x19, [x0]
	b	.L371
.L370:
	mov	x0, x19
	bl	_ZdlPv
.L371:
	str	xzr, [x20, 8]
.L353:
	ldp	x19, x20, [sp, 16]
	ldp	x21, x22, [sp, 32]
	ldp	x29, x30, [sp], 48
	.cfi_restore 30
	.cfi_restore 29
	.cfi_restore 21
	.cfi_restore 22
	.cfi_restore 19
	.cfi_restore 20
	.cfi_def_cfa_offset 0
	ret
	.cfi_endproc
.LFE9289:
	.size	_ZN4asio6detail18completion_handlerINS0_17rewrapped_handlerINS0_7binder1INS0_15wrapped_handlerINS_10io_service6strandEZN7asiopal9TCPServer11StartAcceptEvEUlSt10error_codeE_NS0_26is_continuation_if_runningEEES9_EESA_EEE3ptr5resetEv, .-_ZN4asio6detail18completion_handlerINS0_17rewrapped_handlerINS0_7binder1INS0_15wrapped_handlerINS_10io_service6strandEZN7asiopal9TCPServer11StartAcceptEvEUlSt10error_codeE_NS0_26is_continuation_if_runningEEES9_EESA_EEE3ptr5resetEv
	.section	.rodata.str1.8,"aMS",@progbits,1
	.align	3
.LC19:
	.string	"/home/jaehyun/OpenPLC_v3/utils/dnp3_src/cpp/libs/src/asiopal/TCPServer.cpp(57)"
	.text
	.align	2
	.p2align 4,,11
	.global	_ZN7asiopal9TCPServer8ShutdownEv
	.type	_ZN7asiopal9TCPServer8ShutdownEv, %function
_ZN7asiopal9TCPServer8ShutdownEv:
.LFB7067:
	.cfi_startproc
	.cfi_personality 0x9b,DW.ref.__gxx_personality_v0
	.cfi_lsda 0x1b,.LLSDA7067
	stp	x29, x30, [sp, -176]!
	.cfi_def_cfa_offset 176
	.cfi_offset 29, -176
	.cfi_offset 30, -168
	adrp	x1, :got:__stack_chk_guard
	mov	x29, sp
	ldr	x1, [x1, #:got_lo12:__stack_chk_guard]
	stp	x19, x20, [sp, 16]
	.cfi_offset 19, -160
	.cfi_offset 20, -152
	mov	x20, x0
	ldr	w19, [x0, 104]
	ldr	x0, [x1]
	str	x0, [sp, 168]
	mov	x0, 0
	ldr	x0, [x20, 128]
	cmn	w19, #1
	bne	.L386
.L417:
	mov	w0, -1
	str	w0, [x20, 104]
	strb	wzr, [x20, 108]
.L385:
	adrp	x0, :got:__stack_chk_guard
	ldr	x0, [x0, #:got_lo12:__stack_chk_guard]
	ldr	x2, [sp, 168]
	ldr	x1, [x0]
	subs	x2, x2, x1
	mov	x1, 0
	bne	.L500
	ldp	x19, x20, [sp, 16]
	ldp	x29, x30, [sp], 176
	.cfi_remember_state
	.cfi_restore 30
	.cfi_restore 29
	.cfi_restore 19
	.cfi_restore 20
	.cfi_def_cfa_offset 0
	ret
	.p2align 2,,3
.L386:
	.cfi_restore_state
	stp	x21, x22, [sp, 32]
	.cfi_offset 22, -136
	.cfi_offset 21, -144
	ldr	x22, [x20, 112]
	stp	x23, x24, [sp, 48]
	.cfi_offset 24, -120
	.cfi_offset 23, -128
	ldr	x0, [x0, 40]
	stp	x25, x26, [sp, 64]
	.cfi_offset 26, -104
	.cfi_offset 25, -112
	str	x0, [sp, 96]
	ldrb	w21, [x20, 108]
	cbz	x22, .L388
	add	x22, x22, 40
	mov	x0, x22
	bl	pthread_mutex_lock
	ldr	x3, [x20, 112]
	ldrb	w0, [x3, 152]
	cbnz	w0, .L389
	stp	x27, x28, [sp, 80]
	.cfi_offset 28, -88
	.cfi_offset 27, -96
	tbnz	x21, 6, .L501
.L390:
	adrp	x28, :got:_ZGVZN4asio15system_categoryEvE8instance
	adrp	x26, __dso_handle
	mov	x27, 0
	add	x0, x26, :lo12:__dso_handle
	ldr	x28, [x28, #:got_lo12:_ZGVZN4asio15system_categoryEvE8instance]
	mov	x24, 0
	mov	w21, 0
	str	x0, [sp, 104]
.L391:
	add	x0, x3, w21, sxtw 4
	sxtw	x25, w21
	ldr	x19, [x0, 104]
	cbz	x19, .L437
	adrp	x23, :got:_ZN4asio6detail15system_categoryD1Ev
	adrp	x26, :got:_ZZN4asio15system_categoryEvE8instance
	ldr	x23, [x23, #:got_lo12:_ZN4asio6detail15system_categoryD1Ev]
	ldar	x0, [x28]
	tbz	x0, 0, .L502
	.p2align 3,,7
.L393:
	ldr	x3, [x20, 112]
	mov	w0, 125
	str	w0, [x19, 24]
	ldr	x1, [x26, #:got_lo12:_ZZN4asio15system_categoryEvE8instance]
	add	x2, x3, x25, lsl 4
	str	x1, [x19, 32]
	ldr	x0, [x2, 104]
	cbz	x0, .L395
.L505:
	ldr	x1, [x0]
	str	x1, [x2, 104]
	cbz	x1, .L503
	str	xzr, [x0]
	str	xzr, [x19]
	cbz	x27, .L504
.L434:
	str	x19, [x27]
	cbz	x1, .L397
.L398:
	mov	x27, x19
	mov	x19, x1
	ldar	x0, [x28]
	tbnz	x0, 0, .L393
.L502:
	mov	x0, x28
	bl	__cxa_guard_acquire
	cbz	w0, .L393
	ldr	x1, [x26, #:got_lo12:_ZZN4asio15system_categoryEvE8instance]
	mov	x0, x23
	ldr	x2, [sp, 104]
	bl	__cxa_atexit
	mov	x0, x28
	bl	__cxa_guard_release
	ldr	x3, [x20, 112]
	mov	w0, 125
	str	w0, [x19, 24]
	ldr	x1, [x26, #:got_lo12:_ZZN4asio15system_categoryEvE8instance]
	add	x2, x3, x25, lsl 4
	str	x1, [x19, 32]
	ldr	x0, [x2, 104]
	cbnz	x0, .L505
	.p2align 3,,7
.L395:
	str	xzr, [x19]
	cbz	x27, .L438
	str	x19, [x27]
.L397:
	add	w21, w21, 1
	cmp	w21, 3
	beq	.L399
.L510:
	mov	x27, x19
	b	.L391
	.p2align 2,,3
.L389:
	.cfi_restore 27
	.cfi_restore 28
	mov	x0, x22
	bl	pthread_mutex_unlock
.L411:
	ldr	w19, [x20, 104]
	cmn	w19, #1
	beq	.L496
.L388:
	bl	__errno_location
	mov	x21, x0
	adrp	x23, :got:_ZGVZN4asio15system_categoryEvE8instance
	mov	w0, w19
	str	wzr, [x21]
.LEHB2:
	bl	close
	ldr	w25, [x21]
	ldr	x24, [x23, #:got_lo12:_ZGVZN4asio15system_categoryEvE8instance]
	mov	w22, w0
	ldar	x0, [x24]
	tbz	x0, 0, .L506
.L419:
	cbnz	w22, .L507
.L496:
	ldp	x21, x22, [sp, 32]
	.cfi_remember_state
	.cfi_restore 22
	.cfi_restore 21
	ldp	x23, x24, [sp, 48]
	.cfi_restore 24
	.cfi_restore 23
	ldp	x25, x26, [sp, 64]
	.cfi_restore 26
	.cfi_restore 25
	b	.L417
	.p2align 2,,3
.L506:
	.cfi_restore_state
	mov	x0, x24
	bl	__cxa_guard_acquire
	cbz	w0, .L419
	adrp	x1, :got:_ZZN4asio15system_categoryEvE8instance
	adrp	x0, :got:_ZN4asio6detail15system_categoryD1Ev
	adrp	x2, __dso_handle
	add	x2, x2, :lo12:__dso_handle
	ldr	x1, [x1, #:got_lo12:_ZZN4asio15system_categoryEvE8instance]
	ldr	x0, [x0, #:got_lo12:_ZN4asio6detail15system_categoryD1Ev]
	bl	__cxa_atexit
	mov	x0, x24
	bl	__cxa_guard_release
	cbz	w22, .L496
	.p2align 3,,7
.L507:
	ldr	x22, [x23, #:got_lo12:_ZGVZN4asio15system_categoryEvE8instance]
	ldar	x0, [x22]
	tbz	x0, 0, .L508
.L422:
	cmp	w25, 11
	beq	.L424
	ldr	x23, [x23, #:got_lo12:_ZGVZN4asio15system_categoryEvE8instance]
	ldar	x0, [x23]
	tbz	x0, 0, .L509
.L425:
	mov	w0, -1
	str	w0, [x20, 104]
	strb	wzr, [x20, 108]
	cbz	w25, .L499
	add	x20, x20, 24
	add	x19, sp, 120
	mov	w21, 2
	mov	x0, x20
	mov	x1, x19
	str	w21, [sp, 120]
	bl	_ZNK7openpal6Logger9IsEnabledERKNS_10LogFiltersE
	tst	w0, 255
	beq	.L499
	adrp	x0, :got:_ZZN4asio15system_categoryEvE8instance
	mov	w1, w25
	add	x8, sp, 136
	str	w21, [sp, 120]
	ldr	x0, [x0, #:got_lo12:_ZZN4asio15system_categoryEvE8instance]
	bl	_ZNK4asio6detail15system_category7messageB5cxx11Ei
.LEHE2:
	ldr	x3, [sp, 136]
	adrp	x2, .LC19
	mov	x1, x19
	mov	x0, x20
	add	x2, x2, :lo12:.LC19
.LEHB3:
	bl	_ZN7openpal6Logger3LogERKNS_10LogFiltersEPKcS5_
.LEHE3:
	ldr	x0, [sp, 136]
	add	x1, sp, 152
	cmp	x0, x1
	beq	.L499
	ldr	x1, [sp, 152]
	add	x1, x1, 1
	bl	_ZdlPvm
	ldp	x21, x22, [sp, 32]
	.cfi_remember_state
	.cfi_restore 22
	.cfi_restore 21
	ldp	x23, x24, [sp, 48]
	.cfi_restore 24
	.cfi_restore 23
	ldp	x25, x26, [sp, 64]
	.cfi_restore 26
	.cfi_restore 25
	b	.L385
	.p2align 2,,3
.L508:
	.cfi_restore_state
	mov	x0, x22
	bl	__cxa_guard_acquire
	cbz	w0, .L422
	adrp	x1, :got:_ZZN4asio15system_categoryEvE8instance
	adrp	x0, :got:_ZN4asio6detail15system_categoryD1Ev
	adrp	x2, __dso_handle
	add	x2, x2, :lo12:__dso_handle
	ldr	x1, [x1, #:got_lo12:_ZZN4asio15system_categoryEvE8instance]
	ldr	x0, [x0, #:got_lo12:_ZN4asio6detail15system_categoryD1Ev]
	bl	__cxa_atexit
	mov	x0, x22
	bl	__cxa_guard_release
	b	.L422
	.p2align 2,,3
.L503:
	.cfi_offset 27, -96
	.cfi_offset 28, -88
	str	xzr, [x2, 112]
	str	xzr, [x0]
	str	xzr, [x19]
	cbnz	x27, .L434
	.p2align 3,,7
.L438:
	add	w21, w21, 1
	mov	x24, x19
	cmp	w21, 3
	bne	.L510
.L399:
	ldr	x23, [sp, 96]
	mov	w1, 1
	mov	w0, -1
	str	w0, [x3, 96]
	strb	w1, [x3, 152]
	mov	x0, x22
	add	x22, x23, 128
	bl	pthread_mutex_unlock
	mov	x0, x22
	ldr	x21, [x20, 112]
	bl	pthread_mutex_lock
	ldr	x0, [x23, 176]
	cmp	x21, x0
	beq	.L511
.L401:
	ldr	x0, [x21, 32]
	cbz	x0, .L402
	ldr	x1, [x21, 24]
	str	x1, [x0, 24]
.L402:
	ldr	x0, [x21, 24]
	cbz	x0, .L403
	ldr	x1, [x21, 32]
	str	x1, [x0, 32]
.L403:
	ldr	x23, [sp, 96]
	mov	x0, x22
	ldr	x2, [x23, 184]
	stp	x2, xzr, [x21, 24]
	str	x21, [x23, 184]
	bl	pthread_mutex_unlock
	str	xzr, [x20, 112]
	cbz	x24, .L493
	ldr	x21, [x23, 40]
	ldrb	w0, [x21, 40]
	cbz	w0, .L405
	adrp	x0, :got:_ZN4asio6detail10call_stackINS0_15task_io_serviceENS0_27task_io_service_thread_infoEE4top_E
	ldr	x0, [x0, #:got_lo12:_ZN4asio6detail10call_stackINS0_15task_io_serviceENS0_27task_io_service_thread_infoEE4top_E]
	ldr	w0, [x0]
	bl	pthread_getspecific
	cbnz	x0, .L408
	b	.L405
	.p2align 2,,3
.L406:
	ldr	x0, [x0, 16]
	cbz	x0, .L405
.L408:
	ldr	x1, [x0]
	cmp	x21, x1
	bne	.L406
	ldr	x0, [x0, 8]
	cbz	x0, .L405
	ldr	x2, [x0, 16]
	add	x1, x0, 8
	cbz	x2, .L409
	str	x24, [x2]
.L410:
	ldp	x27, x28, [sp, 80]
	.cfi_remember_state
	.cfi_restore 28
	.cfi_restore 27
	str	x19, [x1, 8]
	b	.L411
	.p2align 2,,3
.L504:
	.cfi_restore_state
	mov	x24, x19
	b	.L398
	.p2align 2,,3
.L499:
	.cfi_restore 27
	.cfi_restore 28
	ldp	x21, x22, [sp, 32]
	.cfi_restore 22
	.cfi_restore 21
	ldp	x23, x24, [sp, 48]
	.cfi_restore 24
	.cfi_restore 23
	ldp	x25, x26, [sp, 64]
	.cfi_restore 26
	.cfi_restore 25
	b	.L385
	.p2align 2,,3
.L405:
	.cfi_offset 21, -144
	.cfi_offset 22, -136
	.cfi_offset 23, -128
	.cfi_offset 24, -120
	.cfi_offset 25, -112
	.cfi_offset 26, -104
	.cfi_offset 27, -96
	.cfi_offset 28, -88
	add	x23, x21, 48
	mov	x0, x23
	bl	pthread_mutex_lock
	ldr	x1, [x21, 208]
	add	x0, x21, 200
	cbz	x1, .L412
	str	x24, [x1]
.L413:
	str	x19, [x0, 8]
	add	x22, x21, 96
	ldr	x0, [x21, 144]
	orr	x0, x0, 1
	str	x0, [x21, 144]
	cmp	x0, 1
	beq	.L414
	mov	x0, x23
	bl	pthread_mutex_unlock
	mov	x0, x22
	bl	pthread_cond_signal
	ldp	x27, x28, [sp, 80]
	.cfi_remember_state
	.cfi_restore 28
	.cfi_restore 27
	b	.L411
.L414:
	.cfi_restore_state
	ldrb	w1, [x21, 184]
	cbnz	w1, .L416
	ldr	x4, [x21, 152]
	cbz	x4, .L416
	mov	w1, 9
	strb	w0, [x21, 184]
	ldr	w2, [x4, 96]
	add	x0, x4, 96
	movk	w1, 0x8000, lsl 16
	str	w1, [sp, 120]
	str	x0, [sp, 128]
	add	x3, sp, 120
	mov	w1, 3
	ldr	w0, [x4, 104]
	bl	epoll_ctl
.L416:
	mov	x0, x23
	bl	pthread_mutex_unlock
	ldp	x27, x28, [sp, 80]
	.cfi_restore 28
	.cfi_restore 27
	b	.L411
	.p2align 2,,3
.L509:
	mov	x0, x23
	bl	__cxa_guard_acquire
	cbz	w0, .L425
	adrp	x1, :got:_ZZN4asio15system_categoryEvE8instance
	adrp	x0, :got:_ZN4asio6detail15system_categoryD1Ev
	adrp	x2, __dso_handle
	add	x2, x2, :lo12:__dso_handle
	ldr	x1, [x1, #:got_lo12:_ZZN4asio15system_categoryEvE8instance]
	ldr	x0, [x0, #:got_lo12:_ZN4asio6detail15system_categoryD1Ev]
	bl	__cxa_atexit
	mov	x0, x23
	bl	__cxa_guard_release
	b	.L425
	.p2align 2,,3
.L437:
	.cfi_offset 27, -96
	.cfi_offset 28, -88
	mov	x19, x27
	b	.L397
	.p2align 2,,3
.L501:
	ldr	x0, [sp, 96]
	str	wzr, [sp, 120]
	str	xzr, [sp, 128]
	add	x3, sp, 120
	mov	w2, w19
	mov	w1, 2
	ldr	w0, [x0, 104]
	bl	epoll_ctl
	ldr	x3, [x20, 112]
	b	.L390
	.p2align 2,,3
.L493:
	ldp	x27, x28, [sp, 80]
	.cfi_remember_state
	.cfi_restore 28
	.cfi_restore 27
	b	.L411
	.p2align 2,,3
.L511:
	.cfi_restore_state
	ldr	x1, [sp, 96]
	ldr	x0, [x21, 24]
	str	x0, [x1, 176]
	b	.L401
	.p2align 2,,3
.L424:
	.cfi_restore 27
	.cfi_restore 28
	add	x2, sp, 120
	mov	w0, w19
	mov	x1, 21537
	str	wzr, [sp, 120]
	bl	ioctl
	ldrb	w1, [x20, 108]
	mov	w0, w19
	and	w1, w1, -4
	strb	w1, [x20, 108]
	str	wzr, [x21]
.LEHB4:
	bl	close
	ldr	w25, [x21]
	ldr	x23, [x23, #:got_lo12:_ZGVZN4asio15system_categoryEvE8instance]
	mov	w19, w0
	ldar	x0, [x23]
	tbz	x0, 0, .L512
.L427:
	cbnz	w19, .L425
	b	.L496
	.p2align 2,,3
.L512:
	mov	x0, x23
	bl	__cxa_guard_acquire
	cbz	w0, .L427
	adrp	x1, :got:_ZZN4asio15system_categoryEvE8instance
	adrp	x0, :got:_ZN4asio6detail15system_categoryD1Ev
	adrp	x2, __dso_handle
	add	x2, x2, :lo12:__dso_handle
	ldr	x1, [x1, #:got_lo12:_ZZN4asio15system_categoryEvE8instance]
	ldr	x0, [x0, #:got_lo12:_ZN4asio6detail15system_categoryD1Ev]
	bl	__cxa_atexit
	mov	x0, x23
	bl	__cxa_guard_release
	cbnz	w19, .L425
	b	.L496
	.p2align 2,,3
.L412:
	.cfi_offset 27, -96
	.cfi_offset 28, -88
	str	x24, [x21, 200]
	b	.L413
.L409:
	str	x24, [x0, 8]
	b	.L410
.L500:
	.cfi_restore 21
	.cfi_restore 22
	.cfi_restore 23
	.cfi_restore 24
	.cfi_restore 25
	.cfi_restore 26
	.cfi_restore 27
	.cfi_restore 28
	stp	x21, x22, [sp, 32]
	.cfi_offset 22, -136
	.cfi_offset 21, -144
	stp	x23, x24, [sp, 48]
	.cfi_offset 24, -120
	.cfi_offset 23, -128
	stp	x25, x26, [sp, 64]
	.cfi_offset 26, -104
	.cfi_offset 25, -112
	stp	x27, x28, [sp, 80]
	.cfi_offset 28, -88
	.cfi_offset 27, -96
	bl	__stack_chk_fail
.L439:
	.cfi_restore 27
	.cfi_restore 28
	ldr	x2, [sp, 136]
	add	x1, sp, 152
	stp	x27, x28, [sp, 80]
	.cfi_offset 28, -88
	.cfi_offset 27, -96
	mov	x19, x0
	cmp	x2, x1
	beq	.L433
	ldr	x1, [sp, 152]
	mov	x0, x2
	add	x1, x1, 1
	bl	_ZdlPvm
.L433:
	mov	x0, x19
	bl	_Unwind_Resume
.LEHE4:
	.cfi_endproc
.LFE7067:
	.section	.gcc_except_table,"a",@progbits
.LLSDA7067:
	.byte	0xff
	.byte	0xff
	.byte	0x1
	.uleb128 .LLSDACSE7067-.LLSDACSB7067
.LLSDACSB7067:
	.uleb128 .LEHB2-.LFB7067
	.uleb128 .LEHE2-.LEHB2
	.uleb128 0
	.uleb128 0
	.uleb128 .LEHB3-.LFB7067
	.uleb128 .LEHE3-.LEHB3
	.uleb128 .L439-.LFB7067
	.uleb128 0
	.uleb128 .LEHB4-.LFB7067
	.uleb128 .LEHE4-.LEHB4
	.uleb128 0
	.uleb128 0
.LLSDACSE7067:
	.text
	.size	_ZN7asiopal9TCPServer8ShutdownEv, .-_ZN7asiopal9TCPServer8ShutdownEv
	.section	.rodata._ZNSt12system_errorC2ESt10error_codePKc.str1.8,"aMS",@progbits,1
	.align	3
.LC20:
	.string	": "
	.section	.text._ZNSt12system_errorC2ESt10error_codePKc,"axG",@progbits,_ZNSt12system_errorC5ESt10error_codePKc,comdat
	.align	2
	.p2align 4,,11
	.weak	_ZNSt12system_errorC2ESt10error_codePKc
	.type	_ZNSt12system_errorC2ESt10error_codePKc, %function
_ZNSt12system_errorC2ESt10error_codePKc:
.LFB2230:
	.cfi_startproc
	.cfi_personality 0x9b,DW.ref.__gxx_personality_v0
	.cfi_lsda 0x1b,.LLSDA2230
	stp	x29, x30, [sp, -176]!
	.cfi_def_cfa_offset 176
	.cfi_offset 29, -176
	.cfi_offset 30, -168
	adrp	x4, :got:__stack_chk_guard
	mov	x29, sp
	stp	x19, x20, [sp, 16]
	.cfi_offset 19, -160
	.cfi_offset 20, -152
	mov	x20, x2
	mov	x19, x0
	ldr	x2, [x4, #:got_lo12:__stack_chk_guard]
	stp	x21, x22, [sp, 32]
	mov	x0, x20
	ldr	x4, [x20]
	.cfi_offset 21, -144
	.cfi_offset 22, -136
	mov	x21, x1
	mov	x22, x3
	ldr	x4, [x4, 32]
	str	x23, [sp, 48]
	.cfi_offset 23, -128
	add	x23, sp, 136
	mov	x8, x23
	ldr	x3, [x2]
	str	x3, [sp, 168]
	mov	x3, 0
.LEHB5:
	blr	x4
.LEHE5:
	adrp	x3, .LC20
	mov	x0, x23
	add	x3, x3, :lo12:.LC20
	mov	x4, 2
	mov	x2, 0
	mov	x1, 0
.LEHB6:
	bl	_ZNSt7__cxx1112basic_stringIcSt11char_traitsIcESaIcEE10_M_replaceEmmPKcm
.LEHE6:
	add	x23, sp, 120
	str	x23, [sp, 104]
	mov	x4, x0
	ldr	x1, [x0], 16
	cmp	x1, x0
	beq	.L533
	ldr	x2, [x4, 16]
	str	x1, [sp, 104]
	str	x2, [sp, 120]
.L515:
	ldr	x1, [x4, 8]
	str	x1, [sp, 112]
	stp	x0, xzr, [x4]
	mov	x0, x22
	strb	wzr, [x4, 16]
	bl	strlen
	mov	x4, x0
	mov	x3, x22
	add	x0, sp, 104
	mov	x2, 0
	mov	x1, 0
.LEHB7:
	bl	_ZNSt7__cxx1112basic_stringIcSt11char_traitsIcESaIcEE10_M_replaceEmmPKcm
.LEHE7:
	add	x22, sp, 88
	str	x22, [sp, 72]
	mov	x3, x0
	ldr	x1, [x0], 16
	cmp	x1, x0
	beq	.L534
	ldr	x2, [x3, 16]
	str	x1, [sp, 72]
	str	x2, [sp, 88]
.L517:
	ldr	x1, [x3, 8]
	str	x1, [sp, 80]
	stp	x0, xzr, [x3]
	add	x1, sp, 72
	mov	x0, x19
	strb	wzr, [x3, 16]
.LEHB8:
	bl	_ZNSt13runtime_errorC2ERKNSt7__cxx1112basic_stringIcSt11char_traitsIcESaIcEEE
.LEHE8:
	ldr	x0, [sp, 72]
	cmp	x0, x22
	beq	.L518
	ldr	x1, [sp, 88]
	add	x1, x1, 1
	bl	_ZdlPvm
.L518:
	ldr	x0, [sp, 104]
	cmp	x0, x23
	beq	.L519
	ldr	x1, [sp, 120]
	add	x1, x1, 1
	bl	_ZdlPvm
.L519:
	ldr	x0, [sp, 136]
	add	x1, sp, 152
	cmp	x0, x1
	beq	.L520
	ldr	x1, [sp, 152]
	add	x1, x1, 1
	bl	_ZdlPvm
.L520:
	adrp	x0, :got:_ZTVSt12system_error
	adrp	x1, :got:__stack_chk_guard
	stp	x21, x20, [x19, 16]
	ldr	x0, [x0, #:got_lo12:_ZTVSt12system_error]
	ldr	x1, [x1, #:got_lo12:__stack_chk_guard]
	add	x0, x0, 16
	str	x0, [x19]
	ldr	x0, [sp, 168]
	ldr	x2, [x1]
	subs	x0, x0, x2
	mov	x2, 0
	bne	.L535
	ldp	x19, x20, [sp, 16]
	ldp	x21, x22, [sp, 32]
	ldr	x23, [sp, 48]
	ldp	x29, x30, [sp], 176
	.cfi_remember_state
	.cfi_restore 30
	.cfi_restore 29
	.cfi_restore 23
	.cfi_restore 21
	.cfi_restore 22
	.cfi_restore 19
	.cfi_restore 20
	.cfi_def_cfa_offset 0
	ret
	.p2align 2,,3
.L533:
	.cfi_restore_state
	ldp	x2, x3, [x4, 16]
	stp	x2, x3, [sp, 120]
	b	.L515
	.p2align 2,,3
.L534:
	ldp	x4, x5, [x3, 16]
	stp	x4, x5, [sp, 88]
	b	.L517
.L535:
	bl	__stack_chk_fail
.L530:
	ldr	x2, [sp, 72]
	mov	x19, x0
	cmp	x2, x22
	beq	.L523
	ldr	x1, [sp, 88]
	mov	x0, x2
	add	x1, x1, 1
	bl	_ZdlPvm
.L523:
	ldr	x0, [sp, 104]
	cmp	x0, x23
	beq	.L525
	ldr	x1, [sp, 120]
	add	x1, x1, 1
	bl	_ZdlPvm
.L525:
	ldr	x0, [sp, 136]
	add	x1, sp, 152
	cmp	x0, x1
	beq	.L526
	ldr	x1, [sp, 152]
	add	x1, x1, 1
	bl	_ZdlPvm
.L526:
	mov	x0, x19
.LEHB9:
	bl	_Unwind_Resume
.LEHE9:
.L528:
	mov	x19, x0
	b	.L525
.L529:
	mov	x19, x0
	b	.L523
	.cfi_endproc
.LFE2230:
	.section	.gcc_except_table
.LLSDA2230:
	.byte	0xff
	.byte	0xff
	.byte	0x1
	.uleb128 .LLSDACSE2230-.LLSDACSB2230
.LLSDACSB2230:
	.uleb128 .LEHB5-.LFB2230
	.uleb128 .LEHE5-.LEHB5
	.uleb128 0
	.uleb128 0
	.uleb128 .LEHB6-.LFB2230
	.uleb128 .LEHE6-.LEHB6
	.uleb128 .L528-.LFB2230
	.uleb128 0
	.uleb128 .LEHB7-.LFB2230
	.uleb128 .LEHE7-.LEHB7
	.uleb128 .L529-.LFB2230
	.uleb128 0
	.uleb128 .LEHB8-.LFB2230
	.uleb128 .LEHE8-.LEHB8
	.uleb128 .L530-.LFB2230
	.uleb128 0
	.uleb128 .LEHB9-.LFB2230
	.uleb128 .LEHE9-.LEHB9
	.uleb128 0
	.uleb128 0
.LLSDACSE2230:
	.section	.text._ZNSt12system_errorC2ESt10error_codePKc,"axG",@progbits,_ZNSt12system_errorC5ESt10error_codePKc,comdat
	.size	_ZNSt12system_errorC2ESt10error_codePKc, .-_ZNSt12system_errorC2ESt10error_codePKc
	.weak	_ZNSt12system_errorC1ESt10error_codePKc
	.set	_ZNSt12system_errorC1ESt10error_codePKc,_ZNSt12system_errorC2ESt10error_codePKc
	.section	.text._ZN4asio15system_categoryEv,"axG",@progbits,_ZN4asio15system_categoryEv,comdat
	.align	2
	.p2align 4,,11
	.weak	_ZN4asio15system_categoryEv
	.type	_ZN4asio15system_categoryEv, %function
_ZN4asio15system_categoryEv:
.LFB2283:
	.cfi_startproc
	stp	x29, x30, [sp, -32]!
	.cfi_def_cfa_offset 32
	.cfi_offset 29, -32
	.cfi_offset 30, -24
	mov	x29, sp
	stp	x19, x20, [sp, 16]
	.cfi_offset 19, -16
	.cfi_offset 20, -8
	adrp	x19, :got:_ZGVZN4asio15system_categoryEvE8instance
	ldr	x19, [x19, #:got_lo12:_ZGVZN4asio15system_categoryEvE8instance]
	ldar	x0, [x19]
	adrp	x20, :got:_ZZN4asio15system_categoryEvE8instance
	tbz	x0, 0, .L544
.L538:
	ldr	x0, [x20, #:got_lo12:_ZZN4asio15system_categoryEvE8instance]
	ldp	x19, x20, [sp, 16]
	ldp	x29, x30, [sp], 32
	.cfi_remember_state
	.cfi_restore 30
	.cfi_restore 29
	.cfi_restore 19
	.cfi_restore 20
	.cfi_def_cfa_offset 0
	ret
	.p2align 2,,3
.L544:
	.cfi_restore_state
	mov	x0, x19
	adrp	x20, :got:_ZZN4asio15system_categoryEvE8instance
	bl	__cxa_guard_acquire
	cbz	w0, .L538
	adrp	x0, :got:_ZN4asio6detail15system_categoryD1Ev
	adrp	x2, __dso_handle
	ldr	x1, [x20, #:got_lo12:_ZZN4asio15system_categoryEvE8instance]
	add	x2, x2, :lo12:__dso_handle
	ldr	x0, [x0, #:got_lo12:_ZN4asio6detail15system_categoryD1Ev]
	bl	__cxa_atexit
	mov	x0, x19
	bl	__cxa_guard_release
	ldr	x0, [x20, #:got_lo12:_ZZN4asio15system_categoryEvE8instance]
	ldp	x19, x20, [sp, 16]
	ldp	x29, x30, [sp], 32
	.cfi_restore 30
	.cfi_restore 29
	.cfi_restore 19
	.cfi_restore 20
	.cfi_def_cfa_offset 0
	ret
	.cfi_endproc
.LFE2283:
	.size	_ZN4asio15system_categoryEv, .-_ZN4asio15system_categoryEv
	.global	__aarch64_ldadd8_acq_rel
	.section	.text._ZN4asio6detail13epoll_reactor32perform_io_cleanup_on_block_exitD2Ev,"axG",@progbits,_ZN4asio6detail13epoll_reactor32perform_io_cleanup_on_block_exitD5Ev,comdat
	.align	2
	.p2align 4,,11
	.weak	_ZN4asio6detail13epoll_reactor32perform_io_cleanup_on_block_exitD2Ev
	.type	_ZN4asio6detail13epoll_reactor32perform_io_cleanup_on_block_exitD2Ev, %function
_ZN4asio6detail13epoll_reactor32perform_io_cleanup_on_block_exitD2Ev:
.LFB3333:
	.cfi_startproc
	.cfi_personality 0x9b,DW.ref.__gxx_personality_v0
	.cfi_lsda 0x1b,.LLSDA3333
	stp	x29, x30, [sp, -96]!
	.cfi_def_cfa_offset 96
	.cfi_offset 29, -96
	.cfi_offset 30, -88
	adrp	x1, :got:__stack_chk_guard
	mov	x29, sp
	ldr	x1, [x1, #:got_lo12:__stack_chk_guard]
	stp	x19, x20, [sp, 16]
	.cfi_offset 19, -80
	.cfi_offset 20, -72
	mov	x19, x0
	stp	x21, x22, [sp, 32]
	.cfi_offset 21, -64
	.cfi_offset 22, -56
	ldr	x0, [x0, 24]
	ldr	x2, [x1]
	str	x2, [sp, 88]
	mov	x2, 0
	cbz	x0, .L546
	ldr	x0, [x19, 8]
	cbz	x0, .L545
	ldr	x0, [x19]
	ldr	x20, [x0, 40]
	ldrb	w0, [x20, 40]
	cbz	w0, .L548
	adrp	x0, :got:_ZN4asio6detail10call_stackINS0_15task_io_serviceENS0_27task_io_service_thread_infoEE4top_E
	ldr	x0, [x0, #:got_lo12:_ZN4asio6detail10call_stackINS0_15task_io_serviceENS0_27task_io_service_thread_infoEE4top_E]
	ldr	w0, [x0]
	bl	pthread_getspecific
	cbnz	x0, .L551
	.p2align 3,,7
.L548:
	add	x21, x20, 48
	mov	x0, x21
	bl	pthread_mutex_lock
	ldr	x0, [x19, 8]
	cbz	x0, .L555
	ldr	x2, [x20, 208]
	add	x1, x20, 200
	cbz	x2, .L556
	str	x0, [x2]
.L557:
	ldr	x0, [x19, 16]
	str	x0, [x1, 8]
	stp	xzr, xzr, [x19, 8]
.L555:
	add	x22, x20, 96
	ldr	x0, [x20, 144]
	orr	x0, x0, 1
	str	x0, [x20, 144]
	cmp	x0, 1
	beq	.L558
	mov	x0, x21
	bl	pthread_mutex_unlock
	mov	x0, x22
	bl	pthread_cond_signal
.L562:
	ldr	x1, [x19, 8]
	cbz	x1, .L545
	str	x1, [sp, 56]
	bl	_ZNSt3_V215system_categoryEv
	add	x19, x19, 8
	add	x21, sp, 72
	mov	x20, x0
	ldr	x1, [sp, 56]
	b	.L565
	.p2align 2,,3
.L563:
	ldr	x4, [x1, 8]
	str	xzr, [x1]
	str	wzr, [sp, 72]
	mov	x2, x21
	str	x20, [sp, 80]
	mov	x3, 0
	mov	x0, 0
	blr	x4
	ldr	x1, [x19]
	cbz	x1, .L545
.L565:
	ldr	x3, [x1]
	str	x3, [x19]
	cbnz	x3, .L563
	ldr	x4, [x1, 8]
	str	xzr, [x19, 8]
	str	xzr, [x1]
	mov	x2, x21
	str	wzr, [sp, 72]
	mov	x0, 0
	str	x20, [sp, 80]
	blr	x4
	ldr	x1, [x19]
	cbnz	x1, .L565
	.p2align 3,,7
.L545:
	adrp	x0, :got:__stack_chk_guard
	ldr	x0, [x0, #:got_lo12:__stack_chk_guard]
	ldr	x2, [sp, 88]
	ldr	x1, [x0]
	subs	x2, x2, x1
	mov	x1, 0
	bne	.L599
	ldp	x19, x20, [sp, 16]
	ldp	x21, x22, [sp, 32]
	ldp	x29, x30, [sp], 96
	.cfi_remember_state
	.cfi_restore 30
	.cfi_restore 29
	.cfi_restore 21
	.cfi_restore 22
	.cfi_restore 19
	.cfi_restore 20
	.cfi_def_cfa_offset 0
	ret
	.p2align 2,,3
.L549:
	.cfi_restore_state
	ldr	x0, [x0, 16]
	cbz	x0, .L548
.L551:
	ldr	x1, [x0]
	cmp	x20, x1
	bne	.L549
	ldr	x0, [x0, 8]
	cbz	x0, .L548
	ldr	x1, [x19, 8]
	cbz	x1, .L545
	ldr	x3, [x0, 16]
	add	x2, x0, 8
	cbz	x3, .L552
	str	x1, [x3]
.L553:
	ldr	x0, [x19, 16]
	str	x0, [x2, 8]
	b	.L545
	.p2align 2,,3
.L558:
	ldrb	w1, [x20, 184]
	cbnz	w1, .L560
	ldr	x4, [x20, 152]
	cbz	x4, .L560
	mov	w1, 9
	strb	w0, [x20, 184]
	ldr	w2, [x4, 96]
	add	x0, x4, 96
	movk	w1, 0x8000, lsl 16
	str	w1, [sp, 72]
	str	x0, [sp, 80]
	add	x3, sp, 72
	mov	w1, 3
	ldr	w0, [x4, 104]
	bl	epoll_ctl
.L560:
	mov	x0, x21
	bl	pthread_mutex_unlock
	b	.L562
	.p2align 2,,3
.L546:
	ldr	x1, [x19]
	mov	x0, 1
	ldr	x1, [x1, 40]
	add	x1, x1, 192
	bl	__aarch64_ldadd8_acq_rel
	b	.L562
.L556:
	str	x0, [x20, 200]
	b	.L557
.L552:
	str	x1, [x0, 8]
	b	.L553
.L599:
	bl	__stack_chk_fail
	.cfi_endproc
.LFE3333:
	.section	.gcc_except_table
.LLSDA3333:
	.byte	0xff
	.byte	0xff
	.byte	0x1
	.uleb128 .LLSDACSE3333-.LLSDACSB3333
.LLSDACSB3333:
.LLSDACSE3333:
	.section	.text._ZN4asio6detail13epoll_reactor32perform_io_cleanup_on_block_exitD2Ev,"axG",@progbits,_ZN4asio6detail13epoll_reactor32perform_io_cleanup_on_block_exitD5Ev,comdat
	.size	_ZN4asio6detail13epoll_reactor32perform_io_cleanup_on_block_exitD2Ev, .-_ZN4asio6detail13epoll_reactor32perform_io_cleanup_on_block_exitD2Ev
	.weak	_ZN4asio6detail13epoll_reactor32perform_io_cleanup_on_block_exitD1Ev
	.set	_ZN4asio6detail13epoll_reactor32perform_io_cleanup_on_block_exitD1Ev,_ZN4asio6detail13epoll_reactor32perform_io_cleanup_on_block_exitD2Ev
	.section	.text._ZN4asio6detail13epoll_reactor16descriptor_state11do_completeEPNS0_15task_io_serviceEPNS0_25task_io_service_operationERKSt10error_codem,"axG",@progbits,_ZN4asio6detail13epoll_reactor16descriptor_state11do_completeEPNS0_15task_io_serviceEPNS0_25task_io_service_operationERKSt10error_codem,comdat
	.align	2
	.p2align 4,,11
	.weak	_ZN4asio6detail13epoll_reactor16descriptor_state11do_completeEPNS0_15task_io_serviceEPNS0_25task_io_service_operationERKSt10error_codem
	.type	_ZN4asio6detail13epoll_reactor16descriptor_state11do_completeEPNS0_15task_io_serviceEPNS0_25task_io_service_operationERKSt10error_codem, %function
_ZN4asio6detail13epoll_reactor16descriptor_state11do_completeEPNS0_15task_io_serviceEPNS0_25task_io_service_operationERKSt10error_codem:
.LFB3339:
	.cfi_startproc
	.cfi_personality 0x9b,DW.ref.__gxx_personality_v0
	.cfi_lsda 0x1b,.LLSDA3339
	stp	x29, x30, [sp, -160]!
	.cfi_def_cfa_offset 160
	.cfi_offset 29, -160
	.cfi_offset 30, -152
	adrp	x4, :got:__stack_chk_guard
	mov	x29, sp
	ldr	x4, [x4, #:got_lo12:__stack_chk_guard]
	stp	x23, x24, [sp, 48]
	.cfi_offset 23, -112
	.cfi_offset 24, -104
	mov	x23, x0
	ldr	x0, [x4]
	str	x0, [sp, 152]
	mov	x0, 0
	cbz	x23, .L600
	stp	x19, x20, [sp, 16]
	.cfi_offset 20, -136
	.cfi_offset 19, -144
	mov	x19, x1
	mov	x24, x2
	stp	x21, x22, [sp, 32]
	.cfi_offset 22, -120
	.cfi_offset 21, -128
	adrp	x21, :got:_ZZN4asio6detail13epoll_reactor16descriptor_state10perform_ioEjE4flag
	mov	w22, w3
	stp	x25, x26, [sp, 64]
	.cfi_offset 26, -88
	.cfi_offset 25, -96
	add	x26, x1, 40
	mov	x0, x26
	add	x20, x1, 136
	add	x25, x1, 88
	str	x27, [sp, 80]
	.cfi_offset 27, -80
	bl	pthread_mutex_lock
	ldr	x21, [x21, #:got_lo12:_ZZN4asio6detail13epoll_reactor16descriptor_state10perform_ioEjE4flag]
	stp	xzr, xzr, [sp, 128]
	ldr	x27, [x19, 88]
	stp	x27, xzr, [sp, 112]
.L610:
	ldr	w0, [x21, 8]
	orr	w0, w0, 24
	tst	w0, w22
	bne	.L664
.L603:
	sub	x20, x20, #16
	sub	x21, x21, #4
	cmp	x20, x25
	bne	.L610
	ldr	x19, [sp, 120]
	str	x19, [sp, 136]
	cbz	x19, .L611
	ldr	x21, [x19]
	str	x21, [sp, 120]
	cbz	x21, .L665
	str	xzr, [x19]
	mov	x0, x26
	bl	pthread_mutex_unlock
	ldr	x20, [x27, 40]
	ldrb	w0, [x20, 40]
	cbnz	w0, .L631
.L614:
	add	x22, x20, 48
	mov	x0, x22
	bl	pthread_mutex_lock
	ldr	x1, [x20, 208]
	add	x0, x20, 200
	cbz	x1, .L620
	str	x21, [x1]
.L621:
	ldr	x1, [sp, 128]
	str	x1, [x0, 8]
	ldr	x0, [x20, 144]
	stp	xzr, xzr, [sp, 120]
	add	x21, x20, 96
	orr	x0, x0, 1
	str	x0, [x20, 144]
	cmp	x0, 1
	beq	.L622
	mov	x0, x22
	bl	pthread_mutex_unlock
	mov	x0, x21
	bl	pthread_cond_signal
	.p2align 3,,7
.L613:
	adrp	x0, :got:__stack_chk_guard
	ldr	x0, [x0, #:got_lo12:__stack_chk_guard]
	ldr	x2, [sp, 152]
	ldr	x1, [x0]
	subs	x2, x2, x1
	mov	x1, 0
	bne	.L663
	mov	x2, x24
	mov	x0, x23
	mov	x1, x19
	mov	x3, 0
	ldr	x4, [x19, 8]
	ldp	x19, x20, [sp, 16]
	.cfi_remember_state
	.cfi_restore 20
	.cfi_restore 19
	mov	x16, x4
	ldp	x21, x22, [sp, 32]
	.cfi_restore 22
	.cfi_restore 21
	ldp	x23, x24, [sp, 48]
	ldp	x25, x26, [sp, 64]
	.cfi_restore 26
	.cfi_restore 25
	ldr	x27, [sp, 80]
	.cfi_restore 27
	ldp	x29, x30, [sp], 160
	.cfi_restore 30
	.cfi_restore 29
	.cfi_restore 23
	.cfi_restore 24
	.cfi_def_cfa_offset 0
.LEHB10:
	br	x16
.LEHE10:
	.p2align 2,,3
.L611:
	.cfi_restore_state
	mov	x0, x26
	bl	pthread_mutex_unlock
	ldr	x1, [x27, 40]
	mov	x0, 1
	add	x1, x1, 192
	bl	__aarch64_ldadd8_acq_rel
	ldr	x20, [sp, 120]
	cbz	x20, .L662
	bl	_ZNSt3_V215system_categoryEv
	add	x22, sp, 96
	ldp	x19, x4, [x20]
	str	x19, [sp, 120]
	mov	x21, x0
	cbz	x19, .L628
	.p2align 3,,7
.L629:
	str	xzr, [x20]
	mov	x1, x20
	str	wzr, [sp, 96]
	mov	x20, x19
	str	x21, [sp, 104]
	mov	x2, x22
	mov	x3, 0
	mov	x0, 0
	blr	x4
	ldr	x19, [x19]
	ldr	x4, [x20, 8]
	str	x19, [sp, 120]
	cbnz	x19, .L629
.L628:
	str	xzr, [x20]
	mov	x2, x22
	str	wzr, [sp, 96]
	mov	x1, x20
	str	x21, [sp, 104]
	mov	x3, 0
	mov	x0, 0
	blr	x4
	ldp	x19, x20, [sp, 16]
	.cfi_restore 20
	.cfi_restore 19
	ldp	x21, x22, [sp, 32]
	.cfi_restore 22
	.cfi_restore 21
	ldp	x25, x26, [sp, 64]
	.cfi_restore 26
	.cfi_restore 25
	ldr	x27, [sp, 80]
	.cfi_restore 27
.L600:
	adrp	x0, :got:__stack_chk_guard
	ldr	x0, [x0, #:got_lo12:__stack_chk_guard]
	ldr	x2, [sp, 152]
	ldr	x1, [x0]
	subs	x2, x2, x1
	mov	x1, 0
	bne	.L666
	ldp	x23, x24, [sp, 48]
	ldp	x29, x30, [sp], 160
	.cfi_restore 30
	.cfi_restore 29
	.cfi_restore 23
	.cfi_restore 24
	.cfi_def_cfa_offset 0
	ret
	.p2align 2,,3
.L664:
	.cfi_def_cfa_offset 160
	.cfi_offset 19, -144
	.cfi_offset 20, -136
	.cfi_offset 21, -128
	.cfi_offset 22, -120
	.cfi_offset 23, -112
	.cfi_offset 24, -104
	.cfi_offset 25, -96
	.cfi_offset 26, -88
	.cfi_offset 27, -80
	.cfi_offset 29, -160
	.cfi_offset 30, -152
	ldr	x19, [x20]
	cbz	x19, .L603
	.p2align 3,,7
.L604:
	ldr	x1, [x19, 48]
	mov	x0, x19
.LEHB11:
	blr	x1
.LEHE11:
	tst	w0, 255
	beq	.L603
	ldr	x1, [x20]
	cbz	x1, .L605
	ldr	x0, [x1]
	str	x0, [x20]
	cbz	x0, .L667
	ldr	x2, [sp, 128]
	str	xzr, [x1]
	str	xzr, [x19]
	cbz	x2, .L608
	str	x19, [x2]
	str	x19, [sp, 128]
	mov	x19, x0
	b	.L604
	.p2align 2,,3
.L605:
	ldr	x0, [sp, 128]
	str	xzr, [x19]
	cbnz	x0, .L632
.L607:
	stp	x19, x19, [sp, 120]
	b	.L603
	.p2align 2,,3
.L667:
	str	xzr, [x20, 8]
	ldr	x0, [sp, 128]
	str	xzr, [x1]
	str	xzr, [x19]
	cbz	x0, .L607
.L632:
	str	x19, [sp, 128]
	str	x19, [x0]
	b	.L603
	.p2align 2,,3
.L631:
	adrp	x0, :got:_ZN4asio6detail10call_stackINS0_15task_io_serviceENS0_27task_io_service_thread_infoEE4top_E
	ldr	x0, [x0, #:got_lo12:_ZN4asio6detail10call_stackINS0_15task_io_serviceENS0_27task_io_service_thread_infoEE4top_E]
	ldr	w0, [x0]
	bl	pthread_getspecific
	cbnz	x0, .L617
	b	.L614
	.p2align 2,,3
.L615:
	ldr	x0, [x0, 16]
	cbz	x0, .L614
.L617:
	ldr	x1, [x0]
	cmp	x20, x1
	bne	.L615
	ldr	x0, [x0, 8]
	cbz	x0, .L614
	ldr	x2, [x0, 16]
	add	x1, x0, 8
	cbz	x2, .L618
	str	x21, [x2]
.L619:
	ldr	x0, [sp, 128]
	str	x0, [x1, 8]
	b	.L613
	.p2align 2,,3
.L665:
	mov	x0, x26
	bl	pthread_mutex_unlock
	b	.L613
	.p2align 2,,3
.L608:
	stp	x19, x19, [sp, 120]
	mov	x19, x0
	b	.L604
	.p2align 2,,3
.L622:
	ldrb	w1, [x20, 184]
	cbnz	w1, .L624
	ldr	x4, [x20, 152]
	cbz	x4, .L624
	mov	w1, 9
	strb	w0, [x20, 184]
	ldr	w2, [x4, 96]
	add	x0, x4, 96
	movk	w1, 0x8000, lsl 16
	str	w1, [sp, 96]
	str	x0, [sp, 104]
	add	x3, sp, 96
	mov	w1, 3
	ldr	w0, [x4, 104]
	bl	epoll_ctl
.L624:
	mov	x0, x22
	bl	pthread_mutex_unlock
	b	.L613
.L620:
	str	x21, [x20, 200]
	b	.L621
.L618:
	str	x21, [x0, 8]
	b	.L619
.L666:
	.cfi_restore 19
	.cfi_restore 20
	.cfi_restore 21
	.cfi_restore 22
	.cfi_restore 25
	.cfi_restore 26
	.cfi_restore 27
	stp	x19, x20, [sp, 16]
	.cfi_offset 20, -136
	.cfi_offset 19, -144
	stp	x21, x22, [sp, 32]
	.cfi_offset 22, -120
	.cfi_offset 21, -128
	stp	x25, x26, [sp, 64]
	.cfi_offset 26, -88
	.cfi_offset 25, -96
	str	x27, [sp, 80]
	.cfi_offset 27, -80
.L663:
	bl	__stack_chk_fail
.L662:
	ldp	x19, x20, [sp, 16]
	.cfi_remember_state
	.cfi_restore 20
	.cfi_restore 19
	ldp	x21, x22, [sp, 32]
	.cfi_restore 22
	.cfi_restore 21
	ldp	x25, x26, [sp, 64]
	.cfi_restore 26
	.cfi_restore 25
	ldr	x27, [sp, 80]
	.cfi_restore 27
	b	.L600
.L634:
	.cfi_restore_state
	mov	x19, x0
	mov	x0, x26
	bl	pthread_mutex_unlock
	add	x0, sp, 112
	bl	_ZN4asio6detail13epoll_reactor32perform_io_cleanup_on_block_exitD1Ev
	mov	x0, x19
.LEHB12:
	bl	_Unwind_Resume
.LEHE12:
	.cfi_endproc
.LFE3339:
	.section	.gcc_except_table
.LLSDA3339:
	.byte	0xff
	.byte	0xff
	.byte	0x1
	.uleb128 .LLSDACSE3339-.LLSDACSB3339
.LLSDACSB3339:
	.uleb128 .LEHB10-.LFB3339
	.uleb128 .LEHE10-.LEHB10
	.uleb128 0
	.uleb128 0
	.uleb128 .LEHB11-.LFB3339
	.uleb128 .LEHE11-.LEHB11
	.uleb128 .L634-.LFB3339
	.uleb128 0
	.uleb128 .LEHB12-.LFB3339
	.uleb128 .LEHE12-.LEHB12
	.uleb128 0
	.uleb128 0
.LLSDACSE3339:
	.section	.text._ZN4asio6detail13epoll_reactor16descriptor_state11do_completeEPNS0_15task_io_serviceEPNS0_25task_io_service_operationERKSt10error_codem,"axG",@progbits,_ZN4asio6detail13epoll_reactor16descriptor_state11do_completeEPNS0_15task_io_serviceEPNS0_25task_io_service_operationERKSt10error_codem,comdat
	.size	_ZN4asio6detail13epoll_reactor16descriptor_state11do_completeEPNS0_15task_io_serviceEPNS0_25task_io_service_operationERKSt10error_codem, .-_ZN4asio6detail13epoll_reactor16descriptor_state11do_completeEPNS0_15task_io_serviceEPNS0_25task_io_service_operationERKSt10error_codem
	.section	.text._ZN4asio6detail13socket_holderD2Ev,"axG",@progbits,_ZN4asio6detail13socket_holderD5Ev,comdat
	.align	2
	.p2align 4,,11
	.weak	_ZN4asio6detail13socket_holderD2Ev
	.type	_ZN4asio6detail13socket_holderD2Ev, %function
_ZN4asio6detail13socket_holderD2Ev:
.LFB3788:
	.cfi_startproc
	.cfi_personality 0x9b,DW.ref.__gxx_personality_v0
	.cfi_lsda 0x1b,.LLSDA3788
	stp	x29, x30, [sp, -80]!
	.cfi_def_cfa_offset 80
	.cfi_offset 29, -80
	.cfi_offset 30, -72
	adrp	x1, :got:__stack_chk_guard
	mov	x29, sp
	ldr	x1, [x1, #:got_lo12:__stack_chk_guard]
	stp	x19, x20, [sp, 16]
	.cfi_offset 19, -64
	.cfi_offset 20, -56
	ldr	w19, [x0]
	ldr	x0, [x1]
	str	x0, [sp, 72]
	mov	x0, 0
	cmn	w19, #1
	bne	.L707
.L668:
	adrp	x0, :got:__stack_chk_guard
	ldr	x0, [x0, #:got_lo12:__stack_chk_guard]
	ldr	x2, [sp, 72]
	ldr	x1, [x0]
	subs	x2, x2, x1
	mov	x1, 0
	bne	.L708
	ldp	x19, x20, [sp, 16]
	ldp	x29, x30, [sp], 80
	.cfi_remember_state
	.cfi_restore 30
	.cfi_restore 29
	.cfi_restore 19
	.cfi_restore 20
	.cfi_def_cfa_offset 0
	ret
	.p2align 2,,3
.L707:
	.cfi_restore_state
	stp	x21, x22, [sp, 32]
	.cfi_offset 22, -40
	.cfi_offset 21, -48
	adrp	x22, :got:_ZGVZN4asio15system_categoryEvE8instance
	stp	x23, x24, [sp, 48]
	.cfi_offset 24, -24
	.cfi_offset 23, -32
	bl	__errno_location
	mov	x20, x0
	mov	w0, w19
	str	wzr, [x20]
	bl	close
	ldr	w24, [x20]
	ldr	x23, [x22, #:got_lo12:_ZGVZN4asio15system_categoryEvE8instance]
	mov	w21, w0
	ldar	x0, [x23]
	tbz	x0, 0, .L709
.L671:
	cbnz	w21, .L710
.L705:
	ldp	x21, x22, [sp, 32]
	.cfi_remember_state
	.cfi_restore 22
	.cfi_restore 21
	ldp	x23, x24, [sp, 48]
	.cfi_restore 24
	.cfi_restore 23
	b	.L668
	.p2align 2,,3
.L709:
	.cfi_restore_state
	mov	x0, x23
	bl	__cxa_guard_acquire
	cbz	w0, .L671
	adrp	x1, :got:_ZZN4asio15system_categoryEvE8instance
	adrp	x0, :got:_ZN4asio6detail15system_categoryD1Ev
	adrp	x2, __dso_handle
	add	x2, x2, :lo12:__dso_handle
	ldr	x1, [x1, #:got_lo12:_ZZN4asio15system_categoryEvE8instance]
	ldr	x0, [x0, #:got_lo12:_ZN4asio6detail15system_categoryD1Ev]
	bl	__cxa_atexit
	mov	x0, x23
	bl	__cxa_guard_release
	cbz	w21, .L705
	.p2align 3,,7
.L710:
	ldr	x21, [x22, #:got_lo12:_ZGVZN4asio15system_categoryEvE8instance]
	ldar	x0, [x21]
	tbz	x0, 0, .L711
.L676:
	cmp	w24, 11
	beq	.L678
	ldr	x22, [x22, #:got_lo12:_ZGVZN4asio15system_categoryEvE8instance]
	ldar	x0, [x22]
	tbnz	x0, 0, .L705
	mov	x0, x22
	bl	__cxa_guard_acquire
	cbz	w0, .L705
	adrp	x1, :got:_ZZN4asio15system_categoryEvE8instance
	adrp	x0, :got:_ZN4asio6detail15system_categoryD1Ev
	adrp	x2, __dso_handle
	add	x2, x2, :lo12:__dso_handle
	ldr	x1, [x1, #:got_lo12:_ZZN4asio15system_categoryEvE8instance]
	ldr	x0, [x0, #:got_lo12:_ZN4asio6detail15system_categoryD1Ev]
	bl	__cxa_atexit
	adrp	x0, :got:__stack_chk_guard
	ldr	x0, [x0, #:got_lo12:__stack_chk_guard]
	ldr	x2, [sp, 72]
	ldr	x1, [x0]
	subs	x2, x2, x1
	mov	x1, 0
	bne	.L706
	mov	x0, x22
	ldp	x19, x20, [sp, 16]
	ldp	x21, x22, [sp, 32]
	.cfi_remember_state
	.cfi_restore 22
	.cfi_restore 21
	ldp	x23, x24, [sp, 48]
	.cfi_restore 24
	.cfi_restore 23
	ldp	x29, x30, [sp], 80
	.cfi_restore 30
	.cfi_restore 29
	.cfi_restore 19
	.cfi_restore 20
	.cfi_def_cfa_offset 0
	b	__cxa_guard_release
	.p2align 2,,3
.L711:
	.cfi_restore_state
	mov	x0, x21
	bl	__cxa_guard_acquire
	cbz	w0, .L676
	adrp	x1, :got:_ZZN4asio15system_categoryEvE8instance
	adrp	x0, :got:_ZN4asio6detail15system_categoryD1Ev
	adrp	x2, __dso_handle
	add	x2, x2, :lo12:__dso_handle
	ldr	x1, [x1, #:got_lo12:_ZZN4asio15system_categoryEvE8instance]
	ldr	x0, [x0, #:got_lo12:_ZN4asio6detail15system_categoryD1Ev]
	bl	__cxa_atexit
	mov	x0, x21
	bl	__cxa_guard_release
	b	.L676
	.p2align 2,,3
.L678:
	add	x2, sp, 68
	mov	x1, 21537
	mov	w0, w19
	str	wzr, [sp, 68]
	bl	ioctl
	str	wzr, [x20]
	mov	w0, w19
	bl	close
	ldr	x22, [x22, #:got_lo12:_ZGVZN4asio15system_categoryEvE8instance]
	ldar	x0, [x22]
	tbnz	x0, 0, .L705
	mov	x0, x22
	bl	__cxa_guard_acquire
	cbz	w0, .L705
	adrp	x1, :got:_ZZN4asio15system_categoryEvE8instance
	adrp	x0, :got:_ZN4asio6detail15system_categoryD1Ev
	adrp	x2, __dso_handle
	add	x2, x2, :lo12:__dso_handle
	ldr	x1, [x1, #:got_lo12:_ZZN4asio15system_categoryEvE8instance]
	ldr	x0, [x0, #:got_lo12:_ZN4asio6detail15system_categoryD1Ev]
	bl	__cxa_atexit
	mov	x0, x22
	bl	__cxa_guard_release
	ldp	x21, x22, [sp, 32]
	.cfi_restore 22
	.cfi_restore 21
	ldp	x23, x24, [sp, 48]
	.cfi_restore 24
	.cfi_restore 23
	b	.L668
.L708:
	stp	x21, x22, [sp, 32]
	.cfi_offset 22, -40
	.cfi_offset 21, -48
	stp	x23, x24, [sp, 48]
	.cfi_offset 24, -24
	.cfi_offset 23, -32
.L706:
	bl	__stack_chk_fail
	.cfi_endproc
.LFE3788:
	.section	.gcc_except_table
.LLSDA3788:
	.byte	0xff
	.byte	0xff
	.byte	0x1
	.uleb128 .LLSDACSE3788-.LLSDACSB3788
.LLSDACSB3788:
.LLSDACSE3788:
	.section	.text._ZN4asio6detail13socket_holderD2Ev,"axG",@progbits,_ZN4asio6detail13socket_holderD5Ev,comdat
	.size	_ZN4asio6detail13socket_holderD2Ev, .-_ZN4asio6detail13socket_holderD2Ev
	.weak	_ZN4asio6detail13socket_holderD1Ev
	.set	_ZN4asio6detail13socket_holderD1Ev,_ZN4asio6detail13socket_holderD2Ev
	.section	.text._ZN4asio6detail28reactive_socket_service_base7destroyERNS1_24base_implementation_typeE,"axG",@progbits,_ZN4asio6detail28reactive_socket_service_base7destroyERNS1_24base_implementation_typeE,comdat
	.align	2
	.p2align 4,,11
	.weak	_ZN4asio6detail28reactive_socket_service_base7destroyERNS1_24base_implementation_typeE
	.type	_ZN4asio6detail28reactive_socket_service_base7destroyERNS1_24base_implementation_typeE, %function
_ZN4asio6detail28reactive_socket_service_base7destroyERNS1_24base_implementation_typeE:
.LFB3871:
	.cfi_startproc
	stp	x29, x30, [sp, -144]!
	.cfi_def_cfa_offset 144
	.cfi_offset 29, -144
	.cfi_offset 30, -136
	adrp	x2, :got:__stack_chk_guard
	mov	x29, sp
	stp	x25, x26, [sp, 64]
	.cfi_offset 25, -80
	.cfi_offset 26, -72
	mov	x26, x1
	mov	x1, x0
	ldr	x2, [x2, #:got_lo12:__stack_chk_guard]
	stp	x19, x20, [sp, 16]
	.cfi_offset 19, -128
	.cfi_offset 20, -120
	ldr	w19, [x26]
	ldr	x0, [x2]
	str	x0, [sp, 136]
	mov	x0, 0
	cmn	w19, #1
	bne	.L826
.L712:
	adrp	x0, :got:__stack_chk_guard
	ldr	x0, [x0, #:got_lo12:__stack_chk_guard]
	ldr	x2, [sp, 136]
	ldr	x1, [x0]
	subs	x2, x2, x1
	mov	x1, 0
	bne	.L827
	ldp	x19, x20, [sp, 16]
	ldp	x25, x26, [sp, 64]
	ldp	x29, x30, [sp], 144
	.cfi_remember_state
	.cfi_restore 30
	.cfi_restore 29
	.cfi_restore 25
	.cfi_restore 26
	.cfi_restore 19
	.cfi_restore 20
	.cfi_def_cfa_offset 0
	ret
	.p2align 2,,3
.L826:
	.cfi_restore_state
	stp	x21, x22, [sp, 32]
	.cfi_offset 22, -104
	.cfi_offset 21, -112
	ldr	x21, [x26, 8]
	stp	x23, x24, [sp, 48]
	.cfi_offset 24, -88
	.cfi_offset 23, -96
	cbz	x21, .L743
	ldr	x1, [x1]
	add	x21, x21, 40
	ldrb	w20, [x26, 4]
	mov	x0, x21
	str	x1, [sp, 96]
	bl	pthread_mutex_lock
	ldr	x1, [x26, 8]
	ldrb	w0, [x1, 152]
	cbnz	w0, .L715
	stp	x27, x28, [sp, 80]
	.cfi_offset 28, -56
	.cfi_offset 27, -64
	tbnz	x20, 6, .L828
.L716:
	adrp	x28, :got:_ZGVZN4asio15system_categoryEvE8instance
	adrp	x25, __dso_handle
	mov	x27, 0
	add	x0, x25, :lo12:__dso_handle
	ldr	x28, [x28, #:got_lo12:_ZGVZN4asio15system_categoryEvE8instance]
	mov	x23, 0
	mov	w20, 0
	str	x0, [sp, 104]
.L717:
	add	x0, x1, w20, sxtw 4
	sxtw	x24, w20
	ldr	x19, [x0, 104]
	cbz	x19, .L764
	adrp	x22, :got:_ZN4asio6detail15system_categoryD1Ev
	adrp	x25, :got:_ZZN4asio15system_categoryEvE8instance
	ldr	x22, [x22, #:got_lo12:_ZN4asio6detail15system_categoryD1Ev]
	ldar	x0, [x28]
	tbz	x0, 0, .L829
	.p2align 3,,7
.L719:
	ldr	x1, [x26, 8]
	mov	w2, 125
	ldr	x0, [x25, #:got_lo12:_ZZN4asio15system_categoryEvE8instance]
	str	x0, [x19, 32]
	add	x3, x1, x24, lsl 4
	str	w2, [x19, 24]
	ldr	x0, [x3, 104]
	cbz	x0, .L721
.L832:
	ldr	x2, [x0]
	str	x2, [x3, 104]
	cbz	x2, .L830
	str	xzr, [x0]
	str	xzr, [x19]
	cbz	x27, .L831
.L761:
	str	x19, [x27]
	cbz	x2, .L723
.L724:
	mov	x27, x19
	mov	x19, x2
	ldar	x0, [x28]
	tbnz	x0, 0, .L719
.L829:
	mov	x0, x28
	bl	__cxa_guard_acquire
	cbz	w0, .L719
	ldr	x1, [x25, #:got_lo12:_ZZN4asio15system_categoryEvE8instance]
	mov	x0, x22
	ldr	x2, [sp, 104]
	bl	__cxa_atexit
	mov	x0, x28
	bl	__cxa_guard_release
	ldr	x1, [x26, 8]
	mov	w2, 125
	ldr	x0, [x25, #:got_lo12:_ZZN4asio15system_categoryEvE8instance]
	str	x0, [x19, 32]
	add	x3, x1, x24, lsl 4
	str	w2, [x19, 24]
	ldr	x0, [x3, 104]
	cbnz	x0, .L832
	.p2align 3,,7
.L721:
	str	xzr, [x19]
	cbz	x27, .L765
	str	x19, [x27]
.L723:
	add	w20, w20, 1
	cmp	w20, 3
	beq	.L725
.L837:
	mov	x27, x19
	b	.L717
	.p2align 2,,3
.L715:
	.cfi_restore 27
	.cfi_restore 28
	mov	x0, x21
	bl	pthread_mutex_unlock
	ldr	w19, [x26]
.L737:
	cmn	w19, #1
	beq	.L824
.L743:
	ldrb	w21, [x26, 4]
	bl	__errno_location
	adrp	x22, :got:_ZGVZN4asio15system_categoryEvE8instance
	mov	x20, x0
	tbnz	x21, 3, .L833
.L745:
	str	wzr, [x20]
	mov	w0, w19
	bl	close
	ldr	w24, [x20]
	ldr	x23, [x22, #:got_lo12:_ZGVZN4asio15system_categoryEvE8instance]
	mov	w21, w0
	ldar	x0, [x23]
	tbz	x0, 0, .L834
.L750:
	cbnz	w21, .L835
.L824:
	ldp	x21, x22, [sp, 32]
	.cfi_remember_state
	.cfi_restore 22
	.cfi_restore 21
	ldp	x23, x24, [sp, 48]
	.cfi_restore 24
	.cfi_restore 23
	b	.L712
	.p2align 2,,3
.L834:
	.cfi_restore_state
	mov	x0, x23
	bl	__cxa_guard_acquire
	cbz	w0, .L750
	adrp	x1, :got:_ZZN4asio15system_categoryEvE8instance
	adrp	x0, :got:_ZN4asio6detail15system_categoryD1Ev
	adrp	x2, __dso_handle
	add	x2, x2, :lo12:__dso_handle
	ldr	x1, [x1, #:got_lo12:_ZZN4asio15system_categoryEvE8instance]
	ldr	x0, [x0, #:got_lo12:_ZN4asio6detail15system_categoryD1Ev]
	bl	__cxa_atexit
	mov	x0, x23
	bl	__cxa_guard_release
	cbz	w21, .L824
	.p2align 3,,7
.L835:
	ldr	x21, [x22, #:got_lo12:_ZGVZN4asio15system_categoryEvE8instance]
	ldar	x0, [x21]
	tbz	x0, 0, .L836
.L754:
	cmp	w24, 11
	beq	.L756
	ldr	x22, [x22, #:got_lo12:_ZGVZN4asio15system_categoryEvE8instance]
	ldar	x0, [x22]
	tbnz	x0, 0, .L824
	mov	x0, x22
	bl	__cxa_guard_acquire
	cbz	w0, .L824
	adrp	x1, :got:_ZZN4asio15system_categoryEvE8instance
	adrp	x0, :got:_ZN4asio6detail15system_categoryD1Ev
	adrp	x2, __dso_handle
	add	x2, x2, :lo12:__dso_handle
	ldr	x1, [x1, #:got_lo12:_ZZN4asio15system_categoryEvE8instance]
	ldr	x0, [x0, #:got_lo12:_ZN4asio6detail15system_categoryD1Ev]
	bl	__cxa_atexit
	adrp	x0, :got:__stack_chk_guard
	ldr	x0, [x0, #:got_lo12:__stack_chk_guard]
	ldr	x2, [sp, 136]
	ldr	x1, [x0]
	subs	x2, x2, x1
	mov	x1, 0
	bne	.L825
	mov	x0, x22
	ldp	x19, x20, [sp, 16]
	ldp	x21, x22, [sp, 32]
	.cfi_restore 22
	.cfi_restore 21
	ldp	x23, x24, [sp, 48]
	.cfi_restore 24
	.cfi_restore 23
	ldp	x25, x26, [sp, 64]
	ldp	x29, x30, [sp], 144
	.cfi_restore 30
	.cfi_restore 29
	.cfi_restore 25
	.cfi_restore 26
	.cfi_restore 19
	.cfi_restore 20
	.cfi_def_cfa_offset 0
	b	__cxa_guard_release
	.p2align 2,,3
.L830:
	.cfi_def_cfa_offset 144
	.cfi_offset 19, -128
	.cfi_offset 20, -120
	.cfi_offset 21, -112
	.cfi_offset 22, -104
	.cfi_offset 23, -96
	.cfi_offset 24, -88
	.cfi_offset 25, -80
	.cfi_offset 26, -72
	.cfi_offset 27, -64
	.cfi_offset 28, -56
	.cfi_offset 29, -144
	.cfi_offset 30, -136
	str	xzr, [x3, 112]
	str	xzr, [x0]
	str	xzr, [x19]
	cbnz	x27, .L761
	.p2align 3,,7
.L765:
	add	w20, w20, 1
	mov	x23, x19
	cmp	w20, 3
	bne	.L837
.L725:
	ldr	x22, [sp, 96]
	mov	w2, 1
	mov	w0, -1
	str	w0, [x1, 96]
	strb	w2, [x1, 152]
	mov	x0, x21
	add	x21, x22, 128
	bl	pthread_mutex_unlock
	mov	x0, x21
	ldr	x20, [x26, 8]
	bl	pthread_mutex_lock
	ldr	x0, [x22, 176]
	cmp	x20, x0
	beq	.L838
.L727:
	ldr	x0, [x20, 32]
	cbz	x0, .L728
	ldr	x1, [x20, 24]
	str	x1, [x0, 24]
.L728:
	ldr	x0, [x20, 24]
	cbz	x0, .L729
	ldr	x1, [x20, 32]
	str	x1, [x0, 32]
.L729:
	ldr	x22, [sp, 96]
	mov	x0, x21
	ldr	x2, [x22, 184]
	stp	x2, xzr, [x20, 24]
	str	x20, [x22, 184]
	bl	pthread_mutex_unlock
	str	xzr, [x26, 8]
	cbz	x23, .L730
	ldr	x20, [x22, 40]
	ldrb	w0, [x20, 40]
	cbz	w0, .L731
	adrp	x0, :got:_ZN4asio6detail10call_stackINS0_15task_io_serviceENS0_27task_io_service_thread_infoEE4top_E
	ldr	x0, [x0, #:got_lo12:_ZN4asio6detail10call_stackINS0_15task_io_serviceENS0_27task_io_service_thread_infoEE4top_E]
	ldr	w0, [x0]
	bl	pthread_getspecific
	cbnz	x0, .L734
	b	.L731
	.p2align 2,,3
.L732:
	ldr	x0, [x0, 16]
	cbz	x0, .L731
.L734:
	ldr	x1, [x0]
	cmp	x20, x1
	bne	.L732
	ldr	x0, [x0, 8]
	cbz	x0, .L731
	ldr	x2, [x0, 16]
	add	x1, x0, 8
	cbz	x2, .L735
	str	x23, [x2]
	str	x19, [x1, 8]
	.p2align 3,,7
.L730:
	ldr	w19, [x26]
	ldp	x27, x28, [sp, 80]
	.cfi_remember_state
	.cfi_restore 28
	.cfi_restore 27
	b	.L737
	.p2align 2,,3
.L831:
	.cfi_restore_state
	mov	x23, x19
	b	.L724
	.p2align 2,,3
.L833:
	.cfi_restore 27
	.cfi_restore 28
	orr	w21, w21, 8
	strb	w21, [x26, 4]
	str	wzr, [x20]
	add	x3, sp, 120
	mov	w0, w19
	mov	w4, 8
	mov	w2, 13
	mov	w1, 1
	str	xzr, [sp, 120]
	bl	setsockopt
	ldr	x21, [x22, #:got_lo12:_ZGVZN4asio15system_categoryEvE8instance]
	ldar	x0, [x21]
	tbnz	x0, 0, .L745
	mov	x0, x21
	bl	__cxa_guard_acquire
	cbz	w0, .L745
	adrp	x1, :got:_ZZN4asio15system_categoryEvE8instance
	adrp	x0, :got:_ZN4asio6detail15system_categoryD1Ev
	adrp	x2, __dso_handle
	add	x2, x2, :lo12:__dso_handle
	ldr	x1, [x1, #:got_lo12:_ZZN4asio15system_categoryEvE8instance]
	ldr	x0, [x0, #:got_lo12:_ZN4asio6detail15system_categoryD1Ev]
	bl	__cxa_atexit
	mov	x0, x21
	bl	__cxa_guard_release
	b	.L745
	.p2align 2,,3
.L731:
	.cfi_offset 27, -64
	.cfi_offset 28, -56
	add	x22, x20, 48
	mov	x0, x22
	bl	pthread_mutex_lock
	ldr	x1, [x20, 208]
	add	x0, x20, 200
	cbz	x1, .L738
	str	x23, [x1]
.L739:
	str	x19, [x0, 8]
	add	x21, x20, 96
	ldr	x0, [x20, 144]
	orr	x0, x0, 1
	str	x0, [x20, 144]
	cmp	x0, 1
	beq	.L740
	mov	x0, x22
	bl	pthread_mutex_unlock
	mov	x0, x21
	bl	pthread_cond_signal
	b	.L730
.L740:
	ldrb	w1, [x20, 184]
	cbnz	w1, .L742
	ldr	x4, [x20, 152]
	cbz	x4, .L742
	mov	w1, 9
	strb	w0, [x20, 184]
	ldr	w2, [x4, 96]
	add	x0, x4, 96
	movk	w1, 0x8000, lsl 16
	str	w1, [sp, 120]
	str	x0, [sp, 128]
	add	x3, sp, 120
	mov	w1, 3
	ldr	w0, [x4, 104]
	bl	epoll_ctl
.L742:
	mov	x0, x22
	bl	pthread_mutex_unlock
	b	.L730
	.p2align 2,,3
.L764:
	mov	x19, x27
	b	.L723
	.p2align 2,,3
.L828:
	ldr	x0, [sp, 96]
	str	wzr, [sp, 120]
	str	xzr, [sp, 128]
	mov	w1, 2
	mov	w2, w19
	add	x3, sp, 120
	ldr	w0, [x0, 104]
	bl	epoll_ctl
	ldr	x1, [x26, 8]
	b	.L716
	.p2align 2,,3
.L838:
	ldr	x1, [sp, 96]
	ldr	x0, [x20, 24]
	str	x0, [x1, 176]
	b	.L727
.L836:
	.cfi_restore 27
	.cfi_restore 28
	mov	x0, x21
	bl	__cxa_guard_acquire
	cbz	w0, .L754
	adrp	x1, :got:_ZZN4asio15system_categoryEvE8instance
	adrp	x0, :got:_ZN4asio6detail15system_categoryD1Ev
	adrp	x2, __dso_handle
	add	x2, x2, :lo12:__dso_handle
	ldr	x1, [x1, #:got_lo12:_ZZN4asio15system_categoryEvE8instance]
	ldr	x0, [x0, #:got_lo12:_ZN4asio6detail15system_categoryD1Ev]
	bl	__cxa_atexit
	mov	x0, x21
	bl	__cxa_guard_release
	b	.L754
.L756:
	add	x2, sp, 120
	mov	w0, w19
	mov	x1, 21537
	str	wzr, [sp, 120]
	bl	ioctl
	ldrb	w1, [x26, 4]
	mov	w0, w19
	and	w1, w1, -4
	strb	w1, [x26, 4]
	str	wzr, [x20]
	bl	close
	ldr	x22, [x22, #:got_lo12:_ZGVZN4asio15system_categoryEvE8instance]
	ldar	x0, [x22]
	tbnz	x0, 0, .L824
	mov	x0, x22
	bl	__cxa_guard_acquire
	cbz	w0, .L824
	adrp	x1, :got:_ZZN4asio15system_categoryEvE8instance
	adrp	x0, :got:_ZN4asio6detail15system_categoryD1Ev
	adrp	x2, __dso_handle
	add	x2, x2, :lo12:__dso_handle
	ldr	x1, [x1, #:got_lo12:_ZZN4asio15system_categoryEvE8instance]
	ldr	x0, [x0, #:got_lo12:_ZN4asio6detail15system_categoryD1Ev]
	bl	__cxa_atexit
	mov	x0, x22
	bl	__cxa_guard_release
	ldp	x21, x22, [sp, 32]
	.cfi_restore 22
	.cfi_restore 21
	ldp	x23, x24, [sp, 48]
	.cfi_restore 24
	.cfi_restore 23
	b	.L712
.L738:
	.cfi_offset 21, -112
	.cfi_offset 22, -104
	.cfi_offset 23, -96
	.cfi_offset 24, -88
	.cfi_offset 27, -64
	.cfi_offset 28, -56
	str	x23, [x20, 200]
	b	.L739
.L735:
	str	x23, [x0, 8]
	str	x19, [x1, 8]
	b	.L730
.L827:
	.cfi_restore 21
	.cfi_restore 22
	.cfi_restore 23
	.cfi_restore 24
	.cfi_restore 27
	.cfi_restore 28
	stp	x21, x22, [sp, 32]
	.cfi_offset 22, -104
	.cfi_offset 21, -112
	stp	x23, x24, [sp, 48]
	.cfi_offset 24, -88
	.cfi_offset 23, -96
.L825:
	stp	x27, x28, [sp, 80]
	.cfi_offset 28, -56
	.cfi_offset 27, -64
	bl	__stack_chk_fail
	.cfi_endproc
.LFE3871:
	.size	_ZN4asio6detail28reactive_socket_service_base7destroyERNS1_24base_implementation_typeE, .-_ZN4asio6detail28reactive_socket_service_base7destroyERNS1_24base_implementation_typeE
	.section	.text._ZN4asio6detail14strand_service16on_dispatch_exitD2Ev,"axG",@progbits,_ZN4asio6detail14strand_service16on_dispatch_exitD5Ev,comdat
	.align	2
	.p2align 4,,11
	.weak	_ZN4asio6detail14strand_service16on_dispatch_exitD2Ev
	.type	_ZN4asio6detail14strand_service16on_dispatch_exitD2Ev, %function
_ZN4asio6detail14strand_service16on_dispatch_exitD2Ev:
.LFB6414:
	.cfi_startproc
	stp	x29, x30, [sp, -80]!
	.cfi_def_cfa_offset 80
	.cfi_offset 29, -80
	.cfi_offset 30, -72
	adrp	x1, :got:__stack_chk_guard
	mov	x29, sp
	ldr	x1, [x1, #:got_lo12:__stack_chk_guard]
	stp	x19, x20, [sp, 16]
	.cfi_offset 19, -64
	.cfi_offset 20, -56
	mov	x19, x0
	ldr	x2, [x1]
	str	x2, [sp, 72]
	mov	x2, 0
	ldr	x0, [x0, 8]
	add	x0, x0, 24
	bl	pthread_mutex_lock
	ldr	x1, [x19, 8]
	ldr	x20, [x1, 80]
	cbz	x20, .L875
	ldr	x2, [x1, 104]
	add	x0, x1, 96
	cbz	x2, .L842
	str	x20, [x2]
	ldr	x20, [x1, 96]
.L843:
	ldr	x2, [x1, 88]
	str	x2, [x0, 8]
	stp	xzr, xzr, [x1, 80]
.L841:
	cmp	x20, 0
	cset	w0, ne
	strb	w0, [x1, 72]
	add	x0, x1, 24
	bl	pthread_mutex_unlock
	cbnz	x20, .L876
.L839:
	adrp	x0, :got:__stack_chk_guard
	ldr	x0, [x0, #:got_lo12:__stack_chk_guard]
	ldr	x2, [sp, 72]
	ldr	x1, [x0]
	subs	x2, x2, x1
	mov	x1, 0
	bne	.L877
	ldp	x19, x20, [sp, 16]
	ldp	x29, x30, [sp], 80
	.cfi_remember_state
	.cfi_restore 30
	.cfi_restore 29
	.cfi_restore 19
	.cfi_restore 20
	.cfi_def_cfa_offset 0
	ret
	.p2align 2,,3
.L842:
	.cfi_restore_state
	str	x20, [x1, 96]
	b	.L843
	.p2align 2,,3
.L876:
	ldp	x20, x19, [x19]
	ldrb	w0, [x20, 40]
	cbnz	w0, .L878
.L872:
	add	x1, x20, 192
	mov	x0, 1
	str	x21, [sp, 32]
	.cfi_offset 21, -48
	bl	__aarch64_ldadd8_acq_rel
	add	x21, x20, 48
	mov	x0, x21
	bl	pthread_mutex_lock
	ldr	x1, [x20, 208]
	str	xzr, [x19]
	add	x0, x20, 200
	cbz	x1, .L850
	ldr	x1, [x20, 208]
	str	x19, [x1]
	str	x19, [x0, 8]
.L851:
	ldr	x1, [x20, 144]
	add	x19, x20, 96
	orr	x1, x1, 1
	str	x1, [x19, 48]
	cmp	x1, 1
	beq	.L852
	mov	x0, x21
	bl	pthread_mutex_unlock
	adrp	x0, :got:__stack_chk_guard
	ldr	x0, [x0, #:got_lo12:__stack_chk_guard]
	ldr	x2, [sp, 72]
	ldr	x1, [x0]
	subs	x2, x2, x1
	mov	x1, 0
	bne	.L874
	mov	x0, x19
	ldp	x19, x20, [sp, 16]
	ldr	x21, [sp, 32]
	.cfi_restore 21
	ldp	x29, x30, [sp], 80
	.cfi_restore 30
	.cfi_restore 29
	.cfi_restore 19
	.cfi_restore 20
	.cfi_def_cfa_offset 0
	b	pthread_cond_signal
	.p2align 2,,3
.L875:
	.cfi_def_cfa_offset 80
	.cfi_offset 19, -64
	.cfi_offset 20, -56
	.cfi_offset 29, -80
	.cfi_offset 30, -72
	ldr	x20, [x1, 96]
	b	.L841
	.p2align 2,,3
.L850:
	.cfi_offset 21, -48
	str	x19, [x0, 8]
	str	x19, [x20, 200]
	b	.L851
	.p2align 2,,3
.L852:
	ldrb	w0, [x20, 184]
	cbnz	w0, .L854
	ldr	x3, [x20, 152]
	cbz	x3, .L854
	ldr	w2, [x3, 96]
	add	x4, x3, 96
	ldr	w0, [x3, 104]
	mov	w5, 9
	movk	w5, 0x8000, lsl 16
	strb	w1, [x20, 184]
	add	x3, sp, 56
	mov	w1, 3
	str	w5, [sp, 56]
	str	x4, [sp, 64]
	bl	epoll_ctl
.L854:
	adrp	x0, :got:__stack_chk_guard
	ldr	x0, [x0, #:got_lo12:__stack_chk_guard]
	ldr	x2, [sp, 72]
	ldr	x1, [x0]
	subs	x2, x2, x1
	mov	x1, 0
	bne	.L874
	mov	x0, x21
	ldp	x19, x20, [sp, 16]
	ldr	x21, [sp, 32]
	.cfi_restore 21
	ldp	x29, x30, [sp], 80
	.cfi_restore 30
	.cfi_restore 29
	.cfi_restore 19
	.cfi_restore 20
	.cfi_def_cfa_offset 0
	b	pthread_mutex_unlock
	.p2align 2,,3
.L878:
	.cfi_def_cfa_offset 80
	.cfi_offset 19, -64
	.cfi_offset 20, -56
	.cfi_offset 29, -80
	.cfi_offset 30, -72
	adrp	x0, :got:_ZN4asio6detail10call_stackINS0_15task_io_serviceENS0_27task_io_service_thread_infoEE4top_E
	ldr	x0, [x0, #:got_lo12:_ZN4asio6detail10call_stackINS0_15task_io_serviceENS0_27task_io_service_thread_infoEE4top_E]
	ldr	w0, [x0]
	bl	pthread_getspecific
	cbnz	x0, .L848
	b	.L872
	.p2align 2,,3
.L846:
	ldr	x0, [x0, 16]
	cbz	x0, .L872
.L848:
	ldr	x1, [x0]
	cmp	x20, x1
	bne	.L846
	ldr	x0, [x0, 8]
	cbz	x0, .L872
	ldr	x1, [x0, 24]
	add	x2, x0, 8
	ldr	x3, [x2, 8]
	add	x1, x1, 1
	str	x1, [x0, 24]
	str	xzr, [x19]
	ldr	x1, [x0, 16]
	cbz	x3, .L849
	str	x19, [x1]
	str	x19, [x2, 8]
	b	.L839
	.p2align 2,,3
.L849:
	str	x19, [x2, 8]
	str	x19, [x0, 8]
	b	.L839
.L877:
	str	x21, [sp, 32]
	.cfi_offset 21, -48
.L874:
	bl	__stack_chk_fail
	.cfi_endproc
.LFE6414:
	.size	_ZN4asio6detail14strand_service16on_dispatch_exitD2Ev, .-_ZN4asio6detail14strand_service16on_dispatch_exitD2Ev
	.weak	_ZN4asio6detail14strand_service16on_dispatch_exitD1Ev
	.set	_ZN4asio6detail14strand_service16on_dispatch_exitD1Ev,_ZN4asio6detail14strand_service16on_dispatch_exitD2Ev
	.section	.text.unlikely._ZN4asio6detail15throw_exceptionISt12system_errorEEvRKT_,"axG",@progbits,_ZN4asio6detail15throw_exceptionISt12system_errorEEvRKT_,comdat
	.align	2
	.weak	_ZN4asio6detail15throw_exceptionISt12system_errorEEvRKT_
	.type	_ZN4asio6detail15throw_exceptionISt12system_errorEEvRKT_, %function
_ZN4asio6detail15throw_exceptionISt12system_errorEEvRKT_:
.LFB7346:
	.cfi_startproc
	stp	x29, x30, [sp, -32]!
	.cfi_def_cfa_offset 32
	.cfi_offset 29, -32
	.cfi_offset 30, -24
	mov	x29, sp
	stp	x19, x20, [sp, 16]
	.cfi_offset 19, -16
	.cfi_offset 20, -8
	mov	x20, x0
	mov	x0, 32
	bl	__cxa_allocate_exception
	mov	x19, x0
	mov	x1, x20
	bl	_ZNSt13runtime_errorC2ERKS_
	adrp	x3, :got:_ZTVSt12system_error
	adrp	x2, :got:_ZNSt12system_errorD1Ev
	adrp	x1, :got:_ZTISt12system_error
	mov	x0, x19
	ldr	x3, [x3, #:got_lo12:_ZTVSt12system_error]
	ldp	x4, x5, [x20, 16]
	add	x3, x3, 16
	ldr	x2, [x2, #:got_lo12:_ZNSt12system_errorD1Ev]
	str	x3, [x19]
	ldr	x1, [x1, #:got_lo12:_ZTISt12system_error]
	stp	x4, x5, [x19, 16]
	bl	__cxa_throw
	.cfi_endproc
.LFE7346:
	.size	_ZN4asio6detail15throw_exceptionISt12system_errorEEvRKT_, .-_ZN4asio6detail15throw_exceptionISt12system_errorEEvRKT_
	.section	.text._ZN4asio6detail14do_throw_errorERKSt10error_code,"axG",@progbits,_ZN4asio6detail14do_throw_errorERKSt10error_code,comdat
	.align	2
	.p2align 4,,11
	.weak	_ZN4asio6detail14do_throw_errorERKSt10error_code
	.type	_ZN4asio6detail14do_throw_errorERKSt10error_code, %function
_ZN4asio6detail14do_throw_errorERKSt10error_code:
.LFB2293:
	.cfi_startproc
	.cfi_personality 0x9b,DW.ref.__gxx_personality_v0
	.cfi_lsda 0x1b,.LLSDA2293
	stp	x29, x30, [sp, -128]!
	.cfi_def_cfa_offset 128
	.cfi_offset 29, -128
	.cfi_offset 30, -120
	adrp	x1, :got:__stack_chk_guard
	mov	x29, sp
	ldr	x1, [x1, #:got_lo12:__stack_chk_guard]
	stp	x19, x20, [sp, 16]
	.cfi_offset 19, -112
	.cfi_offset 20, -104
	add	x19, sp, 88
	ldr	x20, [x0, 8]
	stp	x21, x22, [sp, 32]
	.cfi_offset 21, -96
	.cfi_offset 22, -88
	mov	x8, x19
	ldr	x2, [x1]
	str	x2, [sp, 120]
	mov	x2, 0
	ldr	w22, [x0]
	ldr	x2, [x20]
	mov	w1, w22
	mov	x0, x20
	add	x21, sp, 56
	ldr	x2, [x2, 32]
.LEHB13:
	blr	x2
.LEHE13:
	mov	x1, x19
	mov	x0, x21
.LEHB14:
	bl	_ZNSt13runtime_errorC2ERKNSt7__cxx1112basic_stringIcSt11char_traitsIcESaIcEEE
.LEHE14:
	ldr	x0, [sp, 88]
	add	x1, sp, 104
	cmp	x0, x1
	beq	.L882
	ldr	x1, [sp, 104]
	add	x1, x1, 1
	bl	_ZdlPvm
.L882:
	adrp	x1, :got:_ZTVSt12system_error
	mov	x0, x21
	str	w22, [sp, 72]
	ldr	x1, [x1, #:got_lo12:_ZTVSt12system_error]
	str	x20, [sp, 80]
	add	x1, x1, 16
	str	x1, [sp, 56]
.LEHB15:
	bl	_ZN4asio6detail15throw_exceptionISt12system_errorEEvRKT_
.LEHE15:
.L888:
	ldr	x2, [sp, 88]
	add	x1, sp, 104
	mov	x19, x0
	cmp	x2, x1
	beq	.L890
	ldr	x1, [sp, 104]
	mov	x0, x2
	add	x1, x1, 1
	bl	_ZdlPvm
	b	.L890
.L887:
	mov	x19, x0
	mov	x0, x21
	bl	_ZNSt12system_errorD1Ev
.L890:
	mov	x0, x19
.LEHB16:
	bl	_Unwind_Resume
.LEHE16:
	.cfi_endproc
.LFE2293:
	.section	.gcc_except_table
.LLSDA2293:
	.byte	0xff
	.byte	0xff
	.byte	0x1
	.uleb128 .LLSDACSE2293-.LLSDACSB2293
.LLSDACSB2293:
	.uleb128 .LEHB13-.LFB2293
	.uleb128 .LEHE13-.LEHB13
	.uleb128 0
	.uleb128 0
	.uleb128 .LEHB14-.LFB2293
	.uleb128 .LEHE14-.LEHB14
	.uleb128 .L888-.LFB2293
	.uleb128 0
	.uleb128 .LEHB15-.LFB2293
	.uleb128 .LEHE15-.LEHB15
	.uleb128 .L887-.LFB2293
	.uleb128 0
	.uleb128 .LEHB16-.LFB2293
	.uleb128 .LEHE16-.LEHB16
	.uleb128 0
	.uleb128 0
.LLSDACSE2293:
	.section	.text._ZN4asio6detail14do_throw_errorERKSt10error_code,"axG",@progbits,_ZN4asio6detail14do_throw_errorERKSt10error_code,comdat
	.size	_ZN4asio6detail14do_throw_errorERKSt10error_code, .-_ZN4asio6detail14do_throw_errorERKSt10error_code
	.section	.text._ZN4asio6detail14do_throw_errorERKSt10error_codePKc,"axG",@progbits,_ZN4asio6detail14do_throw_errorERKSt10error_codePKc,comdat
	.align	2
	.p2align 4,,11
	.weak	_ZN4asio6detail14do_throw_errorERKSt10error_codePKc
	.type	_ZN4asio6detail14do_throw_errorERKSt10error_codePKc, %function
_ZN4asio6detail14do_throw_errorERKSt10error_codePKc:
.LFB2294:
	.cfi_startproc
	.cfi_personality 0x9b,DW.ref.__gxx_personality_v0
	.cfi_lsda 0x1b,.LLSDA2294
	stp	x29, x30, [sp, -80]!
	.cfi_def_cfa_offset 80
	.cfi_offset 29, -80
	.cfi_offset 30, -72
	adrp	x2, :got:__stack_chk_guard
	mov	x3, x1
	mov	x29, sp
	ldp	x4, x5, [x0]
	str	x19, [sp, 16]
	.cfi_offset 19, -64
	ldr	x2, [x2, #:got_lo12:__stack_chk_guard]
	add	x19, sp, 40
	mov	x0, x19
	ldr	x1, [x2]
	str	x1, [sp, 72]
	mov	x1, 0
	mov	x1, x4
	mov	x2, x5
.LEHB17:
	bl	_ZNSt12system_errorC1ESt10error_codePKc
.LEHE17:
	mov	x0, x19
.LEHB18:
	bl	_ZN4asio6detail15throw_exceptionISt12system_errorEEvRKT_
.LEHE18:
.L894:
	mov	x1, x0
	mov	x0, x19
	mov	x19, x1
	bl	_ZNSt12system_errorD1Ev
	mov	x0, x19
.LEHB19:
	bl	_Unwind_Resume
.LEHE19:
	.cfi_endproc
.LFE2294:
	.section	.gcc_except_table
.LLSDA2294:
	.byte	0xff
	.byte	0xff
	.byte	0x1
	.uleb128 .LLSDACSE2294-.LLSDACSB2294
.LLSDACSB2294:
	.uleb128 .LEHB17-.LFB2294
	.uleb128 .LEHE17-.LEHB17
	.uleb128 0
	.uleb128 0
	.uleb128 .LEHB18-.LFB2294
	.uleb128 .LEHE18-.LEHB18
	.uleb128 .L894-.LFB2294
	.uleb128 0
	.uleb128 .LEHB19-.LFB2294
	.uleb128 .LEHE19-.LEHB19
	.uleb128 0
	.uleb128 0
.LLSDACSE2294:
	.section	.text._ZN4asio6detail14do_throw_errorERKSt10error_codePKc,"axG",@progbits,_ZN4asio6detail14do_throw_errorERKSt10error_codePKc,comdat
	.size	_ZN4asio6detail14do_throw_errorERKSt10error_codePKc, .-_ZN4asio6detail14do_throw_errorERKSt10error_codePKc
	.section	.rodata._ZN4asio6detail13epoll_reactor12fork_serviceENS_10io_service10fork_eventE.str1.8,"aMS",@progbits,1
	.align	3
.LC21:
	.string	"epoll"
	.align	3
.LC22:
	.string	"eventfd_select_interrupter"
	.align	3
.LC23:
	.string	"epoll re-registration"
	.section	.text._ZN4asio6detail13epoll_reactor12fork_serviceENS_10io_service10fork_eventE,"axG",@progbits,_ZN4asio6detail13epoll_reactor12fork_serviceENS_10io_service10fork_eventE,comdat
	.align	2
	.p2align 4,,11
	.weak	_ZN4asio6detail13epoll_reactor12fork_serviceENS_10io_service10fork_eventE
	.type	_ZN4asio6detail13epoll_reactor12fork_serviceENS_10io_service10fork_eventE, %function
_ZN4asio6detail13epoll_reactor12fork_serviceENS_10io_service10fork_eventE:
.LFB3309:
	.cfi_startproc
	.cfi_personality 0x9b,DW.ref.__gxx_personality_v0
	.cfi_lsda 0x1b,.LLSDA3309
	stp	x29, x30, [sp, -192]!
	.cfi_def_cfa_offset 192
	.cfi_offset 29, -192
	.cfi_offset 30, -184
	adrp	x2, :got:__stack_chk_guard
	mov	x29, sp
	ldr	x2, [x2, #:got_lo12:__stack_chk_guard]
	stp	x19, x20, [sp, 16]
	.cfi_offset 19, -176
	.cfi_offset 20, -168
	mov	x20, x0
	ldr	x0, [x2]
	str	x0, [sp, 184]
	mov	x0, 0
	cmp	w1, 2
	beq	.L997
.L896:
	adrp	x0, :got:__stack_chk_guard
	ldr	x0, [x0, #:got_lo12:__stack_chk_guard]
	ldr	x2, [sp, 184]
	ldr	x1, [x0]
	subs	x2, x2, x1
	mov	x1, 0
	bne	.L998
	ldp	x19, x20, [sp, 16]
	ldp	x29, x30, [sp], 192
	.cfi_remember_state
	.cfi_restore 30
	.cfi_restore 29
	.cfi_restore 19
	.cfi_restore 20
	.cfi_def_cfa_offset 0
	ret
	.p2align 2,,3
.L997:
	.cfi_restore_state
	ldr	w0, [x20, 104]
	stp	x21, x22, [sp, 32]
	.cfi_offset 22, -152
	.cfi_offset 21, -160
	stp	x23, x24, [sp, 48]
	.cfi_offset 24, -136
	.cfi_offset 23, -144
	cmn	w0, #1
	bne	.L999
	mov	w0, -1
	str	w0, [x20, 104]
	mov	w0, 524288
	bl	epoll_create1
	mov	w19, w0
	cmn	w0, #1
	beq	.L1000
.L899:
	ldr	w0, [x20, 108]
	str	w19, [x20, 104]
	cmn	w0, #1
	bne	.L1001
	mov	w0, -1
	str	w0, [x20, 108]
	mov	w1, 524288
	mov	w0, 1
	bl	timerfd_create
	mov	w19, w0
	cmn	w0, #1
	beq	.L1002
.L907:
	add	x23, x20, 96
	str	w19, [x20, 108]
	ldr	w0, [x20, 96]
	ldr	w1, [x23, 4]
	cmn	w1, #1
	beq	.L908
	cmp	w1, w0
	bne	.L1003
.L909:
.LEHB20:
	bl	close
.L910:
	mvni	v0.2s, 0
	mov	w1, 2048
	movk	w1, 0x8, lsl 16
	mov	w0, 0
	str	d0, [x20, 96]
	bl	eventfd
	dup	v0.2s, w0
	mov	w2, w0
	str	d0, [x20, 96]
	cmn	w0, #1
	beq	.L1004
.L995:
	stp	x25, x26, [sp, 64]
	.cfi_offset 26, -120
	.cfi_offset 25, -128
.L911:
	ldr	w0, [x20, 104]
	mov	w4, 9
	add	x22, sp, 96
	movk	w4, 0x8000, lsl 16
	mov	x3, x22
	mov	w1, 1
	str	w4, [sp, 96]
	str	x23, [sp, 104]
	bl	epoll_ctl
	ldr	w0, [x23, 4]
	add	x26, sp, 144
	mov	x2, 8
	mov	x1, x26
	mov	x19, 1
	str	x19, [sp, 144]
	bl	write
.LEHE20:
	ldr	w2, [x20, 108]
	cmn	w2, #1
	bne	.L1005
.L919:
	ldr	w2, [x20, 96]
	mov	w4, 9
	ldr	w0, [x20, 104]
	movk	w4, 0x8000, lsl 16
	mov	x3, x26
	mov	w1, 3
	str	w4, [sp, 144]
	str	x23, [sp, 152]
	bl	epoll_ctl
.L925:
	add	x25, x20, 128
	mov	x0, x25
	bl	pthread_mutex_lock
	ldr	x19, [x20, 176]
	cbz	x19, .L932
	adrp	x23, :got:_ZGVZN4asio15system_categoryEvE8instance
	adrp	x24, __dso_handle
	add	x24, x24, :lo12:__dso_handle
	str	x27, [sp, 80]
	.cfi_offset 27, -112
	ldr	x23, [x23, #:got_lo12:_ZGVZN4asio15system_categoryEvE8instance]
	b	.L926
	.p2align 2,,3
.L927:
	ldr	x19, [x19, 24]
	cbz	x19, .L1006
.L926:
	ldp	w2, w4, [x19, 96]
	mov	x3, x22
	ldr	w0, [x20, 104]
	mov	w1, 1
	str	w4, [sp, 96]
	str	x19, [sp, 104]
	bl	epoll_ctl
	cbz	w0, .L927
	bl	__errno_location
	ldr	w27, [x0]
	ldar	x0, [x23]
	adrp	x21, :got:_ZZN4asio15system_categoryEvE8instance
	tbz	x0, 0, .L1007
.L929:
	ldr	x21, [x21, #:got_lo12:_ZZN4asio15system_categoryEvE8instance]
	str	w27, [sp, 144]
	str	x21, [sp, 152]
	cbz	w27, .L927
	adrp	x1, .LC23
	mov	x0, x26
	add	x1, x1, :lo12:.LC23
.LEHB21:
	bl	_ZN4asio6detail14do_throw_errorERKSt10error_codePKc
.LEHE21:
	.p2align 2,,3
.L1003:
	.cfi_restore 25
	.cfi_restore 26
	.cfi_restore 27
	mov	w0, w1
.LEHB22:
	bl	close
	ldr	w0, [x20, 96]
.L908:
	cmn	w0, #1
	beq	.L910
	b	.L909
	.p2align 2,,3
.L1005:
	.cfi_offset 25, -128
	.cfi_offset 26, -120
	ldr	w0, [x20, 104]
	add	x4, x20, 108
	mov	w5, 9
	mov	w1, w19
	mov	x3, x22
	str	w5, [sp, 96]
	str	x4, [sp, 104]
	bl	epoll_ctl
	ldr	w0, [x20, 108]
	cmn	w0, #1
	beq	.L919
	ldr	x19, [x20, 112]
	stp	xzr, xzr, [sp, 112]
	cbz	x19, .L920
	mov	x1, 41728
	movk	x1, 0x11e1, lsl 16
	.p2align 3,,7
.L921:
	ldr	x2, [x19]
	mov	x0, x19
	ldr	x2, [x2, 32]
	blr	x2
	mov	x1, x0
	ldr	x19, [x19, 8]
	cbnz	x19, .L921
	mov	x2, 13531
	cmp	x0, 0
	movk	x2, 0xd7b6, lsl 16
	cset	w3, eq
	movk	x2, 0xde82, lsl 32
	mov	x4, 1
	movk	x2, 0x431b, lsl 48
	smulh	x2, x0, x2
	asr	x2, x2, 18
	sub	x2, x2, x0, asr 63
	str	x2, [sp, 128]
	ldr	w0, [x20, 108]
	beq	.L924
	mov	x4, 16960
	movk	x4, 0xf, lsl 16
	msub	x2, x2, x4, x1
	lsl	x4, x2, 5
	sub	x4, x4, x2
	add	x4, x2, x4, lsl 2
	lsl	x4, x4, 3
.L924:
	mov	w1, w3
	add	x2, sp, 112
	mov	x3, x26
	str	x4, [sp, 136]
	bl	timerfd_settime
	b	.L925
	.p2align 2,,3
.L1001:
	.cfi_restore 25
	.cfi_restore 26
	bl	close
	mov	w0, -1
	str	w0, [x20, 108]
	mov	w1, 524288
	mov	w0, 1
	bl	timerfd_create
	mov	w19, w0
	cmn	w0, #1
	bne	.L907
.L1002:
	bl	__errno_location
	ldr	w0, [x0]
	cmp	w0, 22
	bne	.L907
	mov	w1, 0
	mov	w0, 1
	bl	timerfd_create
	mov	w19, w0
	cmn	w0, #1
	beq	.L907
	mov	w2, 1
	mov	w1, 2
	bl	fcntl
	b	.L907
	.p2align 2,,3
.L999:
	bl	close
	mov	w0, -1
	str	w0, [x20, 104]
	mov	w0, 524288
	bl	epoll_create1
	mov	w19, w0
	cmn	w0, #1
	bne	.L899
.L1000:
	bl	__errno_location
	ldr	w22, [x0]
	mov	x21, x0
	sub	w0, w22, #22
	tst	w0, -17
	bne	.L900
	mov	w0, 20000
	bl	epoll_create
	cmn	w0, #1
	beq	.L1008
	mov	w19, w0
	mov	w2, 1
	mov	w1, 2
	bl	fcntl
	b	.L899
	.p2align 2,,3
.L1004:
	bl	__errno_location
	mov	x19, x0
	ldr	w0, [x0]
	cmp	w0, 22
	beq	.L1009
.L913:
	add	x0, sp, 176
	bl	pipe
	cbz	w0, .L934
	adrp	x0, :got:_ZGVZN4asio15system_categoryEvE8instance
	ldr	w22, [x19]
	ldr	x19, [x0, #:got_lo12:_ZGVZN4asio15system_categoryEvE8instance]
	ldar	x0, [x19]
	adrp	x21, :got:_ZZN4asio15system_categoryEvE8instance
	tbz	x0, 0, .L1010
.L916:
	ldr	x21, [x21, #:got_lo12:_ZZN4asio15system_categoryEvE8instance]
	stp	x25, x26, [sp, 64]
	.cfi_offset 26, -120
	.cfi_offset 25, -128
	str	w22, [sp, 144]
	str	x21, [sp, 152]
	cbnz	w22, .L1011
	ldr	w2, [x20, 96]
	b	.L911
	.p2align 2,,3
.L1007:
	.cfi_offset 27, -112
	mov	x0, x23
	adrp	x21, :got:_ZZN4asio15system_categoryEvE8instance
	bl	__cxa_guard_acquire
	cbz	w0, .L929
	adrp	x0, :got:_ZN4asio6detail15system_categoryD1Ev
	mov	x2, x24
	ldr	x1, [x21, #:got_lo12:_ZZN4asio15system_categoryEvE8instance]
	ldr	x0, [x0, #:got_lo12:_ZN4asio6detail15system_categoryD1Ev]
	bl	__cxa_atexit
	mov	x0, x23
	bl	__cxa_guard_release
	b	.L929
	.p2align 2,,3
.L1006:
	ldr	x27, [sp, 80]
	.cfi_restore 27
.L932:
	mov	x0, x25
	bl	pthread_mutex_unlock
	ldp	x21, x22, [sp, 32]
	.cfi_restore 22
	.cfi_restore 21
	ldp	x23, x24, [sp, 48]
	.cfi_restore 24
	.cfi_restore 23
	ldp	x25, x26, [sp, 64]
	.cfi_restore 26
	.cfi_restore 25
	b	.L896
.L1008:
	.cfi_offset 21, -160
	.cfi_offset 22, -152
	.cfi_offset 23, -144
	.cfi_offset 24, -136
	ldr	w22, [x21]
.L900:
	adrp	x23, :got:_ZGVZN4asio15system_categoryEvE8instance
	ldr	x23, [x23, #:got_lo12:_ZGVZN4asio15system_categoryEvE8instance]
	ldar	x0, [x23]
	adrp	x21, :got:_ZZN4asio15system_categoryEvE8instance
	tbz	x0, 0, .L1012
.L903:
	ldr	x21, [x21, #:got_lo12:_ZZN4asio15system_categoryEvE8instance]
	str	w22, [sp, 144]
	str	x21, [sp, 152]
	cbz	w22, .L899
	adrp	x1, .LC21
	add	x0, sp, 144
	add	x1, x1, :lo12:.LC21
	stp	x25, x26, [sp, 64]
	.cfi_remember_state
	.cfi_offset 26, -120
	.cfi_offset 25, -128
	str	x27, [sp, 80]
	.cfi_offset 27, -112
	bl	_ZN4asio6detail14do_throw_errorERKSt10error_codePKc
	.p2align 2,,3
.L934:
	.cfi_restore_state
	ldr	w0, [sp, 176]
	mov	w2, 2048
	stp	x25, x26, [sp, 64]
	.cfi_remember_state
	.cfi_offset 26, -120
	.cfi_offset 25, -128
	mov	w1, 4
	str	w0, [x20, 96]
	bl	fcntl
	ldr	w0, [x20, 96]
	mov	w2, 1
	mov	w1, 2
	bl	fcntl
	ldr	w0, [sp, 180]
	mov	w2, 2048
	str	w0, [x23, 4]
	mov	w1, 4
	bl	fcntl
	ldr	w0, [x23, 4]
	mov	w2, 1
	mov	w1, 2
	bl	fcntl
	ldr	w2, [x20, 96]
	b	.L911
.L1012:
	.cfi_restore_state
	mov	x0, x23
	adrp	x21, :got:_ZZN4asio15system_categoryEvE8instance
	bl	__cxa_guard_acquire
	cbz	w0, .L903
	adrp	x0, :got:_ZN4asio6detail15system_categoryD1Ev
	adrp	x2, __dso_handle
	ldr	x1, [x21, #:got_lo12:_ZZN4asio15system_categoryEvE8instance]
	add	x2, x2, :lo12:__dso_handle
	ldr	x0, [x0, #:got_lo12:_ZN4asio6detail15system_categoryD1Ev]
	bl	__cxa_atexit
	mov	x0, x23
	bl	__cxa_guard_release
	b	.L903
.L1009:
	mov	w1, 0
	mov	w0, 0
	bl	eventfd
	dup	v0.2s, w0
	str	d0, [x20, 96]
	cmn	w0, #1
	beq	.L913
	mov	w2, 2048
	mov	w1, 4
	bl	fcntl
	ldr	w0, [x20, 96]
	mov	w2, 1
	mov	w1, 2
	bl	fcntl
	ldr	w2, [x20, 96]
	cmn	w2, #1
	bne	.L995
	b	.L913
	.p2align 2,,3
.L920:
	.cfi_offset 25, -128
	.cfi_offset 26, -120
	mov	x1, 300
	mov	w3, 0
	mov	x4, 0
	str	x1, [sp, 128]
	b	.L924
.L1010:
	.cfi_restore 25
	.cfi_restore 26
	mov	x0, x19
	adrp	x21, :got:_ZZN4asio15system_categoryEvE8instance
	bl	__cxa_guard_acquire
	cbz	w0, .L916
	adrp	x0, :got:_ZN4asio6detail15system_categoryD1Ev
	adrp	x2, __dso_handle
	ldr	x1, [x21, #:got_lo12:_ZZN4asio15system_categoryEvE8instance]
	add	x2, x2, :lo12:__dso_handle
	ldr	x0, [x0, #:got_lo12:_ZN4asio6detail15system_categoryD1Ev]
	bl	__cxa_atexit
	mov	x0, x19
	bl	__cxa_guard_release
	b	.L916
.L998:
	.cfi_restore 21
	.cfi_restore 22
	.cfi_restore 23
	.cfi_restore 24
	stp	x21, x22, [sp, 32]
	.cfi_offset 22, -152
	.cfi_offset 21, -160
	stp	x23, x24, [sp, 48]
	.cfi_offset 24, -136
	.cfi_offset 23, -144
	stp	x25, x26, [sp, 64]
	.cfi_offset 26, -120
	.cfi_offset 25, -128
	str	x27, [sp, 80]
	.cfi_offset 27, -112
	bl	__stack_chk_fail
.L1011:
	.cfi_restore 27
	adrp	x1, .LC22
	add	x0, sp, 144
	add	x1, x1, :lo12:.LC22
	str	x27, [sp, 80]
	.cfi_offset 27, -112
	bl	_ZN4asio6detail14do_throw_errorERKSt10error_codePKc
.L938:
	mov	x19, x0
	mov	x0, x25
	bl	pthread_mutex_unlock
	mov	x0, x19
	bl	_Unwind_Resume
.LEHE22:
	.cfi_endproc
.LFE3309:
	.section	.gcc_except_table
.LLSDA3309:
	.byte	0xff
	.byte	0xff
	.byte	0x1
	.uleb128 .LLSDACSE3309-.LLSDACSB3309
.LLSDACSB3309:
	.uleb128 .LEHB20-.LFB3309
	.uleb128 .LEHE20-.LEHB20
	.uleb128 0
	.uleb128 0
	.uleb128 .LEHB21-.LFB3309
	.uleb128 .LEHE21-.LEHB21
	.uleb128 .L938-.LFB3309
	.uleb128 0
	.uleb128 .LEHB22-.LFB3309
	.uleb128 .LEHE22-.LEHB22
	.uleb128 0
	.uleb128 0
.LLSDACSE3309:
	.section	.text._ZN4asio6detail13epoll_reactor12fork_serviceENS_10io_service10fork_eventE,"axG",@progbits,_ZN4asio6detail13epoll_reactor12fork_serviceENS_10io_service10fork_eventE,comdat
	.size	_ZN4asio6detail13epoll_reactor12fork_serviceENS_10io_service10fork_eventE, .-_ZN4asio6detail13epoll_reactor12fork_serviceENS_10io_service10fork_eventE
	.section	.rodata._ZN4asio6detail20posix_tss_ptr_createERj.str1.8,"aMS",@progbits,1
	.align	3
.LC24:
	.string	"tss"
	.section	.text._ZN4asio6detail20posix_tss_ptr_createERj,"axG",@progbits,_ZN4asio6detail20posix_tss_ptr_createERj,comdat
	.align	2
	.p2align 4,,11
	.weak	_ZN4asio6detail20posix_tss_ptr_createERj
	.type	_ZN4asio6detail20posix_tss_ptr_createERj, %function
_ZN4asio6detail20posix_tss_ptr_createERj:
.LFB2318:
	.cfi_startproc
	stp	x29, x30, [sp, -80]!
	.cfi_def_cfa_offset 80
	.cfi_offset 29, -80
	.cfi_offset 30, -72
	adrp	x2, :got:__stack_chk_guard
	mov	x1, 0
	mov	x29, sp
	ldr	x2, [x2, #:got_lo12:__stack_chk_guard]
	stp	x19, x20, [sp, 16]
	.cfi_offset 19, -64
	.cfi_offset 20, -56
	adrp	x20, :got:_ZGVZN4asio15system_categoryEvE8instance
	str	x21, [sp, 32]
	.cfi_offset 21, -48
	ldr	x3, [x2]
	str	x3, [sp, 72]
	mov	x3, 0
	bl	pthread_key_create
	mov	w19, w0
	ldr	x20, [x20, #:got_lo12:_ZGVZN4asio15system_categoryEvE8instance]
	ldar	x0, [x20]
	adrp	x21, :got:_ZZN4asio15system_categoryEvE8instance
	tbz	x0, 0, .L1023
.L1015:
	ldr	x21, [x21, #:got_lo12:_ZZN4asio15system_categoryEvE8instance]
	str	w19, [sp, 56]
	str	x21, [sp, 64]
	cbnz	w19, .L1024
	adrp	x0, :got:__stack_chk_guard
	ldr	x0, [x0, #:got_lo12:__stack_chk_guard]
	ldr	x2, [sp, 72]
	ldr	x1, [x0]
	subs	x2, x2, x1
	mov	x1, 0
	bne	.L1025
	ldp	x19, x20, [sp, 16]
	ldr	x21, [sp, 32]
	ldp	x29, x30, [sp], 80
	.cfi_remember_state
	.cfi_restore 30
	.cfi_restore 29
	.cfi_restore 21
	.cfi_restore 19
	.cfi_restore 20
	.cfi_def_cfa_offset 0
	ret
	.p2align 2,,3
.L1023:
	.cfi_restore_state
	mov	x0, x20
	adrp	x21, :got:_ZZN4asio15system_categoryEvE8instance
	bl	__cxa_guard_acquire
	cbz	w0, .L1015
	adrp	x0, :got:_ZN4asio6detail15system_categoryD1Ev
	adrp	x2, __dso_handle
	ldr	x1, [x21, #:got_lo12:_ZZN4asio15system_categoryEvE8instance]
	add	x2, x2, :lo12:__dso_handle
	ldr	x0, [x0, #:got_lo12:_ZN4asio6detail15system_categoryD1Ev]
	bl	__cxa_atexit
	mov	x0, x20
	bl	__cxa_guard_release
	b	.L1015
.L1024:
	adrp	x1, .LC24
	add	x0, sp, 56
	add	x1, x1, :lo12:.LC24
	bl	_ZN4asio6detail14do_throw_errorERKSt10error_codePKc
.L1025:
	bl	__stack_chk_fail
	.cfi_endproc
.LFE2318:
	.size	_ZN4asio6detail20posix_tss_ptr_createERj, .-_ZN4asio6detail20posix_tss_ptr_createERj
	.section	.rodata._ZN4asio6detail30reactive_socket_accept_op_baseINS_12basic_socketINS_2ip3tcpENS_21stream_socket_serviceIS4_EEEES4_E10do_performEPNS0_10reactor_opE.str1.8,"aMS",@progbits,1
	.align	3
.LC25:
	.string	"mutex"
	.section	.text._ZN4asio6detail30reactive_socket_accept_op_baseINS_12basic_socketINS_2ip3tcpENS_21stream_socket_serviceIS4_EEEES4_E10do_performEPNS0_10reactor_opE,"axG",@progbits,_ZN4asio6detail30reactive_socket_accept_op_baseINS_12basic_socketINS_2ip3tcpENS_21stream_socket_serviceIS4_EEEES4_E10do_performEPNS0_10reactor_opE,comdat
	.align	2
	.p2align 4,,11
	.weak	_ZN4asio6detail30reactive_socket_accept_op_baseINS_12basic_socketINS_2ip3tcpENS_21stream_socket_serviceIS4_EEEES4_E10do_performEPNS0_10reactor_opE
	.type	_ZN4asio6detail30reactive_socket_accept_op_baseINS_12basic_socketINS_2ip3tcpENS_21stream_socket_serviceIS4_EEEES4_E10do_performEPNS0_10reactor_opE, %function
_ZN4asio6detail30reactive_socket_accept_op_baseINS_12basic_socketINS_2ip3tcpENS_21stream_socket_serviceIS4_EEEES4_E10do_performEPNS0_10reactor_opE:
.LFB9058:
	.cfi_startproc
	.cfi_personality 0x9b,DW.ref.__gxx_personality_v0
	.cfi_lsda 0x1b,.LLSDA9058
	stp	x29, x30, [sp, -176]!
	.cfi_def_cfa_offset 176
	.cfi_offset 29, -176
	.cfi_offset 30, -168
	adrp	x1, :got:__stack_chk_guard
	mov	x29, sp
	stp	x19, x20, [sp, 16]
	.cfi_offset 19, -160
	.cfi_offset 20, -152
	mov	x19, x0
	adrp	x20, :got:_ZGVZN4asio15system_categoryEvE8instance
	stp	x27, x28, [sp, 80]
	.cfi_offset 27, -96
	.cfi_offset 28, -88
	adrp	x28, :got:_ZN4asio6detail15system_categoryD1Ev
	adrp	x0, __dso_handle
	stp	x21, x22, [sp, 32]
	add	x0, x0, :lo12:__dso_handle
	.cfi_offset 21, -144
	.cfi_offset 22, -136
	adrp	x21, :got:_ZZN4asio15system_categoryEvE8instance
	stp	x23, x24, [sp, 48]
	.cfi_offset 23, -128
	.cfi_offset 24, -120
	add	x23, sp, 144
	stp	x25, x26, [sp, 64]
	.cfi_offset 25, -112
	.cfi_offset 26, -104
	ldr	w25, [x19, 56]
	ldr	x26, [x19, 80]
	ldr	x2, [x28, #:got_lo12:_ZN4asio6detail15system_categoryD1Ev]
	stp	x0, x2, [sp, 104]
	ldrb	w0, [x19, 60]
	ldr	x1, [x1, #:got_lo12:__stack_chk_guard]
	cmp	x26, 0
	ldr	x27, [x20, #:got_lo12:_ZGVZN4asio15system_categoryEvE8instance]
	str	w0, [sp, 96]
	csel	x23, x23, xzr, ne
	mov	x0, 28
	ldr	x2, [x1]
	str	x2, [sp, 168]
	mov	x2, 0
	csel	x0, x0, xzr, ne
	str	x0, [sp, 144]
.L1040:
	cmn	w25, #1
	beq	.L1167
	bl	__errno_location
	str	wzr, [x0]
	mov	x22, x0
	cbz	x23, .L1033
	ldr	x4, [x23]
	mov	x1, x26
	add	x2, sp, 152
	mov	w0, w25
	str	w4, [sp, 152]
.LEHB23:
	bl	accept
	mov	w24, w0
	ldr	w1, [sp, 152]
	str	x1, [x23]
.L1093:
	ldr	w4, [x22]
	ldar	x0, [x27]
	tbz	x0, 0, .L1168
.L1035:
	ldr	x0, [x21, #:got_lo12:_ZZN4asio15system_categoryEvE8instance]
	str	w4, [x19, 24]
	str	x0, [x19, 32]
	cmn	w24, #1
	bne	.L1169
.L1032:
	ldr	x22, [x20, #:got_lo12:_ZGVZN4asio15system_categoryEvE8instance]
	ldar	x0, [x22]
	tbz	x0, 0, .L1170
.L1037:
	ldr	x0, [x21, #:got_lo12:_ZZN4asio15system_categoryEvE8instance]
	ldr	x1, [x19, 32]
	cmp	x1, x0
	beq	.L1171
.L1039:
	ldr	x22, [x20, #:got_lo12:_ZGVZN4asio15system_categoryEvE8instance]
	ldar	x0, [x22]
	tbz	x0, 0, .L1172
.L1042:
	ldr	x0, [x21, #:got_lo12:_ZZN4asio15system_categoryEvE8instance]
	ldr	x1, [x19, 32]
	cmp	x1, x0
	beq	.L1173
.L1044:
	ldr	x22, [x20, #:got_lo12:_ZGVZN4asio15system_categoryEvE8instance]
	ldar	x0, [x22]
	tbz	x0, 0, .L1174
.L1047:
	ldr	x0, [x21, #:got_lo12:_ZZN4asio15system_categoryEvE8instance]
	ldr	x1, [x19, 32]
	cmp	x1, x0
	beq	.L1175
	ldr	x20, [x20, #:got_lo12:_ZGVZN4asio15system_categoryEvE8instance]
	ldar	x0, [x20]
	tbz	x0, 0, .L1176
.L1051:
	ldr	x21, [x21, #:got_lo12:_ZZN4asio15system_categoryEvE8instance]
	ldr	x1, [x19, 32]
	ldr	w0, [x19, 24]
	cmp	x1, x21
	beq	.L1177
.L1054:
	ldr	x1, [sp, 96]
	cmp	w0, 71
	ubfx	x23, x1, 2, 1
	csinc	w0, w23, wzr, eq
.L1055:
	adrp	x1, :got:__stack_chk_guard
	ldr	x1, [x1, #:got_lo12:__stack_chk_guard]
	ldr	x3, [sp, 168]
	ldr	x2, [x1]
	subs	x3, x3, x2
	mov	x2, 0
	bne	.L1178
	ldp	x19, x20, [sp, 16]
	ldp	x21, x22, [sp, 32]
	ldp	x23, x24, [sp, 48]
	ldp	x25, x26, [sp, 64]
	ldp	x27, x28, [sp, 80]
	ldp	x29, x30, [sp], 176
	.cfi_remember_state
	.cfi_restore 30
	.cfi_restore 29
	.cfi_restore 27
	.cfi_restore 28
	.cfi_restore 25
	.cfi_restore 26
	.cfi_restore 23
	.cfi_restore 24
	.cfi_restore 21
	.cfi_restore 22
	.cfi_restore 19
	.cfi_restore 20
	.cfi_def_cfa_offset 0
	ret
	.p2align 2,,3
.L1168:
	.cfi_restore_state
	mov	x0, x27
	str	w4, [sp, 124]
	bl	__cxa_guard_acquire
	ldr	w4, [sp, 124]
	cbz	w0, .L1035
	ldp	x2, x0, [sp, 104]
	str	w4, [sp, 124]
	ldr	x1, [x21, #:got_lo12:_ZZN4asio15system_categoryEvE8instance]
	bl	__cxa_atexit
	mov	x0, x27
	bl	__cxa_guard_release
	ldr	w4, [sp, 124]
	b	.L1035
	.p2align 2,,3
.L1170:
	mov	x0, x22
	bl	__cxa_guard_acquire
	cbz	w0, .L1037
	ldr	x1, [x21, #:got_lo12:_ZZN4asio15system_categoryEvE8instance]
	ldr	x0, [x28, #:got_lo12:_ZN4asio6detail15system_categoryD1Ev]
	ldr	x2, [sp, 104]
	bl	__cxa_atexit
	mov	x0, x22
	bl	__cxa_guard_release
	ldr	x0, [x21, #:got_lo12:_ZZN4asio15system_categoryEvE8instance]
	ldr	x1, [x19, 32]
	cmp	x1, x0
	bne	.L1039
	.p2align 3,,7
.L1171:
	ldr	w0, [x19, 24]
	cmp	w0, 4
	beq	.L1040
	ldr	x22, [x20, #:got_lo12:_ZGVZN4asio15system_categoryEvE8instance]
	ldar	x0, [x22]
	tbnz	x0, 0, .L1042
.L1172:
	mov	x0, x22
	bl	__cxa_guard_acquire
	cbz	w0, .L1042
	adrp	x0, :got:_ZN4asio6detail15system_categoryD1Ev
	adrp	x2, __dso_handle
	ldr	x1, [x21, #:got_lo12:_ZZN4asio15system_categoryEvE8instance]
	add	x2, x2, :lo12:__dso_handle
	ldr	x0, [x0, #:got_lo12:_ZN4asio6detail15system_categoryD1Ev]
	bl	__cxa_atexit
	mov	x0, x22
	bl	__cxa_guard_release
	ldr	x0, [x21, #:got_lo12:_ZZN4asio15system_categoryEvE8instance]
	ldr	x1, [x19, 32]
	cmp	x1, x0
	bne	.L1044
	.p2align 3,,7
.L1173:
	ldr	w0, [x19, 24]
	cmp	w0, 11
	bne	.L1044
.L1045:
	ldr	w0, [sp, 96]
	and	w0, w0, 1
	b	.L1055
	.p2align 2,,3
.L1033:
	mov	x1, x26
	mov	w0, w25
	mov	x2, 0
	str	wzr, [sp, 152]
	bl	accept
.LEHE23:
	mov	w24, w0
	b	.L1093
	.p2align 2,,3
.L1174:
	mov	x0, x22
	bl	__cxa_guard_acquire
	cbz	w0, .L1047
	adrp	x0, :got:_ZN4asio6detail15system_categoryD1Ev
	adrp	x2, __dso_handle
	ldr	x1, [x21, #:got_lo12:_ZZN4asio15system_categoryEvE8instance]
	add	x2, x2, :lo12:__dso_handle
	ldr	x0, [x0, #:got_lo12:_ZN4asio6detail15system_categoryD1Ev]
	bl	__cxa_atexit
	mov	x0, x22
	bl	__cxa_guard_release
	b	.L1047
	.p2align 2,,3
.L1175:
	ldr	w0, [x19, 24]
	cmp	w0, 11
	beq	.L1045
	ldr	x20, [x20, #:got_lo12:_ZGVZN4asio15system_categoryEvE8instance]
	ldar	x0, [x20]
	tbnz	x0, 0, .L1051
.L1176:
	mov	x0, x20
	bl	__cxa_guard_acquire
	cbz	w0, .L1051
	adrp	x0, :got:_ZN4asio6detail15system_categoryD1Ev
	adrp	x2, __dso_handle
	ldr	x1, [x21, #:got_lo12:_ZZN4asio15system_categoryEvE8instance]
	add	x2, x2, :lo12:__dso_handle
	ldr	x0, [x0, #:got_lo12:_ZN4asio6detail15system_categoryD1Ev]
	bl	__cxa_atexit
	mov	x0, x20
	bl	__cxa_guard_release
	b	.L1051
	.p2align 2,,3
.L1177:
	cmp	w0, 103
	bne	.L1054
	ldr	x0, [sp, 96]
	ubfx	x0, x0, 2, 1
	b	.L1055
	.p2align 2,,3
.L1169:
	bl	_ZNSt3_V215system_categoryEv
	str	wzr, [x19, 24]
	ldr	x1, [x19, 80]
	str	x0, [x19, 32]
	str	x0, [sp, 96]
	str	w24, [sp, 136]
	cbz	x1, .L1056
	ldr	x0, [sp, 144]
	cmp	x0, 128
	bhi	.L1179
.L1056:
	ldr	x23, [x19, 64]
	ldr	w1, [x23]
	ldr	x0, [x23, 24]
	cmn	w1, #1
	beq	.L1057
	adrp	x23, :got:_ZGVZN4asio5error17get_misc_categoryEvE8instance
	ldr	x23, [x23, #:got_lo12:_ZGVZN4asio5error17get_misc_categoryEvE8instance]
	ldar	x0, [x23]
	adrp	x24, :got:_ZZN4asio5error17get_misc_categoryEvE8instance
	tbz	x0, 0, .L1180
.L1059:
	ldr	x24, [x24, #:got_lo12:_ZZN4asio5error17get_misc_categoryEvE8instance]
	mov	w0, 1
	str	w0, [x19, 24]
	str	x24, [x19, 32]
.L1061:
	ldr	w23, [sp, 136]
	cmn	w23, #1
	beq	.L1077
	str	wzr, [x22]
	mov	w0, w23
	bl	close
	ldr	w25, [x22]
	ldr	x24, [x20, #:got_lo12:_ZGVZN4asio15system_categoryEvE8instance]
	mov	w19, w0
	ldar	x0, [x24]
	tbz	x0, 0, .L1181
.L1079:
	cbnz	w19, .L1182
.L1077:
	mov	w0, 1
	b	.L1055
	.p2align 2,,3
.L1181:
	mov	x0, x24
	bl	__cxa_guard_acquire
	cbz	w0, .L1079
	adrp	x0, :got:_ZN4asio6detail15system_categoryD1Ev
	adrp	x2, __dso_handle
	ldr	x1, [x21, #:got_lo12:_ZZN4asio15system_categoryEvE8instance]
	add	x2, x2, :lo12:__dso_handle
	ldr	x0, [x0, #:got_lo12:_ZN4asio6detail15system_categoryD1Ev]
	bl	__cxa_atexit
	mov	x0, x24
	bl	__cxa_guard_release
	cbz	w19, .L1077
	.p2align 3,,7
.L1182:
	ldr	x19, [x20, #:got_lo12:_ZGVZN4asio15system_categoryEvE8instance]
	ldar	x0, [x19]
	tbz	x0, 0, .L1183
.L1084:
	cmp	w25, 11
	beq	.L1086
.L1166:
	ldr	x20, [x20, #:got_lo12:_ZGVZN4asio15system_categoryEvE8instance]
	ldar	x0, [x20]
	tbnz	x0, 0, .L1077
	mov	x0, x20
	bl	__cxa_guard_acquire
	cbz	w0, .L1077
	adrp	x0, :got:_ZN4asio6detail15system_categoryD1Ev
	adrp	x2, __dso_handle
	ldr	x1, [x21, #:got_lo12:_ZZN4asio15system_categoryEvE8instance]
	add	x2, x2, :lo12:__dso_handle
	ldr	x0, [x0, #:got_lo12:_ZN4asio6detail15system_categoryD1Ev]
	bl	__cxa_atexit
	mov	x0, x20
	bl	__cxa_guard_release
	mov	w0, 1
	b	.L1055
	.p2align 2,,3
.L1057:
	ldr	x26, [x0, 40]
	add	x28, x26, 128
	mov	x0, x28
	bl	pthread_mutex_lock
	ldr	x25, [x26, 184]
	cbz	x25, .L1062
	add	x27, x25, 40
	ldr	x1, [x25, 24]
	str	x1, [x26, 184]
.L1063:
	ldr	x0, [x26, 176]
	stp	x0, xzr, [x25, 24]
	ldr	x0, [x26, 176]
	cbz	x0, .L1070
	str	x25, [x0, 32]
.L1070:
	str	x25, [x26, 176]
	mov	x0, x28
	bl	pthread_mutex_unlock
	str	x25, [x23, 8]
	mov	x0, x27
	bl	pthread_mutex_lock
	ldr	x1, [x23, 8]
	mov	x0, x27
	str	x26, [x1, 88]
	str	w24, [x1, 96]
	strb	wzr, [x1, 152]
	bl	pthread_mutex_unlock
	ldr	x0, [x23, 8]
	mov	w4, 27
	movk	w4, 0x8000, lsl 16
	str	w4, [sp, 152]
	add	x3, sp, 152
	mov	w2, w24
	str	w4, [x0, 100]
	mov	w1, 1
	str	x0, [sp, 160]
	ldr	w0, [x26, 104]
	bl	epoll_ctl
	cbnz	w0, .L1184
.L1072:
	mov	w0, 80
	strb	w0, [x23, 4]
	str	w24, [x23]
	ldr	x0, [sp, 96]
	str	x0, [x19, 32]
	ldr	w0, [x19, 72]
	str	wzr, [x19, 24]
	str	w0, [x23, 16]
	mov	w0, 1
	b	.L1055
	.p2align 2,,3
.L1180:
	mov	x0, x23
	adrp	x24, :got:_ZZN4asio5error17get_misc_categoryEvE8instance
	bl	__cxa_guard_acquire
	cbz	w0, .L1059
	adrp	x0, :got:_ZN4asio5error6detail13misc_categoryD1Ev
	adrp	x2, __dso_handle
	ldr	x1, [x24, #:got_lo12:_ZZN4asio5error17get_misc_categoryEvE8instance]
	add	x2, x2, :lo12:__dso_handle
	ldr	x0, [x0, #:got_lo12:_ZN4asio5error6detail13misc_categoryD1Ev]
	bl	__cxa_atexit
	mov	x0, x23
	bl	__cxa_guard_release
	b	.L1059
	.p2align 2,,3
.L1184:
	ldr	w25, [x22]
	cbz	w25, .L1072
	ldr	x23, [x20, #:got_lo12:_ZGVZN4asio15system_categoryEvE8instance]
	ldar	x0, [x23]
	tbz	x0, 0, .L1185
.L1075:
	ldr	x0, [x21, #:got_lo12:_ZZN4asio15system_categoryEvE8instance]
	str	w25, [x19, 24]
	str	x0, [x19, 32]
	b	.L1061
	.p2align 2,,3
.L1062:
	mov	x0, 160
.LEHB24:
	bl	_Znwm
.LEHE24:
	adrp	x2, :got:_ZN4asio6detail13epoll_reactor16descriptor_state11do_completeEPNS0_15task_io_serviceEPNS0_25task_io_service_operationERKSt10error_codem
	mov	x25, x0
	add	x27, x0, 40
	mov	x1, 0
	ldr	x2, [x2, #:got_lo12:_ZN4asio6detail13epoll_reactor16descriptor_state11do_completeEPNS0_15task_io_serviceEPNS0_25task_io_service_operationERKSt10error_codem]
	stp	xzr, x2, [x25]
	mov	x0, x27
	str	wzr, [x25, 16]
	bl	pthread_mutex_init
	mov	w4, w0
	ldr	x5, [x20, #:got_lo12:_ZGVZN4asio15system_categoryEvE8instance]
	ldar	x0, [x5]
	tbz	x0, 0, .L1186
.L1065:
	ldr	x0, [x21, #:got_lo12:_ZZN4asio15system_categoryEvE8instance]
	str	w4, [sp, 152]
	str	x0, [sp, 160]
	cbnz	w4, .L1187
	movi	v0.4s, 0
	str	q0, [x25, 104]
	str	q0, [x25, 120]
	str	q0, [x25, 136]
	b	.L1063
	.p2align 2,,3
.L1185:
	mov	x0, x23
	bl	__cxa_guard_acquire
	cbz	w0, .L1075
	adrp	x0, :got:_ZN4asio6detail15system_categoryD1Ev
	adrp	x2, __dso_handle
	ldr	x1, [x21, #:got_lo12:_ZZN4asio15system_categoryEvE8instance]
	add	x2, x2, :lo12:__dso_handle
	ldr	x0, [x0, #:got_lo12:_ZN4asio6detail15system_categoryD1Ev]
	bl	__cxa_atexit
	mov	x0, x23
	bl	__cxa_guard_release
	b	.L1075
	.p2align 2,,3
.L1183:
	mov	x0, x19
	bl	__cxa_guard_acquire
	cbz	w0, .L1084
	adrp	x0, :got:_ZN4asio6detail15system_categoryD1Ev
	adrp	x2, __dso_handle
	ldr	x1, [x21, #:got_lo12:_ZZN4asio15system_categoryEvE8instance]
	add	x2, x2, :lo12:__dso_handle
	ldr	x0, [x0, #:got_lo12:_ZN4asio6detail15system_categoryD1Ev]
	bl	__cxa_atexit
	mov	x0, x19
	bl	__cxa_guard_release
	b	.L1084
	.p2align 2,,3
.L1086:
	add	x2, sp, 152
	mov	w0, w23
	mov	x1, 21537
	str	wzr, [sp, 152]
	bl	ioctl
	str	wzr, [x22]
	mov	w0, w23
	bl	close
	b	.L1166
	.p2align 2,,3
.L1186:
	mov	x0, x5
	str	x5, [sp, 104]
	str	w4, [sp, 112]
	bl	__cxa_guard_acquire
	ldr	w4, [sp, 112]
	ldr	x5, [sp, 104]
	cbz	w0, .L1065
	adrp	x0, :got:_ZN4asio6detail15system_categoryD1Ev
	adrp	x2, __dso_handle
	ldr	x1, [x21, #:got_lo12:_ZZN4asio15system_categoryEvE8instance]
	add	x2, x2, :lo12:__dso_handle
	ldr	x0, [x0, #:got_lo12:_ZN4asio6detail15system_categoryD1Ev]
	str	w4, [sp, 104]
	str	x5, [sp, 112]
	bl	__cxa_atexit
	ldr	x5, [sp, 112]
	mov	x0, x5
	bl	__cxa_guard_release
	ldr	w4, [sp, 104]
	b	.L1065
.L1167:
	ldr	x22, [x20, #:got_lo12:_ZGVZN4asio15system_categoryEvE8instance]
	ldar	x0, [x22]
	tbz	x0, 0, .L1188
.L1030:
	ldr	x0, [x21, #:got_lo12:_ZZN4asio15system_categoryEvE8instance]
	mov	w1, 9
	str	w1, [x19, 24]
	str	x0, [x19, 32]
	b	.L1032
.L1188:
	mov	x0, x22
	bl	__cxa_guard_acquire
	cbz	w0, .L1030
	ldr	x1, [x21, #:got_lo12:_ZZN4asio15system_categoryEvE8instance]
	ldr	x0, [x28, #:got_lo12:_ZN4asio6detail15system_categoryD1Ev]
	ldr	x2, [sp, 104]
	bl	__cxa_atexit
	mov	x0, x22
	bl	__cxa_guard_release
	b	.L1030
.L1178:
	bl	__stack_chk_fail
.L1179:
	bl	_ZN4asio15system_categoryEv
	mov	x1, x0
	mov	w2, 22
	add	x0, sp, 152
	str	w2, [sp, 152]
	str	x1, [sp, 160]
.LEHB25:
	bl	_ZN4asio6detail14do_throw_errorERKSt10error_code
.LEHE25:
.L1187:
	adrp	x1, .LC25
	add	x0, sp, 152
	add	x1, x1, :lo12:.LC25
.LEHB26:
	bl	_ZN4asio6detail14do_throw_errorERKSt10error_codePKc
.LEHE26:
.L1098:
	mov	x19, x0
	b	.L1069
.L1097:
	mov	x19, x0
	b	.L1073
.L1099:
	mov	x19, x0
	mov	x1, 160
	mov	x0, x25
	bl	_ZdlPvm
.L1069:
	mov	x0, x28
	bl	pthread_mutex_unlock
.L1073:
	add	x0, sp, 136
	bl	_ZN4asio6detail13socket_holderD1Ev
	mov	x0, x19
.LEHB27:
	bl	_Unwind_Resume
.LEHE27:
	.cfi_endproc
.LFE9058:
	.section	.gcc_except_table
.LLSDA9058:
	.byte	0xff
	.byte	0xff
	.byte	0x1
	.uleb128 .LLSDACSE9058-.LLSDACSB9058
.LLSDACSB9058:
	.uleb128 .LEHB23-.LFB9058
	.uleb128 .LEHE23-.LEHB23
	.uleb128 0
	.uleb128 0
	.uleb128 .LEHB24-.LFB9058
	.uleb128 .LEHE24-.LEHB24
	.uleb128 .L1098-.LFB9058
	.uleb128 0
	.uleb128 .LEHB25-.LFB9058
	.uleb128 .LEHE25-.LEHB25
	.uleb128 .L1097-.LFB9058
	.uleb128 0
	.uleb128 .LEHB26-.LFB9058
	.uleb128 .LEHE26-.LEHB26
	.uleb128 .L1099-.LFB9058
	.uleb128 0
	.uleb128 .LEHB27-.LFB9058
	.uleb128 .LEHE27-.LEHB27
	.uleb128 0
	.uleb128 0
.LLSDACSE9058:
	.section	.text._ZN4asio6detail30reactive_socket_accept_op_baseINS_12basic_socketINS_2ip3tcpENS_21stream_socket_serviceIS4_EEEES4_E10do_performEPNS0_10reactor_opE,"axG",@progbits,_ZN4asio6detail30reactive_socket_accept_op_baseINS_12basic_socketINS_2ip3tcpENS_21stream_socket_serviceIS4_EEEES4_E10do_performEPNS0_10reactor_opE,comdat
	.size	_ZN4asio6detail30reactive_socket_accept_op_baseINS_12basic_socketINS_2ip3tcpENS_21stream_socket_serviceIS4_EEEES4_E10do_performEPNS0_10reactor_opE, .-_ZN4asio6detail30reactive_socket_accept_op_baseINS_12basic_socketINS_2ip3tcpENS_21stream_socket_serviceIS4_EEEES4_E10do_performEPNS0_10reactor_opE
	.section	.text._ZN4asio6detail11object_poolINS0_13epoll_reactor16descriptor_stateEED2Ev,"axG",@progbits,_ZN4asio6detail11object_poolINS0_13epoll_reactor16descriptor_stateEED5Ev,comdat
	.align	2
	.p2align 4,,11
	.weak	_ZN4asio6detail11object_poolINS0_13epoll_reactor16descriptor_stateEED2Ev
	.type	_ZN4asio6detail11object_poolINS0_13epoll_reactor16descriptor_stateEED2Ev, %function
_ZN4asio6detail11object_poolINS0_13epoll_reactor16descriptor_stateEED2Ev:
.LFB7415:
	.cfi_startproc
	.cfi_personality 0x9b,DW.ref.__gxx_personality_v0
	.cfi_lsda 0x1b,.LLSDA7415
	stp	x29, x30, [sp, -128]!
	.cfi_def_cfa_offset 128
	.cfi_offset 29, -128
	.cfi_offset 30, -120
	adrp	x1, :got:__stack_chk_guard
	mov	x29, sp
	ldr	x1, [x1, #:got_lo12:__stack_chk_guard]
	stp	x19, x20, [sp, 16]
	stp	x21, x22, [sp, 32]
	stp	x23, x24, [sp, 48]
	.cfi_offset 19, -112
	.cfi_offset 20, -104
	.cfi_offset 21, -96
	.cfi_offset 22, -88
	.cfi_offset 23, -80
	.cfi_offset 24, -72
	ldr	x23, [x0]
	str	x25, [sp, 64]
	.cfi_offset 25, -64
	mov	x25, x0
	ldr	x0, [x1]
	str	x0, [sp, 120]
	mov	x0, 0
	cbz	x23, .L1190
	add	x21, sp, 104
	.p2align 3,,7
.L1196:
	mov	x22, x23
	add	x19, x23, 136
	add	x24, x23, 88
	ldr	x23, [x23, 24]
.L1195:
	ldr	x1, [x19]
	str	x1, [sp, 88]
	cbz	x1, .L1191
	bl	_ZNSt3_V215system_categoryEv
	mov	x20, x0
	ldr	x1, [sp, 88]
	b	.L1194
	.p2align 2,,3
.L1192:
	ldr	x4, [x1, 8]
	str	xzr, [x1]
	str	wzr, [sp, 104]
	mov	x2, x21
	str	x20, [sp, 112]
	mov	x3, 0
	mov	x0, 0
	blr	x4
	ldr	x1, [x19]
	cbz	x1, .L1191
.L1194:
	ldr	x2, [x1]
	str	x2, [x19]
	cbnz	x2, .L1192
	ldr	x4, [x1, 8]
	str	xzr, [x19, 8]
	str	xzr, [x1]
	mov	x2, x21
	str	wzr, [sp, 104]
	mov	x3, 0
	str	x20, [sp, 112]
	mov	x0, 0
	blr	x4
	ldr	x1, [x19]
	cbnz	x1, .L1194
.L1191:
	sub	x19, x19, #16
	cmp	x19, x24
	bne	.L1195
	add	x0, x22, 40
	bl	pthread_mutex_destroy
	mov	x0, x22
	mov	x1, 160
	bl	_ZdlPvm
	cbnz	x23, .L1196
.L1190:
	ldr	x23, [x25, 8]
	cbz	x23, .L1189
	add	x21, sp, 104
	.p2align 3,,7
.L1203:
	mov	x22, x23
	add	x19, x23, 136
	add	x24, x23, 88
	ldr	x23, [x23, 24]
.L1202:
	ldr	x1, [x19]
	str	x1, [sp, 88]
	cbz	x1, .L1198
	bl	_ZNSt3_V215system_categoryEv
	mov	x20, x0
	ldr	x1, [sp, 88]
	b	.L1201
	.p2align 2,,3
.L1199:
	ldr	x4, [x1, 8]
	str	xzr, [x1]
	str	wzr, [sp, 104]
	mov	x2, x21
	str	x20, [sp, 112]
	mov	x3, 0
	mov	x0, 0
	blr	x4
	ldr	x1, [x19]
	cbz	x1, .L1198
.L1201:
	ldr	x2, [x1]
	str	x2, [x19]
	cbnz	x2, .L1199
	ldr	x4, [x1, 8]
	str	xzr, [x19, 8]
	str	xzr, [x1]
	mov	x2, x21
	str	wzr, [sp, 104]
	mov	x3, 0
	str	x20, [sp, 112]
	mov	x0, 0
	blr	x4
	ldr	x1, [x19]
	cbnz	x1, .L1201
.L1198:
	sub	x19, x19, #16
	cmp	x19, x24
	bne	.L1202
	add	x0, x22, 40
	bl	pthread_mutex_destroy
	mov	x0, x22
	mov	x1, 160
	bl	_ZdlPvm
	cbnz	x23, .L1203
.L1189:
	adrp	x0, :got:__stack_chk_guard
	ldr	x0, [x0, #:got_lo12:__stack_chk_guard]
	ldr	x2, [sp, 120]
	ldr	x1, [x0]
	subs	x2, x2, x1
	mov	x1, 0
	bne	.L1238
	ldp	x19, x20, [sp, 16]
	ldp	x21, x22, [sp, 32]
	ldp	x23, x24, [sp, 48]
	ldr	x25, [sp, 64]
	ldp	x29, x30, [sp], 128
	.cfi_remember_state
	.cfi_restore 30
	.cfi_restore 29
	.cfi_restore 25
	.cfi_restore 23
	.cfi_restore 24
	.cfi_restore 21
	.cfi_restore 22
	.cfi_restore 19
	.cfi_restore 20
	.cfi_def_cfa_offset 0
	ret
.L1238:
	.cfi_restore_state
	bl	__stack_chk_fail
	.cfi_endproc
.LFE7415:
	.section	.gcc_except_table
.LLSDA7415:
	.byte	0xff
	.byte	0xff
	.byte	0x1
	.uleb128 .LLSDACSE7415-.LLSDACSB7415
.LLSDACSB7415:
.LLSDACSE7415:
	.section	.text._ZN4asio6detail11object_poolINS0_13epoll_reactor16descriptor_stateEED2Ev,"axG",@progbits,_ZN4asio6detail11object_poolINS0_13epoll_reactor16descriptor_stateEED5Ev,comdat
	.size	_ZN4asio6detail11object_poolINS0_13epoll_reactor16descriptor_stateEED2Ev, .-_ZN4asio6detail11object_poolINS0_13epoll_reactor16descriptor_stateEED2Ev
	.weak	_ZN4asio6detail11object_poolINS0_13epoll_reactor16descriptor_stateEED1Ev
	.set	_ZN4asio6detail11object_poolINS0_13epoll_reactor16descriptor_stateEED1Ev,_ZN4asio6detail11object_poolINS0_13epoll_reactor16descriptor_stateEED2Ev
	.section	.text.unlikely._ZN4asio6detail15throw_exceptionISt12out_of_rangeEEvRKT_,"axG",@progbits,_ZN4asio6detail15throw_exceptionISt12out_of_rangeEEvRKT_,comdat
	.align	2
	.weak	_ZN4asio6detail15throw_exceptionISt12out_of_rangeEEvRKT_
	.type	_ZN4asio6detail15throw_exceptionISt12out_of_rangeEEvRKT_, %function
_ZN4asio6detail15throw_exceptionISt12out_of_rangeEEvRKT_:
.LFB7501:
	.cfi_startproc
	stp	x29, x30, [sp, -32]!
	.cfi_def_cfa_offset 32
	.cfi_offset 29, -32
	.cfi_offset 30, -24
	mov	x29, sp
	str	x19, [sp, 16]
	.cfi_offset 19, -16
	mov	x19, x0
	mov	x0, 16
	bl	__cxa_allocate_exception
	mov	x1, x19
	mov	x19, x0
	bl	_ZNSt11logic_errorC2ERKS_
	adrp	x3, :got:_ZTVSt12out_of_range
	adrp	x2, :got:_ZNSt12out_of_rangeD1Ev
	adrp	x1, :got:_ZTISt12out_of_range
	mov	x0, x19
	ldr	x3, [x3, #:got_lo12:_ZTVSt12out_of_range]
	ldr	x2, [x2, #:got_lo12:_ZNSt12out_of_rangeD1Ev]
	add	x3, x3, 16
	ldr	x1, [x1, #:got_lo12:_ZTISt12out_of_range]
	str	x3, [x19]
	bl	__cxa_throw
	.cfi_endproc
.LFE7501:
	.size	_ZN4asio6detail15throw_exceptionISt12out_of_rangeEEvRKT_, .-_ZN4asio6detail15throw_exceptionISt12out_of_rangeEEvRKT_
	.section	.text._ZNSt7__cxx1115basic_stringbufIcSt11char_traitsIcESaIcEED2Ev,"axG",@progbits,_ZNSt7__cxx1115basic_stringbufIcSt11char_traitsIcESaIcEED5Ev,comdat
	.align	2
	.p2align 4,,11
	.weak	_ZNSt7__cxx1115basic_stringbufIcSt11char_traitsIcESaIcEED2Ev
	.type	_ZNSt7__cxx1115basic_stringbufIcSt11char_traitsIcESaIcEED2Ev, %function
_ZNSt7__cxx1115basic_stringbufIcSt11char_traitsIcESaIcEED2Ev:
.LFB7584:
	.cfi_startproc
	stp	x29, x30, [sp, -32]!
	.cfi_def_cfa_offset 32
	.cfi_offset 29, -32
	.cfi_offset 30, -24
	adrp	x1, :got:_ZTVNSt7__cxx1115basic_stringbufIcSt11char_traitsIcESaIcEEE
	mov	x2, x0
	mov	x29, sp
	ldr	x1, [x1, #:got_lo12:_ZTVNSt7__cxx1115basic_stringbufIcSt11char_traitsIcESaIcEEE]
	add	x3, x0, 88
	str	x19, [sp, 16]
	.cfi_offset 19, -16
	mov	x19, x0
	ldr	x0, [x0, 72]
	add	x1, x1, 16
	str	x1, [x2], 72
	cmp	x0, x3
	beq	.L1242
	ldr	x1, [x2, 16]
	add	x1, x1, 1
	bl	_ZdlPvm
.L1242:
	adrp	x1, :got:_ZTVSt15basic_streambufIcSt11char_traitsIcEE
	mov	x0, x19
	ldr	x19, [sp, 16]
	ldr	x1, [x1, #:got_lo12:_ZTVSt15basic_streambufIcSt11char_traitsIcEE]
	add	x1, x1, 16
	str	x1, [x0], 56
	ldp	x29, x30, [sp], 32
	.cfi_restore 30
	.cfi_restore 29
	.cfi_restore 19
	.cfi_def_cfa_offset 0
	b	_ZNSt6localeD1Ev
	.cfi_endproc
.LFE7584:
	.size	_ZNSt7__cxx1115basic_stringbufIcSt11char_traitsIcESaIcEED2Ev, .-_ZNSt7__cxx1115basic_stringbufIcSt11char_traitsIcESaIcEED2Ev
	.weak	_ZNSt7__cxx1115basic_stringbufIcSt11char_traitsIcESaIcEED1Ev
	.set	_ZNSt7__cxx1115basic_stringbufIcSt11char_traitsIcESaIcEED1Ev,_ZNSt7__cxx1115basic_stringbufIcSt11char_traitsIcESaIcEED2Ev
	.section	.text._ZNSt7__cxx1115basic_stringbufIcSt11char_traitsIcESaIcEED0Ev,"axG",@progbits,_ZNSt7__cxx1115basic_stringbufIcSt11char_traitsIcESaIcEED5Ev,comdat
	.align	2
	.p2align 4,,11
	.weak	_ZNSt7__cxx1115basic_stringbufIcSt11char_traitsIcESaIcEED0Ev
	.type	_ZNSt7__cxx1115basic_stringbufIcSt11char_traitsIcESaIcEED0Ev, %function
_ZNSt7__cxx1115basic_stringbufIcSt11char_traitsIcESaIcEED0Ev:
.LFB7586:
	.cfi_startproc
	stp	x29, x30, [sp, -32]!
	.cfi_def_cfa_offset 32
	.cfi_offset 29, -32
	.cfi_offset 30, -24
	adrp	x1, :got:_ZTVNSt7__cxx1115basic_stringbufIcSt11char_traitsIcESaIcEEE
	mov	x2, x0
	mov	x29, sp
	ldr	x1, [x1, #:got_lo12:_ZTVNSt7__cxx1115basic_stringbufIcSt11char_traitsIcESaIcEEE]
	add	x3, x0, 88
	str	x19, [sp, 16]
	.cfi_offset 19, -16
	mov	x19, x0
	ldr	x0, [x0, 72]
	add	x1, x1, 16
	str	x1, [x2], 72
	cmp	x0, x3
	beq	.L1245
	ldr	x1, [x2, 16]
	add	x1, x1, 1
	bl	_ZdlPvm
.L1245:
	adrp	x1, :got:_ZTVSt15basic_streambufIcSt11char_traitsIcEE
	mov	x0, x19
	ldr	x1, [x1, #:got_lo12:_ZTVSt15basic_streambufIcSt11char_traitsIcEE]
	add	x1, x1, 16
	str	x1, [x0], 56
	bl	_ZNSt6localeD1Ev
	mov	x0, x19
	mov	x1, 104
	ldr	x19, [sp, 16]
	ldp	x29, x30, [sp], 32
	.cfi_restore 30
	.cfi_restore 29
	.cfi_restore 19
	.cfi_def_cfa_offset 0
	b	_ZdlPvm
	.cfi_endproc
.LFE7586:
	.size	_ZNSt7__cxx1115basic_stringbufIcSt11char_traitsIcESaIcEED0Ev, .-_ZNSt7__cxx1115basic_stringbufIcSt11char_traitsIcESaIcEED0Ev
	.section	.rodata._ZNK4asio2ip6detail8endpoint9to_stringB5cxx11ERSt10error_code.str1.8,"aMS",@progbits,1
	.align	3
.LC26:
	.string	"%lu"
	.section	.text._ZNK4asio2ip6detail8endpoint9to_stringB5cxx11ERSt10error_code,"axG",@progbits,_ZNK4asio2ip6detail8endpoint9to_stringB5cxx11ERSt10error_code,comdat
	.align	2
	.p2align 4,,11
	.weak	_ZNK4asio2ip6detail8endpoint9to_stringB5cxx11ERSt10error_code
	.type	_ZNK4asio2ip6detail8endpoint9to_stringB5cxx11ERSt10error_code, %function
_ZNK4asio2ip6detail8endpoint9to_stringB5cxx11ERSt10error_code:
.LFB5955:
	.cfi_startproc
	.cfi_personality 0x9b,DW.ref.__gxx_personality_v0
	.cfi_lsda 0x1b,.LLSDA5955
	sub	sp, sp, #640
	.cfi_def_cfa_offset 640
	adrp	x2, :got:__stack_chk_guard
	stp	x29, x30, [sp]
	.cfi_offset 29, -640
	.cfi_offset 30, -632
	mov	x29, sp
	ldr	x2, [x2, #:got_lo12:__stack_chk_guard]
	stp	x19, x20, [sp, 16]
	.cfi_offset 19, -624
	.cfi_offset 20, -616
	mov	x20, x0
	stp	x21, x22, [sp, 32]
	mov	x19, x8
	.cfi_offset 21, -608
	.cfi_offset 22, -600
	mov	x22, x1
	stp	x23, x24, [sp, 48]
	stp	x25, x26, [sp, 64]
	stp	x27, x28, [sp, 80]
	.cfi_offset 23, -592
	.cfi_offset 24, -584
	.cfi_offset 25, -576
	.cfi_offset 26, -568
	.cfi_offset 27, -560
	.cfi_offset 28, -552
	ldr	x0, [x2]
	str	x0, [sp, 632]
	mov	x0, 0
	bl	__errno_location
	mov	x21, x0
	ldrh	w0, [x20]
	cmp	w0, 2
	beq	.L1346
	ldp	x4, x5, [x20, 8]
	adrp	x0, .LC27
	add	x28, sp, 568
	ldr	w27, [x20, 24]
	ldr	d0, [x0, #:lo12:.LC27]
	mov	x2, x28
	adrp	x24, :got:_ZGVZN4asio15system_categoryEvE8instance
	str	wzr, [x21]
	add	x1, sp, 168
	uxtw	x25, w27
	mov	w3, 63
	mov	w0, 10
	str	d0, [sp, 160]
	stp	x4, x5, [sp, 168]
	str	x25, [sp, 184]
	bl	inet_ntop
	ldr	x26, [x24, #:got_lo12:_ZGVZN4asio15system_categoryEvE8instance]
	mov	x5, x0
	ldr	w23, [x21]
	ldar	x2, [x26]
	adrp	x21, :got:_ZZN4asio15system_categoryEvE8instance
	tbz	x2, 0, .L1347
.L1252:
	ldr	x26, [x21, #:got_lo12:_ZZN4asio15system_categoryEvE8instance]
	str	w23, [x22]
	str	x26, [x22, 8]
	cbz	x5, .L1345
	cbz	x25, .L1264
	add	x1, sp, 528
	ldrb	w0, [sp, 168]
	mov	x2, 37
	mov	x3, 0
	strb	wzr, [sp, 560]
	stp	x2, x3, [x1, 16]
	cmp	w0, 254
	beq	.L1348
	cmp	w0, 255
	bne	.L1338
	ldrb	w0, [sp, 169]
	add	x21, sp, 545
	and	w0, w0, 15
	cmp	w0, 2
	beq	.L1261
.L1263:
	mov	x4, x25
	mov	x0, x21
	adrp	x3, .LC26
	mov	x2, 16
	add	x3, x3, :lo12:.LC26
	mov	w1, 1
	str	x5, [sp, 104]
	bl	__sprintf_chk
	ldr	x5, [sp, 104]
.L1262:
	mov	x0, x28
	add	x1, sp, 544
	mov	x2, 63
	str	x5, [sp, 104]
	bl	__strcat_chk
	ldr	x5, [sp, 104]
.L1264:
	mov	x0, x5
	add	x21, sp, 144
	str	x5, [sp, 104]
	str	x21, [sp, 128]
	bl	strlen
	str	x0, [sp, 120]
	add	x1, sp, 128
	mov	x23, x0
	cmp	x0, 15
	ldr	x5, [sp, 104]
	bhi	.L1349
	cmp	x23, 1
	bne	.L1266
	ldrb	w1, [x5]
	mov	x0, x21
	strb	w1, [sp, 144]
	b	.L1277
	.p2align 2,,3
.L1346:
	ldr	w4, [x20, 4]
	adrp	x24, :got:_ZGVZN4asio15system_categoryEvE8instance
	str	wzr, [x21]
	add	x2, sp, 568
	add	x1, sp, 164
	mov	w3, 16
	stp	wzr, w4, [sp, 160]
	stp	xzr, xzr, [sp, 168]
	str	xzr, [sp, 184]
	bl	inet_ntop
	ldr	x26, [x24, #:got_lo12:_ZGVZN4asio15system_categoryEvE8instance]
	mov	x25, x0
	ldr	w23, [x21]
	ldar	x0, [x26]
	adrp	x21, :got:_ZZN4asio15system_categoryEvE8instance
	tbz	x0, 0, .L1350
.L1250:
	ldr	x26, [x21, #:got_lo12:_ZZN4asio15system_categoryEvE8instance]
	str	w23, [x22]
	str	x26, [x22, 8]
	cbz	x25, .L1345
	add	x21, sp, 144
	mov	x0, x25
	str	x21, [sp, 128]
	bl	strlen
	str	x0, [sp, 120]
	add	x1, sp, 128
	mov	x23, x0
	cmp	x0, 15
	bhi	.L1351
	cmp	x23, 1
	bne	.L1276
	ldrb	w1, [x25]
	mov	x0, x21
	strb	w1, [sp, 144]
.L1277:
	str	x23, [sp, 136]
	strb	wzr, [x0, x23]
	ldr	w23, [x22]
	cbz	w23, .L1278
.L1259:
	add	x0, x19, 16
	stp	x0, xzr, [x19]
	strb	wzr, [x19, 16]
.L1279:
	ldr	x0, [sp, 128]
	cmp	x0, x21
	beq	.L1247
	ldr	x1, [sp, 144]
	add	x1, x1, 1
	bl	_ZdlPvm
.L1247:
	adrp	x0, :got:__stack_chk_guard
	ldr	x0, [x0, #:got_lo12:__stack_chk_guard]
	ldr	x2, [sp, 632]
	ldr	x1, [x0]
	subs	x2, x2, x1
	mov	x1, 0
	bne	.L1352
	mov	x0, x19
	ldp	x29, x30, [sp]
	ldp	x19, x20, [sp, 16]
	ldp	x21, x22, [sp, 32]
	ldp	x23, x24, [sp, 48]
	ldp	x25, x26, [sp, 64]
	ldp	x27, x28, [sp, 80]
	add	sp, sp, 640
	.cfi_remember_state
	.cfi_restore 29
	.cfi_restore 30
	.cfi_restore 27
	.cfi_restore 28
	.cfi_restore 25
	.cfi_restore 26
	.cfi_restore 23
	.cfi_restore 24
	.cfi_restore 21
	.cfi_restore 22
	.cfi_restore 19
	.cfi_restore 20
	.cfi_def_cfa_offset 0
	ret
	.p2align 2,,3
.L1350:
	.cfi_restore_state
	mov	x0, x26
	adrp	x21, :got:_ZZN4asio15system_categoryEvE8instance
	bl	__cxa_guard_acquire
	cbz	w0, .L1250
	adrp	x0, :got:_ZN4asio6detail15system_categoryD1Ev
	adrp	x2, __dso_handle
	ldr	x1, [x21, #:got_lo12:_ZZN4asio15system_categoryEvE8instance]
	add	x2, x2, :lo12:__dso_handle
	ldr	x0, [x0, #:got_lo12:_ZN4asio6detail15system_categoryD1Ev]
	bl	__cxa_atexit
	mov	x0, x26
	bl	__cxa_guard_release
	b	.L1250
	.p2align 2,,3
.L1345:
	cbz	w23, .L1353
	add	x21, sp, 144
	stp	x21, xzr, [sp, 128]
	strb	wzr, [sp, 144]
	cbnz	w23, .L1259
.L1278:
	add	x25, sp, 272
	adrp	x22, :got:_ZTVSt9basic_iosIcSt11char_traitsIcEE
	mov	x0, x25
	bl	_ZNSt8ios_baseC2Ev
	adrp	x0, :got:_ZTTNSt7__cxx1119basic_ostringstreamIcSt11char_traitsIcESaIcEEE
	add	x1, sp, 528
	movi	v0.4s, 0
	add	x3, sp, 528
	ldr	x0, [x0, #:got_lo12:_ZTTNSt7__cxx1119basic_ostringstreamIcSt11char_traitsIcESaIcEEE]
	str	xzr, [sp, 488]
	strh	wzr, [sp, 496]
	add	x23, sp, 160
	ldr	x2, [x22, #:got_lo12:_ZTVSt9basic_iosIcSt11char_traitsIcEE]
	str	q0, [x1, -24]
	mov	x1, 0
	ldp	x24, x26, [x0, 8]
	str	q0, [x3, -8]
	add	x2, x2, 16
	ldr	x3, [x24, -24]
	str	x24, [sp, 160]
	str	x2, [sp, 272]
	add	x0, x23, x3
	str	x26, [x23, x3]
.LEHB28:
	bl	_ZNSt9basic_iosIcSt11char_traitsIcEE4initEPSt15basic_streambufIcS1_E
.LEHE28:
	adrp	x1, :got:_ZTVSt15basic_streambufIcSt11char_traitsIcEE
	adrp	x0, :got:_ZTVNSt7__cxx1119basic_ostringstreamIcSt11char_traitsIcESaIcEEE
	movi	v0.4s, 0
	add	x27, sp, 224
	ldr	x2, [x1, #:got_lo12:_ZTVSt15basic_streambufIcSt11char_traitsIcEE]
	add	x28, sp, 168
	ldr	x0, [x0, #:got_lo12:_ZTVNSt7__cxx1119basic_ostringstreamIcSt11char_traitsIcESaIcEEE]
	add	x2, x2, 16
	stp	q0, q0, [sp, 176]
	add	x3, x0, 24
	add	x1, x0, 64
	stp	x3, x2, [sp, 160]
	add	x2, sp, 256
	mov	x0, x27
	str	x2, [sp, 104]
	str	q0, [sp, 208]
	str	x1, [sp, 272]
	bl	_ZNSt6localeC1Ev
	adrp	x0, :got:_ZTVNSt7__cxx1115basic_stringbufIcSt11char_traitsIcESaIcEEE
	mov	w3, 16
	mov	x1, x28
	str	w3, [sp, 232]
	ldr	x2, [x0, #:got_lo12:_ZTVNSt7__cxx1115basic_stringbufIcSt11char_traitsIcESaIcEEE]
	mov	x0, x25
	str	xzr, [sp, 248]
	add	x2, x2, 16
	str	x2, [sp, 168]
	ldr	x2, [sp, 104]
	str	x2, [sp, 240]
	strb	wzr, [sp, 256]
.LEHB29:
	bl	_ZNSt9basic_iosIcSt11char_traitsIcEE4initEPSt15basic_streambufIcS1_E
.LEHE29:
.LEHB30:
	bl	_ZNSt6locale7classicEv
	add	x28, sp, 120
	mov	x1, x0
	mov	x8, x28
	mov	x0, x25
	bl	_ZNSt9basic_iosIcSt11char_traitsIcEE5imbueERKSt6locale
	mov	x0, x28
	bl	_ZNSt6localeD1Ev
	ldrh	w0, [x20]
	cmp	w0, 2
	beq	.L1354
	mov	w3, 91
	add	x1, sp, 117
	mov	x0, x23
	mov	x2, 1
	strb	w3, [sp, 117]
	bl	_ZSt16__ostream_insertIcSt11char_traitsIcEERSt13basic_ostreamIT_T0_ES6_PKS3_l
	ldp	x1, x2, [sp, 128]
	bl	_ZSt16__ostream_insertIcSt11char_traitsIcEERSt13basic_ostreamIT_T0_ES6_PKS3_l
	mov	w3, 93
	add	x1, sp, 118
	mov	x2, 1
	strb	w3, [sp, 118]
	bl	_ZSt16__ostream_insertIcSt11char_traitsIcEERSt13basic_ostreamIT_T0_ES6_PKS3_l
.L1285:
	mov	w3, 58
	add	x1, sp, 119
	mov	x0, x23
	mov	x2, 1
	strb	w3, [sp, 119]
	bl	_ZSt16__ostream_insertIcSt11char_traitsIcEERSt13basic_ostreamIT_T0_ES6_PKS3_l
	ldrh	w1, [x20, 2]
	rev16	w1, w1
	and	x1, x1, 65535
	bl	_ZNSo9_M_insertImEERSoT_
.LEHE30:
	ldr	x5, [sp, 208]
	add	x20, x19, 16
	stp	x20, xzr, [x19]
	strb	wzr, [x19, 16]
	cbz	x5, .L1286
	ldp	x4, x3, [sp, 192]
	mov	x0, x19
	mov	x2, 0
	mov	x1, 0
	cmp	x4, 0
	ccmp	x5, x4, 2, ne
	csel	x4, x5, x4, hi
	sub	x4, x4, x3
.LEHB31:
	bl	_ZNSt7__cxx1112basic_stringIcSt11char_traitsIcESaIcEE10_M_replaceEmmPKcm
.LEHE31:
.L1288:
	adrp	x0, :got:_ZTVNSt7__cxx1119basic_ostringstreamIcSt11char_traitsIcESaIcEEE
	ldr	x1, [x0, #:got_lo12:_ZTVNSt7__cxx1119basic_ostringstreamIcSt11char_traitsIcESaIcEEE]
	adrp	x0, :got:_ZTVNSt7__cxx1115basic_stringbufIcSt11char_traitsIcESaIcEEE
	add	x3, x1, 24
	add	x1, x1, 64
	ldr	x2, [x0, #:got_lo12:_ZTVNSt7__cxx1115basic_stringbufIcSt11char_traitsIcESaIcEEE]
	str	x1, [sp, 272]
	ldr	x1, [sp, 104]
	add	x2, x2, 16
	ldr	x0, [sp, 240]
	stp	x3, x2, [sp, 160]
	cmp	x0, x1
	beq	.L1290
	ldr	x1, [sp, 256]
	add	x1, x1, 1
	bl	_ZdlPvm
.L1290:
	adrp	x0, :got:_ZTVSt15basic_streambufIcSt11char_traitsIcEE
	ldr	x1, [x0, #:got_lo12:_ZTVSt15basic_streambufIcSt11char_traitsIcEE]
	mov	x0, x27
	add	x1, x1, 16
	str	x1, [sp, 168]
	bl	_ZNSt6localeD1Ev
	ldr	x1, [x24, -24]
	str	x24, [sp, 160]
	ldr	x22, [x22, #:got_lo12:_ZTVSt9basic_iosIcSt11char_traitsIcEE]
	mov	x0, x25
	str	x26, [x23, x1]
	add	x22, x22, 16
	str	x22, [sp, 272]
	bl	_ZNSt8ios_baseD2Ev
	b	.L1279
	.p2align 2,,3
.L1276:
	mov	x0, x21
	cbz	x23, .L1277
	b	.L1275
	.p2align 2,,3
.L1351:
	mov	x0, x1
	mov	x2, 0
	add	x1, sp, 120
.LEHB32:
	bl	_ZNSt7__cxx1112basic_stringIcSt11char_traitsIcESaIcEE9_M_createERmm
.LEHE32:
	ldr	x1, [sp, 120]
	str	x0, [sp, 128]
	str	x1, [sp, 144]
.L1275:
	mov	x2, x23
	mov	x1, x25
	bl	memcpy
	ldp	x23, x0, [sp, 120]
	b	.L1277
	.p2align 2,,3
.L1347:
	mov	x0, x26
	str	x5, [sp, 104]
	bl	__cxa_guard_acquire
	adrp	x21, :got:_ZZN4asio15system_categoryEvE8instance
	ldr	x5, [sp, 104]
	cbz	w0, .L1252
	adrp	x0, :got:_ZN4asio6detail15system_categoryD1Ev
	adrp	x2, __dso_handle
	ldr	x1, [x21, #:got_lo12:_ZZN4asio15system_categoryEvE8instance]
	add	x2, x2, :lo12:__dso_handle
	ldr	x0, [x0, #:got_lo12:_ZN4asio6detail15system_categoryD1Ev]
	bl	__cxa_atexit
	mov	x0, x26
	bl	__cxa_guard_release
	ldr	x5, [sp, 104]
	b	.L1252
	.p2align 2,,3
.L1354:
	ldp	x1, x2, [sp, 128]
	mov	x0, x23
.LEHB33:
	bl	_ZSt16__ostream_insertIcSt11char_traitsIcEERSt13basic_ostreamIT_T0_ES6_PKS3_l
.LEHE33:
	b	.L1285
	.p2align 2,,3
.L1353:
	ldr	x24, [x24, #:got_lo12:_ZGVZN4asio15system_categoryEvE8instance]
	ldar	x0, [x24]
	tbz	x0, 0, .L1355
.L1273:
	ldr	x0, [x21, #:got_lo12:_ZZN4asio15system_categoryEvE8instance]
	add	x21, sp, 144
	stp	x21, xzr, [sp, 128]
	mov	w1, 22
	str	w1, [x22]
	str	x0, [x22, 8]
	strb	wzr, [sp, 144]
	b	.L1259
	.p2align 2,,3
.L1286:
	add	x1, sp, 240
	mov	x0, x19
.LEHB34:
	bl	_ZNSt7__cxx1112basic_stringIcSt11char_traitsIcESaIcEE9_M_assignERKS4_
.LEHE34:
	b	.L1288
	.p2align 2,,3
.L1266:
	mov	x0, x21
	cbz	x23, .L1277
	b	.L1265
	.p2align 2,,3
.L1349:
	mov	x0, x1
	mov	x2, 0
	add	x1, sp, 120
	str	x5, [sp, 104]
.LEHB35:
	bl	_ZNSt7__cxx1112basic_stringIcSt11char_traitsIcESaIcEE9_M_createERmm
	str	x0, [sp, 128]
	ldr	x5, [sp, 104]
	ldr	x1, [sp, 120]
	str	x1, [sp, 144]
.L1265:
	mov	x2, x23
	mov	x1, x5
	bl	memcpy
	ldp	x23, x0, [sp, 120]
	b	.L1277
	.p2align 2,,3
.L1348:
	ldrb	w0, [sp, 169]
	and	w0, w0, 192
	cmp	w0, 128
	beq	.L1261
.L1338:
	add	x21, sp, 545
	b	.L1263
	.p2align 2,,3
.L1261:
	add	x21, sp, 545
	mov	w0, w27
	mov	x1, x21
	str	x5, [sp, 104]
	bl	if_indextoname
	ldr	x5, [sp, 104]
	cbnz	x0, .L1262
	b	.L1263
	.p2align 2,,3
.L1355:
	mov	x0, x24
	bl	__cxa_guard_acquire
	cbz	w0, .L1273
	adrp	x0, :got:_ZN4asio6detail15system_categoryD1Ev
	mov	x1, x26
	adrp	x2, __dso_handle
	add	x2, x2, :lo12:__dso_handle
	ldr	x0, [x0, #:got_lo12:_ZN4asio6detail15system_categoryD1Ev]
	bl	__cxa_atexit
	mov	x0, x24
	bl	__cxa_guard_release
	b	.L1273
.L1352:
	bl	__stack_chk_fail
.L1309:
	mov	x19, x0
	mov	x0, x28
	bl	_ZNSt7__cxx1115basic_stringbufIcSt11char_traitsIcESaIcEED1Ev
	ldr	x0, [x24, -24]
	str	x24, [sp, 160]
	str	x26, [x23, x0]
.L1282:
	ldr	x1, [x22, #:got_lo12:_ZTVSt9basic_iosIcSt11char_traitsIcEE]
	mov	x0, x25
	add	x1, x1, 16
	str	x1, [sp, 272]
	bl	_ZNSt8ios_baseD2Ev
.L1283:
	ldr	x0, [sp, 128]
	cmp	x0, x21
	beq	.L1295
	ldr	x1, [sp, 144]
	add	x1, x1, 1
	bl	_ZdlPvm
.L1295:
	mov	x0, x19
	bl	_Unwind_Resume
.LEHE35:
.L1307:
	mov	x19, x0
.L1293:
	mov	x0, x23
	bl	_ZNSt7__cxx1119basic_ostringstreamIcSt11char_traitsIcESaIcEED1Ev
	b	.L1283
.L1308:
	mov	x19, x0
	b	.L1282
.L1310:
	ldr	x2, [x19]
	mov	x22, x0
	cmp	x20, x2
	beq	.L1292
	ldr	x1, [x19, 16]
	mov	x0, x2
	add	x1, x1, 1
	bl	_ZdlPvm
.L1292:
	mov	x19, x22
	b	.L1293
	.cfi_endproc
.LFE5955:
	.section	.gcc_except_table
.LLSDA5955:
	.byte	0xff
	.byte	0xff
	.byte	0x1
	.uleb128 .LLSDACSE5955-.LLSDACSB5955
.LLSDACSB5955:
	.uleb128 .LEHB28-.LFB5955
	.uleb128 .LEHE28-.LEHB28
	.uleb128 .L1308-.LFB5955
	.uleb128 0
	.uleb128 .LEHB29-.LFB5955
	.uleb128 .LEHE29-.LEHB29
	.uleb128 .L1309-.LFB5955
	.uleb128 0
	.uleb128 .LEHB30-.LFB5955
	.uleb128 .LEHE30-.LEHB30
	.uleb128 .L1307-.LFB5955
	.uleb128 0
	.uleb128 .LEHB31-.LFB5955
	.uleb128 .LEHE31-.LEHB31
	.uleb128 .L1310-.LFB5955
	.uleb128 0
	.uleb128 .LEHB32-.LFB5955
	.uleb128 .LEHE32-.LEHB32
	.uleb128 0
	.uleb128 0
	.uleb128 .LEHB33-.LFB5955
	.uleb128 .LEHE33-.LEHB33
	.uleb128 .L1307-.LFB5955
	.uleb128 0
	.uleb128 .LEHB34-.LFB5955
	.uleb128 .LEHE34-.LEHB34
	.uleb128 .L1310-.LFB5955
	.uleb128 0
	.uleb128 .LEHB35-.LFB5955
	.uleb128 .LEHE35-.LEHB35
	.uleb128 0
	.uleb128 0
.LLSDACSE5955:
	.section	.text._ZNK4asio2ip6detail8endpoint9to_stringB5cxx11ERSt10error_code,"axG",@progbits,_ZNK4asio2ip6detail8endpoint9to_stringB5cxx11ERSt10error_code,comdat
	.size	_ZNK4asio2ip6detail8endpoint9to_stringB5cxx11ERSt10error_code, .-_ZNK4asio2ip6detail8endpoint9to_stringB5cxx11ERSt10error_code
	.section	.rodata.str1.8
	.align	3
.LC28:
	.string	"Listening on: %s"
	.align	3
.LC29:
	.string	"/home/jaehyun/OpenPLC_v3/utils/dnp3_src/cpp/libs/src/asiopal/TCPServer.cpp(98)"
	.text
	.align	2
	.p2align 4,,11
	.global	_ZN7asiopal9TCPServer9ConfigureERKNSt7__cxx1112basic_stringIcSt11char_traitsIcESaIcEEERSt10error_code
	.type	_ZN7asiopal9TCPServer9ConfigureERKNSt7__cxx1112basic_stringIcSt11char_traitsIcESaIcEEERSt10error_code, %function
_ZN7asiopal9TCPServer9ConfigureERKNSt7__cxx1112basic_stringIcSt11char_traitsIcESaIcEEERSt10error_code:
.LFB7068:
	.cfi_startproc
	.cfi_personality 0x9b,DW.ref.__gxx_personality_v0
	.cfi_lsda 0x1b,.LLSDA7068
	sub	sp, sp, #784
	.cfi_def_cfa_offset 784
	adrp	x3, :got:__stack_chk_guard
	stp	x29, x30, [sp]
	.cfi_offset 29, -784
	.cfi_offset 30, -776
	mov	x29, sp
	ldr	x3, [x3, #:got_lo12:__stack_chk_guard]
	stp	x19, x20, [sp, 16]
	.cfi_offset 19, -768
	.cfi_offset 20, -760
	mov	x20, x0
	stp	x21, x22, [sp, 32]
	mov	x19, x2
	stp	x23, x24, [sp, 48]
	stp	x25, x26, [sp, 64]
	stp	x27, x28, [sp, 80]
	.cfi_offset 21, -752
	.cfi_offset 22, -744
	.cfi_offset 23, -736
	.cfi_offset 24, -728
	.cfi_offset 25, -720
	.cfi_offset 26, -712
	.cfi_offset 27, -704
	.cfi_offset 28, -696
	ldr	x0, [x3]
	str	x0, [sp, 776]
	mov	x0, 0
	stp	xzr, xzr, [sp, 272]
	str	xzr, [sp, 288]
	ldr	x25, [x1]
	bl	__errno_location
	mov	x21, x0
	mov	w1, 37
	mov	x0, x25
	str	wzr, [x21]
	bl	strchr
	mov	x24, x0
	cbz	x0, .L1480
	sub	x22, x0, x25
	cmp	x22, 63
	bgt	.L1577
	add	x4, sp, 656
	mov	x1, x25
	mov	x0, x4
	mov	x2, x22
	mov	x3, 64
	bl	__memcpy_chk
	mov	x1, x0
	strb	wzr, [x0, x22]
.L1357:
	adrp	x23, :got:_ZGVZN4asio15system_categoryEvE8instance
	add	x2, sp, 272
	mov	w0, 10
	bl	inet_pton
	ldr	x28, [x23, #:got_lo12:_ZGVZN4asio15system_categoryEvE8instance]
	mov	w26, w0
	ldr	w27, [x21]
	ldar	x0, [x28]
	adrp	x22, :got:_ZZN4asio15system_categoryEvE8instance
	tbz	x0, 0, .L1578
.L1364:
	ldr	x28, [x22, #:got_lo12:_ZZN4asio15system_categoryEvE8instance]
	str	w27, [x19]
	str	x28, [x19, 8]
	cmp	w26, 0
	ble	.L1579
	str	xzr, [sp, 288]
	mov	x0, 0
	cbz	x24, .L1373
	ldrb	w0, [sp, 272]
	cmp	w0, 254
	beq	.L1580
	cmp	w0, 255
	bne	.L1569
	ldrb	w0, [sp, 273]
	add	x26, x24, 1
	and	w0, w0, 15
	cmp	w0, 2
	beq	.L1372
.L1374:
	mov	x0, x26
	mov	w2, 10
	mov	x1, 0
	bl	strtol
	ldr	w27, [x19]
	sxtw	x0, w0
.L1373:
	ldp	x2, x3, [sp, 272]
	stp	x2, x3, [sp, 240]
	cbnz	w27, .L1362
	add	x24, x20, 72
	mov	w1, 10
	strh	w1, [x20, 72]
	add	x1, sp, 512
	add	x26, x20, 104
	stp	x2, x3, [sp, 216]
	mov	w25, 10
	str	wzr, [x24, 4]
	stp	x2, x3, [x20, 80]
	str	w0, [x24, 24]
	stp	x2, x3, [x1, -232]
	ldr	w0, [x20, 104]
	ldr	x28, [x26, 24]
	cmn	w0, #1
	beq	.L1386
.L1586:
	adrp	x20, :got:_ZGVZN4asio5error17get_misc_categoryEvE8instance
	ldr	x20, [x20, #:got_lo12:_ZGVZN4asio5error17get_misc_categoryEvE8instance]
	ldar	x0, [x20]
	adrp	x21, :got:_ZZN4asio5error17get_misc_categoryEvE8instance
	tbz	x0, 0, .L1581
.L1388:
	ldr	x21, [x21, #:got_lo12:_ZZN4asio5error17get_misc_categoryEvE8instance]
	mov	w0, 1
	str	w0, [x19]
	str	x21, [x19, 8]
.L1356:
	adrp	x0, :got:__stack_chk_guard
	ldr	x0, [x0, #:got_lo12:__stack_chk_guard]
	ldr	x2, [sp, 776]
	ldr	x1, [x0]
	subs	x2, x2, x1
	mov	x1, 0
	bne	.L1582
	ldp	x29, x30, [sp]
	ldp	x19, x20, [sp, 16]
	ldp	x21, x22, [sp, 32]
	ldp	x23, x24, [sp, 48]
	ldp	x25, x26, [sp, 64]
	ldp	x27, x28, [sp, 80]
	add	sp, sp, 784
	.cfi_remember_state
	.cfi_restore 29
	.cfi_restore 30
	.cfi_restore 27
	.cfi_restore 28
	.cfi_restore 25
	.cfi_restore 26
	.cfi_restore 23
	.cfi_restore 24
	.cfi_restore 21
	.cfi_restore 22
	.cfi_restore 19
	.cfi_restore 20
	.cfi_def_cfa_offset 0
	ret
	.p2align 2,,3
.L1577:
	.cfi_restore_state
	adrp	x23, :got:_ZGVZN4asio15system_categoryEvE8instance
	ldr	x24, [x23, #:got_lo12:_ZGVZN4asio15system_categoryEvE8instance]
	ldar	x0, [x24]
	adrp	x22, :got:_ZZN4asio15system_categoryEvE8instance
	tbz	x0, 0, .L1583
.L1369:
	ldr	x0, [x22, #:got_lo12:_ZZN4asio15system_categoryEvE8instance]
	mov	w1, 22
	str	w1, [x19]
	str	x0, [x19, 8]
.L1362:
	str	wzr, [x21]
	mov	x1, x25
	add	x2, sp, 160
	mov	w0, 2
	str	wzr, [sp, 160]
	bl	inet_pton
	ldr	x26, [x23, #:got_lo12:_ZGVZN4asio15system_categoryEvE8instance]
	mov	w24, w0
	ldr	w25, [x21]
	ldar	x0, [x26]
	tbz	x0, 0, .L1584
.L1378:
	ldr	x26, [x22, #:got_lo12:_ZZN4asio15system_categoryEvE8instance]
	str	w25, [x19]
	str	x26, [x19, 8]
	cmp	w24, 0
	ble	.L1585
	ldr	w0, [sp, 160]
	cbnz	w25, .L1356
	add	x24, x20, 72
	mov	w1, 2
	strh	w1, [x20, 72]
	add	x26, x20, 104
	mov	w25, 2
	str	w0, [x24, 4]
	stp	xzr, xzr, [x20, 80]
	str	wzr, [x24, 24]
	ldr	w0, [x20, 104]
	ldr	x28, [x26, 24]
	cmn	w0, #1
	bne	.L1586
	.p2align 3,,7
.L1386:
	str	wzr, [x21]
	mov	w0, w25
	mov	w2, 6
	mov	w1, 1
	bl	socket
	mov	w27, w0
	ldr	x4, [x23, #:got_lo12:_ZGVZN4asio15system_categoryEvE8instance]
	ldr	w3, [x21]
	ldar	x0, [x4]
	tbz	x0, 0, .L1587
.L1391:
	ldr	x0, [x22, #:got_lo12:_ZZN4asio15system_categoryEvE8instance]
	str	w3, [x19]
	str	x0, [x19, 8]
	tbnz	w27, #31, .L1393
	bl	_ZNSt3_V215system_categoryEv
	str	wzr, [x19]
	str	x0, [x19, 8]
	str	w27, [sp, 152]
.L1394:
	ldr	x28, [x28, 40]
	add	x0, x28, 128
	stp	x0, x28, [sp, 104]
	bl	pthread_mutex_lock
	add	x0, x28, 176
	ldr	x28, [x28, 184]
	cbz	x28, .L1396
	add	x3, x28, 40
	ldr	x1, [x28, 24]
	str	x1, [x0, 8]
.L1397:
	ldr	x1, [sp, 112]
	ldr	x0, [x1, 176]
	stp	x0, xzr, [x28, 24]
	ldr	x0, [x1, 176]
	cbz	x0, .L1404
	str	x28, [x0, 32]
.L1404:
	ldr	x0, [sp, 112]
	add	x1, sp, 160
	str	x3, [sp, 120]
	str	x28, [x0, 176]
	ldr	x0, [sp, 104]
	str	x1, [sp, 104]
	bl	pthread_mutex_unlock
	str	x28, [x20, 112]
	ldr	x3, [sp, 120]
	mov	x0, x3
	bl	pthread_mutex_lock
	ldp	x28, x3, [sp, 112]
	ldr	x1, [x20, 112]
	str	x28, [x1, 88]
	mov	x0, x3
	str	w27, [x1, 96]
	strb	wzr, [x1, 152]
	bl	pthread_mutex_unlock
	ldr	x0, [x20, 112]
	mov	w4, 27
	movk	w4, 0x8000, lsl 16
	str	w4, [sp, 160]
	ldr	x3, [sp, 104]
	str	w4, [x0, 100]
	str	x0, [sp, 168]
	mov	w2, w27
	mov	w1, 1
	ldr	w0, [x28, 104]
	bl	epoll_ctl
	cbnz	w0, .L1588
.L1406:
	mov	w0, 16
	str	w27, [x20, 104]
	strb	w0, [x20, 108]
	bl	_ZNSt3_V215system_categoryEv
	str	wzr, [x19]
	str	x0, [x19, 8]
.L1412:
	ldr	w0, [x19]
	str	w25, [x26, 16]
.L1426:
	cbnz	w0, .L1356
	ldr	w0, [x20, 104]
	mov	w1, 1
	str	w1, [sp, 160]
	cmn	w0, #1
	beq	.L1571
	str	wzr, [x21]
	add	x2, sp, 160
	mov	x3, x2
	mov	w4, 4
	str	x2, [sp, 104]
	mov	w2, 2
	bl	setsockopt
	ldr	w26, [x21]
	ldr	x27, [x23, #:got_lo12:_ZGVZN4asio15system_categoryEvE8instance]
	mov	w25, w0
	ldar	x0, [x27]
	tbz	x0, 0, .L1589
.L1430:
	ldr	x0, [x22, #:got_lo12:_ZZN4asio15system_categoryEvE8instance]
	str	w26, [x19]
	str	x0, [x19, 8]
	cbnz	w25, .L1432
	bl	_ZNSt3_V215system_categoryEv
	str	wzr, [x19]
	str	x0, [x19, 8]
.L1433:
	ldrh	w3, [x20, 72]
	mov	w2, 16
	ldr	w0, [x20, 104]
	mov	w1, 28
	cmp	w3, 2
	csel	w2, w2, w1, eq
	cmn	w0, #1
	beq	.L1571
	str	wzr, [x21]
	mov	x1, x24
	bl	bind
	ldr	w26, [x21]
	ldr	x27, [x23, #:got_lo12:_ZGVZN4asio15system_categoryEvE8instance]
	mov	w25, w0
	ldar	x0, [x27]
	tbz	x0, 0, .L1590
.L1437:
	ldr	x0, [x22, #:got_lo12:_ZZN4asio15system_categoryEvE8instance]
	str	w26, [x19]
	str	x0, [x19, 8]
	cbnz	w25, .L1439
	bl	_ZNSt3_V215system_categoryEv
	str	wzr, [x19]
	str	x0, [x19, 8]
.L1440:
	ldr	w0, [x20, 104]
	cmn	w0, #1
	beq	.L1571
	str	wzr, [x21]
	mov	w1, 4096
	bl	listen
	ldr	w21, [x21]
	ldr	x23, [x23, #:got_lo12:_ZGVZN4asio15system_categoryEvE8instance]
	mov	w25, w0
	ldar	x0, [x23]
	tbz	x0, 0, .L1591
.L1443:
	ldr	x22, [x22, #:got_lo12:_ZZN4asio15system_categoryEvE8instance]
	str	w21, [x19]
	str	x22, [x19, 8]
	cbnz	w25, .L1445
	bl	_ZNSt3_V215system_categoryEv
	str	wzr, [x19]
	str	x0, [x19, 8]
.L1446:
	add	x26, sp, 384
	add	x23, sp, 272
	mov	x0, x26
	bl	_ZNSt8ios_baseC2Ev
	adrp	x0, :got:_ZTTNSt7__cxx1119basic_ostringstreamIcSt11char_traitsIcESaIcEEE
	adrp	x1, :got:_ZTVSt9basic_iosIcSt11char_traitsIcEE
	movi	v0.4s, 0
	add	x3, sp, 560
	ldr	x0, [x0, #:got_lo12:_ZTTNSt7__cxx1119basic_ostringstreamIcSt11char_traitsIcESaIcEEE]
	str	xzr, [sp, 600]
	ldr	x2, [x1, #:got_lo12:_ZTVSt9basic_iosIcSt11char_traitsIcEE]
	add	x1, sp, 560
	ldp	x25, x0, [x0, 8]
	strh	wzr, [sp, 608]
	add	x2, x2, 16
	str	q0, [x1, 56]
	mov	x1, 0
	str	q0, [x3, 72]
	ldr	x3, [x25, -24]
	str	x25, [sp, 272]
	str	x2, [sp, 384]
	mov	x2, x0
	add	x0, x23, x3
	str	x2, [sp, 120]
	str	x2, [x23, x3]
.LEHB36:
	bl	_ZNSt9basic_iosIcSt11char_traitsIcEE4initEPSt15basic_streambufIcS1_E
.LEHE36:
	adrp	x1, :got:_ZTVSt15basic_streambufIcSt11char_traitsIcEE
	adrp	x0, :got:_ZTVNSt7__cxx1119basic_ostringstreamIcSt11char_traitsIcESaIcEEE
	movi	v0.4s, 0
	add	x27, sp, 336
	ldr	x0, [x0, #:got_lo12:_ZTVNSt7__cxx1119basic_ostringstreamIcSt11char_traitsIcESaIcEEE]
	add	x21, sp, 368
	ldr	x2, [x1, #:got_lo12:_ZTVSt15basic_streambufIcSt11char_traitsIcEE]
	add	x3, x0, 24
	add	x1, x0, 64
	mov	x0, x27
	add	x2, x2, 16
	str	x21, [sp, 128]
	stp	x3, x2, [sp, 272]
	add	x19, sp, 280
	stp	q0, q0, [sp, 288]
	str	q0, [sp, 320]
	str	x1, [sp, 384]
	bl	_ZNSt6localeC1Ev
	adrp	x0, :got:_ZTVNSt7__cxx1115basic_stringbufIcSt11char_traitsIcESaIcEEE
	mov	w3, 16
	mov	x1, x19
	str	w3, [sp, 344]
	ldr	x2, [x0, #:got_lo12:_ZTVNSt7__cxx1115basic_stringbufIcSt11char_traitsIcESaIcEEE]
	mov	x0, x26
	stp	x21, xzr, [sp, 352]
	add	x2, x2, 16
	str	x2, [sp, 280]
	strb	wzr, [sp, 368]
.LEHB37:
	bl	_ZNSt9basic_iosIcSt11char_traitsIcEE4initEPSt15basic_streambufIcS1_E
.LEHE37:
	ldrh	w1, [x20, 72]
	ldrh	w0, [x24, 2]
	cmp	w1, 2
	beq	.L1592
	mov	x1, 10
	str	x1, [sp, 176]
	ldr	w1, [x24, 24]
	ldp	x2, x3, [x20, 80]
	strh	w0, [sp, 178]
	stp	x2, x3, [sp, 184]
	str	w1, [sp, 200]
.L1451:
	str	wzr, [sp, 160]
	bl	_ZNSt3_V215system_categoryEv
	ldr	x1, [sp, 104]
	mov	x2, x0
	add	x28, sp, 240
	add	x0, sp, 176
	mov	x8, x28
	str	x2, [sp, 168]
.LEHB38:
	bl	_ZNK4asio2ip6detail8endpoint9to_stringB5cxx11ERSt10error_code
.LEHE38:
	ldr	w0, [sp, 160]
	cbz	w0, .L1452
	ldr	x0, [sp, 272]
	ldr	x0, [x0, -24]
	add	x0, x23, x0
	ldr	w1, [x0, 28]
	tbnz	x1, 2, .L1593
	ldr	w1, [x0, 32]
	orr	w1, w1, 4
.LEHB39:
	bl	_ZNSt9basic_iosIcSt11char_traitsIcEE5clearESt12_Ios_Iostate
.LEHE39:
	ldr	x0, [sp, 240]
.L1455:
	add	x19, sp, 256
	cmp	x0, x19
	beq	.L1460
	ldr	x1, [sp, 256]
	add	x1, x1, 1
	bl	_ZdlPvm
.L1460:
	ldr	x1, [sp, 104]
	mov	w2, 8
	add	x20, x20, 24
	str	w2, [sp, 160]
	mov	x0, x20
.LEHB40:
	bl	_ZNK7openpal6Logger9IsEnabledERKNS_10LogFiltersE
.LEHE40:
	tst	w0, 255
	beq	.L1465
	ldr	x5, [sp, 320]
	stp	x19, xzr, [sp, 240]
	strb	wzr, [sp, 256]
	cbz	x5, .L1466
	ldp	x4, x3, [sp, 304]
	mov	x0, x28
	mov	x2, 0
	mov	x1, 0
	cmp	x4, 0
	ccmp	x5, x4, 2, ne
	csel	x4, x5, x4, hi
	sub	x4, x4, x3
.LEHB41:
	bl	_ZNSt7__cxx1112basic_stringIcSt11char_traitsIcESaIcEE10_M_replaceEmmPKcm
.LEHE41:
.L1468:
	ldr	x5, [sp, 240]
	add	x21, sp, 656
	mov	x3, 120
	mov	x0, x21
	mov	x1, x3
	adrp	x4, .LC28
	mov	w2, 1
	add	x4, x4, :lo12:.LC28
	bl	__snprintf_chk
	ldr	x0, [sp, 240]
	cmp	x0, x19
	beq	.L1470
	ldr	x1, [sp, 256]
	add	x1, x1, 1
	bl	_ZdlPvm
.L1470:
	ldr	x1, [sp, 104]
	mov	w4, 8
	adrp	x2, .LC29
	mov	x3, x21
	mov	x0, x20
	add	x2, x2, :lo12:.LC29
	str	w4, [sp, 160]
.LEHB42:
	bl	_ZN7openpal6Logger3LogERKNS_10LogFiltersEPKcS5_
.LEHE42:
.L1465:
	adrp	x0, :got:_ZTVNSt7__cxx1119basic_ostringstreamIcSt11char_traitsIcESaIcEEE
	ldr	x1, [x0, #:got_lo12:_ZTVNSt7__cxx1119basic_ostringstreamIcSt11char_traitsIcESaIcEEE]
	adrp	x0, :got:_ZTVNSt7__cxx1115basic_stringbufIcSt11char_traitsIcESaIcEEE
	add	x3, x1, 24
	add	x1, x1, 64
	ldr	x2, [x0, #:got_lo12:_ZTVNSt7__cxx1115basic_stringbufIcSt11char_traitsIcESaIcEEE]
	str	x1, [sp, 384]
	ldr	x1, [sp, 128]
	add	x2, x2, 16
	ldr	x0, [sp, 352]
	stp	x3, x2, [sp, 272]
	cmp	x0, x1
	beq	.L1473
	ldr	x1, [sp, 368]
	add	x1, x1, 1
	bl	_ZdlPvm
.L1473:
	adrp	x0, :got:_ZTVSt15basic_streambufIcSt11char_traitsIcEE
	ldr	x1, [x0, #:got_lo12:_ZTVSt15basic_streambufIcSt11char_traitsIcEE]
	mov	x0, x27
	add	x1, x1, 16
	str	x1, [sp, 280]
	bl	_ZNSt6localeD1Ev
	adrp	x1, :got:_ZTVSt9basic_iosIcSt11char_traitsIcEE
	mov	x0, x26
	ldr	x2, [x25, -24]
	str	x25, [sp, 272]
	ldr	x1, [x1, #:got_lo12:_ZTVSt9basic_iosIcSt11char_traitsIcEE]
	ldr	x3, [sp, 120]
	add	x1, x1, 16
	str	x3, [x23, x2]
	str	x1, [sp, 384]
	bl	_ZNSt8ios_baseD2Ev
	b	.L1356
	.p2align 2,,3
.L1579:
	cbnz	w27, .L1362
	ldr	x24, [x23, #:got_lo12:_ZGVZN4asio15system_categoryEvE8instance]
	ldar	x0, [x24]
	tbnz	x0, 0, .L1369
	mov	x0, x24
	bl	__cxa_guard_acquire
	cbz	w0, .L1369
	mov	x1, x28
	adrp	x0, :got:_ZN4asio6detail15system_categoryD1Ev
	adrp	x2, __dso_handle
.L1572:
	ldr	x0, [x0, #:got_lo12:_ZN4asio6detail15system_categoryD1Ev]
	add	x2, x2, :lo12:__dso_handle
	bl	__cxa_atexit
	mov	x0, x24
	bl	__cxa_guard_release
	b	.L1369
	.p2align 2,,3
.L1480:
	mov	x1, x25
	b	.L1357
	.p2align 2,,3
.L1578:
	mov	x0, x28
	adrp	x22, :got:_ZZN4asio15system_categoryEvE8instance
	bl	__cxa_guard_acquire
	cbz	w0, .L1364
	adrp	x0, :got:_ZN4asio6detail15system_categoryD1Ev
	adrp	x2, __dso_handle
	ldr	x1, [x22, #:got_lo12:_ZZN4asio15system_categoryEvE8instance]
	add	x2, x2, :lo12:__dso_handle
	ldr	x0, [x0, #:got_lo12:_ZN4asio6detail15system_categoryD1Ev]
	bl	__cxa_atexit
	mov	x0, x28
	bl	__cxa_guard_release
	b	.L1364
	.p2align 2,,3
.L1585:
	cbnz	w25, .L1356
	ldr	x23, [x23, #:got_lo12:_ZGVZN4asio15system_categoryEvE8instance]
	ldar	x0, [x23]
	tbz	x0, 0, .L1594
.L1383:
	ldr	x22, [x22, #:got_lo12:_ZZN4asio15system_categoryEvE8instance]
	mov	w0, 22
	str	w0, [x19]
	str	x22, [x19, 8]
	b	.L1356
	.p2align 2,,3
.L1580:
	ldrb	w0, [sp, 273]
	and	w0, w0, 192
	cmp	w0, 128
	beq	.L1372
.L1569:
	add	x26, x24, 1
	b	.L1374
	.p2align 2,,3
.L1583:
	mov	x0, x24
	adrp	x22, :got:_ZZN4asio15system_categoryEvE8instance
	bl	__cxa_guard_acquire
	cbz	w0, .L1369
	ldr	x1, [x22, #:got_lo12:_ZZN4asio15system_categoryEvE8instance]
	adrp	x0, :got:_ZN4asio6detail15system_categoryD1Ev
	adrp	x2, __dso_handle
	b	.L1572
	.p2align 2,,3
.L1372:
	add	x26, x24, 1
	mov	x0, x26
	bl	if_nametoindex
	uxtw	x0, w0
	str	x0, [sp, 288]
	cbz	x0, .L1374
	ldr	w27, [x19]
	b	.L1373
	.p2align 2,,3
.L1445:
	cbnz	w21, .L1356
	b	.L1446
	.p2align 2,,3
.L1432:
	cbz	w26, .L1433
	b	.L1356
	.p2align 2,,3
.L1584:
	mov	x0, x26
	bl	__cxa_guard_acquire
	cbz	w0, .L1378
	adrp	x0, :got:_ZN4asio6detail15system_categoryD1Ev
	adrp	x2, __dso_handle
	ldr	x1, [x22, #:got_lo12:_ZZN4asio15system_categoryEvE8instance]
	add	x2, x2, :lo12:__dso_handle
	ldr	x0, [x0, #:got_lo12:_ZN4asio6detail15system_categoryD1Ev]
	bl	__cxa_atexit
	mov	x0, x26
	bl	__cxa_guard_release
	b	.L1378
	.p2align 2,,3
.L1581:
	mov	x0, x20
	adrp	x21, :got:_ZZN4asio5error17get_misc_categoryEvE8instance
	bl	__cxa_guard_acquire
	cbz	w0, .L1388
	adrp	x0, :got:_ZN4asio5error6detail13misc_categoryD1Ev
	adrp	x2, __dso_handle
	ldr	x1, [x21, #:got_lo12:_ZZN4asio5error17get_misc_categoryEvE8instance]
	add	x2, x2, :lo12:__dso_handle
	ldr	x0, [x0, #:got_lo12:_ZN4asio5error6detail13misc_categoryD1Ev]
	bl	__cxa_atexit
	mov	x0, x20
	bl	__cxa_guard_release
	b	.L1388
	.p2align 2,,3
.L1393:
	str	w27, [sp, 152]
	cmn	w27, #1
	bne	.L1394
	cbz	w3, .L1412
.L1478:
	ldr	w0, [x19]
	b	.L1426
	.p2align 2,,3
.L1439:
	cbnz	w26, .L1356
	b	.L1440
	.p2align 2,,3
.L1587:
	mov	x0, x4
	str	x4, [sp, 104]
	str	w3, [sp, 112]
	bl	__cxa_guard_acquire
	ldr	w3, [sp, 112]
	ldr	x4, [sp, 104]
	cbz	w0, .L1391
	adrp	x0, :got:_ZN4asio6detail15system_categoryD1Ev
	adrp	x2, __dso_handle
	ldr	x1, [x22, #:got_lo12:_ZZN4asio15system_categoryEvE8instance]
	add	x2, x2, :lo12:__dso_handle
	ldr	x0, [x0, #:got_lo12:_ZN4asio6detail15system_categoryD1Ev]
	str	w3, [sp, 104]
	str	x4, [sp, 112]
	bl	__cxa_atexit
	ldr	x4, [sp, 112]
	mov	x0, x4
	bl	__cxa_guard_release
	ldr	w3, [sp, 104]
	b	.L1391
	.p2align 2,,3
.L1590:
	mov	x0, x27
	bl	__cxa_guard_acquire
	cbz	w0, .L1437
	adrp	x0, :got:_ZN4asio6detail15system_categoryD1Ev
	adrp	x2, __dso_handle
	ldr	x1, [x22, #:got_lo12:_ZZN4asio15system_categoryEvE8instance]
	add	x2, x2, :lo12:__dso_handle
	ldr	x0, [x0, #:got_lo12:_ZN4asio6detail15system_categoryD1Ev]
	bl	__cxa_atexit
	mov	x0, x27
	bl	__cxa_guard_release
	b	.L1437
	.p2align 2,,3
.L1589:
	mov	x0, x27
	bl	__cxa_guard_acquire
	cbz	w0, .L1430
	adrp	x0, :got:_ZN4asio6detail15system_categoryD1Ev
	adrp	x2, __dso_handle
	ldr	x1, [x22, #:got_lo12:_ZZN4asio15system_categoryEvE8instance]
	add	x2, x2, :lo12:__dso_handle
	ldr	x0, [x0, #:got_lo12:_ZN4asio6detail15system_categoryD1Ev]
	bl	__cxa_atexit
	mov	x0, x27
	bl	__cxa_guard_release
	b	.L1430
	.p2align 2,,3
.L1588:
	ldr	w28, [x21]
	cbz	w28, .L1406
	ldr	x25, [x23, #:got_lo12:_ZGVZN4asio15system_categoryEvE8instance]
	ldar	x0, [x25]
	tbz	x0, 0, .L1595
.L1408:
	ldr	x26, [x22, #:got_lo12:_ZZN4asio15system_categoryEvE8instance]
	str	w28, [x19]
	ldr	w27, [sp, 152]
	str	x26, [x19, 8]
	cmn	w27, #1
	beq	.L1478
	str	wzr, [x21]
	mov	w0, w27
	bl	close
	mov	w25, w0
	ldr	x28, [x23, #:got_lo12:_ZGVZN4asio15system_categoryEvE8instance]
	ldr	w3, [x21]
	ldar	x0, [x28]
	tbz	x0, 0, .L1596
.L1414:
	cbz	w25, .L1478
.L1598:
	ldr	x25, [x23, #:got_lo12:_ZGVZN4asio15system_categoryEvE8instance]
	ldar	x0, [x25]
	tbz	x0, 0, .L1597
.L1419:
	cmp	w3, 11
	beq	.L1421
.L1576:
	ldr	x25, [x23, #:got_lo12:_ZGVZN4asio15system_categoryEvE8instance]
	ldar	x0, [x25]
	tbnz	x0, 0, .L1478
	mov	x0, x25
	bl	__cxa_guard_acquire
	cbz	w0, .L1478
	adrp	x0, :got:_ZN4asio6detail15system_categoryD1Ev
	adrp	x2, __dso_handle
	ldr	x1, [x22, #:got_lo12:_ZZN4asio15system_categoryEvE8instance]
	add	x2, x2, :lo12:__dso_handle
	ldr	x0, [x0, #:got_lo12:_ZN4asio6detail15system_categoryD1Ev]
	bl	__cxa_atexit
	mov	x0, x25
	bl	__cxa_guard_release
	ldr	w0, [x19]
	b	.L1426
	.p2align 2,,3
.L1596:
	mov	x0, x28
	str	w3, [sp, 112]
	bl	__cxa_guard_acquire
	ldr	w3, [sp, 112]
	cbz	w0, .L1414
	adrp	x0, :got:_ZN4asio6detail15system_categoryD1Ev
	mov	x1, x26
	adrp	x2, __dso_handle
	add	x2, x2, :lo12:__dso_handle
	ldr	x0, [x0, #:got_lo12:_ZN4asio6detail15system_categoryD1Ev]
	str	w3, [sp, 112]
	bl	__cxa_atexit
	mov	x0, x28
	bl	__cxa_guard_release
	ldr	w3, [sp, 112]
	cbz	w25, .L1478
	b	.L1598
	.p2align 2,,3
.L1591:
	mov	x0, x23
	bl	__cxa_guard_acquire
	cbz	w0, .L1443
	adrp	x0, :got:_ZN4asio6detail15system_categoryD1Ev
	adrp	x2, __dso_handle
	ldr	x1, [x22, #:got_lo12:_ZZN4asio15system_categoryEvE8instance]
	add	x2, x2, :lo12:__dso_handle
	ldr	x0, [x0, #:got_lo12:_ZN4asio6detail15system_categoryD1Ev]
	bl	__cxa_atexit
	mov	x0, x23
	bl	__cxa_guard_release
	b	.L1443
	.p2align 2,,3
.L1594:
	mov	x0, x23
	bl	__cxa_guard_acquire
	cbz	w0, .L1383
	adrp	x0, :got:_ZN4asio6detail15system_categoryD1Ev
	mov	x1, x26
	adrp	x2, __dso_handle
	add	x2, x2, :lo12:__dso_handle
	ldr	x0, [x0, #:got_lo12:_ZN4asio6detail15system_categoryD1Ev]
	bl	__cxa_atexit
	mov	x0, x23
	bl	__cxa_guard_release
	b	.L1383
	.p2align 2,,3
.L1396:
	mov	x0, 160
.LEHB43:
	bl	_Znwm
.LEHE43:
	adrp	x2, :got:_ZN4asio6detail13epoll_reactor16descriptor_state11do_completeEPNS0_15task_io_serviceEPNS0_25task_io_service_operationERKSt10error_codem
	mov	x28, x0
	add	x3, x0, 40
	mov	x1, 0
	ldr	x2, [x2, #:got_lo12:_ZN4asio6detail13epoll_reactor16descriptor_state11do_completeEPNS0_15task_io_serviceEPNS0_25task_io_service_operationERKSt10error_codem]
	stp	xzr, x2, [x28]
	mov	x0, x3
	str	wzr, [x28, 16]
	str	x3, [sp, 120]
	bl	pthread_mutex_init
	mov	w4, w0
	ldr	x5, [x23, #:got_lo12:_ZGVZN4asio15system_categoryEvE8instance]
	ldar	x0, [x5]
	ldr	x3, [sp, 120]
	tbz	x0, 0, .L1599
.L1399:
	ldr	x0, [x22, #:got_lo12:_ZZN4asio15system_categoryEvE8instance]
	str	w4, [sp, 160]
	str	x0, [sp, 168]
	cbnz	w4, .L1600
	movi	v0.4s, 0
	str	q0, [x28, 104]
	str	q0, [x28, 120]
	str	q0, [x28, 136]
	b	.L1397
	.p2align 2,,3
.L1452:
	ldp	x0, x1, [sp, 240]
	cbz	x1, .L1455
	adrp	x1, :got:_ZNKSt5ctypeIcE8do_widenEc
	mov	x22, x0
	add	x24, sp, 152
	ldr	x0, [x1, #:got_lo12:_ZNKSt5ctypeIcE8do_widenEc]
	str	x0, [sp, 112]
	b	.L1459
	.p2align 2,,3
.L1602:
	add	x21, x19, w21, sxtw
	ldrb	w21, [x21, 57]
.L1458:
	mov	x1, x24
	mov	x0, x23
	mov	x2, 1
	strb	w21, [sp, 152]
.LEHB44:
	bl	_ZSt16__ostream_insertIcSt11char_traitsIcEERSt13basic_ostreamIT_T0_ES6_PKS3_l
	ldp	x0, x1, [sp, 240]
	add	x22, x22, 1
	add	x1, x0, x1
	cmp	x1, x22
	beq	.L1455
.L1459:
	ldr	x0, [sp, 272]
	ldrb	w21, [x22]
	ldr	x0, [x0, -24]
	add	x0, x23, x0
	ldr	x19, [x0, 240]
	cbz	x19, .L1601
	ldrb	w0, [x19, 56]
	cbnz	w0, .L1602
	mov	x0, x19
	bl	_ZNKSt5ctypeIcE13_M_widen_initEv
	ldr	x0, [x19]
	ldr	x2, [x0, 48]
	ldr	x0, [sp, 112]
	cmp	x2, x0
	beq	.L1458
	mov	w1, w21
	mov	x0, x19
	blr	x2
.LEHE44:
	and	w21, w0, 255
	b	.L1458
.L1592:
	mov	x1, 2
	str	x1, [sp, 176]
	ldr	w1, [x24, 4]
	strh	w0, [sp, 178]
	str	w1, [sp, 180]
	stp	xzr, xzr, [sp, 184]
	str	wzr, [sp, 200]
	b	.L1451
.L1595:
	mov	x0, x25
	bl	__cxa_guard_acquire
	cbz	w0, .L1408
	adrp	x0, :got:_ZN4asio6detail15system_categoryD1Ev
	adrp	x2, __dso_handle
	ldr	x1, [x22, #:got_lo12:_ZZN4asio15system_categoryEvE8instance]
	add	x2, x2, :lo12:__dso_handle
	ldr	x0, [x0, #:got_lo12:_ZN4asio6detail15system_categoryD1Ev]
	bl	__cxa_atexit
	mov	x0, x25
	bl	__cxa_guard_release
	b	.L1408
.L1597:
	mov	x0, x25
	str	w3, [sp, 112]
	bl	__cxa_guard_acquire
	ldr	w3, [sp, 112]
	cbz	w0, .L1419
	adrp	x0, :got:_ZN4asio6detail15system_categoryD1Ev
	adrp	x2, __dso_handle
	ldr	x1, [x22, #:got_lo12:_ZZN4asio15system_categoryEvE8instance]
	add	x2, x2, :lo12:__dso_handle
	ldr	x0, [x0, #:got_lo12:_ZN4asio6detail15system_categoryD1Ev]
	str	w3, [sp, 112]
	bl	__cxa_atexit
	mov	x0, x25
	bl	__cxa_guard_release
	ldr	w3, [sp, 112]
	b	.L1419
.L1599:
	mov	x0, x5
	str	x5, [sp, 120]
	str	w4, [sp, 128]
	str	x3, [sp, 136]
	bl	__cxa_guard_acquire
	ldr	w4, [sp, 128]
	ldr	x5, [sp, 120]
	ldr	x3, [sp, 136]
	cbz	w0, .L1399
	adrp	x0, :got:_ZN4asio6detail15system_categoryD1Ev
	adrp	x2, __dso_handle
	ldr	x1, [x22, #:got_lo12:_ZZN4asio15system_categoryEvE8instance]
	add	x2, x2, :lo12:__dso_handle
	ldr	x0, [x0, #:got_lo12:_ZN4asio6detail15system_categoryD1Ev]
	str	w4, [sp, 120]
	stp	x3, x5, [sp, 128]
	bl	__cxa_atexit
	ldr	x5, [sp, 136]
	mov	x0, x5
	bl	__cxa_guard_release
	ldr	w4, [sp, 120]
	ldr	x3, [sp, 128]
	b	.L1399
.L1421:
	ldr	x2, [sp, 104]
	mov	w0, w27
	mov	x1, 21537
	str	wzr, [sp, 160]
	bl	ioctl
	str	wzr, [x21]
	mov	w0, w27
	bl	close
	b	.L1576
.L1466:
	mov	x0, x28
	add	x1, sp, 352
.LEHB45:
	bl	_ZNSt7__cxx1112basic_stringIcSt11char_traitsIcESaIcEE9_M_assignERKS4_
.LEHE45:
	b	.L1468
.L1571:
	bl	_ZN4asio15system_categoryEv
	str	x0, [x19, 8]
	mov	w1, 9
	str	w1, [x19]
	b	.L1356
.L1582:
	bl	__stack_chk_fail
.L1600:
	adrp	x1, .LC25
	add	x0, sp, 160
	add	x1, x1, :lo12:.LC25
.LEHB46:
	bl	_ZN4asio6detail14do_throw_errorERKSt10error_codePKc
.LEHE46:
.L1601:
.LEHB47:
	bl	_ZSt16__throw_bad_castv
.L1593:
	ldr	x0, [sp, 104]
	bl	_ZN4asio6detail14do_throw_errorERKSt10error_code
.LEHE47:
.L1485:
	ldr	x2, [sp, 240]
	add	x1, sp, 256
	mov	x19, x0
	cmp	x2, x1
	beq	.L1464
	ldr	x1, [sp, 256]
	mov	x0, x2
	add	x1, x1, 1
	bl	_ZdlPvm
.L1464:
	mov	x0, x23
	bl	_ZNSt7__cxx1119basic_ostringstreamIcSt11char_traitsIcESaIcEED1Ev
	mov	x0, x19
.LEHB48:
	bl	_Unwind_Resume
.L1488:
	ldr	x2, [sp, 240]
	mov	x20, x0
	cmp	x2, x19
	beq	.L1472
	ldr	x1, [sp, 256]
	mov	x0, x2
	add	x1, x1, 1
	bl	_ZdlPvm
.L1472:
	mov	x19, x20
	b	.L1464
.L1483:
	mov	x19, x0
	b	.L1403
.L1486:
	mov	x19, x0
.L1449:
	adrp	x0, :got:_ZTVSt9basic_iosIcSt11char_traitsIcEE
	ldr	x1, [x0, #:got_lo12:_ZTVSt9basic_iosIcSt11char_traitsIcEE]
	mov	x0, x26
	add	x1, x1, 16
	str	x1, [sp, 384]
	bl	_ZNSt8ios_baseD2Ev
	mov	x0, x19
	bl	_Unwind_Resume
.L1482:
	mov	x19, x0
	b	.L1464
.L1487:
	mov	x1, x0
	mov	x0, x19
	mov	x19, x1
	bl	_ZNSt7__cxx1115basic_stringbufIcSt11char_traitsIcESaIcEED1Ev
	ldr	x0, [x25, -24]
	str	x25, [sp, 272]
	ldr	x1, [sp, 120]
	str	x1, [x23, x0]
	b	.L1449
.L1484:
	mov	x19, x0
	mov	x1, 160
	mov	x0, x28
	bl	_ZdlPvm
.L1403:
	ldr	x0, [sp, 104]
	bl	pthread_mutex_unlock
	add	x0, sp, 152
	bl	_ZN4asio6detail13socket_holderD1Ev
	mov	x0, x19
	bl	_Unwind_Resume
.LEHE48:
	.cfi_endproc
.LFE7068:
	.section	.gcc_except_table
.LLSDA7068:
	.byte	0xff
	.byte	0xff
	.byte	0x1
	.uleb128 .LLSDACSE7068-.LLSDACSB7068
.LLSDACSB7068:
	.uleb128 .LEHB36-.LFB7068
	.uleb128 .LEHE36-.LEHB36
	.uleb128 .L1486-.LFB7068
	.uleb128 0
	.uleb128 .LEHB37-.LFB7068
	.uleb128 .LEHE37-.LEHB37
	.uleb128 .L1487-.LFB7068
	.uleb128 0
	.uleb128 .LEHB38-.LFB7068
	.uleb128 .LEHE38-.LEHB38
	.uleb128 .L1482-.LFB7068
	.uleb128 0
	.uleb128 .LEHB39-.LFB7068
	.uleb128 .LEHE39-.LEHB39
	.uleb128 .L1485-.LFB7068
	.uleb128 0
	.uleb128 .LEHB40-.LFB7068
	.uleb128 .LEHE40-.LEHB40
	.uleb128 .L1482-.LFB7068
	.uleb128 0
	.uleb128 .LEHB41-.LFB7068
	.uleb128 .LEHE41-.LEHB41
	.uleb128 .L1488-.LFB7068
	.uleb128 0
	.uleb128 .LEHB42-.LFB7068
	.uleb128 .LEHE42-.LEHB42
	.uleb128 .L1482-.LFB7068
	.uleb128 0
	.uleb128 .LEHB43-.LFB7068
	.uleb128 .LEHE43-.LEHB43
	.uleb128 .L1483-.LFB7068
	.uleb128 0
	.uleb128 .LEHB44-.LFB7068
	.uleb128 .LEHE44-.LEHB44
	.uleb128 .L1485-.LFB7068
	.uleb128 0
	.uleb128 .LEHB45-.LFB7068
	.uleb128 .LEHE45-.LEHB45
	.uleb128 .L1488-.LFB7068
	.uleb128 0
	.uleb128 .LEHB46-.LFB7068
	.uleb128 .LEHE46-.LEHB46
	.uleb128 .L1484-.LFB7068
	.uleb128 0
	.uleb128 .LEHB47-.LFB7068
	.uleb128 .LEHE47-.LEHB47
	.uleb128 .L1485-.LFB7068
	.uleb128 0
	.uleb128 .LEHB48-.LFB7068
	.uleb128 .LEHE48-.LEHB48
	.uleb128 0
	.uleb128 0
.LLSDACSE7068:
	.text
	.size	_ZN7asiopal9TCPServer9ConfigureERKNSt7__cxx1112basic_stringIcSt11char_traitsIcESaIcEEERSt10error_code, .-_ZN7asiopal9TCPServer9ConfigureERKNSt7__cxx1112basic_stringIcSt11char_traitsIcESaIcEEERSt10error_code
	.section	.text._ZNSt16_Sp_counted_baseILN9__gnu_cxx12_Lock_policyE2EE10_M_releaseEv,"axG",@progbits,_ZNSt16_Sp_counted_baseILN9__gnu_cxx12_Lock_policyE2EE10_M_releaseEv,comdat
	.align	2
	.p2align 4,,11
	.weak	_ZNSt16_Sp_counted_baseILN9__gnu_cxx12_Lock_policyE2EE10_M_releaseEv
	.type	_ZNSt16_Sp_counted_baseILN9__gnu_cxx12_Lock_policyE2EE10_M_releaseEv, %function
_ZNSt16_Sp_counted_baseILN9__gnu_cxx12_Lock_policyE2EE10_M_releaseEv:
.LFB8176:
	.cfi_startproc
	stp	x29, x30, [sp, -32]!
	.cfi_def_cfa_offset 32
	.cfi_offset 29, -32
	.cfi_offset 30, -24
	mov	x29, sp
	stp	x19, x20, [sp, 16]
	.cfi_offset 19, -16
	.cfi_offset 20, -8
	adrp	x20, :got:__libc_single_threaded
	mov	x19, x0
	ldr	x0, [x20, #:got_lo12:__libc_single_threaded]
	ldrb	w0, [x0]
	cbz	w0, .L1604
	ldr	w0, [x19, 8]
	sub	w1, w0, #1
	str	w1, [x19, 8]
.L1605:
	cmp	w0, 1
	beq	.L1612
.L1603:
	ldp	x19, x20, [sp, 16]
	ldp	x29, x30, [sp], 32
	.cfi_remember_state
	.cfi_restore 30
	.cfi_restore 29
	.cfi_restore 19
	.cfi_restore 20
	.cfi_def_cfa_offset 0
	ret
	.p2align 2,,3
.L1612:
	.cfi_restore_state
	ldr	x1, [x19]
	mov	x0, x19
	ldr	x1, [x1, 16]
	blr	x1
	ldr	x20, [x20, #:got_lo12:__libc_single_threaded]
	ldrb	w0, [x20]
	cbz	w0, .L1608
	ldr	w0, [x19, 12]
	sub	w1, w0, #1
	str	w1, [x19, 12]
.L1609:
	cmp	w0, 1
	bne	.L1603
	ldr	x1, [x19]
	mov	x0, x19
	ldp	x19, x20, [sp, 16]
	ldp	x29, x30, [sp], 32
	.cfi_remember_state
	.cfi_restore 30
	.cfi_restore 29
	.cfi_restore 19
	.cfi_restore 20
	.cfi_def_cfa_offset 0
	ldr	x1, [x1, 24]
	mov	x16, x1
	br	x16
	.p2align 2,,3
.L1604:
	.cfi_restore_state
	add	x1, x19, 8
	mov	w0, -1
	bl	__aarch64_ldadd4_acq_rel
	b	.L1605
	.p2align 2,,3
.L1608:
	add	x1, x19, 12
	mov	w0, -1
	bl	__aarch64_ldadd4_acq_rel
	b	.L1609
	.cfi_endproc
.LFE8176:
	.size	_ZNSt16_Sp_counted_baseILN9__gnu_cxx12_Lock_policyE2EE10_M_releaseEv, .-_ZNSt16_Sp_counted_baseILN9__gnu_cxx12_Lock_policyE2EE10_M_releaseEv
	.global	__aarch64_cas4_acq_rel
	.text
	.align	2
	.p2align 4,,11
	.global	_ZN7asiopal9TCPServer11StartAcceptEv
	.type	_ZN7asiopal9TCPServer11StartAcceptEv, %function
_ZN7asiopal9TCPServer11StartAcceptEv:
.LFB7069:
	.cfi_startproc
	.cfi_personality 0x9b,DW.ref.__gxx_personality_v0
	.cfi_lsda 0x1b,.LLSDA7069
	stp	x29, x30, [sp, -224]!
	.cfi_def_cfa_offset 224
	.cfi_offset 29, -224
	.cfi_offset 30, -216
	adrp	x1, :got:__stack_chk_guard
	mov	x29, sp
	ldr	x1, [x1, #:got_lo12:__stack_chk_guard]
	stp	x19, x20, [sp, 16]
	stp	x21, x22, [sp, 32]
	.cfi_offset 19, -208
	.cfi_offset 20, -200
	.cfi_offset 21, -192
	.cfi_offset 22, -184
	mov	x21, x0
	stp	x23, x24, [sp, 48]
	stp	x25, x26, [sp, 64]
	stp	x27, x28, [sp, 80]
	.cfi_offset 23, -176
	.cfi_offset 24, -168
	.cfi_offset 25, -160
	.cfi_offset 26, -152
	.cfi_offset 27, -144
	.cfi_offset 28, -136
	ldr	x22, [x0, 16]
	ldr	x0, [x1]
	str	x0, [sp, 216]
	mov	x0, 0
	cbz	x22, .L1614
	add	x25, x22, 8
	ldr	w19, [x25]
.L1616:
	cbz	w19, .L1614
	add	w1, w19, 1
	mov	w0, w19
	mov	x2, x25
	bl	__aarch64_cas4_acq_rel
	cmp	w0, w19
	mov	w19, w0
	bne	.L1616
	adrp	x23, :got:__libc_single_threaded
	add	x0, x21, 168
	str	x0, [sp, 96]
	add	x27, x21, 136
	ldr	x0, [x23, #:got_lo12:__libc_single_threaded]
	ldr	x19, [x21, 8]
	ldrb	w0, [x0]
	ldr	x20, [x21, 56]
	cbz	w0, .L1824
	ldr	w0, [x22, 8]
	add	w0, w0, 1
	str	w0, [x22, 8]
.L1617:
	adrp	x0, :got:_ZN4asio6detail10call_stackINS0_14strand_service11strand_implEhE4top_E
	add	x26, x21, 104
	ldr	x1, [x26, 24]
	str	x1, [sp, 112]
	ldr	x0, [x0, #:got_lo12:_ZN4asio6detail10call_stackINS0_14strand_service11strand_implEhE4top_E]
	stp	x19, x22, [sp, 192]
	ldr	q0, [x20, 40]
	ldr	w0, [x0]
	umov	x20, v0.d[1]
	str	q0, [sp, 176]
	bl	pthread_getspecific
	mov	x19, x0
	cbnz	x0, .L1620
	b	.L1618
	.p2align 2,,3
.L1619:
	ldr	x19, [x19, 16]
	cbz	x19, .L1618
.L1620:
	ldr	x0, [x19]
	cmp	x0, x20
	bne	.L1619
	ldr	x19, [x19, 8]
.L1618:
	adrp	x24, :got:_ZN4asio6detail10call_stackINS0_15task_io_serviceENS0_27task_io_service_thread_infoEE4top_E
	add	x0, sp, 176
	str	x0, [sp, 152]
	ldr	x0, [x24, #:got_lo12:_ZN4asio6detail10call_stackINS0_15task_io_serviceENS0_27task_io_service_thread_infoEE4top_E]
	stp	xzr, xzr, [sp, 160]
	ldr	w0, [x0]
	bl	pthread_getspecific
	cbz	x0, .L1621
	ldr	x0, [x0, 8]
	cbz	x0, .L1621
	ldr	x20, [x0]
	cbz	x20, .L1621
	str	xzr, [x0]
	ldrb	w0, [x20]
	cmp	w0, 119
	bls	.L1622
	strb	w0, [x20, 120]
	b	.L1623
	.p2align 2,,3
.L1622:
	mov	x0, x20
	bl	_ZdlPv
.L1621:
	mov	x0, 121
.LEHB49:
	bl	_Znwm
.LEHE49:
	mov	x20, x0
	mov	w1, 120
	strb	w1, [x0, 120]
.L1623:
	ldrb	w3, [x26, 4]
	adrp	x0, _ZN4asio6detail25reactive_socket_accept_opINS_12basic_socketINS_2ip3tcpENS_21stream_socket_serviceIS4_EEEES4_NS0_15wrapped_handlerINS_10io_service6strandEZN7asiopal9TCPServer11StartAcceptEvEUlSt10error_codeE_NS0_26is_continuation_if_runningEEEE11do_completeEPNS0_15task_io_serviceEPNS0_25task_io_service_operationERKSD_m
	add	x0, x0, :lo12:_ZN4asio6detail25reactive_socket_accept_opINS_12basic_socketINS_2ip3tcpENS_21stream_socket_serviceIS4_EEEES4_NS0_15wrapped_handlerINS_10io_service6strandEZN7asiopal9TCPServer11StartAcceptEvEUlSt10error_codeE_NS0_26is_continuation_if_runningEEEE11do_completeEPNS0_15task_io_serviceEPNS0_25task_io_service_operationERKSD_m
	ldr	w28, [x21, 104]
	stp	xzr, x0, [x20]
	str	wzr, [x20, 16]
	str	wzr, [x20, 24]
	str	w3, [sp, 120]
	str	x20, [sp, 160]
	bl	_ZNSt3_V215system_categoryEv
	ldr	q0, [sp, 192]
	adrp	x1, :got:_ZN4asio6detail30reactive_socket_accept_op_baseINS_12basic_socketINS_2ip3tcpENS_21stream_socket_serviceIS4_EEEES4_E10do_performEPNS0_10reactor_opE
	ldr	w6, [x21, 120]
	mov	x26, x0
	ldr	w3, [sp, 120]
	str	q0, [x20, 104]
	dup	v0.2d, x20
	strb	w3, [x20, 60]
	ldr	x1, [x1, #:got_lo12:_ZN4asio6detail30reactive_socket_accept_op_baseINS_12basic_socketINS_2ip3tcpENS_21stream_socket_serviceIS4_EEEES4_E10do_performEPNS0_10reactor_opE]
	str	x20, [sp, 168]
	ldr	w0, [x21, 136]
	str	x1, [x20, 48]
	ldr	x1, [sp, 96]
	stp	x26, xzr, [x20, 32]
	ldp	x4, x5, [sp, 176]
	str	w28, [x20, 56]
	str	x27, [x20, 64]
	str	w6, [x20, 72]
	str	x1, [x20, 80]
	stp	x4, x5, [x20, 88]
	str	q0, [sp, 96]
	stp	xzr, xzr, [sp, 192]
	cmn	w0, #1
	bne	.L1624
	tst	x3, 3
	bne	.L1625
	cmn	w28, #1
	beq	.L1825
	bl	__errno_location
	mov	x27, x0
	mov	w3, 1
	mov	w0, w28
	add	x2, sp, 136
	mov	x1, 21537
	str	wzr, [x27]
	str	w3, [sp, 136]
	bl	ioctl
	mov	w3, w0
	adrp	x1, :got:_ZGVZN4asio15system_categoryEvE8instance
	ldr	w4, [x27]
	ldr	x27, [x1, #:got_lo12:_ZGVZN4asio15system_categoryEvE8instance]
	ldar	x0, [x27]
	adrp	x28, :got:_ZZN4asio15system_categoryEvE8instance
	tbz	x0, 0, .L1826
.L1632:
	ldr	x28, [x28, #:got_lo12:_ZZN4asio15system_categoryEvE8instance]
	str	w4, [x20, 24]
	str	x28, [x20, 32]
	tbz	w3, #31, .L1827
.L1630:
	ldr	x24, [x24, #:got_lo12:_ZN4asio6detail10call_stackINS0_15task_io_serviceENS0_27task_io_service_thread_infoEE4top_E]
	ldr	x0, [sp, 112]
	ldr	x1, [x0, 40]
	ldr	w0, [x24]
	ldr	x19, [x1, 40]
	bl	pthread_getspecific
	cbnz	x0, .L1681
	b	.L1691
	.p2align 2,,3
.L1679:
	ldr	x0, [x0, 16]
	cbz	x0, .L1691
.L1681:
	ldr	x1, [x0]
	cmp	x19, x1
	bne	.L1679
.L1823:
	ldr	x0, [x0, 8]
	cbz	x0, .L1691
	ldp	x3, x1, [x0, 16]
	add	x1, x1, 1
	str	x1, [x0, 24]
	str	xzr, [x20]
	ldr	x1, [x0, 16]
	cbz	x3, .L1695
	str	x20, [x1]
	str	x20, [x0, 16]
	b	.L1643
	.p2align 2,,3
.L1624:
	adrp	x21, :got:_ZGVZN4asio5error17get_misc_categoryEvE8instance
	ldr	x21, [x21, #:got_lo12:_ZGVZN4asio5error17get_misc_categoryEvE8instance]
	ldar	x0, [x21]
	adrp	x26, :got:_ZZN4asio5error17get_misc_categoryEvE8instance
	tbz	x0, 0, .L1828
.L1689:
	ldr	x0, [sp, 112]
	cmp	x19, 0
	ldr	x26, [x26, #:got_lo12:_ZZN4asio5error17get_misc_categoryEvE8instance]
	ldr	x1, [x0, 40]
	mov	w0, 1
	ldr	x19, [x1, 40]
	str	w0, [x20, 24]
	str	x26, [x20, 32]
	cset	w1, ne
	ldrb	w0, [x19, 40]
	orr	w0, w0, w1
	cbz	w0, .L1691
	ldr	x24, [x24, #:got_lo12:_ZN4asio6detail10call_stackINS0_15task_io_serviceENS0_27task_io_service_thread_infoEE4top_E]
	ldr	w0, [x24]
	bl	pthread_getspecific
	cbnz	x0, .L1694
	b	.L1691
	.p2align 2,,3
.L1692:
	ldr	x0, [x0, 16]
	cbz	x0, .L1691
.L1694:
	ldr	x1, [x0]
	cmp	x19, x1
	bne	.L1692
	b	.L1823
	.p2align 2,,3
.L1827:
	ldr	w28, [x21, 104]
	str	wzr, [x20, 24]
	str	x26, [x20, 32]
	ldrb	w0, [x21, 108]
	orr	w0, w0, 2
	strb	w0, [x21, 108]
.L1625:
	ldr	x0, [sp, 112]
	ldr	x26, [x21, 112]
	ldr	x27, [x0, 40]
	cbz	x26, .L1829
	add	x26, x26, 40
	mov	x0, x26
	bl	pthread_mutex_lock
	ldr	x0, [x21, 112]
	ldrb	w1, [x0, 152]
	cbnz	w1, .L1830
	ldr	x1, [x0, 104]
	cbz	x1, .L1831
.L1661:
	ldr	x1, [x0, 112]
	str	xzr, [x20]
	cbz	x1, .L1674
	str	x20, [x1]
	str	x20, [x0, 112]
.L1675:
	ldr	x1, [x27, 40]
	mov	x0, 1
	add	x1, x1, 192
	bl	__aarch64_ldadd8_acq_rel
	mov	x0, x26
	bl	pthread_mutex_unlock
	b	.L1643
.L1829:
	adrp	x19, :got:_ZGVZN4asio15system_categoryEvE8instance
	ldr	x19, [x19, #:got_lo12:_ZGVZN4asio15system_categoryEvE8instance]
	ldar	x0, [x19]
	adrp	x28, :got:_ZZN4asio15system_categoryEvE8instance
	tbz	x0, 0, .L1832
.L1636:
	ldr	x24, [x24, #:got_lo12:_ZN4asio6detail10call_stackINS0_15task_io_serviceENS0_27task_io_service_thread_infoEE4top_E]
	mov	w0, 9
	ldr	x19, [x27, 40]
	str	w0, [x20, 24]
	ldr	w0, [x24]
	ldr	x28, [x28, #:got_lo12:_ZZN4asio15system_categoryEvE8instance]
	str	x28, [x20, 32]
	bl	pthread_getspecific
	cbnz	x0, .L1641
	.p2align 3,,7
.L1691:
	add	x1, x19, 192
	add	x21, x19, 48
	mov	x0, 1
	bl	__aarch64_ldadd8_acq_rel
	mov	x0, x21
	bl	pthread_mutex_lock
	str	xzr, [x20]
	ldr	x1, [x19, 208]
	cbz	x1, .L1696
	str	x20, [x1]
	str	x20, [x19, 208]
.L1697:
	ldr	x0, [x19, 144]
	add	x20, x19, 96
	orr	x0, x0, 1
	str	x0, [x19, 144]
	cmp	x0, 1
	beq	.L1698
	mov	x0, x21
	bl	pthread_mutex_unlock
	mov	x0, x20
	bl	pthread_cond_signal
.L1643:
	ldr	x0, [x23, #:got_lo12:__libc_single_threaded]
	ldr	x19, [sp, 200]
	ldrb	w0, [x0]
	cbz	x19, .L1702
	cbz	w0, .L1703
	ldr	w0, [x19, 8]
	sub	w1, w0, #1
	str	w1, [x19, 8]
.L1704:
	cmp	w0, 1
	beq	.L1833
.L1702:
	ldr	x0, [x23, #:got_lo12:__libc_single_threaded]
	ldrb	w0, [x0]
	cbz	w0, .L1834
	ldr	w0, [x22, 8]
	sub	w1, w0, #1
	str	w1, [x22, 8]
.L1711:
	cmp	w0, 1
	beq	.L1835
.L1613:
	adrp	x0, :got:__stack_chk_guard
	ldr	x0, [x0, #:got_lo12:__stack_chk_guard]
	ldr	x2, [sp, 216]
	ldr	x1, [x0]
	subs	x2, x2, x1
	mov	x1, 0
	bne	.L1804
	ldp	x19, x20, [sp, 16]
	ldp	x21, x22, [sp, 32]
	ldp	x23, x24, [sp, 48]
	ldp	x25, x26, [sp, 64]
	ldp	x27, x28, [sp, 80]
	ldp	x29, x30, [sp], 224
	.cfi_remember_state
	.cfi_restore 30
	.cfi_restore 29
	.cfi_restore 27
	.cfi_restore 28
	.cfi_restore 25
	.cfi_restore 26
	.cfi_restore 23
	.cfi_restore 24
	.cfi_restore 21
	.cfi_restore 22
	.cfi_restore 19
	.cfi_restore 20
	.cfi_def_cfa_offset 0
	ret
	.p2align 2,,3
.L1698:
	.cfi_restore_state
	ldrb	w1, [x19, 184]
	cbnz	w1, .L1700
	ldr	x4, [x19, 152]
	cbz	x4, .L1700
	mov	w1, 9
	strb	w0, [x19, 184]
	movk	w1, 0x8000, lsl 16
	add	x0, x4, 96
	str	w1, [sp, 136]
	add	x3, sp, 136
	str	x0, [sp, 144]
	mov	w1, 3
	ldr	w2, [x4, 96]
	ldr	w0, [x4, 104]
	bl	epoll_ctl
.L1700:
	mov	x0, x21
	bl	pthread_mutex_unlock
	b	.L1643
	.p2align 2,,3
.L1824:
	mov	x1, x25
	mov	w0, 1
	bl	__aarch64_ldadd4_acq_rel
	b	.L1617
	.p2align 2,,3
.L1828:
	mov	x0, x21
	adrp	x26, :got:_ZZN4asio5error17get_misc_categoryEvE8instance
	bl	__cxa_guard_acquire
	cbz	w0, .L1689
	adrp	x0, :got:_ZN4asio5error6detail13misc_categoryD1Ev
	adrp	x2, __dso_handle
	ldr	x1, [x26, #:got_lo12:_ZZN4asio5error17get_misc_categoryEvE8instance]
	add	x2, x2, :lo12:__dso_handle
	ldr	x0, [x0, #:got_lo12:_ZN4asio5error6detail13misc_categoryD1Ev]
	bl	__cxa_atexit
	mov	x0, x21
	bl	__cxa_guard_release
	b	.L1689
	.p2align 2,,3
.L1826:
	mov	x0, x27
	stp	w3, w4, [sp, 120]
	bl	__cxa_guard_acquire
	adrp	x28, :got:_ZZN4asio15system_categoryEvE8instance
	ldp	w3, w4, [sp, 120]
	cbz	w0, .L1632
	adrp	x0, :got:_ZN4asio6detail15system_categoryD1Ev
	adrp	x2, __dso_handle
	ldr	x1, [x28, #:got_lo12:_ZZN4asio15system_categoryEvE8instance]
	add	x2, x2, :lo12:__dso_handle
	ldr	x0, [x0, #:got_lo12:_ZN4asio6detail15system_categoryD1Ev]
	stp	w3, w4, [sp, 120]
	bl	__cxa_atexit
	mov	x0, x27
	bl	__cxa_guard_release
	ldp	w3, w4, [sp, 120]
	b	.L1632
	.p2align 2,,3
.L1835:
	ldr	x1, [x22]
	mov	x0, x22
	ldr	x1, [x1, 16]
	blr	x1
	ldr	x23, [x23, #:got_lo12:__libc_single_threaded]
	ldrb	w0, [x23]
	cbz	w0, .L1714
	ldr	w0, [x22, 12]
	sub	w1, w0, #1
	str	w1, [x22, 12]
.L1715:
	cmp	w0, 1
	bne	.L1613
	adrp	x0, :got:__stack_chk_guard
	ldr	x0, [x0, #:got_lo12:__stack_chk_guard]
	ldr	x2, [sp, 216]
	ldr	x1, [x0]
	subs	x2, x2, x1
	mov	x1, 0
	bne	.L1804
	ldr	x1, [x22]
	mov	x0, x22
	ldp	x19, x20, [sp, 16]
	ldr	x1, [x1, 24]
	ldp	x21, x22, [sp, 32]
	mov	x16, x1
	ldp	x23, x24, [sp, 48]
	ldp	x25, x26, [sp, 64]
	ldp	x27, x28, [sp, 80]
	ldp	x29, x30, [sp], 224
	.cfi_remember_state
	.cfi_restore 30
	.cfi_restore 29
	.cfi_restore 27
	.cfi_restore 28
	.cfi_restore 25
	.cfi_restore 26
	.cfi_restore 23
	.cfi_restore 24
	.cfi_restore 21
	.cfi_restore 22
	.cfi_restore 19
	.cfi_restore 20
	.cfi_def_cfa_offset 0
	br	x16
	.p2align 2,,3
.L1833:
	.cfi_restore_state
	ldr	x1, [x19]
	mov	x0, x19
	ldr	x1, [x1, 16]
	blr	x1
	ldr	x0, [x23, #:got_lo12:__libc_single_threaded]
	ldrb	w0, [x0]
	cbz	w0, .L1706
	ldr	w0, [x19, 12]
	sub	w1, w0, #1
	str	w1, [x19, 12]
.L1707:
	cmp	w0, 1
	bne	.L1702
	ldr	x1, [x19]
	mov	x0, x19
	ldr	x1, [x1, 24]
	blr	x1
	b	.L1702
	.p2align 2,,3
.L1834:
	mov	x1, x25
	mov	w0, -1
	bl	__aarch64_ldadd4_acq_rel
	b	.L1711
	.p2align 2,,3
.L1703:
	add	x1, x19, 8
	mov	w0, -1
	bl	__aarch64_ldadd4_acq_rel
	b	.L1704
	.p2align 2,,3
.L1696:
	ldr	q0, [sp, 96]
	str	q0, [x19, 200]
	b	.L1697
	.p2align 2,,3
.L1695:
	ldr	q0, [sp, 96]
	str	q0, [x0, 8]
	b	.L1643
.L1714:
	add	x1, x22, 12
	mov	w0, -1
	bl	__aarch64_ldadd4_acq_rel
	b	.L1715
.L1706:
	add	x1, x19, 12
	mov	w0, -1
	bl	__aarch64_ldadd4_acq_rel
	b	.L1707
.L1674:
	ldr	q0, [sp, 96]
	str	q0, [x0, 104]
	b	.L1675
.L1831:
	cbz	x19, .L1662
	ldr	x1, [x0, 136]
	cbnz	x1, .L1662
	ldr	x1, [x20, 48]
	mov	x0, x20
.LEHB50:
	blr	x1
.LEHE50:
	tst	w0, 255
	beq	.L1801
	mov	x0, x26
	bl	pthread_mutex_unlock
	ldr	x24, [x24, #:got_lo12:_ZN4asio6detail10call_stackINS0_15task_io_serviceENS0_27task_io_service_thread_infoEE4top_E]
	ldr	x19, [x27, 40]
	ldr	w0, [x24]
	bl	pthread_getspecific
	cbnz	x0, .L1667
	b	.L1691
	.p2align 2,,3
.L1665:
	ldr	x0, [x0, 16]
	cbz	x0, .L1691
.L1667:
	ldr	x1, [x0]
	cmp	x19, x1
	bne	.L1665
	b	.L1823
	.p2align 2,,3
.L1639:
	ldr	x0, [x0, 16]
	cbz	x0, .L1691
.L1641:
	ldr	x1, [x0]
	cmp	x19, x1
	bne	.L1639
	b	.L1823
.L1830:
	ldr	x24, [x24, #:got_lo12:_ZN4asio6detail10call_stackINS0_15task_io_serviceENS0_27task_io_service_thread_infoEE4top_E]
	ldr	x19, [x27, 40]
	ldr	w0, [x24]
	bl	pthread_getspecific
	cbnz	x0, .L1653
	b	.L1650
	.p2align 2,,3
.L1651:
	ldr	x0, [x0, 16]
	cbz	x0, .L1650
.L1653:
	ldr	x1, [x0]
	cmp	x19, x1
	bne	.L1651
	ldr	x0, [x0, 8]
	cbz	x0, .L1650
	ldp	x3, x1, [x0, 16]
	add	x1, x1, 1
	str	x1, [x0, 24]
	str	xzr, [x20]
	ldr	x1, [x0, 16]
	cbz	x3, .L1654
	str	x20, [x1]
	str	x20, [x0, 16]
.L1655:
	mov	x0, x26
	bl	pthread_mutex_unlock
	b	.L1643
.L1662:
	ldr	w1, [x0, 100]
	mov	w2, w28
	str	w1, [sp, 136]
	add	x3, sp, 136
	str	x0, [sp, 144]
	mov	w1, 3
	ldr	w0, [x27, 104]
	bl	epoll_ctl
.L1801:
	ldr	x0, [x21, 112]
	b	.L1661
.L1832:
	mov	x0, x19
	adrp	x28, :got:_ZZN4asio15system_categoryEvE8instance
	bl	__cxa_guard_acquire
	cbz	w0, .L1636
	adrp	x0, :got:_ZN4asio6detail15system_categoryD1Ev
	adrp	x2, __dso_handle
	ldr	x1, [x28, #:got_lo12:_ZZN4asio15system_categoryEvE8instance]
	add	x2, x2, :lo12:__dso_handle
	ldr	x0, [x0, #:got_lo12:_ZN4asio6detail15system_categoryD1Ev]
	bl	__cxa_atexit
	mov	x0, x19
	bl	__cxa_guard_release
	b	.L1636
.L1825:
	adrp	x19, :got:_ZGVZN4asio15system_categoryEvE8instance
	ldr	x19, [x19, #:got_lo12:_ZGVZN4asio15system_categoryEvE8instance]
	ldar	x0, [x19]
	adrp	x28, :got:_ZZN4asio15system_categoryEvE8instance
	tbz	x0, 0, .L1836
.L1628:
	ldr	x28, [x28, #:got_lo12:_ZZN4asio15system_categoryEvE8instance]
	mov	w0, 9
	str	w0, [x20, 24]
	str	x28, [x20, 32]
	b	.L1630
.L1650:
	add	x1, x19, 192
	add	x21, x19, 48
	mov	x0, 1
	bl	__aarch64_ldadd8_acq_rel
	mov	x0, x21
	bl	pthread_mutex_lock
	ldr	x1, [x19, 208]
	str	xzr, [x20]
	cbz	x1, .L1656
	str	x20, [x1]
	str	x20, [x19, 208]
.L1657:
	ldr	x0, [x19, 144]
	add	x20, x19, 96
	orr	x0, x0, 1
	str	x0, [x19, 144]
	cmp	x0, 1
	beq	.L1658
	mov	x0, x21
	bl	pthread_mutex_unlock
	mov	x0, x20
	bl	pthread_cond_signal
	b	.L1655
.L1658:
	ldrb	w1, [x19, 184]
	cbnz	w1, .L1660
	ldr	x4, [x19, 152]
	cbz	x4, .L1660
	mov	w1, 9
	strb	w0, [x19, 184]
	ldr	w2, [x4, 96]
	add	x0, x4, 96
	movk	w1, 0x8000, lsl 16
	str	w1, [sp, 136]
	str	x0, [sp, 144]
	add	x3, sp, 136
	mov	w1, 3
	ldr	w0, [x4, 104]
	bl	epoll_ctl
.L1660:
	mov	x0, x21
	bl	pthread_mutex_unlock
	b	.L1655
.L1836:
	mov	x0, x19
	adrp	x28, :got:_ZZN4asio15system_categoryEvE8instance
	bl	__cxa_guard_acquire
	cbz	w0, .L1628
	adrp	x0, :got:_ZN4asio6detail15system_categoryD1Ev
	adrp	x2, __dso_handle
	ldr	x1, [x28, #:got_lo12:_ZZN4asio15system_categoryEvE8instance]
	add	x2, x2, :lo12:__dso_handle
	ldr	x0, [x0, #:got_lo12:_ZN4asio6detail15system_categoryD1Ev]
	bl	__cxa_atexit
	mov	x0, x19
	bl	__cxa_guard_release
	b	.L1628
.L1654:
	ldr	q0, [sp, 96]
	str	q0, [x0, 8]
	b	.L1655
.L1656:
	ldr	q0, [sp, 96]
	str	q0, [x19, 200]
	b	.L1657
.L1804:
	bl	__stack_chk_fail
.L1721:
	mov	x19, x0
	b	.L1677
.L1614:
	mov	x0, 8
	bl	__cxa_allocate_exception
	adrp	x3, :got:_ZTVSt12bad_weak_ptr
	adrp	x2, :got:_ZNSt12bad_weak_ptrD1Ev
	adrp	x1, :got:_ZTISt12bad_weak_ptr
	ldr	x3, [x3, #:got_lo12:_ZTVSt12bad_weak_ptr]
	ldr	x2, [x2, #:got_lo12:_ZNSt12bad_weak_ptrD1Ev]
	add	x3, x3, 16
	ldr	x1, [x1, #:got_lo12:_ZTISt12bad_weak_ptr]
	str	x3, [x0]
.LEHB51:
	bl	__cxa_throw
.L1722:
	mov	x19, x0
	mov	x0, x26
	bl	pthread_mutex_unlock
	add	x0, sp, 152
	bl	_ZN4asio6detail25reactive_socket_accept_opINS_12basic_socketINS_2ip3tcpENS_21stream_socket_serviceIS4_EEEES4_NS0_15wrapped_handlerINS_10io_service6strandEZN7asiopal9TCPServer11StartAcceptEvEUlSt10error_codeE_NS0_26is_continuation_if_runningEEEE3ptr5resetEv
.L1677:
	ldr	x0, [sp, 200]
	cbz	x0, .L1710
	bl	_ZNSt16_Sp_counted_baseILN9__gnu_cxx12_Lock_policyE2EE10_M_releaseEv
.L1710:
	mov	x0, x22
	bl	_ZNSt16_Sp_counted_baseILN9__gnu_cxx12_Lock_policyE2EE10_M_releaseEv
	mov	x0, x19
	bl	_Unwind_Resume
.LEHE51:
	.cfi_endproc
.LFE7069:
	.section	.gcc_except_table
.LLSDA7069:
	.byte	0xff
	.byte	0xff
	.byte	0x1
	.uleb128 .LLSDACSE7069-.LLSDACSB7069
.LLSDACSB7069:
	.uleb128 .LEHB49-.LFB7069
	.uleb128 .LEHE49-.LEHB49
	.uleb128 .L1721-.LFB7069
	.uleb128 0
	.uleb128 .LEHB50-.LFB7069
	.uleb128 .LEHE50-.LEHB50
	.uleb128 .L1722-.LFB7069
	.uleb128 0
	.uleb128 .LEHB51-.LFB7069
	.uleb128 .LEHE51-.LEHB51
	.uleb128 0
	.uleb128 0
.LLSDACSE7069:
	.text
	.size	_ZN7asiopal9TCPServer11StartAcceptEv, .-_ZN7asiopal9TCPServer11StartAcceptEv
	.section	.rodata.str1.8
	.align	3
.LC30:
	.string	"/home/jaehyun/OpenPLC_v3/utils/dnp3_src/cpp/libs/src/asiopal/TCPServer.cpp(109)"
	.align	3
.LC31:
	.string	"Accepted connection from: %s"
	.align	3
.LC32:
	.string	"/home/jaehyun/OpenPLC_v3/utils/dnp3_src/cpp/libs/src/asiopal/TCPServer.cpp(118)"
	.text
	.align	2
	.p2align 4,,11
	.type	_ZZN7asiopal9TCPServer11StartAcceptEvENKUlSt10error_codeE_clES1_.isra.0, %function
_ZZN7asiopal9TCPServer11StartAcceptEvENKUlSt10error_codeE_clES1_.isra.0:
.LFB9579:
	.cfi_startproc
	.cfi_personality 0x9b,DW.ref.__gxx_personality_v0
	.cfi_lsda 0x1b,.LLSDA9579
	stp	x29, x30, [sp, -384]!
	.cfi_def_cfa_offset 384
	.cfi_offset 29, -384
	.cfi_offset 30, -376
	adrp	x3, :got:__stack_chk_guard
	mov	x29, sp
	ldr	x3, [x3, #:got_lo12:__stack_chk_guard]
	stp	x19, x20, [sp, 16]
	.cfi_offset 19, -368
	.cfi_offset 20, -360
	mov	x20, x0
	stp	x21, x22, [sp, 32]
	.cfi_offset 21, -352
	.cfi_offset 22, -344
	mov	w21, w1
	ldr	x4, [x0]
	ldr	x0, [x3]
	str	x0, [sp, 376]
	mov	x0, 0
	add	x0, x4, 24
	cbz	w1, .L1838
	add	x22, sp, 136
	mov	x19, x2
	mov	x1, x22
	stp	x23, x24, [sp, 48]
	.cfi_offset 24, -328
	.cfi_offset 23, -336
	mov	w23, 8
	str	w23, [sp, 136]
.LEHB52:
	bl	_ZNK7openpal6Logger9IsEnabledERKNS_10LogFiltersE
	tst	w0, 255
	beq	.L1839
	ldr	x0, [x19]
	mov	w1, w21
	ldr	x2, [x20]
	add	x8, sp, 200
	ldr	x3, [x0, 32]
	str	w23, [sp, 136]
	mov	x0, x19
	add	x19, x2, 24
	blr	x3
.LEHE52:
	ldr	x3, [sp, 200]
	adrp	x2, .LC30
	mov	x0, x19
	mov	x1, x22
	add	x2, x2, :lo12:.LC30
.LEHB53:
	bl	_ZN7openpal6Logger3LogERKNS_10LogFiltersEPKcS5_
.LEHE53:
	ldr	x0, [sp, 200]
	add	x1, sp, 216
	cmp	x0, x1
	beq	.L1839
	ldr	x1, [sp, 216]
	add	x1, x1, 1
	bl	_ZdlPvm
.L1839:
	adrp	x1, :got:__stack_chk_guard
	ldr	x0, [x20]
	ldr	x1, [x1, #:got_lo12:__stack_chk_guard]
	ldr	x3, [sp, 376]
	ldr	x2, [x1]
	subs	x3, x3, x2
	mov	x2, 0
	bne	.L2045
	ldr	x1, [x0]
	ldp	x19, x20, [sp, 16]
	ldr	x1, [x1, 24]
	ldp	x21, x22, [sp, 32]
	mov	x16, x1
	ldp	x23, x24, [sp, 48]
	.cfi_restore 24
	.cfi_restore 23
	ldp	x29, x30, [sp], 384
	.cfi_restore 30
	.cfi_restore 29
	.cfi_restore 21
	.cfi_restore 22
	.cfi_restore 19
	.cfi_restore 20
	.cfi_def_cfa_offset 0
.LEHB54:
	br	x16
	.p2align 2,,3
.L1838:
	.cfi_def_cfa_offset 384
	.cfi_offset 19, -368
	.cfi_offset 20, -360
	.cfi_offset 21, -352
	.cfi_offset 22, -344
	.cfi_offset 29, -384
	.cfi_offset 30, -376
	ldr	x22, [x4, 200]
	add	x19, sp, 136
	mov	x1, x19
	add	x2, x22, 1
	str	x2, [x4, 200]
	mov	w2, 8
	str	w2, [sp, 136]
	bl	_ZNK7openpal6Logger9IsEnabledERKNS_10LogFiltersE
.LEHE54:
	tst	w0, 255
	bne	.L2054
.L1842:
	ldr	x5, [x20]
	mov	w8, -1
	mov	w7, 2
	mov	x1, x22
	mov	x4, x5
	add	x2, x5, 56
	ldr	w10, [x5, 136]
	mov	x0, x5
	mov	x3, x19
	ldr	x6, [x4], 136
	ldr	x9, [x4, 24]
	ldr	x6, [x6, 32]
	str	w10, [sp, 136]
	str	x9, [sp, 160]
	str	w8, [x5, 136]
	ldrb	w8, [x5, 140]
	strb	w8, [sp, 140]
	strb	wzr, [x5, 140]
	ldr	x8, [x5, 144]
	str	x8, [sp, 144]
	str	xzr, [x5, 144]
	ldr	w5, [x4, 16]
	str	w5, [sp, 152]
	str	w7, [x4, 16]
.LEHB55:
	blr	x6
.LEHE55:
	ldr	w19, [sp, 136]
	cmn	w19, #1
	beq	.L1881
	ldr	x22, [sp, 144]
	stp	x23, x24, [sp, 48]
	.cfi_offset 24, -328
	.cfi_offset 23, -336
	stp	x25, x26, [sp, 64]
	.cfi_offset 26, -312
	.cfi_offset 25, -320
	cbz	x22, .L1911
	ldr	x1, [sp, 160]
	add	x22, x22, 40
	ldrb	w23, [sp, 140]
	mov	x0, x22
	ldr	x1, [x1, 40]
	str	x1, [sp, 96]
	bl	pthread_mutex_lock
	ldr	x4, [sp, 144]
	ldrb	w0, [x4, 152]
	cbz	w0, .L2055
	mov	x0, x22
	bl	pthread_mutex_unlock
	ldr	w19, [sp, 136]
.L1905:
	cmn	w19, #1
	beq	.L2042
.L1911:
	ldrb	w22, [sp, 140]
	bl	__errno_location
	adrp	x23, :got:_ZGVZN4asio15system_categoryEvE8instance
	mov	x21, x0
	tbnz	x22, 3, .L2056
.L1913:
	str	wzr, [x21]
	mov	w0, w19
	bl	close
	ldr	w25, [x21]
	ldr	x24, [x23, #:got_lo12:_ZGVZN4asio15system_categoryEvE8instance]
	mov	w22, w0
	ldar	x0, [x24]
	tbz	x0, 0, .L2057
.L1918:
	cbnz	w22, .L2058
.L2042:
	ldp	x23, x24, [sp, 48]
	.cfi_restore 24
	.cfi_restore 23
	ldp	x25, x26, [sp, 64]
	.cfi_restore 26
	.cfi_restore 25
.L1881:
	adrp	x0, :got:__stack_chk_guard
	ldr	x0, [x0, #:got_lo12:__stack_chk_guard]
	ldr	x2, [sp, 376]
	ldr	x1, [x0]
	subs	x2, x2, x1
	mov	x1, 0
	bne	.L2059
	ldr	x0, [x20]
	ldp	x19, x20, [sp, 16]
	ldp	x21, x22, [sp, 32]
	ldp	x29, x30, [sp], 384
	.cfi_remember_state
	.cfi_restore 30
	.cfi_restore 29
	.cfi_restore 21
	.cfi_restore 22
	.cfi_restore 19
	.cfi_restore 20
	.cfi_def_cfa_offset 0
.LEHB56:
	b	_ZN7asiopal9TCPServer11StartAcceptEv
	.p2align 2,,3
.L2054:
	.cfi_restore_state
	stp	x23, x24, [sp, 48]
	.cfi_offset 24, -328
	.cfi_offset 23, -336
	stp	x25, x26, [sp, 64]
	.cfi_offset 26, -312
	.cfi_offset 25, -320
	stp	x27, x28, [sp, 80]
	.cfi_offset 28, -296
	.cfi_offset 27, -304
	bl	_ZNSt3_V215system_categoryEv
	mov	x28, x0
	bl	__errno_location
	mov	x24, x0
	ldr	x26, [x20]
	add	x1, x26, 168
	ldrh	w0, [x26, 168]
	cmp	w0, 2
	beq	.L2060
	ldr	w27, [x1, 24]
	adrp	x0, .LC27
	ldp	x4, x5, [x26, 176]
	add	x1, sp, 176
	ldr	d0, [x0, #:lo12:.LC27]
	uxtw	x0, w27
	mov	x6, x0
	str	wzr, [x24]
	add	x25, sp, 256
	adrp	x23, :got:_ZGVZN4asio15system_categoryEvE8instance
	mov	x2, x25
	mov	w3, 63
	mov	w0, 10
	str	x6, [sp, 96]
	str	wzr, [sp, 136]
	str	x28, [sp, 144]
	str	d0, [sp, 168]
	stp	x4, x5, [sp, 176]
	str	x6, [sp, 192]
	bl	inet_ntop
	ldr	w6, [x24]
	mov	x28, x0
	ldr	x24, [x23, #:got_lo12:_ZGVZN4asio15system_categoryEvE8instance]
	ldar	x1, [x24]
	adrp	x26, :got:_ZZN4asio15system_categoryEvE8instance
	tbz	x1, 0, .L2061
.L1847:
	ldr	x24, [x26, #:got_lo12:_ZZN4asio15system_categoryEvE8instance]
	str	w6, [sp, 136]
	str	x24, [sp, 144]
	cbz	x28, .L2062
	ldr	x0, [sp, 96]
	cbz	x0, .L1859
	ldrb	w0, [sp, 176]
	mov	x2, 37
	mov	x3, 0
	stp	x2, x3, [sp, 232]
	strb	wzr, [sp, 248]
	cmp	w0, 254
	beq	.L2063
	cmp	w0, 255
	bne	.L2043
	ldrb	w0, [sp, 177]
	add	x23, sp, 233
	and	w0, w0, 15
	cmp	w0, 2
	beq	.L1856
.L1858:
	ldr	x4, [sp, 96]
	mov	x0, x23
	adrp	x3, .LC26
	mov	x2, 16
	add	x3, x3, :lo12:.LC26
	mov	w1, 1
	str	w6, [sp, 104]
	bl	__sprintf_chk
	ldr	w6, [sp, 104]
.L1857:
	add	x1, sp, 232
	mov	x0, x25
	mov	x2, 63
	str	w6, [sp, 96]
	bl	__strcat_chk
	ldr	w6, [sp, 96]
.L1859:
	add	x24, sp, 216
	mov	x0, x28
	str	w6, [sp, 96]
	str	x24, [sp, 200]
	bl	strlen
	mov	x23, x0
	str	x23, [sp, 120]
	ldr	w6, [sp, 96]
	add	x0, sp, 200
	cmp	x23, 15
	bhi	.L2064
	cmp	x23, 1
	bne	.L1861
	ldrb	w1, [x28]
	mov	x0, x24
	strb	w1, [sp, 216]
.L1862:
	str	x23, [sp, 208]
	strb	wzr, [x0, x23]
	cbnz	w6, .L1854
.L1864:
	ldr	x5, [sp, 200]
	mov	x3, 120
	mov	x0, x25
	mov	x1, x3
	adrp	x4, .LC31
	mov	w2, 1
	add	x4, x4, :lo12:.LC31
	bl	__snprintf_chk
	ldr	x0, [sp, 200]
	cmp	x0, x24
	beq	.L1880
	ldr	x1, [sp, 216]
	add	x1, x1, 1
	bl	_ZdlPvm
.L1880:
	ldr	x0, [x20]
	mov	w4, 8
	mov	x3, x25
	mov	x1, x19
	add	x0, x0, 24
	adrp	x2, .LC32
	add	x2, x2, :lo12:.LC32
	str	w4, [sp, 136]
	bl	_ZN7openpal6Logger3LogERKNS_10LogFiltersEPKcS5_
.LEHE56:
	ldp	x23, x24, [sp, 48]
	.cfi_restore 24
	.cfi_restore 23
	ldp	x25, x26, [sp, 64]
	.cfi_restore 26
	.cfi_restore 25
	ldp	x27, x28, [sp, 80]
	.cfi_restore 28
	.cfi_restore 27
	b	.L1842
	.p2align 2,,3
.L2057:
	.cfi_offset 23, -336
	.cfi_offset 24, -328
	.cfi_offset 25, -320
	.cfi_offset 26, -312
	mov	x0, x24
	bl	__cxa_guard_acquire
	cbz	w0, .L1918
	adrp	x1, :got:_ZZN4asio15system_categoryEvE8instance
	adrp	x0, :got:_ZN4asio6detail15system_categoryD1Ev
	adrp	x2, __dso_handle
	add	x2, x2, :lo12:__dso_handle
	ldr	x1, [x1, #:got_lo12:_ZZN4asio15system_categoryEvE8instance]
	ldr	x0, [x0, #:got_lo12:_ZN4asio6detail15system_categoryD1Ev]
	bl	__cxa_atexit
	mov	x0, x24
	bl	__cxa_guard_release
	b	.L1918
	.p2align 2,,3
.L2060:
	.cfi_offset 27, -304
	.cfi_offset 28, -296
	ldr	w4, [x1, 4]
	adrp	x23, :got:_ZGVZN4asio15system_categoryEvE8instance
	str	wzr, [x24]
	add	x25, sp, 256
	mov	x2, x25
	add	x1, sp, 172
	mov	w3, 16
	str	wzr, [sp, 136]
	str	x28, [sp, 144]
	stp	wzr, w4, [sp, 168]
	stp	xzr, xzr, [sp, 176]
	str	xzr, [sp, 192]
	bl	inet_ntop
	ldr	w27, [x24]
	mov	x28, x0
	ldr	x24, [x23, #:got_lo12:_ZGVZN4asio15system_categoryEvE8instance]
	ldar	x0, [x24]
	adrp	x26, :got:_ZZN4asio15system_categoryEvE8instance
	tbz	x0, 0, .L2065
.L1845:
	ldr	x24, [x26, #:got_lo12:_ZZN4asio15system_categoryEvE8instance]
	str	w27, [sp, 136]
	str	x24, [sp, 144]
	cbz	x28, .L2066
	add	x24, sp, 216
	mov	x0, x28
	str	x24, [sp, 200]
	bl	strlen
	str	x0, [sp, 120]
	add	x1, sp, 200
	mov	x23, x0
	cmp	x0, 15
	bhi	.L2067
	cmp	x23, 1
	bne	.L1875
	ldrb	w1, [x28]
	mov	x0, x24
	strb	w1, [sp, 216]
.L1876:
	str	x23, [sp, 208]
	strb	wzr, [x0, x23]
	cbz	w27, .L1864
.L1873:
	mov	x0, x19
.LEHB57:
	bl	_ZN4asio6detail14do_throw_errorERKSt10error_code
.LEHE57:
	.p2align 2,,3
.L2055:
	.cfi_restore 27
	.cfi_restore 28
	stp	x27, x28, [sp, 80]
	.cfi_offset 28, -296
	.cfi_offset 27, -304
	tbnz	x23, 6, .L2068
.L1884:
	adrp	x28, :got:_ZGVZN4asio15system_categoryEvE8instance
	adrp	x26, __dso_handle
	mov	x27, 0
	add	x0, x26, :lo12:__dso_handle
	ldr	x28, [x28, #:got_lo12:_ZGVZN4asio15system_categoryEvE8instance]
	mov	x24, 0
	str	x0, [sp, 104]
.L1885:
	add	x0, x4, w21, sxtw 4
	sxtw	x25, w21
	ldr	x19, [x0, 104]
	cbz	x19, .L1943
	adrp	x23, :got:_ZN4asio6detail15system_categoryD1Ev
	adrp	x26, :got:_ZZN4asio15system_categoryEvE8instance
	ldr	x23, [x23, #:got_lo12:_ZN4asio6detail15system_categoryD1Ev]
	ldar	x0, [x28]
	tbz	x0, 0, .L2069
	.p2align 3,,7
.L1887:
	ldr	x4, [sp, 144]
	mov	w0, 125
	str	w0, [x19, 24]
	ldr	x2, [x26, #:got_lo12:_ZZN4asio15system_categoryEvE8instance]
	add	x3, x4, x25, lsl 4
	str	x2, [x19, 32]
	ldr	x0, [x3, 104]
	cbz	x0, .L1889
.L2072:
	ldr	x1, [x0]
	str	x1, [x3, 104]
	cbz	x1, .L2070
	str	xzr, [x0]
	str	xzr, [x19]
	cbz	x27, .L2071
.L1938:
	str	x19, [x27]
	cbz	x1, .L1891
.L1892:
	mov	x27, x19
	mov	x19, x1
	ldar	x0, [x28]
	tbnz	x0, 0, .L1887
.L2069:
	mov	x0, x28
	bl	__cxa_guard_acquire
	cbz	w0, .L1887
	ldr	x1, [x26, #:got_lo12:_ZZN4asio15system_categoryEvE8instance]
	mov	x0, x23
	ldr	x2, [sp, 104]
	bl	__cxa_atexit
	mov	x0, x28
	bl	__cxa_guard_release
	ldr	x4, [sp, 144]
	mov	w0, 125
	str	w0, [x19, 24]
	ldr	x2, [x26, #:got_lo12:_ZZN4asio15system_categoryEvE8instance]
	add	x3, x4, x25, lsl 4
	str	x2, [x19, 32]
	ldr	x0, [x3, 104]
	cbnz	x0, .L2072
	.p2align 3,,7
.L1889:
	str	xzr, [x19]
	cbz	x27, .L1944
	str	x19, [x27]
.L1891:
	add	w21, w21, 1
	cmp	w21, 3
	beq	.L1893
	mov	x27, x19
	b	.L1885
	.p2align 2,,3
.L2070:
	str	xzr, [x3, 112]
	str	xzr, [x0]
	str	xzr, [x19]
	cbnz	x27, .L1938
	.p2align 3,,7
.L1944:
	mov	x24, x19
	b	.L1891
	.p2align 2,,3
.L2071:
	mov	x24, x19
	b	.L1892
	.p2align 2,,3
.L1893:
	ldr	x23, [sp, 96]
	mov	w1, 1
	mov	w0, -1
	str	w0, [x4, 96]
	strb	w1, [x4, 152]
	mov	x0, x22
	add	x22, x23, 128
	bl	pthread_mutex_unlock
	mov	x0, x22
	ldr	x21, [sp, 144]
	bl	pthread_mutex_lock
	ldr	x0, [x23, 176]
	cmp	x21, x0
	beq	.L2073
.L1895:
	ldr	x0, [x21, 32]
	cbz	x0, .L1896
	ldr	x1, [x21, 24]
	str	x1, [x0, 24]
.L1896:
	ldr	x0, [x21, 24]
	cbz	x0, .L1897
	ldr	x1, [x21, 32]
	str	x1, [x0, 32]
.L1897:
	ldr	x23, [sp, 96]
	mov	x0, x22
	ldr	x2, [x23, 184]
	stp	x2, xzr, [x21, 24]
	str	x21, [x23, 184]
	bl	pthread_mutex_unlock
	str	xzr, [sp, 144]
	cbz	x24, .L1898
	ldr	x21, [x23, 40]
	ldrb	w0, [x21, 40]
	cbnz	w0, .L2074
.L1899:
	add	x23, x21, 48
	mov	x0, x23
	bl	pthread_mutex_lock
	ldr	x1, [x21, 208]
	add	x0, x21, 200
	cbz	x1, .L1906
	str	x24, [x1]
.L1907:
	str	x19, [x0, 8]
	add	x22, x21, 96
	ldr	x0, [x21, 144]
	orr	x0, x0, 1
	str	x0, [x21, 144]
	cmp	x0, 1
	beq	.L1908
	mov	x0, x23
	bl	pthread_mutex_unlock
	mov	x0, x22
	bl	pthread_cond_signal
.L1898:
	ldr	w19, [sp, 136]
	ldp	x27, x28, [sp, 80]
	.cfi_restore 28
	.cfi_restore 27
	b	.L1905
	.p2align 2,,3
.L2058:
	ldr	x22, [x23, #:got_lo12:_ZGVZN4asio15system_categoryEvE8instance]
	ldar	x0, [x22]
	tbz	x0, 0, .L2075
.L1922:
	cmp	w25, 11
	beq	.L1924
.L2051:
	ldr	x23, [x23, #:got_lo12:_ZGVZN4asio15system_categoryEvE8instance]
	ldar	x0, [x23]
	tbnz	x0, 0, .L2042
	mov	x0, x23
	bl	__cxa_guard_acquire
	cbz	w0, .L2042
	adrp	x1, :got:_ZZN4asio15system_categoryEvE8instance
	adrp	x0, :got:_ZN4asio6detail15system_categoryD1Ev
	adrp	x2, __dso_handle
	add	x2, x2, :lo12:__dso_handle
	ldr	x1, [x1, #:got_lo12:_ZZN4asio15system_categoryEvE8instance]
	ldr	x0, [x0, #:got_lo12:_ZN4asio6detail15system_categoryD1Ev]
	bl	__cxa_atexit
	mov	x0, x23
	bl	__cxa_guard_release
	ldp	x23, x24, [sp, 48]
	.cfi_remember_state
	.cfi_restore 24
	.cfi_restore 23
	ldp	x25, x26, [sp, 64]
	.cfi_restore 26
	.cfi_restore 25
	b	.L1881
	.p2align 2,,3
.L2056:
	.cfi_restore_state
	str	wzr, [x21]
	orr	w22, w22, 8
	add	x3, sp, 120
	mov	w0, w19
	mov	w4, 8
	mov	w2, 13
	mov	w1, 1
	str	xzr, [sp, 120]
	strb	w22, [sp, 140]
	bl	setsockopt
	ldr	x22, [x23, #:got_lo12:_ZGVZN4asio15system_categoryEvE8instance]
	ldar	x0, [x22]
	tbnz	x0, 0, .L1913
	mov	x0, x22
	bl	__cxa_guard_acquire
	cbz	w0, .L1913
	adrp	x1, :got:_ZZN4asio15system_categoryEvE8instance
	adrp	x0, :got:_ZN4asio6detail15system_categoryD1Ev
	adrp	x2, __dso_handle
	add	x2, x2, :lo12:__dso_handle
	ldr	x1, [x1, #:got_lo12:_ZZN4asio15system_categoryEvE8instance]
	ldr	x0, [x0, #:got_lo12:_ZN4asio6detail15system_categoryD1Ev]
	bl	__cxa_atexit
	mov	x0, x22
	bl	__cxa_guard_release
	b	.L1913
	.p2align 2,,3
.L2074:
	.cfi_offset 27, -304
	.cfi_offset 28, -296
	adrp	x0, :got:_ZN4asio6detail10call_stackINS0_15task_io_serviceENS0_27task_io_service_thread_infoEE4top_E
	ldr	x0, [x0, #:got_lo12:_ZN4asio6detail10call_stackINS0_15task_io_serviceENS0_27task_io_service_thread_infoEE4top_E]
	ldr	w0, [x0]
	bl	pthread_getspecific
	cbnz	x0, .L1902
	b	.L1899
	.p2align 2,,3
.L1900:
	ldr	x0, [x0, 16]
	cbz	x0, .L1899
.L1902:
	ldr	x1, [x0]
	cmp	x21, x1
	bne	.L1900
	ldr	x0, [x0, 8]
	cbz	x0, .L1899
	ldr	x2, [x0, 16]
	add	x1, x0, 8
	cbz	x2, .L1903
	str	x24, [x2]
	str	x19, [x1, 8]
	b	.L1898
.L2067:
	mov	x0, x1
	mov	x2, 0
	add	x1, sp, 120
.LEHB58:
	bl	_ZNSt7__cxx1112basic_stringIcSt11char_traitsIcESaIcEE9_M_createERmm
.LEHE58:
	ldr	x1, [sp, 120]
	str	x0, [sp, 200]
	str	x1, [sp, 216]
.L1874:
	mov	x2, x23
	mov	x1, x28
	bl	memcpy
	ldr	x23, [sp, 120]
	ldr	x0, [sp, 200]
	b	.L1876
.L1924:
	.cfi_restore 27
	.cfi_restore 28
	add	x2, sp, 120
	mov	w0, w19
	mov	x1, 21537
	str	wzr, [sp, 120]
	bl	ioctl
	str	wzr, [x21]
	ldrb	w1, [sp, 140]
	mov	w0, w19
	and	w1, w1, -4
	strb	w1, [sp, 140]
	bl	close
	b	.L2051
.L2075:
	mov	x0, x22
	bl	__cxa_guard_acquire
	cbz	w0, .L1922
	adrp	x1, :got:_ZZN4asio15system_categoryEvE8instance
	adrp	x0, :got:_ZN4asio6detail15system_categoryD1Ev
	adrp	x2, __dso_handle
	add	x2, x2, :lo12:__dso_handle
	ldr	x1, [x1, #:got_lo12:_ZZN4asio15system_categoryEvE8instance]
	ldr	x0, [x0, #:got_lo12:_ZN4asio6detail15system_categoryD1Ev]
	bl	__cxa_atexit
	mov	x0, x22
	bl	__cxa_guard_release
	b	.L1922
.L2062:
	.cfi_offset 27, -304
	.cfi_offset 28, -296
	cbz	w6, .L2076
	add	x24, sp, 216
	stp	x24, xzr, [sp, 200]
	strb	wzr, [sp, 216]
.L1854:
	mov	x0, x19
.LEHB59:
	bl	_ZN4asio6detail14do_throw_errorERKSt10error_code
.LEHE59:
.L2059:
	.cfi_restore 23
	.cfi_restore 24
	.cfi_restore 25
	.cfi_restore 26
	.cfi_restore 27
	.cfi_restore 28
	stp	x23, x24, [sp, 48]
	.cfi_offset 24, -328
	.cfi_offset 23, -336
.L2045:
	stp	x25, x26, [sp, 64]
	.cfi_offset 26, -312
	.cfi_offset 25, -320
	stp	x27, x28, [sp, 80]
	.cfi_offset 28, -296
	.cfi_offset 27, -304
	bl	__stack_chk_fail
	.p2align 2,,3
.L2065:
	mov	x0, x24
	adrp	x26, :got:_ZZN4asio15system_categoryEvE8instance
	bl	__cxa_guard_acquire
	cbz	w0, .L1845
	adrp	x0, :got:_ZN4asio6detail15system_categoryD1Ev
	adrp	x2, __dso_handle
	ldr	x1, [x26, #:got_lo12:_ZZN4asio15system_categoryEvE8instance]
	add	x2, x2, :lo12:__dso_handle
	ldr	x0, [x0, #:got_lo12:_ZN4asio6detail15system_categoryD1Ev]
	bl	__cxa_atexit
	mov	x0, x24
	bl	__cxa_guard_release
	b	.L1845
	.p2align 2,,3
.L2066:
	cbz	w27, .L2077
	add	x24, sp, 216
	stp	x24, xzr, [sp, 200]
	strb	wzr, [sp, 216]
	b	.L1873
.L1908:
	ldrb	w1, [x21, 184]
	cbnz	w1, .L1910
	ldr	x4, [x21, 152]
	cbz	x4, .L1910
	mov	w1, 9
	strb	w0, [x21, 184]
	ldr	w2, [x4, 96]
	add	x0, x4, 96
	movk	w1, 0x8000, lsl 16
	str	w1, [sp, 120]
	str	x0, [sp, 128]
	add	x3, sp, 120
	mov	w1, 3
	ldr	w0, [x4, 104]
	bl	epoll_ctl
.L1910:
	mov	x0, x23
	bl	pthread_mutex_unlock
	b	.L1898
	.p2align 2,,3
.L1943:
	mov	x19, x27
	b	.L1891
	.p2align 2,,3
.L2068:
	ldr	x0, [sp, 96]
	str	wzr, [sp, 120]
	str	xzr, [sp, 128]
	mov	w2, w19
	add	x3, sp, 120
	mov	w1, 2
	ldr	w0, [x0, 104]
	bl	epoll_ctl
	ldr	x4, [sp, 144]
	b	.L1884
	.p2align 2,,3
.L2073:
	ldr	x1, [sp, 96]
	ldr	x0, [x21, 24]
	str	x0, [x1, 176]
	b	.L1895
.L1875:
	mov	x0, x24
	cbz	x23, .L1876
	b	.L1874
	.p2align 2,,3
.L2061:
	mov	x0, x24
	str	w6, [sp, 104]
	bl	__cxa_guard_acquire
	adrp	x26, :got:_ZZN4asio15system_categoryEvE8instance
	ldr	w6, [sp, 104]
	cbz	w0, .L1847
	adrp	x0, :got:_ZN4asio6detail15system_categoryD1Ev
	adrp	x2, __dso_handle
	ldr	x1, [x26, #:got_lo12:_ZZN4asio15system_categoryEvE8instance]
	add	x2, x2, :lo12:__dso_handle
	ldr	x0, [x0, #:got_lo12:_ZN4asio6detail15system_categoryD1Ev]
	str	w6, [sp, 104]
	bl	__cxa_atexit
	mov	x0, x24
	bl	__cxa_guard_release
	ldr	w6, [sp, 104]
	b	.L1847
.L2077:
	ldr	x23, [x23, #:got_lo12:_ZGVZN4asio15system_categoryEvE8instance]
	ldar	x0, [x23]
	tbz	x0, 0, .L2078
.L1871:
	ldr	x5, [x26, #:got_lo12:_ZZN4asio15system_categoryEvE8instance]
	add	x24, sp, 216
	mov	w0, 22
	str	w0, [sp, 136]
	str	x5, [sp, 144]
	stp	x24, xzr, [sp, 200]
	strb	wzr, [sp, 216]
	b	.L1873
.L1861:
	mov	x0, x24
	cbz	x23, .L1862
.L1860:
	mov	x2, x23
	mov	x1, x28
	str	w6, [sp, 96]
	bl	memcpy
	ldr	w6, [sp, 96]
	ldr	x23, [sp, 120]
	ldr	x0, [sp, 200]
	b	.L1862
.L2064:
	add	x1, sp, 120
	mov	x2, 0
	str	w6, [sp, 96]
.LEHB60:
	bl	_ZNSt7__cxx1112basic_stringIcSt11char_traitsIcESaIcEE9_M_createERmm
.LEHE60:
	ldr	x1, [sp, 120]
	str	x0, [sp, 200]
	ldr	w6, [sp, 96]
	str	x1, [sp, 216]
	b	.L1860
.L1906:
	str	x24, [x21, 200]
	b	.L1907
.L2063:
	ldrb	w0, [sp, 177]
	and	w0, w0, 192
	cmp	w0, 128
	bne	.L2043
.L1856:
	add	x23, sp, 233
	mov	w0, w27
	mov	x1, x23
	str	w6, [sp, 104]
	bl	if_indextoname
	ldr	w6, [sp, 104]
	cbnz	x0, .L1857
	b	.L1858
.L2043:
	add	x23, sp, 233
	b	.L1858
.L2076:
	ldr	x23, [x23, #:got_lo12:_ZGVZN4asio15system_categoryEvE8instance]
	ldar	x0, [x23]
	tbz	x0, 0, .L2079
.L1852:
	ldr	x5, [x26, #:got_lo12:_ZZN4asio15system_categoryEvE8instance]
	add	x24, sp, 216
	mov	w0, 22
	str	w0, [sp, 136]
	str	x5, [sp, 144]
	stp	x24, xzr, [sp, 200]
	strb	wzr, [sp, 216]
	b	.L1854
.L1903:
	str	x24, [x0, 8]
	str	x19, [x1, 8]
	b	.L1898
.L2078:
	mov	x0, x23
	bl	__cxa_guard_acquire
	cbz	w0, .L1871
	adrp	x0, :got:_ZN4asio6detail15system_categoryD1Ev
	mov	x1, x24
	adrp	x2, __dso_handle
	add	x2, x2, :lo12:__dso_handle
	ldr	x0, [x0, #:got_lo12:_ZN4asio6detail15system_categoryD1Ev]
	bl	__cxa_atexit
	mov	x0, x23
	bl	__cxa_guard_release
	b	.L1871
.L2079:
	mov	x0, x23
	bl	__cxa_guard_acquire
	cbz	w0, .L1852
	adrp	x0, :got:_ZN4asio6detail15system_categoryD1Ev
	mov	x1, x24
	adrp	x2, __dso_handle
	add	x2, x2, :lo12:__dso_handle
	ldr	x0, [x0, #:got_lo12:_ZN4asio6detail15system_categoryD1Ev]
	bl	__cxa_atexit
	mov	x0, x23
	bl	__cxa_guard_release
	b	.L1852
.L1948:
.L2053:
	ldr	x2, [sp, 200]
	mov	x19, x0
	cmp	x2, x24
	beq	.L2046
.L2049:
	ldr	x1, [sp, 216]
	mov	x0, x2
	add	x1, x1, 1
	bl	_ZdlPvm
	b	.L2046
.L1947:
	b	.L2053
.L1945:
	.cfi_restore 23
	.cfi_restore 24
	.cfi_restore 25
	.cfi_restore 26
	.cfi_restore 27
	.cfi_restore 28
	ldr	x2, [sp, 160]
	mov	x1, x19
	mov	x19, x0
	stp	x23, x24, [sp, 48]
	.cfi_offset 24, -328
	.cfi_offset 23, -336
	add	x0, x2, 40
	stp	x25, x26, [sp, 64]
	.cfi_offset 26, -312
	.cfi_offset 25, -320
	stp	x27, x28, [sp, 80]
	.cfi_offset 28, -296
	.cfi_offset 27, -304
	bl	_ZN4asio6detail28reactive_socket_service_base7destroyERNS1_24base_implementation_typeE
.L2046:
	mov	x0, x19
.LEHB61:
	bl	_Unwind_Resume
.LEHE61:
.L1946:
	.cfi_restore 25
	.cfi_restore 26
	.cfi_restore 27
	.cfi_restore 28
	ldr	x2, [sp, 200]
	add	x1, sp, 216
	stp	x25, x26, [sp, 64]
	.cfi_offset 26, -312
	.cfi_offset 25, -320
	mov	x19, x0
	stp	x27, x28, [sp, 80]
	.cfi_offset 28, -296
	.cfi_offset 27, -304
	cmp	x2, x1
	bne	.L2049
	b	.L2046
	.cfi_endproc
.LFE9579:
	.section	.gcc_except_table
.LLSDA9579:
	.byte	0xff
	.byte	0xff
	.byte	0x1
	.uleb128 .LLSDACSE9579-.LLSDACSB9579
.LLSDACSB9579:
	.uleb128 .LEHB52-.LFB9579
	.uleb128 .LEHE52-.LEHB52
	.uleb128 0
	.uleb128 0
	.uleb128 .LEHB53-.LFB9579
	.uleb128 .LEHE53-.LEHB53
	.uleb128 .L1946-.LFB9579
	.uleb128 0
	.uleb128 .LEHB54-.LFB9579
	.uleb128 .LEHE54-.LEHB54
	.uleb128 0
	.uleb128 0
	.uleb128 .LEHB55-.LFB9579
	.uleb128 .LEHE55-.LEHB55
	.uleb128 .L1945-.LFB9579
	.uleb128 0
	.uleb128 .LEHB56-.LFB9579
	.uleb128 .LEHE56-.LEHB56
	.uleb128 0
	.uleb128 0
	.uleb128 .LEHB57-.LFB9579
	.uleb128 .LEHE57-.LEHB57
	.uleb128 .L1948-.LFB9579
	.uleb128 0
	.uleb128 .LEHB58-.LFB9579
	.uleb128 .LEHE58-.LEHB58
	.uleb128 0
	.uleb128 0
	.uleb128 .LEHB59-.LFB9579
	.uleb128 .LEHE59-.LEHB59
	.uleb128 .L1947-.LFB9579
	.uleb128 0
	.uleb128 .LEHB60-.LFB9579
	.uleb128 .LEHE60-.LEHB60
	.uleb128 0
	.uleb128 0
	.uleb128 .LEHB61-.LFB9579
	.uleb128 .LEHE61-.LEHB61
	.uleb128 0
	.uleb128 0
.LLSDACSE9579:
	.text
	.size	_ZZN7asiopal9TCPServer11StartAcceptEvENKUlSt10error_codeE_clES1_.isra.0, .-_ZZN7asiopal9TCPServer11StartAcceptEvENKUlSt10error_codeE_clES1_.isra.0
	.global	__aarch64_swp4_sync
	.align	2
	.p2align 4,,11
	.type	_ZN4asio6detail18completion_handlerINS0_7binder1IZN7asiopal9TCPServer11StartAcceptEvEUlSt10error_codeE_S5_EEE11do_completeEPNS0_15task_io_serviceEPNS0_25task_io_service_operationERKS5_m, %function
_ZN4asio6detail18completion_handlerINS0_7binder1IZN7asiopal9TCPServer11StartAcceptEvEUlSt10error_codeE_S5_EEE11do_completeEPNS0_15task_io_serviceEPNS0_25task_io_service_operationERKS5_m:
.LFB9332:
	.cfi_startproc
	.cfi_personality 0x9b,DW.ref.__gxx_personality_v0
	.cfi_lsda 0x1b,.LLSDA9332
	stp	x29, x30, [sp, -128]!
	.cfi_def_cfa_offset 128
	.cfi_offset 29, -128
	.cfi_offset 30, -120
	mov	x29, sp
	stp	x19, x20, [sp, 16]
	.cfi_offset 19, -112
	.cfi_offset 20, -104
	mov	x19, x1
	mov	x2, x19
	stp	x21, x22, [sp, 32]
	.cfi_offset 21, -96
	.cfi_offset 22, -88
	adrp	x21, :got:_ZN4asio6detail10call_stackINS0_15task_io_serviceENS0_27task_io_service_thread_infoEE4top_E
	adrp	x1, :got:__stack_chk_guard
	ldr	x3, [x21, #:got_lo12:_ZN4asio6detail10call_stackINS0_15task_io_serviceENS0_27task_io_service_thread_infoEE4top_E]
	mov	x20, x0
	ldr	q0, [x2, 24]!
	add	x22, sp, 80
	ldr	x1, [x1, #:got_lo12:__stack_chk_guard]
	ldr	w0, [x3]
	ldp	x2, x3, [x2, 16]
	ldr	x4, [x1]
	str	x4, [sp, 120]
	mov	x4, 0
	stp	x22, x19, [sp, 56]
	str	xzr, [sp, 72]
	str	q0, [sp, 80]
	stp	x2, x3, [sp, 96]
	bl	pthread_getspecific
	cbz	x0, .L2081
	ldr	x0, [x0, 8]
	cbz	x0, .L2081
	ldr	x1, [x0]
	cbz	x1, .L2132
.L2081:
	mov	x0, x19
	bl	_ZdlPv
.L2082:
	str	xzr, [sp, 64]
	cbz	x20, .L2083
	add	x19, sp, 48
	mov	w0, 1
	mov	x1, x19
	str	wzr, [sp, 48]
	bl	__aarch64_swp4_sync
	ldr	w1, [sp, 96]
	mov	x0, x22
	ldr	x2, [sp, 104]
.LEHB62:
	bl	_ZZN7asiopal9TCPServer11StartAcceptEvENKUlSt10error_codeE_clES1_.isra.0
.LEHE62:
	stlr	wzr, [x19]
.L2083:
	ldr	x19, [sp, 88]
	cbz	x19, .L2085
	adrp	x20, :got:__libc_single_threaded
	ldr	x0, [x20, #:got_lo12:__libc_single_threaded]
	ldrb	w0, [x0]
	cbz	w0, .L2086
	ldr	w0, [x19, 8]
	sub	w1, w0, #1
	str	w1, [x19, 8]
.L2087:
	cmp	w0, 1
	beq	.L2133
.L2085:
	ldr	x0, [sp, 72]
	cbz	x0, .L2091
	ldr	x19, [x0, 32]
	cbz	x19, .L2093
	adrp	x20, :got:__libc_single_threaded
	ldr	x0, [x20, #:got_lo12:__libc_single_threaded]
	ldrb	w0, [x0]
	cbz	w0, .L2094
	ldr	w0, [x19, 8]
	sub	w1, w0, #1
	str	w1, [x19, 8]
.L2095:
	cmp	w0, 1
	beq	.L2134
.L2093:
	str	xzr, [sp, 72]
.L2091:
	ldr	x19, [sp, 64]
	cbz	x19, .L2080
	ldr	x21, [x21, #:got_lo12:_ZN4asio6detail10call_stackINS0_15task_io_serviceENS0_27task_io_service_thread_infoEE4top_E]
	ldr	w0, [x21]
	bl	pthread_getspecific
	cbz	x0, .L2100
	ldr	x0, [x0, 8]
	cbz	x0, .L2100
	ldr	x1, [x0]
	cbz	x1, .L2135
.L2100:
	adrp	x0, :got:__stack_chk_guard
	ldr	x0, [x0, #:got_lo12:__stack_chk_guard]
	ldr	x2, [sp, 120]
	ldr	x1, [x0]
	subs	x2, x2, x1
	mov	x1, 0
	bne	.L2131
	mov	x0, x19
	ldp	x19, x20, [sp, 16]
	ldp	x21, x22, [sp, 32]
	ldp	x29, x30, [sp], 128
	.cfi_remember_state
	.cfi_restore 30
	.cfi_restore 29
	.cfi_restore 21
	.cfi_restore 22
	.cfi_restore 19
	.cfi_restore 20
	.cfi_def_cfa_offset 0
	b	_ZdlPv
	.p2align 2,,3
.L2135:
	.cfi_restore_state
	ldrb	w1, [x19, 56]
	strb	w1, [x19]
	str	x19, [x0]
	.p2align 3,,7
.L2080:
	adrp	x0, :got:__stack_chk_guard
	ldr	x0, [x0, #:got_lo12:__stack_chk_guard]
	ldr	x2, [sp, 120]
	ldr	x1, [x0]
	subs	x2, x2, x1
	mov	x1, 0
	bne	.L2131
	ldp	x19, x20, [sp, 16]
	ldp	x21, x22, [sp, 32]
	ldp	x29, x30, [sp], 128
	.cfi_remember_state
	.cfi_restore 30
	.cfi_restore 29
	.cfi_restore 21
	.cfi_restore 22
	.cfi_restore 19
	.cfi_restore 20
	.cfi_def_cfa_offset 0
	ret
	.p2align 2,,3
.L2134:
	.cfi_restore_state
	ldr	x1, [x19]
	mov	x0, x19
	ldr	x1, [x1, 16]
	blr	x1
	ldr	x20, [x20, #:got_lo12:__libc_single_threaded]
	ldrb	w0, [x20]
	cbz	w0, .L2097
	ldr	w0, [x19, 12]
	sub	w1, w0, #1
	str	w1, [x19, 12]
.L2098:
	cmp	w0, 1
	bne	.L2093
	ldr	x1, [x19]
	mov	x0, x19
	ldr	x1, [x1, 24]
	blr	x1
	b	.L2093
	.p2align 2,,3
.L2133:
	ldr	x1, [x19]
	mov	x0, x19
	ldr	x1, [x1, 16]
	blr	x1
	ldr	x20, [x20, #:got_lo12:__libc_single_threaded]
	ldrb	w0, [x20]
	cbz	w0, .L2089
	ldr	w0, [x19, 12]
	sub	w1, w0, #1
	str	w1, [x19, 12]
.L2090:
	cmp	w0, 1
	bne	.L2085
	ldr	x1, [x19]
	mov	x0, x19
	ldr	x1, [x1, 24]
	blr	x1
	b	.L2085
	.p2align 2,,3
.L2086:
	add	x1, x19, 8
	mov	w0, -1
	bl	__aarch64_ldadd4_acq_rel
	b	.L2087
	.p2align 2,,3
.L2094:
	add	x1, x19, 8
	mov	w0, -1
	bl	__aarch64_ldadd4_acq_rel
	b	.L2095
	.p2align 2,,3
.L2132:
	ldrb	w1, [x19, 56]
	strb	w1, [x19]
	str	x19, [x0]
	b	.L2082
	.p2align 2,,3
.L2089:
	add	x1, x19, 12
	mov	w0, -1
	bl	__aarch64_ldadd4_acq_rel
	b	.L2090
	.p2align 2,,3
.L2097:
	add	x1, x19, 12
	mov	w0, -1
	bl	__aarch64_ldadd4_acq_rel
	b	.L2098
.L2131:
	bl	__stack_chk_fail
.L2105:
	mov	x20, x0
	stlr	wzr, [x19]
	ldr	x0, [sp, 88]
	cbz	x0, .L2103
	bl	_ZNSt16_Sp_counted_baseILN9__gnu_cxx12_Lock_policyE2EE10_M_releaseEv
.L2103:
	add	x0, sp, 56
	bl	_ZN4asio6detail18completion_handlerINS0_7binder1IZN7asiopal9TCPServer11StartAcceptEvEUlSt10error_codeE_S5_EEE3ptr5resetEv
	mov	x0, x20
.LEHB63:
	bl	_Unwind_Resume
.LEHE63:
	.cfi_endproc
.LFE9332:
	.section	.gcc_except_table
.LLSDA9332:
	.byte	0xff
	.byte	0xff
	.byte	0x1
	.uleb128 .LLSDACSE9332-.LLSDACSB9332
.LLSDACSB9332:
	.uleb128 .LEHB62-.LFB9332
	.uleb128 .LEHE62-.LEHB62
	.uleb128 .L2105-.LFB9332
	.uleb128 0
	.uleb128 .LEHB63-.LFB9332
	.uleb128 .LEHE63-.LEHB63
	.uleb128 0
	.uleb128 0
.LLSDACSE9332:
	.text
	.size	_ZN4asio6detail18completion_handlerINS0_7binder1IZN7asiopal9TCPServer11StartAcceptEvEUlSt10error_codeE_S5_EEE11do_completeEPNS0_15task_io_serviceEPNS0_25task_io_service_operationERKS5_m, .-_ZN4asio6detail18completion_handlerINS0_7binder1IZN7asiopal9TCPServer11StartAcceptEvEUlSt10error_codeE_S5_EEE11do_completeEPNS0_15task_io_serviceEPNS0_25task_io_service_operationERKS5_m
	.align	2
	.p2align 4,,11
	.type	_ZN4asio6detail18completion_handlerINS0_17rewrapped_handlerINS0_7binder1INS0_15wrapped_handlerINS_10io_service6strandEZN7asiopal9TCPServer11StartAcceptEvEUlSt10error_codeE_NS0_26is_continuation_if_runningEEES9_EESA_EEE11do_completeEPNS0_15task_io_serviceEPNS0_25task_io_service_operationERKS9_m, %function
_ZN4asio6detail18completion_handlerINS0_17rewrapped_handlerINS0_7binder1INS0_15wrapped_handlerINS_10io_service6strandEZN7asiopal9TCPServer11StartAcceptEvEUlSt10error_codeE_NS0_26is_continuation_if_runningEEES9_EESA_EEE11do_completeEPNS0_15task_io_serviceEPNS0_25task_io_service_operationERKS9_m:
.LFB9285:
	.cfi_startproc
	.cfi_personality 0x9b,DW.ref.__gxx_personality_v0
	.cfi_lsda 0x1b,.LLSDA9285
	stp	x29, x30, [sp, -448]!
	.cfi_def_cfa_offset 448
	.cfi_offset 29, -448
	.cfi_offset 30, -440
	mov	x29, sp
	stp	x19, x20, [sp, 16]
	.cfi_offset 19, -432
	.cfi_offset 20, -424
	adrp	x20, :got:_ZN4asio6detail10call_stackINS0_15task_io_serviceENS0_27task_io_service_thread_infoEE4top_E
	mov	x19, x1
	adrp	x1, :got:__stack_chk_guard
	stp	x21, x22, [sp, 32]
	.cfi_offset 21, -416
	.cfi_offset 22, -408
	mov	x21, x0
	ldr	x2, [x20, #:got_lo12:_ZN4asio6detail10call_stackINS0_15task_io_serviceENS0_27task_io_service_thread_infoEE4top_E]
	add	x22, sp, 368
	ldr	x1, [x1, #:got_lo12:__stack_chk_guard]
	ldr	w0, [x2]
	ldr	x2, [x1]
	str	x2, [sp, 440]
	mov	x2, 0
	stp	x22, x19, [sp, 184]
	ldp	x4, x5, [x19, 40]
	str	xzr, [sp, 200]
	ldp	x2, x3, [x19, 72]
	stp	x4, x5, [sp, 384]
	ldr	q1, [x19, 24]
	stp	x2, x3, [sp, 416]
	ldr	q0, [x19, 56]
	str	q1, [sp, 368]
	str	q0, [sp, 400]
	bl	pthread_getspecific
	cbz	x0, .L2137
	ldr	x0, [x0, 8]
	cbz	x0, .L2137
	ldr	x1, [x0]
	cbz	x1, .L2362
.L2137:
	mov	x0, x19
	bl	_ZdlPv
.L2138:
	str	xzr, [sp, 192]
	cbz	x21, .L2139
	add	x21, sp, 128
	mov	w0, 1
	mov	x1, x21
	stp	x23, x24, [sp, 48]
	.cfi_offset 24, -392
	.cfi_offset 23, -400
	str	wzr, [sp, 128]
	bl	__aarch64_swp4_sync
	ldr	q0, [sp, 400]
	umov	x1, v0.d[1]
	cbz	x1, .L2140
	adrp	x0, :got:__libc_single_threaded
	ldr	x0, [x0, #:got_lo12:__libc_single_threaded]
	ldrb	w0, [x0]
	cbz	w0, .L2141
	ldr	w0, [x1, 8]
	add	w0, w0, 1
	str	w0, [x1, 8]
.L2140:
	adrp	x19, :got:_ZN4asio6detail10call_stackINS0_14strand_service11strand_implEhE4top_E
	str	q0, [sp, 320]
	ldr	x0, [x19, #:got_lo12:_ZN4asio6detail10call_stackINS0_14strand_service11strand_implEhE4top_E]
	ldp	x2, x3, [sp, 416]
	stp	x2, x3, [sp, 304]
	ldr	w0, [x0]
	stp	x2, x3, [sp, 336]
	ldp	x23, x24, [sp, 384]
	bl	pthread_getspecific
	cbnz	x0, .L2145
	b	.L2142
	.p2align 2,,3
.L2143:
	ldr	x0, [x0, 16]
	cbz	x0, .L2142
.L2145:
	ldr	x1, [x0]
	cmp	x24, x1
	bne	.L2143
	ldr	x0, [x0, 8]
	cbz	x0, .L2142
	stp	x25, x26, [sp, 64]
	.cfi_offset 26, -376
	.cfi_offset 25, -384
	add	x25, sp, 256
	mov	x1, x25
	mov	w0, 1
	str	wzr, [sp, 256]
	bl	__aarch64_swp4_sync
	ldr	w1, [sp, 336]
	add	x0, sp, 320
	ldr	x2, [sp, 344]
.LEHB64:
	bl	_ZZN7asiopal9TCPServer11StartAcceptEvENKUlSt10error_codeE_clES1_.isra.0
.LEHE64:
	stlr	wzr, [x25]
.L2146:
	ldr	x19, [sp, 328]
	cbz	x19, .L2216
	adrp	x22, :got:__libc_single_threaded
	ldr	x0, [x22, #:got_lo12:__libc_single_threaded]
	ldrb	w0, [x0]
	cbz	w0, .L2218
	ldr	w0, [x19, 8]
	sub	w1, w0, #1
	str	w1, [x19, 8]
.L2219:
	cmp	w0, 1
	beq	.L2363
.L2216:
	stlr	wzr, [x21]
	ldp	x23, x24, [sp, 48]
	.cfi_restore 24
	.cfi_restore 23
	ldp	x25, x26, [sp, 64]
	.cfi_restore 26
	.cfi_restore 25
.L2139:
	ldr	x19, [sp, 408]
	cbz	x19, .L2225
	adrp	x22, :got:__libc_single_threaded
	ldr	x0, [x22, #:got_lo12:__libc_single_threaded]
	ldrb	w0, [x0]
	cbz	w0, .L2226
	ldr	w0, [x19, 8]
	sub	w1, w0, #1
	str	w1, [x19, 8]
.L2227:
	cmp	w0, 1
	beq	.L2364
.L2225:
	ldr	x19, [sp, 376]
	cbz	x19, .L2232
	adrp	x22, :got:__libc_single_threaded
	ldr	x0, [x22, #:got_lo12:__libc_single_threaded]
	ldrb	w0, [x0]
	cbz	w0, .L2233
	ldr	w0, [x19, 8]
	sub	w1, w0, #1
	str	w1, [x19, 8]
.L2234:
	cmp	w0, 1
	beq	.L2365
.L2232:
	ldr	x19, [sp, 200]
	cbz	x19, .L2238
	ldr	x21, [x19, 64]
	cbz	x21, .L2240
	adrp	x22, :got:__libc_single_threaded
	ldr	x0, [x22, #:got_lo12:__libc_single_threaded]
	ldrb	w0, [x0]
	cbz	w0, .L2241
	ldr	w0, [x21, 8]
	sub	w1, w0, #1
	str	w1, [x21, 8]
.L2242:
	cmp	w0, 1
	bne	.L2240
	ldr	x1, [x21]
	mov	x0, x21
	ldr	x1, [x1, 16]
	blr	x1
	ldr	x22, [x22, #:got_lo12:__libc_single_threaded]
	ldrb	w0, [x22]
	cbz	w0, .L2244
	ldr	w0, [x21, 12]
	sub	w1, w0, #1
	str	w1, [x21, 12]
.L2245:
	cmp	w0, 1
	beq	.L2366
	.p2align 3,,7
.L2240:
	ldr	x19, [x19, 32]
	cbz	x19, .L2247
	adrp	x22, :got:__libc_single_threaded
	ldr	x0, [x22, #:got_lo12:__libc_single_threaded]
	ldrb	w0, [x0]
	cbz	w0, .L2248
	ldr	w0, [x19, 8]
	sub	w1, w0, #1
	str	w1, [x19, 8]
.L2249:
	cmp	w0, 1
	bne	.L2247
	ldr	x1, [x19]
	mov	x0, x19
	ldr	x1, [x1, 16]
	blr	x1
	ldr	x22, [x22, #:got_lo12:__libc_single_threaded]
	ldrb	w0, [x22]
	cbz	w0, .L2251
	ldr	w0, [x19, 12]
	sub	w1, w0, #1
	str	w1, [x19, 12]
.L2252:
	cmp	w0, 1
	beq	.L2367
	.p2align 3,,7
.L2247:
	str	xzr, [sp, 200]
.L2238:
	ldr	x19, [sp, 192]
	cbz	x19, .L2136
	ldr	x20, [x20, #:got_lo12:_ZN4asio6detail10call_stackINS0_15task_io_serviceENS0_27task_io_service_thread_infoEE4top_E]
	ldr	w0, [x20]
	bl	pthread_getspecific
	cbz	x0, .L2254
	ldr	x0, [x0, 8]
	cbz	x0, .L2254
	ldr	x1, [x0]
	cbz	x1, .L2368
.L2254:
	adrp	x0, :got:__stack_chk_guard
	ldr	x0, [x0, #:got_lo12:__stack_chk_guard]
	ldr	x2, [sp, 440]
	ldr	x1, [x0]
	subs	x2, x2, x1
	mov	x1, 0
	bne	.L2361
	mov	x0, x19
	ldp	x19, x20, [sp, 16]
	ldp	x21, x22, [sp, 32]
	ldp	x29, x30, [sp], 448
	.cfi_remember_state
	.cfi_restore 30
	.cfi_restore 29
	.cfi_restore 21
	.cfi_restore 22
	.cfi_restore 19
	.cfi_restore 20
	.cfi_def_cfa_offset 0
	b	_ZdlPv
	.p2align 2,,3
.L2368:
	.cfi_restore_state
	ldrb	w1, [x19, 88]
	strb	w1, [x19]
	str	x19, [x0]
	.p2align 3,,7
.L2136:
	adrp	x0, :got:__stack_chk_guard
	ldr	x0, [x0, #:got_lo12:__stack_chk_guard]
	ldr	x2, [sp, 440]
	ldr	x1, [x0]
	subs	x2, x2, x1
	mov	x1, 0
	bne	.L2361
	ldp	x19, x20, [sp, 16]
	ldp	x21, x22, [sp, 32]
	ldp	x29, x30, [sp], 448
	.cfi_restore 30
	.cfi_restore 29
	.cfi_restore 21
	.cfi_restore 22
	.cfi_restore 19
	.cfi_restore 20
	.cfi_def_cfa_offset 0
	ret
	.p2align 2,,3
.L2142:
	.cfi_def_cfa_offset 448
	.cfi_offset 19, -432
	.cfi_offset 20, -424
	.cfi_offset 21, -416
	.cfi_offset 22, -408
	.cfi_offset 23, -400
	.cfi_offset 24, -392
	.cfi_offset 29, -448
	.cfi_offset 30, -440
	ldr	x0, [x20, #:got_lo12:_ZN4asio6detail10call_stackINS0_15task_io_serviceENS0_27task_io_service_thread_infoEE4top_E]
	add	x1, sp, 320
	str	x1, [sp, 160]
	stp	xzr, xzr, [sp, 168]
	ldr	w0, [x0]
	bl	pthread_getspecific
	cbz	x0, .L2147
	ldr	x0, [x0, 8]
	cbz	x0, .L2147
	ldr	x24, [x0]
	cbz	x24, .L2147
	str	xzr, [x0]
	ldrb	w0, [x24]
	cmp	w0, 55
	bls	.L2148
	stp	x25, x26, [sp, 64]
	.cfi_remember_state
	.cfi_offset 26, -376
	.cfi_offset 25, -384
	strb	w0, [x24, 56]
	b	.L2149
	.p2align 2,,3
.L2148:
	.cfi_restore_state
	mov	x0, x24
	bl	_ZdlPv
.L2147:
	mov	x0, 57
.LEHB65:
	bl	_Znwm
.LEHE65:
	mov	x24, x0
	stp	x25, x26, [sp, 64]
	.cfi_offset 26, -376
	.cfi_offset 25, -384
	mov	w1, 56
	strb	w1, [x0, 56]
.L2149:
	adrp	x0, _ZN4asio6detail18completion_handlerINS0_7binder1IZN7asiopal9TCPServer11StartAcceptEvEUlSt10error_codeE_S5_EEE11do_completeEPNS0_15task_io_serviceEPNS0_25task_io_service_operationERKS5_m
	add	x0, x0, :lo12:_ZN4asio6detail18completion_handlerINS0_7binder1IZN7asiopal9TCPServer11StartAcceptEvEUlSt10error_codeE_S5_EEE11do_completeEPNS0_15task_io_serviceEPNS0_25task_io_service_operationERKS5_m
	stp	xzr, x0, [x24]
	mov	x26, x24
	dup	v1.2d, x24
	ldr	q0, [sp, 320]
	str	wzr, [x24, 16]
	ldr	x0, [x20, #:got_lo12:_ZN4asio6detail10call_stackINS0_15task_io_serviceENS0_27task_io_service_thread_infoEE4top_E]
	str	q1, [sp, 96]
	str	q0, [x26, 24]!
	ldr	w0, [x0]
	ldp	x2, x3, [sp, 336]
	stp	x2, x3, [x26, 16]
	stp	xzr, xzr, [sp, 320]
	ldr	x25, [x23, 40]
	bl	pthread_getspecific
	cbnz	x0, .L2154
	b	.L2150
	.p2align 2,,3
.L2151:
	ldr	x0, [x0, 16]
	cbz	x0, .L2150
.L2154:
	ldr	x1, [x0]
	cmp	x25, x1
	bne	.L2151
	ldr	x25, [x0, 8]
	ldr	x0, [sp, 392]
	add	x0, x0, 24
	bl	pthread_mutex_lock
	cbz	x25, .L2153
	ldr	x1, [sp, 392]
	add	x0, x1, 24
	ldrb	w2, [x1, 72]
	cbz	w2, .L2369
.L2155:
	str	xzr, [x24]
	ldr	x4, [x1, 88]
	cbz	x4, .L2159
	str	x24, [x4]
	str	x24, [x1, 88]
	bl	pthread_mutex_unlock
	b	.L2146
	.p2align 2,,3
.L2241:
	.cfi_restore 23
	.cfi_restore 24
	.cfi_restore 25
	.cfi_restore 26
	add	x1, x21, 8
	mov	w0, -1
	bl	__aarch64_ldadd4_acq_rel
	b	.L2242
	.p2align 2,,3
.L2248:
	add	x1, x19, 8
	mov	w0, -1
	bl	__aarch64_ldadd4_acq_rel
	b	.L2249
.L2369:
	.cfi_offset 23, -400
	.cfi_offset 24, -392
	.cfi_offset 25, -384
	.cfi_offset 26, -376
	str	x27, [sp, 80]
	.cfi_offset 27, -368
	mov	w2, 1
	strb	w2, [x1, 72]
	add	x25, sp, 256
	bl	pthread_mutex_unlock
	ldr	x27, [x19, #:got_lo12:_ZN4asio6detail10call_stackINS0_14strand_service11strand_implEhE4top_E]
	ldr	x0, [sp, 392]
	str	x0, [sp, 208]
	ldr	w0, [x27]
	bl	pthread_getspecific
	mov	x2, x0
	ldr	w0, [x27]
	add	x1, sp, 208
	stp	x1, x2, [sp, 216]
	bl	pthread_setspecific
	stp	x25, x24, [sp, 232]
	ldr	q0, [x24, 24]
	str	xzr, [sp, 248]
	ldr	x0, [x20, #:got_lo12:_ZN4asio6detail10call_stackINS0_15task_io_serviceENS0_27task_io_service_thread_infoEE4top_E]
	ldr	x23, [x23, 40]
	str	q0, [sp, 256]
	ldr	w0, [x0]
	ldp	x2, x3, [x26, 16]
	stp	x2, x3, [sp, 272]
	ldr	x1, [sp, 392]
	stp	x23, x1, [sp, 144]
	bl	pthread_getspecific
	cbz	x0, .L2157
	ldr	x0, [x0, 8]
	cbz	x0, .L2157
	ldr	x1, [x0]
	cbz	x1, .L2370
.L2157:
	mov	x0, x24
	bl	_ZdlPv
.L2174:
	str	xzr, [sp, 240]
	cbz	x23, .L2175
	add	x23, sp, 136
	mov	w0, 1
	mov	x1, x23
	str	wzr, [sp, 136]
	bl	__aarch64_swp4_sync
	ldr	w1, [sp, 272]
	mov	x0, x25
	ldr	x2, [sp, 280]
.LEHB66:
	bl	_ZZN7asiopal9TCPServer11StartAcceptEvENKUlSt10error_codeE_clES1_.isra.0
.LEHE66:
	stlr	wzr, [x23]
.L2175:
	ldr	x23, [sp, 264]
	cbz	x23, .L2177
	adrp	x22, :got:__libc_single_threaded
	ldr	x0, [x22, #:got_lo12:__libc_single_threaded]
	ldrb	w0, [x0]
	cbz	w0, .L2178
	ldr	w0, [x23, 8]
	sub	w1, w0, #1
	str	w1, [x23, 8]
.L2179:
	cmp	w0, 1
	beq	.L2371
.L2177:
	ldr	x0, [sp, 248]
	cbz	x0, .L2183
	ldr	x23, [x0, 32]
	cbz	x23, .L2185
	adrp	x22, :got:__libc_single_threaded
	ldr	x0, [x22, #:got_lo12:__libc_single_threaded]
	ldrb	w0, [x0]
	cbz	w0, .L2186
	ldr	w0, [x23, 8]
	sub	w1, w0, #1
	str	w1, [x23, 8]
.L2187:
	cmp	w0, 1
	bne	.L2185
	ldr	x1, [x23]
	mov	x0, x23
	ldr	x1, [x1, 16]
	blr	x1
	ldr	x22, [x22, #:got_lo12:__libc_single_threaded]
	ldrb	w0, [x22]
	cbz	w0, .L2189
	ldr	w0, [x23, 12]
	sub	w1, w0, #1
	str	w1, [x23, 12]
.L2190:
	cmp	w0, 1
	bne	.L2185
	ldr	x1, [x23]
	mov	x0, x23
	ldr	x1, [x1, 24]
	blr	x1
	.p2align 3,,7
.L2185:
	str	xzr, [sp, 248]
.L2183:
	ldr	x22, [sp, 240]
	cbz	x22, .L2191
	ldr	x0, [x20, #:got_lo12:_ZN4asio6detail10call_stackINS0_15task_io_serviceENS0_27task_io_service_thread_infoEE4top_E]
	ldr	w0, [x0]
	bl	pthread_getspecific
	cbz	x0, .L2192
	ldr	x0, [x0, 8]
	cbz	x0, .L2192
	ldr	x1, [x0]
	cbz	x1, .L2372
.L2192:
	mov	x0, x22
	bl	_ZdlPv
.L2191:
	ldr	x22, [sp, 152]
	add	x24, x22, 24
	mov	x0, x24
	bl	pthread_mutex_lock
	dup	v0.2d, x22
	ldr	x23, [x22, 80]
	str	q0, [sp, 96]
	cbz	x23, .L2373
	ldr	x1, [x22, 104]
	add	x0, x22, 96
	cbz	x1, .L2198
	str	x23, [x1]
	ldr	x23, [x22, 96]
.L2199:
	ldr	x1, [x22, 88]
	str	x1, [x0, 8]
	stp	xzr, xzr, [x22, 80]
.L2194:
	cmp	x23, 0
	cset	w0, ne
	strb	w0, [x22, 72]
	mov	x0, x24
	bl	pthread_mutex_unlock
	cbnz	x23, .L2374
.L2200:
	ldr	x19, [x19, #:got_lo12:_ZN4asio6detail10call_stackINS0_14strand_service11strand_implEhE4top_E]
	ldr	x1, [sp, 224]
	ldr	w0, [x19]
	bl	pthread_setspecific
	ldp	x19, x0, [sp, 168]
	cbz	x0, .L2212
	str	xzr, [sp, 176]
.L2212:
	cbz	x19, .L2359
	ldr	x0, [x20, #:got_lo12:_ZN4asio6detail10call_stackINS0_15task_io_serviceENS0_27task_io_service_thread_infoEE4top_E]
	ldr	w0, [x0]
	bl	pthread_getspecific
	cbz	x0, .L2214
	ldr	x0, [x0, 8]
	cbz	x0, .L2214
	ldr	x1, [x0]
	cbz	x1, .L2375
.L2214:
	mov	x0, x19
	bl	_ZdlPv
	ldr	x27, [sp, 80]
	.cfi_restore 27
	b	.L2146
	.p2align 2,,3
.L2365:
	.cfi_restore 23
	.cfi_restore 24
	.cfi_restore 25
	.cfi_restore 26
	ldr	x1, [x19]
	mov	x0, x19
	ldr	x1, [x1, 16]
	blr	x1
	ldr	x22, [x22, #:got_lo12:__libc_single_threaded]
	ldrb	w0, [x22]
	cbz	w0, .L2236
	ldr	w0, [x19, 12]
	sub	w1, w0, #1
	str	w1, [x19, 12]
.L2237:
	cmp	w0, 1
	bne	.L2232
	ldr	x1, [x19]
	mov	x0, x19
	ldr	x1, [x1, 24]
	blr	x1
	b	.L2232
	.p2align 2,,3
.L2364:
	ldr	x1, [x19]
	mov	x0, x19
	ldr	x1, [x1, 16]
	blr	x1
	ldr	x22, [x22, #:got_lo12:__libc_single_threaded]
	ldrb	w0, [x22]
	cbz	w0, .L2229
	ldr	w0, [x19, 12]
	sub	w1, w0, #1
	str	w1, [x19, 12]
.L2230:
	cmp	w0, 1
	bne	.L2225
	ldr	x1, [x19]
	mov	x0, x19
	ldr	x1, [x1, 24]
	blr	x1
	b	.L2225
	.p2align 2,,3
.L2233:
	add	x1, x19, 8
	mov	w0, -1
	bl	__aarch64_ldadd4_acq_rel
	b	.L2234
	.p2align 2,,3
.L2226:
	add	x1, x19, 8
	mov	w0, -1
	bl	__aarch64_ldadd4_acq_rel
	b	.L2227
	.p2align 2,,3
.L2141:
	.cfi_offset 23, -400
	.cfi_offset 24, -392
	add	x1, x1, 8
	mov	w0, 1
	str	q0, [sp, 96]
	bl	__aarch64_ldadd4_acq_rel
	ldr	q0, [sp, 96]
	b	.L2140
	.p2align 2,,3
.L2363:
	.cfi_offset 25, -384
	.cfi_offset 26, -376
	ldr	x1, [x19]
	mov	x0, x19
	ldr	x1, [x1, 16]
	blr	x1
	ldr	x22, [x22, #:got_lo12:__libc_single_threaded]
	ldrb	w0, [x22]
	cbz	w0, .L2221
	ldr	w0, [x19, 12]
	sub	w1, w0, #1
	str	w1, [x19, 12]
.L2222:
	cmp	w0, 1
	bne	.L2216
	ldr	x1, [x19]
	mov	x0, x19
	ldr	x1, [x1, 24]
	blr	x1
	b	.L2216
	.p2align 2,,3
.L2218:
	add	x1, x19, 8
	mov	w0, -1
	bl	__aarch64_ldadd4_acq_rel
	b	.L2219
	.p2align 2,,3
.L2150:
	ldr	x0, [sp, 392]
	add	x0, x0, 24
	bl	pthread_mutex_lock
.L2153:
	ldr	x1, [sp, 392]
	add	x0, x1, 24
	ldrb	w2, [x1, 72]
	cbnz	w2, .L2155
	mov	w2, 1
	strb	w2, [x1, 72]
	bl	pthread_mutex_unlock
	ldr	x22, [sp, 392]
	dup	v0.2d, x22
	ldr	x1, [x22, 104]
	str	xzr, [x24]
	str	q0, [sp, 112]
	cbz	x1, .L2162
	str	x24, [x1]
	str	x24, [x22, 104]
.L2163:
	ldr	x19, [x23, 40]
	ldrb	w0, [x19, 40]
	cbnz	w0, .L2376
.L2164:
	add	x1, x19, 192
	add	x23, x19, 48
	mov	x0, 1
	bl	__aarch64_ldadd8_acq_rel
	mov	x0, x23
	bl	pthread_mutex_lock
	ldr	x1, [x19, 208]
	str	xzr, [x22]
	cbz	x1, .L2169
	str	x22, [x1]
	str	x22, [x19, 208]
.L2170:
	ldr	x0, [x19, 144]
	add	x22, x19, 96
	orr	x0, x0, 1
	str	x0, [x19, 144]
	cmp	x0, 1
	beq	.L2171
	mov	x0, x23
	bl	pthread_mutex_unlock
	mov	x0, x22
	bl	pthread_cond_signal
	b	.L2146
.L2171:
	ldrb	w1, [x19, 184]
	cbnz	w1, .L2173
	ldr	x4, [x19, 152]
	cbz	x4, .L2173
	mov	w1, 9
	strb	w0, [x19, 184]
	ldr	w2, [x4, 96]
	add	x0, x4, 96
	movk	w1, 0x8000, lsl 16
	str	w1, [sp, 256]
	str	x0, [sp, 264]
	add	x3, sp, 256
	mov	w1, 3
	ldr	w0, [x4, 104]
	bl	epoll_ctl
.L2173:
	mov	x0, x23
	bl	pthread_mutex_unlock
	b	.L2146
	.p2align 2,,3
.L2362:
	.cfi_restore 23
	.cfi_restore 24
	.cfi_restore 25
	.cfi_restore 26
	ldrb	w1, [x19, 88]
	strb	w1, [x19]
	str	x19, [x0]
	b	.L2138
.L2229:
	add	x1, x19, 12
	mov	w0, -1
	bl	__aarch64_ldadd4_acq_rel
	b	.L2230
.L2236:
	add	x1, x19, 12
	mov	w0, -1
	bl	__aarch64_ldadd4_acq_rel
	b	.L2237
.L2159:
	.cfi_offset 23, -400
	.cfi_offset 24, -392
	.cfi_offset 25, -384
	.cfi_offset 26, -376
	ldr	q0, [sp, 96]
	str	q0, [x1, 80]
	bl	pthread_mutex_unlock
	b	.L2146
.L2374:
	.cfi_offset 27, -368
	ldr	x23, [sp, 144]
	ldrb	w0, [x23, 40]
	cbnz	w0, .L2377
.L2201:
	add	x1, x23, 192
	add	x24, x23, 48
	mov	x0, 1
	bl	__aarch64_ldadd8_acq_rel
	mov	x0, x24
	bl	pthread_mutex_lock
	ldr	x1, [x23, 208]
	str	xzr, [x22]
	cbz	x1, .L2206
	str	x22, [x1]
	str	x22, [x23, 208]
.L2207:
	ldr	x0, [x23, 144]
	add	x22, x23, 96
	orr	x0, x0, 1
	str	x0, [x23, 144]
	cmp	x0, 1
	beq	.L2208
	mov	x0, x24
	bl	pthread_mutex_unlock
	mov	x0, x22
	bl	pthread_cond_signal
	b	.L2200
.L2366:
	.cfi_restore 23
	.cfi_restore 24
	.cfi_restore 25
	.cfi_restore 26
	.cfi_restore 27
	ldr	x1, [x21]
	mov	x0, x21
	ldr	x1, [x1, 24]
	blr	x1
	b	.L2240
.L2367:
	ldr	x1, [x19]
	mov	x0, x19
	ldr	x1, [x1, 24]
	blr	x1
	str	xzr, [sp, 200]
	b	.L2238
.L2186:
	.cfi_offset 23, -400
	.cfi_offset 24, -392
	.cfi_offset 25, -384
	.cfi_offset 26, -376
	.cfi_offset 27, -368
	add	x1, x23, 8
	mov	w0, -1
	bl	__aarch64_ldadd4_acq_rel
	b	.L2187
.L2377:
	ldr	x0, [x20, #:got_lo12:_ZN4asio6detail10call_stackINS0_15task_io_serviceENS0_27task_io_service_thread_infoEE4top_E]
	ldr	w0, [x0]
	bl	pthread_getspecific
	cbnz	x0, .L2204
	b	.L2201
	.p2align 2,,3
.L2202:
	ldr	x0, [x0, 16]
	cbz	x0, .L2201
.L2204:
	ldr	x1, [x0]
	cmp	x23, x1
	bne	.L2202
	ldr	x0, [x0, 8]
	cbz	x0, .L2201
	ldp	x3, x1, [x0, 16]
	add	x1, x1, 1
	str	x1, [x0, 24]
	str	xzr, [x22]
	ldr	x1, [x0, 16]
	cbz	x3, .L2205
	str	x22, [x1]
	str	x22, [x0, 16]
	b	.L2200
.L2372:
	ldrb	w1, [x22, 56]
	strb	w1, [x22]
	str	x22, [x0]
	b	.L2191
.L2370:
	ldrb	w1, [x24, 56]
	strb	w1, [x24]
	str	x24, [x0]
	b	.L2174
.L2373:
	ldr	x23, [x22, 96]
	b	.L2194
.L2221:
	.cfi_restore 27
	add	x1, x19, 12
	mov	w0, -1
	bl	__aarch64_ldadd4_acq_rel
	b	.L2222
.L2198:
	.cfi_offset 27, -368
	str	x23, [x22, 96]
	b	.L2199
.L2208:
	ldrb	w1, [x23, 184]
	cbnz	w1, .L2210
	ldr	x4, [x23, 152]
	cbz	x4, .L2210
	mov	w1, 9
