	.arch armv8-a
	.file	"ThreadPool.cpp"
	.text
	.section	.rodata._ZNK4asio6detail15system_category4nameEv.str1.8,"aMS",@progbits,1
	.align	3
.LC0:
	.string	"asio.system"
	.section	.text._ZNK4asio6detail15system_category4nameEv,"axG",@progbits,_ZNK4asio6detail15system_category4nameEv,comdat
	.align	2
	.p2align 4,,11
	.weak	_ZNK4asio6detail15system_category4nameEv
	.type	_ZNK4asio6detail15system_category4nameEv, %function
_ZNK4asio6detail15system_category4nameEv:
.LFB2624:
	.cfi_startproc
	adrp	x0, .LC0
	add	x0, x0, :lo12:.LC0
	ret
	.cfi_endproc
.LFE2624:
	.size	_ZNK4asio6detail15system_category4nameEv, .-_ZNK4asio6detail15system_category4nameEv
	.section	.rodata._ZNK4asio5error6detail14netdb_category4nameEv.str1.8,"aMS",@progbits,1
	.align	3
.LC1:
	.string	"asio.netdb"
	.section	.text._ZNK4asio5error6detail14netdb_category4nameEv,"axG",@progbits,_ZNK4asio5error6detail14netdb_category4nameEv,comdat
	.align	2
	.p2align 4,,11
	.weak	_ZNK4asio5error6detail14netdb_category4nameEv
	.type	_ZNK4asio5error6detail14netdb_category4nameEv, %function
_ZNK4asio5error6detail14netdb_category4nameEv:
.LFB2645:
	.cfi_startproc
	adrp	x0, .LC1
	add	x0, x0, :lo12:.LC1
	ret
	.cfi_endproc
.LFE2645:
	.size	_ZNK4asio5error6detail14netdb_category4nameEv, .-_ZNK4asio5error6detail14netdb_category4nameEv
	.section	.rodata._ZNK4asio5error6detail17addrinfo_category4nameEv.str1.8,"aMS",@progbits,1
	.align	3
.LC2:
	.string	"asio.addrinfo"
	.section	.text._ZNK4asio5error6detail17addrinfo_category4nameEv,"axG",@progbits,_ZNK4asio5error6detail17addrinfo_category4nameEv,comdat
	.align	2
	.p2align 4,,11
	.weak	_ZNK4asio5error6detail17addrinfo_category4nameEv
	.type	_ZNK4asio5error6detail17addrinfo_category4nameEv, %function
_ZNK4asio5error6detail17addrinfo_category4nameEv:
.LFB2651:
	.cfi_startproc
	adrp	x0, .LC2
	add	x0, x0, :lo12:.LC2
	ret
	.cfi_endproc
.LFE2651:
	.size	_ZNK4asio5error6detail17addrinfo_category4nameEv, .-_ZNK4asio5error6detail17addrinfo_category4nameEv
	.section	.rodata._ZNK4asio5error6detail13misc_category4nameEv.str1.8,"aMS",@progbits,1
	.align	3
.LC3:
	.string	"asio.misc"
	.section	.text._ZNK4asio5error6detail13misc_category4nameEv,"axG",@progbits,_ZNK4asio5error6detail13misc_category4nameEv,comdat
	.align	2
	.p2align 4,,11
	.weak	_ZNK4asio5error6detail13misc_category4nameEv
	.type	_ZNK4asio5error6detail13misc_category4nameEv, %function
_ZNK4asio5error6detail13misc_category4nameEv:
.LFB2657:
	.cfi_startproc
	adrp	x0, .LC3
	add	x0, x0, :lo12:.LC3
	ret
	.cfi_endproc
.LFE2657:
	.size	_ZNK4asio5error6detail13misc_category4nameEv, .-_ZNK4asio5error6detail13misc_category4nameEv
	.section	.text._ZN4asio10io_service7service12fork_serviceENS0_10fork_eventE,"axG",@progbits,_ZN4asio10io_service7service12fork_serviceENS0_10fork_eventE,comdat
	.align	2
	.p2align 4,,11
	.weak	_ZN4asio10io_service7service12fork_serviceENS0_10fork_eventE
	.type	_ZN4asio10io_service7service12fork_serviceENS0_10fork_eventE, %function
_ZN4asio10io_service7service12fork_serviceENS0_10fork_eventE:
.LFB3584:
	.cfi_startproc
	ret
	.cfi_endproc
.LFE3584:
	.size	_ZN4asio10io_service7service12fork_serviceENS0_10fork_eventE, .-_ZN4asio10io_service7service12fork_serviceENS0_10fork_eventE
	.section	.text._ZN4asio6detail10service_idINS0_13epoll_reactorEED2Ev,"axG",@progbits,_ZN4asio6detail10service_idINS0_13epoll_reactorEED5Ev,comdat
	.align	2
	.p2align 4,,11
	.weak	_ZN4asio6detail10service_idINS0_13epoll_reactorEED2Ev
	.type	_ZN4asio6detail10service_idINS0_13epoll_reactorEED2Ev, %function
_ZN4asio6detail10service_idINS0_13epoll_reactorEED2Ev:
.LFB9601:
	.cfi_startproc
	ret
	.cfi_endproc
.LFE9601:
	.size	_ZN4asio6detail10service_idINS0_13epoll_reactorEED2Ev, .-_ZN4asio6detail10service_idINS0_13epoll_reactorEED2Ev
	.weak	_ZN4asio6detail10service_idINS0_13epoll_reactorEED1Ev
	.set	_ZN4asio6detail10service_idINS0_13epoll_reactorEED1Ev,_ZN4asio6detail10service_idINS0_13epoll_reactorEED2Ev
	.section	.text._ZN4asio6detail10service_idINS0_15task_io_serviceEED2Ev,"axG",@progbits,_ZN4asio6detail10service_idINS0_15task_io_serviceEED5Ev,comdat
	.align	2
	.p2align 4,,11
	.weak	_ZN4asio6detail10service_idINS0_15task_io_serviceEED2Ev
	.type	_ZN4asio6detail10service_idINS0_15task_io_serviceEED2Ev, %function
_ZN4asio6detail10service_idINS0_15task_io_serviceEED2Ev:
.LFB9604:
	.cfi_startproc
	ret
	.cfi_endproc
.LFE9604:
	.size	_ZN4asio6detail10service_idINS0_15task_io_serviceEED2Ev, .-_ZN4asio6detail10service_idINS0_15task_io_serviceEED2Ev
	.weak	_ZN4asio6detail10service_idINS0_15task_io_serviceEED1Ev
	.set	_ZN4asio6detail10service_idINS0_15task_io_serviceEED1Ev,_ZN4asio6detail10service_idINS0_15task_io_serviceEED2Ev
	.section	.text._ZN4asio6detail10service_idINS0_14strand_serviceEED2Ev,"axG",@progbits,_ZN4asio6detail10service_idINS0_14strand_serviceEED5Ev,comdat
	.align	2
	.p2align 4,,11
	.weak	_ZN4asio6detail10service_idINS0_14strand_serviceEED2Ev
	.type	_ZN4asio6detail10service_idINS0_14strand_serviceEED2Ev, %function
_ZN4asio6detail10service_idINS0_14strand_serviceEED2Ev:
.LFB9610:
	.cfi_startproc
	ret
	.cfi_endproc
.LFE9610:
	.size	_ZN4asio6detail10service_idINS0_14strand_serviceEED2Ev, .-_ZN4asio6detail10service_idINS0_14strand_serviceEED2Ev
	.weak	_ZN4asio6detail10service_idINS0_14strand_serviceEED1Ev
	.set	_ZN4asio6detail10service_idINS0_14strand_serviceEED1Ev,_ZN4asio6detail10service_idINS0_14strand_serviceEED2Ev
	.section	.text._ZN4asio6detail10service_idINS_22waitable_timer_serviceINSt6chrono3_V212steady_clockENS_11wait_traitsIS5_EEEEED2Ev,"axG",@progbits,_ZN4asio6detail10service_idINS_22waitable_timer_serviceINSt6chrono3_V212steady_clockENS_11wait_traitsIS5_EEEEED5Ev,comdat
	.align	2
	.p2align 4,,11
	.weak	_ZN4asio6detail10service_idINS_22waitable_timer_serviceINSt6chrono3_V212steady_clockENS_11wait_traitsIS5_EEEEED2Ev
	.type	_ZN4asio6detail10service_idINS_22waitable_timer_serviceINSt6chrono3_V212steady_clockENS_11wait_traitsIS5_EEEEED2Ev, %function
_ZN4asio6detail10service_idINS_22waitable_timer_serviceINSt6chrono3_V212steady_clockENS_11wait_traitsIS5_EEEEED2Ev:
.LFB9613:
	.cfi_startproc
	ret
	.cfi_endproc
.LFE9613:
	.size	_ZN4asio6detail10service_idINS_22waitable_timer_serviceINSt6chrono3_V212steady_clockENS_11wait_traitsIS5_EEEEED2Ev, .-_ZN4asio6detail10service_idINS_22waitable_timer_serviceINSt6chrono3_V212steady_clockENS_11wait_traitsIS5_EEEEED2Ev
	.weak	_ZN4asio6detail10service_idINS_22waitable_timer_serviceINSt6chrono3_V212steady_clockENS_11wait_traitsIS5_EEEEED1Ev
	.set	_ZN4asio6detail10service_idINS_22waitable_timer_serviceINSt6chrono3_V212steady_clockENS_11wait_traitsIS5_EEEEED1Ev,_ZN4asio6detail10service_idINS_22waitable_timer_serviceINSt6chrono3_V212steady_clockENS_11wait_traitsIS5_EEEEED2Ev
	.section	.text._ZN4asio22waitable_timer_serviceINSt6chrono3_V212steady_clockENS_11wait_traitsIS3_EEE16shutdown_serviceEv,"axG",@progbits,_ZN4asio22waitable_timer_serviceINSt6chrono3_V212steady_clockENS_11wait_traitsIS3_EEE16shutdown_serviceEv,comdat
	.align	2
	.p2align 4,,11
	.weak	_ZN4asio22waitable_timer_serviceINSt6chrono3_V212steady_clockENS_11wait_traitsIS3_EEE16shutdown_serviceEv
	.type	_ZN4asio22waitable_timer_serviceINSt6chrono3_V212steady_clockENS_11wait_traitsIS3_EEE16shutdown_serviceEv, %function
_ZN4asio22waitable_timer_serviceINSt6chrono3_V212steady_clockENS_11wait_traitsIS3_EEE16shutdown_serviceEv:
.LFB9652:
	.cfi_startproc
	ret
	.cfi_endproc
.LFE9652:
	.size	_ZN4asio22waitable_timer_serviceINSt6chrono3_V212steady_clockENS_11wait_traitsIS3_EEE16shutdown_serviceEv, .-_ZN4asio22waitable_timer_serviceINSt6chrono3_V212steady_clockENS_11wait_traitsIS3_EEE16shutdown_serviceEv
	.section	.text._ZNK4asio6detail11timer_queueINS0_18chrono_time_traitsINSt6chrono3_V212steady_clockENS_11wait_traitsIS5_EEEEE5emptyEv,"axG",@progbits,_ZNK4asio6detail11timer_queueINS0_18chrono_time_traitsINSt6chrono3_V212steady_clockENS_11wait_traitsIS5_EEEEE5emptyEv,comdat
	.align	2
	.p2align 4,,11
	.weak	_ZNK4asio6detail11timer_queueINS0_18chrono_time_traitsINSt6chrono3_V212steady_clockENS_11wait_traitsIS5_EEEEE5emptyEv
	.type	_ZNK4asio6detail11timer_queueINS0_18chrono_time_traitsINSt6chrono3_V212steady_clockENS_11wait_traitsIS5_EEEEE5emptyEv, %function
_ZNK4asio6detail11timer_queueINS0_18chrono_time_traitsINSt6chrono3_V212steady_clockENS_11wait_traitsIS5_EEEEE5emptyEv:
.LFB9653:
	.cfi_startproc
	ldr	x0, [x0, 16]
	cmp	x0, 0
	cset	w0, eq
	ret
	.cfi_endproc
.LFE9653:
	.size	_ZNK4asio6detail11timer_queueINS0_18chrono_time_traitsINSt6chrono3_V212steady_clockENS_11wait_traitsIS5_EEEEE5emptyEv, .-_ZNK4asio6detail11timer_queueINS0_18chrono_time_traitsINSt6chrono3_V212steady_clockENS_11wait_traitsIS5_EEEEE5emptyEv
	.section	.text._ZN4asio6detail11timer_queueINS0_18chrono_time_traitsINSt6chrono3_V212steady_clockENS_11wait_traitsIS5_EEEEE14get_all_timersERNS0_8op_queueINS0_25task_io_service_operationEEE,"axG",@progbits,_ZN4asio6detail11timer_queueINS0_18chrono_time_traitsINSt6chrono3_V212steady_clockENS_11wait_traitsIS5_EEEEE14get_all_timersERNS0_8op_queueINS0_25task_io_service_operationEEE,comdat
	.align	2
	.p2align 4,,11
	.weak	_ZN4asio6detail11timer_queueINS0_18chrono_time_traitsINSt6chrono3_V212steady_clockENS_11wait_traitsIS5_EEEEE14get_all_timersERNS0_8op_queueINS0_25task_io_service_operationEEE
	.type	_ZN4asio6detail11timer_queueINS0_18chrono_time_traitsINSt6chrono3_V212steady_clockENS_11wait_traitsIS5_EEEEE14get_all_timersERNS0_8op_queueINS0_25task_io_service_operationEEE, %function
_ZN4asio6detail11timer_queueINS0_18chrono_time_traitsINSt6chrono3_V212steady_clockENS_11wait_traitsIS5_EEEEE14get_all_timersERNS0_8op_queueINS0_25task_io_service_operationEEE:
.LFB9657:
	.cfi_startproc
	ldr	x2, [x0, 16]
	cbz	x2, .L14
	movi	v0.4s, 0
	b	.L18
	.p2align 2,,3
.L27:
	str	x4, [x5]
.L17:
	ldr	x4, [x3, 8]
	str	x4, [x1, 8]
	str	q0, [x3]
.L15:
	str	q0, [x3, 24]
	cbz	x2, .L14
.L18:
	mov	x3, x2
	ldr	x2, [x2, 24]
	ldr	x4, [x3]
	str	x2, [x0, 16]
	cbz	x4, .L15
	ldr	x5, [x1, 8]
	cbnz	x5, .L27
	str	x4, [x1]
	b	.L17
	.p2align 2,,3
.L14:
	add	x1, x0, 24
	ldr	x2, [x1, 8]
	ldr	x0, [x0, 24]
	cmp	x0, x2
	beq	.L13
	str	x0, [x1, 8]
.L13:
	ret
	.cfi_endproc
.LFE9657:
	.size	_ZN4asio6detail11timer_queueINS0_18chrono_time_traitsINSt6chrono3_V212steady_clockENS_11wait_traitsIS5_EEEEE14get_all_timersERNS0_8op_queueINS0_25task_io_service_operationEEE, .-_ZN4asio6detail11timer_queueINS0_18chrono_time_traitsINSt6chrono3_V212steady_clockENS_11wait_traitsIS5_EEEEE14get_all_timersERNS0_8op_queueINS0_25task_io_service_operationEEE
	.section	.text._ZN4asio6detail11timer_queueINS0_18chrono_time_traitsINSt6chrono3_V212steady_clockENS_11wait_traitsIS5_EEEEED2Ev,"axG",@progbits,_ZN4asio6detail11timer_queueINS0_18chrono_time_traitsINSt6chrono3_V212steady_clockENS_11wait_traitsIS5_EEEEED5Ev,comdat
	.align	2
	.p2align 4,,11
	.weak	_ZN4asio6detail11timer_queueINS0_18chrono_time_traitsINSt6chrono3_V212steady_clockENS_11wait_traitsIS5_EEEEED2Ev
	.type	_ZN4asio6detail11timer_queueINS0_18chrono_time_traitsINSt6chrono3_V212steady_clockENS_11wait_traitsIS5_EEEEED2Ev, %function
_ZN4asio6detail11timer_queueINS0_18chrono_time_traitsINSt6chrono3_V212steady_clockENS_11wait_traitsIS5_EEEEED2Ev:
.LFB9322:
	.cfi_startproc
	adrp	x1, :got:_ZTVN4asio6detail11timer_queueINS0_18chrono_time_traitsINSt6chrono3_V212steady_clockENS_11wait_traitsIS5_EEEEEE
	mov	x2, x0
	ldr	x0, [x0, 24]
	ldr	x3, [x1, #:got_lo12:_ZTVN4asio6detail11timer_queueINS0_18chrono_time_traitsINSt6chrono3_V212steady_clockENS_11wait_traitsIS5_EEEEEE]
	add	x3, x3, 16
	str	x3, [x2], 24
	cbz	x0, .L28
	ldr	x1, [x2, 16]
	sub	x1, x1, x0
	b	_ZdlPvm
	.p2align 2,,3
.L28:
	ret
	.cfi_endproc
.LFE9322:
	.size	_ZN4asio6detail11timer_queueINS0_18chrono_time_traitsINSt6chrono3_V212steady_clockENS_11wait_traitsIS5_EEEEED2Ev, .-_ZN4asio6detail11timer_queueINS0_18chrono_time_traitsINSt6chrono3_V212steady_clockENS_11wait_traitsIS5_EEEEED2Ev
	.weak	_ZN4asio6detail11timer_queueINS0_18chrono_time_traitsINSt6chrono3_V212steady_clockENS_11wait_traitsIS5_EEEEED1Ev
	.set	_ZN4asio6detail11timer_queueINS0_18chrono_time_traitsINSt6chrono3_V212steady_clockENS_11wait_traitsIS5_EEEEED1Ev,_ZN4asio6detail11timer_queueINS0_18chrono_time_traitsINSt6chrono3_V212steady_clockENS_11wait_traitsIS5_EEEEED2Ev
	.section	.text._ZN4asio6detail11timer_queueINS0_18chrono_time_traitsINSt6chrono3_V212steady_clockENS_11wait_traitsIS5_EEEEED0Ev,"axG",@progbits,_ZN4asio6detail11timer_queueINS0_18chrono_time_traitsINSt6chrono3_V212steady_clockENS_11wait_traitsIS5_EEEEED5Ev,comdat
	.align	2
	.p2align 4,,11
	.weak	_ZN4asio6detail11timer_queueINS0_18chrono_time_traitsINSt6chrono3_V212steady_clockENS_11wait_traitsIS5_EEEEED0Ev
	.type	_ZN4asio6detail11timer_queueINS0_18chrono_time_traitsINSt6chrono3_V212steady_clockENS_11wait_traitsIS5_EEEEED0Ev, %function
_ZN4asio6detail11timer_queueINS0_18chrono_time_traitsINSt6chrono3_V212steady_clockENS_11wait_traitsIS5_EEEEED0Ev:
.LFB9324:
	.cfi_startproc
	stp	x29, x30, [sp, -32]!
	.cfi_def_cfa_offset 32
	.cfi_offset 29, -32
	.cfi_offset 30, -24
	adrp	x1, :got:_ZTVN4asio6detail11timer_queueINS0_18chrono_time_traitsINSt6chrono3_V212steady_clockENS_11wait_traitsIS5_EEEEEE
	mov	x3, x0
	mov	x29, sp
	ldr	x2, [x1, #:got_lo12:_ZTVN4asio6detail11timer_queueINS0_18chrono_time_traitsINSt6chrono3_V212steady_clockENS_11wait_traitsIS5_EEEEEE]
	str	x19, [sp, 16]
	.cfi_offset 19, -16
	mov	x19, x0
	ldr	x0, [x0, 24]
	add	x2, x2, 16
	str	x2, [x3], 24
	cbz	x0, .L31
	ldr	x1, [x3, 16]
	sub	x1, x1, x0
	bl	_ZdlPvm
.L31:
	mov	x0, x19
	mov	x1, 48
	ldr	x19, [sp, 16]
	ldp	x29, x30, [sp], 32
	.cfi_restore 30
	.cfi_restore 29
	.cfi_restore 19
	.cfi_def_cfa_offset 0
	b	_ZdlPvm
	.cfi_endproc
.LFE9324:
	.size	_ZN4asio6detail11timer_queueINS0_18chrono_time_traitsINSt6chrono3_V212steady_clockENS_11wait_traitsIS5_EEEEED0Ev, .-_ZN4asio6detail11timer_queueINS0_18chrono_time_traitsINSt6chrono3_V212steady_clockENS_11wait_traitsIS5_EEEEED0Ev
	.section	.text._ZN4asio22waitable_timer_serviceINSt6chrono3_V212steady_clockENS_11wait_traitsIS3_EEED0Ev,"axG",@progbits,_ZN4asio22waitable_timer_serviceINSt6chrono3_V212steady_clockENS_11wait_traitsIS3_EEED5Ev,comdat
	.align	2
	.p2align 4,,11
	.weak	_ZN4asio22waitable_timer_serviceINSt6chrono3_V212steady_clockENS_11wait_traitsIS3_EEED0Ev
	.type	_ZN4asio22waitable_timer_serviceINSt6chrono3_V212steady_clockENS_11wait_traitsIS3_EEED0Ev, %function
_ZN4asio22waitable_timer_serviceINSt6chrono3_V212steady_clockENS_11wait_traitsIS3_EEED0Ev:
.LFB9543:
	.cfi_startproc
	stp	x29, x30, [sp, -48]!
	.cfi_def_cfa_offset 48
	.cfi_offset 29, -48
	.cfi_offset 30, -40
	adrp	x1, :got:_ZTVN4asio22waitable_timer_serviceINSt6chrono3_V212steady_clockENS_11wait_traitsIS3_EEEE
	mov	x29, sp
	ldr	x1, [x1, #:got_lo12:_ZTVN4asio22waitable_timer_serviceINSt6chrono3_V212steady_clockENS_11wait_traitsIS3_EEEE]
	stp	x19, x20, [sp, 16]
	.cfi_offset 19, -32
	.cfi_offset 20, -24
	mov	x19, x0
	stp	x21, x22, [sp, 32]
	.cfi_offset 21, -16
	.cfi_offset 22, -8
	add	x1, x1, 16
	mov	x20, x0
	str	x1, [x19], 40
	ldr	x21, [x19, 48]
	add	x22, x21, 48
	mov	x0, x22
	bl	pthread_mutex_lock
	ldr	x1, [x21, 112]
	cbz	x1, .L37
	cmp	x19, x1
	bne	.L38
	b	.L50
	.p2align 2,,3
.L39:
	cmp	x19, x1
	beq	.L51
.L38:
	mov	x0, x1
	ldr	x1, [x1, 8]
	cbnz	x1, .L39
.L37:
	mov	x0, x22
	bl	pthread_mutex_unlock
	adrp	x2, :got:_ZTVN4asio6detail11timer_queueINS0_18chrono_time_traitsINSt6chrono3_V212steady_clockENS_11wait_traitsIS5_EEEEEE
	ldr	x0, [x20, 64]
	ldr	x2, [x2, #:got_lo12:_ZTVN4asio6detail11timer_queueINS0_18chrono_time_traitsINSt6chrono3_V212steady_clockENS_11wait_traitsIS5_EEEEEE]
	add	x2, x2, 16
	str	x2, [x20, 40]
	cbz	x0, .L40
	ldr	x1, [x20, 80]
	sub	x1, x1, x0
	bl	_ZdlPvm
.L40:
	mov	x0, x20
	mov	x1, 96
	ldp	x19, x20, [sp, 16]
	ldp	x21, x22, [sp, 32]
	ldp	x29, x30, [sp], 48
	.cfi_remember_state
	.cfi_restore 30
	.cfi_restore 29
	.cfi_restore 21
	.cfi_restore 22
	.cfi_restore 19
	.cfi_restore 20
	.cfi_def_cfa_offset 0
	b	_ZdlPvm
	.p2align 2,,3
.L51:
	.cfi_restore_state
	ldr	x1, [x19, 8]
	str	x1, [x0, 8]
	str	xzr, [x19, 8]
	b	.L37
	.p2align 2,,3
.L50:
	ldr	x0, [x19, 8]
	str	x0, [x21, 112]
	str	xzr, [x19, 8]
	b	.L37
	.cfi_endproc
.LFE9543:
	.size	_ZN4asio22waitable_timer_serviceINSt6chrono3_V212steady_clockENS_11wait_traitsIS3_EEED0Ev, .-_ZN4asio22waitable_timer_serviceINSt6chrono3_V212steady_clockENS_11wait_traitsIS3_EEED0Ev
	.section	.text._ZNK4asio6detail11timer_queueINS0_18chrono_time_traitsINSt6chrono3_V212steady_clockENS_11wait_traitsIS5_EEEEE18wait_duration_usecEl,"axG",@progbits,_ZNK4asio6detail11timer_queueINS0_18chrono_time_traitsINSt6chrono3_V212steady_clockENS_11wait_traitsIS5_EEEEE18wait_duration_usecEl,comdat
	.align	2
	.p2align 4,,11
	.weak	_ZNK4asio6detail11timer_queueINS0_18chrono_time_traitsINSt6chrono3_V212steady_clockENS_11wait_traitsIS5_EEEEE18wait_duration_usecEl
	.type	_ZNK4asio6detail11timer_queueINS0_18chrono_time_traitsINSt6chrono3_V212steady_clockENS_11wait_traitsIS5_EEEEE18wait_duration_usecEl, %function
_ZNK4asio6detail11timer_queueINS0_18chrono_time_traitsINSt6chrono3_V212steady_clockENS_11wait_traitsIS5_EEEEE18wait_duration_usecEl:
.LFB9655:
	.cfi_startproc
	stp	x29, x30, [sp, -32]!
	.cfi_def_cfa_offset 32
	.cfi_offset 29, -32
	.cfi_offset 30, -24
	mov	x29, sp
	stp	x19, x20, [sp, 16]
	.cfi_offset 19, -16
	.cfi_offset 20, -8
	mov	x19, x1
	ldp	x20, x0, [x0, 24]
	cmp	x0, x20
	beq	.L60
	bl	_ZNSt6chrono3_V212steady_clock3nowEv
	mov	x1, x0
	ldr	x2, [x20]
	tbnz	x2, #63, .L54
	tbnz	x0, #63, .L55
.L68:
	sub	x2, x2, x1
	cmp	x2, 0
	ble	.L64
	mov	x0, 63439
	movk	x0, 0xe353, lsl 16
	movk	x0, 0x9ba5, lsl 32
	movk	x0, 0x20c4, lsl 48
	smulh	x0, x2, x0
	asr	x0, x0, 7
	sub	x2, x0, x2, asr 63
.L58:
	mov	x0, 1
	cbz	x2, .L52
.L57:
	cmp	x19, x2
	csel	x0, x19, x2, le
.L52:
	ldp	x19, x20, [sp, 16]
	ldp	x29, x30, [sp], 32
	.cfi_remember_state
	.cfi_restore 30
	.cfi_restore 29
	.cfi_restore 19
	.cfi_restore 20
	.cfi_def_cfa_offset 0
	ret
	.p2align 2,,3
.L54:
	.cfi_restore_state
	mov	x0, 0
	tbnz	x1, #63, .L68
	ldp	x19, x20, [sp, 16]
	ldp	x29, x30, [sp], 32
	.cfi_remember_state
	.cfi_restore 30
	.cfi_restore 29
	.cfi_restore 19
	.cfi_restore 20
	.cfi_def_cfa_offset 0
	ret
	.p2align 2,,3
.L60:
	.cfi_restore_state
	mov	x0, x1
	ldp	x19, x20, [sp, 16]
	ldp	x29, x30, [sp], 32
	.cfi_remember_state
	.cfi_restore 30
	.cfi_restore 29
	.cfi_restore 19
	.cfi_restore 20
	.cfi_def_cfa_offset 0
	ret
	.p2align 2,,3
.L55:
	.cfi_restore_state
	mov	x0, -9223372036854775808
	cmp	x1, x0
	beq	.L62
	mov	x3, 9223372036854775807
	neg	x0, x1
	sub	x3, x3, x2
	cmp	x3, x0
	blt	.L62
	sub	x2, x2, x1
	mov	x0, 63439
	movk	x0, 0xe353, lsl 16
	lsr	x2, x2, 3
	movk	x0, 0x9ba5, lsl 32
	movk	x0, 0x20c4, lsl 48
	umulh	x2, x2, x0
	lsr	x2, x2, 4
	b	.L58
	.p2align 2,,3
.L62:
	mov	x2, 21495
	movk	x2, 0xa5e3, lsl 16
	movk	x2, 0xc49b, lsl 32
	movk	x2, 0x20, lsl 48
	b	.L57
	.p2align 2,,3
.L64:
	mov	x0, 0
	b	.L52
	.cfi_endproc
.LFE9655:
	.size	_ZNK4asio6detail11timer_queueINS0_18chrono_time_traitsINSt6chrono3_V212steady_clockENS_11wait_traitsIS5_EEEEE18wait_duration_usecEl, .-_ZNK4asio6detail11timer_queueINS0_18chrono_time_traitsINSt6chrono3_V212steady_clockENS_11wait_traitsIS5_EEEEE18wait_duration_usecEl
	.section	.text._ZN4asio6detail15system_categoryD2Ev,"axG",@progbits,_ZN4asio6detail15system_categoryD5Ev,comdat
	.align	2
	.p2align 4,,11
	.weak	_ZN4asio6detail15system_categoryD2Ev
	.type	_ZN4asio6detail15system_categoryD2Ev, %function
_ZN4asio6detail15system_categoryD2Ev:
.LFB9577:
	.cfi_startproc
	adrp	x1, :got:_ZTVN4asio6detail15system_categoryE
	ldr	x1, [x1, #:got_lo12:_ZTVN4asio6detail15system_categoryE]
	add	x1, x1, 16
	str	x1, [x0]
	b	_ZNSt3_V214error_categoryD2Ev
	.cfi_endproc
.LFE9577:
	.size	_ZN4asio6detail15system_categoryD2Ev, .-_ZN4asio6detail15system_categoryD2Ev
	.weak	_ZN4asio6detail15system_categoryD1Ev
	.set	_ZN4asio6detail15system_categoryD1Ev,_ZN4asio6detail15system_categoryD2Ev
	.section	.text._ZN4asio6detail15system_categoryD0Ev,"axG",@progbits,_ZN4asio6detail15system_categoryD5Ev,comdat
	.align	2
	.p2align 4,,11
	.weak	_ZN4asio6detail15system_categoryD0Ev
	.type	_ZN4asio6detail15system_categoryD0Ev, %function
_ZN4asio6detail15system_categoryD0Ev:
.LFB9579:
	.cfi_startproc
	stp	x29, x30, [sp, -32]!
	.cfi_def_cfa_offset 32
	.cfi_offset 29, -32
	.cfi_offset 30, -24
	adrp	x1, :got:_ZTVN4asio6detail15system_categoryE
	mov	x29, sp
	ldr	x1, [x1, #:got_lo12:_ZTVN4asio6detail15system_categoryE]
	str	x19, [sp, 16]
	.cfi_offset 19, -16
	mov	x19, x0
	add	x1, x1, 16
	str	x1, [x0]
	bl	_ZNSt3_V214error_categoryD2Ev
	mov	x0, x19
	mov	x1, 8
	ldr	x19, [sp, 16]
	ldp	x29, x30, [sp], 32
	.cfi_restore 30
	.cfi_restore 29
	.cfi_restore 19
	.cfi_def_cfa_offset 0
	b	_ZdlPvm
	.cfi_endproc
.LFE9579:
	.size	_ZN4asio6detail15system_categoryD0Ev, .-_ZN4asio6detail15system_categoryD0Ev
	.section	.text._ZN4asio5error6detail14netdb_categoryD2Ev,"axG",@progbits,_ZN4asio5error6detail14netdb_categoryD5Ev,comdat
	.align	2
	.p2align 4,,11
	.weak	_ZN4asio5error6detail14netdb_categoryD2Ev
	.type	_ZN4asio5error6detail14netdb_categoryD2Ev, %function
_ZN4asio5error6detail14netdb_categoryD2Ev:
.LFB9573:
	.cfi_startproc
	adrp	x1, :got:_ZTVN4asio5error6detail14netdb_categoryE
	ldr	x1, [x1, #:got_lo12:_ZTVN4asio5error6detail14netdb_categoryE]
	add	x1, x1, 16
	str	x1, [x0]
	b	_ZNSt3_V214error_categoryD2Ev
	.cfi_endproc
.LFE9573:
	.size	_ZN4asio5error6detail14netdb_categoryD2Ev, .-_ZN4asio5error6detail14netdb_categoryD2Ev
	.weak	_ZN4asio5error6detail14netdb_categoryD1Ev
	.set	_ZN4asio5error6detail14netdb_categoryD1Ev,_ZN4asio5error6detail14netdb_categoryD2Ev
	.section	.text._ZN4asio5error6detail14netdb_categoryD0Ev,"axG",@progbits,_ZN4asio5error6detail14netdb_categoryD5Ev,comdat
	.align	2
	.p2align 4,,11
	.weak	_ZN4asio5error6detail14netdb_categoryD0Ev
	.type	_ZN4asio5error6detail14netdb_categoryD0Ev, %function
_ZN4asio5error6detail14netdb_categoryD0Ev:
.LFB9575:
	.cfi_startproc
	stp	x29, x30, [sp, -32]!
	.cfi_def_cfa_offset 32
	.cfi_offset 29, -32
	.cfi_offset 30, -24
	adrp	x1, :got:_ZTVN4asio5error6detail14netdb_categoryE
	mov	x29, sp
	ldr	x1, [x1, #:got_lo12:_ZTVN4asio5error6detail14netdb_categoryE]
	str	x19, [sp, 16]
	.cfi_offset 19, -16
	mov	x19, x0
	add	x1, x1, 16
	str	x1, [x0]
	bl	_ZNSt3_V214error_categoryD2Ev
	mov	x0, x19
	mov	x1, 8
	ldr	x19, [sp, 16]
	ldp	x29, x30, [sp], 32
	.cfi_restore 30
	.cfi_restore 29
	.cfi_restore 19
	.cfi_def_cfa_offset 0
	b	_ZdlPvm
	.cfi_endproc
.LFE9575:
	.size	_ZN4asio5error6detail14netdb_categoryD0Ev, .-_ZN4asio5error6detail14netdb_categoryD0Ev
	.section	.text._ZN4asio5error6detail17addrinfo_categoryD2Ev,"axG",@progbits,_ZN4asio5error6detail17addrinfo_categoryD5Ev,comdat
	.align	2
	.p2align 4,,11
	.weak	_ZN4asio5error6detail17addrinfo_categoryD2Ev
	.type	_ZN4asio5error6detail17addrinfo_categoryD2Ev, %function
_ZN4asio5error6detail17addrinfo_categoryD2Ev:
.LFB9569:
	.cfi_startproc
	adrp	x1, :got:_ZTVN4asio5error6detail17addrinfo_categoryE
	ldr	x1, [x1, #:got_lo12:_ZTVN4asio5error6detail17addrinfo_categoryE]
	add	x1, x1, 16
	str	x1, [x0]
	b	_ZNSt3_V214error_categoryD2Ev
	.cfi_endproc
.LFE9569:
	.size	_ZN4asio5error6detail17addrinfo_categoryD2Ev, .-_ZN4asio5error6detail17addrinfo_categoryD2Ev
	.weak	_ZN4asio5error6detail17addrinfo_categoryD1Ev
	.set	_ZN4asio5error6detail17addrinfo_categoryD1Ev,_ZN4asio5error6detail17addrinfo_categoryD2Ev
	.section	.text._ZN4asio5error6detail17addrinfo_categoryD0Ev,"axG",@progbits,_ZN4asio5error6detail17addrinfo_categoryD5Ev,comdat
	.align	2
	.p2align 4,,11
	.weak	_ZN4asio5error6detail17addrinfo_categoryD0Ev
	.type	_ZN4asio5error6detail17addrinfo_categoryD0Ev, %function
_ZN4asio5error6detail17addrinfo_categoryD0Ev:
.LFB9571:
	.cfi_startproc
	stp	x29, x30, [sp, -32]!
	.cfi_def_cfa_offset 32
	.cfi_offset 29, -32
	.cfi_offset 30, -24
	adrp	x1, :got:_ZTVN4asio5error6detail17addrinfo_categoryE
	mov	x29, sp
	ldr	x1, [x1, #:got_lo12:_ZTVN4asio5error6detail17addrinfo_categoryE]
	str	x19, [sp, 16]
	.cfi_offset 19, -16
	mov	x19, x0
	add	x1, x1, 16
	str	x1, [x0]
	bl	_ZNSt3_V214error_categoryD2Ev
	mov	x0, x19
	mov	x1, 8
	ldr	x19, [sp, 16]
	ldp	x29, x30, [sp], 32
	.cfi_restore 30
	.cfi_restore 29
	.cfi_restore 19
	.cfi_def_cfa_offset 0
	b	_ZdlPvm
	.cfi_endproc
.LFE9571:
	.size	_ZN4asio5error6detail17addrinfo_categoryD0Ev, .-_ZN4asio5error6detail17addrinfo_categoryD0Ev
	.section	.text._ZN4asio5error6detail13misc_categoryD2Ev,"axG",@progbits,_ZN4asio5error6detail13misc_categoryD5Ev,comdat
	.align	2
	.p2align 4,,11
	.weak	_ZN4asio5error6detail13misc_categoryD2Ev
	.type	_ZN4asio5error6detail13misc_categoryD2Ev, %function
_ZN4asio5error6detail13misc_categoryD2Ev:
.LFB9565:
	.cfi_startproc
	adrp	x1, :got:_ZTVN4asio5error6detail13misc_categoryE
	ldr	x1, [x1, #:got_lo12:_ZTVN4asio5error6detail13misc_categoryE]
	add	x1, x1, 16
	str	x1, [x0]
	b	_ZNSt3_V214error_categoryD2Ev
	.cfi_endproc
.LFE9565:
	.size	_ZN4asio5error6detail13misc_categoryD2Ev, .-_ZN4asio5error6detail13misc_categoryD2Ev
	.weak	_ZN4asio5error6detail13misc_categoryD1Ev
	.set	_ZN4asio5error6detail13misc_categoryD1Ev,_ZN4asio5error6detail13misc_categoryD2Ev
	.section	.text._ZN4asio5error6detail13misc_categoryD0Ev,"axG",@progbits,_ZN4asio5error6detail13misc_categoryD5Ev,comdat
	.align	2
	.p2align 4,,11
	.weak	_ZN4asio5error6detail13misc_categoryD0Ev
	.type	_ZN4asio5error6detail13misc_categoryD0Ev, %function
_ZN4asio5error6detail13misc_categoryD0Ev:
.LFB9567:
	.cfi_startproc
	stp	x29, x30, [sp, -32]!
	.cfi_def_cfa_offset 32
	.cfi_offset 29, -32
	.cfi_offset 30, -24
	adrp	x1, :got:_ZTVN4asio5error6detail13misc_categoryE
	mov	x29, sp
	ldr	x1, [x1, #:got_lo12:_ZTVN4asio5error6detail13misc_categoryE]
	str	x19, [sp, 16]
	.cfi_offset 19, -16
	mov	x19, x0
	add	x1, x1, 16
	str	x1, [x0]
	bl	_ZNSt3_V214error_categoryD2Ev
	mov	x0, x19
	mov	x1, 8
	ldr	x19, [sp, 16]
	ldp	x29, x30, [sp], 32
	.cfi_restore 30
	.cfi_restore 29
	.cfi_restore 19
	.cfi_def_cfa_offset 0
	b	_ZdlPvm
	.cfi_endproc
.LFE9567:
	.size	_ZN4asio5error6detail13misc_categoryD0Ev, .-_ZN4asio5error6detail13misc_categoryD0Ev
	.text
	.align	2
	.p2align 4,,11
	.type	_ZNSt6thread11_State_implINS_8_InvokerISt5tupleIJZN7asiopal10ThreadPoolC4ERKN7openpal6LoggerERKSt10shared_ptrINS3_2IOEEjSt8functionIFvvEESG_EUlvE0_EEEEED2Ev, %function
_ZNSt6thread11_State_implINS_8_InvokerISt5tupleIJZN7asiopal10ThreadPoolC4ERKN7openpal6LoggerERKSt10shared_ptrINS3_2IOEEjSt8functionIFvvEESG_EUlvE0_EEEEED2Ev:
.LFB9517:
	.cfi_startproc
	adrp	x1, .LANCHOR0
	add	x1, x1, :lo12:.LANCHOR0
	add	x1, x1, 16
	str	x1, [x0]
	b	_ZNSt6thread6_StateD2Ev
	.cfi_endproc
.LFE9517:
	.size	_ZNSt6thread11_State_implINS_8_InvokerISt5tupleIJZN7asiopal10ThreadPoolC4ERKN7openpal6LoggerERKSt10shared_ptrINS3_2IOEEjSt8functionIFvvEESG_EUlvE0_EEEEED2Ev, .-_ZNSt6thread11_State_implINS_8_InvokerISt5tupleIJZN7asiopal10ThreadPoolC4ERKN7openpal6LoggerERKSt10shared_ptrINS3_2IOEEjSt8functionIFvvEESG_EUlvE0_EEEEED2Ev
	.set	_ZNSt6thread11_State_implINS_8_InvokerISt5tupleIJZN7asiopal10ThreadPoolC4ERKN7openpal6LoggerERKSt10shared_ptrINS3_2IOEEjSt8functionIFvvEESG_EUlvE0_EEEEED1Ev,_ZNSt6thread11_State_implINS_8_InvokerISt5tupleIJZN7asiopal10ThreadPoolC4ERKN7openpal6LoggerERKSt10shared_ptrINS3_2IOEEjSt8functionIFvvEESG_EUlvE0_EEEEED2Ev
	.align	2
	.p2align 4,,11
	.type	_ZNSt6thread11_State_implINS_8_InvokerISt5tupleIJZN7asiopal10ThreadPoolC4ERKN7openpal6LoggerERKSt10shared_ptrINS3_2IOEEjSt8functionIFvvEESG_EUlvE0_EEEEED0Ev, %function
_ZNSt6thread11_State_implINS_8_InvokerISt5tupleIJZN7asiopal10ThreadPoolC4ERKN7openpal6LoggerERKSt10shared_ptrINS3_2IOEEjSt8functionIFvvEESG_EUlvE0_EEEEED0Ev:
.LFB9519:
	.cfi_startproc
	stp	x29, x30, [sp, -32]!
	.cfi_def_cfa_offset 32
	.cfi_offset 29, -32
	.cfi_offset 30, -24
	adrp	x1, .LANCHOR0
	add	x1, x1, :lo12:.LANCHOR0
	mov	x29, sp
	add	x1, x1, 16
	str	x19, [sp, 16]
	.cfi_offset 19, -16
	str	x1, [x0]
	mov	x19, x0
	bl	_ZNSt6thread6_StateD2Ev
	mov	x0, x19
	mov	x1, 24
	ldr	x19, [sp, 16]
	ldp	x29, x30, [sp], 32
	.cfi_restore 30
	.cfi_restore 29
	.cfi_restore 19
	.cfi_def_cfa_offset 0
	b	_ZdlPvm
	.cfi_endproc
.LFE9519:
	.size	_ZNSt6thread11_State_implINS_8_InvokerISt5tupleIJZN7asiopal10ThreadPoolC4ERKN7openpal6LoggerERKSt10shared_ptrINS3_2IOEEjSt8functionIFvvEESG_EUlvE0_EEEEED0Ev, .-_ZNSt6thread11_State_implINS_8_InvokerISt5tupleIJZN7asiopal10ThreadPoolC4ERKN7openpal6LoggerERKSt10shared_ptrINS3_2IOEEjSt8functionIFvvEESG_EUlvE0_EEEEED0Ev
	.section	.text._ZN4asio6detail7tss_ptrINS0_10call_stackINS0_15task_io_serviceENS0_27task_io_service_thread_infoEE7contextEED2Ev,"axG",@progbits,_ZN4asio6detail7tss_ptrINS0_10call_stackINS0_15task_io_serviceENS0_27task_io_service_thread_infoEE7contextEED5Ev,comdat
	.align	2
	.p2align 4,,11
	.weak	_ZN4asio6detail7tss_ptrINS0_10call_stackINS0_15task_io_serviceENS0_27task_io_service_thread_infoEE7contextEED2Ev
	.type	_ZN4asio6detail7tss_ptrINS0_10call_stackINS0_15task_io_serviceENS0_27task_io_service_thread_infoEE7contextEED2Ev, %function
_ZN4asio6detail7tss_ptrINS0_10call_stackINS0_15task_io_serviceENS0_27task_io_service_thread_infoEE7contextEED2Ev:
.LFB9598:
	.cfi_startproc
	ldr	w0, [x0]
	b	pthread_key_delete
	.cfi_endproc
.LFE9598:
	.size	_ZN4asio6detail7tss_ptrINS0_10call_stackINS0_15task_io_serviceENS0_27task_io_service_thread_infoEE7contextEED2Ev, .-_ZN4asio6detail7tss_ptrINS0_10call_stackINS0_15task_io_serviceENS0_27task_io_service_thread_infoEE7contextEED2Ev
	.weak	_ZN4asio6detail7tss_ptrINS0_10call_stackINS0_15task_io_serviceENS0_27task_io_service_thread_infoEE7contextEED1Ev
	.set	_ZN4asio6detail7tss_ptrINS0_10call_stackINS0_15task_io_serviceENS0_27task_io_service_thread_infoEE7contextEED1Ev,_ZN4asio6detail7tss_ptrINS0_10call_stackINS0_15task_io_serviceENS0_27task_io_service_thread_infoEE7contextEED2Ev
	.section	.text._ZN4asio6detail7tss_ptrINS0_10call_stackINS0_14strand_service11strand_implEhE7contextEED2Ev,"axG",@progbits,_ZN4asio6detail7tss_ptrINS0_10call_stackINS0_14strand_service11strand_implEhE7contextEED5Ev,comdat
	.align	2
	.p2align 4,,11
	.weak	_ZN4asio6detail7tss_ptrINS0_10call_stackINS0_14strand_service11strand_implEhE7contextEED2Ev
	.type	_ZN4asio6detail7tss_ptrINS0_10call_stackINS0_14strand_service11strand_implEhE7contextEED2Ev, %function
_ZN4asio6detail7tss_ptrINS0_10call_stackINS0_14strand_service11strand_implEhE7contextEED2Ev:
.LFB9607:
	.cfi_startproc
	ldr	w0, [x0]
	b	pthread_key_delete
	.cfi_endproc
.LFE9607:
	.size	_ZN4asio6detail7tss_ptrINS0_10call_stackINS0_14strand_service11strand_implEhE7contextEED2Ev, .-_ZN4asio6detail7tss_ptrINS0_10call_stackINS0_14strand_service11strand_implEhE7contextEED2Ev
	.weak	_ZN4asio6detail7tss_ptrINS0_10call_stackINS0_14strand_service11strand_implEhE7contextEED1Ev
	.set	_ZN4asio6detail7tss_ptrINS0_10call_stackINS0_14strand_service11strand_implEhE7contextEED1Ev,_ZN4asio6detail7tss_ptrINS0_10call_stackINS0_14strand_service11strand_implEhE7contextEED2Ev
	.section	.text._ZN4asio22waitable_timer_serviceINSt6chrono3_V212steady_clockENS_11wait_traitsIS3_EEED2Ev,"axG",@progbits,_ZN4asio22waitable_timer_serviceINSt6chrono3_V212steady_clockENS_11wait_traitsIS3_EEED5Ev,comdat
	.align	2
	.p2align 4,,11
	.weak	_ZN4asio22waitable_timer_serviceINSt6chrono3_V212steady_clockENS_11wait_traitsIS3_EEED2Ev
	.type	_ZN4asio22waitable_timer_serviceINSt6chrono3_V212steady_clockENS_11wait_traitsIS3_EEED2Ev, %function
_ZN4asio22waitable_timer_serviceINSt6chrono3_V212steady_clockENS_11wait_traitsIS3_EEED2Ev:
.LFB9541:
	.cfi_startproc
	stp	x29, x30, [sp, -48]!
	.cfi_def_cfa_offset 48
	.cfi_offset 29, -48
	.cfi_offset 30, -40
	adrp	x1, :got:_ZTVN4asio22waitable_timer_serviceINSt6chrono3_V212steady_clockENS_11wait_traitsIS3_EEEE
	mov	x29, sp
	ldr	x1, [x1, #:got_lo12:_ZTVN4asio22waitable_timer_serviceINSt6chrono3_V212steady_clockENS_11wait_traitsIS3_EEEE]
	stp	x19, x20, [sp, 16]
	.cfi_offset 19, -32
	.cfi_offset 20, -24
	mov	x19, x0
	stp	x21, x22, [sp, 32]
	.cfi_offset 21, -16
	.cfi_offset 22, -8
	add	x1, x1, 16
	mov	x20, x0
	str	x1, [x19], 40
	ldr	x21, [x19, 48]
	add	x22, x21, 48
	mov	x0, x22
	bl	pthread_mutex_lock
	ldr	x1, [x21, 112]
	cbz	x1, .L88
	cmp	x19, x1
	bne	.L89
	b	.L98
	.p2align 2,,3
.L90:
	cmp	x19, x1
	beq	.L99
.L89:
	mov	x0, x1
	ldr	x1, [x1, 8]
	cbnz	x1, .L90
.L88:
	mov	x0, x22
	bl	pthread_mutex_unlock
	adrp	x2, :got:_ZTVN4asio6detail11timer_queueINS0_18chrono_time_traitsINSt6chrono3_V212steady_clockENS_11wait_traitsIS5_EEEEEE
	ldr	x0, [x20, 64]
	ldr	x2, [x2, #:got_lo12:_ZTVN4asio6detail11timer_queueINS0_18chrono_time_traitsINSt6chrono3_V212steady_clockENS_11wait_traitsIS5_EEEEEE]
	add	x2, x2, 16
	str	x2, [x20, 40]
	cbz	x0, .L87
	ldp	x21, x22, [sp, 32]
	ldr	x1, [x20, 80]
	ldp	x19, x20, [sp, 16]
	sub	x1, x1, x0
	ldp	x29, x30, [sp], 48
	.cfi_remember_state
	.cfi_restore 30
	.cfi_restore 29
	.cfi_restore 21
	.cfi_restore 22
	.cfi_restore 19
	.cfi_restore 20
	.cfi_def_cfa_offset 0
	b	_ZdlPvm
	.p2align 2,,3
.L87:
	.cfi_restore_state
	ldp	x19, x20, [sp, 16]
	ldp	x21, x22, [sp, 32]
	ldp	x29, x30, [sp], 48
	.cfi_remember_state
	.cfi_restore 30
	.cfi_restore 29
	.cfi_restore 21
	.cfi_restore 22
	.cfi_restore 19
	.cfi_restore 20
	.cfi_def_cfa_offset 0
	ret
	.p2align 2,,3
.L99:
	.cfi_restore_state
	ldr	x1, [x19, 8]
	str	x1, [x0, 8]
	str	xzr, [x19, 8]
	b	.L88
	.p2align 2,,3
.L98:
	ldr	x0, [x19, 8]
	str	x0, [x21, 112]
	str	xzr, [x19, 8]
	b	.L88
	.cfi_endproc
.LFE9541:
	.size	_ZN4asio22waitable_timer_serviceINSt6chrono3_V212steady_clockENS_11wait_traitsIS3_EEED2Ev, .-_ZN4asio22waitable_timer_serviceINSt6chrono3_V212steady_clockENS_11wait_traitsIS3_EEED2Ev
	.weak	_ZN4asio22waitable_timer_serviceINSt6chrono3_V212steady_clockENS_11wait_traitsIS3_EEED1Ev
	.set	_ZN4asio22waitable_timer_serviceINSt6chrono3_V212steady_clockENS_11wait_traitsIS3_EEED1Ev,_ZN4asio22waitable_timer_serviceINSt6chrono3_V212steady_clockENS_11wait_traitsIS3_EEED2Ev
	.global	__aarch64_swp4_sync
	.text
	.align	2
	.p2align 4,,11
	.type	_ZN4asio6detail12wait_handlerIZN7asiopal10ThreadPoolC4ERKN7openpal6LoggerERKSt10shared_ptrINS2_2IOEEjSt8functionIFvvEESF_EUlRKSt10error_codeE_E11do_completeEPNS0_15task_io_serviceEPNS0_25task_io_service_operationESI_m, %function
_ZN4asio6detail12wait_handlerIZN7asiopal10ThreadPoolC4ERKN7openpal6LoggerERKSt10shared_ptrINS2_2IOEEjSt8functionIFvvEESF_EUlRKSt10error_codeE_E11do_completeEPNS0_15task_io_serviceEPNS0_25task_io_service_operationESI_m:
.LFB8972:
	.cfi_startproc
	stp	x29, x30, [sp, -48]!
	.cfi_def_cfa_offset 48
	.cfi_offset 29, -48
	.cfi_offset 30, -40
	adrp	x3, :got:_ZN4asio6detail10call_stackINS0_15task_io_serviceENS0_27task_io_service_thread_infoEE4top_E
	adrp	x2, :got:__stack_chk_guard
	mov	x29, sp
	ldr	x3, [x3, #:got_lo12:_ZN4asio6detail10call_stackINS0_15task_io_serviceENS0_27task_io_service_thread_infoEE4top_E]
	stp	x19, x20, [sp, 16]
	.cfi_offset 19, -32
	.cfi_offset 20, -24
	mov	x19, x0
	ldr	x2, [x2, #:got_lo12:__stack_chk_guard]
	mov	x20, x1
	ldr	w0, [x3]
	ldr	x1, [x2]
	str	x1, [sp, 40]
	mov	x1, 0
	bl	pthread_getspecific
	cbz	x0, .L101
	ldr	x0, [x0, 8]
	cbz	x0, .L101
	ldr	x1, [x0]
	cbz	x1, .L115
.L101:
	mov	x0, x20
	bl	_ZdlPv
.L102:
	cbz	x19, .L100
	add	x19, sp, 32
	mov	w0, 1
	mov	x1, x19
	str	wzr, [sp, 32]
	bl	__aarch64_swp4_sync
	stlr	wzr, [x19]
.L100:
	adrp	x0, :got:__stack_chk_guard
	ldr	x0, [x0, #:got_lo12:__stack_chk_guard]
	ldr	x2, [sp, 40]
	ldr	x1, [x0]
	subs	x2, x2, x1
	mov	x1, 0
	bne	.L116
	ldp	x19, x20, [sp, 16]
	ldp	x29, x30, [sp], 48
	.cfi_remember_state
	.cfi_restore 30
	.cfi_restore 29
	.cfi_restore 19
	.cfi_restore 20
	.cfi_def_cfa_offset 0
	ret
	.p2align 2,,3
.L115:
	.cfi_restore_state
	ldrb	w1, [x20, 48]
	strb	w1, [x20]
	str	x20, [x0]
	b	.L102
.L116:
	bl	__stack_chk_fail
	.cfi_endproc
.LFE8972:
	.size	_ZN4asio6detail12wait_handlerIZN7asiopal10ThreadPoolC4ERKN7openpal6LoggerERKSt10shared_ptrINS2_2IOEEjSt8functionIFvvEESF_EUlRKSt10error_codeE_E11do_completeEPNS0_15task_io_serviceEPNS0_25task_io_service_operationESI_m, .-_ZN4asio6detail12wait_handlerIZN7asiopal10ThreadPoolC4ERKN7openpal6LoggerERKSt10shared_ptrINS2_2IOEEjSt8functionIFvvEESF_EUlRKSt10error_codeE_E11do_completeEPNS0_15task_io_serviceEPNS0_25task_io_service_operationESI_m
	.section	.text._ZN4asio6detail13epoll_reactorD2Ev,"axG",@progbits,_ZN4asio6detail13epoll_reactorD5Ev,comdat
	.align	2
	.p2align 4,,11
	.weak	_ZN4asio6detail13epoll_reactorD2Ev
	.type	_ZN4asio6detail13epoll_reactorD2Ev, %function
_ZN4asio6detail13epoll_reactorD2Ev:
.LFB3461:
	.cfi_startproc
	.cfi_personality 0x9b,DW.ref.__gxx_personality_v0
	.cfi_lsda 0x1b,.LLSDA3461
	stp	x29, x30, [sp, -128]!
	.cfi_def_cfa_offset 128
	.cfi_offset 29, -128
	.cfi_offset 30, -120
	adrp	x2, :got:__stack_chk_guard
	adrp	x1, :got:_ZTVN4asio6detail13epoll_reactorE
	mov	x29, sp
	ldr	x2, [x2, #:got_lo12:__stack_chk_guard]
	stp	x19, x20, [sp, 16]
	stp	x21, x22, [sp, 32]
	.cfi_offset 19, -112
	.cfi_offset 20, -104
	.cfi_offset 21, -96
	.cfi_offset 22, -88
	mov	x21, x0
	stp	x23, x24, [sp, 48]
	str	x25, [sp, 64]
	.cfi_offset 23, -80
	.cfi_offset 24, -72
	.cfi_offset 25, -64
	ldr	x1, [x1, #:got_lo12:_ZTVN4asio6detail13epoll_reactorE]
	ldr	x0, [x2]
	str	x0, [sp, 120]
	mov	x0, 0
	ldr	w0, [x21, 104]
	add	x1, x1, 16
	str	x1, [x21]
	cmn	w0, #1
	beq	.L118
	bl	close
.L118:
	ldr	w0, [x21, 108]
	cmn	w0, #1
	beq	.L119
	bl	close
.L119:
	ldr	x24, [x21, 176]
	add	x22, sp, 104
	cbz	x24, .L130
	.p2align 3,,7
.L120:
	mov	x23, x24
	add	x19, x24, 136
	add	x25, x24, 88
	ldr	x24, [x24, 24]
.L125:
	ldr	x1, [x19]
	cbz	x1, .L127
	str	x1, [sp, 88]
	bl	_ZNSt3_V215system_categoryEv
	mov	x20, x0
	ldr	x1, [sp, 88]
	b	.L129
	.p2align 2,,3
.L126:
	ldr	x4, [x1, 8]
	str	xzr, [x1]
	str	wzr, [sp, 104]
	mov	x2, x22
	str	x20, [sp, 112]
	mov	x3, 0
	mov	x0, 0
	blr	x4
	ldr	x1, [x19]
	cbz	x1, .L127
.L129:
	ldr	x2, [x1]
	str	x2, [x19]
	cbnz	x2, .L126
	ldr	x4, [x1, 8]
	str	xzr, [x19, 8]
	str	xzr, [x1]
	mov	x2, x22
	str	wzr, [sp, 104]
	mov	x3, 0
	str	x20, [sp, 112]
	mov	x0, 0
	blr	x4
	ldr	x1, [x19]
	cbnz	x1, .L129
.L127:
	sub	x19, x19, #16
	cmp	x19, x25
	bne	.L125
	add	x0, x23, 40
	bl	pthread_mutex_destroy
	mov	x0, x23
	mov	x1, 160
	bl	_ZdlPvm
	cbnz	x24, .L120
.L130:
	ldr	x24, [x21, 184]
	add	x22, sp, 104
	cbz	x24, .L122
	.p2align 3,,7
.L121:
	mov	x23, x24
	add	x19, x24, 136
	add	x25, x24, 88
	ldr	x24, [x24, 24]
.L135:
	ldr	x1, [x19]
	cbz	x1, .L137
	str	x1, [sp, 88]
	bl	_ZNSt3_V215system_categoryEv
	mov	x20, x0
	ldr	x1, [sp, 88]
	b	.L139
	.p2align 2,,3
.L136:
	ldr	x4, [x1, 8]
	str	xzr, [x1]
	str	wzr, [sp, 104]
	mov	x2, x22
	str	x20, [sp, 112]
	mov	x3, 0
	mov	x0, 0
	blr	x4
	ldr	x1, [x19]
	cbz	x1, .L137
.L139:
	ldr	x2, [x1]
	str	x2, [x19]
	cbnz	x2, .L136
	ldr	x4, [x1, 8]
	str	xzr, [x19, 8]
	str	xzr, [x1]
	mov	x2, x22
	str	wzr, [sp, 104]
	mov	x3, 0
	str	x20, [sp, 112]
	mov	x0, 0
	blr	x4
	ldr	x1, [x19]
	cbnz	x1, .L139
.L137:
	sub	x19, x19, #16
	cmp	x19, x25
	bne	.L135
	add	x0, x23, 40
	bl	pthread_mutex_destroy
	mov	x0, x23
	mov	x1, 160
	bl	_ZdlPvm
	cbnz	x24, .L121
.L122:
	add	x0, x21, 128
	bl	pthread_mutex_destroy
	ldr	w1, [x21, 100]
	cmn	w1, #1
	beq	.L176
	ldr	w0, [x21, 96]
	cmp	w1, w0
	bne	.L177
.L141:
	bl	close
	b	.L142
.L177:
	mov	w0, w1
	bl	close
.L176:
	ldr	w0, [x21, 96]
	cmn	w0, #1
	bne	.L141
.L142:
	adrp	x0, :got:__stack_chk_guard
	ldr	x0, [x0, #:got_lo12:__stack_chk_guard]
	ldr	x2, [sp, 120]
	ldr	x1, [x0]
	subs	x2, x2, x1
	mov	x1, 0
	bne	.L178
	add	x0, x21, 48
	ldp	x19, x20, [sp, 16]
	ldp	x21, x22, [sp, 32]
	ldp	x23, x24, [sp, 48]
	ldr	x25, [sp, 64]
	ldp	x29, x30, [sp], 128
	.cfi_remember_state
	.cfi_restore 30
	.cfi_restore 29
	.cfi_restore 25
	.cfi_restore 23
	.cfi_restore 24
	.cfi_restore 21
	.cfi_restore 22
	.cfi_restore 19
	.cfi_restore 20
	.cfi_def_cfa_offset 0
	b	pthread_mutex_destroy
.L178:
	.cfi_restore_state
	bl	__stack_chk_fail
	.cfi_endproc
.LFE3461:
	.global	__gxx_personality_v0
	.section	.gcc_except_table._ZN4asio6detail13epoll_reactorD2Ev,"aG",@progbits,_ZN4asio6detail13epoll_reactorD5Ev,comdat
.LLSDA3461:
	.byte	0xff
	.byte	0xff
	.byte	0x1
	.uleb128 .LLSDACSE3461-.LLSDACSB3461
.LLSDACSB3461:
.LLSDACSE3461:
	.section	.text._ZN4asio6detail13epoll_reactorD2Ev,"axG",@progbits,_ZN4asio6detail13epoll_reactorD5Ev,comdat
	.size	_ZN4asio6detail13epoll_reactorD2Ev, .-_ZN4asio6detail13epoll_reactorD2Ev
	.weak	_ZN4asio6detail13epoll_reactorD1Ev
	.set	_ZN4asio6detail13epoll_reactorD1Ev,_ZN4asio6detail13epoll_reactorD2Ev
	.section	.text._ZN4asio6detail13epoll_reactorD0Ev,"axG",@progbits,_ZN4asio6detail13epoll_reactorD5Ev,comdat
	.align	2
	.p2align 4,,11
	.weak	_ZN4asio6detail13epoll_reactorD0Ev
	.type	_ZN4asio6detail13epoll_reactorD0Ev, %function
_ZN4asio6detail13epoll_reactorD0Ev:
.LFB3463:
	.cfi_startproc
	.cfi_personality 0x9b,DW.ref.__gxx_personality_v0
	.cfi_lsda 0x1b,.LLSDA3463
	stp	x29, x30, [sp, -128]!
	.cfi_def_cfa_offset 128
	.cfi_offset 29, -128
	.cfi_offset 30, -120
	adrp	x2, :got:__stack_chk_guard
	adrp	x1, :got:_ZTVN4asio6detail13epoll_reactorE
	mov	x29, sp
	ldr	x2, [x2, #:got_lo12:__stack_chk_guard]
	stp	x19, x20, [sp, 16]
	stp	x21, x22, [sp, 32]
	.cfi_offset 19, -112
	.cfi_offset 20, -104
	.cfi_offset 21, -96
	.cfi_offset 22, -88
	mov	x21, x0
	stp	x23, x24, [sp, 48]
	str	x25, [sp, 64]
	.cfi_offset 23, -80
	.cfi_offset 24, -72
	.cfi_offset 25, -64
	ldr	x1, [x1, #:got_lo12:_ZTVN4asio6detail13epoll_reactorE]
	ldr	x0, [x2]
	str	x0, [sp, 120]
	mov	x0, 0
	ldr	w0, [x21, 104]
	add	x1, x1, 16
	str	x1, [x21]
	cmn	w0, #1
	beq	.L180
	bl	close
.L180:
	ldr	w0, [x21, 108]
	cmn	w0, #1
	beq	.L181
	bl	close
.L181:
	ldr	x24, [x21, 176]
	add	x22, sp, 104
	cbz	x24, .L192
	.p2align 3,,7
.L182:
	mov	x23, x24
	add	x19, x24, 152
	add	x25, x24, 104
	ldr	x24, [x24, 24]
.L187:
	ldr	x1, [x19, -16]!
	cbz	x1, .L189
	str	x1, [sp, 88]
	bl	_ZNSt3_V215system_categoryEv
	mov	x20, x0
	ldr	x1, [sp, 88]
	b	.L191
	.p2align 2,,3
.L188:
	ldr	x4, [x1, 8]
	str	xzr, [x1]
	str	wzr, [sp, 104]
	mov	x2, x22
	str	x20, [sp, 112]
	mov	x3, 0
	mov	x0, 0
	blr	x4
	ldr	x1, [x19]
	cbz	x1, .L189
.L191:
	ldr	x2, [x1]
	str	x2, [x19]
	cbnz	x2, .L188
	ldr	x4, [x1, 8]
	str	xzr, [x19, 8]
	str	xzr, [x1]
	mov	x2, x22
	str	wzr, [sp, 104]
	mov	x3, 0
	str	x20, [sp, 112]
	mov	x0, 0
	blr	x4
	ldr	x1, [x19]
	cbnz	x1, .L191
.L189:
	cmp	x19, x25
	bne	.L187
	add	x0, x23, 40
	bl	pthread_mutex_destroy
	mov	x0, x23
	mov	x1, 160
	bl	_ZdlPvm
	cbnz	x24, .L182
.L192:
	ldr	x24, [x21, 184]
	add	x22, sp, 104
	cbz	x24, .L184
	.p2align 3,,7
.L183:
	mov	x23, x24
	add	x19, x24, 136
	add	x25, x24, 88
	ldr	x24, [x24, 24]
.L197:
	ldr	x1, [x19]
	cbz	x1, .L199
	str	x1, [sp, 88]
	bl	_ZNSt3_V215system_categoryEv
	mov	x20, x0
	ldr	x1, [sp, 88]
	b	.L201
	.p2align 2,,3
.L198:
	ldr	x4, [x1, 8]
	str	xzr, [x1]
	str	wzr, [sp, 104]
	mov	x2, x22
	str	x20, [sp, 112]
	mov	x3, 0
	mov	x0, 0
	blr	x4
	ldr	x1, [x19]
	cbz	x1, .L199
.L201:
	ldr	x2, [x1]
	str	x2, [x19]
	cbnz	x2, .L198
	ldr	x4, [x1, 8]
	str	xzr, [x19, 8]
	str	xzr, [x1]
	mov	x2, x22
	str	wzr, [sp, 104]
	mov	x3, 0
	str	x20, [sp, 112]
	mov	x0, 0
	blr	x4
	ldr	x1, [x19]
	cbnz	x1, .L201
.L199:
	sub	x19, x19, #16
	cmp	x19, x25
	bne	.L197
	add	x0, x23, 40
	bl	pthread_mutex_destroy
	mov	x0, x23
	mov	x1, 160
	bl	_ZdlPvm
	cbnz	x24, .L183
.L184:
	add	x0, x21, 128
	bl	pthread_mutex_destroy
	ldr	w1, [x21, 100]
	cmn	w1, #1
	beq	.L238
	ldr	w0, [x21, 96]
	cmp	w1, w0
	bne	.L239
.L203:
	bl	close
	b	.L204
.L239:
	mov	w0, w1
	bl	close
.L238:
	ldr	w0, [x21, 96]
	cmn	w0, #1
	bne	.L203
.L204:
	add	x0, x21, 48
	bl	pthread_mutex_destroy
	adrp	x0, :got:__stack_chk_guard
	ldr	x0, [x0, #:got_lo12:__stack_chk_guard]
	ldr	x2, [sp, 120]
	ldr	x1, [x0]
	subs	x2, x2, x1
	mov	x1, 0
	bne	.L240
	mov	x0, x21
	mov	x1, 192
	ldp	x19, x20, [sp, 16]
	ldp	x21, x22, [sp, 32]
	ldp	x23, x24, [sp, 48]
	ldr	x25, [sp, 64]
	ldp	x29, x30, [sp], 128
	.cfi_remember_state
	.cfi_restore 30
	.cfi_restore 29
	.cfi_restore 25
	.cfi_restore 23
	.cfi_restore 24
	.cfi_restore 21
	.cfi_restore 22
	.cfi_restore 19
	.cfi_restore 20
	.cfi_def_cfa_offset 0
	b	_ZdlPvm
.L240:
	.cfi_restore_state
	bl	__stack_chk_fail
	.cfi_endproc
.LFE3463:
	.section	.gcc_except_table._ZN4asio6detail13epoll_reactorD0Ev,"aG",@progbits,_ZN4asio6detail13epoll_reactorD5Ev,comdat
.LLSDA3463:
	.byte	0xff
	.byte	0xff
	.byte	0x1
	.uleb128 .LLSDACSE3463-.LLSDACSB3463
.LLSDACSB3463:
.LLSDACSE3463:
	.section	.text._ZN4asio6detail13epoll_reactorD0Ev,"axG",@progbits,_ZN4asio6detail13epoll_reactorD5Ev,comdat
	.size	_ZN4asio6detail13epoll_reactorD0Ev, .-_ZN4asio6detail13epoll_reactorD0Ev
	.section	.text._ZN4asio6detail13epoll_reactor16shutdown_serviceEv,"axG",@progbits,_ZN4asio6detail13epoll_reactor16shutdown_serviceEv,comdat
	.align	2
	.p2align 4,,11
	.weak	_ZN4asio6detail13epoll_reactor16shutdown_serviceEv
	.type	_ZN4asio6detail13epoll_reactor16shutdown_serviceEv, %function
_ZN4asio6detail13epoll_reactor16shutdown_serviceEv:
.LFB3464:
	.cfi_startproc
	.cfi_personality 0x9b,DW.ref.__gxx_personality_v0
	.cfi_lsda 0x1b,.LLSDA3464
	stp	x29, x30, [sp, -112]!
	.cfi_def_cfa_offset 112
	.cfi_offset 29, -112
	.cfi_offset 30, -104
	adrp	x1, :got:__stack_chk_guard
	mov	x29, sp
	ldr	x1, [x1, #:got_lo12:__stack_chk_guard]
	stp	x19, x20, [sp, 16]
	.cfi_offset 19, -96
	.cfi_offset 20, -88
	mov	x20, x0
	stp	x21, x22, [sp, 32]
	.cfi_offset 21, -80
	.cfi_offset 22, -72
	add	x21, x0, 48
	mov	x0, x21
	ldr	x2, [x1]
	str	x2, [sp, 104]
	mov	x2, 0
	mov	w19, 1
	bl	pthread_mutex_lock
	strb	w19, [x20, 120]
	mov	x0, x21
	bl	pthread_mutex_unlock
	movi	v0.4s, 0
	mov	x2, x20
	ldr	x1, [x2, 176]!
	str	q0, [sp, 64]
	cbz	x1, .L259
	.p2align 3,,7
.L242:
	ldr	x3, [x1, 104]
	cbz	x3, .L245
	ldr	x4, [sp, 72]
	cbz	x4, .L324
	str	x3, [x4]
.L248:
	ldr	x3, [x1, 112]
	str	x3, [sp, 72]
	str	q0, [x1, 104]
.L245:
	ldr	x3, [x1, 120]
	cbz	x3, .L249
	ldr	x4, [sp, 72]
	cbz	x4, .L325
	str	x3, [x4]
.L252:
	ldr	x3, [x1, 128]
	str	x3, [sp, 72]
	str	q0, [x1, 120]
.L249:
	ldr	x3, [x1, 136]
	cbz	x3, .L253
	ldr	x4, [sp, 72]
	cbz	x4, .L326
	str	x3, [x4]
.L256:
	ldr	x3, [x1, 144]
	str	x3, [sp, 72]
	str	q0, [x1, 136]
.L253:
	strb	w19, [x1, 152]
	ldr	x3, [x1, 24]
	str	x3, [x2]
	ldr	x3, [x1, 32]
	cbz	x3, .L257
	ldr	x4, [x1, 24]
	str	x4, [x3, 24]
.L257:
	ldr	x3, [x1, 24]
	cbz	x3, .L258
	ldr	x4, [x1, 32]
	str	x4, [x3, 32]
	ldr	x3, [x2, 8]
	stp	x3, xzr, [x1, 24]
	str	x1, [x2, 8]
	ldr	x1, [x2]
	cbnz	x1, .L242
.L259:
	ldr	x19, [x20, 112]
	adrp	x20, :got:_ZN4asio6detail11timer_queueINS0_18chrono_time_traitsINSt6chrono3_V212steady_clockENS_11wait_traitsIS5_EEEEE14get_all_timersERNS0_8op_queueINS0_25task_io_service_operationEEE
	add	x21, sp, 64
	ldr	x20, [x20, #:got_lo12:_ZN4asio6detail11timer_queueINS0_18chrono_time_traitsINSt6chrono3_V212steady_clockENS_11wait_traitsIS5_EEEEE14get_all_timersERNS0_8op_queueINS0_25task_io_service_operationEEE]
	cbz	x19, .L244
	.p2align 3,,7
.L243:
	ldr	x0, [x19]
	ldr	x2, [x0, 48]
	cmp	x2, x20
	bne	.L263
	ldr	x0, [x19, 16]
	cbnz	x0, .L264
	b	.L270
	.p2align 2,,3
.L327:
	str	x2, [x3]
.L269:
	ldr	x2, [x1, 8]
	str	x2, [sp, 72]
	stp	xzr, xzr, [x1]
.L267:
	stp	xzr, xzr, [x1, 24]
	cbz	x0, .L270
.L264:
	mov	x1, x0
	ldr	x0, [x0, 24]
	ldr	x2, [x1]
	str	x0, [x19, 16]
	cbz	x2, .L267
	ldr	x3, [sp, 72]
	cbnz	x3, .L327
	str	x2, [sp, 64]
	b	.L269
	.p2align 2,,3
.L270:
	ldr	x1, [x19, 24]
	add	x0, x19, 24
	ldr	x2, [x0, 8]
	cmp	x1, x2
	beq	.L271
	str	x1, [x0, 8]
.L271:
	ldr	x19, [x19, 8]
	cbnz	x19, .L243
.L244:
	ldr	x19, [sp, 64]
	cbz	x19, .L241
	add	x20, sp, 88
	stp	xzr, xzr, [sp, 64]
	bl	_ZNSt3_V215system_categoryEv
	mov	x21, x0
	.p2align 3,,7
.L272:
	mov	x1, x19
	mov	x2, x20
	ldr	x4, [x19, 8]
	mov	x3, 0
	ldr	x19, [x19]
	str	xzr, [x1]
	str	wzr, [sp, 88]
	mov	x0, 0
	str	x21, [sp, 96]
	blr	x4
	cbnz	x19, .L272
	ldr	x1, [sp, 64]
	str	x1, [sp, 56]
	cbz	x1, .L241
	bl	_ZNSt3_V215system_categoryEv
	mov	x19, x0
	ldr	x1, [sp, 56]
	b	.L277
	.p2align 2,,3
.L274:
	ldr	x4, [x1, 8]
	str	xzr, [x1]
	str	wzr, [sp, 88]
	mov	x2, x20
	str	x19, [sp, 96]
	mov	x3, 0
	mov	x0, 0
	blr	x4
	ldr	x1, [sp, 64]
	cbz	x1, .L241
.L277:
	ldr	x2, [x1]
	str	x2, [sp, 64]
	cbnz	x2, .L274
	ldr	x4, [x1, 8]
	str	xzr, [sp, 72]
	str	xzr, [x1]
	mov	x2, x20
	str	wzr, [sp, 88]
	mov	x3, 0
	str	x19, [sp, 96]
	mov	x0, 0
	blr	x4
	ldr	x1, [sp, 64]
	cbnz	x1, .L277
.L241:
	adrp	x0, :got:__stack_chk_guard
	ldr	x0, [x0, #:got_lo12:__stack_chk_guard]
	ldr	x2, [sp, 104]
	ldr	x1, [x0]
	subs	x2, x2, x1
	mov	x1, 0
	bne	.L328
	ldp	x19, x20, [sp, 16]
	ldp	x21, x22, [sp, 32]
	ldp	x29, x30, [sp], 112
	.cfi_remember_state
	.cfi_restore 30
	.cfi_restore 29
	.cfi_restore 21
	.cfi_restore 22
	.cfi_restore 19
	.cfi_restore 20
	.cfi_def_cfa_offset 0
	ret
	.p2align 2,,3
.L258:
	.cfi_restore_state
	ldr	x0, [x2, 8]
	stp	x0, xzr, [x1, 24]
	str	x1, [x2, 8]
	ldr	x1, [x2]
	cbnz	x1, .L242
	b	.L259
	.p2align 2,,3
.L324:
	str	x3, [sp, 64]
	b	.L248
	.p2align 2,,3
.L325:
	str	x3, [sp, 64]
	b	.L252
	.p2align 2,,3
.L326:
	str	x3, [sp, 64]
	b	.L256
	.p2align 2,,3
.L263:
	mov	x1, x21
	mov	x0, x19
.LEHB0:
	blr	x2
.LEHE0:
	b	.L271
.L328:
	bl	__stack_chk_fail
.L282:
	add	x21, sp, 88
	mov	x20, x0
.L278:
	ldr	x19, [sp, 64]
	cbnz	x19, .L329
	mov	x0, x20
.LEHB1:
	bl	_Unwind_Resume
.LEHE1:
.L329:
	ldr	x0, [x19]
	str	x0, [sp, 64]
	cbnz	x0, .L280
	str	xzr, [sp, 72]
.L280:
	str	xzr, [x19]
	ldr	x22, [x19, 8]
	str	wzr, [sp, 88]
	bl	_ZNSt3_V215system_categoryEv
	str	x0, [sp, 96]
	mov	x1, x19
	mov	x2, x21
	mov	x3, 0
	mov	x0, 0
	blr	x22
	b	.L278
	.cfi_endproc
.LFE3464:
	.section	.gcc_except_table._ZN4asio6detail13epoll_reactor16shutdown_serviceEv,"aG",@progbits,_ZN4asio6detail13epoll_reactor16shutdown_serviceEv,comdat
.LLSDA3464:
	.byte	0xff
	.byte	0xff
	.byte	0x1
	.uleb128 .LLSDACSE3464-.LLSDACSB3464
.LLSDACSB3464:
	.uleb128 .LEHB0-.LFB3464
	.uleb128 .LEHE0-.LEHB0
	.uleb128 .L282-.LFB3464
	.uleb128 0
	.uleb128 .LEHB1-.LFB3464
	.uleb128 .LEHE1-.LEHB1
	.uleb128 0
	.uleb128 0
.LLSDACSE3464:
	.section	.text._ZN4asio6detail13epoll_reactor16shutdown_serviceEv,"axG",@progbits,_ZN4asio6detail13epoll_reactor16shutdown_serviceEv,comdat
	.size	_ZN4asio6detail13epoll_reactor16shutdown_serviceEv, .-_ZN4asio6detail13epoll_reactor16shutdown_serviceEv
	.section	.text._ZNK4asio6detail11timer_queueINS0_18chrono_time_traitsINSt6chrono3_V212steady_clockENS_11wait_traitsIS5_EEEEE18wait_duration_msecEl,"axG",@progbits,_ZNK4asio6detail11timer_queueINS0_18chrono_time_traitsINSt6chrono3_V212steady_clockENS_11wait_traitsIS5_EEEEE18wait_duration_msecEl,comdat
	.align	2
	.p2align 4,,11
	.weak	_ZNK4asio6detail11timer_queueINS0_18chrono_time_traitsINSt6chrono3_V212steady_clockENS_11wait_traitsIS5_EEEEE18wait_duration_msecEl
	.type	_ZNK4asio6detail11timer_queueINS0_18chrono_time_traitsINSt6chrono3_V212steady_clockENS_11wait_traitsIS5_EEEEE18wait_duration_msecEl, %function
_ZNK4asio6detail11timer_queueINS0_18chrono_time_traitsINSt6chrono3_V212steady_clockENS_11wait_traitsIS5_EEEEE18wait_duration_msecEl:
.LFB9654:
	.cfi_startproc
	stp	x29, x30, [sp, -32]!
	.cfi_def_cfa_offset 32
	.cfi_offset 29, -32
	.cfi_offset 30, -24
	mov	x29, sp
	stp	x19, x20, [sp, 16]
	.cfi_offset 19, -16
	.cfi_offset 20, -8
	mov	x19, x1
	ldp	x20, x0, [x0, 24]
	cmp	x0, x20
	beq	.L338
	bl	_ZNSt6chrono3_V212steady_clock3nowEv
	mov	x1, x0
	ldr	x2, [x20]
	tbnz	x2, #63, .L332
	tbnz	x0, #63, .L333
.L346:
	sub	x2, x2, x1
	cmp	x2, 0
	ble	.L342
	mov	x0, 13531
	movk	x0, 0xd7b6, lsl 16
	movk	x0, 0xde82, lsl 32
	movk	x0, 0x431b, lsl 48
	smulh	x0, x2, x0
	asr	x0, x0, 18
	sub	x2, x0, x2, asr 63
.L336:
	mov	x0, 1
	cbz	x2, .L330
.L335:
	cmp	x19, x2
	csel	x0, x19, x2, le
.L330:
	ldp	x19, x20, [sp, 16]
	ldp	x29, x30, [sp], 32
	.cfi_remember_state
	.cfi_restore 30
	.cfi_restore 29
	.cfi_restore 19
	.cfi_restore 20
	.cfi_def_cfa_offset 0
	ret
	.p2align 2,,3
.L332:
	.cfi_restore_state
	mov	x0, 0
	tbnz	x1, #63, .L346
	ldp	x19, x20, [sp, 16]
	ldp	x29, x30, [sp], 32
	.cfi_remember_state
	.cfi_restore 30
	.cfi_restore 29
	.cfi_restore 19
	.cfi_restore 20
	.cfi_def_cfa_offset 0
	ret
	.p2align 2,,3
.L338:
	.cfi_restore_state
	mov	x0, x1
	ldp	x19, x20, [sp, 16]
	ldp	x29, x30, [sp], 32
	.cfi_remember_state
	.cfi_restore 30
	.cfi_restore 29
	.cfi_restore 19
	.cfi_restore 20
	.cfi_def_cfa_offset 0
	ret
	.p2align 2,,3
.L333:
	.cfi_restore_state
	mov	x0, -9223372036854775808
	cmp	x1, x0
	beq	.L340
	mov	x3, 9223372036854775807
	neg	x0, x1
	sub	x3, x3, x2
	cmp	x3, x0
	blt	.L340
	mov	x0, 13531
	sub	x2, x2, x1
	movk	x0, 0xd7b6, lsl 16
	movk	x0, 0xde82, lsl 32
	movk	x0, 0x431b, lsl 48
	umulh	x2, x2, x0
	lsr	x2, x2, 18
	b	.L336
	.p2align 2,,3
.L340:
	mov	x2, 23286
	movk	x2, 0x7bd0, lsl 16
	movk	x2, 0x863, lsl 32
	b	.L335
	.p2align 2,,3
.L342:
	mov	x0, 0
	b	.L330
	.cfi_endproc
.LFE9654:
	.size	_ZNK4asio6detail11timer_queueINS0_18chrono_time_traitsINSt6chrono3_V212steady_clockENS_11wait_traitsIS5_EEEEE18wait_duration_msecEl, .-_ZNK4asio6detail11timer_queueINS0_18chrono_time_traitsINSt6chrono3_V212steady_clockENS_11wait_traitsIS5_EEEEE18wait_duration_msecEl
	.section	.text._ZN4asio6detail11timer_queueINS0_18chrono_time_traitsINSt6chrono3_V212steady_clockENS_11wait_traitsIS5_EEEEE16get_ready_timersERNS0_8op_queueINS0_25task_io_service_operationEEE,"axG",@progbits,_ZN4asio6detail11timer_queueINS0_18chrono_time_traitsINSt6chrono3_V212steady_clockENS_11wait_traitsIS5_EEEEE16get_ready_timersERNS0_8op_queueINS0_25task_io_service_operationEEE,comdat
	.align	2
	.p2align 4,,11
	.weak	_ZN4asio6detail11timer_queueINS0_18chrono_time_traitsINSt6chrono3_V212steady_clockENS_11wait_traitsIS5_EEEEE16get_ready_timersERNS0_8op_queueINS0_25task_io_service_operationEEE
	.type	_ZN4asio6detail11timer_queueINS0_18chrono_time_traitsINSt6chrono3_V212steady_clockENS_11wait_traitsIS5_EEEEE16get_ready_timersERNS0_8op_queueINS0_25task_io_service_operationEEE, %function
_ZN4asio6detail11timer_queueINS0_18chrono_time_traitsINSt6chrono3_V212steady_clockENS_11wait_traitsIS5_EEEEE16get_ready_timersERNS0_8op_queueINS0_25task_io_service_operationEEE:
.LFB9656:
	.cfi_startproc
	stp	x29, x30, [sp, -32]!
	.cfi_def_cfa_offset 32
	.cfi_offset 29, -32
	.cfi_offset 30, -24
	mov	x29, sp
	stp	x19, x20, [sp, 16]
	.cfi_offset 19, -16
	.cfi_offset 20, -8
	mov	x19, x0
	mov	x20, x1
	ldr	x0, [x0, 24]
	ldr	x1, [x19, 32]
	cmp	x1, x0
	beq	.L348
	bl	_ZNSt6chrono3_V212steady_clock3nowEv
	ldp	x2, x12, [x19, 24]
	movi	v0.4s, 0
	cmp	x2, x12
	beq	.L348
	.p2align 3,,7
.L350:
	ldr	x1, [x2]
	cmp	x0, x1
	blt	.L348
	ldr	x8, [x2, 8]
	ldr	x1, [x8]
	cbz	x1, .L366
	ldr	x3, [x20, 8]
	cbz	x3, .L351
	str	x1, [x3]
.L352:
	ldr	x1, [x8, 8]
	str	x1, [x20, 8]
	str	q0, [x8]
.L366:
	sub	x3, x12, x2
	ldr	x9, [x8, 16]
	asr	x1, x3, 4
	cmp	x9, x1
	bcs	.L380
	sub	x1, x1, #1
	sub	x12, x12, #16
	cmp	x9, x1
	beq	.L381
	sub	x3, x3, #16
	lsl	x7, x9, 4
	add	x11, x2, x3
	add	x6, x2, x7
	ldr	x13, [x2, x7]
	ldp	x4, x5, [x11]
	ldr	x10, [x6, 8]
	stp	x4, x5, [x6]
	str	x13, [x2, x3]
	str	x10, [x11, 8]
	ldr	x3, [x6, 8]
	str	x9, [x3, 16]
	str	x1, [x10, 16]
	str	x12, [x19, 32]
	cbz	x9, .L356
	sub	x1, x9, #1
	ldr	x11, [x2, x7]
	lsr	x1, x1, 1
	lsl	x3, x1, 4
	add	x10, x2, x3
	ldr	x3, [x2, x3]
	cmp	x11, x3
	blt	.L357
.L356:
	sub	x13, x12, x2
	lsl	x3, x9, 1
	add	x3, x3, 1
	asr	x13, x13, 4
	cmp	x3, x13
	bcs	.L354
	ldr	x1, [x6]
	b	.L359
	.p2align 2,,3
.L382:
	ldr	x4, [x2, x11]
	cmp	x4, x10
	bgt	.L368
	mov	x10, x4
	mov	x6, x14
	add	x4, x2, x7
	cmp	x1, x10
	blt	.L354
.L383:
	ldp	x10, x11, [x6]
	lsl	x3, x5, 1
	ldr	x7, [x4, 8]
	stp	x10, x11, [x4]
	add	x3, x3, 1
	stp	x1, x7, [x6]
	ldr	x4, [x4, 8]
	str	x9, [x4, 16]
	mov	x9, x5
	str	x5, [x7, 16]
	lsl	x7, x5, 4
	cmp	x3, x13
	bcs	.L354
.L359:
	lsl	x4, x3, 4
	add	x5, x3, 1
	add	x11, x4, 16
	add	x6, x2, x4
	add	x14, x2, x11
	ldr	x10, [x2, x4]
	cmp	x5, x13
	bne	.L382
.L368:
	mov	x5, x3
	add	x4, x2, x7
	cmp	x1, x10
	bge	.L383
	.p2align 3,,7
.L354:
	ldr	x1, [x19, 16]
	ldr	x3, [x8, 24]
	cmp	x8, x1
	beq	.L384
.L361:
	ldr	x1, [x8, 32]
	cbz	x1, .L362
	str	x3, [x1, 24]
	ldr	x3, [x8, 24]
.L362:
	cbz	x3, .L363
	str	x1, [x3, 32]
	str	q0, [x8, 24]
	cmp	x2, x12
	bne	.L350
.L348:
	ldp	x19, x20, [sp, 16]
	ldp	x29, x30, [sp], 32
	.cfi_remember_state
	.cfi_restore 30
	.cfi_restore 29
	.cfi_restore 19
	.cfi_restore 20
	.cfi_def_cfa_offset 0
	ret
	.p2align 2,,3
.L357:
	.cfi_restore_state
	ldp	x4, x5, [x10]
	sub	x3, x1, #1
	ldr	x7, [x6, 8]
	stp	x4, x5, [x6]
	lsr	x3, x3, 1
	stp	x11, x7, [x10]
	lsl	x4, x1, 4
	lsl	x5, x3, 4
	ldr	x11, [x6, 8]
	add	x10, x2, x5
	add	x6, x2, x4
	str	x9, [x11, 16]
	mov	x9, x1
	str	x1, [x7, 16]
	cbz	x1, .L354
	mov	x1, x3
	ldr	x11, [x2, x4]
	ldr	x3, [x2, x5]
	cmp	x11, x3
	blt	.L357
	ldr	x1, [x19, 16]
	ldr	x3, [x8, 24]
	cmp	x8, x1
	bne	.L361
	.p2align 3,,7
.L384:
	str	x3, [x19, 16]
	b	.L361
	.p2align 2,,3
.L380:
	ldr	x12, [x19, 32]
	b	.L354
	.p2align 2,,3
.L363:
	str	q0, [x8, 24]
	cmp	x2, x12
	bne	.L350
	b	.L348
	.p2align 2,,3
.L351:
	str	x1, [x20]
	b	.L352
	.p2align 2,,3
.L381:
	str	x12, [x19, 32]
	b	.L354
	.cfi_endproc
.LFE9656:
	.size	_ZN4asio6detail11timer_queueINS0_18chrono_time_traitsINSt6chrono3_V212steady_clockENS_11wait_traitsIS5_EEEEE16get_ready_timersERNS0_8op_queueINS0_25task_io_service_operationEEE, .-_ZN4asio6detail11timer_queueINS0_18chrono_time_traitsINSt6chrono3_V212steady_clockENS_11wait_traitsIS5_EEEEE16get_ready_timersERNS0_8op_queueINS0_25task_io_service_operationEEE
	.section	.rodata._ZNK4asio6detail15system_category7messageB5cxx11Ei.str1.8,"aMS",@progbits,1
	.align	3
.LC4:
	.string	"Operation aborted."
	.align	3
.LC5:
	.string	"basic_string::_M_construct null not valid"
	.section	.text._ZNK4asio6detail15system_category7messageB5cxx11Ei,"axG",@progbits,_ZNK4asio6detail15system_category7messageB5cxx11Ei,comdat
	.align	2
	.p2align 4,,11
	.weak	_ZNK4asio6detail15system_category7messageB5cxx11Ei
	.type	_ZNK4asio6detail15system_category7messageB5cxx11Ei, %function
_ZNK4asio6detail15system_category7messageB5cxx11Ei:
.LFB2625:
	.cfi_startproc
	stp	x29, x30, [sp, -320]!
	.cfi_def_cfa_offset 320
	.cfi_offset 29, -320
	.cfi_offset 30, -312
	adrp	x0, :got:__stack_chk_guard
	mov	x29, sp
	ldr	x2, [x0, #:got_lo12:__stack_chk_guard]
	stp	x19, x20, [sp, 16]
	mov	w0, w1
	stp	x21, x22, [sp, 32]
	.cfi_offset 19, -304
	.cfi_offset 20, -296
	.cfi_offset 21, -288
	.cfi_offset 22, -280
	mov	x19, x8
	add	x21, x8, 16
	ldr	x1, [x2]
	str	x1, [sp, 312]
	mov	x1, 0
	cmp	w0, 125
	beq	.L400
	movi	v0.4s, 0
	add	x3, sp, 72
	add	x1, sp, 56
	mov	x2, 256
	stp	xzr, xzr, [sp, 56]
	stp	q0, q0, [x3]
	stp	q0, q0, [x3, 32]
	stp	q0, q0, [x3, 64]
	stp	q0, q0, [x3, 96]
	stp	q0, q0, [x3, 128]
	stp	q0, q0, [x3, 160]
	stp	q0, q0, [x3, 192]
	str	q0, [x3, 224]
	bl	strerror_r
	mov	x22, x0
	str	x21, [x19]
	cbz	x0, .L388
	bl	strlen
	str	x0, [sp, 48]
	mov	x20, x0
	cmp	x0, 15
	bhi	.L401
	cmp	x0, 1
	bne	.L392
	ldrb	w0, [x22]
	strb	w0, [x19, 16]
.L393:
	str	x20, [x19, 8]
	strb	wzr, [x21, x20]
.L385:
	adrp	x0, :got:__stack_chk_guard
	ldr	x0, [x0, #:got_lo12:__stack_chk_guard]
	ldr	x2, [sp, 312]
	ldr	x1, [x0]
	subs	x2, x2, x1
	mov	x1, 0
	bne	.L402
	mov	x0, x19
	ldp	x19, x20, [sp, 16]
	ldp	x21, x22, [sp, 32]
	ldp	x29, x30, [sp], 320
	.cfi_remember_state
	.cfi_restore 30
	.cfi_restore 29
	.cfi_restore 21
	.cfi_restore 22
	.cfi_restore 19
	.cfi_restore 20
	.cfi_def_cfa_offset 0
	ret
	.p2align 2,,3
.L401:
	.cfi_restore_state
	add	x1, sp, 48
	mov	x0, x19
	mov	x2, 0
	bl	_ZNSt7__cxx1112basic_stringIcSt11char_traitsIcESaIcEE9_M_createERmm
	mov	x21, x0
	str	x0, [x19]
	ldr	x1, [sp, 48]
	str	x1, [x19, 16]
.L391:
	mov	x2, x20
	mov	x0, x21
	mov	x1, x22
	bl	memcpy
	ldr	x21, [x19]
	ldr	x20, [sp, 48]
	b	.L393
	.p2align 2,,3
.L400:
	mov	x3, 18
	str	x21, [x8]
	add	x1, sp, 48
	mov	x2, 0
	mov	x0, x8
	str	x3, [sp, 48]
	bl	_ZNSt7__cxx1112basic_stringIcSt11char_traitsIcESaIcEE9_M_createERmm
	str	x0, [x19]
	adrp	x1, .LC4
	add	x1, x1, :lo12:.LC4
	ldr	x2, [sp, 48]
	str	x2, [x19, 16]
	ldp	x2, x3, [x1]
	stp	x2, x3, [x0]
	ldrh	w1, [x1, 16]
	strh	w1, [x0, 16]
	ldr	x1, [x19]
	ldr	x0, [sp, 48]
	str	x0, [x19, 8]
	strb	wzr, [x1, x0]
	b	.L385
	.p2align 2,,3
.L392:
	cbz	x0, .L393
	b	.L391
.L388:
	adrp	x0, .LC5
	add	x0, x0, :lo12:.LC5
	bl	_ZSt19__throw_logic_errorPKc
.L402:
	bl	__stack_chk_fail
	.cfi_endproc
.LFE2625:
	.size	_ZNK4asio6detail15system_category7messageB5cxx11Ei, .-_ZNK4asio6detail15system_category7messageB5cxx11Ei
	.text
	.align	2
	.p2align 4,,11
	.type	_ZN4asio6detail13epoll_reactor12cancel_timerINS0_18chrono_time_traitsINSt6chrono3_V212steady_clockENS_11wait_traitsIS6_EEEEEEmRNS0_11timer_queueIT_EERNSC_14per_timer_dataEm.constprop.0.isra.0, %function
_ZN4asio6detail13epoll_reactor12cancel_timerINS0_18chrono_time_traitsINSt6chrono3_V212steady_clockENS_11wait_traitsIS6_EEEEEEmRNS0_11timer_queueIT_EERNSC_14per_timer_dataEm.constprop.0.isra.0:
.LFB9762:
	.cfi_startproc
	stp	x29, x30, [sp, -144]!
	.cfi_def_cfa_offset 144
	.cfi_offset 29, -144
	.cfi_offset 30, -136
	adrp	x3, :got:__stack_chk_guard
	mov	x29, sp
	ldr	x3, [x3, #:got_lo12:__stack_chk_guard]
	stp	x19, x20, [sp, 16]
	.cfi_offset 19, -128
	.cfi_offset 20, -120
	mov	x20, x0
	stp	x21, x22, [sp, 32]
	.cfi_offset 21, -112
	.cfi_offset 22, -104
	mov	x22, x1
	stp	x23, x24, [sp, 48]
	.cfi_offset 23, -96
	.cfi_offset 24, -88
	add	x24, x0, 48
	mov	x0, x24
	stp	x27, x28, [sp, 80]
	.cfi_offset 27, -64
	.cfi_offset 28, -56
	mov	x27, x2
	ldr	x1, [x3]
	str	x1, [sp, 136]
	mov	x1, 0
	bl	pthread_mutex_lock
	ldr	x0, [x27, 32]
	cbz	x0, .L481
.L404:
	ldr	x19, [x27]
	adrp	x23, __dso_handle
	adrp	x28, :got:_ZGVZN4asio15system_categoryEvE8instance
	add	x0, x23, :lo12:__dso_handle
	stp	x25, x26, [sp, 64]
	.cfi_offset 26, -72
	.cfi_offset 25, -80
	mov	x21, 0
	mov	x25, -1
	str	x0, [sp, 104]
	mov	x26, 0
	ldr	x28, [x28, #:got_lo12:_ZGVZN4asio15system_categoryEvE8instance]
	adrp	x23, :got:_ZZN4asio15system_categoryEvE8instance
	cbz	x19, .L406
	.p2align 3,,7
.L485:
	ldar	x0, [x28]
	tbz	x0, 0, .L482
.L408:
	ldr	x4, [x27]
	mov	w0, 125
	ldr	x3, [x23, #:got_lo12:_ZZN4asio15system_categoryEvE8instance]
	str	w0, [x19, 24]
	str	x3, [x19, 32]
	mov	x3, 0
	cbz	x4, .L410
	ldr	x3, [x4]
	str	x3, [x27]
	cbz	x3, .L483
.L411:
	str	xzr, [x4]
.L410:
	str	xzr, [x19]
	cbz	x26, .L443
	str	x19, [x26]
	subs	x25, x25, #1
	mov	x26, x19
	beq	.L484
.L444:
	mov	x19, x3
	cbnz	x19, .L485
.L406:
	ldp	x1, x0, [x22, 24]
	ldr	x8, [x27, 16]
	cmp	x1, x0
	beq	.L416
	sub	x3, x0, x1
	asr	x2, x3, 4
	cmp	x8, x2
	bcs	.L416
	sub	x4, x2, #1
	sub	x0, x0, #16
	cmp	x8, x4
	beq	.L486
	sub	x6, x3, #16
	lsl	x7, x8, 4
	add	x10, x1, x6
	add	x5, x1, x7
	ldr	x11, [x1, x7]
	ldp	x2, x3, [x10]
	ldr	x9, [x5, 8]
	stp	x2, x3, [x5]
	str	x11, [x1, x6]
	str	x9, [x10, 8]
	ldr	x2, [x5, 8]
	str	x8, [x2, 16]
	str	x4, [x9, 16]
	str	x0, [x22, 32]
	cbz	x8, .L419
	sub	x4, x8, #1
	ldr	x9, [x1, x7]
	lsr	x4, x4, 1
	lsl	x2, x4, 4
	add	x6, x1, x2
	ldr	x2, [x1, x2]
	cmp	x9, x2
	blt	.L420
.L419:
	sub	x5, x0, x1
	lsl	x0, x8, 1
	add	x0, x0, 1
	asr	x5, x5, 4
	cmp	x0, x5
	bcs	.L416
	ldr	x10, [x1, x7]
	b	.L422
	.p2align 2,,3
.L487:
	add	x2, x2, 16
	add	x9, x1, x2
	ldr	x2, [x1, x2]
	cmp	x2, x3
	bgt	.L446
	mov	x3, x2
	mov	x6, x9
.L421:
	add	x7, x1, x7
	cmp	x10, x3
	blt	.L416
	ldp	x2, x3, [x6]
	lsl	x0, x4, 1
	ldr	x9, [x7, 8]
	stp	x2, x3, [x7]
	add	x0, x0, 1
	stp	x10, x9, [x6]
	ldr	x2, [x7, 8]
	str	x8, [x2, 16]
	str	x4, [x9, 16]
	cmp	x0, x5
	bcs	.L416
	mov	x8, x4
	lsl	x7, x4, 4
.L422:
	lsl	x2, x0, 4
	add	x4, x0, 1
	add	x6, x1, x2
	ldr	x3, [x1, x2]
	cmp	x4, x5
	bne	.L487
.L446:
	mov	x4, x0
	b	.L421
	.p2align 2,,3
.L483:
	str	xzr, [x27, 8]
	b	.L411
	.p2align 2,,3
.L482:
	mov	x0, x28
	bl	__cxa_guard_acquire
	cbz	w0, .L408
	adrp	x0, :got:_ZN4asio6detail15system_categoryD1Ev
	ldr	x1, [x23, #:got_lo12:_ZZN4asio15system_categoryEvE8instance]
	ldr	x0, [x0, #:got_lo12:_ZN4asio6detail15system_categoryD1Ev]
	ldr	x2, [sp, 104]
	bl	__cxa_atexit
	mov	x0, x28
	bl	__cxa_guard_release
	b	.L408
	.p2align 2,,3
.L443:
	mov	x21, x19
	subs	x25, x25, #1
	mov	x26, x19
	bne	.L444
.L484:
	cbz	x3, .L406
.L414:
	mov	x0, x24
	bl	pthread_mutex_unlock
	ldr	x20, [x20, 40]
	cbz	x21, .L403
	ldrb	w0, [x20, 40]
	cbz	w0, .L428
	adrp	x0, :got:_ZN4asio6detail10call_stackINS0_15task_io_serviceENS0_27task_io_service_thread_infoEE4top_E
	ldr	x0, [x0, #:got_lo12:_ZN4asio6detail10call_stackINS0_15task_io_serviceENS0_27task_io_service_thread_infoEE4top_E]
	ldr	w0, [x0]
	bl	pthread_getspecific
	cbnz	x0, .L431
	b	.L428
	.p2align 2,,3
.L429:
	ldr	x0, [x0, 16]
	cbz	x0, .L428
.L431:
	ldr	x1, [x0]
	cmp	x20, x1
	bne	.L429
	ldr	x0, [x0, 8]
	cbz	x0, .L428
	ldr	x2, [x0, 16]
	add	x1, x0, 8
	cbz	x2, .L432
	str	x21, [x2]
.L433:
	str	x19, [x1, 8]
.L403:
	adrp	x0, :got:__stack_chk_guard
	ldr	x0, [x0, #:got_lo12:__stack_chk_guard]
	ldr	x2, [sp, 136]
	ldr	x1, [x0]
	subs	x2, x2, x1
	mov	x1, 0
	bne	.L480
	ldp	x19, x20, [sp, 16]
	ldp	x21, x22, [sp, 32]
	ldp	x23, x24, [sp, 48]
	ldp	x25, x26, [sp, 64]
	.cfi_remember_state
	.cfi_restore 26
	.cfi_restore 25
	ldp	x27, x28, [sp, 80]
	ldp	x29, x30, [sp], 144
	.cfi_restore 30
	.cfi_restore 29
	.cfi_restore 27
	.cfi_restore 28
	.cfi_restore 23
	.cfi_restore 24
	.cfi_restore 21
	.cfi_restore 22
	.cfi_restore 19
	.cfi_restore 20
	.cfi_def_cfa_offset 0
	ret
	.p2align 2,,3
.L428:
	.cfi_restore_state
	add	x22, x20, 48
	mov	x0, x22
	bl	pthread_mutex_lock
	ldr	x1, [x20, 208]
	add	x0, x20, 200
	cbz	x1, .L434
	str	x21, [x1]
.L435:
	ldr	x1, [x20, 144]
	str	x19, [x0, 8]
	add	x21, x20, 96
	orr	x1, x1, 1
	str	x1, [x21, 48]
	cmp	x1, 1
	beq	.L436
	mov	x0, x22
	bl	pthread_mutex_unlock
	adrp	x0, :got:__stack_chk_guard
	ldr	x0, [x0, #:got_lo12:__stack_chk_guard]
	ldr	x2, [sp, 136]
	ldr	x1, [x0]
	subs	x2, x2, x1
	mov	x1, 0
	bne	.L480
	mov	x0, x21
	ldp	x19, x20, [sp, 16]
	ldp	x21, x22, [sp, 32]
	ldp	x23, x24, [sp, 48]
	ldp	x25, x26, [sp, 64]
	.cfi_remember_state
	.cfi_restore 26
	.cfi_restore 25
	ldp	x27, x28, [sp, 80]
	ldp	x29, x30, [sp], 144
	.cfi_restore 30
	.cfi_restore 29
	.cfi_restore 27
	.cfi_restore 28
	.cfi_restore 23
	.cfi_restore 24
	.cfi_restore 21
	.cfi_restore 22
	.cfi_restore 19
	.cfi_restore 20
	.cfi_def_cfa_offset 0
	b	pthread_cond_signal
	.p2align 2,,3
.L436:
	.cfi_restore_state
	ldrb	w0, [x20, 184]
	cbz	w0, .L488
.L438:
	adrp	x0, :got:__stack_chk_guard
	ldr	x0, [x0, #:got_lo12:__stack_chk_guard]
	ldr	x2, [sp, 136]
	ldr	x1, [x0]
	subs	x2, x2, x1
	mov	x1, 0
	bne	.L480
	ldp	x25, x26, [sp, 64]
	.cfi_restore 26
	.cfi_restore 25
	mov	x0, x22
.L479:
	ldp	x19, x20, [sp, 16]
	ldp	x21, x22, [sp, 32]
	ldp	x23, x24, [sp, 48]
	ldp	x27, x28, [sp, 80]
	ldp	x29, x30, [sp], 144
	.cfi_remember_state
	.cfi_restore 30
	.cfi_restore 29
	.cfi_restore 27
	.cfi_restore 28
	.cfi_restore 23
	.cfi_restore 24
	.cfi_restore 21
	.cfi_restore 22
	.cfi_restore 19
	.cfi_restore 20
	.cfi_def_cfa_offset 0
	b	pthread_mutex_unlock
	.p2align 2,,3
.L481:
	.cfi_restore_state
	ldr	x0, [x22, 16]
	cmp	x27, x0
	beq	.L404
	adrp	x0, :got:__stack_chk_guard
	ldr	x0, [x0, #:got_lo12:__stack_chk_guard]
	ldr	x2, [sp, 136]
	ldr	x1, [x0]
	subs	x2, x2, x1
	mov	x1, 0
	mov	x0, x24
	beq	.L479
	stp	x25, x26, [sp, 64]
	.cfi_offset 26, -72
	.cfi_offset 25, -80
	bl	__stack_chk_fail
	.p2align 2,,3
.L488:
	ldr	x3, [x20, 152]
	cbz	x3, .L438
	ldr	w2, [x3, 96]
	add	x4, x3, 96
	ldr	w0, [x3, 104]
	mov	w5, 9
	movk	w5, 0x8000, lsl 16
	strb	w1, [x20, 184]
	add	x3, sp, 120
	mov	w1, 3
	str	w5, [sp, 120]
	str	x4, [sp, 128]
	bl	epoll_ctl
	b	.L438
	.p2align 2,,3
.L434:
	str	x21, [x20, 200]
	b	.L435
.L486:
	str	x0, [x22, 32]
	.p2align 3,,7
.L416:
	ldr	x1, [x22, 16]
	ldr	x0, [x27, 24]
	cmp	x27, x1
	beq	.L489
.L424:
	ldr	x1, [x27, 32]
	cbz	x1, .L425
	str	x0, [x1, 24]
	ldr	x0, [x27, 24]
.L425:
	cbz	x0, .L426
	str	x1, [x0, 32]
.L426:
	mov	x19, x26
	stp	xzr, xzr, [x27, 24]
	b	.L414
.L420:
	ldp	x2, x3, [x6]
	ldr	x0, [x5, 8]
	stp	x2, x3, [x5]
	stp	x9, x0, [x6]
	ldr	x2, [x5, 8]
	str	x8, [x2, 16]
	str	x4, [x0, 16]
	cbz	x4, .L416
	sub	x2, x4, #1
	lsl	x0, x4, 4
	mov	x8, x4
	add	x5, x1, x0
	lsr	x4, x2, 1
	ldr	x9, [x1, x0]
	lsl	x0, x4, 4
	add	x6, x1, x0
	ldr	x0, [x1, x0]
	cmp	x9, x0
	blt	.L420
	b	.L416
	.p2align 2,,3
.L489:
	str	x0, [x22, 16]
	b	.L424
.L432:
	str	x21, [x0, 8]
	b	.L433
.L480:
	bl	__stack_chk_fail
	.cfi_endproc
.LFE9762:
	.size	_ZN4asio6detail13epoll_reactor12cancel_timerINS0_18chrono_time_traitsINSt6chrono3_V212steady_clockENS_11wait_traitsIS6_EEEEEEmRNS0_11timer_queueIT_EERNSC_14per_timer_dataEm.constprop.0.isra.0, .-_ZN4asio6detail13epoll_reactor12cancel_timerINS0_18chrono_time_traitsINSt6chrono3_V212steady_clockENS_11wait_traitsIS6_EEEEEEmRNS0_11timer_queueIT_EERNSC_14per_timer_dataEm.constprop.0.isra.0
	.section	.rodata._ZNK4asio5error6detail17addrinfo_category7messageB5cxx11Ei.str1.8,"aMS",@progbits,1
	.align	3
.LC6:
	.string	"Service not found"
	.align	3
.LC7:
	.string	"Socket type not supported"
	.align	3
.LC8:
	.string	"asio.addrinfo error"
	.section	.text._ZNK4asio5error6detail17addrinfo_category7messageB5cxx11Ei,"axG",@progbits,_ZNK4asio5error6detail17addrinfo_category7messageB5cxx11Ei,comdat
	.align	2
	.p2align 4,,11
	.weak	_ZNK4asio5error6detail17addrinfo_category7messageB5cxx11Ei
	.type	_ZNK4asio5error6detail17addrinfo_category7messageB5cxx11Ei, %function
_ZNK4asio5error6detail17addrinfo_category7messageB5cxx11Ei:
.LFB2652:
	.cfi_startproc
	stp	x29, x30, [sp, -48]!
	.cfi_def_cfa_offset 48
	.cfi_offset 29, -48
	.cfi_offset 30, -40
	adrp	x0, :got:__stack_chk_guard
	add	x2, x8, 16
	mov	x29, sp
	ldr	x0, [x0, #:got_lo12:__stack_chk_guard]
	str	x19, [sp, 16]
	.cfi_offset 19, -32
	mov	x19, x8
	ldr	x3, [x0]
	str	x3, [sp, 40]
	mov	x3, 0
	str	x2, [x8]
	cmn	w1, #8
	beq	.L496
	cmn	w1, #7
	beq	.L497
	mov	x3, 19
	add	x1, sp, 32
	mov	x2, 0
	mov	x0, x8
	str	x3, [sp, 32]
	bl	_ZNSt7__cxx1112basic_stringIcSt11char_traitsIcESaIcEE9_M_createERmm
	adrp	x1, .LC8
	add	x1, x1, :lo12:.LC8
	ldr	x2, [sp, 32]
	str	x0, [x19]
	str	x2, [x19, 16]
	ldp	x2, x3, [x1]
	stp	x2, x3, [x0]
	ldr	w1, [x1, 15]
	str	w1, [x0, 15]
	ldr	x1, [x19]
	ldr	x0, [sp, 32]
	str	x0, [x19, 8]
	strb	wzr, [x1, x0]
.L490:
	adrp	x0, :got:__stack_chk_guard
	ldr	x0, [x0, #:got_lo12:__stack_chk_guard]
	ldr	x2, [sp, 40]
	ldr	x1, [x0]
	subs	x2, x2, x1
	mov	x1, 0
	bne	.L498
	mov	x0, x19
	ldr	x19, [sp, 16]
	ldp	x29, x30, [sp], 48
	.cfi_remember_state
	.cfi_restore 30
	.cfi_restore 29
	.cfi_restore 19
	.cfi_def_cfa_offset 0
	ret
	.p2align 2,,3
.L497:
	.cfi_restore_state
	mov	x3, 25
	add	x1, sp, 32
	mov	x2, 0
	mov	x0, x8
	str	x3, [sp, 32]
	bl	_ZNSt7__cxx1112basic_stringIcSt11char_traitsIcESaIcEE9_M_createERmm
	adrp	x1, .LC7
	add	x1, x1, :lo12:.LC7
	ldr	x2, [sp, 32]
	str	x0, [x19]
	ldr	q1, [x1]
	str	x2, [x19, 16]
	ldr	q0, [x1, 9]
	str	q1, [x0]
	str	q0, [x0, 9]
	ldr	x1, [x19]
	ldr	x0, [sp, 32]
	str	x0, [x19, 8]
	strb	wzr, [x1, x0]
	b	.L490
	.p2align 2,,3
.L496:
	mov	x3, 17
	add	x1, sp, 32
	mov	x2, 0
	mov	x0, x8
	str	x3, [sp, 32]
	bl	_ZNSt7__cxx1112basic_stringIcSt11char_traitsIcESaIcEE9_M_createERmm
	adrp	x1, .LC6
	add	x1, x1, :lo12:.LC6
	ldr	x2, [sp, 32]
	str	x0, [x19]
	str	x2, [x19, 16]
	ldp	x2, x3, [x1]
	stp	x2, x3, [x0]
	ldrb	w1, [x1, 16]
	strb	w1, [x0, 16]
	ldr	x1, [x19]
	ldr	x0, [sp, 32]
	str	x0, [x19, 8]
	strb	wzr, [x1, x0]
	b	.L490
.L498:
	bl	__stack_chk_fail
	.cfi_endproc
.LFE2652:
	.size	_ZNK4asio5error6detail17addrinfo_category7messageB5cxx11Ei, .-_ZNK4asio5error6detail17addrinfo_category7messageB5cxx11Ei
	.section	.rodata._ZNK4asio5error6detail13misc_category7messageB5cxx11Ei.str1.8,"aMS",@progbits,1
	.align	3
.LC9:
	.string	"Already open"
	.align	3
.LC10:
	.string	"End of file"
	.align	3
.LC11:
	.string	"Element not found"
	.align	3
.LC12:
	.string	"The descriptor does not fit into the select call's fd_set"
	.align	3
.LC13:
	.string	"asio.misc error"
	.section	.text._ZNK4asio5error6detail13misc_category7messageB5cxx11Ei,"axG",@progbits,_ZNK4asio5error6detail13misc_category7messageB5cxx11Ei,comdat
	.align	2
	.p2align 4,,11
	.weak	_ZNK4asio5error6detail13misc_category7messageB5cxx11Ei
	.type	_ZNK4asio5error6detail13misc_category7messageB5cxx11Ei, %function
_ZNK4asio5error6detail13misc_category7messageB5cxx11Ei:
.LFB2658:
	.cfi_startproc
	stp	x29, x30, [sp, -48]!
	.cfi_def_cfa_offset 48
	.cfi_offset 29, -48
	.cfi_offset 30, -40
	adrp	x0, :got:__stack_chk_guard
	add	x2, x8, 16
	mov	x29, sp
	ldr	x0, [x0, #:got_lo12:__stack_chk_guard]
	str	x19, [sp, 16]
	.cfi_offset 19, -32
	mov	x19, x8
	ldr	x3, [x0]
	str	x3, [sp, 40]
	mov	x3, 0
	cmp	w1, 1
	beq	.L507
	cmp	w1, 2
	beq	.L508
	cmp	w1, 3
	beq	.L509
	cmp	w1, 4
	beq	.L510
	adrp	x0, .LC13
	add	x0, x0, :lo12:.LC13
	str	x2, [x8]
	mov	x1, 15
	ldr	x3, [x0]
	str	x3, [x8, 16]
	ldr	x0, [x0, 7]
	str	x0, [x2, 7]
	str	x1, [x8, 8]
	strb	wzr, [x8, 31]
.L499:
	adrp	x0, :got:__stack_chk_guard
	ldr	x0, [x0, #:got_lo12:__stack_chk_guard]
	ldr	x2, [sp, 40]
	ldr	x1, [x0]
	subs	x2, x2, x1
	mov	x1, 0
	bne	.L511
	mov	x0, x19
	ldr	x19, [sp, 16]
	ldp	x29, x30, [sp], 48
	.cfi_remember_state
	.cfi_restore 30
	.cfi_restore 29
	.cfi_restore 19
	.cfi_def_cfa_offset 0
	ret
	.p2align 2,,3
.L507:
	.cfi_restore_state
	adrp	x0, .LC9
	add	x0, x0, :lo12:.LC9
	str	x2, [x8]
	mov	x1, 12
	ldr	x3, [x0]
	str	x3, [x8, 16]
	ldr	w0, [x0, 8]
	str	w0, [x2, 8]
	str	x1, [x8, 8]
	strb	wzr, [x8, 28]
	b	.L499
	.p2align 2,,3
.L510:
	mov	x3, 57
	str	x2, [x8]
	add	x1, sp, 32
	mov	x2, 0
	mov	x0, x8
	str	x3, [sp, 32]
	bl	_ZNSt7__cxx1112basic_stringIcSt11char_traitsIcESaIcEE9_M_createERmm
	str	x0, [x19]
	adrp	x1, .LC12
	add	x1, x1, :lo12:.LC12
	ldr	x2, [sp, 32]
	str	x2, [x19, 16]
	ldr	q3, [x1, 32]
	ldp	q1, q2, [x1]
	ldr	q0, [x1, 41]
	str	q3, [x0, 32]
	stp	q1, q2, [x0]
	str	q0, [x0, 41]
	ldr	x1, [x19]
	ldr	x0, [sp, 32]
	str	x0, [x19, 8]
	strb	wzr, [x1, x0]
	b	.L499
	.p2align 2,,3
.L508:
	adrp	x0, .LC10
	add	x0, x0, :lo12:.LC10
	str	x2, [x8]
	mov	x1, 11
	ldr	x3, [x0]
	str	x3, [x8, 16]
	ldr	w0, [x0, 7]
	str	w0, [x2, 7]
	str	x1, [x8, 8]
	strb	wzr, [x8, 27]
	b	.L499
	.p2align 2,,3
.L509:
	mov	x3, 17
	str	x2, [x8]
	add	x1, sp, 32
	mov	x2, 0
	mov	x0, x8
	str	x3, [sp, 32]
	bl	_ZNSt7__cxx1112basic_stringIcSt11char_traitsIcESaIcEE9_M_createERmm
	str	x0, [x19]
	adrp	x1, .LC11
	add	x1, x1, :lo12:.LC11
	ldr	x2, [sp, 32]
	str	x2, [x19, 16]
	ldp	x2, x3, [x1]
	stp	x2, x3, [x0]
	ldrb	w1, [x1, 16]
	strb	w1, [x0, 16]
	ldr	x1, [x19]
	ldr	x0, [sp, 32]
	str	x0, [x19, 8]
	strb	wzr, [x1, x0]
	b	.L499
.L511:
	bl	__stack_chk_fail
	.cfi_endproc
.LFE2658:
	.size	_ZNK4asio5error6detail13misc_category7messageB5cxx11Ei, .-_ZNK4asio5error6detail13misc_category7messageB5cxx11Ei
	.section	.rodata._ZNK4asio5error6detail14netdb_category7messageB5cxx11Ei.str1.8,"aMS",@progbits,1
	.align	3
.LC14:
	.string	"Host not found (authoritative)"
	.align	3
.LC15:
	.string	"Host not found (non-authoritative), try again later"
	.align	3
.LC16:
	.string	"The query is valid, but it does not have associated data"
	.align	3
.LC17:
	.string	"A non-recoverable error occurred during database lookup"
	.align	3
.LC18:
	.string	"asio.netdb error"
	.section	.text._ZNK4asio5error6detail14netdb_category7messageB5cxx11Ei,"axG",@progbits,_ZNK4asio5error6detail14netdb_category7messageB5cxx11Ei,comdat
	.align	2
	.p2align 4,,11
	.weak	_ZNK4asio5error6detail14netdb_category7messageB5cxx11Ei
	.type	_ZNK4asio5error6detail14netdb_category7messageB5cxx11Ei, %function
_ZNK4asio5error6detail14netdb_category7messageB5cxx11Ei:
.LFB2646:
	.cfi_startproc
	stp	x29, x30, [sp, -48]!
	.cfi_def_cfa_offset 48
	.cfi_offset 29, -48
	.cfi_offset 30, -40
	adrp	x0, :got:__stack_chk_guard
	add	x2, x8, 16
	mov	x29, sp
	ldr	x0, [x0, #:got_lo12:__stack_chk_guard]
	str	x19, [sp, 16]
	.cfi_offset 19, -32
	mov	x19, x8
	ldr	x3, [x0]
	str	x3, [sp, 40]
	mov	x3, 0
	str	x2, [x8]
	cmp	w1, 1
	beq	.L521
	cmp	w1, 2
	beq	.L522
	cmp	w1, 4
	beq	.L523
	cmp	w1, 3
	beq	.L524
	mov	x3, 16
	add	x1, sp, 32
	mov	x2, 0
	mov	x0, x8
	str	x3, [sp, 32]
	bl	_ZNSt7__cxx1112basic_stringIcSt11char_traitsIcESaIcEE9_M_createERmm
	adrp	x1, .LC18
	add	x1, x1, :lo12:.LC18
	ldr	x2, [sp, 32]
	str	x0, [x19]
	str	x2, [x19, 16]
	ldp	x2, x3, [x1]
	stp	x2, x3, [x0]
	ldr	x1, [x19]
	ldr	x0, [sp, 32]
	str	x0, [x19, 8]
	strb	wzr, [x1, x0]
.L512:
	adrp	x0, :got:__stack_chk_guard
	ldr	x0, [x0, #:got_lo12:__stack_chk_guard]
	ldr	x2, [sp, 40]
	ldr	x1, [x0]
	subs	x2, x2, x1
	mov	x1, 0
	bne	.L525
	mov	x0, x19
	ldr	x19, [sp, 16]
	ldp	x29, x30, [sp], 48
	.cfi_remember_state
	.cfi_restore 30
	.cfi_restore 29
	.cfi_restore 19
	.cfi_def_cfa_offset 0
	ret
	.p2align 2,,3
.L521:
	.cfi_restore_state
	mov	x3, 30
	add	x1, sp, 32
	mov	x2, 0
	mov	x0, x8
	str	x3, [sp, 32]
	bl	_ZNSt7__cxx1112basic_stringIcSt11char_traitsIcESaIcEE9_M_createERmm
	adrp	x1, .LC14
	add	x1, x1, :lo12:.LC14
	ldr	x2, [sp, 32]
	str	x0, [x19]
	ldr	q1, [x1]
	str	x2, [x19, 16]
	ldr	q0, [x1, 14]
	str	q1, [x0]
	str	q0, [x0, 14]
	ldr	x1, [x19]
	ldr	x0, [sp, 32]
	str	x0, [x19, 8]
	strb	wzr, [x1, x0]
	b	.L512
	.p2align 2,,3
.L524:
	mov	x3, 55
	add	x1, sp, 32
	mov	x2, 0
	mov	x0, x8
	str	x3, [sp, 32]
	bl	_ZNSt7__cxx1112basic_stringIcSt11char_traitsIcESaIcEE9_M_createERmm
	adrp	x1, .LC17
	add	x1, x1, :lo12:.LC17
	ldr	x2, [sp, 32]
	str	x0, [x19]
	ldr	q2, [x1, 32]
	str	x2, [x19, 16]
	ldp	q0, q1, [x1]
	str	q2, [x0, 32]
	ldr	x1, [x1, 47]
	str	x1, [x0, 47]
.L520:
	stp	q0, q1, [x0]
	ldr	x1, [x19]
	ldr	x0, [sp, 32]
	str	x0, [x19, 8]
	strb	wzr, [x1, x0]
	b	.L512
	.p2align 2,,3
.L522:
	mov	x3, 51
	add	x1, sp, 32
	mov	x2, 0
	mov	x0, x8
	str	x3, [sp, 32]
	bl	_ZNSt7__cxx1112basic_stringIcSt11char_traitsIcESaIcEE9_M_createERmm
	adrp	x1, .LC15
	add	x1, x1, :lo12:.LC15
	ldr	x2, [sp, 32]
	str	x0, [x19]
	ldr	q2, [x1, 32]
	str	x2, [x19, 16]
	ldp	q0, q1, [x1]
	ldr	w1, [x1, 47]
	str	q2, [x0, 32]
	str	w1, [x0, 47]
	b	.L520
	.p2align 2,,3
.L523:
	mov	x3, 56
	add	x1, sp, 32
	mov	x2, 0
	mov	x0, x8
	str	x3, [sp, 32]
	bl	_ZNSt7__cxx1112basic_stringIcSt11char_traitsIcESaIcEE9_M_createERmm
	adrp	x1, .LC16
	add	x1, x1, :lo12:.LC16
	ldr	x2, [sp, 32]
	str	x0, [x19]
	ldp	q1, q2, [x1]
	str	x2, [x19, 16]
	ldr	q0, [x1, 32]
	ldr	x1, [x1, 48]
	str	x1, [x0, 48]
	stp	q1, q2, [x0]
	str	q0, [x0, 32]
	ldr	x1, [x19]
	ldr	x0, [sp, 32]
	str	x0, [x19, 8]
	strb	wzr, [x1, x0]
	b	.L512
.L525:
	bl	__stack_chk_fail
	.cfi_endproc
.LFE2646:
	.size	_ZNK4asio5error6detail14netdb_category7messageB5cxx11Ei, .-_ZNK4asio5error6detail14netdb_category7messageB5cxx11Ei
	.global	__aarch64_ldadd4_acq_rel
	.section	.text._ZN7openpal6LoggerD2Ev,"axG",@progbits,_ZN7openpal6LoggerD5Ev,comdat
	.align	2
	.p2align 4,,11
	.weak	_ZN7openpal6LoggerD2Ev
	.type	_ZN7openpal6LoggerD2Ev, %function
_ZN7openpal6LoggerD2Ev:
.LFB2070:
	.cfi_startproc
	stp	x29, x30, [sp, -48]!
	.cfi_def_cfa_offset 48
	.cfi_offset 29, -48
	.cfi_offset 30, -40
	mov	x29, sp
	stp	x19, x20, [sp, 16]
	.cfi_offset 19, -32
	.cfi_offset 20, -24
	mov	x19, x0
	ldr	x20, [x0, 24]
	str	x21, [sp, 32]
	.cfi_offset 21, -16
	cbz	x20, .L528
	adrp	x21, :got:__libc_single_threaded
	ldr	x0, [x21, #:got_lo12:__libc_single_threaded]
	ldrb	w0, [x0]
	cbz	w0, .L529
	ldr	w0, [x20, 8]
	sub	w1, w0, #1
	str	w1, [x20, 8]
.L530:
	cmp	w0, 1
	beq	.L542
.L528:
	ldr	x19, [x19, 8]
	cbz	x19, .L526
	adrp	x21, :got:__libc_single_threaded
	ldr	x0, [x21, #:got_lo12:__libc_single_threaded]
	ldrb	w0, [x0]
	cbz	w0, .L536
	ldr	w0, [x19, 8]
	sub	w1, w0, #1
	str	w1, [x19, 8]
.L537:
	cmp	w0, 1
	beq	.L543
.L526:
	ldp	x19, x20, [sp, 16]
	ldr	x21, [sp, 32]
	ldp	x29, x30, [sp], 48
	.cfi_remember_state
	.cfi_restore 30
	.cfi_restore 29
	.cfi_restore 21
	.cfi_restore 19
	.cfi_restore 20
	.cfi_def_cfa_offset 0
	ret
	.p2align 2,,3
.L542:
	.cfi_restore_state
	ldr	x1, [x20]
	mov	x0, x20
	ldr	x1, [x1, 16]
	blr	x1
	ldr	x21, [x21, #:got_lo12:__libc_single_threaded]
	ldrb	w0, [x21]
	cbz	w0, .L532
	ldr	w0, [x20, 12]
	sub	w1, w0, #1
	str	w1, [x20, 12]
.L533:
	cmp	w0, 1
	bne	.L528
	ldr	x1, [x20]
	mov	x0, x20
	ldr	x1, [x1, 24]
	blr	x1
	b	.L528
	.p2align 2,,3
.L543:
	ldr	x1, [x19]
	mov	x0, x19
	ldr	x1, [x1, 16]
	blr	x1
	ldr	x21, [x21, #:got_lo12:__libc_single_threaded]
	ldrb	w0, [x21]
	cbz	w0, .L539
	ldr	w0, [x19, 12]
	sub	w1, w0, #1
	str	w1, [x19, 12]
.L540:
	cmp	w0, 1
	bne	.L526
	ldr	x1, [x19]
	mov	x0, x19
	ldp	x19, x20, [sp, 16]
	ldr	x21, [sp, 32]
	ldp	x29, x30, [sp], 48
	.cfi_remember_state
	.cfi_restore 30
	.cfi_restore 29
	.cfi_restore 21
	.cfi_restore 19
	.cfi_restore 20
	.cfi_def_cfa_offset 0
	ldr	x1, [x1, 24]
	mov	x16, x1
	br	x16
	.p2align 2,,3
.L536:
	.cfi_restore_state
	add	x1, x19, 8
	mov	w0, -1
	bl	__aarch64_ldadd4_acq_rel
	b	.L537
	.p2align 2,,3
.L529:
	add	x1, x20, 8
	mov	w0, -1
	bl	__aarch64_ldadd4_acq_rel
	b	.L530
	.p2align 2,,3
.L532:
	add	x1, x20, 12
	mov	w0, -1
	bl	__aarch64_ldadd4_acq_rel
	b	.L533
	.p2align 2,,3
.L539:
	add	x1, x19, 12
	mov	w0, -1
	bl	__aarch64_ldadd4_acq_rel
	b	.L540
	.cfi_endproc
.LFE2070:
	.size	_ZN7openpal6LoggerD2Ev, .-_ZN7openpal6LoggerD2Ev
	.weak	_ZN7openpal6LoggerD1Ev
	.set	_ZN7openpal6LoggerD1Ev,_ZN7openpal6LoggerD2Ev
	.section	.rodata._ZNSt12system_errorC2ESt10error_codePKc.str1.8,"aMS",@progbits,1
	.align	3
.LC19:
	.string	": "
	.section	.text._ZNSt12system_errorC2ESt10error_codePKc,"axG",@progbits,_ZNSt12system_errorC5ESt10error_codePKc,comdat
	.align	2
	.p2align 4,,11
	.weak	_ZNSt12system_errorC2ESt10error_codePKc
	.type	_ZNSt12system_errorC2ESt10error_codePKc, %function
_ZNSt12system_errorC2ESt10error_codePKc:
.LFB2575:
	.cfi_startproc
	.cfi_personality 0x9b,DW.ref.__gxx_personality_v0
	.cfi_lsda 0x1b,.LLSDA2575
	stp	x29, x30, [sp, -176]!
	.cfi_def_cfa_offset 176
	.cfi_offset 29, -176
	.cfi_offset 30, -168
	adrp	x4, :got:__stack_chk_guard
	mov	x29, sp
	stp	x19, x20, [sp, 16]
	.cfi_offset 19, -160
	.cfi_offset 20, -152
	mov	x20, x2
	mov	x19, x0
	ldr	x2, [x4, #:got_lo12:__stack_chk_guard]
	stp	x21, x22, [sp, 32]
	mov	x0, x20
	ldr	x4, [x20]
	.cfi_offset 21, -144
	.cfi_offset 22, -136
	mov	x21, x1
	mov	x22, x3
	ldr	x4, [x4, 32]
	str	x23, [sp, 48]
	.cfi_offset 23, -128
	add	x23, sp, 136
	mov	x8, x23
	ldr	x3, [x2]
	str	x3, [sp, 168]
	mov	x3, 0
.LEHB2:
	blr	x4
.LEHE2:
	adrp	x3, .LC19
	mov	x0, x23
	add	x3, x3, :lo12:.LC19
	mov	x4, 2
	mov	x2, 0
	mov	x1, 0
.LEHB3:
	bl	_ZNSt7__cxx1112basic_stringIcSt11char_traitsIcESaIcEE10_M_replaceEmmPKcm
.LEHE3:
	add	x23, sp, 120
	str	x23, [sp, 104]
	mov	x4, x0
	ldr	x1, [x0], 16
	cmp	x1, x0
	beq	.L564
	ldr	x2, [x4, 16]
	str	x1, [sp, 104]
	str	x2, [sp, 120]
.L546:
	ldr	x1, [x4, 8]
	str	x1, [sp, 112]
	stp	x0, xzr, [x4]
	mov	x0, x22
	strb	wzr, [x4, 16]
	bl	strlen
	mov	x4, x0
	mov	x3, x22
	add	x0, sp, 104
	mov	x2, 0
	mov	x1, 0
.LEHB4:
	bl	_ZNSt7__cxx1112basic_stringIcSt11char_traitsIcESaIcEE10_M_replaceEmmPKcm
.LEHE4:
	add	x22, sp, 88
	str	x22, [sp, 72]
	mov	x3, x0
	ldr	x1, [x0], 16
	cmp	x1, x0
	beq	.L565
	ldr	x2, [x3, 16]
	str	x1, [sp, 72]
	str	x2, [sp, 88]
.L548:
	ldr	x1, [x3, 8]
	str	x1, [sp, 80]
	stp	x0, xzr, [x3]
	add	x1, sp, 72
	mov	x0, x19
	strb	wzr, [x3, 16]
.LEHB5:
	bl	_ZNSt13runtime_errorC2ERKNSt7__cxx1112basic_stringIcSt11char_traitsIcESaIcEEE
.LEHE5:
	ldr	x0, [sp, 72]
	cmp	x0, x22
	beq	.L549
	ldr	x1, [sp, 88]
	add	x1, x1, 1
	bl	_ZdlPvm
.L549:
	ldr	x0, [sp, 104]
	cmp	x0, x23
	beq	.L550
	ldr	x1, [sp, 120]
	add	x1, x1, 1
	bl	_ZdlPvm
.L550:
	ldr	x0, [sp, 136]
	add	x1, sp, 152
	cmp	x0, x1
	beq	.L551
	ldr	x1, [sp, 152]
	add	x1, x1, 1
	bl	_ZdlPvm
.L551:
	adrp	x0, :got:_ZTVSt12system_error
	adrp	x1, :got:__stack_chk_guard
	stp	x21, x20, [x19, 16]
	ldr	x0, [x0, #:got_lo12:_ZTVSt12system_error]
	ldr	x1, [x1, #:got_lo12:__stack_chk_guard]
	add	x0, x0, 16
	str	x0, [x19]
	ldr	x0, [sp, 168]
	ldr	x2, [x1]
	subs	x0, x0, x2
	mov	x2, 0
	bne	.L566
	ldp	x19, x20, [sp, 16]
	ldp	x21, x22, [sp, 32]
	ldr	x23, [sp, 48]
	ldp	x29, x30, [sp], 176
	.cfi_remember_state
	.cfi_restore 30
	.cfi_restore 29
	.cfi_restore 23
	.cfi_restore 21
	.cfi_restore 22
	.cfi_restore 19
	.cfi_restore 20
	.cfi_def_cfa_offset 0
	ret
	.p2align 2,,3
.L564:
	.cfi_restore_state
	ldp	x2, x3, [x4, 16]
	stp	x2, x3, [sp, 120]
	b	.L546
	.p2align 2,,3
.L565:
	ldp	x4, x5, [x3, 16]
	stp	x4, x5, [sp, 88]
	b	.L548
.L566:
	bl	__stack_chk_fail
.L561:
	ldr	x2, [sp, 72]
	mov	x19, x0
	cmp	x2, x22
	beq	.L554
	ldr	x1, [sp, 88]
	mov	x0, x2
	add	x1, x1, 1
	bl	_ZdlPvm
.L554:
	ldr	x0, [sp, 104]
	cmp	x0, x23
	beq	.L556
	ldr	x1, [sp, 120]
	add	x1, x1, 1
	bl	_ZdlPvm
.L556:
	ldr	x0, [sp, 136]
	add	x1, sp, 152
	cmp	x0, x1
	beq	.L557
	ldr	x1, [sp, 152]
	add	x1, x1, 1
	bl	_ZdlPvm
.L557:
	mov	x0, x19
.LEHB6:
	bl	_Unwind_Resume
.LEHE6:
.L559:
	mov	x19, x0
	b	.L556
.L560:
	mov	x19, x0
	b	.L554
	.cfi_endproc
.LFE2575:
	.section	.gcc_except_table._ZNSt12system_errorC2ESt10error_codePKc,"aG",@progbits,_ZNSt12system_errorC5ESt10error_codePKc,comdat
.LLSDA2575:
	.byte	0xff
	.byte	0xff
	.byte	0x1
	.uleb128 .LLSDACSE2575-.LLSDACSB2575
.LLSDACSB2575:
	.uleb128 .LEHB2-.LFB2575
	.uleb128 .LEHE2-.LEHB2
	.uleb128 0
	.uleb128 0
	.uleb128 .LEHB3-.LFB2575
	.uleb128 .LEHE3-.LEHB3
	.uleb128 .L559-.LFB2575
	.uleb128 0
	.uleb128 .LEHB4-.LFB2575
	.uleb128 .LEHE4-.LEHB4
	.uleb128 .L560-.LFB2575
	.uleb128 0
	.uleb128 .LEHB5-.LFB2575
	.uleb128 .LEHE5-.LEHB5
	.uleb128 .L561-.LFB2575
	.uleb128 0
	.uleb128 .LEHB6-.LFB2575
	.uleb128 .LEHE6-.LEHB6
	.uleb128 0
	.uleb128 0
.LLSDACSE2575:
	.section	.text._ZNSt12system_errorC2ESt10error_codePKc,"axG",@progbits,_ZNSt12system_errorC5ESt10error_codePKc,comdat
	.size	_ZNSt12system_errorC2ESt10error_codePKc, .-_ZNSt12system_errorC2ESt10error_codePKc
	.weak	_ZNSt12system_errorC1ESt10error_codePKc
	.set	_ZNSt12system_errorC1ESt10error_codePKc,_ZNSt12system_errorC2ESt10error_codePKc
	.global	__aarch64_ldadd8_acq_rel
	.section	.text._ZN4asio6detail15task_io_service12task_cleanupD2Ev,"axG",@progbits,_ZN4asio6detail15task_io_service12task_cleanupD5Ev,comdat
	.align	2
	.p2align 4,,11
	.weak	_ZN4asio6detail15task_io_service12task_cleanupD2Ev
	.type	_ZN4asio6detail15task_io_service12task_cleanupD2Ev, %function
_ZN4asio6detail15task_io_service12task_cleanupD2Ev:
.LFB3497:
	.cfi_startproc
	stp	x29, x30, [sp, -32]!
	.cfi_def_cfa_offset 32
	.cfi_offset 29, -32
	.cfi_offset 30, -24
	mov	x29, sp
	ldr	x1, [x0, 16]
	stp	x19, x20, [sp, 16]
	.cfi_offset 19, -16
	.cfi_offset 20, -8
	mov	x19, x0
	ldr	x0, [x1, 24]
	cmp	x0, 0
	ble	.L568
	ldr	x1, [x19]
	add	x1, x1, 192
	bl	__aarch64_ldadd8_acq_rel
	ldr	x1, [x19, 16]
.L568:
	ldr	x20, [x19, 8]
	ldrb	w0, [x20, 8]
	str	xzr, [x1, 24]
	cbz	w0, .L579
.L569:
	ldr	x0, [x19]
	mov	w4, 1
	ldr	x3, [x1, 8]
	add	x2, x0, 200
	strb	w4, [x0, 184]
	cbz	x3, .L570
	ldr	x4, [x2, 8]
	cbz	x4, .L571
	str	x3, [x4]
.L572:
	ldr	x3, [x1, 16]
	str	x3, [x2, 8]
	stp	xzr, xzr, [x1, 8]
.L570:
	add	x1, x0, 160
	ldr	x3, [x2, 8]
	str	xzr, [x0, 160]
	dup	v0.2d, x1
	cbz	x3, .L573
	str	x1, [x3]
	str	x1, [x2, 8]
	ldp	x19, x20, [sp, 16]
	ldp	x29, x30, [sp], 32
	.cfi_remember_state
	.cfi_restore 30
	.cfi_restore 29
	.cfi_restore 19
	.cfi_restore 20
	.cfi_def_cfa_offset 0
	ret
	.p2align 2,,3
.L571:
	.cfi_restore_state
	str	x3, [x0, 200]
	b	.L572
	.p2align 2,,3
.L579:
	ldr	x0, [x20]
	bl	pthread_mutex_lock
	mov	w0, 1
	ldr	x1, [x19, 16]
	strb	w0, [x20, 8]
	b	.L569
	.p2align 2,,3
.L573:
	str	q0, [x0, 200]
	ldp	x19, x20, [sp, 16]
	ldp	x29, x30, [sp], 32
	.cfi_restore 30
	.cfi_restore 29
	.cfi_restore 19
	.cfi_restore 20
	.cfi_def_cfa_offset 0
	ret
	.cfi_endproc
.LFE3497:
	.size	_ZN4asio6detail15task_io_service12task_cleanupD2Ev, .-_ZN4asio6detail15task_io_service12task_cleanupD2Ev
	.weak	_ZN4asio6detail15task_io_service12task_cleanupD1Ev
	.set	_ZN4asio6detail15task_io_service12task_cleanupD1Ev,_ZN4asio6detail15task_io_service12task_cleanupD2Ev
	.section	.text._ZN4asio6detail15task_io_service12work_cleanupD2Ev,"axG",@progbits,_ZN4asio6detail15task_io_service12work_cleanupD5Ev,comdat
	.align	2
	.p2align 4,,11
	.weak	_ZN4asio6detail15task_io_service12work_cleanupD2Ev
	.type	_ZN4asio6detail15task_io_service12work_cleanupD2Ev, %function
_ZN4asio6detail15task_io_service12work_cleanupD2Ev:
.LFB3500:
	.cfi_startproc
	stp	x29, x30, [sp, -80]!
	.cfi_def_cfa_offset 80
	.cfi_offset 29, -80
	.cfi_offset 30, -72
	adrp	x1, :got:__stack_chk_guard
	mov	x29, sp
	stp	x19, x20, [sp, 16]
	.cfi_offset 19, -64
	.cfi_offset 20, -56
	mov	x19, x0
	ldr	x0, [x1, #:got_lo12:__stack_chk_guard]
	ldr	x1, [x19, 16]
	ldr	x2, [x0]
	str	x2, [sp, 72]
	mov	x2, 0
	ldr	x0, [x1, 24]
	cmp	x0, 1
	bgt	.L601
	bne	.L602
.L582:
	ldr	x0, [x1, 8]
	str	xzr, [x1, 24]
	cbz	x0, .L580
	ldr	x20, [x19, 8]
	ldrb	w2, [x20, 8]
	cbz	w2, .L603
	ldr	x3, [x19]
.L591:
	add	x2, x3, 200
	ldr	x4, [x2, 8]
	cbz	x4, .L589
	str	x0, [x4]
.L590:
	ldr	x0, [x1, 16]
	str	x0, [x2, 8]
	stp	xzr, xzr, [x1, 8]
.L580:
	adrp	x0, :got:__stack_chk_guard
	ldr	x0, [x0, #:got_lo12:__stack_chk_guard]
	ldr	x2, [sp, 72]
	ldr	x1, [x0]
	subs	x2, x2, x1
	mov	x1, 0
	bne	.L604
	ldp	x19, x20, [sp, 16]
	ldp	x29, x30, [sp], 80
	.cfi_remember_state
	.cfi_restore 30
	.cfi_restore 29
	.cfi_restore 19
	.cfi_restore 20
	.cfi_def_cfa_offset 0
	ret
	.p2align 2,,3
.L602:
	.cfi_restore_state
	ldr	x20, [x19]
	mov	x0, -1
	stp	x21, x22, [sp, 32]
	.cfi_offset 22, -40
	.cfi_offset 21, -48
	mov	x21, 1
	add	x1, x20, 192
	bl	__aarch64_ldadd8_acq_rel
	cmp	x0, x21
	beq	.L583
.L600:
	ldr	x1, [x19, 16]
	ldp	x21, x22, [sp, 32]
	.cfi_restore 22
	.cfi_restore 21
	b	.L582
	.p2align 2,,3
.L603:
	ldr	x0, [x20]
	bl	pthread_mutex_lock
	ldr	x1, [x19, 16]
	mov	w0, 1
	ldr	x3, [x19]
	strb	w0, [x20, 8]
	ldr	x0, [x1, 8]
	cbz	x0, .L580
	b	.L591
	.p2align 2,,3
.L601:
	ldr	x1, [x19]
	sub	x0, x0, #1
	add	x1, x1, 192
	bl	__aarch64_ldadd8_acq_rel
	ldr	x1, [x19, 16]
	b	.L582
	.p2align 2,,3
.L583:
	.cfi_offset 21, -48
	.cfi_offset 22, -40
	add	x22, x20, 48
	mov	x0, x22
	bl	pthread_mutex_lock
	ldr	x1, [x20, 144]
	strb	w21, [x20, 216]
	add	x0, x20, 96
	orr	x1, x1, 1
	str	x1, [x0, 48]
	bl	pthread_cond_broadcast
	ldrb	w0, [x20, 184]
	cbnz	w0, .L584
	ldr	x1, [x20, 152]
	cbz	x1, .L584
	ldr	w2, [x1, 96]
	add	x4, x1, 96
	ldr	w0, [x1, 104]
	mov	w5, 9
	movk	w5, 0x8000, lsl 16
	strb	w21, [x20, 184]
	add	x3, sp, 56
	mov	w1, 3
	str	w5, [sp, 56]
	str	x4, [sp, 64]
	bl	epoll_ctl
.L584:
	mov	x0, x22
	bl	pthread_mutex_unlock
	b	.L600
	.p2align 2,,3
.L589:
	.cfi_restore 21
	.cfi_restore 22
	str	x0, [x3, 200]
	b	.L590
.L604:
	stp	x21, x22, [sp, 32]
	.cfi_offset 22, -40
	.cfi_offset 21, -48
	bl	__stack_chk_fail
	.cfi_endproc
.LFE3500:
	.size	_ZN4asio6detail15task_io_service12work_cleanupD2Ev, .-_ZN4asio6detail15task_io_service12work_cleanupD2Ev
	.weak	_ZN4asio6detail15task_io_service12work_cleanupD1Ev
	.set	_ZN4asio6detail15task_io_service12work_cleanupD1Ev,_ZN4asio6detail15task_io_service12work_cleanupD2Ev
	.section	.text.unlikely._ZN4asio6detail15throw_exceptionISt12system_errorEEvRKT_,"axG",@progbits,_ZN4asio6detail15throw_exceptionISt12system_errorEEvRKT_,comdat
	.align	2
	.weak	_ZN4asio6detail15throw_exceptionISt12system_errorEEvRKT_
	.type	_ZN4asio6detail15throw_exceptionISt12system_errorEEvRKT_, %function
_ZN4asio6detail15throw_exceptionISt12system_errorEEvRKT_:
.LFB7375:
	.cfi_startproc
	stp	x29, x30, [sp, -32]!
	.cfi_def_cfa_offset 32
	.cfi_offset 29, -32
	.cfi_offset 30, -24
	mov	x29, sp
	stp	x19, x20, [sp, 16]
	.cfi_offset 19, -16
	.cfi_offset 20, -8
	mov	x20, x0
	mov	x0, 32
	bl	__cxa_allocate_exception
	mov	x19, x0
	mov	x1, x20
	bl	_ZNSt13runtime_errorC2ERKS_
	adrp	x3, :got:_ZTVSt12system_error
	adrp	x2, :got:_ZNSt12system_errorD1Ev
	adrp	x1, :got:_ZTISt12system_error
	mov	x0, x19
	ldr	x3, [x3, #:got_lo12:_ZTVSt12system_error]
	ldp	x4, x5, [x20, 16]
	add	x3, x3, 16
	ldr	x2, [x2, #:got_lo12:_ZNSt12system_errorD1Ev]
	str	x3, [x19]
	ldr	x1, [x1, #:got_lo12:_ZTISt12system_error]
	stp	x4, x5, [x19, 16]
	bl	__cxa_throw
	.cfi_endproc
.LFE7375:
	.size	_ZN4asio6detail15throw_exceptionISt12system_errorEEvRKT_, .-_ZN4asio6detail15throw_exceptionISt12system_errorEEvRKT_
	.section	.text._ZN4asio6detail14do_throw_errorERKSt10error_code,"axG",@progbits,_ZN4asio6detail14do_throw_errorERKSt10error_code,comdat
	.align	2
	.p2align 4,,11
	.weak	_ZN4asio6detail14do_throw_errorERKSt10error_code
	.type	_ZN4asio6detail14do_throw_errorERKSt10error_code, %function
_ZN4asio6detail14do_throw_errorERKSt10error_code:
.LFB2638:
	.cfi_startproc
	.cfi_personality 0x9b,DW.ref.__gxx_personality_v0
	.cfi_lsda 0x1b,.LLSDA2638
	stp	x29, x30, [sp, -128]!
	.cfi_def_cfa_offset 128
	.cfi_offset 29, -128
	.cfi_offset 30, -120
	adrp	x1, :got:__stack_chk_guard
	mov	x29, sp
	ldr	x1, [x1, #:got_lo12:__stack_chk_guard]
	stp	x19, x20, [sp, 16]
	.cfi_offset 19, -112
	.cfi_offset 20, -104
	add	x19, sp, 88
	ldr	x20, [x0, 8]
	stp	x21, x22, [sp, 32]
	.cfi_offset 21, -96
	.cfi_offset 22, -88
	mov	x8, x19
	ldr	x2, [x1]
	str	x2, [sp, 120]
	mov	x2, 0
	ldr	w22, [x0]
	ldr	x2, [x20]
	mov	w1, w22
	mov	x0, x20
	add	x21, sp, 56
	ldr	x2, [x2, 32]
.LEHB7:
	blr	x2
.LEHE7:
	mov	x1, x19
	mov	x0, x21
.LEHB8:
	bl	_ZNSt13runtime_errorC2ERKNSt7__cxx1112basic_stringIcSt11char_traitsIcESaIcEEE
.LEHE8:
	ldr	x0, [sp, 88]
	add	x1, sp, 104
	cmp	x0, x1
	beq	.L608
	ldr	x1, [sp, 104]
	add	x1, x1, 1
	bl	_ZdlPvm
.L608:
	adrp	x1, :got:_ZTVSt12system_error
	mov	x0, x21
	str	w22, [sp, 72]
	ldr	x1, [x1, #:got_lo12:_ZTVSt12system_error]
	str	x20, [sp, 80]
	add	x1, x1, 16
	str	x1, [sp, 56]
.LEHB9:
	bl	_ZN4asio6detail15throw_exceptionISt12system_errorEEvRKT_
.LEHE9:
.L614:
	ldr	x2, [sp, 88]
	add	x1, sp, 104
	mov	x19, x0
	cmp	x2, x1
	beq	.L616
	ldr	x1, [sp, 104]
	mov	x0, x2
	add	x1, x1, 1
	bl	_ZdlPvm
	b	.L616
.L613:
	mov	x19, x0
	mov	x0, x21
	bl	_ZNSt12system_errorD1Ev
.L616:
	mov	x0, x19
.LEHB10:
	bl	_Unwind_Resume
.LEHE10:
	.cfi_endproc
.LFE2638:
	.section	.gcc_except_table._ZN4asio6detail14do_throw_errorERKSt10error_code,"aG",@progbits,_ZN4asio6detail14do_throw_errorERKSt10error_code,comdat
.LLSDA2638:
	.byte	0xff
	.byte	0xff
	.byte	0x1
	.uleb128 .LLSDACSE2638-.LLSDACSB2638
.LLSDACSB2638:
	.uleb128 .LEHB7-.LFB2638
	.uleb128 .LEHE7-.LEHB7
	.uleb128 0
	.uleb128 0
	.uleb128 .LEHB8-.LFB2638
	.uleb128 .LEHE8-.LEHB8
	.uleb128 .L614-.LFB2638
	.uleb128 0
	.uleb128 .LEHB9-.LFB2638
	.uleb128 .LEHE9-.LEHB9
	.uleb128 .L613-.LFB2638
	.uleb128 0
	.uleb128 .LEHB10-.LFB2638
	.uleb128 .LEHE10-.LEHB10
	.uleb128 0
	.uleb128 0
.LLSDACSE2638:
	.section	.text._ZN4asio6detail14do_throw_errorERKSt10error_code,"axG",@progbits,_ZN4asio6detail14do_throw_errorERKSt10error_code,comdat
	.size	_ZN4asio6detail14do_throw_errorERKSt10error_code, .-_ZN4asio6detail14do_throw_errorERKSt10error_code
	.section	.rodata.str1.8,"aMS",@progbits,1
	.align	3
.LC20:
	.string	"Starting thread (%d)"
	.align	3
.LC21:
	.string	"/home/jaehyun/OpenPLC_v3/utils/dnp3_src/cpp/libs/src/asiopal/ThreadPool.cpp(89)"
	.align	3
.LC22:
	.string	"Exiting thread (%d)"
	.align	3
.LC23:
	.string	"/home/jaehyun/OpenPLC_v3/utils/dnp3_src/cpp/libs/src/asiopal/ThreadPool.cpp(93)"
	.text
	.align	2
	.p2align 4,,11
	.global	_ZN7asiopal10ThreadPool3RunEi
	.type	_ZN7asiopal10ThreadPool3RunEi, %function
_ZN7asiopal10ThreadPool3RunEi:
.LFB7080:
	.cfi_startproc
	.cfi_personality 0x9b,DW.ref.__gxx_personality_v0
	.cfi_lsda 0x1b,.LLSDA7080
	sub	sp, sp, #2496
	.cfi_def_cfa_offset 2496
	adrp	x2, :got:__stack_chk_guard
	stp	x29, x30, [sp]
	.cfi_offset 29, -2496
	.cfi_offset 30, -2488
	mov	x29, sp
	ldr	x2, [x2, #:got_lo12:__stack_chk_guard]
	str	x0, [sp, 120]
	add	x0, x0, 48
	str	w1, [sp, 140]
	ldr	x3, [x2]
	str	x3, [sp, 2488]
	mov	x3, 0
	ldr	x1, [x0, 16]
	stp	x19, x20, [sp, 16]
	.cfi_offset 20, -2472
	.cfi_offset 19, -2480
	stp	x21, x22, [sp, 32]
	.cfi_offset 22, -2456
	.cfi_offset 21, -2464
	stp	x25, x26, [sp, 64]
	.cfi_offset 26, -2424
	.cfi_offset 25, -2432
	cbz	x1, .L736
	ldr	x1, [x0, 24]
	add	x26, sp, 288
	mov	w19, 8
.LEHB11:
	blr	x1
	str	w19, [sp, 288]
	ldr	x0, [sp, 120]
	mov	x1, x26
	bl	_ZNK7openpal6Logger9IsEnabledERKNS_10LogFiltersE
.LEHE11:
	tst	w0, 255
	bne	.L871
.L619:
	ldr	x0, [sp, 120]
	str	wzr, [sp, 144]
	ldr	x0, [x0, 32]
	ldr	x21, [x0, 16]
	bl	_ZNSt3_V215system_categoryEv
	str	x0, [sp, 152]
	add	x1, x21, 192
	stp	x1, x0, [sp, 104]
	ldar	x0, [x1]
	add	x1, x21, 48
	str	x1, [sp, 128]
	cbz	x0, .L872
	adrp	x0, :got:_ZN4asio6detail10call_stackINS0_15task_io_serviceENS0_27task_io_service_thread_infoEE4top_E
	stp	x23, x24, [sp, 48]
	.cfi_offset 24, -2440
	.cfi_offset 23, -2448
	add	x24, sp, 224
	ldr	x19, [x0, #:got_lo12:_ZN4asio6detail10call_stackINS0_15task_io_serviceENS0_27task_io_service_thread_infoEE4top_E]
	stp	x27, x28, [sp, 80]
	.cfi_offset 28, -2408
	.cfi_offset 27, -2416
	stp	x21, x24, [sp, 176]
	ldr	w0, [x19]
	stp	xzr, xzr, [sp, 224]
	stp	xzr, xzr, [sp, 240]
	bl	pthread_getspecific
	mov	x2, x0
	ldr	w0, [x19]
	add	x1, sp, 176
	str	x2, [sp, 192]
	bl	pthread_setspecific
	add	x0, x21, 48
	str	x0, [sp, 160]
	bl	pthread_mutex_lock
	mov	w0, 1
	strb	w0, [sp, 168]
.L623:
	ldrb	w0, [x21, 216]
	cbnz	w0, .L719
	add	x22, x21, 200
	.p2align 3,,7
.L624:
	ldr	x23, [x22]
	cbz	x23, .L627
	ldr	x19, [x23]
	str	x19, [x22]
	add	x0, x21, 160
	cbz	x19, .L873
	ldrb	w1, [x21, 40]
	str	xzr, [x23]
	cmp	x23, x0
	bne	.L874
	mov	w0, 1
	strb	w0, [x21, 184]
	ldrb	w0, [sp, 168]
	cbz	w1, .L875
	cbnz	w0, .L876
.L633:
	ldr	x20, [x21, 152]
	add	x0, sp, 160
	stp	x21, x0, [sp, 200]
	ldr	w0, [x20, 108]
	str	x24, [sp, 216]
	cmn	w0, #1
	beq	.L634
.L890:
	cmp	x19, 0
	csetm	w3, eq
.L635:
	ldr	w0, [x20, 104]
	add	x19, sp, 320
	mov	x1, x19
	mov	w2, 128
.LEHB12:
	bl	epoll_wait
.LEHE12:
	ldr	w1, [x20, 108]
	cmn	w1, #1
	cset	w2, eq
	cmp	w0, 0
	ble	.L647
	sub	w0, w0, #1
	add	x1, sp, 336
	add	x6, x20, 96
	add	x4, x20, 108
	add	x1, x1, w0, uxtw 4
	mov	w5, 1
	b	.L651
	.p2align 2,,3
.L648:
	cmp	x0, x4
	beq	.L753
	ldr	x3, [sp, 240]
	ldr	w7, [x19]
	str	xzr, [x0]
	str	w7, [x0, 16]
	cbz	x3, .L650
	str	x0, [x3]
	str	x0, [sp, 240]
.L649:
	add	x19, x19, 16
	cmp	x19, x1
	beq	.L647
.L651:
	ldr	x0, [x19, 8]
	dup	v0.2d, x0
	cmp	x6, x0
	bne	.L648
	ldr	w0, [x20, 108]
	add	x19, x19, 16
	cmn	w0, #1
	csel	w2, w2, w5, ne
	cmp	x19, x1
	bne	.L651
.L647:
	cbnz	w2, .L877
.L652:
	ldr	x0, [sp, 248]
	cmp	x0, 0
	ble	.L691
	ldr	x1, [sp, 104]
	bl	__aarch64_ldadd8_acq_rel
.L691:
	ldp	x20, x19, [sp, 208]
	ldrb	w0, [x20, 8]
	str	xzr, [x19, 24]
	cbz	w0, .L878
.L695:
	ldr	x0, [sp, 200]
	mov	w3, 1
	ldr	x2, [x19, 8]
	add	x1, x0, 200
	strb	w3, [x0, 184]
	cbz	x2, .L696
	ldr	x3, [x1, 8]
	cbz	x3, .L697
	str	x2, [x3]
.L698:
	ldr	x2, [x19, 16]
	str	x2, [x1, 8]
	stp	xzr, xzr, [x19, 8]
.L696:
	add	x2, x0, 160
	ldr	x3, [x1, 8]
	str	xzr, [x0, 160]
	dup	v0.2d, x2
	cbz	x3, .L699
	str	x2, [x3]
	str	x2, [x1, 8]
.L701:
	ldrb	w0, [x21, 216]
	cbz	w0, .L624
.L719:
	ldrb	w0, [sp, 168]
	cbnz	w0, .L879
.L626:
	adrp	x0, :got:_ZN4asio6detail10call_stackINS0_15task_io_serviceENS0_27task_io_service_thread_infoEE4top_E
	ldr	x1, [sp, 192]
	ldr	x0, [x0, #:got_lo12:_ZN4asio6detail10call_stackINS0_15task_io_serviceENS0_27task_io_service_thread_infoEE4top_E]
	ldr	w0, [x0]
	bl	pthread_setspecific
	ldr	x1, [sp, 232]
	cbnz	x1, .L722
	b	.L726
	.p2align 2,,3
.L725:
	ldr	x4, [x1, 8]
	str	xzr, [x1]
	ldr	x0, [sp, 112]
	str	wzr, [sp, 288]
	str	x0, [sp, 296]
	mov	x2, x26
	mov	x3, 0
	mov	x0, 0
	blr	x4
	ldr	x1, [sp, 232]
	cbz	x1, .L726
.L722:
	ldr	x0, [x1]
	str	x0, [sp, 232]
	cbnz	x0, .L725
	ldr	x4, [x1, 8]
	str	xzr, [sp, 240]
	str	xzr, [x1]
	mov	x2, x26
	ldr	x0, [sp, 112]
	str	wzr, [sp, 288]
	str	x0, [sp, 296]
	mov	x3, 0
	mov	x0, 0
	blr	x4
	ldr	x1, [sp, 232]
	cbnz	x1, .L722
.L726:
	ldr	x0, [sp, 224]
	cbz	x0, .L867
	bl	_ZdlPv
.L867:
	ldp	x23, x24, [sp, 48]
	.cfi_restore 24
	.cfi_restore 23
	ldp	x27, x28, [sp, 80]
	.cfi_restore 28
	.cfi_restore 27
.L622:
	ldr	w0, [sp, 144]
	cbnz	w0, .L880
	ldr	x0, [sp, 120]
	mov	w19, 8
	mov	x1, x26
	str	w19, [sp, 288]
.LEHB13:
	bl	_ZNK7openpal6Logger9IsEnabledERKNS_10LogFiltersE
	tst	w0, 255
	bne	.L881
.L735:
	ldr	x0, [sp, 120]
	add	x0, x0, 80
	ldr	x1, [x0, 16]
	cbz	x1, .L736
	adrp	x1, :got:__stack_chk_guard
	ldr	x1, [x1, #:got_lo12:__stack_chk_guard]
	ldr	x3, [sp, 2488]
	ldr	x2, [x1]
	subs	x3, x3, x2
	mov	x2, 0
	bne	.L882
	ldp	x29, x30, [sp]
	ldp	x19, x20, [sp, 16]
	.cfi_restore 20
	.cfi_restore 19
	ldp	x21, x22, [sp, 32]
	.cfi_restore 22
	.cfi_restore 21
	ldp	x25, x26, [sp, 64]
	.cfi_restore 26
	.cfi_restore 25
	ldr	x1, [x0, 24]
	add	sp, sp, 2496
	.cfi_restore 29
	.cfi_restore 30
	.cfi_def_cfa_offset 0
	mov	x16, x1
	br	x16
.LEHE13:
	.p2align 2,,3
.L875:
	.cfi_def_cfa_offset 2496
	.cfi_offset 19, -2480
	.cfi_offset 20, -2472
	.cfi_offset 21, -2464
	.cfi_offset 22, -2456
	.cfi_offset 23, -2448
	.cfi_offset 24, -2440
	.cfi_offset 25, -2432
	.cfi_offset 26, -2424
	.cfi_offset 27, -2416
	.cfi_offset 28, -2408
	.cfi_offset 29, -2496
	.cfi_offset 30, -2488
	ldr	x20, [x21, 144]
	add	x19, x21, 96
	orr	x20, x20, 1
	str	x20, [x19, 48]
	cbnz	w0, .L883
.L631:
	cmp	x20, 1
	beq	.L632
	mov	x0, x19
	bl	pthread_cond_signal
.L632:
	ldr	x20, [x21, 152]
	add	x0, sp, 160
	stp	x21, x0, [sp, 200]
	mov	w3, 0
	ldr	w0, [x20, 108]
	str	x24, [sp, 216]
	cmn	w0, #1
	bne	.L635
	add	x25, x20, 48
	str	w3, [sp, 136]
	mov	x0, x25
	bl	pthread_mutex_lock
	ldr	w3, [sp, 136]
.L636:
	mov	x0, x25
	str	w3, [sp, 136]
	bl	pthread_mutex_unlock
	ldr	w3, [sp, 136]
	b	.L635
	.p2align 2,,3
.L753:
	mov	w2, 1
	b	.L649
	.p2align 2,,3
.L650:
	str	q0, [sp, 232]
	b	.L649
	.p2align 2,,3
.L878:
	ldr	x0, [x20]
	bl	pthread_mutex_lock
	mov	w0, 1
	strb	w0, [x20, 8]
	b	.L695
	.p2align 2,,3
.L877:
	add	x25, x20, 48
	adrp	x23, :got:_ZN4asio6detail11timer_queueINS0_18chrono_time_traitsINSt6chrono3_V212steady_clockENS_11wait_traitsIS5_EEEEE16get_ready_timersERNS0_8op_queueINS0_25task_io_service_operationEEE
	mov	x0, x25
	bl	pthread_mutex_lock
	ldr	x19, [x20, 112]
	add	x27, sp, 232
	ldr	x23, [x23, #:got_lo12:_ZN4asio6detail11timer_queueINS0_18chrono_time_traitsINSt6chrono3_V212steady_clockENS_11wait_traitsIS5_EEEEE16get_ready_timersERNS0_8op_queueINS0_25task_io_service_operationEEE]
	cbz	x19, .L658
	.p2align 3,,7
.L653:
	ldr	x0, [x19]
	ldr	x2, [x0, 40]
	cmp	x2, x23
	bne	.L656
	ldp	x1, x0, [x19, 24]
	cmp	x1, x0
	beq	.L660
	bl	_ZNSt6chrono3_V212steady_clock3nowEv
	ldp	x1, x8, [x19, 24]
	cmp	x8, x1
	beq	.L660
	.p2align 3,,7
.L659:
	ldr	x2, [x1]
	cmp	x0, x2
	blt	.L660
	ldr	x6, [x1, 8]
	ldr	x2, [x6]
	cbz	x2, .L676
	ldr	x3, [sp, 240]
	cbz	x3, .L661
	str	x2, [x3]
.L662:
	ldr	x2, [x6, 8]
	str	x2, [sp, 240]
	stp	xzr, xzr, [x6]
.L676:
	sub	x2, x8, x1
	ldr	x4, [x6, 16]
	asr	x12, x2, 4
	cmp	x4, x12
	bcs	.L884
	sub	x12, x12, #1
	sub	x8, x8, #16
	cmp	x4, x12
	beq	.L885
	sub	x2, x2, #16
	lsl	x3, x4, 4
	add	x9, x1, x2
	add	x5, x1, x3
	ldr	x13, [x1, x3]
	ldp	x10, x11, [x9]
	ldr	x7, [x5, 8]
	stp	x10, x11, [x5]
	str	x13, [x1, x2]
	str	x7, [x9, 8]
	ldr	x2, [x5, 8]
	str	x4, [x2, 16]
	str	x12, [x7, 16]
	str	x8, [x19, 32]
	cbz	x4, .L666
	sub	x2, x4, #1
	ldr	x7, [x1, x3]
	lsr	x2, x2, 1
	lsl	x10, x2, 4
	add	x9, x1, x10
	ldr	x10, [x1, x10]
	cmp	x7, x10
	blt	.L667
.L666:
	sub	x7, x8, x1
	lsl	x2, x4, 1
	add	x2, x2, 1
	asr	x7, x7, 4
	cmp	x2, x7
	bcs	.L664
	ldr	x13, [x5]
	mov	x14, x13
	b	.L669
	.p2align 2,,3
.L886:
	ldp	x12, x13, [x10]
	lsl	x5, x2, 1
	ldr	x9, [x3, 8]
	stp	x12, x13, [x3]
	add	x5, x5, 1
	stp	x14, x9, [x10]
	ldr	x3, [x3, 8]
	str	x4, [x3, 16]
	str	x2, [x9, 16]
	cmp	x5, x7
	bcs	.L664
	mov	x4, x2
	mov	x2, x5
	lsl	x3, x4, 4
.L669:
	lsl	x5, x2, 4
	add	x11, x2, 1
	add	x10, x1, x5
	ldr	x9, [x1, x5]
	cmp	x11, x7
	beq	.L668
	add	x5, x5, 16
	add	x12, x1, x5
	ldr	x5, [x1, x5]
	cmp	x5, x9
	csel	x9, x9, x5, gt
	csel	x2, x2, x11, gt
	csel	x10, x10, x12, gt
.L668:
	add	x3, x1, x3
	cmp	x14, x9
	bge	.L886
	.p2align 3,,7
.L664:
	ldr	x3, [x19, 16]
	ldr	x2, [x6, 24]
	cmp	x6, x3
	beq	.L887
.L671:
	ldr	x3, [x6, 32]
	cbz	x3, .L672
	str	x2, [x3, 24]
	ldr	x2, [x6, 24]
.L672:
	cbz	x2, .L673
	str	x3, [x2, 32]
	stp	xzr, xzr, [x6, 24]
	cmp	x8, x1
	bne	.L659
	.p2align 3,,7
.L660:
	ldr	x19, [x19, 8]
	cbnz	x19, .L653
.L658:
	ldr	w0, [x20, 108]
	cmn	w0, #1
	beq	.L655
	ldr	x19, [x20, 112]
	stp	xzr, xzr, [sp, 256]
	cbz	x19, .L677
	adrp	x23, :got:_ZNK4asio6detail11timer_queueINS0_18chrono_time_traitsINSt6chrono3_V212steady_clockENS_11wait_traitsIS5_EEEEE18wait_duration_usecEl
	mov	x27, 41728
	movk	x27, 0x11e1, lsl 16
	ldr	x23, [x23, #:got_lo12:_ZNK4asio6detail11timer_queueINS0_18chrono_time_traitsINSt6chrono3_V212steady_clockENS_11wait_traitsIS5_EEEEE18wait_duration_usecEl]
	.p2align 3,,7
.L686:
	ldr	x0, [x19]
	ldr	x2, [x0, 32]
	cmp	x2, x23
	bne	.L678
	ldp	x28, x0, [x19, 24]
	cmp	x28, x0
	beq	.L679
	bl	_ZNSt6chrono3_V212steady_clock3nowEv
	ldr	x2, [x28]
	tbnz	x2, #63, .L680
	tbnz	x0, #63, .L681
.L861:
	sub	x2, x2, x0
	cmp	x2, 0
	ble	.L758
	mov	x0, 63439
	movk	x0, 0xe353, lsl 16
	movk	x0, 0x9ba5, lsl 32
	movk	x0, 0x20c4, lsl 48
	smulh	x0, x2, x0
	asr	x0, x0, 7
	sub	x2, x0, x2, asr 63
.L684:
	cbz	x2, .L888
.L683:
	cmp	x27, x2
	csel	x27, x27, x2, le
.L679:
	ldr	x19, [x19, 8]
	cbnz	x19, .L686
	mov	x0, 13531
	cmp	x27, 0
	movk	x0, 0xd7b6, lsl 16
	cset	w3, eq
	movk	x0, 0xde82, lsl 32
	mov	x4, 1
	movk	x0, 0x431b, lsl 48
	smulh	x2, x27, x0
	ldr	w0, [x20, 108]
	asr	x2, x2, 18
	sub	x2, x2, x27, asr 63
	str	x2, [sp, 272]
	beq	.L689
	mov	x1, 16960
	movk	x1, 0xf, lsl 16
	msub	x2, x2, x1, x27
	lsl	x4, x2, 5
	sub	x4, x4, x2
	add	x4, x2, x4, lsl 2
	lsl	x4, x4, 3
.L689:
	mov	w1, w3
	add	x2, sp, 256
	mov	x3, x26
	str	x4, [sp, 280]
	bl	timerfd_settime
.L655:
	mov	x0, x25
	bl	pthread_mutex_unlock
	b	.L652
	.p2align 2,,3
.L667:
	ldp	x10, x11, [x9]
	ldr	x3, [x5, 8]
	stp	x10, x11, [x5]
	stp	x7, x3, [x9]
	ldr	x5, [x5, 8]
	str	x4, [x5, 16]
	str	x2, [x3, 16]
	cbz	x2, .L664
	sub	x7, x2, #1
	lsl	x3, x2, 4
	mov	x4, x2
	add	x5, x1, x3
	lsr	x2, x7, 1
	ldr	x7, [x1, x3]
	lsl	x3, x2, 4
	add	x9, x1, x3
	ldr	x3, [x1, x3]
	cmp	x7, x3
	blt	.L667
	ldr	x3, [x19, 16]
	ldr	x2, [x6, 24]
	cmp	x6, x3
	bne	.L671
.L887:
	str	x2, [x19, 16]
	b	.L671
	.p2align 2,,3
.L661:
	str	x2, [sp, 232]
	b	.L662
	.p2align 2,,3
.L884:
	ldr	x8, [x19, 32]
	b	.L664
	.p2align 2,,3
.L885:
	str	x8, [x19, 32]
	b	.L664
	.p2align 2,,3
.L656:
	mov	x1, x27
	mov	x0, x19
.LEHB14:
	blr	x2
	ldr	x19, [x19, 8]
	cbnz	x19, .L653
	b	.L658
	.p2align 2,,3
.L680:
	tbnz	x0, #63, .L861
.L758:
	mov	x27, 0
	b	.L679
	.p2align 2,,3
.L678:
	mov	x1, x27
	mov	x0, x19
	blr	x2
.LEHE14:
	mov	x27, x0
	b	.L679
	.p2align 2,,3
.L873:
	str	xzr, [x22, 8]
	str	xzr, [x23]
	cmp	x23, x0
	bne	.L889
	ldrb	w0, [sp, 168]
	strb	wzr, [x21, 184]
	cbz	w0, .L633
.L876:
	ldr	x0, [sp, 160]
	bl	pthread_mutex_unlock
	strb	wzr, [sp, 168]
	ldr	x20, [x21, 152]
	add	x0, sp, 160
	stp	x21, x0, [sp, 200]
	ldr	w0, [x20, 108]
	str	x24, [sp, 216]
	cmn	w0, #1
	bne	.L890
.L634:
	add	x25, x20, 48
	mov	x0, x25
	bl	pthread_mutex_lock
	cbnz	x19, .L746
	ldr	x19, [x20, 112]
	cbz	x19, .L747
	adrp	x23, :got:_ZNK4asio6detail11timer_queueINS0_18chrono_time_traitsINSt6chrono3_V212steady_clockENS_11wait_traitsIS5_EEEEE18wait_duration_msecEl
	mov	x28, 37856
	movk	x28, 0x4, lsl 16
	ldr	x23, [x23, #:got_lo12:_ZNK4asio6detail11timer_queueINS0_18chrono_time_traitsINSt6chrono3_V212steady_clockENS_11wait_traitsIS5_EEEEE18wait_duration_msecEl]
	.p2align 3,,7
.L646:
	ldr	x2, [x19]
	ldr	x2, [x2, 24]
	cmp	x2, x23
	bne	.L638
	ldp	x27, x0, [x19, 24]
	cmp	x27, x0
	beq	.L639
	bl	_ZNSt6chrono3_V212steady_clock3nowEv
	ldr	x2, [x27]
	tbnz	x2, #63, .L640
	tbnz	x0, #63, .L641
.L860:
	sub	x2, x2, x0
	cmp	x2, 0
	ble	.L751
	mov	x0, 13531
	movk	x0, 0xd7b6, lsl 16
	movk	x0, 0xde82, lsl 32
	movk	x0, 0x431b, lsl 48
	smulh	x0, x2, x0
	asr	x0, x0, 18
	sub	x2, x0, x2, asr 63
.L644:
	cbz	x2, .L891
.L643:
	cmp	x28, x2
	csel	x28, x28, x2, le
.L639:
	ldr	x19, [x19, 8]
	cbnz	x19, .L646
	mov	w3, w28
	b	.L636
	.p2align 2,,3
.L699:
	str	q0, [x0, 200]
	b	.L701
	.p2align 2,,3
.L888:
	mov	x27, 1
	b	.L679
	.p2align 2,,3
.L681:
	mov	x1, -9223372036854775808
	cmp	x0, x1
	beq	.L756
	mov	x1, 9223372036854775807
	neg	x4, x0
	sub	x3, x1, x2
	cmp	x3, x4
	blt	.L756
	sub	x2, x2, x0
	mov	x0, 63439
	movk	x0, 0xe353, lsl 16
	lsr	x2, x2, 3
	movk	x0, 0x9ba5, lsl 32
	movk	x0, 0x20c4, lsl 48
	umulh	x2, x2, x0
	lsr	x2, x2, 4
	b	.L684
	.p2align 2,,3
.L627:
	ldr	x0, [x21, 144]
	add	x19, x21, 96
	and	x0, x0, -2
	.p2align 3,,7
.L718:
	ldr	x1, [sp, 160]
	add	x0, x0, 2
	str	x0, [x19, 48]
	mov	x0, x19
.LEHB15:
	bl	pthread_cond_wait
.LEHE15:
	ldr	x0, [x19, 48]
	sub	x0, x0, #2
	str	x0, [x19, 48]
	tbz	x0, 0, .L718
	b	.L701
	.p2align 2,,3
.L697:
	str	x2, [x0, 200]
	b	.L698
.L756:
	mov	x2, 21495
	movk	x2, 0xa5e3, lsl 16
	movk	x2, 0xc49b, lsl 32
	movk	x2, 0x20, lsl 48
	b	.L683
	.p2align 2,,3
.L640:
	tbnz	x0, #63, .L860
.L751:
	mov	x28, 0
	b	.L639
	.p2align 2,,3
.L638:
	mov	x1, x28
	mov	x0, x19
.LEHB16:
	blr	x2
.LEHE16:
	mov	x28, x0
	b	.L639
.L891:
	mov	x28, 1
	b	.L639
.L641:
	mov	x1, -9223372036854775808
	cmp	x0, x1
	beq	.L749
	mov	x1, 9223372036854775807
	neg	x3, x0
	sub	x1, x1, x2
	cmp	x1, x3
	blt	.L749
	sub	x2, x2, x0
	mov	x0, 13531
	movk	x0, 0xd7b6, lsl 16
	movk	x0, 0xde82, lsl 32
	movk	x0, 0x431b, lsl 48
	umulh	x2, x2, x0
	lsr	x2, x2, 18
	b	.L644
.L749:
	mov	x2, 23286
	movk	x2, 0x7bd0, lsl 16
	movk	x2, 0x863, lsl 32
	b	.L643
.L883:
	ldr	x0, [sp, 160]
	bl	pthread_mutex_unlock
	strb	wzr, [sp, 168]
	b	.L631
.L874:
	ldr	w20, [x23, 16]
	cbz	w1, .L892
.L743:
	ldrb	w0, [sp, 168]
	cbnz	w0, .L893
.L704:
	ldr	x4, [x23, 8]
	add	x0, sp, 160
	stp	x21, x0, [sp, 288]
	mov	x3, x20
	mov	x1, x23
	str	x24, [sp, 304]
	add	x2, sp, 144
	mov	x0, x21
.LEHB17:
	blr	x4
.LEHE17:
	ldr	x0, [sp, 248]
	cmp	x0, 1
	bgt	.L894
	mov	x19, x24
	beq	.L707
	ldr	x1, [sp, 104]
	mov	x19, 1
	mov	x0, -1
	bl	__aarch64_ldadd8_acq_rel
	cmp	x0, x19
	beq	.L708
.L863:
	ldr	x19, [sp, 304]
.L707:
	str	xzr, [x19, 24]
	ldr	x0, [x19, 8]
	cbz	x0, .L711
	ldp	x22, x20, [sp, 288]
	ldrb	w1, [x20, 8]
	cbz	w1, .L895
.L712:
	ldr	x2, [x22, 208]
	add	x1, x22, 200
	cbz	x2, .L714
	str	x0, [x2]
.L715:
	ldr	x0, [x19, 16]
	str	x0, [x1, 8]
	stp	xzr, xzr, [x19, 8]
.L711:
	ldrb	w0, [sp, 168]
	cbnz	w0, .L623
	ldr	x0, [sp, 160]
	bl	pthread_mutex_lock
	mov	w0, 1
	strb	w0, [sp, 168]
	b	.L623
	.p2align 2,,3
.L673:
	stp	xzr, xzr, [x6, 24]
	cmp	x8, x1
	bne	.L659
	ldr	x19, [x19, 8]
	cbnz	x19, .L653
	b	.L658
.L894:
	ldr	x1, [sp, 104]
	sub	x0, x0, #1
	bl	__aarch64_ldadd8_acq_rel
	ldr	x19, [sp, 304]
	b	.L707
.L677:
	mov	x1, 300
	mov	w3, 0
	mov	x4, 0
	str	x1, [sp, 272]
	b	.L689
.L746:
	mov	w3, 0
	b	.L636
.L893:
	ldr	x0, [sp, 160]
	bl	pthread_mutex_unlock
	strb	wzr, [sp, 168]
	b	.L704
.L889:
	ldr	w20, [x23, 16]
	b	.L743
.L747:
	mov	w3, 37856
	movk	w3, 0x4, lsl 16
	b	.L636
.L895:
	ldr	x0, [x20]
	bl	pthread_mutex_lock
	ldr	x0, [x19, 8]
	mov	w1, 1
	strb	w1, [x20, 8]
	cbz	x0, .L711
	b	.L712
	.p2align 2,,3
.L892:
	ldr	x0, [x21, 144]
	add	x19, x21, 96
	orr	x0, x0, 1
	str	x0, [x19, 48]
	cmp	x0, 1
	beq	.L702
	ldrb	w0, [sp, 168]
	cbnz	w0, .L896
.L703:
	mov	x0, x19
	bl	pthread_cond_signal
	b	.L704
.L702:
	ldrb	w1, [x21, 184]
	cbnz	w1, .L743
	ldr	x4, [x21, 152]
	cbz	x4, .L743
	mov	w1, 9
	strb	w0, [x21, 184]
	ldr	w2, [x4, 96]
	add	x0, x4, 96
	movk	w1, 0x8000, lsl 16
	str	w1, [sp, 288]
	str	x0, [sp, 296]
	mov	x3, x26
	mov	w1, 3
	ldr	w0, [x4, 104]
	bl	epoll_ctl
	b	.L743
.L708:
	ldr	x0, [sp, 128]
	bl	pthread_mutex_lock
	strb	w19, [x21, 216]
	ldr	x1, [x21, 144]
	add	x0, x21, 96
	orr	x1, x1, 1
	str	x1, [x0, 48]
	bl	pthread_cond_broadcast
	ldrb	w0, [x21, 184]
	cbnz	w0, .L709
	ldr	x0, [x21, 152]
	cbz	x0, .L709
	mov	w2, 9
	strb	w19, [x21, 184]
	add	x1, x0, 96
	movk	w2, 0x8000, lsl 16
	str	w2, [sp, 256]
	add	x3, sp, 256
	str	x1, [sp, 264]
	mov	w1, 3
	ldr	w2, [x0, 96]
	ldr	w0, [x0, 104]
	bl	epoll_ctl
.L709:
	ldr	x0, [sp, 128]
	bl	pthread_mutex_unlock
	b	.L863
.L714:
	str	x0, [x22, 200]
	b	.L715
.L881:
	.cfi_restore 23
	.cfi_restore 24
	.cfi_restore 27
	.cfi_restore 28
	ldr	w5, [sp, 140]
	add	x20, sp, 2368
	mov	x3, 120
	mov	x0, x20
	mov	x1, x3
	mov	w2, 1
	adrp	x4, .LC22
	add	x4, x4, :lo12:.LC22
	bl	__snprintf_chk
	str	w19, [sp, 288]
	ldr	x0, [sp, 120]
	mov	x3, x20
	mov	x1, x26
	adrp	x2, .LC23
	add	x2, x2, :lo12:.LC23
.LEHB18:
	bl	_ZN7openpal6Logger3LogERKNS_10LogFiltersEPKcS5_
	b	.L735
.L872:
	mov	x0, x1
	bl	pthread_mutex_lock
	ldr	x1, [x21, 144]
	mov	w19, 1
	strb	w19, [x21, 216]
	add	x0, x21, 96
	orr	x1, x1, 1
	str	x1, [x0, 48]
	bl	pthread_cond_broadcast
	ldrb	w0, [x21, 184]
	cbnz	w0, .L621
	ldr	x0, [x21, 152]
	cbz	x0, .L621
	mov	w2, 9
	strb	w19, [x21, 184]
	add	x1, x0, 96
	movk	w2, 0x8000, lsl 16
	str	w2, [sp, 288]
	mov	x3, x26
	str	x1, [sp, 296]
	mov	w1, 3
	ldr	w2, [x0, 96]
	ldr	w0, [x0, 104]
	bl	epoll_ctl
.L621:
	ldr	x0, [sp, 128]
	bl	pthread_mutex_unlock
	b	.L622
.L871:
	ldr	w5, [sp, 140]
	add	x20, sp, 2368
	mov	x3, 120
	mov	x0, x20
	mov	x1, x3
	mov	w2, 1
	adrp	x4, .LC20
	add	x4, x4, :lo12:.LC20
	bl	__snprintf_chk
	str	w19, [sp, 288]
	ldr	x0, [sp, 120]
	mov	x3, x20
	mov	x1, x26
	adrp	x2, .LC21
	add	x2, x2, :lo12:.LC21
	bl	_ZN7openpal6Logger3LogERKNS_10LogFiltersEPKcS5_
	b	.L619
.L879:
	.cfi_offset 23, -2448
	.cfi_offset 24, -2440
	.cfi_offset 27, -2416
	.cfi_offset 28, -2408
	ldr	x0, [sp, 160]
	bl	pthread_mutex_unlock
	b	.L626
.L896:
	ldr	x0, [sp, 160]
	bl	pthread_mutex_unlock
	strb	wzr, [sp, 168]
	b	.L703
.L882:
	.cfi_restore 23
	.cfi_restore 24
	.cfi_restore 27
	.cfi_restore 28
	stp	x23, x24, [sp, 48]
	.cfi_remember_state
	.cfi_offset 24, -2440
	.cfi_offset 23, -2448
	stp	x27, x28, [sp, 80]
	.cfi_offset 28, -2408
	.cfi_offset 27, -2416
	bl	__stack_chk_fail
.L880:
	.cfi_restore_state
	add	x0, sp, 144
	stp	x23, x24, [sp, 48]
	.cfi_remember_state
	.cfi_offset 24, -2440
	.cfi_offset 23, -2448
	stp	x27, x28, [sp, 80]
	.cfi_offset 28, -2408
	.cfi_offset 27, -2416
	bl	_ZN4asio6detail14do_throw_errorERKSt10error_code
.L736:
	.cfi_restore_state
	stp	x23, x24, [sp, 48]
	.cfi_offset 24, -2440
	.cfi_offset 23, -2448
	stp	x27, x28, [sp, 80]
	.cfi_offset 28, -2408
	.cfi_offset 27, -2416
	bl	_ZSt25__throw_bad_function_callv
.L763:
	mov	x19, x0
	b	.L720
.L766:
.L864:
	mov	x19, x0
	mov	x0, x25
	bl	pthread_mutex_unlock
.L693:
	add	x0, sp, 200
	bl	_ZN4asio6detail15task_io_service12task_cleanupD1Ev
	b	.L720
.L767:
	b	.L864
.L764:
	mov	x19, x0
	mov	x0, x26
	bl	_ZN4asio6detail15task_io_service12work_cleanupD1Ev
.L720:
	ldrb	w0, [sp, 168]
	cbnz	w0, .L897
.L730:
	adrp	x0, :got:_ZN4asio6detail10call_stackINS0_15task_io_serviceENS0_27task_io_service_thread_infoEE4top_E
	ldr	x1, [sp, 192]
	ldr	x0, [x0, #:got_lo12:_ZN4asio6detail10call_stackINS0_15task_io_serviceENS0_27task_io_service_thread_infoEE4top_E]
	ldr	w0, [x0]
	bl	pthread_setspecific
.L733:
	ldr	x1, [sp, 232]
	cbnz	x1, .L898
	ldr	x0, [sp, 224]
	cbz	x0, .L734
	bl	_ZdlPv
.L734:
	mov	x0, x19
	bl	_Unwind_Resume
.LEHE18:
.L765:
	mov	x19, x0
	b	.L693
.L897:
	ldr	x0, [sp, 160]
	bl	pthread_mutex_unlock
	b	.L730
.L898:
	ldr	x0, [x1]
	str	x0, [sp, 232]
	cbnz	x0, .L732
	str	xzr, [sp, 240]
.L732:
	ldr	x4, [x1, 8]
	str	xzr, [x1]
	ldr	x0, [sp, 112]
	str	wzr, [sp, 288]
	str	x0, [sp, 296]
	mov	x2, x26
	mov	x3, 0
	mov	x0, 0
	blr	x4
	b	.L733
	.cfi_endproc
.LFE7080:
	.section	.gcc_except_table,"a",@progbits
.LLSDA7080:
	.byte	0xff
	.byte	0xff
	.byte	0x1
	.uleb128 .LLSDACSE7080-.LLSDACSB7080
.LLSDACSB7080:
	.uleb128 .LEHB11-.LFB7080
	.uleb128 .LEHE11-.LEHB11
	.uleb128 0
	.uleb128 0
	.uleb128 .LEHB12-.LFB7080
	.uleb128 .LEHE12-.LEHB12
	.uleb128 .L765-.LFB7080
	.uleb128 0
	.uleb128 .LEHB13-.LFB7080
	.uleb128 .LEHE13-.LEHB13
	.uleb128 0
	.uleb128 0
	.uleb128 .LEHB14-.LFB7080
	.uleb128 .LEHE14-.LEHB14
	.uleb128 .L766-.LFB7080
	.uleb128 0
	.uleb128 .LEHB15-.LFB7080
	.uleb128 .LEHE15-.LEHB15
	.uleb128 .L763-.LFB7080
	.uleb128 0
	.uleb128 .LEHB16-.LFB7080
	.uleb128 .LEHE16-.LEHB16
	.uleb128 .L767-.LFB7080
	.uleb128 0
	.uleb128 .LEHB17-.LFB7080
	.uleb128 .LEHE17-.LEHB17
	.uleb128 .L764-.LFB7080
	.uleb128 0
	.uleb128 .LEHB18-.LFB7080
	.uleb128 .LEHE18-.LEHB18
	.uleb128 0
	.uleb128 0
.LLSDACSE7080:
	.text
	.size	_ZN7asiopal10ThreadPool3RunEi, .-_ZN7asiopal10ThreadPool3RunEi
	.align	2
	.p2align 4,,11
	.type	_ZNSt6thread11_State_implINS_8_InvokerISt5tupleIJZN7asiopal10ThreadPoolC4ERKN7openpal6LoggerERKSt10shared_ptrINS3_2IOEEjSt8functionIFvvEESG_EUlvE0_EEEEE6_M_runEv, %function
_ZNSt6thread11_State_implINS_8_InvokerISt5tupleIJZN7asiopal10ThreadPoolC4ERKN7openpal6LoggerERKSt10shared_ptrINS3_2IOEEjSt8functionIFvvEESG_EUlvE0_EEEEE6_M_runEv:
.LFB9650:
	.cfi_startproc
	mov	x1, x0
	ldr	x0, [x0, 8]
	ldr	w1, [x1, 16]
	b	_ZN7asiopal10ThreadPool3RunEi
	.cfi_endproc
.LFE9650:
	.size	_ZNSt6thread11_State_implINS_8_InvokerISt5tupleIJZN7asiopal10ThreadPoolC4ERKN7openpal6LoggerERKSt10shared_ptrINS3_2IOEEjSt8functionIFvvEESG_EUlvE0_EEEEE6_M_runEv, .-_ZNSt6thread11_State_implINS_8_InvokerISt5tupleIJZN7asiopal10ThreadPoolC4ERKN7openpal6LoggerERKSt10shared_ptrINS3_2IOEEjSt8functionIFvvEESG_EUlvE0_EEEEE6_M_runEv
	.section	.text._ZN4asio6detail14do_throw_errorERKSt10error_codePKc,"axG",@progbits,_ZN4asio6detail14do_throw_errorERKSt10error_codePKc,comdat
	.align	2
	.p2align 4,,11
	.weak	_ZN4asio6detail14do_throw_errorERKSt10error_codePKc
	.type	_ZN4asio6detail14do_throw_errorERKSt10error_codePKc, %function
_ZN4asio6detail14do_throw_errorERKSt10error_codePKc:
.LFB2639:
	.cfi_startproc
	.cfi_personality 0x9b,DW.ref.__gxx_personality_v0
	.cfi_lsda 0x1b,.LLSDA2639
	stp	x29, x30, [sp, -80]!
	.cfi_def_cfa_offset 80
	.cfi_offset 29, -80
	.cfi_offset 30, -72
	adrp	x2, :got:__stack_chk_guard
	mov	x3, x1
	mov	x29, sp
	ldp	x4, x5, [x0]
	str	x19, [sp, 16]
	.cfi_offset 19, -64
	ldr	x2, [x2, #:got_lo12:__stack_chk_guard]
	add	x19, sp, 40
	mov	x0, x19
	ldr	x1, [x2]
	str	x1, [sp, 72]
	mov	x1, 0
	mov	x1, x4
	mov	x2, x5
.LEHB19:
	bl	_ZNSt12system_errorC1ESt10error_codePKc
.LEHE19:
	mov	x0, x19
.LEHB20:
	bl	_ZN4asio6detail15throw_exceptionISt12system_errorEEvRKT_
.LEHE20:
.L903:
	mov	x1, x0
	mov	x0, x19
	mov	x19, x1
	bl	_ZNSt12system_errorD1Ev
	mov	x0, x19
.LEHB21:
	bl	_Unwind_Resume
.LEHE21:
	.cfi_endproc
.LFE2639:
	.section	.gcc_except_table
.LLSDA2639:
	.byte	0xff
	.byte	0xff
	.byte	0x1
	.uleb128 .LLSDACSE2639-.LLSDACSB2639
.LLSDACSB2639:
	.uleb128 .LEHB19-.LFB2639
	.uleb128 .LEHE19-.LEHB19
	.uleb128 0
	.uleb128 0
	.uleb128 .LEHB20-.LFB2639
	.uleb128 .LEHE20-.LEHB20
	.uleb128 .L903-.LFB2639
	.uleb128 0
	.uleb128 .LEHB21-.LFB2639
	.uleb128 .LEHE21-.LEHB21
	.uleb128 0
	.uleb128 0
.LLSDACSE2639:
	.section	.text._ZN4asio6detail14do_throw_errorERKSt10error_codePKc,"axG",@progbits,_ZN4asio6detail14do_throw_errorERKSt10error_codePKc,comdat
	.size	_ZN4asio6detail14do_throw_errorERKSt10error_codePKc, .-_ZN4asio6detail14do_throw_errorERKSt10error_codePKc
	.section	.rodata._ZN4asio6detail13epoll_reactor12fork_serviceENS_10io_service10fork_eventE.str1.8,"aMS",@progbits,1
	.align	3
.LC24:
	.string	"epoll"
	.align	3
.LC25:
	.string	"eventfd_select_interrupter"
	.align	3
.LC26:
	.string	"epoll re-registration"
	.section	.text._ZN4asio6detail13epoll_reactor12fork_serviceENS_10io_service10fork_eventE,"axG",@progbits,_ZN4asio6detail13epoll_reactor12fork_serviceENS_10io_service10fork_eventE,comdat
	.align	2
	.p2align 4,,11
	.weak	_ZN4asio6detail13epoll_reactor12fork_serviceENS_10io_service10fork_eventE
	.type	_ZN4asio6detail13epoll_reactor12fork_serviceENS_10io_service10fork_eventE, %function
_ZN4asio6detail13epoll_reactor12fork_serviceENS_10io_service10fork_eventE:
.LFB3465:
	.cfi_startproc
	.cfi_personality 0x9b,DW.ref.__gxx_personality_v0
	.cfi_lsda 0x1b,.LLSDA3465
	stp	x29, x30, [sp, -192]!
	.cfi_def_cfa_offset 192
	.cfi_offset 29, -192
	.cfi_offset 30, -184
	adrp	x2, :got:__stack_chk_guard
	mov	x29, sp
	ldr	x2, [x2, #:got_lo12:__stack_chk_guard]
	stp	x19, x20, [sp, 16]
	.cfi_offset 19, -176
	.cfi_offset 20, -168
	mov	x20, x0
	ldr	x0, [x2]
	str	x0, [sp, 184]
	mov	x0, 0
	cmp	w1, 2
	beq	.L1017
.L905:
	adrp	x0, :got:__stack_chk_guard
	ldr	x0, [x0, #:got_lo12:__stack_chk_guard]
	ldr	x2, [sp, 184]
	ldr	x1, [x0]
	subs	x2, x2, x1
	mov	x1, 0
	bne	.L1018
	ldp	x19, x20, [sp, 16]
	ldp	x29, x30, [sp], 192
	.cfi_remember_state
	.cfi_restore 30
	.cfi_restore 29
	.cfi_restore 19
	.cfi_restore 20
	.cfi_def_cfa_offset 0
	ret
	.p2align 2,,3
.L1017:
	.cfi_restore_state
	ldr	w0, [x20, 104]
	stp	x21, x22, [sp, 32]
	.cfi_offset 22, -152
	.cfi_offset 21, -160
	stp	x23, x24, [sp, 48]
	.cfi_offset 24, -136
	.cfi_offset 23, -144
	stp	x25, x26, [sp, 64]
	.cfi_offset 26, -120
	.cfi_offset 25, -128
	stp	x27, x28, [sp, 80]
	.cfi_offset 28, -104
	.cfi_offset 27, -112
	cmn	w0, #1
	bne	.L1019
	mov	w0, -1
	str	w0, [x20, 104]
	mov	w0, 524288
	bl	epoll_create1
	mov	w19, w0
	cmn	w0, #1
	beq	.L1020
.L908:
	ldr	w0, [x20, 108]
	str	w19, [x20, 104]
	cmn	w0, #1
	bne	.L1021
	mov	w0, -1
	str	w0, [x20, 108]
	mov	w1, 524288
	mov	w0, 1
	bl	timerfd_create
	mov	w19, w0
	cmn	w0, #1
	beq	.L1022
.L916:
	add	x23, x20, 96
	str	w19, [x20, 108]
	ldr	w0, [x20, 96]
	ldr	w1, [x23, 4]
	cmn	w1, #1
	beq	.L917
	cmp	w1, w0
	bne	.L1023
.L918:
.LEHB22:
	bl	close
.L919:
	mvni	v0.2s, 0
	mov	w1, 2048
	movk	w1, 0x8, lsl 16
	mov	w0, 0
	str	d0, [x20, 96]
	bl	eventfd
	dup	v0.2s, w0
	mov	w2, w0
	str	d0, [x20, 96]
	cmn	w0, #1
	beq	.L1024
.L920:
	ldr	w0, [x20, 104]
	mov	w4, 9
	movk	w4, 0x8000, lsl 16
	add	x22, sp, 96
	mov	x3, x22
	mov	w1, 1
	str	w4, [sp, 96]
	add	x25, sp, 144
	str	x23, [sp, 104]
	bl	epoll_ctl
	ldr	w0, [x23, 4]
	mov	x2, 8
	mov	x1, x25
	mov	x19, 1
	str	x19, [sp, 144]
	bl	write
.LEHE22:
	ldr	w2, [x20, 108]
	cmn	w2, #1
	bne	.L1025
.L928:
	ldr	w2, [x20, 96]
	mov	w4, 9
	ldr	w0, [x20, 104]
	movk	w4, 0x8000, lsl 16
	mov	x3, x25
	mov	w1, 3
	str	w4, [sp, 144]
	str	x23, [sp, 152]
	bl	epoll_ctl
.L942:
	add	x26, x20, 128
	mov	x0, x26
	bl	pthread_mutex_lock
	ldr	x19, [x20, 176]
	cbz	x19, .L949
	adrp	x23, :got:_ZGVZN4asio15system_categoryEvE8instance
	adrp	x24, __dso_handle
	add	x24, x24, :lo12:__dso_handle
	ldr	x23, [x23, #:got_lo12:_ZGVZN4asio15system_categoryEvE8instance]
	b	.L943
	.p2align 2,,3
.L944:
	ldr	x19, [x19, 24]
	cbz	x19, .L949
.L943:
	ldp	w2, w4, [x19, 96]
	mov	x3, x22
	ldr	w0, [x20, 104]
	mov	w1, 1
	str	w4, [sp, 96]
	str	x19, [sp, 104]
	bl	epoll_ctl
	cbz	w0, .L944
	bl	__errno_location
	ldr	w27, [x0]
	ldar	x0, [x23]
	adrp	x21, :got:_ZZN4asio15system_categoryEvE8instance
	tbz	x0, 0, .L1026
.L946:
	ldr	x21, [x21, #:got_lo12:_ZZN4asio15system_categoryEvE8instance]
	str	w27, [sp, 144]
	str	x21, [sp, 152]
	cbz	w27, .L944
	adrp	x1, .LC26
	mov	x0, x25
	add	x1, x1, :lo12:.LC26
.LEHB23:
	bl	_ZN4asio6detail14do_throw_errorERKSt10error_codePKc
.LEHE23:
	.p2align 2,,3
.L1023:
	mov	w0, w1
.LEHB24:
	bl	close
	ldr	w0, [x20, 96]
.L917:
	cmn	w0, #1
	beq	.L919
	b	.L918
	.p2align 2,,3
.L1025:
	ldr	w0, [x20, 104]
	add	x4, x20, 108
	mov	w5, 9
	mov	w1, w19
	mov	x3, x22
	str	w5, [sp, 96]
	str	x4, [sp, 104]
	bl	epoll_ctl
	ldr	w0, [x20, 108]
	cmn	w0, #1
	beq	.L928
	ldr	x19, [x20, 112]
	stp	xzr, xzr, [sp, 112]
	cbz	x19, .L929
	adrp	x21, :got:_ZNK4asio6detail11timer_queueINS0_18chrono_time_traitsINSt6chrono3_V212steady_clockENS_11wait_traitsIS5_EEEEE18wait_duration_usecEl
	mov	x23, 63439
	mov	x27, 21495
	movk	x23, 0xe353, lsl 16
	movk	x27, 0xa5e3, lsl 16
	mov	x28, 41728
	ldr	x21, [x21, #:got_lo12:_ZNK4asio6detail11timer_queueINS0_18chrono_time_traitsINSt6chrono3_V212steady_clockENS_11wait_traitsIS5_EEEEE18wait_duration_usecEl]
	movk	x23, 0x9ba5, lsl 32
	movk	x27, 0xc49b, lsl 32
	movk	x28, 0x11e1, lsl 16
	movk	x23, 0x20c4, lsl 48
	mov	x24, -9223372036854775808
	movk	x27, 0x20, lsl 48
	.p2align 3,,7
.L938:
	ldr	x0, [x19]
	ldr	x2, [x0, 32]
	cmp	x2, x21
	bne	.L930
	ldp	x26, x0, [x19, 24]
	cmp	x26, x0
	beq	.L931
	bl	_ZNSt6chrono3_V212steady_clock3nowEv
	ldr	x2, [x26]
	tbnz	x2, #63, .L932
	tbnz	x0, #63, .L933
.L1016:
	sub	x2, x2, x0
	cmp	x2, 0
	ble	.L957
	smulh	x0, x2, x23
	asr	x0, x0, 7
	sub	x2, x0, x2, asr 63
.L936:
	cbz	x2, .L1027
.L935:
	cmp	x28, x2
	csel	x28, x28, x2, le
.L931:
	ldr	x19, [x19, 8]
	cbnz	x19, .L938
	mov	x2, 13531
	cmp	x28, 0
	movk	x2, 0xd7b6, lsl 16
	ldr	w0, [x20, 108]
	movk	x2, 0xde82, lsl 32
	cset	w1, eq
	movk	x2, 0x431b, lsl 48
	mov	x4, 1
	smulh	x2, x28, x2
	asr	x2, x2, 18
	sub	x2, x2, x28, asr 63
	str	x2, [sp, 128]
	beq	.L941
	mov	x3, 16960
	movk	x3, 0xf, lsl 16
	msub	x2, x2, x3, x28
	lsl	x4, x2, 5
	sub	x4, x4, x2
	add	x4, x2, x4, lsl 2
	lsl	x4, x4, 3
.L941:
	mov	x3, x25
	add	x2, sp, 112
	str	x4, [sp, 136]
	bl	timerfd_settime
	b	.L942
	.p2align 2,,3
.L1021:
	bl	close
	mov	w0, -1
	str	w0, [x20, 108]
	mov	w1, 524288
	mov	w0, 1
	bl	timerfd_create
	mov	w19, w0
	cmn	w0, #1
	bne	.L916
.L1022:
	bl	__errno_location
	ldr	w0, [x0]
	cmp	w0, 22
	bne	.L916
	mov	w1, 0
	mov	w0, 1
	bl	timerfd_create
	mov	w19, w0
	cmn	w0, #1
	beq	.L916
	mov	w2, 1
	mov	w1, 2
	bl	fcntl
	b	.L916
	.p2align 2,,3
.L1019:
	bl	close
	mov	w0, -1
	str	w0, [x20, 104]
	mov	w0, 524288
	bl	epoll_create1
	mov	w19, w0
	cmn	w0, #1
	bne	.L908
.L1020:
	bl	__errno_location
	ldr	w22, [x0]
	mov	x21, x0
	sub	w0, w22, #22
	tst	w0, -17
	bne	.L909
	mov	w0, 20000
	bl	epoll_create
	cmn	w0, #1
	beq	.L1028
	mov	w19, w0
	mov	w2, 1
	mov	w1, 2
	bl	fcntl
	b	.L908
	.p2align 2,,3
.L1026:
	mov	x0, x23
	adrp	x21, :got:_ZZN4asio15system_categoryEvE8instance
	bl	__cxa_guard_acquire
	cbz	w0, .L946
	adrp	x0, :got:_ZN4asio6detail15system_categoryD1Ev
	mov	x2, x24
	ldr	x1, [x21, #:got_lo12:_ZZN4asio15system_categoryEvE8instance]
	ldr	x0, [x0, #:got_lo12:_ZN4asio6detail15system_categoryD1Ev]
	bl	__cxa_atexit
	mov	x0, x23
	bl	__cxa_guard_release
	b	.L946
	.p2align 2,,3
.L949:
	mov	x0, x26
	bl	pthread_mutex_unlock
	ldp	x21, x22, [sp, 32]
	.cfi_remember_state
	.cfi_restore 22
	.cfi_restore 21
	ldp	x23, x24, [sp, 48]
	.cfi_restore 24
	.cfi_restore 23
	ldp	x25, x26, [sp, 64]
	.cfi_restore 26
	.cfi_restore 25
	ldp	x27, x28, [sp, 80]
	.cfi_restore 28
	.cfi_restore 27
	b	.L905
	.p2align 2,,3
.L932:
	.cfi_restore_state
	tbnz	x0, #63, .L1016
.L957:
	mov	x28, 0
	b	.L931
	.p2align 2,,3
.L930:
	mov	x1, x28
	mov	x0, x19
	blr	x2
	mov	x28, x0
	b	.L931
	.p2align 2,,3
.L1027:
	mov	x28, 1
	b	.L931
	.p2align 2,,3
.L933:
	cmp	x0, x24
	beq	.L955
	mov	x1, 9223372036854775807
	neg	x3, x0
	sub	x1, x1, x2
	cmp	x1, x3
	blt	.L955
	sub	x2, x2, x0
	lsr	x2, x2, 3
	umulh	x2, x2, x23
	lsr	x2, x2, 4
	b	.L936
	.p2align 2,,3
.L955:
	mov	x2, x27
	b	.L935
	.p2align 2,,3
.L1024:
	bl	__errno_location
	mov	x19, x0
	ldr	w0, [x0]
	cmp	w0, 22
	beq	.L1029
.L922:
	add	x0, sp, 176
	bl	pipe
	cbz	w0, .L951
	adrp	x0, :got:_ZGVZN4asio15system_categoryEvE8instance
	ldr	w22, [x19]
	ldr	x19, [x0, #:got_lo12:_ZGVZN4asio15system_categoryEvE8instance]
	ldar	x0, [x19]
	adrp	x21, :got:_ZZN4asio15system_categoryEvE8instance
	tbz	x0, 0, .L1030
.L925:
	ldr	x21, [x21, #:got_lo12:_ZZN4asio15system_categoryEvE8instance]
	str	w22, [sp, 144]
	str	x21, [sp, 152]
	cbnz	w22, .L1031
	ldr	w2, [x20, 96]
	b	.L920
.L1028:
	ldr	w22, [x21]
.L909:
	adrp	x23, :got:_ZGVZN4asio15system_categoryEvE8instance
	ldr	x23, [x23, #:got_lo12:_ZGVZN4asio15system_categoryEvE8instance]
	ldar	x0, [x23]
	adrp	x21, :got:_ZZN4asio15system_categoryEvE8instance
	tbz	x0, 0, .L1032
.L912:
	ldr	x21, [x21, #:got_lo12:_ZZN4asio15system_categoryEvE8instance]
	str	w22, [sp, 144]
	str	x21, [sp, 152]
	cbz	w22, .L908
	adrp	x1, .LC24
	add	x0, sp, 144
	add	x1, x1, :lo12:.LC24
	bl	_ZN4asio6detail14do_throw_errorERKSt10error_codePKc
	.p2align 2,,3
.L951:
	ldr	w0, [sp, 176]
	mov	w2, 2048
	str	w0, [x20, 96]
	mov	w1, 4
	bl	fcntl
	ldr	w0, [x20, 96]
	mov	w2, 1
	mov	w1, 2
	bl	fcntl
	ldr	w0, [sp, 180]
	mov	w2, 2048
	str	w0, [x23, 4]
	mov	w1, 4
	bl	fcntl
	ldr	w0, [x23, 4]
	mov	w2, 1
	mov	w1, 2
	bl	fcntl
	ldr	w2, [x20, 96]
	b	.L920
.L1032:
	mov	x0, x23
	adrp	x21, :got:_ZZN4asio15system_categoryEvE8instance
	bl	__cxa_guard_acquire
	cbz	w0, .L912
	adrp	x0, :got:_ZN4asio6detail15system_categoryD1Ev
	adrp	x2, __dso_handle
	ldr	x1, [x21, #:got_lo12:_ZZN4asio15system_categoryEvE8instance]
	add	x2, x2, :lo12:__dso_handle
	ldr	x0, [x0, #:got_lo12:_ZN4asio6detail15system_categoryD1Ev]
	bl	__cxa_atexit
	mov	x0, x23
	bl	__cxa_guard_release
	b	.L912
.L1029:
	mov	w1, 0
	mov	w0, 0
	bl	eventfd
	dup	v0.2s, w0
	str	d0, [x20, 96]
	cmn	w0, #1
	beq	.L922
	mov	w2, 2048
	mov	w1, 4
	bl	fcntl
	ldr	w0, [x20, 96]
	mov	w2, 1
	mov	w1, 2
	bl	fcntl
	ldr	w2, [x20, 96]
	cmn	w2, #1
	bne	.L920
	b	.L922
	.p2align 2,,3
.L929:
	mov	x2, 300
	mov	w1, 0
	mov	x4, 0
	str	x2, [sp, 128]
	b	.L941
.L1030:
	mov	x0, x19
	adrp	x21, :got:_ZZN4asio15system_categoryEvE8instance
	bl	__cxa_guard_acquire
	cbz	w0, .L925
	adrp	x0, :got:_ZN4asio6detail15system_categoryD1Ev
	adrp	x2, __dso_handle
	ldr	x1, [x21, #:got_lo12:_ZZN4asio15system_categoryEvE8instance]
	add	x2, x2, :lo12:__dso_handle
	ldr	x0, [x0, #:got_lo12:_ZN4asio6detail15system_categoryD1Ev]
	bl	__cxa_atexit
	mov	x0, x19
	bl	__cxa_guard_release
	b	.L925
.L1018:
	.cfi_restore 21
	.cfi_restore 22
	.cfi_restore 23
	.cfi_restore 24
	.cfi_restore 25
	.cfi_restore 26
	.cfi_restore 27
	.cfi_restore 28
	stp	x21, x22, [sp, 32]
	.cfi_offset 22, -152
	.cfi_offset 21, -160
	stp	x23, x24, [sp, 48]
	.cfi_offset 24, -136
	.cfi_offset 23, -144
	stp	x25, x26, [sp, 64]
	.cfi_offset 26, -120
	.cfi_offset 25, -128
	stp	x27, x28, [sp, 80]
	.cfi_offset 28, -104
	.cfi_offset 27, -112
	bl	__stack_chk_fail
.L1031:
	adrp	x1, .LC25
	add	x0, sp, 144
	add	x1, x1, :lo12:.LC25
	bl	_ZN4asio6detail14do_throw_errorERKSt10error_codePKc
.L960:
	mov	x19, x0
	mov	x0, x26
	bl	pthread_mutex_unlock
	mov	x0, x19
	bl	_Unwind_Resume
.LEHE24:
	.cfi_endproc
.LFE3465:
	.section	.gcc_except_table
.LLSDA3465:
	.byte	0xff
	.byte	0xff
	.byte	0x1
	.uleb128 .LLSDACSE3465-.LLSDACSB3465
.LLSDACSB3465:
	.uleb128 .LEHB22-.LFB3465
	.uleb128 .LEHE22-.LEHB22
	.uleb128 0
	.uleb128 0
	.uleb128 .LEHB23-.LFB3465
	.uleb128 .LEHE23-.LEHB23
	.uleb128 .L960-.LFB3465
	.uleb128 0
	.uleb128 .LEHB24-.LFB3465
	.uleb128 .LEHE24-.LEHB24
	.uleb128 0
	.uleb128 0
.LLSDACSE3465:
	.section	.text._ZN4asio6detail13epoll_reactor12fork_serviceENS_10io_service10fork_eventE,"axG",@progbits,_ZN4asio6detail13epoll_reactor12fork_serviceENS_10io_service10fork_eventE,comdat
	.size	_ZN4asio6detail13epoll_reactor12fork_serviceENS_10io_service10fork_eventE, .-_ZN4asio6detail13epoll_reactor12fork_serviceENS_10io_service10fork_eventE
	.section	.rodata._ZN4asio6detail20posix_tss_ptr_createERj.str1.8,"aMS",@progbits,1
	.align	3
.LC27:
	.string	"tss"
	.section	.text._ZN4asio6detail20posix_tss_ptr_createERj,"axG",@progbits,_ZN4asio6detail20posix_tss_ptr_createERj,comdat
	.align	2
	.p2align 4,,11
	.weak	_ZN4asio6detail20posix_tss_ptr_createERj
	.type	_ZN4asio6detail20posix_tss_ptr_createERj, %function
_ZN4asio6detail20posix_tss_ptr_createERj:
.LFB2663:
	.cfi_startproc
	stp	x29, x30, [sp, -80]!
	.cfi_def_cfa_offset 80
	.cfi_offset 29, -80
	.cfi_offset 30, -72
	adrp	x2, :got:__stack_chk_guard
	mov	x1, 0
	mov	x29, sp
	ldr	x2, [x2, #:got_lo12:__stack_chk_guard]
	stp	x19, x20, [sp, 16]
	.cfi_offset 19, -64
	.cfi_offset 20, -56
	adrp	x20, :got:_ZGVZN4asio15system_categoryEvE8instance
	str	x21, [sp, 32]
	.cfi_offset 21, -48
	ldr	x3, [x2]
	str	x3, [sp, 72]
	mov	x3, 0
	bl	pthread_key_create
	mov	w19, w0
	ldr	x20, [x20, #:got_lo12:_ZGVZN4asio15system_categoryEvE8instance]
	ldar	x0, [x20]
	adrp	x21, :got:_ZZN4asio15system_categoryEvE8instance
	tbz	x0, 0, .L1043
.L1035:
	ldr	x21, [x21, #:got_lo12:_ZZN4asio15system_categoryEvE8instance]
	str	w19, [sp, 56]
	str	x21, [sp, 64]
	cbnz	w19, .L1044
	adrp	x0, :got:__stack_chk_guard
	ldr	x0, [x0, #:got_lo12:__stack_chk_guard]
	ldr	x2, [sp, 72]
	ldr	x1, [x0]
	subs	x2, x2, x1
	mov	x1, 0
	bne	.L1045
	ldp	x19, x20, [sp, 16]
	ldr	x21, [sp, 32]
	ldp	x29, x30, [sp], 80
	.cfi_remember_state
	.cfi_restore 30
	.cfi_restore 29
	.cfi_restore 21
	.cfi_restore 19
	.cfi_restore 20
	.cfi_def_cfa_offset 0
	ret
	.p2align 2,,3
.L1043:
	.cfi_restore_state
	mov	x0, x20
	adrp	x21, :got:_ZZN4asio15system_categoryEvE8instance
	bl	__cxa_guard_acquire
	cbz	w0, .L1035
	adrp	x0, :got:_ZN4asio6detail15system_categoryD1Ev
	adrp	x2, __dso_handle
	ldr	x1, [x21, #:got_lo12:_ZZN4asio15system_categoryEvE8instance]
	add	x2, x2, :lo12:__dso_handle
	ldr	x0, [x0, #:got_lo12:_ZN4asio6detail15system_categoryD1Ev]
	bl	__cxa_atexit
	mov	x0, x20
	bl	__cxa_guard_release
	b	.L1035
.L1044:
	adrp	x1, .LC27
	add	x0, sp, 56
	add	x1, x1, :lo12:.LC27
	bl	_ZN4asio6detail14do_throw_errorERKSt10error_codePKc
.L1045:
	bl	__stack_chk_fail
	.cfi_endproc
.LFE2663:
	.size	_ZN4asio6detail20posix_tss_ptr_createERj, .-_ZN4asio6detail20posix_tss_ptr_createERj
	.text
	.align	2
	.p2align 4,,11
	.global	_ZN7asiopal10ThreadPool8ShutdownEv
	.type	_ZN7asiopal10ThreadPool8ShutdownEv, %function
_ZN7asiopal10ThreadPool8ShutdownEv:
.LFB7079:
	.cfi_startproc
	stp	x29, x30, [sp, -32]!
	.cfi_def_cfa_offset 32
	.cfi_offset 29, -32
	.cfi_offset 30, -24
	mov	x29, sp
	stp	x19, x20, [sp, 16]
	.cfi_offset 19, -16
	.cfi_offset 20, -8
	mov	x20, x0
	ldrb	w0, [x0, 112]
	cbz	w0, .L1055
.L1046:
	ldp	x19, x20, [sp, 16]
	ldp	x29, x30, [sp], 32
	.cfi_remember_state
	.cfi_restore 30
	.cfi_restore 29
	.cfi_restore 19
	.cfi_restore 20
	.cfi_def_cfa_offset 0
	ret
	.p2align 2,,3
.L1055:
	.cfi_restore_state
	ldrb	w0, [x20, 136]
	mov	w1, 1
	strb	w1, [x20, 112]
	cbnz	w0, .L1056
.L1048:
	ldp	x19, x20, [x20, 184]
	cmp	x19, x20
	beq	.L1046
	.p2align 3,,7
.L1049:
	ldr	x0, [x19], 8
	bl	_ZNSt6thread4joinEv
	cmp	x20, x19
	bne	.L1049
	ldp	x19, x20, [sp, 16]
	ldp	x29, x30, [sp], 32
	.cfi_remember_state
	.cfi_restore 30
	.cfi_restore 29
	.cfi_restore 19
	.cfi_restore 20
	.cfi_def_cfa_offset 0
	ret
	.p2align 2,,3
.L1056:
	.cfi_restore_state
	ldr	x1, [x20, 120]
	add	x2, x20, 144
	add	x1, x1, 40
	ldr	x0, [x1, 48]
	bl	_ZN4asio6detail13epoll_reactor12cancel_timerINS0_18chrono_time_traitsINSt6chrono3_V212steady_clockENS_11wait_traitsIS6_EEEEEEmRNS0_11timer_queueIT_EERNSC_14per_timer_dataEm.constprop.0.isra.0
	strb	wzr, [x20, 136]
	b	.L1048
	.cfi_endproc
.LFE7079:
	.size	_ZN7asiopal10ThreadPool8ShutdownEv, .-_ZN7asiopal10ThreadPool8ShutdownEv
	.align	2
	.p2align 4,,11
	.global	_ZN7asiopal10ThreadPoolD2Ev
	.type	_ZN7asiopal10ThreadPoolD2Ev, %function
_ZN7asiopal10ThreadPoolD2Ev:
.LFB7077:
	.cfi_startproc
	.cfi_personality 0x9b,DW.ref.__gxx_personality_v0
	.cfi_lsda 0x1b,.LLSDA7077
	stp	x29, x30, [sp, -96]!
	.cfi_def_cfa_offset 96
	.cfi_offset 29, -96
	.cfi_offset 30, -88
	adrp	x1, :got:__stack_chk_guard
	mov	x29, sp
	ldr	x1, [x1, #:got_lo12:__stack_chk_guard]
	stp	x19, x20, [sp, 16]
	stp	x21, x22, [sp, 32]
	.cfi_offset 19, -80
	.cfi_offset 20, -72
	.cfi_offset 21, -64
	.cfi_offset 22, -56
	mov	x21, x0
	str	x23, [sp, 48]
	.cfi_offset 23, -48
	add	x23, x0, 184
	ldr	x2, [x1]
	str	x2, [sp, 88]
	mov	x2, 0
	bl	_ZN7asiopal10ThreadPool8ShutdownEv
	ldr	x19, [x23, 8]
	ldr	x22, [x21, 184]
	cmp	x22, x19
	beq	.L1058
	mov	x20, x22
	.p2align 3,,7
.L1061:
	ldr	x0, [x20]
	cbz	x0, .L1059
	ldr	x1, [x0]
	cbnz	x1, .L1063
	mov	x1, 8
	bl	_ZdlPvm
.L1059:
	add	x20, x20, 8
	cmp	x19, x20
	bne	.L1061
	ldr	x19, [x21, 184]
	str	x22, [x23, 8]
	cmp	x22, x19
	beq	.L1058
	.p2align 3,,7
.L1064:
	ldr	x0, [x19]
	cbz	x0, .L1062
	ldr	x1, [x0]
	cbnz	x1, .L1063
	mov	x1, 8
	bl	_ZdlPvm
.L1062:
	add	x19, x19, 8
	cmp	x22, x19
	bne	.L1064
	ldr	x19, [x21, 184]
.L1058:
	cbz	x19, .L1065
	ldr	x1, [x23, 16]
	mov	x0, x19
	sub	x1, x1, x19
	bl	_ZdlPvm
.L1065:
	bl	_ZNSt3_V215system_categoryEv
	mov	x20, x0
	ldrb	w2, [x21, 136]
	ldr	x1, [x21, 120]
	cbz	w2, .L1066
	ldr	x0, [x1, 88]
	add	x1, x1, 40
	add	x2, x21, 144
	bl	_ZN4asio6detail13epoll_reactor12cancel_timerINS0_18chrono_time_traitsINSt6chrono3_V212steady_clockENS_11wait_traitsIS6_EEEEEEmRNS0_11timer_queueIT_EERNSC_14per_timer_dataEm.constprop.0.isra.0
	strb	wzr, [x21, 136]
.L1066:
	mov	x19, x21
	add	x22, sp, 72
	ldr	x1, [x19, 144]!
	cbnz	x1, .L1067
	b	.L1071
	.p2align 2,,3
.L1070:
	ldr	x4, [x1, 8]
	str	xzr, [x1]
	str	wzr, [sp, 72]
	mov	x2, x22
	str	x20, [sp, 80]
	mov	x3, 0
	mov	x0, 0
	blr	x4
	ldr	x1, [x19]
	cbz	x1, .L1071
.L1067:
	ldr	x3, [x1]
	str	x3, [x19]
	cbnz	x3, .L1070
	ldr	x4, [x1, 8]
	str	xzr, [x19, 8]
	str	xzr, [x1]
	mov	x2, x22
	str	wzr, [sp, 72]
	mov	x0, 0
	str	x20, [sp, 80]
	blr	x4
	ldr	x1, [x19]
	cbnz	x1, .L1067
.L1071:
	ldr	x3, [x21, 96]
	add	x1, x21, 80
	cbz	x3, .L1069
	mov	x0, x1
	mov	w2, 3
	blr	x3
.L1069:
	ldr	x3, [x21, 64]
	add	x1, x21, 48
	cbz	x3, .L1073
	mov	x0, x1
	mov	w2, 3
	blr	x3
.L1073:
	ldr	x20, [x21, 40]
	cbz	x20, .L1075
	adrp	x19, :got:__libc_single_threaded
	ldr	x0, [x19, #:got_lo12:__libc_single_threaded]
	ldrb	w0, [x0]
	cbz	w0, .L1076
	ldr	w0, [x20, 8]
	sub	w1, w0, #1
	str	w1, [x20, 8]
.L1077:
	cmp	w0, 1
	beq	.L1126
.L1075:
	ldr	x20, [x21, 24]
	cbz	x20, .L1082
	adrp	x19, :got:__libc_single_threaded
	ldr	x0, [x19, #:got_lo12:__libc_single_threaded]
	ldrb	w0, [x0]
	cbz	w0, .L1083
	ldr	w0, [x20, 8]
	sub	w1, w0, #1
	str	w1, [x20, 8]
.L1084:
	cmp	w0, 1
	beq	.L1127
.L1082:
	ldr	x20, [x21, 8]
	cbz	x20, .L1057
	adrp	x19, :got:__libc_single_threaded
	ldr	x0, [x19, #:got_lo12:__libc_single_threaded]
	ldrb	w0, [x0]
	cbz	w0, .L1090
	ldr	w0, [x20, 8]
	sub	w1, w0, #1
	str	w1, [x20, 8]
.L1091:
	cmp	w0, 1
	beq	.L1128
.L1057:
	adrp	x0, :got:__stack_chk_guard
	ldr	x0, [x0, #:got_lo12:__stack_chk_guard]
	ldr	x2, [sp, 88]
	ldr	x1, [x0]
	subs	x2, x2, x1
	mov	x1, 0
	bne	.L1125
	ldp	x19, x20, [sp, 16]
	ldp	x21, x22, [sp, 32]
	ldr	x23, [sp, 48]
	ldp	x29, x30, [sp], 96
	.cfi_remember_state
	.cfi_restore 30
	.cfi_restore 29
	.cfi_restore 23
	.cfi_restore 21
	.cfi_restore 22
	.cfi_restore 19
	.cfi_restore 20
	.cfi_def_cfa_offset 0
	ret
	.p2align 2,,3
.L1126:
	.cfi_restore_state
	ldr	x1, [x20]
	mov	x0, x20
	ldr	x1, [x1, 16]
	blr	x1
	ldr	x19, [x19, #:got_lo12:__libc_single_threaded]
	ldrb	w0, [x19]
	cbz	w0, .L1079
	ldr	w0, [x20, 12]
	sub	w1, w0, #1
	str	w1, [x20, 12]
.L1080:
	cmp	w0, 1
	bne	.L1075
	ldr	x1, [x20]
	mov	x0, x20
	ldr	x1, [x1, 24]
	blr	x1
	b	.L1075
	.p2align 2,,3
.L1127:
	ldr	x1, [x20]
	mov	x0, x20
	ldr	x1, [x1, 16]
	blr	x1
	ldr	x19, [x19, #:got_lo12:__libc_single_threaded]
	ldrb	w0, [x19]
	cbz	w0, .L1086
	ldr	w0, [x20, 12]
	sub	w1, w0, #1
	str	w1, [x20, 12]
.L1087:
	cmp	w0, 1
	bne	.L1082
	ldr	x1, [x20]
	mov	x0, x20
	ldr	x1, [x1, 24]
	blr	x1
	b	.L1082
	.p2align 2,,3
.L1128:
	ldr	x1, [x20]
	mov	x0, x20
	ldr	x1, [x1, 16]
	blr	x1
	ldr	x19, [x19, #:got_lo12:__libc_single_threaded]
	ldrb	w0, [x19]
	cbz	w0, .L1093
	ldr	w0, [x20, 12]
	sub	w1, w0, #1
	str	w1, [x20, 12]
.L1094:
	cmp	w0, 1
	bne	.L1057
	adrp	x0, :got:__stack_chk_guard
	ldr	x0, [x0, #:got_lo12:__stack_chk_guard]
	ldr	x2, [sp, 88]
	ldr	x1, [x0]
	subs	x2, x2, x1
	mov	x1, 0
	bne	.L1125
	ldr	x1, [x20]
	mov	x0, x20
	ldp	x19, x20, [sp, 16]
	ldr	x1, [x1, 24]
	ldp	x21, x22, [sp, 32]
	mov	x16, x1
	ldr	x23, [sp, 48]
	ldp	x29, x30, [sp], 96
	.cfi_remember_state
	.cfi_restore 30
	.cfi_restore 29
	.cfi_restore 23
	.cfi_restore 21
	.cfi_restore 22
	.cfi_restore 19
	.cfi_restore 20
	.cfi_def_cfa_offset 0
	br	x16
	.p2align 2,,3
.L1090:
	.cfi_restore_state
	add	x1, x20, 8
	mov	w0, -1
	bl	__aarch64_ldadd4_acq_rel
	b	.L1091
	.p2align 2,,3
.L1076:
	add	x1, x20, 8
	mov	w0, -1
	bl	__aarch64_ldadd4_acq_rel
	b	.L1077
	.p2align 2,,3
.L1083:
	add	x1, x20, 8
	mov	w0, -1
	bl	__aarch64_ldadd4_acq_rel
	b	.L1084
.L1079:
	add	x1, x20, 12
	mov	w0, -1
	bl	__aarch64_ldadd4_acq_rel
	b	.L1080
.L1086:
	add	x1, x20, 12
	mov	w0, -1
	bl	__aarch64_ldadd4_acq_rel
	b	.L1087
.L1093:
	add	x1, x20, 12
	mov	w0, -1
	bl	__aarch64_ldadd4_acq_rel
	b	.L1094
.L1063:
	bl	_ZSt9terminatev
.L1125:
	bl	__stack_chk_fail
	.cfi_endproc
.LFE7077:
	.section	.gcc_except_table
.LLSDA7077:
	.byte	0xff
	.byte	0xff
	.byte	0x1
	.uleb128 .LLSDACSE7077-.LLSDACSB7077
.LLSDACSB7077:
.LLSDACSE7077:
	.text
	.size	_ZN7asiopal10ThreadPoolD2Ev, .-_ZN7asiopal10ThreadPoolD2Ev
	.global	_ZN7asiopal10ThreadPoolD1Ev
	.set	_ZN7asiopal10ThreadPoolD1Ev,_ZN7asiopal10ThreadPoolD2Ev
	.section	.text._ZN4asio6detail11object_poolINS0_13epoll_reactor16descriptor_stateEED2Ev,"axG",@progbits,_ZN4asio6detail11object_poolINS0_13epoll_reactor16descriptor_stateEED5Ev,comdat
	.align	2
	.p2align 4,,11
	.weak	_ZN4asio6detail11object_poolINS0_13epoll_reactor16descriptor_stateEED2Ev
	.type	_ZN4asio6detail11object_poolINS0_13epoll_reactor16descriptor_stateEED2Ev, %function
_ZN4asio6detail11object_poolINS0_13epoll_reactor16descriptor_stateEED2Ev:
.LFB7444:
	.cfi_startproc
	.cfi_personality 0x9b,DW.ref.__gxx_personality_v0
	.cfi_lsda 0x1b,.LLSDA7444
	stp	x29, x30, [sp, -128]!
	.cfi_def_cfa_offset 128
	.cfi_offset 29, -128
	.cfi_offset 30, -120
	adrp	x1, :got:__stack_chk_guard
	mov	x29, sp
	ldr	x1, [x1, #:got_lo12:__stack_chk_guard]
	stp	x19, x20, [sp, 16]
	stp	x21, x22, [sp, 32]
	stp	x23, x24, [sp, 48]
	.cfi_offset 19, -112
	.cfi_offset 20, -104
	.cfi_offset 21, -96
	.cfi_offset 22, -88
	.cfi_offset 23, -80
	.cfi_offset 24, -72
	ldr	x23, [x0]
	str	x25, [sp, 64]
	.cfi_offset 25, -64
	mov	x25, x0
	ldr	x0, [x1]
	str	x0, [sp, 120]
	mov	x0, 0
	cbz	x23, .L1130
	add	x21, sp, 104
	.p2align 3,,7
.L1136:
	mov	x22, x23
	add	x19, x23, 136
	add	x24, x23, 88
	ldr	x23, [x23, 24]
.L1135:
	ldr	x1, [x19]
	str	x1, [sp, 88]
	cbz	x1, .L1131
	bl	_ZNSt3_V215system_categoryEv
	mov	x20, x0
	ldr	x1, [sp, 88]
	b	.L1134
	.p2align 2,,3
.L1132:
	ldr	x4, [x1, 8]
	str	xzr, [x1]
	str	wzr, [sp, 104]
	mov	x2, x21
	str	x20, [sp, 112]
	mov	x3, 0
	mov	x0, 0
	blr	x4
	ldr	x1, [x19]
	cbz	x1, .L1131
.L1134:
	ldr	x2, [x1]
	str	x2, [x19]
	cbnz	x2, .L1132
	ldr	x4, [x1, 8]
	str	xzr, [x19, 8]
	str	xzr, [x1]
	mov	x2, x21
	str	wzr, [sp, 104]
	mov	x3, 0
	str	x20, [sp, 112]
	mov	x0, 0
	blr	x4
	ldr	x1, [x19]
	cbnz	x1, .L1134
.L1131:
	sub	x19, x19, #16
	cmp	x19, x24
	bne	.L1135
	add	x0, x22, 40
	bl	pthread_mutex_destroy
	mov	x0, x22
	mov	x1, 160
	bl	_ZdlPvm
	cbnz	x23, .L1136
.L1130:
	ldr	x23, [x25, 8]
	cbz	x23, .L1129
	add	x21, sp, 104
	.p2align 3,,7
.L1143:
	mov	x22, x23
	add	x19, x23, 136
	add	x24, x23, 88
	ldr	x23, [x23, 24]
.L1142:
	ldr	x1, [x19]
	str	x1, [sp, 88]
	cbz	x1, .L1138
	bl	_ZNSt3_V215system_categoryEv
	mov	x20, x0
	ldr	x1, [sp, 88]
	b	.L1141
	.p2align 2,,3
.L1139:
	ldr	x4, [x1, 8]
	str	xzr, [x1]
	str	wzr, [sp, 104]
	mov	x2, x21
	str	x20, [sp, 112]
	mov	x3, 0
	mov	x0, 0
	blr	x4
	ldr	x1, [x19]
	cbz	x1, .L1138
.L1141:
	ldr	x2, [x1]
	str	x2, [x19]
	cbnz	x2, .L1139
	ldr	x4, [x1, 8]
	str	xzr, [x19, 8]
	str	xzr, [x1]
	mov	x2, x21
	str	wzr, [sp, 104]
	mov	x3, 0
	str	x20, [sp, 112]
	mov	x0, 0
	blr	x4
	ldr	x1, [x19]
	cbnz	x1, .L1141
.L1138:
	sub	x19, x19, #16
	cmp	x19, x24
	bne	.L1142
	add	x0, x22, 40
	bl	pthread_mutex_destroy
	mov	x0, x22
	mov	x1, 160
	bl	_ZdlPvm
	cbnz	x23, .L1143
.L1129:
	adrp	x0, :got:__stack_chk_guard
	ldr	x0, [x0, #:got_lo12:__stack_chk_guard]
	ldr	x2, [sp, 120]
	ldr	x1, [x0]
	subs	x2, x2, x1
	mov	x1, 0
	bne	.L1178
	ldp	x19, x20, [sp, 16]
	ldp	x21, x22, [sp, 32]
	ldp	x23, x24, [sp, 48]
	ldr	x25, [sp, 64]
	ldp	x29, x30, [sp], 128
	.cfi_remember_state
	.cfi_restore 30
	.cfi_restore 29
	.cfi_restore 25
	.cfi_restore 23
	.cfi_restore 24
	.cfi_restore 21
	.cfi_restore 22
	.cfi_restore 19
	.cfi_restore 20
	.cfi_def_cfa_offset 0
	ret
.L1178:
	.cfi_restore_state
	bl	__stack_chk_fail
	.cfi_endproc
.LFE7444:
	.section	.gcc_except_table
.LLSDA7444:
	.byte	0xff
	.byte	0xff
	.byte	0x1
	.uleb128 .LLSDACSE7444-.LLSDACSB7444
.LLSDACSB7444:
.LLSDACSE7444:
	.section	.text._ZN4asio6detail11object_poolINS0_13epoll_reactor16descriptor_stateEED2Ev,"axG",@progbits,_ZN4asio6detail11object_poolINS0_13epoll_reactor16descriptor_stateEED5Ev,comdat
	.size	_ZN4asio6detail11object_poolINS0_13epoll_reactor16descriptor_stateEED2Ev, .-_ZN4asio6detail11object_poolINS0_13epoll_reactor16descriptor_stateEED2Ev
	.weak	_ZN4asio6detail11object_poolINS0_13epoll_reactor16descriptor_stateEED1Ev
	.set	_ZN4asio6detail11object_poolINS0_13epoll_reactor16descriptor_stateEED1Ev,_ZN4asio6detail11object_poolINS0_13epoll_reactor16descriptor_stateEED2Ev
	.section	.text._ZNSt16_Sp_counted_baseILN9__gnu_cxx12_Lock_policyE2EE10_M_releaseEv,"axG",@progbits,_ZNSt16_Sp_counted_baseILN9__gnu_cxx12_Lock_policyE2EE10_M_releaseEv,comdat
	.align	2
	.p2align 4,,11
	.weak	_ZNSt16_Sp_counted_baseILN9__gnu_cxx12_Lock_policyE2EE10_M_releaseEv
	.type	_ZNSt16_Sp_counted_baseILN9__gnu_cxx12_Lock_policyE2EE10_M_releaseEv, %function
_ZNSt16_Sp_counted_baseILN9__gnu_cxx12_Lock_policyE2EE10_M_releaseEv:
.LFB8034:
	.cfi_startproc
	stp	x29, x30, [sp, -32]!
	.cfi_def_cfa_offset 32
	.cfi_offset 29, -32
	.cfi_offset 30, -24
	mov	x29, sp
	stp	x19, x20, [sp, 16]
	.cfi_offset 19, -16
	.cfi_offset 20, -8
	adrp	x20, :got:__libc_single_threaded
	mov	x19, x0
	ldr	x0, [x20, #:got_lo12:__libc_single_threaded]
	ldrb	w0, [x0]
	cbz	w0, .L1180
	ldr	w0, [x19, 8]
	sub	w1, w0, #1
	str	w1, [x19, 8]
.L1181:
	cmp	w0, 1
	beq	.L1188
.L1179:
	ldp	x19, x20, [sp, 16]
	ldp	x29, x30, [sp], 32
	.cfi_remember_state
	.cfi_restore 30
	.cfi_restore 29
	.cfi_restore 19
	.cfi_restore 20
	.cfi_def_cfa_offset 0
	ret
	.p2align 2,,3
.L1188:
	.cfi_restore_state
	ldr	x1, [x19]
	mov	x0, x19
	ldr	x1, [x1, 16]
	blr	x1
	ldr	x20, [x20, #:got_lo12:__libc_single_threaded]
	ldrb	w0, [x20]
	cbz	w0, .L1184
	ldr	w0, [x19, 12]
	sub	w1, w0, #1
	str	w1, [x19, 12]
.L1185:
	cmp	w0, 1
	bne	.L1179
	ldr	x1, [x19]
	mov	x0, x19
	ldp	x19, x20, [sp, 16]
	ldp	x29, x30, [sp], 32
	.cfi_remember_state
	.cfi_restore 30
	.cfi_restore 29
	.cfi_restore 19
	.cfi_restore 20
	.cfi_def_cfa_offset 0
	ldr	x1, [x1, 24]
	mov	x16, x1
	br	x16
	.p2align 2,,3
.L1180:
	.cfi_restore_state
	add	x1, x19, 8
	mov	w0, -1
	bl	__aarch64_ldadd4_acq_rel
	b	.L1181
	.p2align 2,,3
.L1184:
	add	x1, x19, 12
	mov	w0, -1
	bl	__aarch64_ldadd4_acq_rel
	b	.L1185
	.cfi_endproc
.LFE8034:
	.size	_ZNSt16_Sp_counted_baseILN9__gnu_cxx12_Lock_policyE2EE10_M_releaseEv, .-_ZNSt16_Sp_counted_baseILN9__gnu_cxx12_Lock_policyE2EE10_M_releaseEv
	.section	.rodata._ZN4asio6detail16service_registry6createINS0_13epoll_reactorEEEPNS_10io_service7serviceERS4_.str1.8,"aMS",@progbits,1
	.align	3
.LC28:
	.string	"mutex"
	.section	.text._ZN4asio6detail16service_registry6createINS0_13epoll_reactorEEEPNS_10io_service7serviceERS4_,"axG",@progbits,_ZN4asio6detail16service_registry6createINS0_13epoll_reactorEEEPNS_10io_service7serviceERS4_,comdat
	.align	2
	.p2align 4,,11
	.weak	_ZN4asio6detail16service_registry6createINS0_13epoll_reactorEEEPNS_10io_service7serviceERS4_
	.type	_ZN4asio6detail16service_registry6createINS0_13epoll_reactorEEEPNS_10io_service7serviceERS4_, %function
_ZN4asio6detail16service_registry6createINS0_13epoll_reactorEEEPNS_10io_service7serviceERS4_:
.LFB8448:
	.cfi_startproc
	.cfi_personality 0x9b,DW.ref.__gxx_personality_v0
	.cfi_lsda 0x1b,.LLSDA8448
	stp	x29, x30, [sp, -128]!
	.cfi_def_cfa_offset 128
	.cfi_offset 29, -128
	.cfi_offset 30, -120
	adrp	x1, :got:__stack_chk_guard
	mov	x29, sp
	ldr	x1, [x1, #:got_lo12:__stack_chk_guard]
	stp	x19, x20, [sp, 16]
	.cfi_offset 19, -112
	.cfi_offset 20, -104
	adrp	x20, :got:_ZGVZN4asio15system_categoryEvE8instance
	stp	x21, x22, [sp, 32]
	.cfi_offset 21, -96
	.cfi_offset 22, -88
	mov	x21, x0
	mov	x0, 192
	stp	x23, x24, [sp, 48]
	stp	x25, x26, [sp, 64]
	.cfi_offset 23, -80
	.cfi_offset 24, -72
	.cfi_offset 25, -64
	.cfi_offset 26, -56
	ldr	x2, [x1]
	str	x2, [sp, 120]
	mov	x2, 0
.LEHB25:
	bl	_Znwm
.LEHE25:
	mov	x19, x0
	adrp	x2, :got:_ZTVN4asio6detail13epoll_reactorE
	add	x23, x0, 48
	ldr	x3, [x21, 8]
	mov	x0, x23
	ldr	x2, [x2, #:got_lo12:_ZTVN4asio6detail13epoll_reactorE]
	mov	x1, 0
	stp	xzr, x21, [x19, 16]
	add	x2, x2, 16
	stp	x2, xzr, [x19]
	stp	xzr, x3, [x19, 32]
	bl	pthread_mutex_init
	mov	w22, w0
	ldr	x24, [x20, #:got_lo12:_ZGVZN4asio15system_categoryEvE8instance]
	ldar	x0, [x24]
	adrp	x21, :got:_ZZN4asio15system_categoryEvE8instance
	tbz	x0, 0, .L1272
.L1191:
	ldr	x0, [x21, #:got_lo12:_ZZN4asio15system_categoryEvE8instance]
	str	w22, [sp, 96]
	str	x0, [sp, 104]
	cbnz	w22, .L1273
	mov	w1, 2048
	mov	w0, 0
	movk	w1, 0x8, lsl 16
	bl	eventfd
	dup	v0.2s, w0
	add	x24, x19, 96
	str	d0, [x19, 96]
	cmn	w0, #1
	beq	.L1274
.L1195:
	mov	w0, 524288
	bl	epoll_create1
	mov	w22, w0
	cmn	w0, #1
	beq	.L1275
.L1204:
	mov	w1, 524288
	mov	w0, 1
	str	w22, [x19, 104]
	bl	timerfd_create
	mov	w22, w0
	cmn	w0, #1
	beq	.L1276
.L1211:
	add	x25, x19, 128
	mov	x1, 0
	mov	x0, x25
	str	w22, [x19, 108]
	str	xzr, [x19, 112]
	strb	wzr, [x19, 120]
	bl	pthread_mutex_init
	ldr	x20, [x20, #:got_lo12:_ZGVZN4asio15system_categoryEvE8instance]
	mov	w22, w0
	ldar	x0, [x20]
	tbz	x0, 0, .L1277
.L1215:
	ldr	x21, [x21, #:got_lo12:_ZZN4asio15system_categoryEvE8instance]
	str	w22, [sp, 96]
	str	x21, [sp, 104]
	cbnz	w22, .L1278
	ldr	w2, [x19, 96]
	mov	w4, 9
	ldr	w0, [x19, 104]
	movk	w4, 0x8000, lsl 16
	add	x20, sp, 96
	mov	w1, 1
	mov	x3, x20
	str	w4, [sp, 96]
	str	x24, [sp, 104]
	add	x21, x19, 176
	stp	xzr, xzr, [x19, 176]
	bl	epoll_ctl
	ldr	w0, [x24, 4]
	mov	x3, 1
	add	x1, sp, 88
	mov	x2, 8
	str	x3, [sp, 88]
.LEHB26:
	bl	write
.LEHE26:
	ldr	w2, [x19, 108]
	cmn	w2, #1
	beq	.L1189
	ldr	w0, [x19, 104]
	add	x4, x19, 108
	mov	w5, 9
	mov	x3, x20
	mov	w1, 1
	str	w5, [sp, 96]
	str	x4, [sp, 104]
	bl	epoll_ctl
.L1189:
	adrp	x0, :got:__stack_chk_guard
	ldr	x0, [x0, #:got_lo12:__stack_chk_guard]
	ldr	x2, [sp, 120]
	ldr	x1, [x0]
	subs	x2, x2, x1
	mov	x1, 0
	bne	.L1279
	mov	x0, x19
	ldp	x19, x20, [sp, 16]
	ldp	x21, x22, [sp, 32]
	ldp	x23, x24, [sp, 48]
	ldp	x25, x26, [sp, 64]
	ldp	x29, x30, [sp], 128
	.cfi_remember_state
	.cfi_restore 30
	.cfi_restore 29
	.cfi_restore 25
	.cfi_restore 26
	.cfi_restore 23
	.cfi_restore 24
	.cfi_restore 21
	.cfi_restore 22
	.cfi_restore 19
	.cfi_restore 20
	.cfi_def_cfa_offset 0
	ret
	.p2align 2,,3
.L1275:
	.cfi_restore_state
	bl	__errno_location
	ldr	w25, [x0]
	mov	x26, x0
	sub	w0, w25, #22
	tst	w0, -17
	bne	.L1205
	mov	w0, 20000
	bl	epoll_create
	mov	w25, w0
	cmn	w0, #1
	beq	.L1280
	mov	w2, 1
	mov	w1, 2
.LEHB27:
	bl	fcntl
	mov	w22, w25
	mov	w1, 524288
	mov	w0, 1
	str	w22, [x19, 104]
	bl	timerfd_create
	mov	w22, w0
	cmn	w0, #1
	bne	.L1211
.L1276:
	bl	__errno_location
	ldr	w0, [x0]
	cmp	w0, 22
	bne	.L1211
	mov	w1, 0
	mov	w0, 1
	bl	timerfd_create
	mov	w25, w0
	cmn	w0, #1
	beq	.L1211
	mov	w2, 1
	mov	w1, 2
	bl	fcntl
.LEHE27:
	mov	w22, w25
	b	.L1211
	.p2align 2,,3
.L1274:
	bl	__errno_location
	mov	x22, x0
	ldr	w0, [x0]
	cmp	w0, 22
	beq	.L1281
.L1197:
	add	x0, sp, 112
	bl	pipe
	cbnz	w0, .L1282
	ldr	w0, [sp, 112]
	mov	w2, 2048
	mov	w1, 4
	str	w0, [x19, 96]
.LEHB28:
	bl	fcntl
	ldr	w0, [x19, 96]
	mov	w2, 1
	mov	w1, 2
	bl	fcntl
	ldr	w0, [sp, 116]
	mov	w2, 2048
	str	w0, [x24, 4]
	mov	w1, 4
	bl	fcntl
	ldr	w0, [x24, 4]
	mov	w2, 1
	mov	w1, 2
	bl	fcntl
.LEHE28:
	b	.L1195
	.p2align 2,,3
.L1272:
	mov	x0, x24
	adrp	x21, :got:_ZZN4asio15system_categoryEvE8instance
	bl	__cxa_guard_acquire
	cbz	w0, .L1191
	adrp	x0, :got:_ZN4asio6detail15system_categoryD1Ev
	adrp	x2, __dso_handle
	ldr	x1, [x21, #:got_lo12:_ZZN4asio15system_categoryEvE8instance]
	add	x2, x2, :lo12:__dso_handle
	ldr	x0, [x0, #:got_lo12:_ZN4asio6detail15system_categoryD1Ev]
	bl	__cxa_atexit
	mov	x0, x24
	bl	__cxa_guard_release
	b	.L1191
	.p2align 2,,3
.L1277:
	mov	x0, x20
	bl	__cxa_guard_acquire
	cbz	w0, .L1215
	adrp	x0, :got:_ZN4asio6detail15system_categoryD1Ev
	adrp	x2, __dso_handle
	ldr	x1, [x21, #:got_lo12:_ZZN4asio15system_categoryEvE8instance]
	add	x2, x2, :lo12:__dso_handle
	ldr	x0, [x0, #:got_lo12:_ZN4asio6detail15system_categoryD1Ev]
	bl	__cxa_atexit
	mov	x0, x20
	bl	__cxa_guard_release
	b	.L1215
.L1280:
	ldr	w25, [x26]
.L1205:
	ldr	x26, [x20, #:got_lo12:_ZGVZN4asio15system_categoryEvE8instance]
	ldar	x0, [x26]
	tbz	x0, 0, .L1283
.L1208:
	ldr	x0, [x21, #:got_lo12:_ZZN4asio15system_categoryEvE8instance]
	str	w25, [sp, 96]
	str	x0, [sp, 104]
	cbz	w25, .L1204
	adrp	x1, .LC24
	add	x0, sp, 96
	add	x1, x1, :lo12:.LC24
.LEHB29:
	bl	_ZN4asio6detail14do_throw_errorERKSt10error_codePKc
.LEHE29:
	.p2align 2,,3
.L1282:
	ldr	x25, [x20, #:got_lo12:_ZGVZN4asio15system_categoryEvE8instance]
	ldr	w22, [x22]
	ldar	x0, [x25]
	tbz	x0, 0, .L1284
.L1201:
	ldr	x0, [x21, #:got_lo12:_ZZN4asio15system_categoryEvE8instance]
	str	w22, [sp, 96]
	str	x0, [sp, 104]
	cbz	w22, .L1195
	adrp	x1, .LC25
	add	x0, sp, 96
	add	x1, x1, :lo12:.LC25
.LEHB30:
	bl	_ZN4asio6detail14do_throw_errorERKSt10error_codePKc
	.p2align 2,,3
.L1283:
	mov	x0, x26
	bl	__cxa_guard_acquire
	cbz	w0, .L1208
	adrp	x0, :got:_ZN4asio6detail15system_categoryD1Ev
	adrp	x2, __dso_handle
	ldr	x1, [x21, #:got_lo12:_ZZN4asio15system_categoryEvE8instance]
	add	x2, x2, :lo12:__dso_handle
	ldr	x0, [x0, #:got_lo12:_ZN4asio6detail15system_categoryD1Ev]
	bl	__cxa_atexit
	mov	x0, x26
	bl	__cxa_guard_release
	b	.L1208
	.p2align 2,,3
.L1281:
	mov	w1, 0
	mov	w0, 0
	bl	eventfd
	dup	v0.2s, w0
	str	d0, [x19, 96]
	cmn	w0, #1
	beq	.L1197
	mov	w2, 2048
	mov	w1, 4
	bl	fcntl
	ldr	w0, [x19, 96]
	mov	w2, 1
	mov	w1, 2
	bl	fcntl
.LEHE30:
	ldr	w0, [x19, 96]
	cmn	w0, #1
	bne	.L1195
	b	.L1197
	.p2align 2,,3
.L1284:
	mov	x0, x25
	bl	__cxa_guard_acquire
	cbz	w0, .L1201
	adrp	x0, :got:_ZN4asio6detail15system_categoryD1Ev
	adrp	x2, __dso_handle
	ldr	x1, [x21, #:got_lo12:_ZZN4asio15system_categoryEvE8instance]
	add	x2, x2, :lo12:__dso_handle
	ldr	x0, [x0, #:got_lo12:_ZN4asio6detail15system_categoryD1Ev]
	bl	__cxa_atexit
	mov	x0, x25
	bl	__cxa_guard_release
	b	.L1201
.L1273:
	adrp	x1, .LC28
	add	x0, sp, 96
	add	x1, x1, :lo12:.LC28
.LEHB31:
	bl	_ZN4asio6detail14do_throw_errorERKSt10error_codePKc
.LEHE31:
.L1279:
	bl	__stack_chk_fail
.L1278:
	adrp	x1, .LC28
	add	x0, sp, 96
	add	x1, x1, :lo12:.LC28
.LEHB32:
	bl	_ZN4asio6detail14do_throw_errorERKSt10error_codePKc
.LEHE32:
.L1229:
	mov	x20, x0
.L1224:
	mov	x1, 192
	mov	x0, x19
	bl	_ZdlPvm
	mov	x0, x20
.LEHB33:
	bl	_Unwind_Resume
.LEHE33:
.L1230:
	mov	x20, x0
.L1223:
	mov	x0, x23
	bl	pthread_mutex_destroy
	b	.L1224
.L1231:
	mov	x20, x0
	b	.L1220
.L1232:
	mov	x20, x0
	mov	x0, x21
	bl	_ZN4asio6detail11object_poolINS0_13epoll_reactor16descriptor_stateEED1Ev
	mov	x0, x25
	bl	pthread_mutex_destroy
.L1220:
	ldr	w1, [x24, 4]
	ldr	w0, [x19, 96]
	cmn	w1, #1
	beq	.L1221
	cmp	w1, w0
	beq	.L1221
	mov	w0, w1
	bl	close
	ldr	w0, [x19, 96]
.L1221:
	cmn	w0, #1
	beq	.L1223
	bl	close
	b	.L1223
	.cfi_endproc
.LFE8448:
	.section	.gcc_except_table
.LLSDA8448:
	.byte	0xff
	.byte	0xff
	.byte	0x1
	.uleb128 .LLSDACSE8448-.LLSDACSB8448
.LLSDACSB8448:
	.uleb128 .LEHB25-.LFB8448
	.uleb128 .LEHE25-.LEHB25
	.uleb128 0
	.uleb128 0
	.uleb128 .LEHB26-.LFB8448
	.uleb128 .LEHE26-.LEHB26
	.uleb128 .L1232-.LFB8448
	.uleb128 0
	.uleb128 .LEHB27-.LFB8448
	.uleb128 .LEHE27-.LEHB27
	.uleb128 .L1231-.LFB8448
	.uleb128 0
	.uleb128 .LEHB28-.LFB8448
	.uleb128 .LEHE28-.LEHB28
	.uleb128 .L1230-.LFB8448
	.uleb128 0
	.uleb128 .LEHB29-.LFB8448
	.uleb128 .LEHE29-.LEHB29
	.uleb128 .L1231-.LFB8448
	.uleb128 0
	.uleb128 .LEHB30-.LFB8448
	.uleb128 .LEHE30-.LEHB30
	.uleb128 .L1230-.LFB8448
	.uleb128 0
	.uleb128 .LEHB31-.LFB8448
	.uleb128 .LEHE31-.LEHB31
	.uleb128 .L1229-.LFB8448
	.uleb128 0
	.uleb128 .LEHB32-.LFB8448
	.uleb128 .LEHE32-.LEHB32
	.uleb128 .L1231-.LFB8448
	.uleb128 0
	.uleb128 .LEHB33-.LFB8448
	.uleb128 .LEHE33-.LEHB33
	.uleb128 0
	.uleb128 0
.LLSDACSE8448:
	.section	.text._ZN4asio6detail16service_registry6createINS0_13epoll_reactorEEEPNS_10io_service7serviceERS4_,"axG",@progbits,_ZN4asio6detail16service_registry6createINS0_13epoll_reactorEEEPNS_10io_service7serviceERS4_,comdat
	.size	_ZN4asio6detail16service_registry6createINS0_13epoll_reactorEEEPNS_10io_service7serviceERS4_, .-_ZN4asio6detail16service_registry6createINS0_13epoll_reactorEEEPNS_10io_service7serviceERS4_
	.section	.rodata._ZNSt6vectorISt10unique_ptrISt6threadSt14default_deleteIS1_EESaIS4_EE17_M_realloc_insertIJS4_EEEvN9__gnu_cxx17__normal_iteratorIPS4_S6_EEDpOT_.str1.8,"aMS",@progbits,1
	.align	3
.LC29:
	.string	"vector::_M_realloc_insert"
	.section	.text._ZNSt6vectorISt10unique_ptrISt6threadSt14default_deleteIS1_EESaIS4_EE17_M_realloc_insertIJS4_EEEvN9__gnu_cxx17__normal_iteratorIPS4_S6_EEDpOT_,"axG",@progbits,_ZNSt6vectorISt10unique_ptrISt6threadSt14default_deleteIS1_EESaIS4_EE17_M_realloc_insertIJS4_EEEvN9__gnu_cxx17__normal_iteratorIPS4_S6_EEDpOT_,comdat
	.align	2
	.p2align 4,,11
	.weak	_ZNSt6vectorISt10unique_ptrISt6threadSt14default_deleteIS1_EESaIS4_EE17_M_realloc_insertIJS4_EEEvN9__gnu_cxx17__normal_iteratorIPS4_S6_EEDpOT_
	.type	_ZNSt6vectorISt10unique_ptrISt6threadSt14default_deleteIS1_EESaIS4_EE17_M_realloc_insertIJS4_EEEvN9__gnu_cxx17__normal_iteratorIPS4_S6_EEDpOT_, %function
_ZNSt6vectorISt10unique_ptrISt6threadSt14default_deleteIS1_EESaIS4_EE17_M_realloc_insertIJS4_EEEvN9__gnu_cxx17__normal_iteratorIPS4_S6_EEDpOT_:
.LFB8661:
	.cfi_startproc
	stp	x29, x30, [sp, -96]!
	.cfi_def_cfa_offset 96
	.cfi_offset 29, -96
	.cfi_offset 30, -88
	mov	x29, sp
	stp	x23, x24, [sp, 48]
	.cfi_offset 23, -48
	.cfi_offset 24, -40
	mov	x23, x1
	mov	x1, 1152921504606846975
	stp	x25, x26, [sp, 64]
	.cfi_offset 25, -32
	.cfi_offset 26, -24
	ldp	x24, x26, [x0]
	stp	x19, x20, [sp, 16]
	stp	x21, x22, [sp, 32]
	str	x27, [sp, 80]
	.cfi_offset 19, -80
	.cfi_offset 20, -72
	.cfi_offset 21, -64
	.cfi_offset 22, -56
	.cfi_offset 27, -16
	sub	x3, x26, x24
	asr	x3, x3, 3
	cmp	x3, x1
	beq	.L1303
	cmp	x3, 0
	mov	x22, x0
	csinc	x0, x3, xzr, ne
	mov	x27, x2
	sub	x21, x23, x24
	adds	x3, x3, x0
	bcs	.L1296
	cbnz	x3, .L1290
	mov	x19, 8
	mov	x20, 0
	mov	x25, 0
.L1295:
	ldr	x0, [x27]
	str	x0, [x25, x21]
	str	xzr, [x27]
	cmp	x23, x24
	beq	.L1291
	add	x6, x25, x21
	mov	x4, x24
	mov	x3, x25
	.p2align 3,,7
.L1292:
	ldr	x5, [x4], 8
	str	x5, [x3], 8
	cmp	x3, x6
	bne	.L1292
	add	x19, x3, 8
.L1291:
	cmp	x23, x26
	beq	.L1293
	sub	x2, x26, x23
	mov	x0, x19
	mov	x1, x23
	add	x19, x19, x2
	bl	memcpy
.L1293:
	cbz	x24, .L1294
	ldr	x1, [x22, 16]
	mov	x0, x24
	sub	x1, x1, x24
	bl	_ZdlPvm
.L1294:
	ldp	x23, x24, [sp, 48]
	ldr	x27, [sp, 80]
	stp	x25, x19, [x22]
	str	x20, [x22, 16]
	ldp	x19, x20, [sp, 16]
	ldp	x21, x22, [sp, 32]
	ldp	x25, x26, [sp, 64]
	ldp	x29, x30, [sp], 96
	.cfi_remember_state
	.cfi_restore 30
	.cfi_restore 29
	.cfi_restore 27
	.cfi_restore 25
	.cfi_restore 26
	.cfi_restore 23
	.cfi_restore 24
	.cfi_restore 21
	.cfi_restore 22
	.cfi_restore 19
	.cfi_restore 20
	.cfi_def_cfa_offset 0
	ret
	.p2align 2,,3
.L1296:
	.cfi_restore_state
	mov	x20, 9223372036854775800
.L1289:
	mov	x0, x20
	bl	_Znwm
	mov	x25, x0
	add	x20, x0, x20
	add	x19, x0, 8
	b	.L1295
.L1290:
	cmp	x3, x1
	csel	x3, x3, x1, ls
	lsl	x20, x3, 3
	b	.L1289
.L1303:
	adrp	x0, .LC29
	add	x0, x0, :lo12:.LC29
	bl	_ZSt20__throw_length_errorPKc
	.cfi_endproc
.LFE8661:
	.size	_ZNSt6vectorISt10unique_ptrISt6threadSt14default_deleteIS1_EESaIS4_EE17_M_realloc_insertIJS4_EEEvN9__gnu_cxx17__normal_iteratorIPS4_S6_EEDpOT_, .-_ZNSt6vectorISt10unique_ptrISt6threadSt14default_deleteIS1_EESaIS4_EE17_M_realloc_insertIJS4_EEEvN9__gnu_cxx17__normal_iteratorIPS4_S6_EEDpOT_
	.section	.text._ZN4asio6detail16service_registry6createINS_22waitable_timer_serviceINSt6chrono3_V212steady_clockENS_11wait_traitsIS6_EEEEEEPNS_10io_service7serviceERSA_,"axG",@progbits,_ZN4asio6detail16service_registry6createINS_22waitable_timer_serviceINSt6chrono3_V212steady_clockENS_11wait_traitsIS6_EEEEEEPNS_10io_service7serviceERSA_,comdat
	.align	2
	.p2align 4,,11
	.weak	_ZN4asio6detail16service_registry6createINS_22waitable_timer_serviceINSt6chrono3_V212steady_clockENS_11wait_traitsIS6_EEEEEEPNS_10io_service7serviceERSA_
	.type	_ZN4asio6detail16service_registry6createINS_22waitable_timer_serviceINSt6chrono3_V212steady_clockENS_11wait_traitsIS6_EEEEEEPNS_10io_service7serviceERSA_, %function
_ZN4asio6detail16service_registry6createINS_22waitable_timer_serviceINSt6chrono3_V212steady_clockENS_11wait_traitsIS6_EEEEEEPNS_10io_service7serviceERSA_:
.LFB8966:
	.cfi_startproc
	.cfi_personality 0x9b,DW.ref.__gxx_personality_v0
	.cfi_lsda 0x1b,.LLSDA8966
	stp	x29, x30, [sp, -128]!
	.cfi_def_cfa_offset 128
	.cfi_offset 29, -128
	.cfi_offset 30, -120
	adrp	x1, :got:__stack_chk_guard
	mov	x29, sp
	ldr	x1, [x1, #:got_lo12:__stack_chk_guard]
	stp	x19, x20, [sp, 16]
	.cfi_offset 19, -112
	.cfi_offset 20, -104
	mov	x19, x0
	stp	x21, x22, [sp, 32]
	mov	x0, 96
	stp	x23, x24, [sp, 48]
	stp	x25, x26, [sp, 64]
	.cfi_offset 21, -96
	.cfi_offset 22, -88
	.cfi_offset 23, -80
	.cfi_offset 24, -72
	.cfi_offset 25, -64
	.cfi_offset 26, -56
	adrp	x25, :got:_ZTVN4asio6detail11timer_queueINS0_18chrono_time_traitsINSt6chrono3_V212steady_clockENS_11wait_traitsIS5_EEEEEE
	ldr	x2, [x1]
	str	x2, [sp, 120]
	mov	x2, 0
.LEHB34:
	bl	_Znwm
.LEHE34:
	mov	x21, x0
	adrp	x1, :got:_ZTVN4asio22waitable_timer_serviceINSt6chrono3_V212steady_clockENS_11wait_traitsIS3_EEEE
	stp	xzr, xzr, [x0, 8]
	mov	x20, x0
	ldr	x1, [x1, #:got_lo12:_ZTVN4asio22waitable_timer_serviceINSt6chrono3_V212steady_clockENS_11wait_traitsIS3_EEEE]
	stp	x19, xzr, [x0, 24]
	add	x24, x0, 64
	add	x1, x1, 16
	str	x1, [x21], 40
	ldr	x0, [x25, #:got_lo12:_ZTVN4asio6detail11timer_queueINS0_18chrono_time_traitsINSt6chrono3_V212steady_clockENS_11wait_traitsIS5_EEEEEE]
	str	xzr, [x21, 8]
	ldr	x22, [x19]
	add	x0, x0, 16
	str	x0, [x20, 40]
	str	xzr, [x21, 16]
	add	x23, x22, 8
	str	xzr, [x20, 64]
	mov	x0, x23
	stp	xzr, xzr, [x24, 8]
	bl	pthread_mutex_lock
	ldr	x19, [x22, 64]
	cbz	x19, .L1305
	adrp	x26, :got:_ZTSN4asio6detail14typeid_wrapperINS0_13epoll_reactorEEE
	ldr	x26, [x26, #:got_lo12:_ZTSN4asio6detail14typeid_wrapperINS0_13epoll_reactorEEE]
	.p2align 3,,7
.L1308:
	ldr	x2, [x19, 8]
	cbz	x2, .L1306
	ldr	x0, [x2, 8]
	cmp	x0, x26
	beq	.L1307
	ldrb	w1, [x0]
	cmp	w1, 42
	beq	.L1306
	mov	x1, x26
	bl	strcmp
	cbnz	w0, .L1306
.L1307:
	mov	x0, x23
	bl	pthread_mutex_unlock
	ldr	x22, [x19, 40]
	str	x19, [x21, 48]
	add	x23, x22, 48
	mov	x0, x23
	bl	pthread_mutex_lock
	ldrb	w0, [x22, 217]
	cbz	w0, .L1391
.L1313:
	mov	x0, x23
	bl	pthread_mutex_unlock
.L1330:
	ldr	x19, [x21, 48]
	add	x22, x19, 48
	mov	x0, x22
	bl	pthread_mutex_lock
	ldr	x0, [x19, 112]
	str	x0, [x21, 8]
	str	x21, [x19, 112]
	mov	x0, x22
	bl	pthread_mutex_unlock
	adrp	x0, :got:__stack_chk_guard
	ldr	x0, [x0, #:got_lo12:__stack_chk_guard]
	ldr	x2, [sp, 120]
	ldr	x1, [x0]
	subs	x2, x2, x1
	mov	x1, 0
	bne	.L1392
	mov	x0, x20
	ldp	x19, x20, [sp, 16]
	ldp	x21, x22, [sp, 32]
	ldp	x23, x24, [sp, 48]
	ldp	x25, x26, [sp, 64]
	ldp	x29, x30, [sp], 128
	.cfi_remember_state
	.cfi_restore 30
	.cfi_restore 29
	.cfi_restore 25
	.cfi_restore 26
	.cfi_restore 23
	.cfi_restore 24
	.cfi_restore 21
	.cfi_restore 22
	.cfi_restore 19
	.cfi_restore 20
	.cfi_def_cfa_offset 0
	ret
	.p2align 2,,3
.L1306:
	.cfi_restore_state
	ldr	x19, [x19, 32]
	cbnz	x19, .L1308
.L1305:
	mov	x0, x23
	stp	x27, x28, [sp, 80]
	.cfi_offset 28, -40
	.cfi_offset 27, -48
	bl	pthread_mutex_unlock
	ldr	x0, [x22, 56]
.LEHB35:
	bl	_ZN4asio6detail16service_registry6createINS0_13epoll_reactorEEEPNS_10io_service7serviceERS4_
.LEHE35:
	adrp	x1, :got:_ZTIN4asio6detail14typeid_wrapperINS0_13epoll_reactorEEE
	mov	x27, x0
	mov	x0, x23
	ldr	x1, [x1, #:got_lo12:_ZTIN4asio6detail14typeid_wrapperINS0_13epoll_reactorEEE]
	stp	x1, xzr, [x27, 8]
	bl	pthread_mutex_lock
	ldr	x26, [x22, 64]
	cbz	x26, .L1309
	adrp	x28, :got:_ZTSN4asio6detail14typeid_wrapperINS0_13epoll_reactorEEE
	mov	x19, x26
	ldr	x28, [x28, #:got_lo12:_ZTSN4asio6detail14typeid_wrapperINS0_13epoll_reactorEEE]
	.p2align 3,,7
.L1312:
	ldr	x2, [x19, 8]
	cbz	x2, .L1310
	ldr	x0, [x2, 8]
	cmp	x0, x28
	beq	.L1311
	ldrb	w1, [x0]
	cmp	w1, 42
	beq	.L1310
	mov	x1, x28
	bl	strcmp
	cbnz	w0, .L1310
.L1311:
	ldr	x1, [x27]
	mov	x0, x27
	ldr	x1, [x1, 8]
	blr	x1
	ldp	x27, x28, [sp, 80]
	.cfi_restore 28
	.cfi_restore 27
	b	.L1307
	.p2align 2,,3
.L1391:
	ldr	x0, [x22, 152]
	cbnz	x0, .L1313
	ldr	x0, [x22, 24]
	stp	x27, x28, [sp, 80]
	.cfi_offset 28, -40
	.cfi_offset 27, -48
	ldr	x26, [x0]
	add	x27, x26, 8
	mov	x0, x27
	bl	pthread_mutex_lock
	ldr	x19, [x26, 64]
	cbz	x19, .L1314
	adrp	x28, :got:_ZTSN4asio6detail14typeid_wrapperINS0_13epoll_reactorEEE
	ldr	x28, [x28, #:got_lo12:_ZTSN4asio6detail14typeid_wrapperINS0_13epoll_reactorEEE]
	.p2align 3,,7
.L1317:
	ldr	x0, [x19, 8]
	cbz	x0, .L1315
	ldr	x0, [x0, 8]
	cmp	x0, x28
	beq	.L1316
	ldrb	w1, [x0]
	cmp	w1, 42
	beq	.L1315
	mov	x1, x28
	bl	strcmp
	cbnz	w0, .L1315
.L1316:
	mov	x0, x27
	bl	pthread_mutex_unlock
	ldr	x2, [x22, 208]
	add	x0, x22, 160
	stp	x19, xzr, [x22, 152]
	dup	v0.2d, x0
	cbz	x2, .L1322
	str	x0, [x2]
	str	x0, [x22, 208]
.L1323:
	ldr	x1, [x22, 144]
	add	x24, x22, 96
	orr	x1, x1, 1
	str	x1, [x22, 144]
	cmp	x1, 1
	beq	.L1324
	mov	x0, x23
	bl	pthread_mutex_unlock
	mov	x0, x24
	bl	pthread_cond_signal
	ldp	x27, x28, [sp, 80]
	.cfi_remember_state
	.cfi_restore 28
	.cfi_restore 27
	b	.L1330
	.p2align 2,,3
.L1310:
	.cfi_restore_state
	ldr	x19, [x19, 32]
	cbnz	x19, .L1312
.L1309:
	str	x26, [x27, 32]
	mov	x19, x27
	str	x27, [x22, 64]
	ldp	x27, x28, [sp, 80]
	.cfi_remember_state
	.cfi_restore 28
	.cfi_restore 27
	b	.L1307
.L1324:
	.cfi_restore_state
	ldrb	w0, [x22, 184]
	cbnz	w0, .L1326
	ldr	w2, [x19, 96]
	mov	w4, 9
	ldr	w0, [x19, 104]
	movk	w4, 0x8000, lsl 16
	strb	w1, [x22, 184]
	add	x19, x19, 96
	add	x3, sp, 104
	mov	w1, 3
	str	w4, [sp, 104]
	str	x19, [sp, 112]
	bl	epoll_ctl
.L1326:
	mov	x0, x23
	bl	pthread_mutex_unlock
	ldp	x27, x28, [sp, 80]
	.cfi_remember_state
	.cfi_restore 28
	.cfi_restore 27
	b	.L1330
	.p2align 2,,3
.L1315:
	.cfi_restore_state
	ldr	x19, [x19, 32]
	cbnz	x19, .L1317
.L1314:
	mov	x0, x27
	bl	pthread_mutex_unlock
	ldr	x0, [x26, 56]
.LEHB36:
	bl	_ZN4asio6detail16service_registry6createINS0_13epoll_reactorEEEPNS_10io_service7serviceERS4_
.LEHE36:
	adrp	x1, :got:_ZTIN4asio6detail14typeid_wrapperINS0_13epoll_reactorEEE
	mov	x25, x0
	mov	x0, x27
	ldr	x1, [x1, #:got_lo12:_ZTIN4asio6detail14typeid_wrapperINS0_13epoll_reactorEEE]
	stp	x1, xzr, [x25, 8]
	bl	pthread_mutex_lock
	ldr	x24, [x26, 64]
	cbz	x24, .L1318
	adrp	x28, :got:_ZTSN4asio6detail14typeid_wrapperINS0_13epoll_reactorEEE
	mov	x19, x24
	ldr	x28, [x28, #:got_lo12:_ZTSN4asio6detail14typeid_wrapperINS0_13epoll_reactorEEE]
	.p2align 3,,7
.L1321:
	ldr	x2, [x19, 8]
	cbz	x2, .L1319
	ldr	x0, [x2, 8]
	cmp	x0, x28
	beq	.L1320
	ldrb	w1, [x0]
	cmp	w1, 42
	beq	.L1319
	mov	x1, x28
	bl	strcmp
	cbnz	w0, .L1319
.L1320:
	ldr	x1, [x25]
	mov	x0, x25
	ldr	x1, [x1, 8]
	blr	x1
	b	.L1316
	.p2align 2,,3
.L1319:
	ldr	x19, [x19, 32]
	cbnz	x19, .L1321
.L1318:
	str	x24, [x25, 32]
	mov	x19, x25
	str	x25, [x26, 64]
	b	.L1316
.L1322:
	str	q0, [x22, 200]
	b	.L1323
.L1392:
	.cfi_restore 27
	.cfi_restore 28
	stp	x27, x28, [sp, 80]
	.cfi_offset 28, -40
	.cfi_offset 27, -48
	bl	__stack_chk_fail
.L1332:
	mov	x19, x0
	b	.L1328
.L1333:
	mov	x19, x0
	mov	x0, x23
	bl	pthread_mutex_unlock
.L1328:
	ldr	x2, [x25, #:got_lo12:_ZTVN4asio6detail11timer_queueINS0_18chrono_time_traitsINSt6chrono3_V212steady_clockENS_11wait_traitsIS5_EEEEEE]
	ldr	x0, [x20, 64]
	add	x2, x2, 16
	ldr	x1, [x24, 16]
	str	x2, [x20, 40]
	sub	x1, x1, x0
	cbz	x0, .L1329
	bl	_ZdlPvm
.L1329:
	mov	x1, 96
	mov	x0, x20
	bl	_ZdlPvm
	mov	x0, x19
.LEHB37:
	bl	_Unwind_Resume
.LEHE37:
	.cfi_endproc
.LFE8966:
	.section	.gcc_except_table
.LLSDA8966:
	.byte	0xff
	.byte	0xff
	.byte	0x1
	.uleb128 .LLSDACSE8966-.LLSDACSB8966
.LLSDACSB8966:
	.uleb128 .LEHB34-.LFB8966
	.uleb128 .LEHE34-.LEHB34
	.uleb128 0
	.uleb128 0
	.uleb128 .LEHB35-.LFB8966
	.uleb128 .LEHE35-.LEHB35
	.uleb128 .L1332-.LFB8966
	.uleb128 0
	.uleb128 .LEHB36-.LFB8966
	.uleb128 .LEHE36-.LEHB36
	.uleb128 .L1333-.LFB8966
	.uleb128 0
	.uleb128 .LEHB37-.LFB8966
	.uleb128 .LEHE37-.LEHB37
	.uleb128 0
	.uleb128 0
.LLSDACSE8966:
	.section	.text._ZN4asio6detail16service_registry6createINS_22waitable_timer_serviceINSt6chrono3_V212steady_clockENS_11wait_traitsIS6_EEEEEEPNS_10io_service7serviceERSA_,"axG",@progbits,_ZN4asio6detail16service_registry6createINS_22waitable_timer_serviceINSt6chrono3_V212steady_clockENS_11wait_traitsIS6_EEEEEEPNS_10io_service7serviceERSA_,comdat
	.size	_ZN4asio6detail16service_registry6createINS_22waitable_timer_serviceINSt6chrono3_V212steady_clockENS_11wait_traitsIS6_EEEEEEPNS_10io_service7serviceERSA_, .-_ZN4asio6detail16service_registry6createINS_22waitable_timer_serviceINSt6chrono3_V212steady_clockENS_11wait_traitsIS6_EEEEEEPNS_10io_service7serviceERSA_
	.section	.text._ZNSt6vectorIN4asio6detail11timer_queueINS1_18chrono_time_traitsINSt6chrono3_V212steady_clockENS0_11wait_traitsIS6_EEEEE10heap_entryESaISB_EE17_M_realloc_insertIJRKSB_EEEvN9__gnu_cxx17__normal_iteratorIPSB_SD_EEDpOT_,"axG",@progbits,_ZNSt6vectorIN4asio6detail11timer_queueINS1_18chrono_time_traitsINSt6chrono3_V212steady_clockENS0_11wait_traitsIS6_EEEEE10heap_entryESaISB_EE17_M_realloc_insertIJRKSB_EEEvN9__gnu_cxx17__normal_iteratorIPSB_SD_EEDpOT_,comdat
	.align	2
	.p2align 4,,11
	.weak	_ZNSt6vectorIN4asio6detail11timer_queueINS1_18chrono_time_traitsINSt6chrono3_V212steady_clockENS0_11wait_traitsIS6_EEEEE10heap_entryESaISB_EE17_M_realloc_insertIJRKSB_EEEvN9__gnu_cxx17__normal_iteratorIPSB_SD_EEDpOT_
	.type	_ZNSt6vectorIN4asio6detail11timer_queueINS1_18chrono_time_traitsINSt6chrono3_V212steady_clockENS0_11wait_traitsIS6_EEEEE10heap_entryESaISB_EE17_M_realloc_insertIJRKSB_EEEvN9__gnu_cxx17__normal_iteratorIPSB_SD_EEDpOT_, %function
_ZNSt6vectorIN4asio6detail11timer_queueINS1_18chrono_time_traitsINSt6chrono3_V212steady_clockENS0_11wait_traitsIS6_EEEEE10heap_entryESaISB_EE17_M_realloc_insertIJRKSB_EEEvN9__gnu_cxx17__normal_iteratorIPSB_SD_EEDpOT_:
.LFB9334:
	.cfi_startproc
	stp	x29, x30, [sp, -96]!
	.cfi_def_cfa_offset 96
	.cfi_offset 29, -96
	.cfi_offset 30, -88
	mov	x3, 576460752303423487
	mov	x29, sp
	stp	x21, x22, [sp, 32]
	.cfi_offset 21, -64
	.cfi_offset 22, -56
	ldr	x22, [x0, 8]
	str	x27, [sp, 80]
	.cfi_offset 27, -16
	ldr	x27, [x0]
	stp	x19, x20, [sp, 16]
	.cfi_offset 19, -80
	.cfi_offset 20, -72
	mov	x19, x1
	sub	x1, x22, x27
	stp	x23, x24, [sp, 48]
	asr	x1, x1, 4
	stp	x25, x26, [sp, 64]
	.cfi_offset 23, -48
	.cfi_offset 24, -40
	.cfi_offset 25, -32
	.cfi_offset 26, -24
	cmp	x1, x3
	beq	.L1411
	cmp	x1, 0
	mov	x25, x2
	csinc	x2, x1, xzr, ne
	mov	x26, x0
	sub	x24, x19, x27
	adds	x1, x1, x2
	bcs	.L1404
	cbnz	x1, .L1398
	mov	x23, 16
	mov	x20, 0
	mov	x21, 0
.L1403:
	add	x2, x21, x24
	ldp	x0, x1, [x25]
	stp	x0, x1, [x2]
	cmp	x19, x27
	beq	.L1399
	mov	x4, x21
	mov	x3, x27
	.p2align 3,,7
.L1400:
	ldp	x6, x7, [x3], 16
	stp	x6, x7, [x4], 16
	cmp	x3, x19
	bne	.L1400
	add	x24, x24, 16
	add	x23, x21, x24
.L1399:
	cmp	x19, x22
	beq	.L1401
	sub	x2, x22, x19
	mov	x0, x23
	mov	x1, x19
	add	x23, x23, x2
	bl	memcpy
.L1401:
	cbz	x27, .L1402
	ldr	x1, [x26, 16]
	mov	x0, x27
	sub	x1, x1, x27
	bl	_ZdlPvm
.L1402:
	ldr	x27, [sp, 80]
	stp	x21, x23, [x26]
	str	x20, [x26, 16]
	ldp	x19, x20, [sp, 16]
	ldp	x21, x22, [sp, 32]
	ldp	x23, x24, [sp, 48]
	ldp	x25, x26, [sp, 64]
	ldp	x29, x30, [sp], 96
	.cfi_remember_state
	.cfi_restore 30
	.cfi_restore 29
	.cfi_restore 27
	.cfi_restore 25
	.cfi_restore 26
	.cfi_restore 23
	.cfi_restore 24
	.cfi_restore 21
	.cfi_restore 22
	.cfi_restore 19
	.cfi_restore 20
	.cfi_def_cfa_offset 0
	ret
	.p2align 2,,3
.L1404:
	.cfi_restore_state
	mov	x20, 9223372036854775792
.L1397:
	mov	x0, x20
	bl	_Znwm
	mov	x21, x0
	add	x20, x0, x20
	add	x23, x0, 16
	b	.L1403
.L1398:
	cmp	x1, x3
	csel	x1, x1, x3, ls
	lsl	x20, x1, 4
	b	.L1397
.L1411:
	adrp	x0, .LC29
	add	x0, x0, :lo12:.LC29
	bl	_ZSt20__throw_length_errorPKc
	.cfi_endproc
.LFE9334:
	.size	_ZNSt6vectorIN4asio6detail11timer_queueINS1_18chrono_time_traitsINSt6chrono3_V212steady_clockENS0_11wait_traitsIS6_EEEEE10heap_entryESaISB_EE17_M_realloc_insertIJRKSB_EEEvN9__gnu_cxx17__normal_iteratorIPSB_SD_EEDpOT_, .-_ZNSt6vectorIN4asio6detail11timer_queueINS1_18chrono_time_traitsINSt6chrono3_V212steady_clockENS0_11wait_traitsIS6_EEEEE10heap_entryESaISB_EE17_M_realloc_insertIJRKSB_EEEvN9__gnu_cxx17__normal_iteratorIPSB_SD_EEDpOT_
	.section	.text._ZN4asio6detail13epoll_reactor14schedule_timerINS0_18chrono_time_traitsINSt6chrono3_V212steady_clockENS_11wait_traitsIS6_EEEEEEvRNS0_11timer_queueIT_EERKNSB_9time_typeERNSC_14per_timer_dataEPNS0_7wait_opE,"axG",@progbits,_ZN4asio6detail13epoll_reactor14schedule_timerINS0_18chrono_time_traitsINSt6chrono3_V212steady_clockENS_11wait_traitsIS6_EEEEEEvRNS0_11timer_queueIT_EERKNSB_9time_typeERNSC_14per_timer_dataEPNS0_7wait_opE,comdat
	.align	2
	.p2align 4,,11
	.weak	_ZN4asio6detail13epoll_reactor14schedule_timerINS0_18chrono_time_traitsINSt6chrono3_V212steady_clockENS_11wait_traitsIS6_EEEEEEvRNS0_11timer_queueIT_EERKNSB_9time_typeERNSC_14per_timer_dataEPNS0_7wait_opE
	.type	_ZN4asio6detail13epoll_reactor14schedule_timerINS0_18chrono_time_traitsINSt6chrono3_V212steady_clockENS_11wait_traitsIS6_EEEEEEvRNS0_11timer_queueIT_EERKNSB_9time_typeERNSC_14per_timer_dataEPNS0_7wait_opE, %function
_ZN4asio6detail13epoll_reactor14schedule_timerINS0_18chrono_time_traitsINSt6chrono3_V212steady_clockENS_11wait_traitsIS6_EEEEEEvRNS0_11timer_queueIT_EERKNSB_9time_typeERNSC_14per_timer_dataEPNS0_7wait_opE:
.LFB8814:
	.cfi_startproc
	.cfi_personality 0x9b,DW.ref.__gxx_personality_v0
	.cfi_lsda 0x1b,.LLSDA8814
	stp	x29, x30, [sp, -192]!
	.cfi_def_cfa_offset 192
	.cfi_offset 29, -192
	.cfi_offset 30, -184
	adrp	x5, :got:__stack_chk_guard
	mov	x29, sp
	ldr	x5, [x5, #:got_lo12:__stack_chk_guard]
	stp	x19, x20, [sp, 16]
	.cfi_offset 19, -176
	.cfi_offset 20, -168
	mov	x20, x0
	stp	x21, x22, [sp, 32]
	.cfi_offset 21, -160
	.cfi_offset 22, -152
	mov	x21, x4
	add	x22, x0, 48
	stp	x23, x24, [sp, 48]
	.cfi_offset 23, -144
	.cfi_offset 24, -136
	mov	x23, x1
	mov	x24, x2
	stp	x27, x28, [sp, 80]
	mov	x19, x3
	mov	x0, x22
	ldr	x1, [x5]
	str	x1, [sp, 184]
	mov	x1, 0
	.cfi_offset 27, -112
	.cfi_offset 28, -104
	bl	pthread_mutex_lock
	dup	v0.2d, x21
	ldrb	w0, [x20, 120]
	str	q0, [sp, 96]
	cbnz	w0, .L1486
	ldr	x0, [x19, 32]
	cbz	x0, .L1487
.L1426:
	ldp	x0, x2, [x19, 8]
	ldr	x1, [x20, 40]
	str	xzr, [x21]
	add	x1, x1, 192
	cbz	x0, .L1434
.L1493:
	str	x21, [x0]
	str	x21, [x19, 8]
	cbnz	x2, .L1483
	ldr	x0, [x19]
	cmp	x21, x0
	beq	.L1437
.L1483:
	mov	x0, 1
	bl	__aarch64_ldadd8_acq_rel
.L1436:
	adrp	x0, :got:__stack_chk_guard
	ldr	x0, [x0, #:got_lo12:__stack_chk_guard]
	ldr	x2, [sp, 184]
	ldr	x1, [x0]
	subs	x2, x2, x1
	mov	x1, 0
	bne	.L1488
	mov	x0, x22
	ldp	x19, x20, [sp, 16]
	ldp	x21, x22, [sp, 32]
	ldp	x23, x24, [sp, 48]
	ldp	x27, x28, [sp, 80]
	ldp	x29, x30, [sp], 192
	.cfi_remember_state
	.cfi_restore 30
	.cfi_restore 29
	.cfi_restore 27
	.cfi_restore 28
	.cfi_restore 23
	.cfi_restore 24
	.cfi_restore 21
	.cfi_restore 22
	.cfi_restore 19
	.cfi_restore 20
	.cfi_def_cfa_offset 0
	b	pthread_mutex_unlock
	.p2align 2,,3
.L1486:
	.cfi_restore_state
	ldr	x19, [x20, 40]
	ldrb	w0, [x19, 40]
	cbnz	w0, .L1489
.L1414:
	add	x1, x19, 192
	add	x23, x19, 48
	mov	x0, 1
	bl	__aarch64_ldadd8_acq_rel
	mov	x0, x23
	bl	pthread_mutex_lock
	ldr	x1, [x19, 208]
	str	xzr, [x21]
	cbz	x1, .L1420
	str	x21, [x1]
	str	x21, [x19, 208]
.L1421:
	ldr	x0, [x19, 144]
	add	x20, x19, 96
	orr	x0, x0, 1
	str	x0, [x19, 144]
	cmp	x0, 1
	beq	.L1422
	mov	x0, x23
	bl	pthread_mutex_unlock
	mov	x0, x20
	bl	pthread_cond_signal
	b	.L1436
	.p2align 2,,3
.L1434:
	ldr	q0, [sp, 96]
	str	q0, [x19]
	cbnz	x2, .L1483
.L1437:
	mov	x0, 1
	bl	__aarch64_ldadd8_acq_rel
	ldr	w0, [x20, 108]
	cmn	w0, #1
	beq	.L1439
	ldr	x19, [x20, 112]
	stp	xzr, xzr, [sp, 112]
	cbz	x19, .L1440
	adrp	x21, :got:_ZNK4asio6detail11timer_queueINS0_18chrono_time_traitsINSt6chrono3_V212steady_clockENS_11wait_traitsIS5_EEEEE18wait_duration_usecEl
	mov	x23, 63439
	stp	x25, x26, [sp, 64]
	.cfi_offset 26, -120
	.cfi_offset 25, -128
	mov	x25, 21495
	movk	x23, 0xe353, lsl 16
	movk	x25, 0xa5e3, lsl 16
	mov	x27, 41728
	ldr	x21, [x21, #:got_lo12:_ZNK4asio6detail11timer_queueINS0_18chrono_time_traitsINSt6chrono3_V212steady_clockENS_11wait_traitsIS5_EEEEE18wait_duration_usecEl]
	movk	x23, 0x9ba5, lsl 32
	movk	x25, 0xc49b, lsl 32
	movk	x27, 0x11e1, lsl 16
	movk	x23, 0x20c4, lsl 48
	mov	x24, -9223372036854775808
	movk	x25, 0x20, lsl 48
	mov	x26, 9223372036854775807
	.p2align 3,,7
.L1449:
	ldr	x0, [x19]
	ldr	x2, [x0, 32]
	cmp	x2, x21
	bne	.L1441
	ldp	x28, x0, [x19, 24]
	cmp	x28, x0
	beq	.L1442
	bl	_ZNSt6chrono3_V212steady_clock3nowEv
	ldr	x2, [x28]
	tbnz	x2, #63, .L1443
	tbnz	x0, #63, .L1444
.L1482:
	sub	x2, x2, x0
	cmp	x2, 0
	ble	.L1459
	smulh	x0, x2, x23
	asr	x0, x0, 7
	sub	x2, x0, x2, asr 63
.L1447:
	cbz	x2, .L1490
.L1446:
	cmp	x27, x2
	csel	x27, x27, x2, le
.L1442:
	ldr	x19, [x19, 8]
	cbnz	x19, .L1449
	mov	x2, 13531
	cmp	x27, 0
	movk	x2, 0xd7b6, lsl 16
	ldr	w0, [x20, 108]
	movk	x2, 0xde82, lsl 32
	cset	w1, eq
	movk	x2, 0x431b, lsl 48
	mov	x4, 1
	smulh	x2, x27, x2
	asr	x2, x2, 18
	sub	x2, x2, x27, asr 63
	str	x2, [sp, 128]
	bne	.L1491
	ldp	x25, x26, [sp, 64]
	.cfi_restore 26
	.cfi_restore 25
.L1452:
	add	x3, sp, 152
	add	x2, sp, 112
	str	x4, [sp, 136]
	bl	timerfd_settime
	b	.L1436
	.p2align 2,,3
.L1487:
	ldr	x10, [x23, 16]
	cmp	x19, x10
	beq	.L1426
	stp	x25, x26, [sp, 64]
	.cfi_offset 26, -120
	.cfi_offset 25, -128
	add	x25, x23, 24
	ldr	x3, [x23, 24]
	ldp	x1, x2, [x25, 8]
	ldr	x4, [x24]
	stp	x4, x19, [sp, 152]
	sub	x0, x1, x3
	asr	x0, x0, 4
	str	x0, [x19, 16]
	cmp	x1, x2
	beq	.L1427
	ldp	x4, x5, [sp, 152]
	stp	x4, x5, [x1], 16
	str	x1, [x25, 8]
.L1428:
	sub	x1, x1, x3
	asr	x0, x1, 4
	subs	x0, x0, #1
	beq	.L1432
	add	x1, x3, x1
	ldr	x9, [x1, -16]
	b	.L1433
	.p2align 2,,3
.L1492:
	ldp	x4, x5, [x7]
	ldr	x8, [x1, 8]
	stp	x4, x5, [x1]
	str	x9, [x3, x2]
	str	x8, [x7, 8]
	ldr	x1, [x1, 8]
	str	x6, [x1, 16]
	str	x0, [x8, 16]
	cbz	x0, .L1432
.L1433:
	sub	x1, x0, #1
	mov	x6, x0
	lsr	x0, x1, 1
	add	x1, x3, x6, lsl 4
	lsl	x2, x0, 4
	add	x7, x3, x2
	ldr	x4, [x3, x2]
	cmp	x9, x4
	blt	.L1492
.L1432:
	stp	x10, xzr, [x19, 24]
	cbz	x10, .L1431
	str	x19, [x10, 32]
.L1431:
	ldp	x0, x2, [x19, 8]
	ldr	x1, [x20, 40]
	ldp	x25, x26, [sp, 64]
	.cfi_restore 26
	.cfi_restore 25
	str	x19, [x23, 16]
	str	xzr, [x21]
	add	x1, x1, 192
	cbnz	x0, .L1493
	b	.L1434
	.p2align 2,,3
.L1439:
	ldr	w2, [x20, 96]
	mov	w4, 9
	ldr	w0, [x20, 104]
	movk	w4, 0x8000, lsl 16
	add	x20, x20, 96
	add	x3, sp, 152
	mov	w1, 3
	str	w4, [sp, 152]
	str	x20, [sp, 160]
	bl	epoll_ctl
	b	.L1436
	.p2align 2,,3
.L1420:
	ldr	q0, [sp, 96]
	str	q0, [x19, 200]
	b	.L1421
	.p2align 2,,3
.L1443:
	.cfi_offset 25, -128
	.cfi_offset 26, -120
	tbnz	x0, #63, .L1482
.L1459:
	mov	x27, 0
	b	.L1442
	.p2align 2,,3
.L1441:
	mov	x1, x27
	mov	x0, x19
.LEHB38:
	blr	x2
	mov	x27, x0
	b	.L1442
	.p2align 2,,3
.L1422:
	.cfi_restore 25
	.cfi_restore 26
	ldrb	w1, [x19, 184]
	cbnz	w1, .L1424
	ldr	x4, [x19, 152]
	cbz	x4, .L1424
	mov	w1, 9
	strb	w0, [x19, 184]
	ldr	w2, [x4, 96]
	add	x0, x4, 96
	movk	w1, 0x8000, lsl 16
	str	w1, [sp, 152]
	str	x0, [sp, 160]
	add	x3, sp, 152
	mov	w1, 3
	ldr	w0, [x4, 104]
	bl	epoll_ctl
.L1424:
	mov	x0, x23
	bl	pthread_mutex_unlock
	b	.L1436
	.p2align 2,,3
.L1490:
	.cfi_offset 25, -128
	.cfi_offset 26, -120
	mov	x27, 1
	b	.L1442
	.p2align 2,,3
.L1444:
	cmp	x0, x24
	beq	.L1457
	sub	x1, x26, x2
	neg	x3, x0
	cmp	x1, x3
	blt	.L1457
	sub	x2, x2, x0
	lsr	x2, x2, 3
	umulh	x2, x2, x23
	lsr	x2, x2, 4
	b	.L1447
	.p2align 2,,3
.L1457:
	mov	x2, x25
	b	.L1446
	.p2align 2,,3
.L1489:
	.cfi_restore 25
	.cfi_restore 26
	adrp	x0, :got:_ZN4asio6detail10call_stackINS0_15task_io_serviceENS0_27task_io_service_thread_infoEE4top_E
	ldr	x0, [x0, #:got_lo12:_ZN4asio6detail10call_stackINS0_15task_io_serviceENS0_27task_io_service_thread_infoEE4top_E]
	ldr	w0, [x0]
	bl	pthread_getspecific
	cbnz	x0, .L1417
	b	.L1414
	.p2align 2,,3
.L1415:
	ldr	x0, [x0, 16]
	cbz	x0, .L1414
.L1417:
	ldr	x1, [x0]
	cmp	x19, x1
	bne	.L1415
	ldr	x0, [x0, 8]
	cbz	x0, .L1414
	ldp	x3, x1, [x0, 16]
	add	x1, x1, 1
	str	x1, [x0, 24]
	str	xzr, [x21]
	ldr	x1, [x0, 16]
	cbz	x3, .L1418
	str	x21, [x1]
	str	x21, [x0, 16]
	b	.L1436
	.p2align 2,,3
.L1491:
	.cfi_offset 25, -128
	.cfi_offset 26, -120
	mov	x3, 16960
	movk	x3, 0xf, lsl 16
	ldp	x25, x26, [sp, 64]
	.cfi_restore 26
	.cfi_restore 25
	msub	x2, x2, x3, x27
	lsl	x4, x2, 5
	sub	x4, x4, x2
	add	x4, x2, x4, lsl 2
	lsl	x4, x4, 3
	b	.L1452
	.p2align 2,,3
.L1418:
	ldr	q0, [sp, 96]
	str	q0, [x0, 8]
	b	.L1436
	.p2align 2,,3
.L1427:
	.cfi_offset 25, -128
	.cfi_offset 26, -120
	add	x2, sp, 152
	mov	x0, x25
	bl	_ZNSt6vectorIN4asio6detail11timer_queueINS1_18chrono_time_traitsINSt6chrono3_V212steady_clockENS0_11wait_traitsIS6_EEEEE10heap_entryESaISB_EE17_M_realloc_insertIJRKSB_EEEvN9__gnu_cxx17__normal_iteratorIPSB_SD_EEDpOT_
.LEHE38:
	ldr	x1, [x25, 8]
	ldp	x10, x3, [x23, 16]
	b	.L1428
	.p2align 2,,3
.L1440:
	.cfi_restore 25
	.cfi_restore 26
	mov	x2, 300
	mov	w1, 0
	mov	x4, 0
	str	x2, [sp, 128]
	b	.L1452
.L1488:
	stp	x25, x26, [sp, 64]
	.cfi_offset 26, -120
	.cfi_offset 25, -128
	bl	__stack_chk_fail
.L1462:
	mov	x19, x0
	mov	x0, x22
	bl	pthread_mutex_unlock
	mov	x0, x19
.LEHB39:
	bl	_Unwind_Resume
.LEHE39:
	.cfi_endproc
.LFE8814:
	.section	.gcc_except_table
.LLSDA8814:
	.byte	0xff
	.byte	0xff
	.byte	0x1
	.uleb128 .LLSDACSE8814-.LLSDACSB8814
.LLSDACSB8814:
	.uleb128 .LEHB38-.LFB8814
	.uleb128 .LEHE38-.LEHB38
	.uleb128 .L1462-.LFB8814
	.uleb128 0
	.uleb128 .LEHB39-.LFB8814
	.uleb128 .LEHE39-.LEHB39
	.uleb128 0
	.uleb128 0
.LLSDACSE8814:
	.section	.text._ZN4asio6detail13epoll_reactor14schedule_timerINS0_18chrono_time_traitsINSt6chrono3_V212steady_clockENS_11wait_traitsIS6_EEEEEEvRNS0_11timer_queueIT_EERKNSB_9time_typeERNSC_14per_timer_dataEPNS0_7wait_opE,"axG",@progbits,_ZN4asio6detail13epoll_reactor14schedule_timerINS0_18chrono_time_traitsINSt6chrono3_V212steady_clockENS_11wait_traitsIS6_EEEEEEvRNS0_11timer_queueIT_EERKNSB_9time_typeERNSC_14per_timer_dataEPNS0_7wait_opE,comdat
	.size	_ZN4asio6detail13epoll_reactor14schedule_timerINS0_18chrono_time_traitsINSt6chrono3_V212steady_clockENS_11wait_traitsIS6_EEEEEEvRNS0_11timer_queueIT_EERKNSB_9time_typeERNSC_14per_timer_dataEPNS0_7wait_opE, .-_ZN4asio6detail13epoll_reactor14schedule_timerINS0_18chrono_time_traitsINSt6chrono3_V212steady_clockENS_11wait_traitsIS6_EEEEEEvRNS0_11timer_queueIT_EERKNSB_9time_typeERNSC_14per_timer_dataEPNS0_7wait_opE
	.section	.rodata.str1.8
	.align	3
.LC30:
	.string	"Concurrency was set to 0, defaulting to 1 thread"
	.align	3
.LC31:
	.string	"/home/jaehyun/OpenPLC_v3/utils/dnp3_src/cpp/libs/src/asiopal/ThreadPool.cpp(51)"
	.text
	.align	2
	.p2align 4,,11
	.global	_ZN7asiopal10ThreadPoolC2ERKN7openpal6LoggerERKSt10shared_ptrINS_2IOEEjSt8functionIFvvEESC_
	.type	_ZN7asiopal10ThreadPoolC2ERKN7openpal6LoggerERKSt10shared_ptrINS_2IOEEjSt8functionIFvvEESC_, %function
_ZN7asiopal10ThreadPoolC2ERKN7openpal6LoggerERKSt10shared_ptrINS_2IOEEjSt8functionIFvvEESC_:
.LFB7074:
	.cfi_startproc
	.cfi_personality 0x9b,DW.ref.__gxx_personality_v0
	.cfi_lsda 0x1b,.LLSDA7074
	stp	x29, x30, [sp, -144]!
	.cfi_def_cfa_offset 144
	.cfi_offset 29, -144
	.cfi_offset 30, -136
	adrp	x6, :got:__stack_chk_guard
	mov	x29, sp
	stp	x19, x20, [sp, 16]
	.cfi_offset 19, -128
	.cfi_offset 20, -120
	mov	x20, x4
	mov	x19, x5
	stp	x21, x22, [sp, 32]
	.cfi_offset 21, -112
	.cfi_offset 22, -104
	mov	x21, x0
	mov	x22, x2
	stp	x23, x24, [sp, 48]
	.cfi_offset 23, -96
	.cfi_offset 24, -88
	mov	x23, x1
	stp	x25, x26, [sp, 64]
	.cfi_offset 25, -80
	.cfi_offset 26, -72
	mov	w25, w3
	stp	x27, x28, [sp, 80]
	.cfi_offset 27, -64
	.cfi_offset 28, -56
	ldr	q0, [x1]
	ldr	x6, [x6, #:got_lo12:__stack_chk_guard]
	umov	x1, v0.d[1]
	ldr	x0, [x6]
	str	x0, [sp, 136]
	mov	x0, 0
	str	q0, [x21]
	cbz	x1, .L1495
	adrp	x0, :got:__libc_single_threaded
	ldr	x0, [x0, #:got_lo12:__libc_single_threaded]
	ldrb	w0, [x0]
	cbz	w0, .L1496
	ldr	w0, [x1, 8]
	add	w0, w0, 1
	str	w0, [x1, 8]
.L1495:
	ldr	q0, [x23, 16]
	umov	x1, v0.d[1]
	str	q0, [x21, 16]
	cbz	x1, .L1497
	adrp	x0, :got:__libc_single_threaded
	ldr	x0, [x0, #:got_lo12:__libc_single_threaded]
	ldrb	w0, [x0]
	cbz	w0, .L1498
	ldr	w0, [x1, 8]
	add	w0, w0, 1
	str	w0, [x1, 8]
.L1497:
	ldr	q0, [x22]
	umov	x1, v0.d[1]
	str	q0, [x21, 32]
	cbz	x1, .L1499
	adrp	x0, :got:__libc_single_threaded
	ldr	x0, [x0, #:got_lo12:__libc_single_threaded]
	ldrb	w0, [x0]
	cbz	w0, .L1500
	ldr	w0, [x1, 8]
	add	w0, w0, 1
	str	w0, [x1, 8]
.L1499:
	add	x27, x21, 48
	stp	xzr, xzr, [x21, 48]
	ldr	x3, [x20, 16]
	stp	xzr, xzr, [x27, 16]
	cbz	x3, .L1501
	mov	x1, x20
	mov	x0, x27
	mov	w2, 2
.LEHB40:
	blr	x3
.LEHE40:
	ldr	q0, [x20, 16]
	str	q0, [x21, 64]
.L1501:
	add	x28, x21, 80
	ldr	x3, [x19, 16]
	stp	xzr, xzr, [x21, 80]
	stp	xzr, xzr, [x28, 16]
	cbz	x3, .L1503
	mov	x1, x19
	mov	x0, x28
	mov	w2, 2
.LEHB41:
	blr	x3
.LEHE41:
	ldr	q0, [x19, 16]
	str	q0, [x21, 96]
.L1503:
	adrp	x23, :got:_ZTSN4asio6detail14typeid_wrapperINS_22waitable_timer_serviceINSt6chrono3_V212steady_clockENS_11wait_traitsIS5_EEEEEE
	ldr	x0, [x22]
	strb	wzr, [x21, 112]
	ldr	x20, [x0, 8]
	add	x22, x20, 8
	mov	x0, x22
	bl	pthread_mutex_lock
	ldr	x19, [x20, 64]
	ldr	x23, [x23, #:got_lo12:_ZTSN4asio6detail14typeid_wrapperINS_22waitable_timer_serviceINSt6chrono3_V212steady_clockENS_11wait_traitsIS5_EEEEEE]
	cbz	x19, .L1508
	.p2align 3,,7
.L1507:
	ldr	x0, [x19, 8]
	cbz	x0, .L1512
	ldr	x0, [x0, 8]
	cmp	x0, x23
	beq	.L1513
	ldrb	w1, [x0]
	cmp	w1, 42
	beq	.L1512
	mov	x1, x23
	bl	strcmp
	cbnz	w0, .L1512
.L1513:
	mov	x0, x22
	bl	pthread_mutex_unlock
	movi	v0.4s, 0
	mov	x26, x21
	str	x19, [x21, 120]
	add	x22, x21, 184
	add	x0, x21, 144
	str	x0, [sp, 104]
	str	q0, [x21, 144]
	str	xzr, [x26, 128]!
	strb	wzr, [x26, 8]
	str	q0, [x21, 168]
	str	q0, [x21, 184]
	str	xzr, [x22, 16]
	cbz	w25, .L1518
	bl	_ZNSt3_V215system_categoryEv
	mov	x24, x0
.L1519:
	adrp	x23, :got:_ZN4asio6detail10call_stackINS0_15task_io_serviceENS0_27task_io_service_thread_infoEE4top_E
	mov	x0, 9223372036854775807
	str	x0, [x21, 128]
	ldr	x0, [x23, #:got_lo12:_ZN4asio6detail10call_stackINS0_15task_io_serviceENS0_27task_io_service_thread_infoEE4top_E]
	ldr	w0, [x0]
	bl	pthread_getspecific
	cbz	x0, .L1522
	ldr	x0, [x0, 8]
	cbz	x0, .L1522
	ldr	x20, [x0]
	cbz	x20, .L1522
	str	xzr, [x0]
	ldrb	w0, [x20]
	cmp	w0, 47
	bls	.L1523
	strb	w0, [x20, 48]
	b	.L1524
	.p2align 2,,3
.L1512:
	ldr	x19, [x19, 32]
	cbnz	x19, .L1507
.L1508:
	mov	x0, x22
	bl	pthread_mutex_unlock
	ldr	x0, [x20, 56]
.LEHB42:
	bl	_ZN4asio6detail16service_registry6createINS_22waitable_timer_serviceINSt6chrono3_V212steady_clockENS_11wait_traitsIS6_EEEEEEPNS_10io_service7serviceERSA_
.LEHE42:
	adrp	x1, :got:_ZTIN4asio6detail14typeid_wrapperINS_22waitable_timer_serviceINSt6chrono3_V212steady_clockENS_11wait_traitsIS5_EEEEEE
	mov	x24, x0
	mov	x0, x22
	ldr	x1, [x1, #:got_lo12:_ZTIN4asio6detail14typeid_wrapperINS_22waitable_timer_serviceINSt6chrono3_V212steady_clockENS_11wait_traitsIS5_EEEEEE]
	stp	x1, xzr, [x24, 8]
	bl	pthread_mutex_lock
	ldr	x23, [x20, 64]
	cbz	x23, .L1514
	adrp	x26, :got:_ZTSN4asio6detail14typeid_wrapperINS_22waitable_timer_serviceINSt6chrono3_V212steady_clockENS_11wait_traitsIS5_EEEEEE
	mov	x19, x23
	ldr	x26, [x26, #:got_lo12:_ZTSN4asio6detail14typeid_wrapperINS_22waitable_timer_serviceINSt6chrono3_V212steady_clockENS_11wait_traitsIS5_EEEEEE]
	.p2align 3,,7
.L1517:
	ldr	x2, [x19, 8]
	cbz	x2, .L1515
	ldr	x0, [x2, 8]
	cmp	x0, x26
	beq	.L1516
	ldrb	w1, [x0]
	cmp	w1, 42
	beq	.L1515
	mov	x1, x26
	bl	strcmp
	cbnz	w0, .L1515
.L1516:
	ldr	x1, [x24]
	mov	x0, x24
	ldr	x1, [x1, 8]
	blr	x1
	b	.L1513
	.p2align 2,,3
.L1523:
	mov	x0, x20
	bl	_ZdlPv
.L1522:
	mov	x0, 49
.LEHB43:
	bl	_Znwm
.LEHE43:
	mov	x20, x0
	mov	w1, 48
	strb	w1, [x0, 48]
.L1524:
	add	x1, x19, 40
	adrp	x0, _ZN4asio6detail12wait_handlerIZN7asiopal10ThreadPoolC4ERKN7openpal6LoggerERKSt10shared_ptrINS2_2IOEEjSt8functionIFvvEESF_EUlRKSt10error_codeE_E11do_completeEPNS0_15task_io_serviceEPNS0_25task_io_service_operationESI_m
	add	x0, x0, :lo12:_ZN4asio6detail12wait_handlerIZN7asiopal10ThreadPoolC4ERKN7openpal6LoggerERKSt10shared_ptrINS2_2IOEEjSt8functionIFvvEESF_EUlRKSt10error_codeE_E11do_completeEPNS0_15task_io_serviceEPNS0_25task_io_service_operationESI_m
	stp	xzr, x0, [x20]
	mov	w2, 1
	ldr	x0, [x1, 48]
	str	wzr, [x20, 16]
	str	wzr, [x20, 24]
	mov	x4, x20
	str	x24, [x20, 32]
	add	x3, x21, 144
	strb	w2, [x26, 8]
	mov	x2, x26
.LEHB44:
	bl	_ZN4asio6detail13epoll_reactor14schedule_timerINS0_18chrono_time_traitsINSt6chrono3_V212steady_clockENS_11wait_traitsIS6_EEEEEEvRNS0_11timer_queueIT_EERKNSB_9time_typeERNSC_14per_timer_dataEPNS0_7wait_opE
.LEHE44:
	adrp	x24, .LANCHOR0
	add	x24, x24, :lo12:.LANCHOR0
	add	x24, x24, 16
	mov	w20, 0
	b	.L1525
	.p2align 2,,3
.L1531:
	str	x19, [x1], 8
	str	x1, [x22, 8]
.L1536:
	add	w20, w20, 1
	cmp	w20, w25
	beq	.L1655
.L1525:
	mov	x0, 8
.LEHB45:
	bl	_Znwm
.LEHE45:
	mov	x19, x0
	mov	x0, 24
	str	xzr, [x19]
.LEHB46:
	bl	_Znwm
.LEHE46:
	mov	x3, x0
	add	x23, sp, 120
	mov	x1, x23
	mov	x0, x19
	mov	x2, 0
	str	x3, [sp, 120]
	stp	x24, x21, [x3]
	str	w20, [x3, 16]
.LEHB47:
	bl	_ZNSt6thread15_M_start_threadESt10unique_ptrINS_6_StateESt14default_deleteIS1_EEPFvvE
.LEHE47:
	ldr	x0, [sp, 120]
	cbz	x0, .L1530
	ldr	x1, [x0]
	ldr	x1, [x1, 8]
	blr	x1
.L1530:
	ldp	x1, x0, [x22, 8]
	str	x19, [sp, 120]
	cmp	x1, x0
	bne	.L1531
	mov	x2, x23
	mov	x0, x22
.LEHB48:
	bl	_ZNSt6vectorISt10unique_ptrISt6threadSt14default_deleteIS1_EESaIS4_EE17_M_realloc_insertIJS4_EEEvN9__gnu_cxx17__normal_iteratorIPS4_S6_EEDpOT_
.LEHE48:
	ldr	x0, [sp, 120]
	cbz	x0, .L1536
	ldr	x1, [x0]
	cbnz	x1, .L1540
	mov	x1, 8
	add	w20, w20, 1
	bl	_ZdlPvm
	cmp	w20, w25
	bne	.L1525
.L1655:
	adrp	x0, :got:__stack_chk_guard
	ldr	x0, [x0, #:got_lo12:__stack_chk_guard]
	ldr	x2, [sp, 136]
	ldr	x1, [x0]
	subs	x2, x2, x1
	mov	x1, 0
	bne	.L1656
	ldp	x19, x20, [sp, 16]
	ldp	x21, x22, [sp, 32]
	ldp	x23, x24, [sp, 48]
	ldp	x25, x26, [sp, 64]
	ldp	x27, x28, [sp, 80]
	ldp	x29, x30, [sp], 144
	.cfi_remember_state
	.cfi_restore 30
	.cfi_restore 29
	.cfi_restore 27
	.cfi_restore 28
	.cfi_restore 25
	.cfi_restore 26
	.cfi_restore 23
	.cfi_restore 24
	.cfi_restore 21
	.cfi_restore 22
	.cfi_restore 19
	.cfi_restore 20
	.cfi_def_cfa_offset 0
	ret
	.p2align 2,,3
.L1518:
	.cfi_restore_state
	mov	w2, 4
	add	x23, sp, 120
	mov	x1, x23
	mov	x0, x21
	str	w2, [sp, 120]
.LEHB49:
	bl	_ZNK7openpal6Logger9IsEnabledERKNS_10LogFiltersE
	tst	w0, 255
	bne	.L1520
	ldrb	w20, [x26, 8]
	bl	_ZNSt3_V215system_categoryEv
	mov	x24, x0
	ldr	x19, [x21, 120]
	cbz	w20, .L1554
.L1657:
	ldr	x0, [x19, 88]
	add	x1, x19, 40
	add	x2, x21, 144
	mov	w25, 1
	bl	_ZN4asio6detail13epoll_reactor12cancel_timerINS0_18chrono_time_traitsINSt6chrono3_V212steady_clockENS_11wait_traitsIS6_EEEEEEmRNS0_11timer_queueIT_EERNSC_14per_timer_dataEm.constprop.0.isra.0
	strb	wzr, [x26, 8]
	ldr	x19, [x21, 120]
	b	.L1519
	.p2align 2,,3
.L1498:
	add	x1, x1, 8
	mov	w0, 1
	bl	__aarch64_ldadd4_acq_rel
	b	.L1497
	.p2align 2,,3
.L1496:
	add	x1, x1, 8
	mov	w0, 1
	bl	__aarch64_ldadd4_acq_rel
	b	.L1495
	.p2align 2,,3
.L1500:
	add	x1, x1, 8
	mov	w0, 1
	bl	__aarch64_ldadd4_acq_rel
	b	.L1499
	.p2align 2,,3
.L1515:
	ldr	x19, [x19, 32]
	cbnz	x19, .L1517
.L1514:
	str	x23, [x24, 32]
	mov	x19, x24
	str	x24, [x20, 64]
	b	.L1513
	.p2align 2,,3
.L1520:
	mov	w4, 4
	adrp	x3, .LC30
	adrp	x2, .LC31
	mov	x1, x23
	add	x3, x3, :lo12:.LC30
	add	x2, x2, :lo12:.LC31
	mov	x0, x21
	str	w4, [sp, 120]
	bl	_ZN7openpal6Logger3LogERKNS_10LogFiltersEPKcS5_
.LEHE49:
	ldrb	w20, [x26, 8]
	bl	_ZNSt3_V215system_categoryEv
	mov	x24, x0
	ldr	x19, [x21, 120]
	cbnz	w20, .L1657
.L1554:
	mov	w25, 1
	b	.L1519
.L1557:
	ldr	x1, [sp, 120]
	mov	x19, x0
	cbz	x1, .L1529
	ldr	x0, [x1]
	cbz	x0, .L1658
.L1540:
	bl	_ZSt9terminatev
.L1656:
	bl	__stack_chk_fail
.L1560:
	ldr	x23, [x23, #:got_lo12:_ZN4asio6detail10call_stackINS0_15task_io_serviceENS0_27task_io_service_thread_infoEE4top_E]
	mov	x19, x0
	ldr	w0, [x23]
	bl	pthread_getspecific
	cbnz	x0, .L1659
.L1527:
	mov	x0, x20
	bl	_ZdlPv
.L1529:
	ldr	x23, [x22, 8]
	ldr	x20, [x21, 184]
.L1541:
	cmp	x23, x20
	beq	.L1660
	ldr	x0, [x20]
	cbz	x0, .L1542
	ldr	x1, [x0]
	cbnz	x1, .L1540
	mov	x1, 8
	bl	_ZdlPvm
.L1542:
	add	x20, x20, 8
	b	.L1541
.L1558:
	ldr	x3, [x27, 16]
	mov	x19, x0
	cbz	x3, .L1506
	mov	x1, x27
	mov	x0, x27
	mov	w2, 3
	blr	x3
.L1506:
	ldr	x0, [x21, 40]
	cbz	x0, .L1552
	bl	_ZNSt16_Sp_counted_baseILN9__gnu_cxx12_Lock_policyE2EE10_M_releaseEv
.L1552:
	mov	x0, x21
	bl	_ZN7openpal6LoggerD1Ev
	mov	x0, x19
.LEHB50:
	bl	_Unwind_Resume
.LEHE50:
.L1659:
	ldr	x0, [x0, 8]
	cbz	x0, .L1527
	ldr	x1, [x0]
	cbnz	x1, .L1527
	ldrb	w1, [x20, 48]
	strb	w1, [x20]
	str	x20, [x0]
	b	.L1529
.L1660:
	ldr	x0, [x21, 184]
	ldr	x1, [x22, 16]
	sub	x1, x1, x0
	cbz	x0, .L1544
	bl	_ZdlPvm
.L1544:
	bl	_ZNSt3_V215system_categoryEv
	mov	x20, x0
	ldrb	w2, [x26, 8]
	ldr	x1, [x21, 120]
	cbnz	w2, .L1661
	add	x22, sp, 120
.L1548:
	ldr	x0, [sp, 104]
	ldr	x1, [x0]
	cbnz	x1, .L1662
.L1549:
	ldr	x3, [x28, 16]
	cbz	x3, .L1511
	mov	x1, x28
	mov	x0, x28
	mov	w2, 3
	blr	x3
.L1511:
	ldr	x3, [x27, 16]
	cbz	x3, .L1506
	mov	x1, x27
	mov	x0, x27
	mov	w2, 3
	blr	x3
	b	.L1506
.L1661:
	ldr	x0, [x1, 88]
	add	x1, x1, 40
	ldr	x2, [sp, 104]
	add	x22, sp, 120
	bl	_ZN4asio6detail13epoll_reactor12cancel_timerINS0_18chrono_time_traitsINSt6chrono3_V212steady_clockENS_11wait_traitsIS6_EEEEEEmRNS0_11timer_queueIT_EERNSC_14per_timer_dataEm.constprop.0.isra.0
	strb	wzr, [x26, 8]
	b	.L1548
.L1559:
	ldr	x3, [x28, 16]
	mov	x19, x0
	cbz	x3, .L1511
	mov	x1, x28
	mov	x0, x28
	mov	w2, 3
	blr	x3
	b	.L1511
.L1556:
	mov	x19, x0
	b	.L1529
.L1555:
	mov	x19, x0
	b	.L1549
.L1562:
	ldr	x1, [sp, 120]
	mov	x20, x0
	cbz	x1, .L1534
	ldr	x2, [x1]
	mov	x0, x1
	ldr	x1, [x2, 8]
	blr	x1
.L1534:
	mov	x1, x20
.L1535:
	mov	x0, x19
	mov	x19, x1
	mov	x1, 8
	bl	_ZdlPvm
	b	.L1529
.L1662:
	ldr	x2, [sp, 104]
	ldr	x0, [x1]
	str	x0, [x2]
	cbnz	x0, .L1547
	str	xzr, [x2, 8]
.L1547:
	ldr	x4, [x1, 8]
	str	xzr, [x1]
	str	wzr, [sp, 120]
	mov	x2, x22
	str	x20, [sp, 128]
	mov	x3, 0
	mov	x0, 0
	blr	x4
	b	.L1548
.L1561:
	mov	x1, x0
	b	.L1535
.L1658:
	mov	x0, x1
	mov	x1, 8
	bl	_ZdlPvm
	b	.L1529
	.cfi_endproc
.LFE7074:
	.section	.gcc_except_table
.LLSDA7074:
	.byte	0xff
	.byte	0xff
	.byte	0x1
	.uleb128 .LLSDACSE7074-.LLSDACSB7074
.LLSDACSB7074:
	.uleb128 .LEHB40-.LFB7074
	.uleb128 .LEHE40-.LEHB40
	.uleb128 .L1558-.LFB7074
	.uleb128 0
	.uleb128 .LEHB41-.LFB7074
	.uleb128 .LEHE41-.LEHB41
	.uleb128 .L1559-.LFB7074
	.uleb128 0
	.uleb128 .LEHB42-.LFB7074
	.uleb128 .LEHE42-.LEHB42
	.uleb128 .L1555-.LFB7074
	.uleb128 0
	.uleb128 .LEHB43-.LFB7074
	.uleb128 .LEHE43-.LEHB43
	.uleb128 .L1556-.LFB7074
	.uleb128 0
	.uleb128 .LEHB44-.LFB7074
	.uleb128 .LEHE44-.LEHB44
	.uleb128 .L1560-.LFB7074
	.uleb128 0
	.uleb128 .LEHB45-.LFB7074
	.uleb128 .LEHE45-.LEHB45
	.uleb128 .L1556-.LFB7074
	.uleb128 0
	.uleb128 .LEHB46-.LFB7074
	.uleb128 .LEHE46-.LEHB46
	.uleb128 .L1561-.LFB7074
	.uleb128 0
	.uleb128 .LEHB47-.LFB7074
	.uleb128 .LEHE47-.LEHB47
	.uleb128 .L1562-.LFB7074
	.uleb128 0
	.uleb128 .LEHB48-.LFB7074
	.uleb128 .LEHE48-.LEHB48
	.uleb128 .L1557-.LFB7074
	.uleb128 0
	.uleb128 .LEHB49-.LFB7074
	.uleb128 .LEHE49-.LEHB49
	.uleb128 .L1556-.LFB7074
	.uleb128 0
	.uleb128 .LEHB50-.LFB7074
	.uleb128 .LEHE50-.LEHB50
	.uleb128 0
	.uleb128 0
.LLSDACSE7074:
	.text
	.size	_ZN7asiopal10ThreadPoolC2ERKN7openpal6LoggerERKSt10shared_ptrINS_2IOEEjSt8functionIFvvEESC_, .-_ZN7asiopal10ThreadPoolC2ERKN7openpal6LoggerERKSt10shared_ptrINS_2IOEEjSt8functionIFvvEESC_
	.global	_ZN7asiopal10ThreadPoolC1ERKN7openpal6LoggerERKSt10shared_ptrINS_2IOEEjSt8functionIFvvEESC_
	.set	_ZN7asiopal10ThreadPoolC1ERKN7openpal6LoggerERKSt10shared_ptrINS_2IOEEjSt8functionIFvvEESC_,_ZN7asiopal10ThreadPoolC2ERKN7openpal6LoggerERKSt10shared_ptrINS_2IOEEjSt8functionIFvvEESC_
	.section	.text.startup,"ax",@progbits
	.align	2
	.p2align 4,,11
	.type	_GLOBAL__sub_I_ThreadPool.cpp, %function
_GLOBAL__sub_I_ThreadPool.cpp:
.LFB9734:
	.cfi_startproc
	stp	x29, x30, [sp, -32]!
	.cfi_def_cfa_offset 32
	.cfi_offset 29, -32
	.cfi_offset 30, -24
	mov	x29, sp
	str	x19, [sp, 16]
	.cfi_offset 19, -16
	adrp	x19, :got:_ZGVZN4asio15system_categoryEvE8instance
	ldr	x19, [x19, #:got_lo12:_ZGVZN4asio15system_categoryEvE8instance]
	ldar	x0, [x19]
	tbz	x0, 0, .L1695
.L1665:
	adrp	x19, :got:_ZGVZN4asio5error18get_netdb_categoryEvE8instance
	ldr	x19, [x19, #:got_lo12:_ZGVZN4asio5error18get_netdb_categoryEvE8instance]
	ldar	x0, [x19]
	tbz	x0, 0, .L1696
.L1668:
	adrp	x19, :got:_ZGVZN4asio5error21get_addrinfo_categoryEvE8instance
	ldr	x19, [x19, #:got_lo12:_ZGVZN4asio5error21get_addrinfo_categoryEvE8instance]
	ldar	x0, [x19]
	tbz	x0, 0, .L1697
.L1671:
	adrp	x19, :got:_ZGVZN4asio5error17get_misc_categoryEvE8instance
	ldr	x19, [x19, #:got_lo12:_ZGVZN4asio5error17get_misc_categoryEvE8instance]
	ldar	x0, [x19]
	tbz	x0, 0, .L1698
.L1674:
	adrp	x2, :got:_ZGVN4asio6detail10call_stackINS0_15task_io_serviceENS0_27task_io_service_thread_infoEE4top_E
	ldr	x2, [x2, #:got_lo12:_ZGVN4asio6detail10call_stackINS0_15task_io_serviceENS0_27task_io_service_thread_infoEE4top_E]
	ldr	x0, [x2]
	tbz	x0, 0, .L1699
.L1676:
	adrp	x3, :got:_ZGVN4asio6detail12service_baseINS0_13epoll_reactorEE2idE
	ldr	x3, [x3, #:got_lo12:_ZGVN4asio6detail12service_baseINS0_13epoll_reactorEE2idE]
	ldr	x0, [x3]
	tbz	x0, 0, .L1700
.L1677:
	adrp	x3, :got:_ZGVN4asio6detail12service_baseINS0_15task_io_serviceEE2idE
	ldr	x3, [x3, #:got_lo12:_ZGVN4asio6detail12service_baseINS0_15task_io_serviceEE2idE]
	ldr	x0, [x3]
	tbz	x0, 0, .L1701
.L1678:
	adrp	x2, :got:_ZGVN4asio6detail10call_stackINS0_14strand_service11strand_implEhE4top_E
	ldr	x2, [x2, #:got_lo12:_ZGVN4asio6detail10call_stackINS0_14strand_service11strand_implEhE4top_E]
	ldr	x0, [x2]
	tbz	x0, 0, .L1702
.L1679:
	adrp	x3, :got:_ZGVN4asio6detail12service_baseINS0_14strand_serviceEE2idE
	ldr	x3, [x3, #:got_lo12:_ZGVN4asio6detail12service_baseINS0_14strand_serviceEE2idE]
	ldr	x0, [x3]
	tbz	x0, 0, .L1703
.L1680:
	adrp	x3, :got:_ZGVN4asio6detail12service_baseINS_22waitable_timer_serviceINSt6chrono3_V212steady_clockENS_11wait_traitsIS5_EEEEE2idE
	ldr	x3, [x3, #:got_lo12:_ZGVN4asio6detail12service_baseINS_22waitable_timer_serviceINSt6chrono3_V212steady_clockENS_11wait_traitsIS5_EEEEE2idE]
	ldr	x0, [x3]
	tbz	x0, 0, .L1704
	ldr	x19, [sp, 16]
	ldp	x29, x30, [sp], 32
	.cfi_remember_state
	.cfi_restore 30
	.cfi_restore 29
	.cfi_restore 19
	.cfi_def_cfa_offset 0
	ret
.L1695:
	.cfi_restore_state
	mov	x0, x19
	bl	__cxa_guard_acquire
	cbz	w0, .L1665
	adrp	x1, :got:_ZZN4asio15system_categoryEvE8instance
	adrp	x0, :got:_ZN4asio6detail15system_categoryD1Ev
	adrp	x2, __dso_handle
	add	x2, x2, :lo12:__dso_handle
	ldr	x1, [x1, #:got_lo12:_ZZN4asio15system_categoryEvE8instance]
	ldr	x0, [x0, #:got_lo12:_ZN4asio6detail15system_categoryD1Ev]
	bl	__cxa_atexit
	mov	x0, x19
	bl	__cxa_guard_release
	b	.L1665
.L1704:
	mov	x4, 1
	adrp	x1, :got:_ZN4asio6detail12service_baseINS_22waitable_timer_serviceINSt6chrono3_V212steady_clockENS_11wait_traitsIS5_EEEEE2idE
	ldr	x19, [sp, 16]
	str	x4, [x3]
	adrp	x0, :got:_ZN4asio6detail10service_idINS_22waitable_timer_serviceINSt6chrono3_V212steady_clockENS_11wait_traitsIS5_EEEEED1Ev
	adrp	x2, __dso_handle
	ldp	x29, x30, [sp], 32
	.cfi_remember_state
	.cfi_restore 30
	.cfi_restore 29
	.cfi_restore 19
	.cfi_def_cfa_offset 0
	add	x2, x2, :lo12:__dso_handle
	ldr	x1, [x1, #:got_lo12:_ZN4asio6detail12service_baseINS_22waitable_timer_serviceINSt6chrono3_V212steady_clockENS_11wait_traitsIS5_EEEEE2idE]
	ldr	x0, [x0, #:got_lo12:_ZN4asio6detail10service_idINS_22waitable_timer_serviceINSt6chrono3_V212steady_clockENS_11wait_traitsIS5_EEEEED1Ev]
	b	__cxa_atexit
.L1703:
	.cfi_restore_state
	adrp	x1, :got:_ZN4asio6detail12service_baseINS0_14strand_serviceEE2idE
	adrp	x0, :got:_ZN4asio6detail10service_idINS0_14strand_serviceEED1Ev
	mov	x4, 1
	adrp	x2, __dso_handle
	ldr	x1, [x1, #:got_lo12:_ZN4asio6detail12service_baseINS0_14strand_serviceEE2idE]
	add	x2, x2, :lo12:__dso_handle
	ldr	x0, [x0, #:got_lo12:_ZN4asio6detail10service_idINS0_14strand_serviceEED1Ev]
	str	x4, [x3]
	bl	__cxa_atexit
	b	.L1680
.L1702:
	adrp	x19, :got:_ZN4asio6detail10call_stackINS0_14strand_service11strand_implEhE4top_E
	mov	x0, 1
	str	x0, [x2]
	ldr	x19, [x19, #:got_lo12:_ZN4asio6detail10call_stackINS0_14strand_service11strand_implEhE4top_E]
	mov	x0, x19
	bl	_ZN4asio6detail20posix_tss_ptr_createERj
	adrp	x0, :got:_ZN4asio6detail7tss_ptrINS0_10call_stackINS0_14strand_service11strand_implEhE7contextEED1Ev
	mov	x1, x19
	adrp	x2, __dso_handle
	add	x2, x2, :lo12:__dso_handle
	ldr	x0, [x0, #:got_lo12:_ZN4asio6detail7tss_ptrINS0_10call_stackINS0_14strand_service11strand_implEhE7contextEED1Ev]
	bl	__cxa_atexit
	b	.L1679
.L1701:
	adrp	x1, :got:_ZN4asio6detail12service_baseINS0_15task_io_serviceEE2idE
	adrp	x0, :got:_ZN4asio6detail10service_idINS0_15task_io_serviceEED1Ev
	mov	x4, 1
	adrp	x2, __dso_handle
	ldr	x1, [x1, #:got_lo12:_ZN4asio6detail12service_baseINS0_15task_io_serviceEE2idE]
	add	x2, x2, :lo12:__dso_handle
	ldr	x0, [x0, #:got_lo12:_ZN4asio6detail10service_idINS0_15task_io_serviceEED1Ev]
	str	x4, [x3]
	bl	__cxa_atexit
	b	.L1678
.L1700:
	adrp	x1, :got:_ZN4asio6detail12service_baseINS0_13epoll_reactorEE2idE
	adrp	x0, :got:_ZN4asio6detail10service_idINS0_13epoll_reactorEED1Ev
	mov	x4, 1
	adrp	x2, __dso_handle
	ldr	x1, [x1, #:got_lo12:_ZN4asio6detail12service_baseINS0_13epoll_reactorEE2idE]
	add	x2, x2, :lo12:__dso_handle
	ldr	x0, [x0, #:got_lo12:_ZN4asio6detail10service_idINS0_13epoll_reactorEED1Ev]
	str	x4, [x3]
	bl	__cxa_atexit
	b	.L1677
.L1699:
	adrp	x19, :got:_ZN4asio6detail10call_stackINS0_15task_io_serviceENS0_27task_io_service_thread_infoEE4top_E
	mov	x0, 1
	str	x0, [x2]
	ldr	x19, [x19, #:got_lo12:_ZN4asio6detail10call_stackINS0_15task_io_serviceENS0_27task_io_service_thread_infoEE4top_E]
	mov	x0, x19
	bl	_ZN4asio6detail20posix_tss_ptr_createERj
	adrp	x0, :got:_ZN4asio6detail7tss_ptrINS0_10call_stackINS0_15task_io_serviceENS0_27task_io_service_thread_infoEE7contextEED1Ev
	mov	x1, x19
	adrp	x2, __dso_handle
	add	x2, x2, :lo12:__dso_handle
	ldr	x0, [x0, #:got_lo12:_ZN4asio6detail7tss_ptrINS0_10call_stackINS0_15task_io_serviceENS0_27task_io_service_thread_infoEE7contextEED1Ev]
	bl	__cxa_atexit
	b	.L1676
.L1698:
	mov	x0, x19
	bl	__cxa_guard_acquire
	cbz	w0, .L1674
	adrp	x1, :got:_ZZN4asio5error17get_misc_categoryEvE8instance
	adrp	x0, :got:_ZN4asio5error6detail13misc_categoryD1Ev
	adrp	x2, __dso_handle
	add	x2, x2, :lo12:__dso_handle
	ldr	x1, [x1, #:got_lo12:_ZZN4asio5error17get_misc_categoryEvE8instance]
	ldr	x0, [x0, #:got_lo12:_ZN4asio5error6detail13misc_categoryD1Ev]
	bl	__cxa_atexit
	mov	x0, x19
	bl	__cxa_guard_release
	b	.L1674
.L1697:
	mov	x0, x19
	bl	__cxa_guard_acquire
	cbz	w0, .L1671
	adrp	x1, :got:_ZZN4asio5error21get_addrinfo_categoryEvE8instance
	adrp	x0, :got:_ZN4asio5error6detail17addrinfo_categoryD1Ev
	adrp	x2, __dso_handle
	add	x2, x2, :lo12:__dso_handle
	ldr	x1, [x1, #:got_lo12:_ZZN4asio5error21get_addrinfo_categoryEvE8instance]
	ldr	x0, [x0, #:got_lo12:_ZN4asio5error6detail17addrinfo_categoryD1Ev]
	bl	__cxa_atexit
	mov	x0, x19
	bl	__cxa_guard_release
	b	.L1671
.L1696:
	mov	x0, x19
	bl	__cxa_guard_acquire
	cbz	w0, .L1668
	adrp	x1, :got:_ZZN4asio5error18get_netdb_categoryEvE8instance
	adrp	x0, :got:_ZN4asio5error6detail14netdb_categoryD1Ev
	adrp	x2, __dso_handle
	add	x2, x2, :lo12:__dso_handle
	ldr	x1, [x1, #:got_lo12:_ZZN4asio5error18get_netdb_categoryEvE8instance]
	ldr	x0, [x0, #:got_lo12:_ZN4asio5error6detail14netdb_categoryD1Ev]
	bl	__cxa_atexit
	mov	x0, x19
	bl	__cxa_guard_release
	b	.L1668
	.cfi_endproc
.LFE9734:
	.size	_GLOBAL__sub_I_ThreadPool.cpp, .-_GLOBAL__sub_I_ThreadPool.cpp
	.section	.init_array,"aw"
	.align	3
	.xword	_GLOBAL__sub_I_ThreadPool.cpp
	.weak	_ZTSN4asio6detail11noncopyableE
	.section	.rodata._ZTSN4asio6detail11noncopyableE,"aG",@progbits,_ZTSN4asio6detail11noncopyableE,comdat
	.align	3
	.type	_ZTSN4asio6detail11noncopyableE, %object
	.size	_ZTSN4asio6detail11noncopyableE, 28
_ZTSN4asio6detail11noncopyableE:
	.string	"N4asio6detail11noncopyableE"
	.weak	_ZTIN4asio6detail11noncopyableE
	.section	.data.rel.ro._ZTIN4asio6detail11noncopyableE,"awG",@progbits,_ZTIN4asio6detail11noncopyableE,comdat
	.align	3
	.type	_ZTIN4asio6detail11noncopyableE, %object
	.size	_ZTIN4asio6detail11noncopyableE, 16
_ZTIN4asio6detail11noncopyableE:
	.xword	_ZTVN10__cxxabiv117__class_type_infoE+16
	.xword	_ZTSN4asio6detail11noncopyableE
	.weak	_ZGVN4asio6detail12service_baseINS_22waitable_timer_serviceINSt6chrono3_V212steady_clockENS_11wait_traitsIS5_EEEEE2idE
	.section	.bss._ZGVN4asio6detail12service_baseINS_22waitable_timer_serviceINSt6chrono3_V212steady_clockENS_11wait_traitsIS5_EEEEE2idE,"awG",@nobits,_ZGVN4asio6detail12service_baseINS_22waitable_timer_serviceINSt6chrono3_V212steady_clockENS_11wait_traitsIS5_EEEEE2idE,comdat
	.align	3
	.type	_ZGVN4asio6detail12service_baseINS_22waitable_timer_serviceINSt6chrono3_V212steady_clockENS_11wait_traitsIS5_EEEEE2idE, %gnu_unique_object
	.size	_ZGVN4asio6detail12service_baseINS_22waitable_timer_serviceINSt6chrono3_V212steady_clockENS_11wait_traitsIS5_EEEEE2idE, 8
_ZGVN4asio6detail12service_baseINS_22waitable_timer_serviceINSt6chrono3_V212steady_clockENS_11wait_traitsIS5_EEEEE2idE:
	.zero	8
	.weak	_ZGVN4asio6detail12service_baseINS0_14strand_serviceEE2idE
	.section	.bss._ZGVN4asio6detail12service_baseINS0_14strand_serviceEE2idE,"awG",@nobits,_ZGVN4asio6detail12service_baseINS0_14strand_serviceEE2idE,comdat
	.align	3
	.type	_ZGVN4asio6detail12service_baseINS0_14strand_serviceEE2idE, %gnu_unique_object
	.size	_ZGVN4asio6detail12service_baseINS0_14strand_serviceEE2idE, 8
_ZGVN4asio6detail12service_baseINS0_14strand_serviceEE2idE:
	.zero	8
	.weak	_ZGVN4asio6detail10call_stackINS0_14strand_service11strand_implEhE4top_E
	.section	.bss._ZGVN4asio6detail10call_stackINS0_14strand_service11strand_implEhE4top_E,"awG",@nobits,_ZGVN4asio6detail10call_stackINS0_14strand_service11strand_implEhE4top_E,comdat
	.align	3
	.type	_ZGVN4asio6detail10call_stackINS0_14strand_service11strand_implEhE4top_E, %gnu_unique_object
	.size	_ZGVN4asio6detail10call_stackINS0_14strand_service11strand_implEhE4top_E, 8
_ZGVN4asio6detail10call_stackINS0_14strand_service11strand_implEhE4top_E:
	.zero	8
	.weak	_ZGVN4asio6detail12service_baseINS0_15task_io_serviceEE2idE
	.section	.bss._ZGVN4asio6detail12service_baseINS0_15task_io_serviceEE2idE,"awG",@nobits,_ZGVN4asio6detail12service_baseINS0_15task_io_serviceEE2idE,comdat
	.align	3
	.type	_ZGVN4asio6detail12service_baseINS0_15task_io_serviceEE2idE, %gnu_unique_object
	.size	_ZGVN4asio6detail12service_baseINS0_15task_io_serviceEE2idE, 8
_ZGVN4asio6detail12service_baseINS0_15task_io_serviceEE2idE:
	.zero	8
	.weak	_ZGVN4asio6detail12service_baseINS0_13epoll_reactorEE2idE
	.section	.bss._ZGVN4asio6detail12service_baseINS0_13epoll_reactorEE2idE,"awG",@nobits,_ZGVN4asio6detail12service_baseINS0_13epoll_reactorEE2idE,comdat
	.align	3
	.type	_ZGVN4asio6detail12service_baseINS0_13epoll_reactorEE2idE, %gnu_unique_object
	.size	_ZGVN4asio6detail12service_baseINS0_13epoll_reactorEE2idE, 8
_ZGVN4asio6detail12service_baseINS0_13epoll_reactorEE2idE:
	.zero	8
	.weak	_ZGVN4asio6detail10call_stackINS0_15task_io_serviceENS0_27task_io_service_thread_infoEE4top_E
	.section	.bss._ZGVN4asio6detail10call_stackINS0_15task_io_serviceENS0_27task_io_service_thread_infoEE4top_E,"awG",@nobits,_ZGVN4asio6detail10call_stackINS0_15task_io_serviceENS0_27task_io_service_thread_infoEE4top_E,comdat
	.align	3
	.type	_ZGVN4asio6detail10call_stackINS0_15task_io_serviceENS0_27task_io_service_thread_infoEE4top_E, %gnu_unique_object
	.size	_ZGVN4asio6detail10call_stackINS0_15task_io_serviceENS0_27task_io_service_thread_infoEE4top_E, 8
_ZGVN4asio6detail10call_stackINS0_15task_io_serviceENS0_27task_io_service_thread_infoEE4top_E:
	.zero	8
	.weak	_ZN4asio6detail12service_baseINS_22waitable_timer_serviceINSt6chrono3_V212steady_clockENS_11wait_traitsIS5_EEEEE2idE
	.section	.bss._ZN4asio6detail12service_baseINS_22waitable_timer_serviceINSt6chrono3_V212steady_clockENS_11wait_traitsIS5_EEEEE2idE,"awG",@nobits,_ZN4asio6detail12service_baseINS_22waitable_timer_serviceINSt6chrono3_V212steady_clockENS_11wait_traitsIS5_EEEEE2idE,comdat
	.align	3
	.type	_ZN4asio6detail12service_baseINS_22waitable_timer_serviceINSt6chrono3_V212steady_clockENS_11wait_traitsIS5_EEEEE2idE, %gnu_unique_object
	.size	_ZN4asio6detail12service_baseINS_22waitable_timer_serviceINSt6chrono3_V212steady_clockENS_11wait_traitsIS5_EEEEE2idE, 1
_ZN4asio6detail12service_baseINS_22waitable_timer_serviceINSt6chrono3_V212steady_clockENS_11wait_traitsIS5_EEEEE2idE:
	.zero	1
	.weak	_ZN4asio6detail12service_baseINS0_14strand_serviceEE2idE
	.section	.bss._ZN4asio6detail12service_baseINS0_14strand_serviceEE2idE,"awG",@nobits,_ZN4asio6detail12service_baseINS0_14strand_serviceEE2idE,comdat
	.align	3
	.type	_ZN4asio6detail12service_baseINS0_14strand_serviceEE2idE, %gnu_unique_object
	.size	_ZN4asio6detail12service_baseINS0_14strand_serviceEE2idE, 1
_ZN4asio6detail12service_baseINS0_14strand_serviceEE2idE:
	.zero	1
	.weak	_ZN4asio6detail10call_stackINS0_14strand_service11strand_implEhE4top_E
	.section	.bss._ZN4asio6detail10call_stackINS0_14strand_service11strand_implEhE4top_E,"awG",@nobits,_ZN4asio6detail10call_stackINS0_14strand_service11strand_implEhE4top_E,comdat
	.align	3
	.type	_ZN4asio6detail10call_stackINS0_14strand_service11strand_implEhE4top_E, %gnu_unique_object
	.size	_ZN4asio6detail10call_stackINS0_14strand_service11strand_implEhE4top_E, 4
_ZN4asio6detail10call_stackINS0_14strand_service11strand_implEhE4top_E:
	.zero	4
	.weak	_ZN4asio6detail12service_baseINS0_15task_io_serviceEE2idE
	.section	.bss._ZN4asio6detail12service_baseINS0_15task_io_serviceEE2idE,"awG",@nobits,_ZN4asio6detail12service_baseINS0_15task_io_serviceEE2idE,comdat
	.align	3
	.type	_ZN4asio6detail12service_baseINS0_15task_io_serviceEE2idE, %gnu_unique_object
	.size	_ZN4asio6detail12service_baseINS0_15task_io_serviceEE2idE, 1
_ZN4asio6detail12service_baseINS0_15task_io_serviceEE2idE:
	.zero	1
	.weak	_ZN4asio6detail12service_baseINS0_13epoll_reactorEE2idE
	.section	.bss._ZN4asio6detail12service_baseINS0_13epoll_reactorEE2idE,"awG",@nobits,_ZN4asio6detail12service_baseINS0_13epoll_reactorEE2idE,comdat
	.align	3
	.type	_ZN4asio6detail12service_baseINS0_13epoll_reactorEE2idE, %gnu_unique_object
	.size	_ZN4asio6detail12service_baseINS0_13epoll_reactorEE2idE, 1
_ZN4asio6detail12service_baseINS0_13epoll_reactorEE2idE:
	.zero	1
	.weak	_ZN4asio6detail10call_stackINS0_15task_io_serviceENS0_27task_io_service_thread_infoEE4top_E
	.section	.bss._ZN4asio6detail10call_stackINS0_15task_io_serviceENS0_27task_io_service_thread_infoEE4top_E,"awG",@nobits,_ZN4asio6detail10call_stackINS0_15task_io_serviceENS0_27task_io_service_thread_infoEE4top_E,comdat
	.align	3
	.type	_ZN4asio6detail10call_stackINS0_15task_io_serviceENS0_27task_io_service_thread_infoEE4top_E, %gnu_unique_object
	.size	_ZN4asio6detail10call_stackINS0_15task_io_serviceENS0_27task_io_service_thread_infoEE4top_E, 4
_ZN4asio6detail10call_stackINS0_15task_io_serviceENS0_27task_io_service_thread_infoEE4top_E:
	.zero	4
	.weak	_ZTSN4asio6detail15system_categoryE
	.section	.rodata._ZTSN4asio6detail15system_categoryE,"aG",@progbits,_ZTSN4asio6detail15system_categoryE,comdat
	.align	3
	.type	_ZTSN4asio6detail15system_categoryE, %object
	.size	_ZTSN4asio6detail15system_categoryE, 32
_ZTSN4asio6detail15system_categoryE:
	.string	"N4asio6detail15system_categoryE"
	.weak	_ZTIN4asio6detail15system_categoryE
	.section	.data.rel.ro._ZTIN4asio6detail15system_categoryE,"awG",@progbits,_ZTIN4asio6detail15system_categoryE,comdat
	.align	3
	.type	_ZTIN4asio6detail15system_categoryE, %object
	.size	_ZTIN4asio6detail15system_categoryE, 24
_ZTIN4asio6detail15system_categoryE:
	.xword	_ZTVN10__cxxabiv120__si_class_type_infoE+16
	.xword	_ZTSN4asio6detail15system_categoryE
	.xword	_ZTINSt3_V214error_categoryE
	.weak	_ZTSN4asio5error6detail14netdb_categoryE
	.section	.rodata._ZTSN4asio5error6detail14netdb_categoryE,"aG",@progbits,_ZTSN4asio5error6detail14netdb_categoryE,comdat
	.align	3
	.type	_ZTSN4asio5error6detail14netdb_categoryE, %object
	.size	_ZTSN4asio5error6detail14netdb_categoryE, 37
_ZTSN4asio5error6detail14netdb_categoryE:
	.string	"N4asio5error6detail14netdb_categoryE"
	.weak	_ZTIN4asio5error6detail14netdb_categoryE
	.section	.data.rel.ro._ZTIN4asio5error6detail14netdb_categoryE,"awG",@progbits,_ZTIN4asio5error6detail14netdb_categoryE,comdat
	.align	3
	.type	_ZTIN4asio5error6detail14netdb_categoryE, %object
	.size	_ZTIN4asio5error6detail14netdb_categoryE, 24
_ZTIN4asio5error6detail14netdb_categoryE:
	.xword	_ZTVN10__cxxabiv120__si_class_type_infoE+16
	.xword	_ZTSN4asio5error6detail14netdb_categoryE
	.xword	_ZTINSt3_V214error_categoryE
	.weak	_ZTSN4asio5error6detail17addrinfo_categoryE
	.section	.rodata._ZTSN4asio5error6detail17addrinfo_categoryE,"aG",@progbits,_ZTSN4asio5error6detail17addrinfo_categoryE,comdat
	.align	3
	.type	_ZTSN4asio5error6detail17addrinfo_categoryE, %object
	.size	_ZTSN4asio5error6detail17addrinfo_categoryE, 40
_ZTSN4asio5error6detail17addrinfo_categoryE:
	.string	"N4asio5error6detail17addrinfo_categoryE"
	.weak	_ZTIN4asio5error6detail17addrinfo_categoryE
	.section	.data.rel.ro._ZTIN4asio5error6detail17addrinfo_categoryE,"awG",@progbits,_ZTIN4asio5error6detail17addrinfo_categoryE,comdat
	.align	3
	.type	_ZTIN4asio5error6detail17addrinfo_categoryE, %object
	.size	_ZTIN4asio5error6detail17addrinfo_categoryE, 24
_ZTIN4asio5error6detail17addrinfo_categoryE:
	.xword	_ZTVN10__cxxabiv120__si_class_type_infoE+16
	.xword	_ZTSN4asio5error6detail17addrinfo_categoryE
	.xword	_ZTINSt3_V214error_categoryE
	.weak	_ZTSN4asio5error6detail13misc_categoryE
	.section	.rodata._ZTSN4asio5error6detail13misc_categoryE,"aG",@progbits,_ZTSN4asio5error6detail13misc_categoryE,comdat
	.align	3
	.type	_ZTSN4asio5error6detail13misc_categoryE, %object
	.size	_ZTSN4asio5error6detail13misc_categoryE, 36
_ZTSN4asio5error6detail13misc_categoryE:
	.string	"N4asio5error6detail13misc_categoryE"
	.weak	_ZTIN4asio5error6detail13misc_categoryE
	.section	.data.rel.ro._ZTIN4asio5error6detail13misc_categoryE,"awG",@progbits,_ZTIN4asio5error6detail13misc_categoryE,comdat
	.align	3
	.type	_ZTIN4asio5error6detail13misc_categoryE, %object
	.size	_ZTIN4asio5error6detail13misc_categoryE, 24
_ZTIN4asio5error6detail13misc_categoryE:
	.xword	_ZTVN10__cxxabiv120__si_class_type_infoE+16
	.xword	_ZTSN4asio5error6detail13misc_categoryE
	.xword	_ZTINSt3_V214error_categoryE
	.weak	_ZTSN4asio10io_service7serviceE
	.section	.rodata._ZTSN4asio10io_service7serviceE,"aG",@progbits,_ZTSN4asio10io_service7serviceE,comdat
	.align	3
	.type	_ZTSN4asio10io_service7serviceE, %object
	.size	_ZTSN4asio10io_service7serviceE, 28
_ZTSN4asio10io_service7serviceE:
	.string	"N4asio10io_service7serviceE"
	.weak	_ZTIN4asio10io_service7serviceE
	.section	.data.rel.ro._ZTIN4asio10io_service7serviceE,"awG",@progbits,_ZTIN4asio10io_service7serviceE,comdat
	.align	3
	.type	_ZTIN4asio10io_service7serviceE, %object
	.size	_ZTIN4asio10io_service7serviceE, 40
_ZTIN4asio10io_service7serviceE:
	.xword	_ZTVN10__cxxabiv121__vmi_class_type_infoE+16
	.xword	_ZTSN4asio10io_service7serviceE
	.word	0
	.word	1
	.xword	_ZTIN4asio6detail11noncopyableE
	.xword	0
	.weak	_ZTSN4asio6detail16timer_queue_baseE
	.section	.rodata._ZTSN4asio6detail16timer_queue_baseE,"aG",@progbits,_ZTSN4asio6detail16timer_queue_baseE,comdat
	.align	3
	.type	_ZTSN4asio6detail16timer_queue_baseE, %object
	.size	_ZTSN4asio6detail16timer_queue_baseE, 33
_ZTSN4asio6detail16timer_queue_baseE:
	.string	"N4asio6detail16timer_queue_baseE"
	.weak	_ZTIN4asio6detail16timer_queue_baseE
	.section	.data.rel.ro._ZTIN4asio6detail16timer_queue_baseE,"awG",@progbits,_ZTIN4asio6detail16timer_queue_baseE,comdat
	.align	3
	.type	_ZTIN4asio6detail16timer_queue_baseE, %object
	.size	_ZTIN4asio6detail16timer_queue_baseE, 40
_ZTIN4asio6detail16timer_queue_baseE:
	.xword	_ZTVN10__cxxabiv121__vmi_class_type_infoE+16
	.xword	_ZTSN4asio6detail16timer_queue_baseE
	.word	0
	.word	1
	.xword	_ZTIN4asio6detail11noncopyableE
	.xword	0
	.weak	_ZTSN4asio6detail12service_baseINS0_13epoll_reactorEEE
	.section	.rodata._ZTSN4asio6detail12service_baseINS0_13epoll_reactorEEE,"aG",@progbits,_ZTSN4asio6detail12service_baseINS0_13epoll_reactorEEE,comdat
	.align	3
	.type	_ZTSN4asio6detail12service_baseINS0_13epoll_reactorEEE, %object
	.size	_ZTSN4asio6detail12service_baseINS0_13epoll_reactorEEE, 51
_ZTSN4asio6detail12service_baseINS0_13epoll_reactorEEE:
	.string	"N4asio6detail12service_baseINS0_13epoll_reactorEEE"
	.weak	_ZTIN4asio6detail12service_baseINS0_13epoll_reactorEEE
	.section	.data.rel.ro._ZTIN4asio6detail12service_baseINS0_13epoll_reactorEEE,"awG",@progbits,_ZTIN4asio6detail12service_baseINS0_13epoll_reactorEEE,comdat
	.align	3
	.type	_ZTIN4asio6detail12service_baseINS0_13epoll_reactorEEE, %object
	.size	_ZTIN4asio6detail12service_baseINS0_13epoll_reactorEEE, 24
_ZTIN4asio6detail12service_baseINS0_13epoll_reactorEEE:
	.xword	_ZTVN10__cxxabiv120__si_class_type_infoE+16
	.xword	_ZTSN4asio6detail12service_baseINS0_13epoll_reactorEEE
	.xword	_ZTIN4asio10io_service7serviceE
	.weak	_ZTSN4asio6detail13epoll_reactorE
	.section	.rodata._ZTSN4asio6detail13epoll_reactorE,"aG",@progbits,_ZTSN4asio6detail13epoll_reactorE,comdat
	.align	3
	.type	_ZTSN4asio6detail13epoll_reactorE, %object
	.size	_ZTSN4asio6detail13epoll_reactorE, 30
_ZTSN4asio6detail13epoll_reactorE:
	.string	"N4asio6detail13epoll_reactorE"
	.weak	_ZTIN4asio6detail13epoll_reactorE
	.section	.data.rel.ro._ZTIN4asio6detail13epoll_reactorE,"awG",@progbits,_ZTIN4asio6detail13epoll_reactorE,comdat
	.align	3
	.type	_ZTIN4asio6detail13epoll_reactorE, %object
	.size	_ZTIN4asio6detail13epoll_reactorE, 24
_ZTIN4asio6detail13epoll_reactorE:
	.xword	_ZTVN10__cxxabiv120__si_class_type_infoE+16
	.xword	_ZTSN4asio6detail13epoll_reactorE
	.xword	_ZTIN4asio6detail12service_baseINS0_13epoll_reactorEEE
	.weak	_ZTSN4asio6detail12service_baseINS_22waitable_timer_serviceINSt6chrono3_V212steady_clockENS_11wait_traitsIS5_EEEEEE
	.section	.rodata._ZTSN4asio6detail12service_baseINS_22waitable_timer_serviceINSt6chrono3_V212steady_clockENS_11wait_traitsIS5_EEEEEE,"aG",@progbits,_ZTSN4asio6detail12service_baseINS_22waitable_timer_serviceINSt6chrono3_V212steady_clockENS_11wait_traitsIS5_EEEEEE,comdat
	.align	3
	.type	_ZTSN4asio6detail12service_baseINS_22waitable_timer_serviceINSt6chrono3_V212steady_clockENS_11wait_traitsIS5_EEEEEE, %object
	.size	_ZTSN4asio6detail12service_baseINS_22waitable_timer_serviceINSt6chrono3_V212steady_clockENS_11wait_traitsIS5_EEEEEE, 112
_ZTSN4asio6detail12service_baseINS_22waitable_timer_serviceINSt6chrono3_V212steady_clockENS_11wait_traitsIS5_EEEEEE:
	.string	"N4asio6detail12service_baseINS_22waitable_timer_serviceINSt6chrono3_V212steady_clockENS_11wait_traitsIS5_EEEEEE"
	.weak	_ZTIN4asio6detail12service_baseINS_22waitable_timer_serviceINSt6chrono3_V212steady_clockENS_11wait_traitsIS5_EEEEEE
	.section	.data.rel.ro._ZTIN4asio6detail12service_baseINS_22waitable_timer_serviceINSt6chrono3_V212steady_clockENS_11wait_traitsIS5_EEEEEE,"awG",@progbits,_ZTIN4asio6detail12service_baseINS_22waitable_timer_serviceINSt6chrono3_V212steady_clockENS_11wait_traitsIS5_EEEEEE,comdat
	.align	3
	.type	_ZTIN4asio6detail12service_baseINS_22waitable_timer_serviceINSt6chrono3_V212steady_clockENS_11wait_traitsIS5_EEEEEE, %object
	.size	_ZTIN4asio6detail12service_baseINS_22waitable_timer_serviceINSt6chrono3_V212steady_clockENS_11wait_traitsIS5_EEEEEE, 24
_ZTIN4asio6detail12service_baseINS_22waitable_timer_serviceINSt6chrono3_V212steady_clockENS_11wait_traitsIS5_EEEEEE:
	.xword	_ZTVN10__cxxabiv120__si_class_type_infoE+16
	.xword	_ZTSN4asio6detail12service_baseINS_22waitable_timer_serviceINSt6chrono3_V212steady_clockENS_11wait_traitsIS5_EEEEEE
	.xword	_ZTIN4asio10io_service7serviceE
	.weak	_ZTSN4asio6detail11timer_queueINS0_18chrono_time_traitsINSt6chrono3_V212steady_clockENS_11wait_traitsIS5_EEEEEE
	.section	.rodata._ZTSN4asio6detail11timer_queueINS0_18chrono_time_traitsINSt6chrono3_V212steady_clockENS_11wait_traitsIS5_EEEEEE,"aG",@progbits,_ZTSN4asio6detail11timer_queueINS0_18chrono_time_traitsINSt6chrono3_V212steady_clockENS_11wait_traitsIS5_EEEEEE,comdat
	.align	3
	.type	_ZTSN4asio6detail11timer_queueINS0_18chrono_time_traitsINSt6chrono3_V212steady_clockENS_11wait_traitsIS5_EEEEEE, %object
	.size	_ZTSN4asio6detail11timer_queueINS0_18chrono_time_traitsINSt6chrono3_V212steady_clockENS_11wait_traitsIS5_EEEEEE, 108
_ZTSN4asio6detail11timer_queueINS0_18chrono_time_traitsINSt6chrono3_V212steady_clockENS_11wait_traitsIS5_EEEEEE:
	.string	"N4asio6detail11timer_queueINS0_18chrono_time_traitsINSt6chrono3_V212steady_clockENS_11wait_traitsIS5_EEEEEE"
	.weak	_ZTIN4asio6detail11timer_queueINS0_18chrono_time_traitsINSt6chrono3_V212steady_clockENS_11wait_traitsIS5_EEEEEE
	.section	.data.rel.ro._ZTIN4asio6detail11timer_queueINS0_18chrono_time_traitsINSt6chrono3_V212steady_clockENS_11wait_traitsIS5_EEEEEE,"awG",@progbits,_ZTIN4asio6detail11timer_queueINS0_18chrono_time_traitsINSt6chrono3_V212steady_clockENS_11wait_traitsIS5_EEEEEE,comdat
	.align	3
	.type	_ZTIN4asio6detail11timer_queueINS0_18chrono_time_traitsINSt6chrono3_V212steady_clockENS_11wait_traitsIS5_EEEEEE, %object
	.size	_ZTIN4asio6detail11timer_queueINS0_18chrono_time_traitsINSt6chrono3_V212steady_clockENS_11wait_traitsIS5_EEEEEE, 24
_ZTIN4asio6detail11timer_queueINS0_18chrono_time_traitsINSt6chrono3_V212steady_clockENS_11wait_traitsIS5_EEEEEE:
	.xword	_ZTVN10__cxxabiv120__si_class_type_infoE+16
	.xword	_ZTSN4asio6detail11timer_queueINS0_18chrono_time_traitsINSt6chrono3_V212steady_clockENS_11wait_traitsIS5_EEEEEE
	.xword	_ZTIN4asio6detail16timer_queue_baseE
	.weak	_ZTSN4asio22waitable_timer_serviceINSt6chrono3_V212steady_clockENS_11wait_traitsIS3_EEEE
	.section	.rodata._ZTSN4asio22waitable_timer_serviceINSt6chrono3_V212steady_clockENS_11wait_traitsIS3_EEEE,"aG",@progbits,_ZTSN4asio22waitable_timer_serviceINSt6chrono3_V212steady_clockENS_11wait_traitsIS3_EEEE,comdat
	.align	3
	.type	_ZTSN4asio22waitable_timer_serviceINSt6chrono3_V212steady_clockENS_11wait_traitsIS3_EEEE, %object
	.size	_ZTSN4asio22waitable_timer_serviceINSt6chrono3_V212steady_clockENS_11wait_traitsIS3_EEEE, 85
_ZTSN4asio22waitable_timer_serviceINSt6chrono3_V212steady_clockENS_11wait_traitsIS3_EEEE:
	.string	"N4asio22waitable_timer_serviceINSt6chrono3_V212steady_clockENS_11wait_traitsIS3_EEEE"
	.weak	_ZTIN4asio22waitable_timer_serviceINSt6chrono3_V212steady_clockENS_11wait_traitsIS3_EEEE
	.section	.data.rel.ro._ZTIN4asio22waitable_timer_serviceINSt6chrono3_V212steady_clockENS_11wait_traitsIS3_EEEE,"awG",@progbits,_ZTIN4asio22waitable_timer_serviceINSt6chrono3_V212steady_clockENS_11wait_traitsIS3_EEEE,comdat
	.align	3
	.type	_ZTIN4asio22waitable_timer_serviceINSt6chrono3_V212steady_clockENS_11wait_traitsIS3_EEEE, %object
	.size	_ZTIN4asio22waitable_timer_serviceINSt6chrono3_V212steady_clockENS_11wait_traitsIS3_EEEE, 24
_ZTIN4asio22waitable_timer_serviceINSt6chrono3_V212steady_clockENS_11wait_traitsIS3_EEEE:
	.xword	_ZTVN10__cxxabiv120__si_class_type_infoE+16
	.xword	_ZTSN4asio22waitable_timer_serviceINSt6chrono3_V212steady_clockENS_11wait_traitsIS3_EEEE
	.xword	_ZTIN4asio6detail12service_baseINS_22waitable_timer_serviceINSt6chrono3_V212steady_clockENS_11wait_traitsIS5_EEEEEE
	.weak	_ZTSN4asio6detail14typeid_wrapperINS0_13epoll_reactorEEE
	.section	.rodata._ZTSN4asio6detail14typeid_wrapperINS0_13epoll_reactorEEE,"aG",@progbits,_ZTSN4asio6detail14typeid_wrapperINS0_13epoll_reactorEEE,comdat
	.align	3
	.type	_ZTSN4asio6detail14typeid_wrapperINS0_13epoll_reactorEEE, %object
	.size	_ZTSN4asio6detail14typeid_wrapperINS0_13epoll_reactorEEE, 53
_ZTSN4asio6detail14typeid_wrapperINS0_13epoll_reactorEEE:
	.string	"N4asio6detail14typeid_wrapperINS0_13epoll_reactorEEE"
	.weak	_ZTIN4asio6detail14typeid_wrapperINS0_13epoll_reactorEEE
	.section	.data.rel.ro._ZTIN4asio6detail14typeid_wrapperINS0_13epoll_reactorEEE,"awG",@progbits,_ZTIN4asio6detail14typeid_wrapperINS0_13epoll_reactorEEE,comdat
	.align	3
	.type	_ZTIN4asio6detail14typeid_wrapperINS0_13epoll_reactorEEE, %object
	.size	_ZTIN4asio6detail14typeid_wrapperINS0_13epoll_reactorEEE, 16
_ZTIN4asio6detail14typeid_wrapperINS0_13epoll_reactorEEE:
	.xword	_ZTVN10__cxxabiv117__class_type_infoE+16
	.xword	_ZTSN4asio6detail14typeid_wrapperINS0_13epoll_reactorEEE
	.weak	_ZTSN4asio6detail14typeid_wrapperINS_22waitable_timer_serviceINSt6chrono3_V212steady_clockENS_11wait_traitsIS5_EEEEEE
	.section	.rodata._ZTSN4asio6detail14typeid_wrapperINS_22waitable_timer_serviceINSt6chrono3_V212steady_clockENS_11wait_traitsIS5_EEEEEE,"aG",@progbits,_ZTSN4asio6detail14typeid_wrapperINS_22waitable_timer_serviceINSt6chrono3_V212steady_clockENS_11wait_traitsIS5_EEEEEE,comdat
	.align	3
	.type	_ZTSN4asio6detail14typeid_wrapperINS_22waitable_timer_serviceINSt6chrono3_V212steady_clockENS_11wait_traitsIS5_EEEEEE, %object
	.size	_ZTSN4asio6detail14typeid_wrapperINS_22waitable_timer_serviceINSt6chrono3_V212steady_clockENS_11wait_traitsIS5_EEEEEE, 114
_ZTSN4asio6detail14typeid_wrapperINS_22waitable_timer_serviceINSt6chrono3_V212steady_clockENS_11wait_traitsIS5_EEEEEE:
	.string	"N4asio6detail14typeid_wrapperINS_22waitable_timer_serviceINSt6chrono3_V212steady_clockENS_11wait_traitsIS5_EEEEEE"
	.weak	_ZTIN4asio6detail14typeid_wrapperINS_22waitable_timer_serviceINSt6chrono3_V212steady_clockENS_11wait_traitsIS5_EEEEEE
	.section	.data.rel.ro._ZTIN4asio6detail14typeid_wrapperINS_22waitable_timer_serviceINSt6chrono3_V212steady_clockENS_11wait_traitsIS5_EEEEEE,"awG",@progbits,_ZTIN4asio6detail14typeid_wrapperINS_22waitable_timer_serviceINSt6chrono3_V212steady_clockENS_11wait_traitsIS5_EEEEEE,comdat
	.align	3
	.type	_ZTIN4asio6detail14typeid_wrapperINS_22waitable_timer_serviceINSt6chrono3_V212steady_clockENS_11wait_traitsIS5_EEEEEE, %object
	.size	_ZTIN4asio6detail14typeid_wrapperINS_22waitable_timer_serviceINSt6chrono3_V212steady_clockENS_11wait_traitsIS5_EEEEEE, 16
_ZTIN4asio6detail14typeid_wrapperINS_22waitable_timer_serviceINSt6chrono3_V212steady_clockENS_11wait_traitsIS5_EEEEEE:
	.xword	_ZTVN10__cxxabiv117__class_type_infoE+16
	.xword	_ZTSN4asio6detail14typeid_wrapperINS_22waitable_timer_serviceINSt6chrono3_V212steady_clockENS_11wait_traitsIS5_EEEEEE
	.weak	_ZTVN4asio6detail15system_categoryE
	.section	.data.rel.ro._ZTVN4asio6detail15system_categoryE,"awG",@progbits,_ZTVN4asio6detail15system_categoryE,comdat
	.align	3
	.type	_ZTVN4asio6detail15system_categoryE, %object
	.size	_ZTVN4asio6detail15system_categoryE, 80
_ZTVN4asio6detail15system_categoryE:
	.xword	0
	.xword	_ZTIN4asio6detail15system_categoryE
	.xword	_ZN4asio6detail15system_categoryD1Ev
	.xword	_ZN4asio6detail15system_categoryD0Ev
	.xword	_ZNK4asio6detail15system_category4nameEv
	.xword	_ZNKSt3_V214error_category10_M_messageB5cxx11Ei
	.xword	_ZNK4asio6detail15system_category7messageB5cxx11Ei
	.xword	_ZNKSt3_V214error_category23default_error_conditionEi
	.xword	_ZNKSt3_V214error_category10equivalentEiRKSt15error_condition
	.xword	_ZNKSt3_V214error_category10equivalentERKSt10error_codei
	.weak	_ZTVN4asio5error6detail14netdb_categoryE
	.section	.data.rel.ro._ZTVN4asio5error6detail14netdb_categoryE,"awG",@progbits,_ZTVN4asio5error6detail14netdb_categoryE,comdat
	.align	3
	.type	_ZTVN4asio5error6detail14netdb_categoryE, %object
	.size	_ZTVN4asio5error6detail14netdb_categoryE, 80
_ZTVN4asio5error6detail14netdb_categoryE:
	.xword	0
	.xword	_ZTIN4asio5error6detail14netdb_categoryE
	.xword	_ZN4asio5error6detail14netdb_categoryD1Ev
	.xword	_ZN4asio5error6detail14netdb_categoryD0Ev
	.xword	_ZNK4asio5error6detail14netdb_category4nameEv
	.xword	_ZNKSt3_V214error_category10_M_messageB5cxx11Ei
	.xword	_ZNK4asio5error6detail14netdb_category7messageB5cxx11Ei
	.xword	_ZNKSt3_V214error_category23default_error_conditionEi
	.xword	_ZNKSt3_V214error_category10equivalentEiRKSt15error_condition
	.xword	_ZNKSt3_V214error_category10equivalentERKSt10error_codei
	.weak	_ZTVN4asio5error6detail17addrinfo_categoryE
	.section	.data.rel.ro._ZTVN4asio5error6detail17addrinfo_categoryE,"awG",@progbits,_ZTVN4asio5error6detail17addrinfo_categoryE,comdat
	.align	3
	.type	_ZTVN4asio5error6detail17addrinfo_categoryE, %object
	.size	_ZTVN4asio5error6detail17addrinfo_categoryE, 80
_ZTVN4asio5error6detail17addrinfo_categoryE:
	.xword	0
	.xword	_ZTIN4asio5error6detail17addrinfo_categoryE
	.xword	_ZN4asio5error6detail17addrinfo_categoryD1Ev
	.xword	_ZN4asio5error6detail17addrinfo_categoryD0Ev
	.xword	_ZNK4asio5error6detail17addrinfo_category4nameEv
	.xword	_ZNKSt3_V214error_category10_M_messageB5cxx11Ei
	.xword	_ZNK4asio5error6detail17addrinfo_category7messageB5cxx11Ei
	.xword	_ZNKSt3_V214error_category23default_error_conditionEi
	.xword	_ZNKSt3_V214error_category10equivalentEiRKSt15error_condition
	.xword	_ZNKSt3_V214error_category10equivalentERKSt10error_codei
	.weak	_ZTVN4asio5error6detail13misc_categoryE
	.section	.data.rel.ro._ZTVN4asio5error6detail13misc_categoryE,"awG",@progbits,_ZTVN4asio5error6detail13misc_categoryE,comdat
	.align	3
	.type	_ZTVN4asio5error6detail13misc_categoryE, %object
	.size	_ZTVN4asio5error6detail13misc_categoryE, 80
_ZTVN4asio5error6detail13misc_categoryE:
	.xword	0
	.xword	_ZTIN4asio5error6detail13misc_categoryE
	.xword	_ZN4asio5error6detail13misc_categoryD1Ev
	.xword	_ZN4asio5error6detail13misc_categoryD0Ev
	.xword	_ZNK4asio5error6detail13misc_category4nameEv
	.xword	_ZNKSt3_V214error_category10_M_messageB5cxx11Ei
	.xword	_ZNK4asio5error6detail13misc_category7messageB5cxx11Ei
	.xword	_ZNKSt3_V214error_category23default_error_conditionEi
	.xword	_ZNKSt3_V214error_category10equivalentEiRKSt15error_condition
	.xword	_ZNKSt3_V214error_category10equivalentERKSt10error_codei
	.weak	_ZTVN4asio6detail13epoll_reactorE
	.section	.data.rel.ro._ZTVN4asio6detail13epoll_reactorE,"awG",@progbits,_ZTVN4asio6detail13epoll_reactorE,comdat
	.align	3
	.type	_ZTVN4asio6detail13epoll_reactorE, %object
	.size	_ZTVN4asio6detail13epoll_reactorE, 48
_ZTVN4asio6detail13epoll_reactorE:
	.xword	0
	.xword	_ZTIN4asio6detail13epoll_reactorE
	.xword	_ZN4asio6detail13epoll_reactorD1Ev
	.xword	_ZN4asio6detail13epoll_reactorD0Ev
	.xword	_ZN4asio6detail13epoll_reactor16shutdown_serviceEv
	.xword	_ZN4asio6detail13epoll_reactor12fork_serviceENS_10io_service10fork_eventE
	.weak	_ZTVN4asio6detail11timer_queueINS0_18chrono_time_traitsINSt6chrono3_V212steady_clockENS_11wait_traitsIS5_EEEEEE
	.section	.data.rel.ro._ZTVN4asio6detail11timer_queueINS0_18chrono_time_traitsINSt6chrono3_V212steady_clockENS_11wait_traitsIS5_EEEEEE,"awG",@progbits,_ZTVN4asio6detail11timer_queueINS0_18chrono_time_traitsINSt6chrono3_V212steady_clockENS_11wait_traitsIS5_EEEEEE,comdat
	.align	3
	.type	_ZTVN4asio6detail11timer_queueINS0_18chrono_time_traitsINSt6chrono3_V212steady_clockENS_11wait_traitsIS5_EEEEEE, %object
	.size	_ZTVN4asio6detail11timer_queueINS0_18chrono_time_traitsINSt6chrono3_V212steady_clockENS_11wait_traitsIS5_EEEEEE, 72
_ZTVN4asio6detail11timer_queueINS0_18chrono_time_traitsINSt6chrono3_V212steady_clockENS_11wait_traitsIS5_EEEEEE:
	.xword	0
	.xword	_ZTIN4asio6detail11timer_queueINS0_18chrono_time_traitsINSt6chrono3_V212steady_clockENS_11wait_traitsIS5_EEEEEE
	.xword	_ZN4asio6detail11timer_queueINS0_18chrono_time_traitsINSt6chrono3_V212steady_clockENS_11wait_traitsIS5_EEEEED1Ev
	.xword	_ZN4asio6detail11timer_queueINS0_18chrono_time_traitsINSt6chrono3_V212steady_clockENS_11wait_traitsIS5_EEEEED0Ev
	.xword	_ZNK4asio6detail11timer_queueINS0_18chrono_time_traitsINSt6chrono3_V212steady_clockENS_11wait_traitsIS5_EEEEE5emptyEv
	.xword	_ZNK4asio6detail11timer_queueINS0_18chrono_time_traitsINSt6chrono3_V212steady_clockENS_11wait_traitsIS5_EEEEE18wait_duration_msecEl
	.xword	_ZNK4asio6detail11timer_queueINS0_18chrono_time_traitsINSt6chrono3_V212steady_clockENS_11wait_traitsIS5_EEEEE18wait_duration_usecEl
	.xword	_ZN4asio6detail11timer_queueINS0_18chrono_time_traitsINSt6chrono3_V212steady_clockENS_11wait_traitsIS5_EEEEE16get_ready_timersERNS0_8op_queueINS0_25task_io_service_operationEEE
	.xword	_ZN4asio6detail11timer_queueINS0_18chrono_time_traitsINSt6chrono3_V212steady_clockENS_11wait_traitsIS5_EEEEE14get_all_timersERNS0_8op_queueINS0_25task_io_service_operationEEE
	.weak	_ZTVN4asio22waitable_timer_serviceINSt6chrono3_V212steady_clockENS_11wait_traitsIS3_EEEE
	.section	.data.rel.ro._ZTVN4asio22waitable_timer_serviceINSt6chrono3_V212steady_clockENS_11wait_traitsIS3_EEEE,"awG",@progbits,_ZTVN4asio22waitable_timer_serviceINSt6chrono3_V212steady_clockENS_11wait_traitsIS3_EEEE,comdat
	.align	3
	.type	_ZTVN4asio22waitable_timer_serviceINSt6chrono3_V212steady_clockENS_11wait_traitsIS3_EEEE, %object
	.size	_ZTVN4asio22waitable_timer_serviceINSt6chrono3_V212steady_clockENS_11wait_traitsIS3_EEEE, 48
_ZTVN4asio22waitable_timer_serviceINSt6chrono3_V212steady_clockENS_11wait_traitsIS3_EEEE:
	.xword	0
	.xword	_ZTIN4asio22waitable_timer_serviceINSt6chrono3_V212steady_clockENS_11wait_traitsIS3_EEEE
	.xword	_ZN4asio22waitable_timer_serviceINSt6chrono3_V212steady_clockENS_11wait_traitsIS3_EEED1Ev
	.xword	_ZN4asio22waitable_timer_serviceINSt6chrono3_V212steady_clockENS_11wait_traitsIS3_EEED0Ev
	.xword	_ZN4asio22waitable_timer_serviceINSt6chrono3_V212steady_clockENS_11wait_traitsIS3_EEE16shutdown_serviceEv
	.xword	_ZN4asio10io_service7service12fork_serviceENS0_10fork_eventE
	.weak	_ZGVZN4asio5error17get_misc_categoryEvE8instance
	.section	.bss._ZGVZN4asio5error17get_misc_categoryEvE8instance,"awG",@nobits,_ZGVZN4asio5error17get_misc_categoryEvE8instance,comdat
	.align	3
	.type	_ZGVZN4asio5error17get_misc_categoryEvE8instance, %gnu_unique_object
	.size	_ZGVZN4asio5error17get_misc_categoryEvE8instance, 8
_ZGVZN4asio5error17get_misc_categoryEvE8instance:
	.zero	8
	.weak	_ZZN4asio5error17get_misc_categoryEvE8instance
	.section	.data.rel._ZZN4asio5error17get_misc_categoryEvE8instance,"awG",@progbits,_ZZN4asio5error17get_misc_categoryEvE8instance,comdat
	.align	3
	.type	_ZZN4asio5error17get_misc_categoryEvE8instance, %gnu_unique_object
	.size	_ZZN4asio5error17get_misc_categoryEvE8instance, 8
_ZZN4asio5error17get_misc_categoryEvE8instance:
	.xword	_ZTVN4asio5error6detail13misc_categoryE+16
	.weak	_ZGVZN4asio5error21get_addrinfo_categoryEvE8instance
	.section	.bss._ZGVZN4asio5error21get_addrinfo_categoryEvE8instance,"awG",@nobits,_ZGVZN4asio5error21get_addrinfo_categoryEvE8instance,comdat
	.align	3
	.type	_ZGVZN4asio5error21get_addrinfo_categoryEvE8instance, %gnu_unique_object
	.size	_ZGVZN4asio5error21get_addrinfo_categoryEvE8instance, 8
_ZGVZN4asio5error21get_addrinfo_categoryEvE8instance:
	.zero	8
	.weak	_ZZN4asio5error21get_addrinfo_categoryEvE8instance
	.section	.data.rel._ZZN4asio5error21get_addrinfo_categoryEvE8instance,"awG",@progbits,_ZZN4asio5error21get_addrinfo_categoryEvE8instance,comdat
	.align	3
	.type	_ZZN4asio5error21get_addrinfo_categoryEvE8instance, %gnu_unique_object
	.size	_ZZN4asio5error21get_addrinfo_categoryEvE8instance, 8
_ZZN4asio5error21get_addrinfo_categoryEvE8instance:
	.xword	_ZTVN4asio5error6detail17addrinfo_categoryE+16
	.weak	_ZGVZN4asio5error18get_netdb_categoryEvE8instance
	.section	.bss._ZGVZN4asio5error18get_netdb_categoryEvE8instance,"awG",@nobits,_ZGVZN4asio5error18get_netdb_categoryEvE8instance,comdat
	.align	3
	.type	_ZGVZN4asio5error18get_netdb_categoryEvE8instance, %gnu_unique_object
	.size	_ZGVZN4asio5error18get_netdb_categoryEvE8instance, 8
_ZGVZN4asio5error18get_netdb_categoryEvE8instance:
	.zero	8
	.weak	_ZZN4asio5error18get_netdb_categoryEvE8instance
	.section	.data.rel._ZZN4asio5error18get_netdb_categoryEvE8instance,"awG",@progbits,_ZZN4asio5error18get_netdb_categoryEvE8instance,comdat
	.align	3
	.type	_ZZN4asio5error18get_netdb_categoryEvE8instance, %gnu_unique_object
	.size	_ZZN4asio5error18get_netdb_categoryEvE8instance, 8
_ZZN4asio5error18get_netdb_categoryEvE8instance:
	.xword	_ZTVN4asio5error6detail14netdb_categoryE+16
	.weak	_ZGVZN4asio15system_categoryEvE8instance
	.section	.bss._ZGVZN4asio15system_categoryEvE8instance,"awG",@nobits,_ZGVZN4asio15system_categoryEvE8instance,comdat
	.align	3
	.type	_ZGVZN4asio15system_categoryEvE8instance, %gnu_unique_object
	.size	_ZGVZN4asio15system_categoryEvE8instance, 8
_ZGVZN4asio15system_categoryEvE8instance:
	.zero	8
	.weak	_ZZN4asio15system_categoryEvE8instance
	.section	.data.rel._ZZN4asio15system_categoryEvE8instance,"awG",@progbits,_ZZN4asio15system_categoryEvE8instance,comdat
	.align	3
	.type	_ZZN4asio15system_categoryEvE8instance, %gnu_unique_object
	.size	_ZZN4asio15system_categoryEvE8instance, 8
_ZZN4asio15system_categoryEvE8instance:
	.xword	_ZTVN4asio6detail15system_categoryE+16
	.section	.rodata
	.align	3
	.type	_ZTSNSt6thread11_State_implINS_8_InvokerISt5tupleIJZN7asiopal10ThreadPoolC4ERKN7openpal6LoggerERKSt10shared_ptrINS3_2IOEEjSt8functionIFvvEESG_EUlvE0_EEEEEE, %object
	.size	_ZTSNSt6thread11_State_implINS_8_InvokerISt5tupleIJZN7asiopal10ThreadPoolC4ERKN7openpal6LoggerERKSt10shared_ptrINS3_2IOEEjSt8functionIFvvEESG_EUlvE0_EEEEEE, 153
_ZTSNSt6thread11_State_implINS_8_InvokerISt5tupleIJZN7asiopal10ThreadPoolC4ERKN7openpal6LoggerERKSt10shared_ptrINS3_2IOEEjSt8functionIFvvEESG_EUlvE0_EEEEEE:
	.string	"*NSt6thread11_State_implINS_8_InvokerISt5tupleIJZN7asiopal10ThreadPoolC4ERKN7openpal6LoggerERKSt10shared_ptrINS3_2IOEEjSt8functionIFvvEESG_EUlvE0_EEEEEE"
	.section	.data.rel.ro,"aw"
	.align	3
	.type	_ZTINSt6thread11_State_implINS_8_InvokerISt5tupleIJZN7asiopal10ThreadPoolC4ERKN7openpal6LoggerERKSt10shared_ptrINS3_2IOEEjSt8functionIFvvEESG_EUlvE0_EEEEEE, %object
	.size	_ZTINSt6thread11_State_implINS_8_InvokerISt5tupleIJZN7asiopal10ThreadPoolC4ERKN7openpal6LoggerERKSt10shared_ptrINS3_2IOEEjSt8functionIFvvEESG_EUlvE0_EEEEEE, 24
_ZTINSt6thread11_State_implINS_8_InvokerISt5tupleIJZN7asiopal10ThreadPoolC4ERKN7openpal6LoggerERKSt10shared_ptrINS3_2IOEEjSt8functionIFvvEESG_EUlvE0_EEEEEE:
	.xword	_ZTVN10__cxxabiv120__si_class_type_infoE+16
	.xword	_ZTSNSt6thread11_State_implINS_8_InvokerISt5tupleIJZN7asiopal10ThreadPoolC4ERKN7openpal6LoggerERKSt10shared_ptrINS3_2IOEEjSt8functionIFvvEESG_EUlvE0_EEEEEE
	.xword	_ZTINSt6thread6_StateE
	.section	.data.rel.ro.local,"aw"
	.align	3
	.set	.LANCHOR0,. + 0
	.type	_ZTVNSt6thread11_State_implINS_8_InvokerISt5tupleIJZN7asiopal10ThreadPoolC4ERKN7openpal6LoggerERKSt10shared_ptrINS3_2IOEEjSt8functionIFvvEESG_EUlvE0_EEEEEE, %object
	.size	_ZTVNSt6thread11_State_implINS_8_InvokerISt5tupleIJZN7asiopal10ThreadPoolC4ERKN7openpal6LoggerERKSt10shared_ptrINS3_2IOEEjSt8functionIFvvEESG_EUlvE0_EEEEEE, 40
_ZTVNSt6thread11_State_implINS_8_InvokerISt5tupleIJZN7asiopal10ThreadPoolC4ERKN7openpal6LoggerERKSt10shared_ptrINS3_2IOEEjSt8functionIFvvEESG_EUlvE0_EEEEEE:
	.xword	0
	.xword	_ZTINSt6thread11_State_implINS_8_InvokerISt5tupleIJZN7asiopal10ThreadPoolC4ERKN7openpal6LoggerERKSt10shared_ptrINS3_2IOEEjSt8functionIFvvEESG_EUlvE0_EEEEEE
	.xword	_ZNSt6thread11_State_implINS_8_InvokerISt5tupleIJZN7asiopal10ThreadPoolC4ERKN7openpal6LoggerERKSt10shared_ptrINS3_2IOEEjSt8functionIFvvEESG_EUlvE0_EEEEED1Ev
	.xword	_ZNSt6thread11_State_implINS_8_InvokerISt5tupleIJZN7asiopal10ThreadPoolC4ERKN7openpal6LoggerERKSt10shared_ptrINS3_2IOEEjSt8functionIFvvEESG_EUlvE0_EEEEED0Ev
	.xword	_ZNSt6thread11_State_implINS_8_InvokerISt5tupleIJZN7asiopal10ThreadPoolC4ERKN7openpal6LoggerERKSt10shared_ptrINS3_2IOEEjSt8functionIFvvEESG_EUlvE0_EEEEE6_M_runEv
	.hidden	DW.ref.__gxx_personality_v0
	.weak	DW.ref.__gxx_personality_v0
	.section	.data.rel.local.DW.ref.__gxx_personality_v0,"awG",@progbits,DW.ref.__gxx_personality_v0,comdat
	.align	3
	.type	DW.ref.__gxx_personality_v0, %object
	.size	DW.ref.__gxx_personality_v0, 8
DW.ref.__gxx_personality_v0:
	.xword	__gxx_personality_v0
	.hidden	__dso_handle
	.ident	"GCC: (Ubuntu 11.4.0-1ubuntu1~22.04) 11.4.0"
	.section	.note.GNU-stack,"",@progbits
