	.arch armv8-a
	.file	"SecurityStat.cpp"
	.text
	.align	2
	.p2align 4,,11
	.global	_ZN8opendnp312SecurityStatC2Ev
	.type	_ZN8opendnp312SecurityStatC2Ev, %function
_ZN8opendnp312SecurityStatC2Ev:
.LFB29:
	.cfi_startproc
	mov	w1, 2
	strb	w1, [x0]
	strh	wzr, [x0, 4]
	str	wzr, [x0, 8]
	str	xzr, [x0, 16]
	ret
	.cfi_endproc
.LFE29:
	.size	_ZN8opendnp312SecurityStatC2Ev, .-_ZN8opendnp312SecurityStatC2Ev
	.global	_ZN8opendnp312SecurityStatC1Ev
	.set	_ZN8opendnp312SecurityStatC1Ev,_ZN8opendnp312SecurityStatC2Ev
	.align	2
	.p2align 4,,11
	.global	_ZN8opendnp312SecurityStatC2ENS0_5ValueEhN7openpal10UInt48TypeE
	.type	_ZN8opendnp312SecurityStatC2ENS0_5ValueEhN7openpal10UInt48TypeE, %function
_ZN8opendnp312SecurityStatC2ENS0_5ValueEhN7openpal10UInt48TypeE:
.LFB32:
	.cfi_startproc
	strb	w2, [x0]
	str	x1, [x0, 4]
	str	x3, [x0, 16]
	ret
	.cfi_endproc
.LFE32:
	.size	_ZN8opendnp312SecurityStatC2ENS0_5ValueEhN7openpal10UInt48TypeE, .-_ZN8opendnp312SecurityStatC2ENS0_5ValueEhN7openpal10UInt48TypeE
	.global	_ZN8opendnp312SecurityStatC1ENS0_5ValueEhN7openpal10UInt48TypeE
	.set	_ZN8opendnp312SecurityStatC1ENS0_5ValueEhN7openpal10UInt48TypeE,_ZN8opendnp312SecurityStatC2ENS0_5ValueEhN7openpal10UInt48TypeE
	.align	2
	.p2align 4,,11
	.global	_ZN8opendnp312SecurityStatC2Ehtj
	.type	_ZN8opendnp312SecurityStatC2Ehtj, %function
_ZN8opendnp312SecurityStatC2Ehtj:
.LFB35:
	.cfi_startproc
	strb	w1, [x0]
	strh	w2, [x0, 4]
	str	w3, [x0, 8]
	str	xzr, [x0, 16]
	ret
	.cfi_endproc
.LFE35:
	.size	_ZN8opendnp312SecurityStatC2Ehtj, .-_ZN8opendnp312SecurityStatC2Ehtj
	.global	_ZN8opendnp312SecurityStatC1Ehtj
	.set	_ZN8opendnp312SecurityStatC1Ehtj,_ZN8opendnp312SecurityStatC2Ehtj
	.align	2
	.p2align 4,,11
	.global	_ZN8opendnp312SecurityStatC2EhtjN7openpal10UInt48TypeE
	.type	_ZN8opendnp312SecurityStatC2EhtjN7openpal10UInt48TypeE, %function
_ZN8opendnp312SecurityStatC2EhtjN7openpal10UInt48TypeE:
.LFB38:
	.cfi_startproc
	strb	w1, [x0]
	strh	w2, [x0, 4]
	str	w3, [x0, 8]
	str	x4, [x0, 16]
	ret
	.cfi_endproc
.LFE38:
	.size	_ZN8opendnp312SecurityStatC2EhtjN7openpal10UInt48TypeE, .-_ZN8opendnp312SecurityStatC2EhtjN7openpal10UInt48TypeE
	.global	_ZN8opendnp312SecurityStatC1EhtjN7openpal10UInt48TypeE
	.set	_ZN8opendnp312SecurityStatC1EhtjN7openpal10UInt48TypeE,_ZN8opendnp312SecurityStatC2EhtjN7openpal10UInt48TypeE
	.ident	"GCC: (Ubuntu 11.4.0-1ubuntu1~22.04) 11.4.0"
	.section	.note.GNU-stack,"",@progbits
