	.arch armv8-a
	.file	"AssignClassTask.cpp"
	.text
	.section	.text._ZN8opendnp318IMasterApplication24AssignClassDuringStartupEv,"axG",@progbits,_ZN8opendnp318IMasterApplication24AssignClassDuringStartupEv,comdat
	.align	2
	.p2align 4,,11
	.weak	_ZN8opendnp318IMasterApplication24AssignClassDuringStartupEv
	.type	_ZN8opendnp318IMasterApplication24AssignClassDuringStartupEv, %function
_ZN8opendnp318IMasterApplication24AssignClassDuringStartupEv:
.LFB2446:
	.cfi_startproc
	mov	w0, 0
	ret
	.cfi_endproc
.LFE2446:
	.size	_ZN8opendnp318IMasterApplication24AssignClassDuringStartupEv, .-_ZN8opendnp318IMasterApplication24AssignClassDuringStartupEv
	.section	.text._ZN8opendnp318IMasterApplication27ConfigureAssignClassRequestERKSt8functionIFvRKNS_6HeaderEEE,"axG",@progbits,_ZN8opendnp318IMasterApplication27ConfigureAssignClassRequestERKSt8functionIFvRKNS_6HeaderEEE,comdat
	.align	2
	.p2align 4,,11
	.weak	_ZN8opendnp318IMasterApplication27ConfigureAssignClassRequestERKSt8functionIFvRKNS_6HeaderEEE
	.type	_ZN8opendnp318IMasterApplication27ConfigureAssignClassRequestERKSt8functionIFvRKNS_6HeaderEEE, %function
_ZN8opendnp318IMasterApplication27ConfigureAssignClassRequestERKSt8functionIFvRKNS_6HeaderEEE:
.LFB2447:
	.cfi_startproc
	ret
	.cfi_endproc
.LFE2447:
	.size	_ZN8opendnp318IMasterApplication27ConfigureAssignClassRequestERKSt8functionIFvRKNS_6HeaderEEE, .-_ZN8opendnp318IMasterApplication27ConfigureAssignClassRequestERKSt8functionIFvRKNS_6HeaderEEE
	.section	.text._ZNK8opendnp311IMasterTask10IsAuthTaskEv,"axG",@progbits,_ZNK8opendnp311IMasterTask10IsAuthTaskEv,comdat
	.align	2
	.p2align 4,,11
	.weak	_ZNK8opendnp311IMasterTask10IsAuthTaskEv
	.type	_ZNK8opendnp311IMasterTask10IsAuthTaskEv, %function
_ZNK8opendnp311IMasterTask10IsAuthTaskEv:
.LFB2455:
	.cfi_startproc
	mov	w0, 0
	ret
	.cfi_endproc
.LFE2455:
	.size	_ZNK8opendnp311IMasterTask10IsAuthTaskEv, .-_ZNK8opendnp311IMasterTask10IsAuthTaskEv
	.section	.text._ZN8opendnp311IMasterTask10InitializeEv,"axG",@progbits,_ZN8opendnp311IMasterTask10InitializeEv,comdat
	.align	2
	.p2align 4,,11
	.weak	_ZN8opendnp311IMasterTask10InitializeEv
	.type	_ZN8opendnp311IMasterTask10InitializeEv, %function
_ZN8opendnp311IMasterTask10InitializeEv:
.LFB2456:
	.cfi_startproc
	ret
	.cfi_endproc
.LFE2456:
	.size	_ZN8opendnp311IMasterTask10InitializeEv, .-_ZN8opendnp311IMasterTask10InitializeEv
	.section	.rodata._ZNK8opendnp315AssignClassTask4NameEv.str1.8,"aMS",@progbits,1
	.align	3
.LC0:
	.string	"Assign Class"
	.section	.text._ZNK8opendnp315AssignClassTask4NameEv,"axG",@progbits,_ZNK8opendnp315AssignClassTask4NameEv,comdat
	.align	2
	.p2align 4,,11
	.weak	_ZNK8opendnp315AssignClassTask4NameEv
	.type	_ZNK8opendnp315AssignClassTask4NameEv, %function
_ZNK8opendnp315AssignClassTask4NameEv:
.LFB2457:
	.cfi_startproc
	adrp	x0, .LC0
	add	x0, x0, :lo12:.LC0
	ret
	.cfi_endproc
.LFE2457:
	.size	_ZNK8opendnp315AssignClassTask4NameEv, .-_ZNK8opendnp315AssignClassTask4NameEv
	.section	.text._ZNK8opendnp315AssignClassTask11IsRecurringEv,"axG",@progbits,_ZNK8opendnp315AssignClassTask11IsRecurringEv,comdat
	.align	2
	.p2align 4,,11
	.weak	_ZNK8opendnp315AssignClassTask11IsRecurringEv
	.type	_ZNK8opendnp315AssignClassTask11IsRecurringEv, %function
_ZNK8opendnp315AssignClassTask11IsRecurringEv:
.LFB2458:
	.cfi_startproc
	mov	w0, 1
	ret
	.cfi_endproc
.LFE2458:
	.size	_ZNK8opendnp315AssignClassTask11IsRecurringEv, .-_ZNK8opendnp315AssignClassTask11IsRecurringEv
	.section	.text._ZNK8opendnp315AssignClassTask8PriorityEv,"axG",@progbits,_ZNK8opendnp315AssignClassTask8PriorityEv,comdat
	.align	2
	.p2align 4,,11
	.weak	_ZNK8opendnp315AssignClassTask8PriorityEv
	.type	_ZNK8opendnp315AssignClassTask8PriorityEv, %function
_ZNK8opendnp315AssignClassTask8PriorityEv:
.LFB2459:
	.cfi_startproc
	mov	w0, 140
	ret
	.cfi_endproc
.LFE2459:
	.size	_ZNK8opendnp315AssignClassTask8PriorityEv, .-_ZNK8opendnp315AssignClassTask8PriorityEv
	.section	.text._ZNK8opendnp315AssignClassTask19BlocksLowerPriorityEv,"axG",@progbits,_ZNK8opendnp315AssignClassTask19BlocksLowerPriorityEv,comdat
	.align	2
	.p2align 4,,11
	.weak	_ZNK8opendnp315AssignClassTask19BlocksLowerPriorityEv
	.type	_ZNK8opendnp315AssignClassTask19BlocksLowerPriorityEv, %function
_ZNK8opendnp315AssignClassTask19BlocksLowerPriorityEv:
.LFB2460:
	.cfi_startproc
	mov	w0, 1
	ret
	.cfi_endproc
.LFE2460:
	.size	_ZNK8opendnp315AssignClassTask19BlocksLowerPriorityEv, .-_ZNK8opendnp315AssignClassTask19BlocksLowerPriorityEv
	.section	.text._ZNK8opendnp315AssignClassTask11GetTaskTypeEv,"axG",@progbits,_ZNK8opendnp315AssignClassTask11GetTaskTypeEv,comdat
	.align	2
	.p2align 4,,11
	.weak	_ZNK8opendnp315AssignClassTask11GetTaskTypeEv
	.type	_ZNK8opendnp315AssignClassTask11GetTaskTypeEv, %function
_ZNK8opendnp315AssignClassTask11GetTaskTypeEv:
.LFB2461:
	.cfi_startproc
	mov	w0, 2
	ret
	.cfi_endproc
.LFE2461:
	.size	_ZNK8opendnp315AssignClassTask11GetTaskTypeEv, .-_ZNK8opendnp315AssignClassTask11GetTaskTypeEv
	.text
	.align	2
	.p2align 4,,11
	.type	_ZNSt17_Function_handlerIFvRKN8opendnp36HeaderEEZNS0_15AssignClassTask12BuildRequestERNS0_11APDURequestEhEUlS3_E_E9_M_invokeERKSt9_Any_dataS3_, %function
_ZNSt17_Function_handlerIFvRKN8opendnp36HeaderEEZNS0_15AssignClassTask12BuildRequestERNS0_11APDURequestEhEUlS3_E_E9_M_invokeERKSt9_Any_dataS3_:
.LFB2881:
	.cfi_startproc
	stp	x29, x30, [sp, -32]!
	.cfi_def_cfa_offset 32
	.cfi_offset 29, -32
	.cfi_offset 30, -24
	mov	x29, sp
	str	x19, [sp, 16]
	.cfi_offset 19, -16
	mov	x19, x0
	mov	x0, x1
	ldr	x1, [x19, 8]
	bl	_ZNK8opendnp36Header7WriteToERNS_12HeaderWriterE
	ldr	x1, [x19]
	ldr	x19, [sp, 16]
	ldrb	w2, [x1]
	and	w0, w0, w2
	strb	w0, [x1]
	ldp	x29, x30, [sp], 32
	.cfi_restore 30
	.cfi_restore 29
	.cfi_restore 19
	.cfi_def_cfa_offset 0
	ret
	.cfi_endproc
.LFE2881:
	.size	_ZNSt17_Function_handlerIFvRKN8opendnp36HeaderEEZNS0_15AssignClassTask12BuildRequestERNS0_11APDURequestEhEUlS3_E_E9_M_invokeERKSt9_Any_dataS3_, .-_ZNSt17_Function_handlerIFvRKN8opendnp36HeaderEEZNS0_15AssignClassTask12BuildRequestERNS0_11APDURequestEhEUlS3_E_E9_M_invokeERKSt9_Any_dataS3_
	.align	2
	.p2align 4,,11
	.global	_ZN8opendnp315AssignClassTask15ProcessResponseERKNS_18APDUResponseHeaderERKN7openpal6RSliceE
	.type	_ZN8opendnp315AssignClassTask15ProcessResponseERKNS_18APDUResponseHeaderERKN7openpal6RSliceE, %function
_ZN8opendnp315AssignClassTask15ProcessResponseERKNS_18APDUResponseHeaderERKN7openpal6RSliceE:
.LFB2473:
	.cfi_startproc
	stp	x29, x30, [sp, -16]!
	.cfi_def_cfa_offset 16
	.cfi_offset 29, -16
	.cfi_offset 30, -8
	mov	x29, sp
	bl	_ZN8opendnp311IMasterTask20ValidateNullResponseERKNS_18APDUResponseHeaderERKN7openpal6RSliceE
	ubfiz	w0, w0, 1, 7
	ldp	x29, x30, [sp], 16
	.cfi_restore 30
	.cfi_restore 29
	.cfi_def_cfa_offset 0
	ret
	.cfi_endproc
.LFE2473:
	.size	_ZN8opendnp315AssignClassTask15ProcessResponseERKNS_18APDUResponseHeaderERKN7openpal6RSliceE, .-_ZN8opendnp315AssignClassTask15ProcessResponseERKNS_18APDUResponseHeaderERKN7openpal6RSliceE
	.section	.text._ZN8opendnp315AssignClassTaskD2Ev,"axG",@progbits,_ZN8opendnp315AssignClassTaskD5Ev,comdat
	.align	2
	.p2align 4,,11
	.weak	_ZN8opendnp315AssignClassTaskD2Ev
	.type	_ZN8opendnp315AssignClassTaskD2Ev, %function
_ZN8opendnp315AssignClassTaskD2Ev:
.LFB3134:
	.cfi_startproc
	adrp	x1, :got:_ZTVN8opendnp315AssignClassTaskE
	ldr	x1, [x1, #:got_lo12:_ZTVN8opendnp315AssignClassTaskE]
	add	x1, x1, 16
	str	x1, [x0]
	b	_ZN8opendnp311IMasterTaskD2Ev
	.cfi_endproc
.LFE3134:
	.size	_ZN8opendnp315AssignClassTaskD2Ev, .-_ZN8opendnp315AssignClassTaskD2Ev
	.weak	_ZN8opendnp315AssignClassTaskD1Ev
	.set	_ZN8opendnp315AssignClassTaskD1Ev,_ZN8opendnp315AssignClassTaskD2Ev
	.section	.text._ZN8opendnp315AssignClassTaskD0Ev,"axG",@progbits,_ZN8opendnp315AssignClassTaskD5Ev,comdat
	.align	2
	.p2align 4,,11
	.weak	_ZN8opendnp315AssignClassTaskD0Ev
	.type	_ZN8opendnp315AssignClassTaskD0Ev, %function
_ZN8opendnp315AssignClassTaskD0Ev:
.LFB3136:
	.cfi_startproc
	stp	x29, x30, [sp, -32]!
	.cfi_def_cfa_offset 32
	.cfi_offset 29, -32
	.cfi_offset 30, -24
	adrp	x1, :got:_ZTVN8opendnp315AssignClassTaskE
	mov	x29, sp
	ldr	x1, [x1, #:got_lo12:_ZTVN8opendnp315AssignClassTaskE]
	str	x19, [sp, 16]
	.cfi_offset 19, -16
	mov	x19, x0
	add	x1, x1, 16
	str	x1, [x0]
	bl	_ZN8opendnp311IMasterTaskD2Ev
	mov	x0, x19
	mov	x1, 96
	ldr	x19, [sp, 16]
	ldp	x29, x30, [sp], 32
	.cfi_restore 30
	.cfi_restore 29
	.cfi_restore 19
	.cfi_def_cfa_offset 0
	b	_ZdlPvm
	.cfi_endproc
.LFE3136:
	.size	_ZN8opendnp315AssignClassTaskD0Ev, .-_ZN8opendnp315AssignClassTaskD0Ev
	.text
	.align	2
	.p2align 4,,11
	.global	_ZN8opendnp315AssignClassTask14OnTaskCompleteENS_14TaskCompletionEN7openpal18MonotonicTimestampE
	.type	_ZN8opendnp315AssignClassTask14OnTaskCompleteENS_14TaskCompletionEN7openpal18MonotonicTimestampE, %function
_ZN8opendnp315AssignClassTask14OnTaskCompleteENS_14TaskCompletionEN7openpal18MonotonicTimestampE:
.LFB2474:
	.cfi_startproc
	stp	x29, x30, [sp, -48]!
	.cfi_def_cfa_offset 48
	.cfi_offset 29, -48
	.cfi_offset 30, -40
	adrp	x3, :got:__stack_chk_guard
	and	w1, w1, 255
	mov	x29, sp
	ldr	x3, [x3, #:got_lo12:__stack_chk_guard]
	str	x2, [sp, 24]
	ldr	x2, [x3]
	str	x2, [sp, 40]
	mov	x2, 0
	cmp	w1, 2
	beq	.L19
	cmp	w1, 255
	bne	.L20
	mov	x1, 0
	add	x0, sp, 32
	bl	_ZN7openpal18MonotonicTimestampC1El
	ldr	x1, [sp, 32]
.L21:
	adrp	x2, :got:__stack_chk_guard
	mov	x0, 0
	ldr	x2, [x2, #:got_lo12:__stack_chk_guard]
	ldr	x4, [sp, 40]
	ldr	x3, [x2]
	subs	x4, x4, x3
	mov	x3, 0
	bne	.L24
	ldp	x29, x30, [sp], 48
	.cfi_remember_state
	.cfi_restore 30
	.cfi_restore 29
	.cfi_def_cfa_offset 0
	ret
	.p2align 2,,3
.L19:
	.cfi_restore_state
	add	x1, x0, 88
	add	x0, sp, 24
	bl	_ZNK7openpal18MonotonicTimestamp3AddERKNS_12TimeDurationE
	mov	x1, x0
	b	.L21
	.p2align 2,,3
.L20:
	bl	_ZN7openpal18MonotonicTimestamp3MaxEv
	mov	x1, x0
	b	.L21
.L24:
	bl	__stack_chk_fail
	.cfi_endproc
.LFE2474:
	.size	_ZN8opendnp315AssignClassTask14OnTaskCompleteENS_14TaskCompletionEN7openpal18MonotonicTimestampE, .-_ZN8opendnp315AssignClassTask14OnTaskCompleteENS_14TaskCompletionEN7openpal18MonotonicTimestampE
	.align	2
	.p2align 4,,11
	.type	_ZNSt17_Function_handlerIFvRKN8opendnp36HeaderEEZNS0_15AssignClassTask12BuildRequestERNS0_11APDURequestEhEUlS3_E_E10_M_managerERSt9_Any_dataRKSA_St18_Manager_operation, %function
_ZNSt17_Function_handlerIFvRKN8opendnp36HeaderEEZNS0_15AssignClassTask12BuildRequestERNS0_11APDURequestEhEUlS3_E_E10_M_managerERSt9_Any_dataRKSA_St18_Manager_operation:
.LFB2883:
	.cfi_startproc
	cbz	w2, .L26
	cmp	w2, 1
	beq	.L27
	cmp	w2, 2
	beq	.L31
.L29:
	mov	w0, 0
	ret
	.p2align 2,,3
.L26:
	adrp	x1, .LANCHOR0
	add	x1, x1, :lo12:.LANCHOR0
	str	x1, [x0]
	mov	w0, 0
	ret
	.p2align 2,,3
.L27:
	str	x1, [x0]
	mov	w0, 0
	ret
	.p2align 2,,3
.L31:
	ldp	x2, x3, [x1]
	stp	x2, x3, [x0]
	b	.L29
	.cfi_endproc
.LFE2883:
	.size	_ZNSt17_Function_handlerIFvRKN8opendnp36HeaderEEZNS0_15AssignClassTask12BuildRequestERNS0_11APDURequestEhEUlS3_E_E10_M_managerERSt9_Any_dataRKSA_St18_Manager_operation, .-_ZNSt17_Function_handlerIFvRKN8opendnp36HeaderEEZNS0_15AssignClassTask12BuildRequestERNS0_11APDURequestEhEUlS3_E_E10_M_managerERSt9_Any_dataRKSA_St18_Manager_operation
	.align	2
	.p2align 4,,11
	.global	_ZN8opendnp315AssignClassTask12BuildRequestERNS_11APDURequestEh
	.type	_ZN8opendnp315AssignClassTask12BuildRequestERNS_11APDURequestEh, %function
_ZN8opendnp315AssignClassTask12BuildRequestERNS_11APDURequestEh:
.LFB2465:
	.cfi_startproc
	.cfi_personality 0x9b,DW.ref.__gxx_personality_v0
	.cfi_lsda 0x1b,.LLSDA2465
	stp	x29, x30, [sp, -128]!
	.cfi_def_cfa_offset 128
	.cfi_offset 29, -128
	.cfi_offset 30, -120
	adrp	x3, :got:__stack_chk_guard
	mov	w5, w2
	mov	x29, sp
	ldr	x3, [x3, #:got_lo12:__stack_chk_guard]
	stp	x19, x20, [sp, 16]
	.cfi_offset 19, -112
	.cfi_offset 20, -104
	add	x19, sp, 56
	stp	x21, x22, [sp, 32]
	.cfi_offset 21, -96
	.cfi_offset 22, -88
	mov	x22, x0
	mov	w2, 1
	ldr	x0, [x3]
	str	x0, [sp, 120]
	mov	x0, 0
	mov	w4, 0
	mov	w3, 0
	mov	x20, x1
	mov	x0, x19
	mov	w1, w2
.LEHB0:
	bl	_ZN8opendnp315AppControlFieldC1Ebbbbh
	add	x21, sp, 88
	ldr	x1, [sp, 56]
	mov	x0, x20
	bl	_ZN8opendnp311APDUWrapper10SetControlENS_15AppControlFieldE
	mov	w1, 22
	mov	x0, x20
	bl	_ZN8opendnp311APDUWrapper11SetFunctionENS_12FunctionCodeE
	mov	x0, x20
	mov	x8, x19
	bl	_ZN8opendnp311APDUWrapper9GetWriterEv
.LEHE0:
	ldr	x0, [x22, 8]
	adrp	x2, :got:_ZN8opendnp318IMasterApplication27ConfigureAssignClassRequestERKSt8functionIFvRKNS_6HeaderEEE
	mov	w5, 1
	add	x4, sp, 55
	ldr	x2, [x2, #:got_lo12:_ZN8opendnp318IMasterApplication27ConfigureAssignClassRequestERKSt8functionIFvRKNS_6HeaderEEE]
	adrp	x3, _ZNSt17_Function_handlerIFvRKN8opendnp36HeaderEEZNS0_15AssignClassTask12BuildRequestERNS0_11APDURequestEhEUlS3_E_E9_M_invokeERKSt9_Any_dataS3_
	ldr	x6, [x0]
	add	x3, x3, :lo12:_ZNSt17_Function_handlerIFvRKN8opendnp36HeaderEEZNS0_15AssignClassTask12BuildRequestERNS0_11APDURequestEhEUlS3_E_E9_M_invokeERKSt9_Any_dataS3_
	adrp	x1, _ZNSt17_Function_handlerIFvRKN8opendnp36HeaderEEZNS0_15AssignClassTask12BuildRequestERNS0_11APDURequestEhEUlS3_E_E10_M_managerERSt9_Any_dataRKSA_St18_Manager_operation
	add	x1, x1, :lo12:_ZNSt17_Function_handlerIFvRKN8opendnp36HeaderEEZNS0_15AssignClassTask12BuildRequestERNS0_11APDURequestEhEUlS3_E_E10_M_managerERSt9_Any_dataRKSA_St18_Manager_operation
	strb	w5, [sp, 55]
	mov	x5, x1
	ldr	x6, [x6, 96]
	stp	x4, x19, [sp, 88]
	stp	x1, x3, [sp, 104]
	cmp	x6, x2
	bne	.L49
.L33:
	mov	x1, x21
	mov	x0, x21
	mov	w2, 3
	blr	x5
.L34:
	adrp	x1, :got:__stack_chk_guard
	ldrb	w0, [sp, 55]
	ldr	x1, [x1, #:got_lo12:__stack_chk_guard]
	ldr	x3, [sp, 120]
	ldr	x2, [x1]
	subs	x3, x3, x2
	mov	x2, 0
	bne	.L50
	ldp	x19, x20, [sp, 16]
	ldp	x21, x22, [sp, 32]
	ldp	x29, x30, [sp], 128
	.cfi_remember_state
	.cfi_restore 30
	.cfi_restore 29
	.cfi_restore 21
	.cfi_restore 22
	.cfi_restore 19
	.cfi_restore 20
	.cfi_def_cfa_offset 0
	ret
	.p2align 2,,3
.L49:
	.cfi_restore_state
	mov	x1, x21
.LEHB1:
	blr	x6
.LEHE1:
	ldr	x5, [sp, 104]
	cbz	x5, .L34
	b	.L33
.L50:
	bl	__stack_chk_fail
.L39:
	ldr	x3, [sp, 104]
	mov	x19, x0
	cbz	x3, .L36
	mov	x1, x21
	mov	x0, x21
	mov	w2, 3
	blr	x3
.L36:
	mov	x0, x19
.LEHB2:
	bl	_Unwind_Resume
.LEHE2:
	.cfi_endproc
.LFE2465:
	.global	__gxx_personality_v0
	.section	.gcc_except_table,"a",@progbits
.LLSDA2465:
	.byte	0xff
	.byte	0xff
	.byte	0x1
	.uleb128 .LLSDACSE2465-.LLSDACSB2465
.LLSDACSB2465:
	.uleb128 .LEHB0-.LFB2465
	.uleb128 .LEHE0-.LEHB0
	.uleb128 0
	.uleb128 0
	.uleb128 .LEHB1-.LFB2465
	.uleb128 .LEHE1-.LEHB1
	.uleb128 .L39-.LFB2465
	.uleb128 0
	.uleb128 .LEHB2-.LFB2465
	.uleb128 .LEHE2-.LEHB2
	.uleb128 0
	.uleb128 0
.LLSDACSE2465:
	.text
	.size	_ZN8opendnp315AssignClassTask12BuildRequestERNS_11APDURequestEh, .-_ZN8opendnp315AssignClassTask12BuildRequestERNS_11APDURequestEh
	.align	2
	.p2align 4,,11
	.global	_ZNK8opendnp315AssignClassTask9IsEnabledEv
	.type	_ZNK8opendnp315AssignClassTask9IsEnabledEv, %function
_ZNK8opendnp315AssignClassTask9IsEnabledEv:
.LFB2472:
	.cfi_startproc
	ldr	x0, [x0, 8]
	adrp	x1, :got:_ZN8opendnp318IMasterApplication24AssignClassDuringStartupEv
	ldr	x1, [x1, #:got_lo12:_ZN8opendnp318IMasterApplication24AssignClassDuringStartupEv]
	ldr	x2, [x0]
	ldr	x2, [x2, 88]
	cmp	x2, x1
	bne	.L53
	mov	w0, 0
	ret
	.p2align 2,,3
.L53:
	mov	x16, x2
	br	x16
	.cfi_endproc
.LFE2472:
	.size	_ZNK8opendnp315AssignClassTask9IsEnabledEv, .-_ZNK8opendnp315AssignClassTask9IsEnabledEv
	.global	__aarch64_ldadd4_acq_rel
	.section	.text._ZN7openpal6LoggerD2Ev,"axG",@progbits,_ZN7openpal6LoggerD5Ev,comdat
	.align	2
	.p2align 4,,11
	.weak	_ZN7openpal6LoggerD2Ev
	.type	_ZN7openpal6LoggerD2Ev, %function
_ZN7openpal6LoggerD2Ev:
.LFB2070:
	.cfi_startproc
	stp	x29, x30, [sp, -48]!
	.cfi_def_cfa_offset 48
	.cfi_offset 29, -48
	.cfi_offset 30, -40
	mov	x29, sp
	stp	x19, x20, [sp, 16]
	.cfi_offset 19, -32
	.cfi_offset 20, -24
	mov	x19, x0
	ldr	x20, [x0, 24]
	str	x21, [sp, 32]
	.cfi_offset 21, -16
	cbz	x20, .L56
	adrp	x21, :got:__libc_single_threaded
	ldr	x0, [x21, #:got_lo12:__libc_single_threaded]
	ldrb	w0, [x0]
	cbz	w0, .L57
	ldr	w0, [x20, 8]
	sub	w1, w0, #1
	str	w1, [x20, 8]
.L58:
	cmp	w0, 1
	beq	.L70
.L56:
	ldr	x19, [x19, 8]
	cbz	x19, .L54
	adrp	x21, :got:__libc_single_threaded
	ldr	x0, [x21, #:got_lo12:__libc_single_threaded]
	ldrb	w0, [x0]
	cbz	w0, .L64
	ldr	w0, [x19, 8]
	sub	w1, w0, #1
	str	w1, [x19, 8]
.L65:
	cmp	w0, 1
	beq	.L71
.L54:
	ldp	x19, x20, [sp, 16]
	ldr	x21, [sp, 32]
	ldp	x29, x30, [sp], 48
	.cfi_remember_state
	.cfi_restore 30
	.cfi_restore 29
	.cfi_restore 21
	.cfi_restore 19
	.cfi_restore 20
	.cfi_def_cfa_offset 0
	ret
	.p2align 2,,3
.L70:
	.cfi_restore_state
	ldr	x1, [x20]
	mov	x0, x20
	ldr	x1, [x1, 16]
	blr	x1
	ldr	x21, [x21, #:got_lo12:__libc_single_threaded]
	ldrb	w0, [x21]
	cbz	w0, .L60
	ldr	w0, [x20, 12]
	sub	w1, w0, #1
	str	w1, [x20, 12]
.L61:
	cmp	w0, 1
	bne	.L56
	ldr	x1, [x20]
	mov	x0, x20
	ldr	x1, [x1, 24]
	blr	x1
	b	.L56
	.p2align 2,,3
.L71:
	ldr	x1, [x19]
	mov	x0, x19
	ldr	x1, [x1, 16]
	blr	x1
	ldr	x21, [x21, #:got_lo12:__libc_single_threaded]
	ldrb	w0, [x21]
	cbz	w0, .L67
	ldr	w0, [x19, 12]
	sub	w1, w0, #1
	str	w1, [x19, 12]
.L68:
	cmp	w0, 1
	bne	.L54
	ldr	x1, [x19]
	mov	x0, x19
	ldp	x19, x20, [sp, 16]
	ldr	x21, [sp, 32]
	ldp	x29, x30, [sp], 48
	.cfi_remember_state
	.cfi_restore 30
	.cfi_restore 29
	.cfi_restore 21
	.cfi_restore 19
	.cfi_restore 20
	.cfi_def_cfa_offset 0
	ldr	x1, [x1, 24]
	mov	x16, x1
	br	x16
	.p2align 2,,3
.L64:
	.cfi_restore_state
	add	x1, x19, 8
	mov	w0, -1
	bl	__aarch64_ldadd4_acq_rel
	b	.L65
	.p2align 2,,3
.L57:
	add	x1, x20, 8
	mov	w0, -1
	bl	__aarch64_ldadd4_acq_rel
	b	.L58
	.p2align 2,,3
.L60:
	add	x1, x20, 12
	mov	w0, -1
	bl	__aarch64_ldadd4_acq_rel
	b	.L61
	.p2align 2,,3
.L67:
	add	x1, x19, 12
	mov	w0, -1
	bl	__aarch64_ldadd4_acq_rel
	b	.L68
	.cfi_endproc
.LFE2070:
	.size	_ZN7openpal6LoggerD2Ev, .-_ZN7openpal6LoggerD2Ev
	.weak	_ZN7openpal6LoggerD1Ev
	.set	_ZN7openpal6LoggerD1Ev,_ZN7openpal6LoggerD2Ev
	.text
	.align	2
	.p2align 4,,11
	.global	_ZN8opendnp315AssignClassTaskC2ERNS_18IMasterApplicationEN7openpal12TimeDurationENS3_6LoggerE
	.type	_ZN8opendnp315AssignClassTaskC2ERNS_18IMasterApplicationEN7openpal12TimeDurationENS3_6LoggerE, %function
_ZN8opendnp315AssignClassTaskC2ERNS_18IMasterApplicationEN7openpal12TimeDurationENS3_6LoggerE:
.LFB2463:
	.cfi_startproc
	.cfi_personality 0x9b,DW.ref.__gxx_personality_v0
	.cfi_lsda 0x1b,.LLSDA2463
	stp	x29, x30, [sp, -112]!
	.cfi_def_cfa_offset 112
	.cfi_offset 29, -112
	.cfi_offset 30, -104
	adrp	x4, :got:__stack_chk_guard
	mov	x29, sp
	ldr	x4, [x4, #:got_lo12:__stack_chk_guard]
	stp	x19, x20, [sp, 16]
	.cfi_offset 19, -96
	.cfi_offset 20, -88
	mov	x20, x3
	stp	x21, x22, [sp, 32]
	.cfi_offset 21, -80
	.cfi_offset 22, -72
	mov	x19, x0
	mov	x22, x1
	ldr	x0, [x4]
	str	x0, [sp, 104]
	mov	x0, 0
	mov	x1, 0
	mov	x21, x2
	add	x0, sp, 56
.LEHB3:
	bl	_ZN7openpal18MonotonicTimestampC1El
.LEHE3:
	ldr	q0, [x20]
	umov	x1, v0.d[1]
	str	q0, [sp, 64]
	cbz	x1, .L73
	adrp	x0, :got:__libc_single_threaded
	ldr	x0, [x0, #:got_lo12:__libc_single_threaded]
	ldrb	w0, [x0]
	cbz	w0, .L74
	ldr	w0, [x1, 8]
	add	w0, w0, 1
	str	w0, [x1, 8]
.L73:
	ldr	q0, [x20, 16]
	umov	x1, v0.d[1]
	str	q0, [sp, 80]
	cbz	x1, .L75
	adrp	x0, :got:__libc_single_threaded
	ldr	x0, [x0, #:got_lo12:__libc_single_threaded]
	ldrb	w0, [x0]
	cbz	w0, .L76
	ldr	w0, [x1, 8]
	add	w0, w0, 1
	str	w0, [x1, 8]
.L75:
	ldr	x2, [sp, 56]
	add	x20, sp, 64
	mov	x1, x22
	mov	x3, x20
	mov	x0, x19
	mov	x4, 4294967295
	mov	x5, 0
.LEHB4:
	bl	_ZN8opendnp311IMasterTaskC2ERNS_18IMasterApplicationEN7openpal18MonotonicTimestampENS3_6LoggerENS_10TaskConfigE
.LEHE4:
	ldr	x20, [sp, 88]
	cbz	x20, .L78
	adrp	x22, :got:__libc_single_threaded
	ldr	x0, [x22, #:got_lo12:__libc_single_threaded]
	ldrb	w0, [x0]
	cbz	w0, .L79
	ldr	w0, [x20, 8]
	sub	w1, w0, #1
	str	w1, [x20, 8]
.L80:
	cmp	w0, 1
	beq	.L102
.L78:
	ldr	x20, [sp, 72]
	cbz	x20, .L85
	adrp	x22, :got:__libc_single_threaded
	ldr	x0, [x22, #:got_lo12:__libc_single_threaded]
	ldrb	w0, [x0]
	cbz	w0, .L86
	ldr	w0, [x20, 8]
	sub	w1, w0, #1
	str	w1, [x20, 8]
.L87:
	cmp	w0, 1
	beq	.L103
.L85:
	adrp	x0, :got:_ZTVN8opendnp315AssignClassTaskE
	adrp	x1, :got:__stack_chk_guard
	str	x21, [x19, 88]
	ldr	x0, [x0, #:got_lo12:_ZTVN8opendnp315AssignClassTaskE]
	ldr	x1, [x1, #:got_lo12:__stack_chk_guard]
	add	x0, x0, 16
	str	x0, [x19]
	ldr	x0, [sp, 104]
	ldr	x2, [x1]
	subs	x0, x0, x2
	mov	x2, 0
	bne	.L104
	ldp	x19, x20, [sp, 16]
	ldp	x21, x22, [sp, 32]
	ldp	x29, x30, [sp], 112
	.cfi_remember_state
	.cfi_restore 30
	.cfi_restore 29
	.cfi_restore 21
	.cfi_restore 22
	.cfi_restore 19
	.cfi_restore 20
	.cfi_def_cfa_offset 0
	ret
	.p2align 2,,3
.L74:
	.cfi_restore_state
	add	x1, x1, 8
	mov	w0, 1
	bl	__aarch64_ldadd4_acq_rel
	b	.L73
	.p2align 2,,3
.L76:
	add	x1, x1, 8
	mov	w0, 1
	bl	__aarch64_ldadd4_acq_rel
	b	.L75
	.p2align 2,,3
.L102:
	ldr	x1, [x20]
	mov	x0, x20
	ldr	x1, [x1, 16]
	blr	x1
	ldr	x22, [x22, #:got_lo12:__libc_single_threaded]
	ldrb	w0, [x22]
	cbz	w0, .L82
	ldr	w0, [x20, 12]
	sub	w1, w0, #1
	str	w1, [x20, 12]
.L83:
	cmp	w0, 1
	bne	.L78
	ldr	x1, [x20]
	mov	x0, x20
	ldr	x1, [x1, 24]
	blr	x1
	b	.L78
	.p2align 2,,3
.L103:
	ldr	x1, [x20]
	mov	x0, x20
	ldr	x1, [x1, 16]
	blr	x1
	ldr	x22, [x22, #:got_lo12:__libc_single_threaded]
	ldrb	w0, [x22]
	cbz	w0, .L89
	ldr	w0, [x20, 12]
	sub	w1, w0, #1
	str	w1, [x20, 12]
.L90:
	cmp	w0, 1
	bne	.L85
	ldr	x1, [x20]
	mov	x0, x20
	ldr	x1, [x1, 24]
	blr	x1
	b	.L85
	.p2align 2,,3
.L79:
	add	x1, x20, 8
	mov	w0, -1
	bl	__aarch64_ldadd4_acq_rel
	b	.L80
	.p2align 2,,3
.L86:
	add	x1, x20, 8
	mov	w0, -1
	bl	__aarch64_ldadd4_acq_rel
	b	.L87
	.p2align 2,,3
.L82:
	add	x1, x20, 12
	mov	w0, -1
	bl	__aarch64_ldadd4_acq_rel
	b	.L83
	.p2align 2,,3
.L89:
	add	x1, x20, 12
	mov	w0, -1
	bl	__aarch64_ldadd4_acq_rel
	b	.L90
.L104:
	bl	__stack_chk_fail
.L93:
	mov	x19, x0
	mov	x0, x20
	bl	_ZN7openpal6LoggerD1Ev
	mov	x0, x19
.LEHB5:
	bl	_Unwind_Resume
.LEHE5:
	.cfi_endproc
.LFE2463:
	.section	.gcc_except_table
.LLSDA2463:
	.byte	0xff
	.byte	0xff
	.byte	0x1
	.uleb128 .LLSDACSE2463-.LLSDACSB2463
.LLSDACSB2463:
	.uleb128 .LEHB3-.LFB2463
	.uleb128 .LEHE3-.LEHB3
	.uleb128 0
	.uleb128 0
	.uleb128 .LEHB4-.LFB2463
	.uleb128 .LEHE4-.LEHB4
	.uleb128 .L93-.LFB2463
	.uleb128 0
	.uleb128 .LEHB5-.LFB2463
	.uleb128 .LEHE5-.LEHB5
	.uleb128 0
	.uleb128 0
.LLSDACSE2463:
	.text
	.size	_ZN8opendnp315AssignClassTaskC2ERNS_18IMasterApplicationEN7openpal12TimeDurationENS3_6LoggerE, .-_ZN8opendnp315AssignClassTaskC2ERNS_18IMasterApplicationEN7openpal12TimeDurationENS3_6LoggerE
	.global	_ZN8opendnp315AssignClassTaskC1ERNS_18IMasterApplicationEN7openpal12TimeDurationENS3_6LoggerE
	.set	_ZN8opendnp315AssignClassTaskC1ERNS_18IMasterApplicationEN7openpal12TimeDurationENS3_6LoggerE,_ZN8opendnp315AssignClassTaskC2ERNS_18IMasterApplicationEN7openpal12TimeDurationENS3_6LoggerE
	.weak	_ZTSN8opendnp315AssignClassTaskE
	.section	.rodata._ZTSN8opendnp315AssignClassTaskE,"aG",@progbits,_ZTSN8opendnp315AssignClassTaskE,comdat
	.align	3
	.type	_ZTSN8opendnp315AssignClassTaskE, %object
	.size	_ZTSN8opendnp315AssignClassTaskE, 29
_ZTSN8opendnp315AssignClassTaskE:
	.string	"N8opendnp315AssignClassTaskE"
	.weak	_ZTIN8opendnp315AssignClassTaskE
	.section	.data.rel.ro._ZTIN8opendnp315AssignClassTaskE,"awG",@progbits,_ZTIN8opendnp315AssignClassTaskE,comdat
	.align	3
	.type	_ZTIN8opendnp315AssignClassTaskE, %object
	.size	_ZTIN8opendnp315AssignClassTaskE, 24
_ZTIN8opendnp315AssignClassTaskE:
	.xword	_ZTVN10__cxxabiv120__si_class_type_infoE+16
	.xword	_ZTSN8opendnp315AssignClassTaskE
	.xword	_ZTIN8opendnp311IMasterTaskE
	.weak	_ZTVN8opendnp315AssignClassTaskE
	.section	.data.rel.ro._ZTVN8opendnp315AssignClassTaskE,"awG",@progbits,_ZTVN8opendnp315AssignClassTaskE,comdat
	.align	3
	.type	_ZTVN8opendnp315AssignClassTaskE, %object
	.size	_ZTVN8opendnp315AssignClassTaskE, 120
_ZTVN8opendnp315AssignClassTaskE:
	.xword	0
	.xword	_ZTIN8opendnp315AssignClassTaskE
	.xword	_ZN8opendnp315AssignClassTaskD1Ev
	.xword	_ZN8opendnp315AssignClassTaskD0Ev
	.xword	_ZNK8opendnp311IMasterTask10IsAuthTaskEv
	.xword	_ZNK8opendnp315AssignClassTask4NameEv
	.xword	_ZNK8opendnp315AssignClassTask8PriorityEv
	.xword	_ZNK8opendnp315AssignClassTask19BlocksLowerPriorityEv
	.xword	_ZNK8opendnp315AssignClassTask11IsRecurringEv
	.xword	_ZN8opendnp315AssignClassTask12BuildRequestERNS_11APDURequestEh
	.xword	_ZN8opendnp311IMasterTask10InitializeEv
	.xword	_ZN8opendnp315AssignClassTask15ProcessResponseERKNS_18APDUResponseHeaderERKN7openpal6RSliceE
	.xword	_ZN8opendnp315AssignClassTask14OnTaskCompleteENS_14TaskCompletionEN7openpal18MonotonicTimestampE
	.xword	_ZNK8opendnp315AssignClassTask9IsEnabledEv
	.xword	_ZNK8opendnp315AssignClassTask11GetTaskTypeEv
	.section	.rodata
	.align	3
	.type	_ZTSZN8opendnp315AssignClassTask12BuildRequestERNS_11APDURequestEhEUlRKNS_6HeaderEE_, %object
	.size	_ZTSZN8opendnp315AssignClassTask12BuildRequestERNS_11APDURequestEhEUlRKNS_6HeaderEE_, 82
_ZTSZN8opendnp315AssignClassTask12BuildRequestERNS_11APDURequestEhEUlRKNS_6HeaderEE_:
	.string	"*ZN8opendnp315AssignClassTask12BuildRequestERNS_11APDURequestEhEUlRKNS_6HeaderEE_"
	.section	.data.rel.ro,"aw"
	.align	3
	.set	.LANCHOR0,. + 0
	.type	_ZTIZN8opendnp315AssignClassTask12BuildRequestERNS_11APDURequestEhEUlRKNS_6HeaderEE_, %object
	.size	_ZTIZN8opendnp315AssignClassTask12BuildRequestERNS_11APDURequestEhEUlRKNS_6HeaderEE_, 16
_ZTIZN8opendnp315AssignClassTask12BuildRequestERNS_11APDURequestEhEUlRKNS_6HeaderEE_:
	.xword	_ZTVN10__cxxabiv117__class_type_infoE+16
	.xword	_ZTSZN8opendnp315AssignClassTask12BuildRequestERNS_11APDURequestEhEUlRKNS_6HeaderEE_
	.hidden	DW.ref.__gxx_personality_v0
	.weak	DW.ref.__gxx_personality_v0
	.section	.data.rel.local.DW.ref.__gxx_personality_v0,"awG",@progbits,DW.ref.__gxx_personality_v0,comdat
	.align	3
	.type	DW.ref.__gxx_personality_v0, %object
	.size	DW.ref.__gxx_personality_v0, 8
DW.ref.__gxx_personality_v0:
	.xword	__gxx_personality_v0
	.ident	"GCC: (Ubuntu 11.4.0-1ubuntu1~22.04) 11.4.0"
	.section	.note.GNU-stack,"",@progbits
