	.arch armv8-a
	.file	"CommandSetOps.cpp"
	.text
	.section	.text._ZN8opendnp312IAPDUHandler14OnHeaderResultERKNS_12HeaderRecordERKNS_8IINFieldE,"axG",@progbits,_ZN8opendnp312IAPDUHandler14OnHeaderResultERKNS_12HeaderRecordERKNS_8IINFieldE,comdat
	.align	2
	.p2align 4,,11
	.weak	_ZN8opendnp312IAPDUHandler14OnHeaderResultERKNS_12HeaderRecordERKNS_8IINFieldE
	.type	_ZN8opendnp312IAPDUHandler14OnHeaderResultERKNS_12HeaderRecordERKNS_8IINFieldE, %function
_ZN8opendnp312IAPDUHandler14OnHeaderResultERKNS_12HeaderRecordERKNS_8IINFieldE:
.LFB1694:
	.cfi_startproc
	ret
	.cfi_endproc
.LFE1694:
	.size	_ZN8opendnp312IAPDUHandler14OnHeaderResultERKNS_12HeaderRecordERKNS_8IINFieldE, .-_ZN8opendnp312IAPDUHandler14OnHeaderResultERKNS_12HeaderRecordERKNS_8IINFieldE
	.section	.text._ZN8opendnp314ICommandHeader19ApplySelectResponseERKNS_11ICollectionINS_7IndexedINS_23ControlRelayOutputBlockEEEEE,"axG",@progbits,_ZN8opendnp314ICommandHeader19ApplySelectResponseERKNS_11ICollectionINS_7IndexedINS_23ControlRelayOutputBlockEEEEE,comdat
	.align	2
	.p2align 4,,11
	.weak	_ZN8opendnp314ICommandHeader19ApplySelectResponseERKNS_11ICollectionINS_7IndexedINS_23ControlRelayOutputBlockEEEEE
	.type	_ZN8opendnp314ICommandHeader19ApplySelectResponseERKNS_11ICollectionINS_7IndexedINS_23ControlRelayOutputBlockEEEEE, %function
_ZN8opendnp314ICommandHeader19ApplySelectResponseERKNS_11ICollectionINS_7IndexedINS_23ControlRelayOutputBlockEEEEE:
.LFB2870:
	.cfi_startproc
	ret
	.cfi_endproc
.LFE2870:
	.size	_ZN8opendnp314ICommandHeader19ApplySelectResponseERKNS_11ICollectionINS_7IndexedINS_23ControlRelayOutputBlockEEEEE, .-_ZN8opendnp314ICommandHeader19ApplySelectResponseERKNS_11ICollectionINS_7IndexedINS_23ControlRelayOutputBlockEEEEE
	.section	.text._ZN8opendnp314ICommandHeader19ApplySelectResponseERKNS_11ICollectionINS_7IndexedINS_17AnalogOutputInt16EEEEE,"axG",@progbits,_ZN8opendnp314ICommandHeader19ApplySelectResponseERKNS_11ICollectionINS_7IndexedINS_17AnalogOutputInt16EEEEE,comdat
	.align	2
	.p2align 4,,11
	.weak	_ZN8opendnp314ICommandHeader19ApplySelectResponseERKNS_11ICollectionINS_7IndexedINS_17AnalogOutputInt16EEEEE
	.type	_ZN8opendnp314ICommandHeader19ApplySelectResponseERKNS_11ICollectionINS_7IndexedINS_17AnalogOutputInt16EEEEE, %function
_ZN8opendnp314ICommandHeader19ApplySelectResponseERKNS_11ICollectionINS_7IndexedINS_17AnalogOutputInt16EEEEE:
.LFB2871:
	.cfi_startproc
	ret
	.cfi_endproc
.LFE2871:
	.size	_ZN8opendnp314ICommandHeader19ApplySelectResponseERKNS_11ICollectionINS_7IndexedINS_17AnalogOutputInt16EEEEE, .-_ZN8opendnp314ICommandHeader19ApplySelectResponseERKNS_11ICollectionINS_7IndexedINS_17AnalogOutputInt16EEEEE
	.section	.text._ZN8opendnp314ICommandHeader19ApplySelectResponseERKNS_11ICollectionINS_7IndexedINS_17AnalogOutputInt32EEEEE,"axG",@progbits,_ZN8opendnp314ICommandHeader19ApplySelectResponseERKNS_11ICollectionINS_7IndexedINS_17AnalogOutputInt32EEEEE,comdat
	.align	2
	.p2align 4,,11
	.weak	_ZN8opendnp314ICommandHeader19ApplySelectResponseERKNS_11ICollectionINS_7IndexedINS_17AnalogOutputInt32EEEEE
	.type	_ZN8opendnp314ICommandHeader19ApplySelectResponseERKNS_11ICollectionINS_7IndexedINS_17AnalogOutputInt32EEEEE, %function
_ZN8opendnp314ICommandHeader19ApplySelectResponseERKNS_11ICollectionINS_7IndexedINS_17AnalogOutputInt32EEEEE:
.LFB2872:
	.cfi_startproc
	ret
	.cfi_endproc
.LFE2872:
	.size	_ZN8opendnp314ICommandHeader19ApplySelectResponseERKNS_11ICollectionINS_7IndexedINS_17AnalogOutputInt32EEEEE, .-_ZN8opendnp314ICommandHeader19ApplySelectResponseERKNS_11ICollectionINS_7IndexedINS_17AnalogOutputInt32EEEEE
	.section	.text._ZN8opendnp314ICommandHeader19ApplySelectResponseERKNS_11ICollectionINS_7IndexedINS_19AnalogOutputFloat32EEEEE,"axG",@progbits,_ZN8opendnp314ICommandHeader19ApplySelectResponseERKNS_11ICollectionINS_7IndexedINS_19AnalogOutputFloat32EEEEE,comdat
	.align	2
	.p2align 4,,11
	.weak	_ZN8opendnp314ICommandHeader19ApplySelectResponseERKNS_11ICollectionINS_7IndexedINS_19AnalogOutputFloat32EEEEE
	.type	_ZN8opendnp314ICommandHeader19ApplySelectResponseERKNS_11ICollectionINS_7IndexedINS_19AnalogOutputFloat32EEEEE, %function
_ZN8opendnp314ICommandHeader19ApplySelectResponseERKNS_11ICollectionINS_7IndexedINS_19AnalogOutputFloat32EEEEE:
.LFB2873:
	.cfi_startproc
	ret
	.cfi_endproc
.LFE2873:
	.size	_ZN8opendnp314ICommandHeader19ApplySelectResponseERKNS_11ICollectionINS_7IndexedINS_19AnalogOutputFloat32EEEEE, .-_ZN8opendnp314ICommandHeader19ApplySelectResponseERKNS_11ICollectionINS_7IndexedINS_19AnalogOutputFloat32EEEEE
	.section	.text._ZN8opendnp314ICommandHeader19ApplySelectResponseERKNS_11ICollectionINS_7IndexedINS_20AnalogOutputDouble64EEEEE,"axG",@progbits,_ZN8opendnp314ICommandHeader19ApplySelectResponseERKNS_11ICollectionINS_7IndexedINS_20AnalogOutputDouble64EEEEE,comdat
	.align	2
	.p2align 4,,11
	.weak	_ZN8opendnp314ICommandHeader19ApplySelectResponseERKNS_11ICollectionINS_7IndexedINS_20AnalogOutputDouble64EEEEE
	.type	_ZN8opendnp314ICommandHeader19ApplySelectResponseERKNS_11ICollectionINS_7IndexedINS_20AnalogOutputDouble64EEEEE, %function
_ZN8opendnp314ICommandHeader19ApplySelectResponseERKNS_11ICollectionINS_7IndexedINS_20AnalogOutputDouble64EEEEE:
.LFB2874:
	.cfi_startproc
	ret
	.cfi_endproc
.LFE2874:
	.size	_ZN8opendnp314ICommandHeader19ApplySelectResponseERKNS_11ICollectionINS_7IndexedINS_20AnalogOutputDouble64EEEEE, .-_ZN8opendnp314ICommandHeader19ApplySelectResponseERKNS_11ICollectionINS_7IndexedINS_20AnalogOutputDouble64EEEEE
	.section	.text._ZN8opendnp314ICommandHeader20ApplyOperateResponseERKNS_11ICollectionINS_7IndexedINS_23ControlRelayOutputBlockEEEEE,"axG",@progbits,_ZN8opendnp314ICommandHeader20ApplyOperateResponseERKNS_11ICollectionINS_7IndexedINS_23ControlRelayOutputBlockEEEEE,comdat
	.align	2
	.p2align 4,,11
	.weak	_ZN8opendnp314ICommandHeader20ApplyOperateResponseERKNS_11ICollectionINS_7IndexedINS_23ControlRelayOutputBlockEEEEE
	.type	_ZN8opendnp314ICommandHeader20ApplyOperateResponseERKNS_11ICollectionINS_7IndexedINS_23ControlRelayOutputBlockEEEEE, %function
_ZN8opendnp314ICommandHeader20ApplyOperateResponseERKNS_11ICollectionINS_7IndexedINS_23ControlRelayOutputBlockEEEEE:
.LFB2875:
	.cfi_startproc
	ret
	.cfi_endproc
.LFE2875:
	.size	_ZN8opendnp314ICommandHeader20ApplyOperateResponseERKNS_11ICollectionINS_7IndexedINS_23ControlRelayOutputBlockEEEEE, .-_ZN8opendnp314ICommandHeader20ApplyOperateResponseERKNS_11ICollectionINS_7IndexedINS_23ControlRelayOutputBlockEEEEE
	.section	.text._ZN8opendnp314ICommandHeader20ApplyOperateResponseERKNS_11ICollectionINS_7IndexedINS_17AnalogOutputInt16EEEEE,"axG",@progbits,_ZN8opendnp314ICommandHeader20ApplyOperateResponseERKNS_11ICollectionINS_7IndexedINS_17AnalogOutputInt16EEEEE,comdat
	.align	2
	.p2align 4,,11
	.weak	_ZN8opendnp314ICommandHeader20ApplyOperateResponseERKNS_11ICollectionINS_7IndexedINS_17AnalogOutputInt16EEEEE
	.type	_ZN8opendnp314ICommandHeader20ApplyOperateResponseERKNS_11ICollectionINS_7IndexedINS_17AnalogOutputInt16EEEEE, %function
_ZN8opendnp314ICommandHeader20ApplyOperateResponseERKNS_11ICollectionINS_7IndexedINS_17AnalogOutputInt16EEEEE:
.LFB2876:
	.cfi_startproc
	ret
	.cfi_endproc
.LFE2876:
	.size	_ZN8opendnp314ICommandHeader20ApplyOperateResponseERKNS_11ICollectionINS_7IndexedINS_17AnalogOutputInt16EEEEE, .-_ZN8opendnp314ICommandHeader20ApplyOperateResponseERKNS_11ICollectionINS_7IndexedINS_17AnalogOutputInt16EEEEE
	.section	.text._ZN8opendnp314ICommandHeader20ApplyOperateResponseERKNS_11ICollectionINS_7IndexedINS_17AnalogOutputInt32EEEEE,"axG",@progbits,_ZN8opendnp314ICommandHeader20ApplyOperateResponseERKNS_11ICollectionINS_7IndexedINS_17AnalogOutputInt32EEEEE,comdat
	.align	2
	.p2align 4,,11
	.weak	_ZN8opendnp314ICommandHeader20ApplyOperateResponseERKNS_11ICollectionINS_7IndexedINS_17AnalogOutputInt32EEEEE
	.type	_ZN8opendnp314ICommandHeader20ApplyOperateResponseERKNS_11ICollectionINS_7IndexedINS_17AnalogOutputInt32EEEEE, %function
_ZN8opendnp314ICommandHeader20ApplyOperateResponseERKNS_11ICollectionINS_7IndexedINS_17AnalogOutputInt32EEEEE:
.LFB2877:
	.cfi_startproc
	ret
	.cfi_endproc
.LFE2877:
	.size	_ZN8opendnp314ICommandHeader20ApplyOperateResponseERKNS_11ICollectionINS_7IndexedINS_17AnalogOutputInt32EEEEE, .-_ZN8opendnp314ICommandHeader20ApplyOperateResponseERKNS_11ICollectionINS_7IndexedINS_17AnalogOutputInt32EEEEE
	.section	.text._ZN8opendnp314ICommandHeader20ApplyOperateResponseERKNS_11ICollectionINS_7IndexedINS_19AnalogOutputFloat32EEEEE,"axG",@progbits,_ZN8opendnp314ICommandHeader20ApplyOperateResponseERKNS_11ICollectionINS_7IndexedINS_19AnalogOutputFloat32EEEEE,comdat
	.align	2
	.p2align 4,,11
	.weak	_ZN8opendnp314ICommandHeader20ApplyOperateResponseERKNS_11ICollectionINS_7IndexedINS_19AnalogOutputFloat32EEEEE
	.type	_ZN8opendnp314ICommandHeader20ApplyOperateResponseERKNS_11ICollectionINS_7IndexedINS_19AnalogOutputFloat32EEEEE, %function
_ZN8opendnp314ICommandHeader20ApplyOperateResponseERKNS_11ICollectionINS_7IndexedINS_19AnalogOutputFloat32EEEEE:
.LFB2878:
	.cfi_startproc
	ret
	.cfi_endproc
.LFE2878:
	.size	_ZN8opendnp314ICommandHeader20ApplyOperateResponseERKNS_11ICollectionINS_7IndexedINS_19AnalogOutputFloat32EEEEE, .-_ZN8opendnp314ICommandHeader20ApplyOperateResponseERKNS_11ICollectionINS_7IndexedINS_19AnalogOutputFloat32EEEEE
	.section	.text._ZN8opendnp314ICommandHeader20ApplyOperateResponseERKNS_11ICollectionINS_7IndexedINS_20AnalogOutputDouble64EEEEE,"axG",@progbits,_ZN8opendnp314ICommandHeader20ApplyOperateResponseERKNS_11ICollectionINS_7IndexedINS_20AnalogOutputDouble64EEEEE,comdat
	.align	2
	.p2align 4,,11
	.weak	_ZN8opendnp314ICommandHeader20ApplyOperateResponseERKNS_11ICollectionINS_7IndexedINS_20AnalogOutputDouble64EEEEE
	.type	_ZN8opendnp314ICommandHeader20ApplyOperateResponseERKNS_11ICollectionINS_7IndexedINS_20AnalogOutputDouble64EEEEE, %function
_ZN8opendnp314ICommandHeader20ApplyOperateResponseERKNS_11ICollectionINS_7IndexedINS_20AnalogOutputDouble64EEEEE:
.LFB2879:
	.cfi_startproc
	ret
	.cfi_endproc
.LFE2879:
	.size	_ZN8opendnp314ICommandHeader20ApplyOperateResponseERKNS_11ICollectionINS_7IndexedINS_20AnalogOutputDouble64EEEEE, .-_ZN8opendnp314ICommandHeader20ApplyOperateResponseERKNS_11ICollectionINS_7IndexedINS_20AnalogOutputDouble64EEEEE
	.text
	.align	2
	.p2align 4,,11
	.global	_ZN8opendnp313CommandSetOps9IsAllowedEjNS_14GroupVariationENS_13QualifierCodeE
	.type	_ZN8opendnp313CommandSetOps9IsAllowedEjNS_14GroupVariationENS_13QualifierCodeE, %function
_ZN8opendnp313CommandSetOps9IsAllowedEjNS_14GroupVariationENS_13QualifierCodeE:
.LFB3132:
	.cfi_startproc
	and	w3, w3, 255
	and	w2, w2, 65535
	mov	w0, 0
	cmp	w3, 40
	bne	.L14
	mov	w0, 1
	cmp	w2, 3073
	beq	.L14
	mov	w0, -10497
	add	w2, w2, w0
	and	w2, w2, 65535
	cmp	w2, 3
	cset	w0, ls
.L14:
	ret
	.cfi_endproc
.LFE3132:
	.size	_ZN8opendnp313CommandSetOps9IsAllowedEjNS_14GroupVariationENS_13QualifierCodeE, .-_ZN8opendnp313CommandSetOps9IsAllowedEjNS_14GroupVariationENS_13QualifierCodeE
	.align	2
	.p2align 4,,11
	.global	_ZN8opendnp313CommandSetOps13ProcessHeaderERKNS_12PrefixHeaderERKNS_11ICollectionINS_7IndexedINS_23ControlRelayOutputBlockEEEEE
	.type	_ZN8opendnp313CommandSetOps13ProcessHeaderERKNS_12PrefixHeaderERKNS_11ICollectionINS_7IndexedINS_23ControlRelayOutputBlockEEEEE, %function
_ZN8opendnp313CommandSetOps13ProcessHeaderERKNS_12PrefixHeaderERKNS_11ICollectionINS_7IndexedINS_23ControlRelayOutputBlockEEEEE:
.LFB3133:
	.cfi_startproc
	stp	x29, x30, [sp, -64]!
	.cfi_def_cfa_offset 64
	.cfi_offset 29, -64
	.cfi_offset 30, -56
	adrp	x3, :got:__stack_chk_guard
	mov	x29, sp
	ldr	x3, [x3, #:got_lo12:__stack_chk_guard]
	stp	x19, x20, [sp, 16]
	.cfi_offset 19, -48
	.cfi_offset 20, -40
	mov	x19, x1
	str	x21, [sp, 32]
	.cfi_offset 21, -32
	mov	x20, x0
	mov	x0, x1
	mov	x21, x2
	ldr	x1, [x3]
	str	x1, [sp, 56]
	mov	x1, 0
	bl	_ZNK8opendnp312HeaderRecord16GetQualifierCodeEv
	and	w3, w0, 255
	cmp	w3, 40
	bne	.L27
	ldr	x0, [x20, 24]
	ldr	w2, [x19, 12]
	ldp	x1, x0, [x0]
	sub	x0, x0, x1
	cmp	x2, x0, asr 3
	bcs	.L27
	ldrb	w3, [x20, 20]
	ldr	x0, [x1, x2, lsl 3]
	ldr	x2, [x0]
	cbnz	w3, .L22
	adrp	x1, :got:_ZN8opendnp314ICommandHeader19ApplySelectResponseERKNS_11ICollectionINS_7IndexedINS_23ControlRelayOutputBlockEEEEE
	ldr	x2, [x2, 48]
	ldr	x1, [x1, #:got_lo12:_ZN8opendnp314ICommandHeader19ApplySelectResponseERKNS_11ICollectionINS_7IndexedINS_23ControlRelayOutputBlockEEEEE]
	cmp	x2, x1
	bne	.L26
.L23:
	mov	w0, 0
	b	.L20
	.p2align 2,,3
.L27:
	add	x0, sp, 48
	mov	w1, 10
	strh	wzr, [sp, 48]
	bl	_ZN8opendnp38IINField6SetBitENS_6IINBitE
	ldrh	w0, [sp, 48]
.L20:
	adrp	x1, :got:__stack_chk_guard
	ldr	x1, [x1, #:got_lo12:__stack_chk_guard]
	ldr	x3, [sp, 56]
	ldr	x2, [x1]
	subs	x3, x3, x2
	mov	x2, 0
	bne	.L28
	ldp	x19, x20, [sp, 16]
	ldr	x21, [sp, 32]
	ldp	x29, x30, [sp], 64
	.cfi_remember_state
	.cfi_restore 30
	.cfi_restore 29
	.cfi_restore 21
	.cfi_restore 19
	.cfi_restore 20
	.cfi_def_cfa_offset 0
	ret
	.p2align 2,,3
.L22:
	.cfi_restore_state
	adrp	x1, :got:_ZN8opendnp314ICommandHeader20ApplyOperateResponseERKNS_11ICollectionINS_7IndexedINS_23ControlRelayOutputBlockEEEEE
	ldr	x2, [x2, 88]
	ldr	x1, [x1, #:got_lo12:_ZN8opendnp314ICommandHeader20ApplyOperateResponseERKNS_11ICollectionINS_7IndexedINS_23ControlRelayOutputBlockEEEEE]
	cmp	x2, x1
	beq	.L23
.L26:
	mov	x1, x21
	blr	x2
	mov	w0, 0
	b	.L20
.L28:
	bl	__stack_chk_fail
	.cfi_endproc
.LFE3133:
	.size	_ZN8opendnp313CommandSetOps13ProcessHeaderERKNS_12PrefixHeaderERKNS_11ICollectionINS_7IndexedINS_23ControlRelayOutputBlockEEEEE, .-_ZN8opendnp313CommandSetOps13ProcessHeaderERKNS_12PrefixHeaderERKNS_11ICollectionINS_7IndexedINS_23ControlRelayOutputBlockEEEEE
	.align	2
	.p2align 4,,11
	.global	_ZN8opendnp313CommandSetOps13ProcessHeaderERKNS_12PrefixHeaderERKNS_11ICollectionINS_7IndexedINS_17AnalogOutputInt16EEEEE
	.type	_ZN8opendnp313CommandSetOps13ProcessHeaderERKNS_12PrefixHeaderERKNS_11ICollectionINS_7IndexedINS_17AnalogOutputInt16EEEEE, %function
_ZN8opendnp313CommandSetOps13ProcessHeaderERKNS_12PrefixHeaderERKNS_11ICollectionINS_7IndexedINS_17AnalogOutputInt16EEEEE:
.LFB3134:
	.cfi_startproc
	stp	x29, x30, [sp, -64]!
	.cfi_def_cfa_offset 64
	.cfi_offset 29, -64
	.cfi_offset 30, -56
	adrp	x3, :got:__stack_chk_guard
	mov	x29, sp
	ldr	x3, [x3, #:got_lo12:__stack_chk_guard]
	stp	x19, x20, [sp, 16]
	.cfi_offset 19, -48
	.cfi_offset 20, -40
	mov	x19, x1
	str	x21, [sp, 32]
	.cfi_offset 21, -32
	mov	x20, x0
	mov	x0, x1
	mov	x21, x2
	ldr	x1, [x3]
	str	x1, [sp, 56]
	mov	x1, 0
	bl	_ZNK8opendnp312HeaderRecord16GetQualifierCodeEv
	and	w3, w0, 255
	cmp	w3, 40
	bne	.L38
	ldr	x0, [x20, 24]
	ldr	w2, [x19, 12]
	ldp	x1, x0, [x0]
	sub	x0, x0, x1
	cmp	x2, x0, asr 3
	bcs	.L38
	ldrb	w3, [x20, 20]
	ldr	x0, [x1, x2, lsl 3]
	ldr	x2, [x0]
	cbnz	w3, .L33
	adrp	x1, :got:_ZN8opendnp314ICommandHeader19ApplySelectResponseERKNS_11ICollectionINS_7IndexedINS_17AnalogOutputInt16EEEEE
	ldr	x2, [x2, 56]
	ldr	x1, [x1, #:got_lo12:_ZN8opendnp314ICommandHeader19ApplySelectResponseERKNS_11ICollectionINS_7IndexedINS_17AnalogOutputInt16EEEEE]
	cmp	x2, x1
	bne	.L37
.L34:
	mov	w0, 0
	b	.L31
	.p2align 2,,3
.L38:
	add	x0, sp, 48
	mov	w1, 10
	strh	wzr, [sp, 48]
	bl	_ZN8opendnp38IINField6SetBitENS_6IINBitE
	ldrh	w0, [sp, 48]
.L31:
	adrp	x1, :got:__stack_chk_guard
	ldr	x1, [x1, #:got_lo12:__stack_chk_guard]
	ldr	x3, [sp, 56]
	ldr	x2, [x1]
	subs	x3, x3, x2
	mov	x2, 0
	bne	.L39
	ldp	x19, x20, [sp, 16]
	ldr	x21, [sp, 32]
	ldp	x29, x30, [sp], 64
	.cfi_remember_state
	.cfi_restore 30
	.cfi_restore 29
	.cfi_restore 21
	.cfi_restore 19
	.cfi_restore 20
	.cfi_def_cfa_offset 0
	ret
	.p2align 2,,3
.L33:
	.cfi_restore_state
	adrp	x1, :got:_ZN8opendnp314ICommandHeader20ApplyOperateResponseERKNS_11ICollectionINS_7IndexedINS_17AnalogOutputInt16EEEEE
	ldr	x2, [x2, 96]
	ldr	x1, [x1, #:got_lo12:_ZN8opendnp314ICommandHeader20ApplyOperateResponseERKNS_11ICollectionINS_7IndexedINS_17AnalogOutputInt16EEEEE]
	cmp	x2, x1
	beq	.L34
.L37:
	mov	x1, x21
	blr	x2
	mov	w0, 0
	b	.L31
.L39:
	bl	__stack_chk_fail
	.cfi_endproc
.LFE3134:
	.size	_ZN8opendnp313CommandSetOps13ProcessHeaderERKNS_12PrefixHeaderERKNS_11ICollectionINS_7IndexedINS_17AnalogOutputInt16EEEEE, .-_ZN8opendnp313CommandSetOps13ProcessHeaderERKNS_12PrefixHeaderERKNS_11ICollectionINS_7IndexedINS_17AnalogOutputInt16EEEEE
	.align	2
	.p2align 4,,11
	.global	_ZN8opendnp313CommandSetOps13ProcessHeaderERKNS_12PrefixHeaderERKNS_11ICollectionINS_7IndexedINS_17AnalogOutputInt32EEEEE
	.type	_ZN8opendnp313CommandSetOps13ProcessHeaderERKNS_12PrefixHeaderERKNS_11ICollectionINS_7IndexedINS_17AnalogOutputInt32EEEEE, %function
_ZN8opendnp313CommandSetOps13ProcessHeaderERKNS_12PrefixHeaderERKNS_11ICollectionINS_7IndexedINS_17AnalogOutputInt32EEEEE:
.LFB3135:
	.cfi_startproc
	stp	x29, x30, [sp, -64]!
	.cfi_def_cfa_offset 64
	.cfi_offset 29, -64
	.cfi_offset 30, -56
	adrp	x3, :got:__stack_chk_guard
	mov	x29, sp
	ldr	x3, [x3, #:got_lo12:__stack_chk_guard]
	stp	x19, x20, [sp, 16]
	.cfi_offset 19, -48
	.cfi_offset 20, -40
	mov	x19, x1
	str	x21, [sp, 32]
	.cfi_offset 21, -32
	mov	x20, x0
	mov	x0, x1
	mov	x21, x2
	ldr	x1, [x3]
	str	x1, [sp, 56]
	mov	x1, 0
	bl	_ZNK8opendnp312HeaderRecord16GetQualifierCodeEv
	and	w3, w0, 255
	cmp	w3, 40
	bne	.L49
	ldr	x0, [x20, 24]
	ldr	w2, [x19, 12]
	ldp	x1, x0, [x0]
	sub	x0, x0, x1
	cmp	x2, x0, asr 3
	bcs	.L49
	ldrb	w3, [x20, 20]
	ldr	x0, [x1, x2, lsl 3]
	ldr	x2, [x0]
	cbnz	w3, .L44
	adrp	x1, :got:_ZN8opendnp314ICommandHeader19ApplySelectResponseERKNS_11ICollectionINS_7IndexedINS_17AnalogOutputInt32EEEEE
	ldr	x2, [x2, 64]
	ldr	x1, [x1, #:got_lo12:_ZN8opendnp314ICommandHeader19ApplySelectResponseERKNS_11ICollectionINS_7IndexedINS_17AnalogOutputInt32EEEEE]
	cmp	x2, x1
	bne	.L48
.L45:
	mov	w0, 0
	b	.L42
	.p2align 2,,3
.L49:
	add	x0, sp, 48
	mov	w1, 10
	strh	wzr, [sp, 48]
	bl	_ZN8opendnp38IINField6SetBitENS_6IINBitE
	ldrh	w0, [sp, 48]
.L42:
	adrp	x1, :got:__stack_chk_guard
	ldr	x1, [x1, #:got_lo12:__stack_chk_guard]
	ldr	x3, [sp, 56]
	ldr	x2, [x1]
	subs	x3, x3, x2
	mov	x2, 0
	bne	.L50
	ldp	x19, x20, [sp, 16]
	ldr	x21, [sp, 32]
	ldp	x29, x30, [sp], 64
	.cfi_remember_state
	.cfi_restore 30
	.cfi_restore 29
	.cfi_restore 21
	.cfi_restore 19
	.cfi_restore 20
	.cfi_def_cfa_offset 0
	ret
	.p2align 2,,3
.L44:
	.cfi_restore_state
	adrp	x1, :got:_ZN8opendnp314ICommandHeader20ApplyOperateResponseERKNS_11ICollectionINS_7IndexedINS_17AnalogOutputInt32EEEEE
	ldr	x2, [x2, 104]
	ldr	x1, [x1, #:got_lo12:_ZN8opendnp314ICommandHeader20ApplyOperateResponseERKNS_11ICollectionINS_7IndexedINS_17AnalogOutputInt32EEEEE]
	cmp	x2, x1
	beq	.L45
.L48:
	mov	x1, x21
	blr	x2
	mov	w0, 0
	b	.L42
.L50:
	bl	__stack_chk_fail
	.cfi_endproc
.LFE3135:
	.size	_ZN8opendnp313CommandSetOps13ProcessHeaderERKNS_12PrefixHeaderERKNS_11ICollectionINS_7IndexedINS_17AnalogOutputInt32EEEEE, .-_ZN8opendnp313CommandSetOps13ProcessHeaderERKNS_12PrefixHeaderERKNS_11ICollectionINS_7IndexedINS_17AnalogOutputInt32EEEEE
	.align	2
	.p2align 4,,11
	.global	_ZN8opendnp313CommandSetOps13ProcessHeaderERKNS_12PrefixHeaderERKNS_11ICollectionINS_7IndexedINS_19AnalogOutputFloat32EEEEE
	.type	_ZN8opendnp313CommandSetOps13ProcessHeaderERKNS_12PrefixHeaderERKNS_11ICollectionINS_7IndexedINS_19AnalogOutputFloat32EEEEE, %function
_ZN8opendnp313CommandSetOps13ProcessHeaderERKNS_12PrefixHeaderERKNS_11ICollectionINS_7IndexedINS_19AnalogOutputFloat32EEEEE:
.LFB3136:
	.cfi_startproc
	stp	x29, x30, [sp, -64]!
	.cfi_def_cfa_offset 64
	.cfi_offset 29, -64
	.cfi_offset 30, -56
	adrp	x3, :got:__stack_chk_guard
	mov	x29, sp
	ldr	x3, [x3, #:got_lo12:__stack_chk_guard]
	stp	x19, x20, [sp, 16]
	.cfi_offset 19, -48
	.cfi_offset 20, -40
	mov	x19, x1
	str	x21, [sp, 32]
	.cfi_offset 21, -32
	mov	x20, x0
	mov	x0, x1
	mov	x21, x2
	ldr	x1, [x3]
	str	x1, [sp, 56]
	mov	x1, 0
	bl	_ZNK8opendnp312HeaderRecord16GetQualifierCodeEv
	and	w3, w0, 255
	cmp	w3, 40
	bne	.L60
	ldr	x0, [x20, 24]
	ldr	w2, [x19, 12]
	ldp	x1, x0, [x0]
	sub	x0, x0, x1
	cmp	x2, x0, asr 3
	bcs	.L60
	ldrb	w3, [x20, 20]
	ldr	x0, [x1, x2, lsl 3]
	ldr	x2, [x0]
	cbnz	w3, .L55
	adrp	x1, :got:_ZN8opendnp314ICommandHeader19ApplySelectResponseERKNS_11ICollectionINS_7IndexedINS_19AnalogOutputFloat32EEEEE
	ldr	x2, [x2, 72]
	ldr	x1, [x1, #:got_lo12:_ZN8opendnp314ICommandHeader19ApplySelectResponseERKNS_11ICollectionINS_7IndexedINS_19AnalogOutputFloat32EEEEE]
	cmp	x2, x1
	bne	.L59
.L56:
	mov	w0, 0
	b	.L53
	.p2align 2,,3
.L60:
	add	x0, sp, 48
	mov	w1, 10
	strh	wzr, [sp, 48]
	bl	_ZN8opendnp38IINField6SetBitENS_6IINBitE
	ldrh	w0, [sp, 48]
.L53:
	adrp	x1, :got:__stack_chk_guard
	ldr	x1, [x1, #:got_lo12:__stack_chk_guard]
	ldr	x3, [sp, 56]
	ldr	x2, [x1]
	subs	x3, x3, x2
	mov	x2, 0
	bne	.L61
	ldp	x19, x20, [sp, 16]
	ldr	x21, [sp, 32]
	ldp	x29, x30, [sp], 64
	.cfi_remember_state
	.cfi_restore 30
	.cfi_restore 29
	.cfi_restore 21
	.cfi_restore 19
	.cfi_restore 20
	.cfi_def_cfa_offset 0
	ret
	.p2align 2,,3
.L55:
	.cfi_restore_state
	adrp	x1, :got:_ZN8opendnp314ICommandHeader20ApplyOperateResponseERKNS_11ICollectionINS_7IndexedINS_19AnalogOutputFloat32EEEEE
	ldr	x2, [x2, 112]
	ldr	x1, [x1, #:got_lo12:_ZN8opendnp314ICommandHeader20ApplyOperateResponseERKNS_11ICollectionINS_7IndexedINS_19AnalogOutputFloat32EEEEE]
	cmp	x2, x1
	beq	.L56
.L59:
	mov	x1, x21
	blr	x2
	mov	w0, 0
	b	.L53
.L61:
	bl	__stack_chk_fail
	.cfi_endproc
.LFE3136:
	.size	_ZN8opendnp313CommandSetOps13ProcessHeaderERKNS_12PrefixHeaderERKNS_11ICollectionINS_7IndexedINS_19AnalogOutputFloat32EEEEE, .-_ZN8opendnp313CommandSetOps13ProcessHeaderERKNS_12PrefixHeaderERKNS_11ICollectionINS_7IndexedINS_19AnalogOutputFloat32EEEEE
	.align	2
	.p2align 4,,11
	.global	_ZN8opendnp313CommandSetOps13ProcessHeaderERKNS_12PrefixHeaderERKNS_11ICollectionINS_7IndexedINS_20AnalogOutputDouble64EEEEE
	.type	_ZN8opendnp313CommandSetOps13ProcessHeaderERKNS_12PrefixHeaderERKNS_11ICollectionINS_7IndexedINS_20AnalogOutputDouble64EEEEE, %function
_ZN8opendnp313CommandSetOps13ProcessHeaderERKNS_12PrefixHeaderERKNS_11ICollectionINS_7IndexedINS_20AnalogOutputDouble64EEEEE:
.LFB3137:
	.cfi_startproc
	stp	x29, x30, [sp, -64]!
	.cfi_def_cfa_offset 64
	.cfi_offset 29, -64
	.cfi_offset 30, -56
	adrp	x3, :got:__stack_chk_guard
	mov	x29, sp
	ldr	x3, [x3, #:got_lo12:__stack_chk_guard]
	stp	x19, x20, [sp, 16]
	.cfi_offset 19, -48
	.cfi_offset 20, -40
	mov	x19, x1
	str	x21, [sp, 32]
	.cfi_offset 21, -32
	mov	x20, x0
	mov	x0, x1
	mov	x21, x2
	ldr	x1, [x3]
	str	x1, [sp, 56]
	mov	x1, 0
	bl	_ZNK8opendnp312HeaderRecord16GetQualifierCodeEv
	and	w3, w0, 255
	cmp	w3, 40
	bne	.L71
	ldr	x0, [x20, 24]
	ldr	w2, [x19, 12]
	ldp	x1, x0, [x0]
	sub	x0, x0, x1
	cmp	x2, x0, asr 3
	bcs	.L71
	ldrb	w3, [x20, 20]
	ldr	x0, [x1, x2, lsl 3]
	ldr	x2, [x0]
	cbnz	w3, .L66
	adrp	x1, :got:_ZN8opendnp314ICommandHeader19ApplySelectResponseERKNS_11ICollectionINS_7IndexedINS_20AnalogOutputDouble64EEEEE
	ldr	x2, [x2, 80]
	ldr	x1, [x1, #:got_lo12:_ZN8opendnp314ICommandHeader19ApplySelectResponseERKNS_11ICollectionINS_7IndexedINS_20AnalogOutputDouble64EEEEE]
	cmp	x2, x1
	bne	.L70
.L67:
	mov	w0, 0
	b	.L64
	.p2align 2,,3
.L71:
	add	x0, sp, 48
	mov	w1, 10
	strh	wzr, [sp, 48]
	bl	_ZN8opendnp38IINField6SetBitENS_6IINBitE
	ldrh	w0, [sp, 48]
.L64:
	adrp	x1, :got:__stack_chk_guard
	ldr	x1, [x1, #:got_lo12:__stack_chk_guard]
	ldr	x3, [sp, 56]
	ldr	x2, [x1]
	subs	x3, x3, x2
	mov	x2, 0
	bne	.L72
	ldp	x19, x20, [sp, 16]
	ldr	x21, [sp, 32]
	ldp	x29, x30, [sp], 64
	.cfi_remember_state
	.cfi_restore 30
	.cfi_restore 29
	.cfi_restore 21
	.cfi_restore 19
	.cfi_restore 20
	.cfi_def_cfa_offset 0
	ret
	.p2align 2,,3
.L66:
	.cfi_restore_state
	adrp	x1, :got:_ZN8opendnp314ICommandHeader20ApplyOperateResponseERKNS_11ICollectionINS_7IndexedINS_20AnalogOutputDouble64EEEEE
	ldr	x2, [x2, 120]
	ldr	x1, [x1, #:got_lo12:_ZN8opendnp314ICommandHeader20ApplyOperateResponseERKNS_11ICollectionINS_7IndexedINS_20AnalogOutputDouble64EEEEE]
	cmp	x2, x1
	beq	.L67
.L70:
	mov	x1, x21
	blr	x2
	mov	w0, 0
	b	.L64
.L72:
	bl	__stack_chk_fail
	.cfi_endproc
.LFE3137:
	.size	_ZN8opendnp313CommandSetOps13ProcessHeaderERKNS_12PrefixHeaderERKNS_11ICollectionINS_7IndexedINS_20AnalogOutputDouble64EEEEE, .-_ZN8opendnp313CommandSetOps13ProcessHeaderERKNS_12PrefixHeaderERKNS_11ICollectionINS_7IndexedINS_20AnalogOutputDouble64EEEEE
	.align	2
	.p2align 4,,11
	.global	_ZN8opendnp313CommandSetOpsC2ENS0_4ModeERNS_10CommandSetE
	.type	_ZN8opendnp313CommandSetOpsC2ENS0_4ModeERNS_10CommandSetE, %function
_ZN8opendnp313CommandSetOpsC2ENS0_4ModeERNS_10CommandSetE:
.LFB3117:
	.cfi_startproc
	stp	x29, x30, [sp, -48]!
	.cfi_def_cfa_offset 48
	.cfi_offset 29, -48
	.cfi_offset 30, -40
	mov	x29, sp
	stp	x19, x20, [sp, 16]
	.cfi_offset 19, -32
	.cfi_offset 20, -24
	mov	x19, x0
	mov	x20, x2
	str	x21, [sp, 32]
	.cfi_offset 21, -16
	and	w21, w1, 255
	bl	_ZN8opendnp312IAPDUHandlerC2Ev
	strb	w21, [x19, 20]
	adrp	x0, :got:_ZTVN8opendnp313CommandSetOpsE
	ldr	x21, [sp, 32]
	str	x20, [x19, 24]
	ldr	x0, [x0, #:got_lo12:_ZTVN8opendnp313CommandSetOpsE]
	add	x0, x0, 16
	str	x0, [x19]
	ldp	x19, x20, [sp, 16]
	ldp	x29, x30, [sp], 48
	.cfi_restore 30
	.cfi_restore 29
	.cfi_restore 21
	.cfi_restore 19
	.cfi_restore 20
	.cfi_def_cfa_offset 0
	ret
	.cfi_endproc
.LFE3117:
	.size	_ZN8opendnp313CommandSetOpsC2ENS0_4ModeERNS_10CommandSetE, .-_ZN8opendnp313CommandSetOpsC2ENS0_4ModeERNS_10CommandSetE
	.global	_ZN8opendnp313CommandSetOpsC1ENS0_4ModeERNS_10CommandSetE
	.set	_ZN8opendnp313CommandSetOpsC1ENS0_4ModeERNS_10CommandSetE,_ZN8opendnp313CommandSetOpsC2ENS0_4ModeERNS_10CommandSetE
	.align	2
	.p2align 4,,11
	.global	_ZN8opendnp313CommandSetOps5WriteERKNS_10CommandSetERNS_12HeaderWriterE
	.type	_ZN8opendnp313CommandSetOps5WriteERKNS_10CommandSetERNS_12HeaderWriterE, %function
_ZN8opendnp313CommandSetOps5WriteERKNS_10CommandSetERNS_12HeaderWriterE:
.LFB3119:
	.cfi_startproc
	stp	x29, x30, [sp, -48]!
	.cfi_def_cfa_offset 48
	.cfi_offset 29, -48
	.cfi_offset 30, -40
	mov	x29, sp
	stp	x19, x20, [sp, 16]
	.cfi_offset 19, -32
	.cfi_offset 20, -24
	ldr	x19, [x0]
	str	x21, [sp, 32]
	.cfi_offset 21, -16
	ldr	x21, [x0, 8]
	cmp	x21, x19
	beq	.L76
	mov	x20, x1
	b	.L78
	.p2align 2,,3
.L84:
	cmp	x21, x19
	beq	.L76
.L78:
	ldr	x0, [x19]
	mov	x1, x20
	add	x19, x19, 8
	ldr	x2, [x0]
	ldr	x2, [x2, 32]
	blr	x2
	ands	w0, w0, 255
	bne	.L84
	ldp	x19, x20, [sp, 16]
	ldr	x21, [sp, 32]
	ldp	x29, x30, [sp], 48
	.cfi_remember_state
	.cfi_restore 30
	.cfi_restore 29
	.cfi_restore 21
	.cfi_restore 19
	.cfi_restore 20
	.cfi_def_cfa_offset 0
	ret
	.p2align 2,,3
.L76:
	.cfi_restore_state
	mov	w0, 1
	ldp	x19, x20, [sp, 16]
	ldr	x21, [sp, 32]
	ldp	x29, x30, [sp], 48
	.cfi_restore 30
	.cfi_restore 29
	.cfi_restore 21
	.cfi_restore 19
	.cfi_restore 20
	.cfi_def_cfa_offset 0
	ret
	.cfi_endproc
.LFE3119:
	.size	_ZN8opendnp313CommandSetOps5WriteERKNS_10CommandSetERNS_12HeaderWriterE, .-_ZN8opendnp313CommandSetOps5WriteERKNS_10CommandSetERNS_12HeaderWriterE
	.align	2
	.p2align 4,,11
	.global	_ZN8opendnp313CommandSetOps14InvokeCallbackERKNS_10CommandSetENS_14TaskCompletionERSt8functionIFvRKNS_18ICommandTaskResultEEE
	.type	_ZN8opendnp313CommandSetOps14InvokeCallbackERKNS_10CommandSetENS_14TaskCompletionERSt8functionIFvRKNS_18ICommandTaskResultEEE, %function
_ZN8opendnp313CommandSetOps14InvokeCallbackERKNS_10CommandSetENS_14TaskCompletionERSt8functionIFvRKNS_18ICommandTaskResultEEE:
.LFB3120:
	.cfi_startproc
	stp	x29, x30, [sp, -64]!
	.cfi_def_cfa_offset 64
	.cfi_offset 29, -64
	.cfi_offset 30, -56
	adrp	x3, :got:__stack_chk_guard
	mov	x29, sp
	ldr	x3, [x3, #:got_lo12:__stack_chk_guard]
	stp	x19, x20, [sp, 16]
	.cfi_offset 19, -48
	.cfi_offset 20, -40
	mov	x19, x2
	ldr	x4, [x3]
	str	x4, [sp, 56]
	mov	x4, 0
	add	x20, sp, 32
	mov	x2, x0
	mov	x0, x20
	bl	_ZN8opendnp317CommandTaskResultC1ENS_14TaskCompletionERKSt6vectorIPNS_14ICommandHeaderESaIS4_EE
	ldr	x0, [x19, 16]
	cbz	x0, .L89
	ldr	x2, [x19, 24]
	mov	x1, x20
	mov	x0, x19
	blr	x2
	adrp	x0, :got:__stack_chk_guard
	ldr	x0, [x0, #:got_lo12:__stack_chk_guard]
	ldr	x2, [sp, 56]
	ldr	x1, [x0]
	subs	x2, x2, x1
	mov	x1, 0
	bne	.L90
	ldp	x19, x20, [sp, 16]
	ldp	x29, x30, [sp], 64
	.cfi_remember_state
	.cfi_restore 30
	.cfi_restore 29
	.cfi_restore 19
	.cfi_restore 20
	.cfi_def_cfa_offset 0
	ret
.L89:
	.cfi_restore_state
	bl	_ZSt25__throw_bad_function_callv
.L90:
	bl	__stack_chk_fail
	.cfi_endproc
.LFE3120:
	.size	_ZN8opendnp313CommandSetOps14InvokeCallbackERKNS_10CommandSetENS_14TaskCompletionERSt8functionIFvRKNS_18ICommandTaskResultEEE, .-_ZN8opendnp313CommandSetOps14InvokeCallbackERKNS_10CommandSetENS_14TaskCompletionERSt8functionIFvRKNS_18ICommandTaskResultEEE
	.align	2
	.p2align 4,,11
	.global	_ZN8opendnp313CommandSetOps21ProcessSelectResponseERNS_10CommandSetERKN7openpal6RSliceEPNS3_6LoggerE
	.type	_ZN8opendnp313CommandSetOps21ProcessSelectResponseERNS_10CommandSetERKN7openpal6RSliceEPNS3_6LoggerE, %function
_ZN8opendnp313CommandSetOps21ProcessSelectResponseERNS_10CommandSetERKN7openpal6RSliceEPNS3_6LoggerE:
.LFB3124:
	.cfi_startproc
	stp	x29, x30, [sp, -112]!
	.cfi_def_cfa_offset 112
	.cfi_offset 29, -112
	.cfi_offset 30, -104
	adrp	x3, :got:__stack_chk_guard
	mov	x29, sp
	ldr	x3, [x3, #:got_lo12:__stack_chk_guard]
	stp	x19, x20, [sp, 16]
	.cfi_offset 19, -96
	.cfi_offset 20, -88
	add	x19, sp, 72
	stp	x21, x22, [sp, 32]
	.cfi_offset 21, -80
	.cfi_offset 22, -72
	mov	x22, x2
	mov	x21, x0
	str	x23, [sp, 48]
	.cfi_offset 23, -64
	mov	x2, x0
	mov	x20, x1
	mov	w1, 0
	ldr	x0, [x3]
	str	x0, [sp, 104]
	mov	x0, 0
	mov	x23, 1
	mov	x0, x19
	bl	_ZN8opendnp313CommandSetOpsC1ENS0_4ModeERNS_10CommandSetE
	mov	x3, 0
	mov	x1, 8192
	bfi	x3, x23, 0, 8
	mov	x0, x20
	mov	x2, x22
	bfi	x3, x1, 32, 32
	mov	x1, x19
	bl	_ZN8opendnp310APDUParser5ParseERKN7openpal6RSliceERNS_12IAPDUHandlerEPNS1_6LoggerENS_14ParserSettingsE
	ands	w20, w0, 255
	beq	.L117
	mov	w20, w23
.L92:
	adrp	x0, :got:__stack_chk_guard
	ldr	x0, [x0, #:got_lo12:__stack_chk_guard]
	ldr	x2, [sp, 104]
	ldr	x1, [x0]
	subs	x2, x2, x1
	mov	x1, 0
	bne	.L118
	mov	w0, w20
	ldp	x19, x20, [sp, 16]
	ldp	x21, x22, [sp, 32]
	ldr	x23, [sp, 48]
	ldp	x29, x30, [sp], 112
	.cfi_remember_state
	.cfi_restore 30
	.cfi_restore 29
	.cfi_restore 23
	.cfi_restore 21
	.cfi_restore 22
	.cfi_restore 19
	.cfi_restore 20
	.cfi_def_cfa_offset 0
	ret
	.p2align 2,,3
.L117:
	.cfi_restore_state
	ldp	x19, x22, [x21]
	sub	x0, x22, x19
	asr	x21, x0, 5
	asr	x0, x0, 3
	cmp	x21, 0
	ble	.L93
	add	x21, x19, x21, lsl 5
	b	.L99
	.p2align 2,,3
.L94:
	ldr	x0, [x19, 8]
	ldr	x1, [x0]
	ldr	x1, [x1, 40]
	blr	x1
	tst	w0, 255
	beq	.L119
	ldr	x0, [x19, 16]
	ldr	x1, [x0]
	ldr	x1, [x1, 40]
	blr	x1
	tst	w0, 255
	beq	.L120
	ldr	x0, [x19, 24]
	ldr	x1, [x0]
	ldr	x1, [x1, 40]
	blr	x1
	tst	w0, 255
	beq	.L121
	add	x19, x19, 32
	cmp	x21, x19
	beq	.L122
.L99:
	ldr	x0, [x19]
	ldr	x1, [x0]
	ldr	x1, [x1, 40]
	blr	x1
	tst	w0, 255
	bne	.L94
.L116:
	cmp	x22, x19
	cset	w20, ne
	lsl	w20, w20, 1
	b	.L92
	.p2align 2,,3
.L122:
	sub	x0, x22, x19
	asr	x0, x0, 3
.L93:
	cmp	x0, 2
	beq	.L100
	cmp	x0, 3
	beq	.L101
	cmp	x0, 1
	bne	.L92
.L102:
	ldr	x0, [x19]
	ldr	x1, [x0]
	ldr	x1, [x1, 40]
	blr	x1
	tst	w0, 255
	bne	.L92
	b	.L116
	.p2align 2,,3
.L119:
	add	x19, x19, 8
	cmp	x22, x19
	cset	w20, ne
	lsl	w20, w20, 1
	b	.L92
	.p2align 2,,3
.L120:
	add	x19, x19, 16
	cmp	x22, x19
	cset	w20, ne
	lsl	w20, w20, 1
	b	.L92
	.p2align 2,,3
.L121:
	add	x19, x19, 24
	cmp	x22, x19
	cset	w20, ne
	lsl	w20, w20, 1
	b	.L92
.L101:
	ldr	x0, [x19]
	ldr	x1, [x0]
	ldr	x1, [x1, 40]
	blr	x1
	tst	w0, 255
	beq	.L116
	add	x19, x19, 8
.L100:
	ldr	x0, [x19]
	ldr	x1, [x0]
	ldr	x1, [x1, 40]
	blr	x1
	tst	w0, 255
	beq	.L116
	add	x19, x19, 8
	b	.L102
.L118:
	bl	__stack_chk_fail
	.cfi_endproc
.LFE3124:
	.size	_ZN8opendnp313CommandSetOps21ProcessSelectResponseERNS_10CommandSetERKN7openpal6RSliceEPNS3_6LoggerE, .-_ZN8opendnp313CommandSetOps21ProcessSelectResponseERNS_10CommandSetERKN7openpal6RSliceEPNS3_6LoggerE
	.align	2
	.p2align 4,,11
	.global	_ZN8opendnp313CommandSetOps22ProcessOperateResponseERNS_10CommandSetERKN7openpal6RSliceEPNS3_6LoggerE
	.type	_ZN8opendnp313CommandSetOps22ProcessOperateResponseERNS_10CommandSetERKN7openpal6RSliceEPNS3_6LoggerE, %function
_ZN8opendnp313CommandSetOps22ProcessOperateResponseERNS_10CommandSetERKN7openpal6RSliceEPNS3_6LoggerE:
.LFB3131:
	.cfi_startproc
	stp	x29, x30, [sp, -96]!
	.cfi_def_cfa_offset 96
	.cfi_offset 29, -96
	.cfi_offset 30, -88
	adrp	x3, :got:__stack_chk_guard
	mov	x29, sp
	ldr	x3, [x3, #:got_lo12:__stack_chk_guard]
	stp	x19, x20, [sp, 16]
	.cfi_offset 19, -80
	.cfi_offset 20, -72
	add	x19, sp, 56
	str	x21, [sp, 32]
	.cfi_offset 21, -64
	mov	x21, x2
	mov	x2, x0
	mov	x20, x1
	ldr	x0, [x3]
	str	x0, [sp, 88]
	mov	x0, 0
	mov	w1, 1
	mov	x0, x19
	bl	_ZN8opendnp313CommandSetOpsC1ENS0_4ModeERNS_10CommandSetE
	mov	x0, 1
	mov	x3, 0
	bfi	x3, x0, 0, 8
	mov	x4, 8192
	mov	x2, x21
	mov	x1, x19
	bfi	x3, x4, 32, 32
	mov	x0, x20
	bl	_ZN8opendnp310APDUParser5ParseERKN7openpal6RSliceERNS_12IAPDUHandlerEPNS1_6LoggerENS_14ParserSettingsE
	tst	w0, 255
	adrp	x1, :got:__stack_chk_guard
	cset	w0, ne
	ldr	x1, [x1, #:got_lo12:__stack_chk_guard]
	ldr	x3, [sp, 88]
	ldr	x2, [x1]
	subs	x3, x3, x2
	mov	x2, 0
	bne	.L126
	ldp	x19, x20, [sp, 16]
	ldr	x21, [sp, 32]
	ldp	x29, x30, [sp], 96
	.cfi_remember_state
	.cfi_restore 30
	.cfi_restore 29
	.cfi_restore 21
	.cfi_restore 19
	.cfi_restore 20
	.cfi_def_cfa_offset 0
	ret
.L126:
	.cfi_restore_state
	bl	__stack_chk_fail
	.cfi_endproc
.LFE3131:
	.size	_ZN8opendnp313CommandSetOps22ProcessOperateResponseERNS_10CommandSetERKN7openpal6RSliceEPNS3_6LoggerE, .-_ZN8opendnp313CommandSetOps22ProcessOperateResponseERNS_10CommandSetERKN7openpal6RSliceEPNS3_6LoggerE
	.weak	_ZTSN7openpal10UncopyableE
	.section	.rodata._ZTSN7openpal10UncopyableE,"aG",@progbits,_ZTSN7openpal10UncopyableE,comdat
	.align	3
	.type	_ZTSN7openpal10UncopyableE, %object
	.size	_ZTSN7openpal10UncopyableE, 23
_ZTSN7openpal10UncopyableE:
	.string	"N7openpal10UncopyableE"
	.weak	_ZTIN7openpal10UncopyableE
	.section	.data.rel.ro._ZTIN7openpal10UncopyableE,"awG",@progbits,_ZTIN7openpal10UncopyableE,comdat
	.align	3
	.type	_ZTIN7openpal10UncopyableE, %object
	.size	_ZTIN7openpal10UncopyableE, 16
_ZTIN7openpal10UncopyableE:
	.xword	_ZTVN10__cxxabiv117__class_type_infoE+16
	.xword	_ZTSN7openpal10UncopyableE
	.weak	_ZTSN8opendnp313CommandSetOpsE
	.section	.rodata._ZTSN8opendnp313CommandSetOpsE,"aG",@progbits,_ZTSN8opendnp313CommandSetOpsE,comdat
	.align	3
	.type	_ZTSN8opendnp313CommandSetOpsE, %object
	.size	_ZTSN8opendnp313CommandSetOpsE, 27
_ZTSN8opendnp313CommandSetOpsE:
	.string	"N8opendnp313CommandSetOpsE"
	.weak	_ZTIN8opendnp313CommandSetOpsE
	.section	.data.rel.ro._ZTIN8opendnp313CommandSetOpsE,"awG",@progbits,_ZTIN8opendnp313CommandSetOpsE,comdat
	.align	3
	.type	_ZTIN8opendnp313CommandSetOpsE, %object
	.size	_ZTIN8opendnp313CommandSetOpsE, 56
_ZTIN8opendnp313CommandSetOpsE:
	.xword	_ZTVN10__cxxabiv121__vmi_class_type_infoE+16
	.xword	_ZTSN8opendnp313CommandSetOpsE
	.word	0
	.word	2
	.xword	_ZTIN8opendnp312IAPDUHandlerE
	.xword	2
	.xword	_ZTIN7openpal10UncopyableE
	.xword	0
	.weak	_ZTVN8opendnp313CommandSetOpsE
	.section	.data.rel.ro._ZTVN8opendnp313CommandSetOpsE,"awG",@progbits,_ZTVN8opendnp313CommandSetOpsE,comdat
	.align	3
	.type	_ZTVN8opendnp313CommandSetOpsE, %object
	.size	_ZTVN8opendnp313CommandSetOpsE, 448
_ZTVN8opendnp313CommandSetOpsE:
	.xword	0
	.xword	_ZTIN8opendnp313CommandSetOpsE
	.xword	_ZN8opendnp313CommandSetOps9IsAllowedEjNS_14GroupVariationENS_13QualifierCodeE
	.xword	_ZN8opendnp312IAPDUHandler13ProcessHeaderERKNS_16AllObjectsHeaderE
	.xword	_ZN8opendnp312IAPDUHandler13ProcessHeaderERKNS_11RangeHeaderE
	.xword	_ZN8opendnp312IAPDUHandler13ProcessHeaderERKNS_11CountHeaderE
	.xword	_ZN8opendnp312IAPDUHandler13ProcessHeaderERKNS_16FreeFormatHeaderERKNS_12Group120Var1ERKN7openpal6RSliceE
	.xword	_ZN8opendnp312IAPDUHandler13ProcessHeaderERKNS_16FreeFormatHeaderERKNS_12Group120Var2ERKN7openpal6RSliceE
	.xword	_ZN8opendnp312IAPDUHandler13ProcessHeaderERKNS_16FreeFormatHeaderERKNS_12Group120Var5ERKN7openpal6RSliceE
	.xword	_ZN8opendnp312IAPDUHandler13ProcessHeaderERKNS_16FreeFormatHeaderERKNS_12Group120Var6ERKN7openpal6RSliceE
	.xword	_ZN8opendnp312IAPDUHandler13ProcessHeaderERKNS_16FreeFormatHeaderERKNS_12Group120Var8ERKN7openpal6RSliceE
	.xword	_ZN8opendnp312IAPDUHandler13ProcessHeaderERKNS_16FreeFormatHeaderERKNS_12Group120Var7ERKN7openpal6RSliceE
	.xword	_ZN8opendnp312IAPDUHandler13ProcessHeaderERKNS_16FreeFormatHeaderERKNS_12Group120Var9ERKN7openpal6RSliceE
	.xword	_ZN8opendnp312IAPDUHandler13ProcessHeaderERKNS_16FreeFormatHeaderERKNS_13Group120Var10ERKN7openpal6RSliceE
	.xword	_ZN8opendnp312IAPDUHandler13ProcessHeaderERKNS_16FreeFormatHeaderERKNS_13Group120Var11ERKN7openpal6RSliceE
	.xword	_ZN8opendnp312IAPDUHandler13ProcessHeaderERKNS_16FreeFormatHeaderERKNS_13Group120Var12ERKN7openpal6RSliceE
	.xword	_ZN8opendnp312IAPDUHandler13ProcessHeaderERKNS_16FreeFormatHeaderERKNS_13Group120Var13ERKN7openpal6RSliceE
	.xword	_ZN8opendnp312IAPDUHandler13ProcessHeaderERKNS_16FreeFormatHeaderERKNS_13Group120Var14ERKN7openpal6RSliceE
	.xword	_ZN8opendnp312IAPDUHandler13ProcessHeaderERKNS_16FreeFormatHeaderERKNS_13Group120Var15ERKN7openpal6RSliceE
	.xword	_ZN8opendnp312IAPDUHandler13ProcessHeaderERKNS_11CountHeaderERKNS_11ICollectionINS_11Group50Var1EEE
	.xword	_ZN8opendnp312IAPDUHandler13ProcessHeaderERKNS_11CountHeaderERKNS_11ICollectionINS_11Group51Var1EEE
	.xword	_ZN8opendnp312IAPDUHandler13ProcessHeaderERKNS_11CountHeaderERKNS_11ICollectionINS_11Group51Var2EEE
	.xword	_ZN8opendnp312IAPDUHandler13ProcessHeaderERKNS_11CountHeaderERKNS_11ICollectionINS_11Group52Var1EEE
	.xword	_ZN8opendnp312IAPDUHandler13ProcessHeaderERKNS_11CountHeaderERKNS_11ICollectionINS_11Group52Var2EEE
	.xword	_ZN8opendnp312IAPDUHandler13ProcessHeaderERKNS_11CountHeaderERKNS_11ICollectionINS_12Group120Var3EEE
	.xword	_ZN8opendnp312IAPDUHandler13ProcessHeaderERKNS_11CountHeaderERKNS_11ICollectionINS_12Group120Var4EEE
	.xword	_ZN8opendnp312IAPDUHandler13ProcessHeaderERKNS_11RangeHeaderERKNS_11ICollectionINS_7IndexedINS_8IINValueEEEEE
	.xword	_ZN8opendnp312IAPDUHandler13ProcessHeaderERKNS_11RangeHeaderERKNS_11ICollectionINS_7IndexedINS_6BinaryEEEEE
	.xword	_ZN8opendnp312IAPDUHandler13ProcessHeaderERKNS_11RangeHeaderERKNS_11ICollectionINS_7IndexedINS_15DoubleBitBinaryEEEEE
	.xword	_ZN8opendnp312IAPDUHandler13ProcessHeaderERKNS_11RangeHeaderERKNS_11ICollectionINS_7IndexedINS_18BinaryOutputStatusEEEEE
	.xword	_ZN8opendnp312IAPDUHandler13ProcessHeaderERKNS_11RangeHeaderERKNS_11ICollectionINS_7IndexedINS_7CounterEEEEE
	.xword	_ZN8opendnp312IAPDUHandler13ProcessHeaderERKNS_11RangeHeaderERKNS_11ICollectionINS_7IndexedINS_13FrozenCounterEEEEE
	.xword	_ZN8opendnp312IAPDUHandler13ProcessHeaderERKNS_11RangeHeaderERKNS_11ICollectionINS_7IndexedINS_6AnalogEEEEE
	.xword	_ZN8opendnp312IAPDUHandler13ProcessHeaderERKNS_11RangeHeaderERKNS_11ICollectionINS_7IndexedINS_18AnalogOutputStatusEEEEE
	.xword	_ZN8opendnp312IAPDUHandler13ProcessHeaderERKNS_11RangeHeaderERKNS_11ICollectionINS_7IndexedINS_11OctetStringEEEEE
	.xword	_ZN8opendnp312IAPDUHandler13ProcessHeaderERKNS_11RangeHeaderERKNS_11ICollectionINS_7IndexedINS_15TimeAndIntervalEEEEE
	.xword	_ZN8opendnp312IAPDUHandler13ProcessHeaderERKNS_11RangeHeaderERKNS_11ICollectionINS_7IndexedINS_12Group121Var1EEEEE
	.xword	_ZN8opendnp312IAPDUHandler13ProcessHeaderERKNS_12PrefixHeaderERKNS_11ICollectionINS_7IndexedINS_6BinaryEEEEE
	.xword	_ZN8opendnp312IAPDUHandler13ProcessHeaderERKNS_12PrefixHeaderERKNS_11ICollectionINS_7IndexedINS_18BinaryOutputStatusEEEEE
	.xword	_ZN8opendnp312IAPDUHandler13ProcessHeaderERKNS_12PrefixHeaderERKNS_11ICollectionINS_7IndexedINS_15DoubleBitBinaryEEEEE
	.xword	_ZN8opendnp312IAPDUHandler13ProcessHeaderERKNS_12PrefixHeaderERKNS_11ICollectionINS_7IndexedINS_7CounterEEEEE
	.xword	_ZN8opendnp312IAPDUHandler13ProcessHeaderERKNS_12PrefixHeaderERKNS_11ICollectionINS_7IndexedINS_13FrozenCounterEEEEE
	.xword	_ZN8opendnp312IAPDUHandler13ProcessHeaderERKNS_12PrefixHeaderERKNS_11ICollectionINS_7IndexedINS_6AnalogEEEEE
	.xword	_ZN8opendnp312IAPDUHandler13ProcessHeaderERKNS_12PrefixHeaderERKNS_11ICollectionINS_7IndexedINS_18AnalogOutputStatusEEEEE
	.xword	_ZN8opendnp312IAPDUHandler13ProcessHeaderERKNS_12PrefixHeaderERKNS_11ICollectionINS_7IndexedINS_11OctetStringEEEEE
	.xword	_ZN8opendnp312IAPDUHandler13ProcessHeaderERKNS_12PrefixHeaderERKNS_11ICollectionINS_7IndexedINS_15TimeAndIntervalEEEEE
	.xword	_ZN8opendnp312IAPDUHandler13ProcessHeaderERKNS_12PrefixHeaderERKNS_11ICollectionINS_7IndexedINS_18BinaryCommandEventEEEEE
	.xword	_ZN8opendnp312IAPDUHandler13ProcessHeaderERKNS_12PrefixHeaderERKNS_11ICollectionINS_7IndexedINS_18AnalogCommandEventEEEEE
	.xword	_ZN8opendnp312IAPDUHandler13ProcessHeaderERKNS_12PrefixHeaderERKNS_11ICollectionINS_7IndexedINS_12Group122Var1EEEEE
	.xword	_ZN8opendnp312IAPDUHandler13ProcessHeaderERKNS_12PrefixHeaderERKNS_11ICollectionINS_7IndexedINS_12Group122Var2EEEEE
	.xword	_ZN8opendnp313CommandSetOps13ProcessHeaderERKNS_12PrefixHeaderERKNS_11ICollectionINS_7IndexedINS_23ControlRelayOutputBlockEEEEE
	.xword	_ZN8opendnp313CommandSetOps13ProcessHeaderERKNS_12PrefixHeaderERKNS_11ICollectionINS_7IndexedINS_17AnalogOutputInt16EEEEE
	.xword	_ZN8opendnp313CommandSetOps13ProcessHeaderERKNS_12PrefixHeaderERKNS_11ICollectionINS_7IndexedINS_17AnalogOutputInt32EEEEE
	.xword	_ZN8opendnp313CommandSetOps13ProcessHeaderERKNS_12PrefixHeaderERKNS_11ICollectionINS_7IndexedINS_19AnalogOutputFloat32EEEEE
	.xword	_ZN8opendnp313CommandSetOps13ProcessHeaderERKNS_12PrefixHeaderERKNS_11ICollectionINS_7IndexedINS_20AnalogOutputDouble64EEEEE
	.xword	_ZN8opendnp312IAPDUHandler14OnHeaderResultERKNS_12HeaderRecordERKNS_8IINFieldE
	.ident	"GCC: (Ubuntu 11.4.0-1ubuntu1~22.04) 11.4.0"
	.section	.note.GNU-stack,"",@progbits
