	.arch armv8-a
	.file	"CommandSet.cpp"
	.text
	.section	.text._ZN8opendnp314ICommandHeader19ApplySelectResponseERKNS_11ICollectionINS_7IndexedINS_23ControlRelayOutputBlockEEEEE,"axG",@progbits,_ZN8opendnp314ICommandHeader19ApplySelectResponseERKNS_11ICollectionINS_7IndexedINS_23ControlRelayOutputBlockEEEEE,comdat
	.align	2
	.p2align 4,,11
	.weak	_ZN8opendnp314ICommandHeader19ApplySelectResponseERKNS_11ICollectionINS_7IndexedINS_23ControlRelayOutputBlockEEEEE
	.type	_ZN8opendnp314ICommandHeader19ApplySelectResponseERKNS_11ICollectionINS_7IndexedINS_23ControlRelayOutputBlockEEEEE, %function
_ZN8opendnp314ICommandHeader19ApplySelectResponseERKNS_11ICollectionINS_7IndexedINS_23ControlRelayOutputBlockEEEEE:
.LFB898:
	.cfi_startproc
	ret
	.cfi_endproc
.LFE898:
	.size	_ZN8opendnp314ICommandHeader19ApplySelectResponseERKNS_11ICollectionINS_7IndexedINS_23ControlRelayOutputBlockEEEEE, .-_ZN8opendnp314ICommandHeader19ApplySelectResponseERKNS_11ICollectionINS_7IndexedINS_23ControlRelayOutputBlockEEEEE
	.section	.text._ZN8opendnp314ICommandHeader19ApplySelectResponseERKNS_11ICollectionINS_7IndexedINS_17AnalogOutputInt16EEEEE,"axG",@progbits,_ZN8opendnp314ICommandHeader19ApplySelectResponseERKNS_11ICollectionINS_7IndexedINS_17AnalogOutputInt16EEEEE,comdat
	.align	2
	.p2align 4,,11
	.weak	_ZN8opendnp314ICommandHeader19ApplySelectResponseERKNS_11ICollectionINS_7IndexedINS_17AnalogOutputInt16EEEEE
	.type	_ZN8opendnp314ICommandHeader19ApplySelectResponseERKNS_11ICollectionINS_7IndexedINS_17AnalogOutputInt16EEEEE, %function
_ZN8opendnp314ICommandHeader19ApplySelectResponseERKNS_11ICollectionINS_7IndexedINS_17AnalogOutputInt16EEEEE:
.LFB899:
	.cfi_startproc
	ret
	.cfi_endproc
.LFE899:
	.size	_ZN8opendnp314ICommandHeader19ApplySelectResponseERKNS_11ICollectionINS_7IndexedINS_17AnalogOutputInt16EEEEE, .-_ZN8opendnp314ICommandHeader19ApplySelectResponseERKNS_11ICollectionINS_7IndexedINS_17AnalogOutputInt16EEEEE
	.section	.text._ZN8opendnp314ICommandHeader19ApplySelectResponseERKNS_11ICollectionINS_7IndexedINS_17AnalogOutputInt32EEEEE,"axG",@progbits,_ZN8opendnp314ICommandHeader19ApplySelectResponseERKNS_11ICollectionINS_7IndexedINS_17AnalogOutputInt32EEEEE,comdat
	.align	2
	.p2align 4,,11
	.weak	_ZN8opendnp314ICommandHeader19ApplySelectResponseERKNS_11ICollectionINS_7IndexedINS_17AnalogOutputInt32EEEEE
	.type	_ZN8opendnp314ICommandHeader19ApplySelectResponseERKNS_11ICollectionINS_7IndexedINS_17AnalogOutputInt32EEEEE, %function
_ZN8opendnp314ICommandHeader19ApplySelectResponseERKNS_11ICollectionINS_7IndexedINS_17AnalogOutputInt32EEEEE:
.LFB900:
	.cfi_startproc
	ret
	.cfi_endproc
.LFE900:
	.size	_ZN8opendnp314ICommandHeader19ApplySelectResponseERKNS_11ICollectionINS_7IndexedINS_17AnalogOutputInt32EEEEE, .-_ZN8opendnp314ICommandHeader19ApplySelectResponseERKNS_11ICollectionINS_7IndexedINS_17AnalogOutputInt32EEEEE
	.section	.text._ZN8opendnp314ICommandHeader19ApplySelectResponseERKNS_11ICollectionINS_7IndexedINS_19AnalogOutputFloat32EEEEE,"axG",@progbits,_ZN8opendnp314ICommandHeader19ApplySelectResponseERKNS_11ICollectionINS_7IndexedINS_19AnalogOutputFloat32EEEEE,comdat
	.align	2
	.p2align 4,,11
	.weak	_ZN8opendnp314ICommandHeader19ApplySelectResponseERKNS_11ICollectionINS_7IndexedINS_19AnalogOutputFloat32EEEEE
	.type	_ZN8opendnp314ICommandHeader19ApplySelectResponseERKNS_11ICollectionINS_7IndexedINS_19AnalogOutputFloat32EEEEE, %function
_ZN8opendnp314ICommandHeader19ApplySelectResponseERKNS_11ICollectionINS_7IndexedINS_19AnalogOutputFloat32EEEEE:
.LFB901:
	.cfi_startproc
	ret
	.cfi_endproc
.LFE901:
	.size	_ZN8opendnp314ICommandHeader19ApplySelectResponseERKNS_11ICollectionINS_7IndexedINS_19AnalogOutputFloat32EEEEE, .-_ZN8opendnp314ICommandHeader19ApplySelectResponseERKNS_11ICollectionINS_7IndexedINS_19AnalogOutputFloat32EEEEE
	.section	.text._ZN8opendnp314ICommandHeader19ApplySelectResponseERKNS_11ICollectionINS_7IndexedINS_20AnalogOutputDouble64EEEEE,"axG",@progbits,_ZN8opendnp314ICommandHeader19ApplySelectResponseERKNS_11ICollectionINS_7IndexedINS_20AnalogOutputDouble64EEEEE,comdat
	.align	2
	.p2align 4,,11
	.weak	_ZN8opendnp314ICommandHeader19ApplySelectResponseERKNS_11ICollectionINS_7IndexedINS_20AnalogOutputDouble64EEEEE
	.type	_ZN8opendnp314ICommandHeader19ApplySelectResponseERKNS_11ICollectionINS_7IndexedINS_20AnalogOutputDouble64EEEEE, %function
_ZN8opendnp314ICommandHeader19ApplySelectResponseERKNS_11ICollectionINS_7IndexedINS_20AnalogOutputDouble64EEEEE:
.LFB902:
	.cfi_startproc
	ret
	.cfi_endproc
.LFE902:
	.size	_ZN8opendnp314ICommandHeader19ApplySelectResponseERKNS_11ICollectionINS_7IndexedINS_20AnalogOutputDouble64EEEEE, .-_ZN8opendnp314ICommandHeader19ApplySelectResponseERKNS_11ICollectionINS_7IndexedINS_20AnalogOutputDouble64EEEEE
	.section	.text._ZN8opendnp314ICommandHeader20ApplyOperateResponseERKNS_11ICollectionINS_7IndexedINS_23ControlRelayOutputBlockEEEEE,"axG",@progbits,_ZN8opendnp314ICommandHeader20ApplyOperateResponseERKNS_11ICollectionINS_7IndexedINS_23ControlRelayOutputBlockEEEEE,comdat
	.align	2
	.p2align 4,,11
	.weak	_ZN8opendnp314ICommandHeader20ApplyOperateResponseERKNS_11ICollectionINS_7IndexedINS_23ControlRelayOutputBlockEEEEE
	.type	_ZN8opendnp314ICommandHeader20ApplyOperateResponseERKNS_11ICollectionINS_7IndexedINS_23ControlRelayOutputBlockEEEEE, %function
_ZN8opendnp314ICommandHeader20ApplyOperateResponseERKNS_11ICollectionINS_7IndexedINS_23ControlRelayOutputBlockEEEEE:
.LFB903:
	.cfi_startproc
	ret
	.cfi_endproc
.LFE903:
	.size	_ZN8opendnp314ICommandHeader20ApplyOperateResponseERKNS_11ICollectionINS_7IndexedINS_23ControlRelayOutputBlockEEEEE, .-_ZN8opendnp314ICommandHeader20ApplyOperateResponseERKNS_11ICollectionINS_7IndexedINS_23ControlRelayOutputBlockEEEEE
	.section	.text._ZN8opendnp314ICommandHeader20ApplyOperateResponseERKNS_11ICollectionINS_7IndexedINS_17AnalogOutputInt16EEEEE,"axG",@progbits,_ZN8opendnp314ICommandHeader20ApplyOperateResponseERKNS_11ICollectionINS_7IndexedINS_17AnalogOutputInt16EEEEE,comdat
	.align	2
	.p2align 4,,11
	.weak	_ZN8opendnp314ICommandHeader20ApplyOperateResponseERKNS_11ICollectionINS_7IndexedINS_17AnalogOutputInt16EEEEE
	.type	_ZN8opendnp314ICommandHeader20ApplyOperateResponseERKNS_11ICollectionINS_7IndexedINS_17AnalogOutputInt16EEEEE, %function
_ZN8opendnp314ICommandHeader20ApplyOperateResponseERKNS_11ICollectionINS_7IndexedINS_17AnalogOutputInt16EEEEE:
.LFB904:
	.cfi_startproc
	ret
	.cfi_endproc
.LFE904:
	.size	_ZN8opendnp314ICommandHeader20ApplyOperateResponseERKNS_11ICollectionINS_7IndexedINS_17AnalogOutputInt16EEEEE, .-_ZN8opendnp314ICommandHeader20ApplyOperateResponseERKNS_11ICollectionINS_7IndexedINS_17AnalogOutputInt16EEEEE
	.section	.text._ZN8opendnp314ICommandHeader20ApplyOperateResponseERKNS_11ICollectionINS_7IndexedINS_17AnalogOutputInt32EEEEE,"axG",@progbits,_ZN8opendnp314ICommandHeader20ApplyOperateResponseERKNS_11ICollectionINS_7IndexedINS_17AnalogOutputInt32EEEEE,comdat
	.align	2
	.p2align 4,,11
	.weak	_ZN8opendnp314ICommandHeader20ApplyOperateResponseERKNS_11ICollectionINS_7IndexedINS_17AnalogOutputInt32EEEEE
	.type	_ZN8opendnp314ICommandHeader20ApplyOperateResponseERKNS_11ICollectionINS_7IndexedINS_17AnalogOutputInt32EEEEE, %function
_ZN8opendnp314ICommandHeader20ApplyOperateResponseERKNS_11ICollectionINS_7IndexedINS_17AnalogOutputInt32EEEEE:
.LFB905:
	.cfi_startproc
	ret
	.cfi_endproc
.LFE905:
	.size	_ZN8opendnp314ICommandHeader20ApplyOperateResponseERKNS_11ICollectionINS_7IndexedINS_17AnalogOutputInt32EEEEE, .-_ZN8opendnp314ICommandHeader20ApplyOperateResponseERKNS_11ICollectionINS_7IndexedINS_17AnalogOutputInt32EEEEE
	.section	.text._ZN8opendnp314ICommandHeader20ApplyOperateResponseERKNS_11ICollectionINS_7IndexedINS_19AnalogOutputFloat32EEEEE,"axG",@progbits,_ZN8opendnp314ICommandHeader20ApplyOperateResponseERKNS_11ICollectionINS_7IndexedINS_19AnalogOutputFloat32EEEEE,comdat
	.align	2
	.p2align 4,,11
	.weak	_ZN8opendnp314ICommandHeader20ApplyOperateResponseERKNS_11ICollectionINS_7IndexedINS_19AnalogOutputFloat32EEEEE
	.type	_ZN8opendnp314ICommandHeader20ApplyOperateResponseERKNS_11ICollectionINS_7IndexedINS_19AnalogOutputFloat32EEEEE, %function
_ZN8opendnp314ICommandHeader20ApplyOperateResponseERKNS_11ICollectionINS_7IndexedINS_19AnalogOutputFloat32EEEEE:
.LFB906:
	.cfi_startproc
	ret
	.cfi_endproc
.LFE906:
	.size	_ZN8opendnp314ICommandHeader20ApplyOperateResponseERKNS_11ICollectionINS_7IndexedINS_19AnalogOutputFloat32EEEEE, .-_ZN8opendnp314ICommandHeader20ApplyOperateResponseERKNS_11ICollectionINS_7IndexedINS_19AnalogOutputFloat32EEEEE
	.section	.text._ZN8opendnp314ICommandHeader20ApplyOperateResponseERKNS_11ICollectionINS_7IndexedINS_20AnalogOutputDouble64EEEEE,"axG",@progbits,_ZN8opendnp314ICommandHeader20ApplyOperateResponseERKNS_11ICollectionINS_7IndexedINS_20AnalogOutputDouble64EEEEE,comdat
	.align	2
	.p2align 4,,11
	.weak	_ZN8opendnp314ICommandHeader20ApplyOperateResponseERKNS_11ICollectionINS_7IndexedINS_20AnalogOutputDouble64EEEEE
	.type	_ZN8opendnp314ICommandHeader20ApplyOperateResponseERKNS_11ICollectionINS_7IndexedINS_20AnalogOutputDouble64EEEEE, %function
_ZN8opendnp314ICommandHeader20ApplyOperateResponseERKNS_11ICollectionINS_7IndexedINS_20AnalogOutputDouble64EEEEE:
.LFB907:
	.cfi_startproc
	ret
	.cfi_endproc
.LFE907:
	.size	_ZN8opendnp314ICommandHeader20ApplyOperateResponseERKNS_11ICollectionINS_7IndexedINS_20AnalogOutputDouble64EEEEE, .-_ZN8opendnp314ICommandHeader20ApplyOperateResponseERKNS_11ICollectionINS_7IndexedINS_20AnalogOutputDouble64EEEEE
	.section	.text._ZNK8opendnp318TypedCommandHeaderINS_20AnalogOutputDouble64EE5CountEv,"axG",@progbits,_ZNK8opendnp318TypedCommandHeaderINS_20AnalogOutputDouble64EE5CountEv,comdat
	.align	2
	.p2align 4,,11
	.weak	_ZNK8opendnp318TypedCommandHeaderINS_20AnalogOutputDouble64EE5CountEv
	.type	_ZNK8opendnp318TypedCommandHeaderINS_20AnalogOutputDouble64EE5CountEv, %function
_ZNK8opendnp318TypedCommandHeaderINS_20AnalogOutputDouble64EE5CountEv:
.LFB1848:
	.cfi_startproc
	ldp	x2, x0, [x0, 48]
	mov	x1, -6148914691236517206
	movk	x1, 0xaaab, lsl 0
	sub	x0, x0, x2
	asr	x0, x0, 3
	mul	x0, x0, x1
	ret
	.cfi_endproc
.LFE1848:
	.size	_ZNK8opendnp318TypedCommandHeaderINS_20AnalogOutputDouble64EE5CountEv, .-_ZNK8opendnp318TypedCommandHeaderINS_20AnalogOutputDouble64EE5CountEv
	.section	.text._ZNK8opendnp318TypedCommandHeaderINS_20AnalogOutputDouble64EE7ForeachERNS_8IVisitorINS_12CommandStateEEE,"axG",@progbits,_ZNK8opendnp318TypedCommandHeaderINS_20AnalogOutputDouble64EE7ForeachERNS_8IVisitorINS_12CommandStateEEE,comdat
	.align	2
	.p2align 4,,11
	.weak	_ZNK8opendnp318TypedCommandHeaderINS_20AnalogOutputDouble64EE7ForeachERNS_8IVisitorINS_12CommandStateEEE
	.type	_ZNK8opendnp318TypedCommandHeaderINS_20AnalogOutputDouble64EE7ForeachERNS_8IVisitorINS_12CommandStateEEE, %function
_ZNK8opendnp318TypedCommandHeaderINS_20AnalogOutputDouble64EE7ForeachERNS_8IVisitorINS_12CommandStateEEE:
.LFB1849:
	.cfi_startproc
	stp	x29, x30, [sp, -48]!
	.cfi_def_cfa_offset 48
	.cfi_offset 29, -48
	.cfi_offset 30, -40
	mov	x29, sp
	stp	x19, x20, [sp, 16]
	.cfi_offset 19, -32
	.cfi_offset 20, -24
	ldr	x19, [x0, 48]
	str	x21, [sp, 32]
	.cfi_offset 21, -16
	ldr	x21, [x0, 56]
	cmp	x21, x19
	beq	.L13
	mov	x20, x1
	.p2align 3,,7
.L15:
	ldr	x2, [x20]
	mov	x1, x19
	mov	x0, x20
	add	x19, x19, 24
	ldr	x2, [x2]
	blr	x2
	cmp	x21, x19
	bne	.L15
.L13:
	ldp	x19, x20, [sp, 16]
	ldr	x21, [sp, 32]
	ldp	x29, x30, [sp], 48
	.cfi_restore 30
	.cfi_restore 29
	.cfi_restore 21
	.cfi_restore 19
	.cfi_restore 20
	.cfi_def_cfa_offset 0
	ret
	.cfi_endproc
.LFE1849:
	.size	_ZNK8opendnp318TypedCommandHeaderINS_20AnalogOutputDouble64EE7ForeachERNS_8IVisitorINS_12CommandStateEEE, .-_ZNK8opendnp318TypedCommandHeaderINS_20AnalogOutputDouble64EE7ForeachERNS_8IVisitorINS_12CommandStateEEE
	.section	.text._ZNK8opendnp318TypedCommandHeaderINS_19AnalogOutputFloat32EE5CountEv,"axG",@progbits,_ZNK8opendnp318TypedCommandHeaderINS_19AnalogOutputFloat32EE5CountEv,comdat
	.align	2
	.p2align 4,,11
	.weak	_ZNK8opendnp318TypedCommandHeaderINS_19AnalogOutputFloat32EE5CountEv
	.type	_ZNK8opendnp318TypedCommandHeaderINS_19AnalogOutputFloat32EE5CountEv, %function
_ZNK8opendnp318TypedCommandHeaderINS_19AnalogOutputFloat32EE5CountEv:
.LFB1860:
	.cfi_startproc
	ldp	x2, x0, [x0, 48]
	mov	x1, -6148914691236517206
	movk	x1, 0xaaab, lsl 0
	sub	x0, x0, x2
	asr	x0, x0, 2
	mul	x0, x0, x1
	ret
	.cfi_endproc
.LFE1860:
	.size	_ZNK8opendnp318TypedCommandHeaderINS_19AnalogOutputFloat32EE5CountEv, .-_ZNK8opendnp318TypedCommandHeaderINS_19AnalogOutputFloat32EE5CountEv
	.section	.text._ZNK8opendnp318TypedCommandHeaderINS_19AnalogOutputFloat32EE7ForeachERNS_8IVisitorINS_12CommandStateEEE,"axG",@progbits,_ZNK8opendnp318TypedCommandHeaderINS_19AnalogOutputFloat32EE7ForeachERNS_8IVisitorINS_12CommandStateEEE,comdat
	.align	2
	.p2align 4,,11
	.weak	_ZNK8opendnp318TypedCommandHeaderINS_19AnalogOutputFloat32EE7ForeachERNS_8IVisitorINS_12CommandStateEEE
	.type	_ZNK8opendnp318TypedCommandHeaderINS_19AnalogOutputFloat32EE7ForeachERNS_8IVisitorINS_12CommandStateEEE, %function
_ZNK8opendnp318TypedCommandHeaderINS_19AnalogOutputFloat32EE7ForeachERNS_8IVisitorINS_12CommandStateEEE:
.LFB1861:
	.cfi_startproc
	stp	x29, x30, [sp, -48]!
	.cfi_def_cfa_offset 48
	.cfi_offset 29, -48
	.cfi_offset 30, -40
	mov	x29, sp
	stp	x19, x20, [sp, 16]
	.cfi_offset 19, -32
	.cfi_offset 20, -24
	ldr	x19, [x0, 48]
	str	x21, [sp, 32]
	.cfi_offset 21, -16
	ldr	x21, [x0, 56]
	cmp	x21, x19
	beq	.L19
	mov	x20, x1
	.p2align 3,,7
.L21:
	ldr	x2, [x20]
	mov	x1, x19
	mov	x0, x20
	add	x19, x19, 12
	ldr	x2, [x2]
	blr	x2
	cmp	x21, x19
	bne	.L21
.L19:
	ldp	x19, x20, [sp, 16]
	ldr	x21, [sp, 32]
	ldp	x29, x30, [sp], 48
	.cfi_restore 30
	.cfi_restore 29
	.cfi_restore 21
	.cfi_restore 19
	.cfi_restore 20
	.cfi_def_cfa_offset 0
	ret
	.cfi_endproc
.LFE1861:
	.size	_ZNK8opendnp318TypedCommandHeaderINS_19AnalogOutputFloat32EE7ForeachERNS_8IVisitorINS_12CommandStateEEE, .-_ZNK8opendnp318TypedCommandHeaderINS_19AnalogOutputFloat32EE7ForeachERNS_8IVisitorINS_12CommandStateEEE
	.section	.text._ZNK8opendnp318TypedCommandHeaderINS_17AnalogOutputInt16EE5CountEv,"axG",@progbits,_ZNK8opendnp318TypedCommandHeaderINS_17AnalogOutputInt16EE5CountEv,comdat
	.align	2
	.p2align 4,,11
	.weak	_ZNK8opendnp318TypedCommandHeaderINS_17AnalogOutputInt16EE5CountEv
	.type	_ZNK8opendnp318TypedCommandHeaderINS_17AnalogOutputInt16EE5CountEv, %function
_ZNK8opendnp318TypedCommandHeaderINS_17AnalogOutputInt16EE5CountEv:
.LFB1872:
	.cfi_startproc
	ldp	x1, x0, [x0, 48]
	sub	x0, x0, x1
	asr	x0, x0, 3
	ret
	.cfi_endproc
.LFE1872:
	.size	_ZNK8opendnp318TypedCommandHeaderINS_17AnalogOutputInt16EE5CountEv, .-_ZNK8opendnp318TypedCommandHeaderINS_17AnalogOutputInt16EE5CountEv
	.section	.text._ZNK8opendnp318TypedCommandHeaderINS_17AnalogOutputInt16EE7ForeachERNS_8IVisitorINS_12CommandStateEEE,"axG",@progbits,_ZNK8opendnp318TypedCommandHeaderINS_17AnalogOutputInt16EE7ForeachERNS_8IVisitorINS_12CommandStateEEE,comdat
	.align	2
	.p2align 4,,11
	.weak	_ZNK8opendnp318TypedCommandHeaderINS_17AnalogOutputInt16EE7ForeachERNS_8IVisitorINS_12CommandStateEEE
	.type	_ZNK8opendnp318TypedCommandHeaderINS_17AnalogOutputInt16EE7ForeachERNS_8IVisitorINS_12CommandStateEEE, %function
_ZNK8opendnp318TypedCommandHeaderINS_17AnalogOutputInt16EE7ForeachERNS_8IVisitorINS_12CommandStateEEE:
.LFB1873:
	.cfi_startproc
	stp	x29, x30, [sp, -48]!
	.cfi_def_cfa_offset 48
	.cfi_offset 29, -48
	.cfi_offset 30, -40
	mov	x29, sp
	stp	x19, x20, [sp, 16]
	.cfi_offset 19, -32
	.cfi_offset 20, -24
	ldr	x19, [x0, 48]
	str	x21, [sp, 32]
	.cfi_offset 21, -16
	ldr	x21, [x0, 56]
	cmp	x21, x19
	beq	.L25
	mov	x20, x1
	.p2align 3,,7
.L27:
	ldr	x2, [x20]
	mov	x1, x19
	mov	x0, x20
	add	x19, x19, 8
	ldr	x2, [x2]
	blr	x2
	cmp	x21, x19
	bne	.L27
.L25:
	ldp	x19, x20, [sp, 16]
	ldr	x21, [sp, 32]
	ldp	x29, x30, [sp], 48
	.cfi_restore 30
	.cfi_restore 29
	.cfi_restore 21
	.cfi_restore 19
	.cfi_restore 20
	.cfi_def_cfa_offset 0
	ret
	.cfi_endproc
.LFE1873:
	.size	_ZNK8opendnp318TypedCommandHeaderINS_17AnalogOutputInt16EE7ForeachERNS_8IVisitorINS_12CommandStateEEE, .-_ZNK8opendnp318TypedCommandHeaderINS_17AnalogOutputInt16EE7ForeachERNS_8IVisitorINS_12CommandStateEEE
	.section	.text._ZNK8opendnp318TypedCommandHeaderINS_17AnalogOutputInt32EE5CountEv,"axG",@progbits,_ZNK8opendnp318TypedCommandHeaderINS_17AnalogOutputInt32EE5CountEv,comdat
	.align	2
	.p2align 4,,11
	.weak	_ZNK8opendnp318TypedCommandHeaderINS_17AnalogOutputInt32EE5CountEv
	.type	_ZNK8opendnp318TypedCommandHeaderINS_17AnalogOutputInt32EE5CountEv, %function
_ZNK8opendnp318TypedCommandHeaderINS_17AnalogOutputInt32EE5CountEv:
.LFB1884:
	.cfi_startproc
	ldp	x2, x0, [x0, 48]
	mov	x1, -6148914691236517206
	movk	x1, 0xaaab, lsl 0
	sub	x0, x0, x2
	asr	x0, x0, 2
	mul	x0, x0, x1
	ret
	.cfi_endproc
.LFE1884:
	.size	_ZNK8opendnp318TypedCommandHeaderINS_17AnalogOutputInt32EE5CountEv, .-_ZNK8opendnp318TypedCommandHeaderINS_17AnalogOutputInt32EE5CountEv
	.section	.text._ZNK8opendnp318TypedCommandHeaderINS_17AnalogOutputInt32EE7ForeachERNS_8IVisitorINS_12CommandStateEEE,"axG",@progbits,_ZNK8opendnp318TypedCommandHeaderINS_17AnalogOutputInt32EE7ForeachERNS_8IVisitorINS_12CommandStateEEE,comdat
	.align	2
	.p2align 4,,11
	.weak	_ZNK8opendnp318TypedCommandHeaderINS_17AnalogOutputInt32EE7ForeachERNS_8IVisitorINS_12CommandStateEEE
	.type	_ZNK8opendnp318TypedCommandHeaderINS_17AnalogOutputInt32EE7ForeachERNS_8IVisitorINS_12CommandStateEEE, %function
_ZNK8opendnp318TypedCommandHeaderINS_17AnalogOutputInt32EE7ForeachERNS_8IVisitorINS_12CommandStateEEE:
.LFB1885:
	.cfi_startproc
	stp	x29, x30, [sp, -48]!
	.cfi_def_cfa_offset 48
	.cfi_offset 29, -48
	.cfi_offset 30, -40
	mov	x29, sp
	stp	x19, x20, [sp, 16]
	.cfi_offset 19, -32
	.cfi_offset 20, -24
	ldr	x19, [x0, 48]
	str	x21, [sp, 32]
	.cfi_offset 21, -16
	ldr	x21, [x0, 56]
	cmp	x21, x19
	beq	.L31
	mov	x20, x1
	.p2align 3,,7
.L33:
	ldr	x2, [x20]
	mov	x1, x19
	mov	x0, x20
	add	x19, x19, 12
	ldr	x2, [x2]
	blr	x2
	cmp	x21, x19
	bne	.L33
.L31:
	ldp	x19, x20, [sp, 16]
	ldr	x21, [sp, 32]
	ldp	x29, x30, [sp], 48
	.cfi_restore 30
	.cfi_restore 29
	.cfi_restore 21
	.cfi_restore 19
	.cfi_restore 20
	.cfi_def_cfa_offset 0
	ret
	.cfi_endproc
.LFE1885:
	.size	_ZNK8opendnp318TypedCommandHeaderINS_17AnalogOutputInt32EE7ForeachERNS_8IVisitorINS_12CommandStateEEE, .-_ZNK8opendnp318TypedCommandHeaderINS_17AnalogOutputInt32EE7ForeachERNS_8IVisitorINS_12CommandStateEEE
	.section	.text._ZNK8opendnp318TypedCommandHeaderINS_23ControlRelayOutputBlockEE5CountEv,"axG",@progbits,_ZNK8opendnp318TypedCommandHeaderINS_23ControlRelayOutputBlockEE5CountEv,comdat
	.align	2
	.p2align 4,,11
	.weak	_ZNK8opendnp318TypedCommandHeaderINS_23ControlRelayOutputBlockEE5CountEv
	.type	_ZNK8opendnp318TypedCommandHeaderINS_23ControlRelayOutputBlockEE5CountEv, %function
_ZNK8opendnp318TypedCommandHeaderINS_23ControlRelayOutputBlockEE5CountEv:
.LFB1896:
	.cfi_startproc
	ldp	x2, x0, [x0, 48]
	mov	x1, -3689348814741910324
	movk	x1, 0xcccd, lsl 0
	sub	x0, x0, x2
	asr	x0, x0, 2
	mul	x0, x0, x1
	ret
	.cfi_endproc
.LFE1896:
	.size	_ZNK8opendnp318TypedCommandHeaderINS_23ControlRelayOutputBlockEE5CountEv, .-_ZNK8opendnp318TypedCommandHeaderINS_23ControlRelayOutputBlockEE5CountEv
	.section	.text._ZNK8opendnp318TypedCommandHeaderINS_23ControlRelayOutputBlockEE7ForeachERNS_8IVisitorINS_12CommandStateEEE,"axG",@progbits,_ZNK8opendnp318TypedCommandHeaderINS_23ControlRelayOutputBlockEE7ForeachERNS_8IVisitorINS_12CommandStateEEE,comdat
	.align	2
	.p2align 4,,11
	.weak	_ZNK8opendnp318TypedCommandHeaderINS_23ControlRelayOutputBlockEE7ForeachERNS_8IVisitorINS_12CommandStateEEE
	.type	_ZNK8opendnp318TypedCommandHeaderINS_23ControlRelayOutputBlockEE7ForeachERNS_8IVisitorINS_12CommandStateEEE, %function
_ZNK8opendnp318TypedCommandHeaderINS_23ControlRelayOutputBlockEE7ForeachERNS_8IVisitorINS_12CommandStateEEE:
.LFB1897:
	.cfi_startproc
	stp	x29, x30, [sp, -48]!
	.cfi_def_cfa_offset 48
	.cfi_offset 29, -48
	.cfi_offset 30, -40
	mov	x29, sp
	stp	x19, x20, [sp, 16]
	.cfi_offset 19, -32
	.cfi_offset 20, -24
	ldr	x19, [x0, 48]
	str	x21, [sp, 32]
	.cfi_offset 21, -16
	ldr	x21, [x0, 56]
	cmp	x21, x19
	beq	.L37
	mov	x20, x1
	.p2align 3,,7
.L39:
	ldr	x2, [x20]
	mov	x1, x19
	mov	x0, x20
	add	x19, x19, 20
	ldr	x2, [x2]
	blr	x2
	cmp	x21, x19
	bne	.L39
.L37:
	ldp	x19, x20, [sp, 16]
	ldr	x21, [sp, 32]
	ldp	x29, x30, [sp], 48
	.cfi_restore 30
	.cfi_restore 29
	.cfi_restore 21
	.cfi_restore 19
	.cfi_restore 20
	.cfi_def_cfa_offset 0
	ret
	.cfi_endproc
.LFE1897:
	.size	_ZNK8opendnp318TypedCommandHeaderINS_23ControlRelayOutputBlockEE7ForeachERNS_8IVisitorINS_12CommandStateEEE, .-_ZNK8opendnp318TypedCommandHeaderINS_23ControlRelayOutputBlockEE7ForeachERNS_8IVisitorINS_12CommandStateEEE
	.section	.text._ZNK8opendnp318TypedCommandHeaderINS_20AnalogOutputDouble64EE14AreAllSelectedEv,"axG",@progbits,_ZNK8opendnp318TypedCommandHeaderINS_20AnalogOutputDouble64EE14AreAllSelectedEv,comdat
	.align	2
	.p2align 4,,11
	.weak	_ZNK8opendnp318TypedCommandHeaderINS_20AnalogOutputDouble64EE14AreAllSelectedEv
	.type	_ZNK8opendnp318TypedCommandHeaderINS_20AnalogOutputDouble64EE14AreAllSelectedEv, %function
_ZNK8opendnp318TypedCommandHeaderINS_20AnalogOutputDouble64EE14AreAllSelectedEv:
.LFB1851:
	.cfi_startproc
	ldp	x1, x3, [x0, 48]
	mov	x2, -6148914691236517206
	movk	x2, 0xaaab, lsl 0
	sub	x0, x3, x1
	asr	x0, x0, 3
	mul	x0, x0, x2
	asr	x2, x0, 2
	cmp	x2, 0
	ble	.L43
	add	x2, x2, x2, lsl 1
	add	x2, x1, x2, lsl 5
	b	.L49
	.p2align 2,,3
.L44:
	ldrb	w0, [x1, 24]
	cmp	w0, 1
	bne	.L65
	ldrb	w0, [x1, 48]
	cmp	w0, 1
	bne	.L66
	ldrb	w0, [x1, 72]
	cmp	w0, 1
	bne	.L67
	add	x1, x1, 96
	cmp	x1, x2
	beq	.L68
.L49:
	ldrb	w0, [x1]
	cmp	w0, 1
	beq	.L44
.L64:
	cmp	x3, x1
	cset	w0, eq
.L45:
	ret
	.p2align 2,,3
.L68:
	sub	x0, x3, x1
	mov	x2, -6148914691236517206
	movk	x2, 0xaaab, lsl 0
	asr	x0, x0, 3
	mul	x0, x0, x2
.L43:
	cmp	x0, 2
	beq	.L50
	cmp	x0, 3
	beq	.L51
	cmp	x0, 1
	beq	.L52
	mov	w0, 1
	ret
.L51:
	ldrb	w0, [x1]
	cmp	w0, 1
	bne	.L64
	add	x1, x1, 24
.L50:
	ldrb	w0, [x1]
	cmp	w0, 1
	bne	.L64
	add	x1, x1, 24
.L52:
	ldrb	w2, [x1]
	mov	w0, 1
	cmp	w2, w0
	bne	.L64
	b	.L45
	.p2align 2,,3
.L65:
	add	x1, x1, 24
	cmp	x3, x1
	cset	w0, eq
	ret
	.p2align 2,,3
.L66:
	add	x1, x1, 48
	cmp	x3, x1
	cset	w0, eq
	ret
	.p2align 2,,3
.L67:
	add	x1, x1, 72
	cmp	x3, x1
	cset	w0, eq
	ret
	.cfi_endproc
.LFE1851:
	.size	_ZNK8opendnp318TypedCommandHeaderINS_20AnalogOutputDouble64EE14AreAllSelectedEv, .-_ZNK8opendnp318TypedCommandHeaderINS_20AnalogOutputDouble64EE14AreAllSelectedEv
	.section	.text._ZNK8opendnp318TypedCommandHeaderINS_19AnalogOutputFloat32EE14AreAllSelectedEv,"axG",@progbits,_ZNK8opendnp318TypedCommandHeaderINS_19AnalogOutputFloat32EE14AreAllSelectedEv,comdat
	.align	2
	.p2align 4,,11
	.weak	_ZNK8opendnp318TypedCommandHeaderINS_19AnalogOutputFloat32EE14AreAllSelectedEv
	.type	_ZNK8opendnp318TypedCommandHeaderINS_19AnalogOutputFloat32EE14AreAllSelectedEv, %function
_ZNK8opendnp318TypedCommandHeaderINS_19AnalogOutputFloat32EE14AreAllSelectedEv:
.LFB1863:
	.cfi_startproc
	ldp	x1, x3, [x0, 48]
	mov	x2, -6148914691236517206
	movk	x2, 0xaaab, lsl 0
	sub	x0, x3, x1
	asr	x0, x0, 2
	mul	x0, x0, x2
	asr	x2, x0, 2
	cmp	x2, 0
	ble	.L70
	add	x2, x2, x2, lsl 1
	add	x2, x1, x2, lsl 4
	b	.L76
	.p2align 2,,3
.L71:
	ldrb	w0, [x1, 12]
	cmp	w0, 1
	bne	.L92
	ldrb	w0, [x1, 24]
	cmp	w0, 1
	bne	.L93
	ldrb	w0, [x1, 36]
	cmp	w0, 1
	bne	.L94
	add	x1, x1, 48
	cmp	x1, x2
	beq	.L95
.L76:
	ldrb	w0, [x1]
	cmp	w0, 1
	beq	.L71
.L91:
	cmp	x3, x1
	cset	w0, eq
.L72:
	ret
	.p2align 2,,3
.L95:
	sub	x0, x3, x1
	mov	x2, -6148914691236517206
	movk	x2, 0xaaab, lsl 0
	asr	x0, x0, 2
	mul	x0, x0, x2
.L70:
	cmp	x0, 2
	beq	.L77
	cmp	x0, 3
	beq	.L78
	cmp	x0, 1
	beq	.L79
	mov	w0, 1
	ret
.L78:
	ldrb	w0, [x1]
	cmp	w0, 1
	bne	.L91
	add	x1, x1, 12
.L77:
	ldrb	w0, [x1]
	cmp	w0, 1
	bne	.L91
	add	x1, x1, 12
.L79:
	ldrb	w2, [x1]
	mov	w0, 1
	cmp	w2, w0
	bne	.L91
	b	.L72
	.p2align 2,,3
.L92:
	add	x1, x1, 12
	cmp	x3, x1
	cset	w0, eq
	ret
	.p2align 2,,3
.L93:
	add	x1, x1, 24
	cmp	x3, x1
	cset	w0, eq
	ret
	.p2align 2,,3
.L94:
	add	x1, x1, 36
	cmp	x3, x1
	cset	w0, eq
	ret
	.cfi_endproc
.LFE1863:
	.size	_ZNK8opendnp318TypedCommandHeaderINS_19AnalogOutputFloat32EE14AreAllSelectedEv, .-_ZNK8opendnp318TypedCommandHeaderINS_19AnalogOutputFloat32EE14AreAllSelectedEv
	.section	.text._ZNK8opendnp318TypedCommandHeaderINS_17AnalogOutputInt16EE14AreAllSelectedEv,"axG",@progbits,_ZNK8opendnp318TypedCommandHeaderINS_17AnalogOutputInt16EE14AreAllSelectedEv,comdat
	.align	2
	.p2align 4,,11
	.weak	_ZNK8opendnp318TypedCommandHeaderINS_17AnalogOutputInt16EE14AreAllSelectedEv
	.type	_ZNK8opendnp318TypedCommandHeaderINS_17AnalogOutputInt16EE14AreAllSelectedEv, %function
_ZNK8opendnp318TypedCommandHeaderINS_17AnalogOutputInt16EE14AreAllSelectedEv:
.LFB1875:
	.cfi_startproc
	ldp	x1, x3, [x0, 48]
	sub	x0, x3, x1
	asr	x2, x0, 5
	asr	x0, x0, 3
	cmp	x2, 0
	ble	.L97
	add	x2, x1, x2, lsl 5
	b	.L103
	.p2align 2,,3
.L98:
	ldrb	w0, [x1, 8]
	cmp	w0, 1
	bne	.L119
	ldrb	w0, [x1, 16]
	cmp	w0, 1
	bne	.L120
	ldrb	w0, [x1, 24]
	cmp	w0, 1
	bne	.L121
	add	x1, x1, 32
	cmp	x1, x2
	beq	.L122
.L103:
	ldrb	w0, [x1]
	cmp	w0, 1
	beq	.L98
.L118:
	cmp	x3, x1
	cset	w0, eq
.L99:
	ret
	.p2align 2,,3
.L122:
	sub	x0, x3, x1
	asr	x0, x0, 3
.L97:
	cmp	x0, 2
	beq	.L104
	cmp	x0, 3
	beq	.L105
	cmp	x0, 1
	beq	.L106
	mov	w0, 1
	ret
.L105:
	ldrb	w0, [x1]
	cmp	w0, 1
	bne	.L118
	add	x1, x1, 8
.L104:
	ldrb	w0, [x1]
	cmp	w0, 1
	bne	.L118
	add	x1, x1, 8
.L106:
	ldrb	w2, [x1]
	mov	w0, 1
	cmp	w2, w0
	bne	.L118
	b	.L99
	.p2align 2,,3
.L119:
	add	x1, x1, 8
	cmp	x3, x1
	cset	w0, eq
	ret
	.p2align 2,,3
.L120:
	add	x1, x1, 16
	cmp	x3, x1
	cset	w0, eq
	ret
	.p2align 2,,3
.L121:
	add	x1, x1, 24
	cmp	x3, x1
	cset	w0, eq
	ret
	.cfi_endproc
.LFE1875:
	.size	_ZNK8opendnp318TypedCommandHeaderINS_17AnalogOutputInt16EE14AreAllSelectedEv, .-_ZNK8opendnp318TypedCommandHeaderINS_17AnalogOutputInt16EE14AreAllSelectedEv
	.section	.text._ZNK8opendnp318TypedCommandHeaderINS_17AnalogOutputInt32EE14AreAllSelectedEv,"axG",@progbits,_ZNK8opendnp318TypedCommandHeaderINS_17AnalogOutputInt32EE14AreAllSelectedEv,comdat
	.align	2
	.p2align 4,,11
	.weak	_ZNK8opendnp318TypedCommandHeaderINS_17AnalogOutputInt32EE14AreAllSelectedEv
	.type	_ZNK8opendnp318TypedCommandHeaderINS_17AnalogOutputInt32EE14AreAllSelectedEv, %function
_ZNK8opendnp318TypedCommandHeaderINS_17AnalogOutputInt32EE14AreAllSelectedEv:
.LFB1887:
	.cfi_startproc
	ldp	x1, x3, [x0, 48]
	mov	x2, -6148914691236517206
	movk	x2, 0xaaab, lsl 0
	sub	x0, x3, x1
	asr	x0, x0, 2
	mul	x0, x0, x2
	asr	x2, x0, 2
	cmp	x2, 0
	ble	.L124
	add	x2, x2, x2, lsl 1
	add	x2, x1, x2, lsl 4
	b	.L130
	.p2align 2,,3
.L125:
	ldrb	w0, [x1, 12]
	cmp	w0, 1
	bne	.L146
	ldrb	w0, [x1, 24]
	cmp	w0, 1
	bne	.L147
	ldrb	w0, [x1, 36]
	cmp	w0, 1
	bne	.L148
	add	x1, x1, 48
	cmp	x1, x2
	beq	.L149
.L130:
	ldrb	w0, [x1]
	cmp	w0, 1
	beq	.L125
.L145:
	cmp	x3, x1
	cset	w0, eq
.L126:
	ret
	.p2align 2,,3
.L149:
	sub	x0, x3, x1
	mov	x2, -6148914691236517206
	movk	x2, 0xaaab, lsl 0
	asr	x0, x0, 2
	mul	x0, x0, x2
.L124:
	cmp	x0, 2
	beq	.L131
	cmp	x0, 3
	beq	.L132
	cmp	x0, 1
	beq	.L133
	mov	w0, 1
	ret
.L132:
	ldrb	w0, [x1]
	cmp	w0, 1
	bne	.L145
	add	x1, x1, 12
.L131:
	ldrb	w0, [x1]
	cmp	w0, 1
	bne	.L145
	add	x1, x1, 12
.L133:
	ldrb	w2, [x1]
	mov	w0, 1
	cmp	w2, w0
	bne	.L145
	b	.L126
	.p2align 2,,3
.L146:
	add	x1, x1, 12
	cmp	x3, x1
	cset	w0, eq
	ret
	.p2align 2,,3
.L147:
	add	x1, x1, 24
	cmp	x3, x1
	cset	w0, eq
	ret
	.p2align 2,,3
.L148:
	add	x1, x1, 36
	cmp	x3, x1
	cset	w0, eq
	ret
	.cfi_endproc
.LFE1887:
	.size	_ZNK8opendnp318TypedCommandHeaderINS_17AnalogOutputInt32EE14AreAllSelectedEv, .-_ZNK8opendnp318TypedCommandHeaderINS_17AnalogOutputInt32EE14AreAllSelectedEv
	.section	.text._ZNK8opendnp318TypedCommandHeaderINS_23ControlRelayOutputBlockEE14AreAllSelectedEv,"axG",@progbits,_ZNK8opendnp318TypedCommandHeaderINS_23ControlRelayOutputBlockEE14AreAllSelectedEv,comdat
	.align	2
	.p2align 4,,11
	.weak	_ZNK8opendnp318TypedCommandHeaderINS_23ControlRelayOutputBlockEE14AreAllSelectedEv
	.type	_ZNK8opendnp318TypedCommandHeaderINS_23ControlRelayOutputBlockEE14AreAllSelectedEv, %function
_ZNK8opendnp318TypedCommandHeaderINS_23ControlRelayOutputBlockEE14AreAllSelectedEv:
.LFB1899:
	.cfi_startproc
	ldp	x1, x3, [x0, 48]
	mov	x2, -3689348814741910324
	movk	x2, 0xcccd, lsl 0
	sub	x0, x3, x1
	asr	x0, x0, 2
	mul	x0, x0, x2
	asr	x2, x0, 2
	cmp	x2, 0
	ble	.L151
	add	x2, x2, x2, lsl 2
	add	x2, x1, x2, lsl 4
	b	.L157
	.p2align 2,,3
.L152:
	ldrb	w0, [x1, 20]
	cmp	w0, 1
	bne	.L173
	ldrb	w0, [x1, 40]
	cmp	w0, 1
	bne	.L174
	ldrb	w0, [x1, 60]
	cmp	w0, 1
	bne	.L175
	add	x1, x1, 80
	cmp	x1, x2
	beq	.L176
.L157:
	ldrb	w0, [x1]
	cmp	w0, 1
	beq	.L152
.L172:
	cmp	x3, x1
	cset	w0, eq
.L153:
	ret
	.p2align 2,,3
.L176:
	sub	x0, x3, x1
	mov	x2, -3689348814741910324
	movk	x2, 0xcccd, lsl 0
	asr	x0, x0, 2
	mul	x0, x0, x2
.L151:
	cmp	x0, 2
	beq	.L158
	cmp	x0, 3
	beq	.L159
	cmp	x0, 1
	beq	.L160
	mov	w0, 1
	ret
.L159:
	ldrb	w0, [x1]
	cmp	w0, 1
	bne	.L172
	add	x1, x1, 20
.L158:
	ldrb	w0, [x1]
	cmp	w0, 1
	bne	.L172
	add	x1, x1, 20
.L160:
	ldrb	w2, [x1]
	mov	w0, 1
	cmp	w2, w0
	bne	.L172
	b	.L153
	.p2align 2,,3
.L173:
	add	x1, x1, 20
	cmp	x3, x1
	cset	w0, eq
	ret
	.p2align 2,,3
.L174:
	add	x1, x1, 40
	cmp	x3, x1
	cset	w0, eq
	ret
	.p2align 2,,3
.L175:
	add	x1, x1, 60
	cmp	x3, x1
	cset	w0, eq
	ret
	.cfi_endproc
.LFE1899:
	.size	_ZNK8opendnp318TypedCommandHeaderINS_23ControlRelayOutputBlockEE14AreAllSelectedEv, .-_ZNK8opendnp318TypedCommandHeaderINS_23ControlRelayOutputBlockEE14AreAllSelectedEv
	.section	.text._ZN8opendnp314FunctorVisitorINS_7IndexedINS_23ControlRelayOutputBlockEEEZNS_18TypedCommandHeaderIS2_E20ApplyOperateResponseERKNS_11ICollectionIS3_EEEUlS3_E_E7OnValueERKS3_,"axG",@progbits,_ZN8opendnp314FunctorVisitorINS_7IndexedINS_23ControlRelayOutputBlockEEEZNS_18TypedCommandHeaderIS2_E20ApplyOperateResponseERKNS_11ICollectionIS3_EEEUlS3_E_E7OnValueERKS3_,comdat
	.align	2
	.p2align 4,,11
	.weak	_ZN8opendnp314FunctorVisitorINS_7IndexedINS_23ControlRelayOutputBlockEEEZNS_18TypedCommandHeaderIS2_E20ApplyOperateResponseERKNS_11ICollectionIS3_EEEUlS3_E_E7OnValueERKS3_
	.type	_ZN8opendnp314FunctorVisitorINS_7IndexedINS_23ControlRelayOutputBlockEEEZNS_18TypedCommandHeaderIS2_E20ApplyOperateResponseERKNS_11ICollectionIS3_EEEUlS3_E_E7OnValueERKS3_, %function
_ZN8opendnp314FunctorVisitorINS_7IndexedINS_23ControlRelayOutputBlockEEEZNS_18TypedCommandHeaderIS2_E20ApplyOperateResponseERKNS_11ICollectionIS3_EEEUlS3_E_E7OnValueERKS3_:
.LFB2505:
	.cfi_startproc
	ldp	x4, x3, [x0, 8]
	mov	w2, 20
	sub	sp, sp, #32
	.cfi_def_cfa_offset 32
	ldr	w9, [x1, 16]
	ldp	x6, x7, [x1]
	ldrh	w5, [x1, 16]
	ldr	w0, [x3]
	ldr	x4, [x4, 48]
	add	w8, w0, 1
	stp	x6, x7, [sp, 8]
	umull	x0, w0, w2
	ldrb	w10, [x1, 12]
	add	x2, x4, x0
	ldr	w7, [x1, 4]
	str	w9, [sp, 24]
	ldr	w9, [x1, 8]
	ldrh	w6, [x2, 2]
	str	w8, [x3]
	cmp	w6, w5
	bne	.L177
	ldr	w3, [x2, 4]
	ldr	w1, [sp, 8]
	eor	w1, w1, w3
	tst	w1, 16711935
	bne	.L179
	ldr	w1, [x2, 8]
	cmp	w1, w7
	beq	.L181
.L179:
	mov	w1, 4
	strb	w1, [x4, x0]
.L177:
	add	sp, sp, 32
	.cfi_remember_state
	.cfi_def_cfa_offset 0
	ret
	.p2align 2,,3
.L181:
	.cfi_restore_state
	ldr	w1, [x2, 12]
	cmp	w9, w1
	bne	.L179
	mov	w1, 5
	strb	w1, [x4, x0]
	strb	w10, [x2, 1]
	b	.L177
	.cfi_endproc
.LFE2505:
	.size	_ZN8opendnp314FunctorVisitorINS_7IndexedINS_23ControlRelayOutputBlockEEEZNS_18TypedCommandHeaderIS2_E20ApplyOperateResponseERKNS_11ICollectionIS3_EEEUlS3_E_E7OnValueERKS3_, .-_ZN8opendnp314FunctorVisitorINS_7IndexedINS_23ControlRelayOutputBlockEEEZNS_18TypedCommandHeaderIS2_E20ApplyOperateResponseERKNS_11ICollectionIS3_EEEUlS3_E_E7OnValueERKS3_
	.section	.text._ZN8opendnp314FunctorVisitorINS_7IndexedINS_23ControlRelayOutputBlockEEEZNS_18TypedCommandHeaderIS2_E19ApplySelectResponseERKNS_11ICollectionIS3_EEEUlS3_E_E7OnValueERKS3_,"axG",@progbits,_ZN8opendnp314FunctorVisitorINS_7IndexedINS_23ControlRelayOutputBlockEEEZNS_18TypedCommandHeaderIS2_E19ApplySelectResponseERKNS_11ICollectionIS3_EEEUlS3_E_E7OnValueERKS3_,comdat
	.align	2
	.p2align 4,,11
	.weak	_ZN8opendnp314FunctorVisitorINS_7IndexedINS_23ControlRelayOutputBlockEEEZNS_18TypedCommandHeaderIS2_E19ApplySelectResponseERKNS_11ICollectionIS3_EEEUlS3_E_E7OnValueERKS3_
	.type	_ZN8opendnp314FunctorVisitorINS_7IndexedINS_23ControlRelayOutputBlockEEEZNS_18TypedCommandHeaderIS2_E19ApplySelectResponseERKNS_11ICollectionIS3_EEEUlS3_E_E7OnValueERKS3_, %function
_ZN8opendnp314FunctorVisitorINS_7IndexedINS_23ControlRelayOutputBlockEEEZNS_18TypedCommandHeaderIS2_E19ApplySelectResponseERKNS_11ICollectionIS3_EEEUlS3_E_E7OnValueERKS3_:
.LFB2506:
	.cfi_startproc
	ldp	x4, x3, [x0, 8]
	mov	w2, 20
	sub	sp, sp, #32
	.cfi_def_cfa_offset 32
	ldr	w9, [x1, 16]
	ldp	x6, x7, [x1]
	ldrh	w5, [x1, 16]
	ldr	w0, [x3]
	ldr	x4, [x4, 48]
	add	w8, w0, 1
	stp	x6, x7, [sp, 8]
	umull	x0, w0, w2
	ldrb	w10, [x1, 12]
	add	x2, x4, x0
	ldr	w7, [x1, 4]
	str	w9, [sp, 24]
	ldr	w9, [x1, 8]
	ldrh	w6, [x2, 2]
	str	w8, [x3]
	cmp	w6, w5
	bne	.L182
	ldr	w3, [x2, 4]
	ldr	w1, [sp, 8]
	eor	w1, w1, w3
	tst	w1, 16711935
	bne	.L184
	ldr	w1, [x2, 8]
	cmp	w1, w7
	beq	.L189
.L184:
	mov	w1, 2
	strb	w1, [x4, x0]
.L182:
	add	sp, sp, 32
	.cfi_remember_state
	.cfi_def_cfa_offset 0
	ret
	.p2align 2,,3
.L189:
	.cfi_restore_state
	ldr	w1, [x2, 12]
	cmp	w9, w1
	bne	.L184
	cbnz	w10, .L190
	ldrb	w1, [x4, x0]
	cbnz	w1, .L182
	mov	w1, 1
	strb	w1, [x4, x0]
	b	.L182
.L190:
	mov	w1, 3
	strb	w1, [x4, x0]
	strb	w10, [x2, 1]
	b	.L182
	.cfi_endproc
.LFE2506:
	.size	_ZN8opendnp314FunctorVisitorINS_7IndexedINS_23ControlRelayOutputBlockEEEZNS_18TypedCommandHeaderIS2_E19ApplySelectResponseERKNS_11ICollectionIS3_EEEUlS3_E_E7OnValueERKS3_, .-_ZN8opendnp314FunctorVisitorINS_7IndexedINS_23ControlRelayOutputBlockEEEZNS_18TypedCommandHeaderIS2_E19ApplySelectResponseERKNS_11ICollectionIS3_EEEUlS3_E_E7OnValueERKS3_
	.section	.text._ZN8opendnp314FunctorVisitorINS_7IndexedINS_17AnalogOutputInt32EEEZNS_18TypedCommandHeaderIS2_E20ApplyOperateResponseERKNS_11ICollectionIS3_EEEUlS3_E_E7OnValueERKS3_,"axG",@progbits,_ZN8opendnp314FunctorVisitorINS_7IndexedINS_17AnalogOutputInt32EEEZNS_18TypedCommandHeaderIS2_E20ApplyOperateResponseERKNS_11ICollectionIS3_EEEUlS3_E_E7OnValueERKS3_,comdat
	.align	2
	.p2align 4,,11
	.weak	_ZN8opendnp314FunctorVisitorINS_7IndexedINS_17AnalogOutputInt32EEEZNS_18TypedCommandHeaderIS2_E20ApplyOperateResponseERKNS_11ICollectionIS3_EEEUlS3_E_E7OnValueERKS3_
	.type	_ZN8opendnp314FunctorVisitorINS_7IndexedINS_17AnalogOutputInt32EEEZNS_18TypedCommandHeaderIS2_E20ApplyOperateResponseERKNS_11ICollectionIS3_EEEUlS3_E_E7OnValueERKS3_, %function
_ZN8opendnp314FunctorVisitorINS_7IndexedINS_17AnalogOutputInt32EEEZNS_18TypedCommandHeaderIS2_E20ApplyOperateResponseERKNS_11ICollectionIS3_EEEUlS3_E_E7OnValueERKS3_:
.LFB2507:
	.cfi_startproc
	ldp	x3, x2, [x0, 8]
	mov	w6, 12
	ldrh	w4, [x1, 8]
	ldrb	w7, [x1, 4]
	ldr	w0, [x2]
	ldr	x3, [x3, 48]
	add	w5, w0, 1
	umull	x0, w0, w6
	ldr	w6, [x1]
	str	w5, [x2]
	add	x1, x3, x0
	ldrh	w2, [x1, 2]
	cmp	w2, w4
	bne	.L191
	ldr	w2, [x1, 4]
	cmp	w6, w2
	beq	.L193
	mov	w1, 4
	strb	w1, [x3, x0]
.L191:
	ret
	.p2align 2,,3
.L193:
	mov	w2, 5
	strb	w2, [x3, x0]
	strb	w7, [x1, 1]
	ret
	.cfi_endproc
.LFE2507:
	.size	_ZN8opendnp314FunctorVisitorINS_7IndexedINS_17AnalogOutputInt32EEEZNS_18TypedCommandHeaderIS2_E20ApplyOperateResponseERKNS_11ICollectionIS3_EEEUlS3_E_E7OnValueERKS3_, .-_ZN8opendnp314FunctorVisitorINS_7IndexedINS_17AnalogOutputInt32EEEZNS_18TypedCommandHeaderIS2_E20ApplyOperateResponseERKNS_11ICollectionIS3_EEEUlS3_E_E7OnValueERKS3_
	.section	.text._ZN8opendnp314FunctorVisitorINS_7IndexedINS_17AnalogOutputInt32EEEZNS_18TypedCommandHeaderIS2_E19ApplySelectResponseERKNS_11ICollectionIS3_EEEUlS3_E_E7OnValueERKS3_,"axG",@progbits,_ZN8opendnp314FunctorVisitorINS_7IndexedINS_17AnalogOutputInt32EEEZNS_18TypedCommandHeaderIS2_E19ApplySelectResponseERKNS_11ICollectionIS3_EEEUlS3_E_E7OnValueERKS3_,comdat
	.align	2
	.p2align 4,,11
	.weak	_ZN8opendnp314FunctorVisitorINS_7IndexedINS_17AnalogOutputInt32EEEZNS_18TypedCommandHeaderIS2_E19ApplySelectResponseERKNS_11ICollectionIS3_EEEUlS3_E_E7OnValueERKS3_
	.type	_ZN8opendnp314FunctorVisitorINS_7IndexedINS_17AnalogOutputInt32EEEZNS_18TypedCommandHeaderIS2_E19ApplySelectResponseERKNS_11ICollectionIS3_EEEUlS3_E_E7OnValueERKS3_, %function
_ZN8opendnp314FunctorVisitorINS_7IndexedINS_17AnalogOutputInt32EEEZNS_18TypedCommandHeaderIS2_E19ApplySelectResponseERKNS_11ICollectionIS3_EEEUlS3_E_E7OnValueERKS3_:
.LFB2508:
	.cfi_startproc
	ldp	x3, x2, [x0, 8]
	mov	w6, 12
	ldrh	w4, [x1, 8]
	ldrb	w7, [x1, 4]
	ldr	w0, [x2]
	ldr	x3, [x3, 48]
	add	w5, w0, 1
	umull	x0, w0, w6
	ldr	w6, [x1]
	str	w5, [x2]
	add	x1, x3, x0
	ldrh	w2, [x1, 2]
	cmp	w2, w4
	bne	.L194
	ldr	w2, [x1, 4]
	cmp	w2, w6
	beq	.L196
	mov	w1, 2
	strb	w1, [x3, x0]
.L194:
	ret
	.p2align 2,,3
.L196:
	cbnz	w7, .L198
	ldrb	w1, [x3, x0]
	cbnz	w1, .L194
	mov	w1, 1
	strb	w1, [x3, x0]
	ret
	.p2align 2,,3
.L198:
	mov	w2, 3
	strb	w2, [x3, x0]
	strb	w7, [x1, 1]
	ret
	.cfi_endproc
.LFE2508:
	.size	_ZN8opendnp314FunctorVisitorINS_7IndexedINS_17AnalogOutputInt32EEEZNS_18TypedCommandHeaderIS2_E19ApplySelectResponseERKNS_11ICollectionIS3_EEEUlS3_E_E7OnValueERKS3_, .-_ZN8opendnp314FunctorVisitorINS_7IndexedINS_17AnalogOutputInt32EEEZNS_18TypedCommandHeaderIS2_E19ApplySelectResponseERKNS_11ICollectionIS3_EEEUlS3_E_E7OnValueERKS3_
	.section	.text._ZN8opendnp314FunctorVisitorINS_7IndexedINS_17AnalogOutputInt16EEEZNS_18TypedCommandHeaderIS2_E20ApplyOperateResponseERKNS_11ICollectionIS3_EEEUlS3_E_E7OnValueERKS3_,"axG",@progbits,_ZN8opendnp314FunctorVisitorINS_7IndexedINS_17AnalogOutputInt16EEEZNS_18TypedCommandHeaderIS2_E20ApplyOperateResponseERKNS_11ICollectionIS3_EEEUlS3_E_E7OnValueERKS3_,comdat
	.align	2
	.p2align 4,,11
	.weak	_ZN8opendnp314FunctorVisitorINS_7IndexedINS_17AnalogOutputInt16EEEZNS_18TypedCommandHeaderIS2_E20ApplyOperateResponseERKNS_11ICollectionIS3_EEEUlS3_E_E7OnValueERKS3_
	.type	_ZN8opendnp314FunctorVisitorINS_7IndexedINS_17AnalogOutputInt16EEEZNS_18TypedCommandHeaderIS2_E20ApplyOperateResponseERKNS_11ICollectionIS3_EEEUlS3_E_E7OnValueERKS3_, %function
_ZN8opendnp314FunctorVisitorINS_7IndexedINS_17AnalogOutputInt16EEEZNS_18TypedCommandHeaderIS2_E20ApplyOperateResponseERKNS_11ICollectionIS3_EEEUlS3_E_E7OnValueERKS3_:
.LFB2509:
	.cfi_startproc
	ldp	x3, x2, [x0, 8]
	ldrh	w6, [x1, 4]
	ldrsh	w7, [x1]
	ldrb	w1, [x1, 2]
	ldr	w0, [x2]
	ldr	x5, [x3, 48]
	ubfiz	x4, x0, 3, 32
	add	w0, w0, 1
	add	x3, x5, x4
	str	w0, [x2]
	ldrh	w0, [x3, 2]
	cmp	w0, w6
	bne	.L199
	ldrsh	w0, [x3, 4]
	cmp	w0, w7
	beq	.L201
	mov	w0, 4
	strb	w0, [x5, x4]
.L199:
	ret
	.p2align 2,,3
.L201:
	mov	w0, 5
	strb	w0, [x5, x4]
	strb	w1, [x3, 1]
	ret
	.cfi_endproc
.LFE2509:
	.size	_ZN8opendnp314FunctorVisitorINS_7IndexedINS_17AnalogOutputInt16EEEZNS_18TypedCommandHeaderIS2_E20ApplyOperateResponseERKNS_11ICollectionIS3_EEEUlS3_E_E7OnValueERKS3_, .-_ZN8opendnp314FunctorVisitorINS_7IndexedINS_17AnalogOutputInt16EEEZNS_18TypedCommandHeaderIS2_E20ApplyOperateResponseERKNS_11ICollectionIS3_EEEUlS3_E_E7OnValueERKS3_
	.section	.text._ZN8opendnp314FunctorVisitorINS_7IndexedINS_17AnalogOutputInt16EEEZNS_18TypedCommandHeaderIS2_E19ApplySelectResponseERKNS_11ICollectionIS3_EEEUlS3_E_E7OnValueERKS3_,"axG",@progbits,_ZN8opendnp314FunctorVisitorINS_7IndexedINS_17AnalogOutputInt16EEEZNS_18TypedCommandHeaderIS2_E19ApplySelectResponseERKNS_11ICollectionIS3_EEEUlS3_E_E7OnValueERKS3_,comdat
	.align	2
	.p2align 4,,11
	.weak	_ZN8opendnp314FunctorVisitorINS_7IndexedINS_17AnalogOutputInt16EEEZNS_18TypedCommandHeaderIS2_E19ApplySelectResponseERKNS_11ICollectionIS3_EEEUlS3_E_E7OnValueERKS3_
	.type	_ZN8opendnp314FunctorVisitorINS_7IndexedINS_17AnalogOutputInt16EEEZNS_18TypedCommandHeaderIS2_E19ApplySelectResponseERKNS_11ICollectionIS3_EEEUlS3_E_E7OnValueERKS3_, %function
_ZN8opendnp314FunctorVisitorINS_7IndexedINS_17AnalogOutputInt16EEEZNS_18TypedCommandHeaderIS2_E19ApplySelectResponseERKNS_11ICollectionIS3_EEEUlS3_E_E7OnValueERKS3_:
.LFB2510:
	.cfi_startproc
	ldp	x3, x2, [x0, 8]
	ldrh	w6, [x1, 4]
	ldrsh	w7, [x1]
	ldrb	w1, [x1, 2]
	ldr	w0, [x2]
	ldr	x5, [x3, 48]
	ubfiz	x4, x0, 3, 32
	add	w0, w0, 1
	add	x3, x5, x4
	str	w0, [x2]
	ldrh	w0, [x3, 2]
	cmp	w0, w6
	bne	.L202
	ldrsh	w0, [x3, 4]
	cmp	w0, w7
	beq	.L204
	mov	w0, 2
	strb	w0, [x5, x4]
.L202:
	ret
	.p2align 2,,3
.L204:
	cbnz	w1, .L206
	ldrb	w0, [x5, x4]
	cbnz	w0, .L202
	mov	w0, 1
	strb	w0, [x5, x4]
	ret
	.p2align 2,,3
.L206:
	mov	w0, 3
	strb	w0, [x5, x4]
	strb	w1, [x3, 1]
	ret
	.cfi_endproc
.LFE2510:
	.size	_ZN8opendnp314FunctorVisitorINS_7IndexedINS_17AnalogOutputInt16EEEZNS_18TypedCommandHeaderIS2_E19ApplySelectResponseERKNS_11ICollectionIS3_EEEUlS3_E_E7OnValueERKS3_, .-_ZN8opendnp314FunctorVisitorINS_7IndexedINS_17AnalogOutputInt16EEEZNS_18TypedCommandHeaderIS2_E19ApplySelectResponseERKNS_11ICollectionIS3_EEEUlS3_E_E7OnValueERKS3_
	.section	.text._ZN8opendnp314FunctorVisitorINS_7IndexedINS_19AnalogOutputFloat32EEEZNS_18TypedCommandHeaderIS2_E20ApplyOperateResponseERKNS_11ICollectionIS3_EEEUlS3_E_E7OnValueERKS3_,"axG",@progbits,_ZN8opendnp314FunctorVisitorINS_7IndexedINS_19AnalogOutputFloat32EEEZNS_18TypedCommandHeaderIS2_E20ApplyOperateResponseERKNS_11ICollectionIS3_EEEUlS3_E_E7OnValueERKS3_,comdat
	.align	2
	.p2align 4,,11
	.weak	_ZN8opendnp314FunctorVisitorINS_7IndexedINS_19AnalogOutputFloat32EEEZNS_18TypedCommandHeaderIS2_E20ApplyOperateResponseERKNS_11ICollectionIS3_EEEUlS3_E_E7OnValueERKS3_
	.type	_ZN8opendnp314FunctorVisitorINS_7IndexedINS_19AnalogOutputFloat32EEEZNS_18TypedCommandHeaderIS2_E20ApplyOperateResponseERKNS_11ICollectionIS3_EEEUlS3_E_E7OnValueERKS3_, %function
_ZN8opendnp314FunctorVisitorINS_7IndexedINS_19AnalogOutputFloat32EEEZNS_18TypedCommandHeaderIS2_E20ApplyOperateResponseERKNS_11ICollectionIS3_EEEUlS3_E_E7OnValueERKS3_:
.LFB2511:
	.cfi_startproc
	ldp	x3, x2, [x0, 8]
	mov	w6, 12
	ldrh	w4, [x1, 8]
	ldr	s0, [x1]
	ldr	w0, [x2]
	ldr	x3, [x3, 48]
	add	w5, w0, 1
	umull	x0, w0, w6
	ldrb	w6, [x1, 4]
	str	w5, [x2]
	add	x1, x3, x0
	ldrh	w2, [x1, 2]
	cmp	w2, w4
	bne	.L207
	ldr	s1, [x1, 4]
	fcmp	s0, s1
	bne	.L210
	mov	w2, 5
	strb	w2, [x3, x0]
	strb	w6, [x1, 1]
.L207:
	ret
	.p2align 2,,3
.L210:
	mov	w1, 4
	strb	w1, [x3, x0]
	ret
	.cfi_endproc
.LFE2511:
	.size	_ZN8opendnp314FunctorVisitorINS_7IndexedINS_19AnalogOutputFloat32EEEZNS_18TypedCommandHeaderIS2_E20ApplyOperateResponseERKNS_11ICollectionIS3_EEEUlS3_E_E7OnValueERKS3_, .-_ZN8opendnp314FunctorVisitorINS_7IndexedINS_19AnalogOutputFloat32EEEZNS_18TypedCommandHeaderIS2_E20ApplyOperateResponseERKNS_11ICollectionIS3_EEEUlS3_E_E7OnValueERKS3_
	.section	.text._ZN8opendnp314FunctorVisitorINS_7IndexedINS_19AnalogOutputFloat32EEEZNS_18TypedCommandHeaderIS2_E19ApplySelectResponseERKNS_11ICollectionIS3_EEEUlS3_E_E7OnValueERKS3_,"axG",@progbits,_ZN8opendnp314FunctorVisitorINS_7IndexedINS_19AnalogOutputFloat32EEEZNS_18TypedCommandHeaderIS2_E19ApplySelectResponseERKNS_11ICollectionIS3_EEEUlS3_E_E7OnValueERKS3_,comdat
	.align	2
	.p2align 4,,11
	.weak	_ZN8opendnp314FunctorVisitorINS_7IndexedINS_19AnalogOutputFloat32EEEZNS_18TypedCommandHeaderIS2_E19ApplySelectResponseERKNS_11ICollectionIS3_EEEUlS3_E_E7OnValueERKS3_
	.type	_ZN8opendnp314FunctorVisitorINS_7IndexedINS_19AnalogOutputFloat32EEEZNS_18TypedCommandHeaderIS2_E19ApplySelectResponseERKNS_11ICollectionIS3_EEEUlS3_E_E7OnValueERKS3_, %function
_ZN8opendnp314FunctorVisitorINS_7IndexedINS_19AnalogOutputFloat32EEEZNS_18TypedCommandHeaderIS2_E19ApplySelectResponseERKNS_11ICollectionIS3_EEEUlS3_E_E7OnValueERKS3_:
.LFB2512:
	.cfi_startproc
	ldp	x3, x2, [x0, 8]
	mov	w6, 12
	ldrh	w4, [x1, 8]
	ldr	s0, [x1]
	ldr	w0, [x2]
	ldr	x3, [x3, 48]
	add	w5, w0, 1
	umull	x0, w0, w6
	ldrb	w6, [x1, 4]
	str	w5, [x2]
	add	x1, x3, x0
	ldrh	w2, [x1, 2]
	cmp	w2, w4
	bne	.L211
	ldr	s1, [x1, 4]
	fcmp	s1, s0
	bne	.L215
	cbnz	w6, .L216
	ldrb	w1, [x3, x0]
	cbnz	w1, .L211
	mov	w1, 1
	strb	w1, [x3, x0]
.L211:
	ret
	.p2align 2,,3
.L215:
	mov	w1, 2
	strb	w1, [x3, x0]
	ret
	.p2align 2,,3
.L216:
	mov	w2, 3
	strb	w2, [x3, x0]
	strb	w6, [x1, 1]
	ret
	.cfi_endproc
.LFE2512:
	.size	_ZN8opendnp314FunctorVisitorINS_7IndexedINS_19AnalogOutputFloat32EEEZNS_18TypedCommandHeaderIS2_E19ApplySelectResponseERKNS_11ICollectionIS3_EEEUlS3_E_E7OnValueERKS3_, .-_ZN8opendnp314FunctorVisitorINS_7IndexedINS_19AnalogOutputFloat32EEEZNS_18TypedCommandHeaderIS2_E19ApplySelectResponseERKNS_11ICollectionIS3_EEEUlS3_E_E7OnValueERKS3_
	.section	.text._ZN8opendnp314FunctorVisitorINS_7IndexedINS_20AnalogOutputDouble64EEEZNS_18TypedCommandHeaderIS2_E20ApplyOperateResponseERKNS_11ICollectionIS3_EEEUlS3_E_E7OnValueERKS3_,"axG",@progbits,_ZN8opendnp314FunctorVisitorINS_7IndexedINS_20AnalogOutputDouble64EEEZNS_18TypedCommandHeaderIS2_E20ApplyOperateResponseERKNS_11ICollectionIS3_EEEUlS3_E_E7OnValueERKS3_,comdat
	.align	2
	.p2align 4,,11
	.weak	_ZN8opendnp314FunctorVisitorINS_7IndexedINS_20AnalogOutputDouble64EEEZNS_18TypedCommandHeaderIS2_E20ApplyOperateResponseERKNS_11ICollectionIS3_EEEUlS3_E_E7OnValueERKS3_
	.type	_ZN8opendnp314FunctorVisitorINS_7IndexedINS_20AnalogOutputDouble64EEEZNS_18TypedCommandHeaderIS2_E20ApplyOperateResponseERKNS_11ICollectionIS3_EEEUlS3_E_E7OnValueERKS3_, %function
_ZN8opendnp314FunctorVisitorINS_7IndexedINS_20AnalogOutputDouble64EEEZNS_18TypedCommandHeaderIS2_E20ApplyOperateResponseERKNS_11ICollectionIS3_EEEUlS3_E_E7OnValueERKS3_:
.LFB2513:
	.cfi_startproc
	ldp	x3, x2, [x0, 8]
	mov	w6, 24
	ldrh	w4, [x1, 16]
	ldr	d0, [x1]
	ldr	w0, [x2]
	ldr	x3, [x3, 48]
	add	w5, w0, 1
	umull	x0, w0, w6
	ldrb	w6, [x1, 8]
	str	w5, [x2]
	add	x1, x3, x0
	ldrh	w2, [x1, 2]
	cmp	w2, w4
	bne	.L217
	ldr	d1, [x1, 8]
	fcmp	d0, d1
	bne	.L220
	mov	w2, 5
	strb	w2, [x3, x0]
	strb	w6, [x1, 1]
.L217:
	ret
	.p2align 2,,3
.L220:
	mov	w1, 4
	strb	w1, [x3, x0]
	ret
	.cfi_endproc
.LFE2513:
	.size	_ZN8opendnp314FunctorVisitorINS_7IndexedINS_20AnalogOutputDouble64EEEZNS_18TypedCommandHeaderIS2_E20ApplyOperateResponseERKNS_11ICollectionIS3_EEEUlS3_E_E7OnValueERKS3_, .-_ZN8opendnp314FunctorVisitorINS_7IndexedINS_20AnalogOutputDouble64EEEZNS_18TypedCommandHeaderIS2_E20ApplyOperateResponseERKNS_11ICollectionIS3_EEEUlS3_E_E7OnValueERKS3_
	.section	.text._ZN8opendnp314FunctorVisitorINS_7IndexedINS_20AnalogOutputDouble64EEEZNS_18TypedCommandHeaderIS2_E19ApplySelectResponseERKNS_11ICollectionIS3_EEEUlS3_E_E7OnValueERKS3_,"axG",@progbits,_ZN8opendnp314FunctorVisitorINS_7IndexedINS_20AnalogOutputDouble64EEEZNS_18TypedCommandHeaderIS2_E19ApplySelectResponseERKNS_11ICollectionIS3_EEEUlS3_E_E7OnValueERKS3_,comdat
	.align	2
	.p2align 4,,11
	.weak	_ZN8opendnp314FunctorVisitorINS_7IndexedINS_20AnalogOutputDouble64EEEZNS_18TypedCommandHeaderIS2_E19ApplySelectResponseERKNS_11ICollectionIS3_EEEUlS3_E_E7OnValueERKS3_
	.type	_ZN8opendnp314FunctorVisitorINS_7IndexedINS_20AnalogOutputDouble64EEEZNS_18TypedCommandHeaderIS2_E19ApplySelectResponseERKNS_11ICollectionIS3_EEEUlS3_E_E7OnValueERKS3_, %function
_ZN8opendnp314FunctorVisitorINS_7IndexedINS_20AnalogOutputDouble64EEEZNS_18TypedCommandHeaderIS2_E19ApplySelectResponseERKNS_11ICollectionIS3_EEEUlS3_E_E7OnValueERKS3_:
.LFB2514:
	.cfi_startproc
	ldp	x3, x2, [x0, 8]
	mov	w6, 24
	ldrh	w4, [x1, 16]
	ldr	d0, [x1]
	ldr	w0, [x2]
	ldr	x3, [x3, 48]
	add	w5, w0, 1
	umull	x0, w0, w6
	ldrb	w6, [x1, 8]
	str	w5, [x2]
	add	x1, x3, x0
	ldrh	w2, [x1, 2]
	cmp	w2, w4
	bne	.L221
	ldr	d1, [x1, 8]
	fcmp	d1, d0
	bne	.L225
	cbnz	w6, .L226
	ldrb	w1, [x3, x0]
	cbnz	w1, .L221
	mov	w1, 1
	strb	w1, [x3, x0]
.L221:
	ret
	.p2align 2,,3
.L225:
	mov	w1, 2
	strb	w1, [x3, x0]
	ret
	.p2align 2,,3
.L226:
	mov	w2, 3
	strb	w2, [x3, x0]
	strb	w6, [x1, 1]
	ret
	.cfi_endproc
.LFE2514:
	.size	_ZN8opendnp314FunctorVisitorINS_7IndexedINS_20AnalogOutputDouble64EEEZNS_18TypedCommandHeaderIS2_E19ApplySelectResponseERKNS_11ICollectionIS3_EEEUlS3_E_E7OnValueERKS3_, .-_ZN8opendnp314FunctorVisitorINS_7IndexedINS_20AnalogOutputDouble64EEEZNS_18TypedCommandHeaderIS2_E19ApplySelectResponseERKNS_11ICollectionIS3_EEEUlS3_E_E7OnValueERKS3_
	.section	.text._ZN8opendnp318TypedCommandHeaderINS_23ControlRelayOutputBlockEED2Ev,"axG",@progbits,_ZN8opendnp318TypedCommandHeaderINS_23ControlRelayOutputBlockEED5Ev,comdat
	.align	2
	.p2align 4,,11
	.weak	_ZN8opendnp318TypedCommandHeaderINS_23ControlRelayOutputBlockEED2Ev
	.type	_ZN8opendnp318TypedCommandHeaderINS_23ControlRelayOutputBlockEED2Ev, %function
_ZN8opendnp318TypedCommandHeaderINS_23ControlRelayOutputBlockEED2Ev:
.LFB1845:
	.cfi_startproc
	adrp	x3, :got:_ZTVN8opendnp318TypedCommandHeaderINS_23ControlRelayOutputBlockEEE
	mov	x2, x0
	ldr	x0, [x0, 48]
	ldr	x3, [x3, #:got_lo12:_ZTVN8opendnp318TypedCommandHeaderINS_23ControlRelayOutputBlockEEE]
	add	x1, x3, 16
	add	x3, x3, 168
	stp	x1, x3, [x2]
	cbz	x0, .L227
	ldr	x1, [x2, 64]
	sub	x1, x1, x0
	b	_ZdlPvm
	.p2align 2,,3
.L227:
	ret
	.cfi_endproc
.LFE1845:
	.size	_ZN8opendnp318TypedCommandHeaderINS_23ControlRelayOutputBlockEED2Ev, .-_ZN8opendnp318TypedCommandHeaderINS_23ControlRelayOutputBlockEED2Ev
	.weak	_ZN8opendnp318TypedCommandHeaderINS_23ControlRelayOutputBlockEED1Ev
	.set	_ZN8opendnp318TypedCommandHeaderINS_23ControlRelayOutputBlockEED1Ev,_ZN8opendnp318TypedCommandHeaderINS_23ControlRelayOutputBlockEED2Ev
	.section	.text._ZN8opendnp318TypedCommandHeaderINS_23ControlRelayOutputBlockEED0Ev,"axG",@progbits,_ZN8opendnp318TypedCommandHeaderINS_23ControlRelayOutputBlockEED5Ev,comdat
	.align	2
	.p2align 4,,11
	.weak	_ZN8opendnp318TypedCommandHeaderINS_23ControlRelayOutputBlockEED0Ev
	.type	_ZN8opendnp318TypedCommandHeaderINS_23ControlRelayOutputBlockEED0Ev, %function
_ZN8opendnp318TypedCommandHeaderINS_23ControlRelayOutputBlockEED0Ev:
.LFB1847:
	.cfi_startproc
	stp	x29, x30, [sp, -32]!
	.cfi_def_cfa_offset 32
	.cfi_offset 29, -32
	.cfi_offset 30, -24
	adrp	x2, :got:_ZTVN8opendnp318TypedCommandHeaderINS_23ControlRelayOutputBlockEEE
	mov	x29, sp
	ldr	x2, [x2, #:got_lo12:_ZTVN8opendnp318TypedCommandHeaderINS_23ControlRelayOutputBlockEEE]
	str	x19, [sp, 16]
	.cfi_offset 19, -16
	mov	x19, x0
	ldr	x0, [x0, 48]
	add	x1, x2, 16
	add	x2, x2, 168
	stp	x1, x2, [x19]
	cbz	x0, .L230
	ldr	x1, [x19, 64]
	sub	x1, x1, x0
	bl	_ZdlPvm
.L230:
	mov	x0, x19
	mov	x1, 72
	ldr	x19, [sp, 16]
	ldp	x29, x30, [sp], 32
	.cfi_restore 30
	.cfi_restore 29
	.cfi_restore 19
	.cfi_def_cfa_offset 0
	b	_ZdlPvm
	.cfi_endproc
.LFE1847:
	.size	_ZN8opendnp318TypedCommandHeaderINS_23ControlRelayOutputBlockEED0Ev, .-_ZN8opendnp318TypedCommandHeaderINS_23ControlRelayOutputBlockEED0Ev
	.section	.text._ZN8opendnp318TypedCommandHeaderINS_17AnalogOutputInt32EED2Ev,"axG",@progbits,_ZN8opendnp318TypedCommandHeaderINS_17AnalogOutputInt32EED5Ev,comdat
	.align	2
	.p2align 4,,11
	.weak	_ZN8opendnp318TypedCommandHeaderINS_17AnalogOutputInt32EED2Ev
	.type	_ZN8opendnp318TypedCommandHeaderINS_17AnalogOutputInt32EED2Ev, %function
_ZN8opendnp318TypedCommandHeaderINS_17AnalogOutputInt32EED2Ev:
.LFB1841:
	.cfi_startproc
	adrp	x3, :got:_ZTVN8opendnp318TypedCommandHeaderINS_17AnalogOutputInt32EEE
	mov	x2, x0
	ldr	x0, [x0, 48]
	ldr	x3, [x3, #:got_lo12:_ZTVN8opendnp318TypedCommandHeaderINS_17AnalogOutputInt32EEE]
	add	x1, x3, 16
	add	x3, x3, 168
	stp	x1, x3, [x2]
	cbz	x0, .L235
	ldr	x1, [x2, 64]
	sub	x1, x1, x0
	b	_ZdlPvm
	.p2align 2,,3
.L235:
	ret
	.cfi_endproc
.LFE1841:
	.size	_ZN8opendnp318TypedCommandHeaderINS_17AnalogOutputInt32EED2Ev, .-_ZN8opendnp318TypedCommandHeaderINS_17AnalogOutputInt32EED2Ev
	.weak	_ZN8opendnp318TypedCommandHeaderINS_17AnalogOutputInt32EED1Ev
	.set	_ZN8opendnp318TypedCommandHeaderINS_17AnalogOutputInt32EED1Ev,_ZN8opendnp318TypedCommandHeaderINS_17AnalogOutputInt32EED2Ev
	.section	.text._ZN8opendnp318TypedCommandHeaderINS_17AnalogOutputInt32EED0Ev,"axG",@progbits,_ZN8opendnp318TypedCommandHeaderINS_17AnalogOutputInt32EED5Ev,comdat
	.align	2
	.p2align 4,,11
	.weak	_ZN8opendnp318TypedCommandHeaderINS_17AnalogOutputInt32EED0Ev
	.type	_ZN8opendnp318TypedCommandHeaderINS_17AnalogOutputInt32EED0Ev, %function
_ZN8opendnp318TypedCommandHeaderINS_17AnalogOutputInt32EED0Ev:
.LFB1843:
	.cfi_startproc
	stp	x29, x30, [sp, -32]!
	.cfi_def_cfa_offset 32
	.cfi_offset 29, -32
	.cfi_offset 30, -24
	adrp	x2, :got:_ZTVN8opendnp318TypedCommandHeaderINS_17AnalogOutputInt32EEE
	mov	x29, sp
	ldr	x2, [x2, #:got_lo12:_ZTVN8opendnp318TypedCommandHeaderINS_17AnalogOutputInt32EEE]
	str	x19, [sp, 16]
	.cfi_offset 19, -16
	mov	x19, x0
	ldr	x0, [x0, 48]
	add	x1, x2, 16
	add	x2, x2, 168
	stp	x1, x2, [x19]
	cbz	x0, .L238
	ldr	x1, [x19, 64]
	sub	x1, x1, x0
	bl	_ZdlPvm
.L238:
	mov	x0, x19
	mov	x1, 72
	ldr	x19, [sp, 16]
	ldp	x29, x30, [sp], 32
	.cfi_restore 30
	.cfi_restore 29
	.cfi_restore 19
	.cfi_def_cfa_offset 0
	b	_ZdlPvm
	.cfi_endproc
.LFE1843:
	.size	_ZN8opendnp318TypedCommandHeaderINS_17AnalogOutputInt32EED0Ev, .-_ZN8opendnp318TypedCommandHeaderINS_17AnalogOutputInt32EED0Ev
	.section	.text._ZN8opendnp318TypedCommandHeaderINS_17AnalogOutputInt16EED2Ev,"axG",@progbits,_ZN8opendnp318TypedCommandHeaderINS_17AnalogOutputInt16EED5Ev,comdat
	.align	2
	.p2align 4,,11
	.weak	_ZN8opendnp318TypedCommandHeaderINS_17AnalogOutputInt16EED2Ev
	.type	_ZN8opendnp318TypedCommandHeaderINS_17AnalogOutputInt16EED2Ev, %function
_ZN8opendnp318TypedCommandHeaderINS_17AnalogOutputInt16EED2Ev:
.LFB1837:
	.cfi_startproc
	adrp	x3, :got:_ZTVN8opendnp318TypedCommandHeaderINS_17AnalogOutputInt16EEE
	mov	x2, x0
	ldr	x0, [x0, 48]
	ldr	x3, [x3, #:got_lo12:_ZTVN8opendnp318TypedCommandHeaderINS_17AnalogOutputInt16EEE]
	add	x1, x3, 16
	add	x3, x3, 168
	stp	x1, x3, [x2]
	cbz	x0, .L243
	ldr	x1, [x2, 64]
	sub	x1, x1, x0
	b	_ZdlPvm
	.p2align 2,,3
.L243:
	ret
	.cfi_endproc
.LFE1837:
	.size	_ZN8opendnp318TypedCommandHeaderINS_17AnalogOutputInt16EED2Ev, .-_ZN8opendnp318TypedCommandHeaderINS_17AnalogOutputInt16EED2Ev
	.weak	_ZN8opendnp318TypedCommandHeaderINS_17AnalogOutputInt16EED1Ev
	.set	_ZN8opendnp318TypedCommandHeaderINS_17AnalogOutputInt16EED1Ev,_ZN8opendnp318TypedCommandHeaderINS_17AnalogOutputInt16EED2Ev
	.section	.text._ZN8opendnp318TypedCommandHeaderINS_17AnalogOutputInt16EED0Ev,"axG",@progbits,_ZN8opendnp318TypedCommandHeaderINS_17AnalogOutputInt16EED5Ev,comdat
	.align	2
	.p2align 4,,11
	.weak	_ZN8opendnp318TypedCommandHeaderINS_17AnalogOutputInt16EED0Ev
	.type	_ZN8opendnp318TypedCommandHeaderINS_17AnalogOutputInt16EED0Ev, %function
_ZN8opendnp318TypedCommandHeaderINS_17AnalogOutputInt16EED0Ev:
.LFB1839:
	.cfi_startproc
	stp	x29, x30, [sp, -32]!
	.cfi_def_cfa_offset 32
	.cfi_offset 29, -32
	.cfi_offset 30, -24
	adrp	x2, :got:_ZTVN8opendnp318TypedCommandHeaderINS_17AnalogOutputInt16EEE
	mov	x29, sp
	ldr	x2, [x2, #:got_lo12:_ZTVN8opendnp318TypedCommandHeaderINS_17AnalogOutputInt16EEE]
	str	x19, [sp, 16]
	.cfi_offset 19, -16
	mov	x19, x0
	ldr	x0, [x0, 48]
	add	x1, x2, 16
	add	x2, x2, 168
	stp	x1, x2, [x19]
	cbz	x0, .L246
	ldr	x1, [x19, 64]
	sub	x1, x1, x0
	bl	_ZdlPvm
.L246:
	mov	x0, x19
	mov	x1, 72
	ldr	x19, [sp, 16]
	ldp	x29, x30, [sp], 32
	.cfi_restore 30
	.cfi_restore 29
	.cfi_restore 19
	.cfi_def_cfa_offset 0
	b	_ZdlPvm
	.cfi_endproc
.LFE1839:
	.size	_ZN8opendnp318TypedCommandHeaderINS_17AnalogOutputInt16EED0Ev, .-_ZN8opendnp318TypedCommandHeaderINS_17AnalogOutputInt16EED0Ev
	.section	.text._ZN8opendnp318TypedCommandHeaderINS_19AnalogOutputFloat32EED2Ev,"axG",@progbits,_ZN8opendnp318TypedCommandHeaderINS_19AnalogOutputFloat32EED5Ev,comdat
	.align	2
	.p2align 4,,11
	.weak	_ZN8opendnp318TypedCommandHeaderINS_19AnalogOutputFloat32EED2Ev
	.type	_ZN8opendnp318TypedCommandHeaderINS_19AnalogOutputFloat32EED2Ev, %function
_ZN8opendnp318TypedCommandHeaderINS_19AnalogOutputFloat32EED2Ev:
.LFB1833:
	.cfi_startproc
	adrp	x3, :got:_ZTVN8opendnp318TypedCommandHeaderINS_19AnalogOutputFloat32EEE
	mov	x2, x0
	ldr	x0, [x0, 48]
	ldr	x3, [x3, #:got_lo12:_ZTVN8opendnp318TypedCommandHeaderINS_19AnalogOutputFloat32EEE]
	add	x1, x3, 16
	add	x3, x3, 168
	stp	x1, x3, [x2]
	cbz	x0, .L251
	ldr	x1, [x2, 64]
	sub	x1, x1, x0
	b	_ZdlPvm
	.p2align 2,,3
.L251:
	ret
	.cfi_endproc
.LFE1833:
	.size	_ZN8opendnp318TypedCommandHeaderINS_19AnalogOutputFloat32EED2Ev, .-_ZN8opendnp318TypedCommandHeaderINS_19AnalogOutputFloat32EED2Ev
	.weak	_ZN8opendnp318TypedCommandHeaderINS_19AnalogOutputFloat32EED1Ev
	.set	_ZN8opendnp318TypedCommandHeaderINS_19AnalogOutputFloat32EED1Ev,_ZN8opendnp318TypedCommandHeaderINS_19AnalogOutputFloat32EED2Ev
	.section	.text._ZN8opendnp318TypedCommandHeaderINS_19AnalogOutputFloat32EED0Ev,"axG",@progbits,_ZN8opendnp318TypedCommandHeaderINS_19AnalogOutputFloat32EED5Ev,comdat
	.align	2
	.p2align 4,,11
	.weak	_ZN8opendnp318TypedCommandHeaderINS_19AnalogOutputFloat32EED0Ev
	.type	_ZN8opendnp318TypedCommandHeaderINS_19AnalogOutputFloat32EED0Ev, %function
_ZN8opendnp318TypedCommandHeaderINS_19AnalogOutputFloat32EED0Ev:
.LFB1835:
	.cfi_startproc
	stp	x29, x30, [sp, -32]!
	.cfi_def_cfa_offset 32
	.cfi_offset 29, -32
	.cfi_offset 30, -24
	adrp	x2, :got:_ZTVN8opendnp318TypedCommandHeaderINS_19AnalogOutputFloat32EEE
	mov	x29, sp
	ldr	x2, [x2, #:got_lo12:_ZTVN8opendnp318TypedCommandHeaderINS_19AnalogOutputFloat32EEE]
	str	x19, [sp, 16]
	.cfi_offset 19, -16
	mov	x19, x0
	ldr	x0, [x0, 48]
	add	x1, x2, 16
	add	x2, x2, 168
	stp	x1, x2, [x19]
	cbz	x0, .L254
	ldr	x1, [x19, 64]
	sub	x1, x1, x0
	bl	_ZdlPvm
.L254:
	mov	x0, x19
	mov	x1, 72
	ldr	x19, [sp, 16]
	ldp	x29, x30, [sp], 32
	.cfi_restore 30
	.cfi_restore 29
	.cfi_restore 19
	.cfi_def_cfa_offset 0
	b	_ZdlPvm
	.cfi_endproc
.LFE1835:
	.size	_ZN8opendnp318TypedCommandHeaderINS_19AnalogOutputFloat32EED0Ev, .-_ZN8opendnp318TypedCommandHeaderINS_19AnalogOutputFloat32EED0Ev
	.section	.text._ZN8opendnp318TypedCommandHeaderINS_20AnalogOutputDouble64EED2Ev,"axG",@progbits,_ZN8opendnp318TypedCommandHeaderINS_20AnalogOutputDouble64EED5Ev,comdat
	.align	2
	.p2align 4,,11
	.weak	_ZN8opendnp318TypedCommandHeaderINS_20AnalogOutputDouble64EED2Ev
	.type	_ZN8opendnp318TypedCommandHeaderINS_20AnalogOutputDouble64EED2Ev, %function
_ZN8opendnp318TypedCommandHeaderINS_20AnalogOutputDouble64EED2Ev:
.LFB1829:
	.cfi_startproc
	adrp	x3, :got:_ZTVN8opendnp318TypedCommandHeaderINS_20AnalogOutputDouble64EEE
	mov	x2, x0
	ldr	x0, [x0, 48]
	ldr	x3, [x3, #:got_lo12:_ZTVN8opendnp318TypedCommandHeaderINS_20AnalogOutputDouble64EEE]
	add	x1, x3, 16
	add	x3, x3, 168
	stp	x1, x3, [x2]
	cbz	x0, .L259
	ldr	x1, [x2, 64]
	sub	x1, x1, x0
	b	_ZdlPvm
	.p2align 2,,3
.L259:
	ret
	.cfi_endproc
.LFE1829:
	.size	_ZN8opendnp318TypedCommandHeaderINS_20AnalogOutputDouble64EED2Ev, .-_ZN8opendnp318TypedCommandHeaderINS_20AnalogOutputDouble64EED2Ev
	.weak	_ZN8opendnp318TypedCommandHeaderINS_20AnalogOutputDouble64EED1Ev
	.set	_ZN8opendnp318TypedCommandHeaderINS_20AnalogOutputDouble64EED1Ev,_ZN8opendnp318TypedCommandHeaderINS_20AnalogOutputDouble64EED2Ev
	.section	.text._ZN8opendnp318TypedCommandHeaderINS_20AnalogOutputDouble64EED0Ev,"axG",@progbits,_ZN8opendnp318TypedCommandHeaderINS_20AnalogOutputDouble64EED5Ev,comdat
	.align	2
	.p2align 4,,11
	.weak	_ZN8opendnp318TypedCommandHeaderINS_20AnalogOutputDouble64EED0Ev
	.type	_ZN8opendnp318TypedCommandHeaderINS_20AnalogOutputDouble64EED0Ev, %function
_ZN8opendnp318TypedCommandHeaderINS_20AnalogOutputDouble64EED0Ev:
.LFB1831:
	.cfi_startproc
	stp	x29, x30, [sp, -32]!
	.cfi_def_cfa_offset 32
	.cfi_offset 29, -32
	.cfi_offset 30, -24
	adrp	x2, :got:_ZTVN8opendnp318TypedCommandHeaderINS_20AnalogOutputDouble64EEE
	mov	x29, sp
	ldr	x2, [x2, #:got_lo12:_ZTVN8opendnp318TypedCommandHeaderINS_20AnalogOutputDouble64EEE]
	str	x19, [sp, 16]
	.cfi_offset 19, -16
	mov	x19, x0
	ldr	x0, [x0, 48]
	add	x1, x2, 16
	add	x2, x2, 168
	stp	x1, x2, [x19]
	cbz	x0, .L262
	ldr	x1, [x19, 64]
	sub	x1, x1, x0
	bl	_ZdlPvm
.L262:
	mov	x0, x19
	mov	x1, 72
	ldr	x19, [sp, 16]
	ldp	x29, x30, [sp], 32
	.cfi_restore 30
	.cfi_restore 29
	.cfi_restore 19
	.cfi_def_cfa_offset 0
	b	_ZdlPvm
	.cfi_endproc
.LFE1831:
	.size	_ZN8opendnp318TypedCommandHeaderINS_20AnalogOutputDouble64EED0Ev, .-_ZN8opendnp318TypedCommandHeaderINS_20AnalogOutputDouble64EED0Ev
	.section	.text._ZNK8opendnp318TypedCommandHeaderINS_20AnalogOutputDouble64EE5WriteERNS_12HeaderWriterE,"axG",@progbits,_ZNK8opendnp318TypedCommandHeaderINS_20AnalogOutputDouble64EE5WriteERNS_12HeaderWriterE,comdat
	.align	2
	.p2align 4,,11
	.weak	_ZNK8opendnp318TypedCommandHeaderINS_20AnalogOutputDouble64EE5WriteERNS_12HeaderWriterE
	.type	_ZNK8opendnp318TypedCommandHeaderINS_20AnalogOutputDouble64EE5WriteERNS_12HeaderWriterE, %function
_ZNK8opendnp318TypedCommandHeaderINS_20AnalogOutputDouble64EE5WriteERNS_12HeaderWriterE:
.LFB1850:
	.cfi_startproc
	.cfi_personality 0x9b,DW.ref.__gxx_personality_v0
	.cfi_lsda 0x1b,.LLSDA1850
	stp	x29, x30, [sp, -112]!
	.cfi_def_cfa_offset 112
	.cfi_offset 29, -112
	.cfi_offset 30, -104
	adrp	x2, :got:__stack_chk_guard
	mov	x29, sp
	ldr	x2, [x2, #:got_lo12:__stack_chk_guard]
	stp	x19, x20, [sp, 16]
	.cfi_offset 19, -96
	.cfi_offset 20, -88
	mov	x20, x0
	mov	x19, x1
	ldr	x1, [x2]
	str	x1, [sp, 104]
	mov	x1, 0
	ldr	x0, [x0, 48]
	ldr	x1, [x20, 56]
	cmp	x1, x0
	beq	.L278
	ldr	w3, [x20, 16]
	mov	x0, x19
	str	x21, [sp, 32]
	.cfi_offset 21, -80
	mov	w2, 40
	add	w3, w3, 4
	ldrh	w1, [x20, 40]
.LEHB0:
	bl	_ZN8opendnp312HeaderWriter22WriteHeaderWithReserveENS_16GroupVariationIDENS_13QualifierCodeEj
	tst	w0, 255
	bne	.L296
	add	x0, sp, 80
	str	wzr, [sp, 48]
	stp	xzr, xzr, [sp, 56]
	str	wzr, [sp, 72]
	strh	wzr, [sp, 76]
	strb	wzr, [sp, 78]
	bl	_ZN7openpal6WSliceC1Ev
.LEHE0:
	ldrb	w0, [sp, 78]
	str	xzr, [sp, 96]
.L271:
	ldp	x19, x20, [x20, 48]
	cmp	x20, x19
	beq	.L272
	.p2align 3,,7
.L274:
	ldrh	w3, [x19, 2]
	cbz	w0, .L295
	ldr	x0, [sp, 96]
	ldr	w1, [sp, 72]
	ldr	w2, [x0]
	cmp	w2, w1
	bcs	.L297
	mov	w0, 0
.L273:
	ldr	x1, [sp, 88]
	ldrh	w2, [sp, 76]
	strh	w2, [x1]
	ldr	x21, [sp, 32]
	.cfi_restore 21
	.p2align 3,,7
.L268:
	adrp	x1, :got:__stack_chk_guard
	ldr	x1, [x1, #:got_lo12:__stack_chk_guard]
	ldr	x3, [sp, 104]
	ldr	x2, [x1]
	subs	x3, x3, x2
	mov	x2, 0
	bne	.L298
	ldp	x19, x20, [sp, 16]
	ldp	x29, x30, [sp], 112
	.cfi_restore 30
	.cfi_restore 29
	.cfi_restore 19
	.cfi_restore 20
	.cfi_def_cfa_offset 0
	ret
	.p2align 2,,3
.L296:
	.cfi_def_cfa_offset 112
	.cfi_offset 19, -96
	.cfi_offset 20, -88
	.cfi_offset 21, -80
	.cfi_offset 29, -112
	.cfi_offset 30, -104
	ldr	x2, [x19]
	strh	wzr, [sp, 76]
	ldp	x1, x7, [x20, 16]
	mov	w0, 0
	ldr	w3, [x2]
	ldp	x4, x5, [x2]
	cmp	w3, 1
	ldr	x6, [x20, 32]
	cset	w3, hi
	stp	x1, x7, [sp, 48]
	add	w1, w1, 2
	str	x6, [sp, 64]
	str	w1, [sp, 72]
	strb	w3, [sp, 78]
	stp	x4, x5, [sp, 80]
	str	x2, [sp, 96]
	bhi	.L299
	.p2align 3,,7
.L295:
	ldr	x21, [sp, 32]
	.cfi_remember_state
	.cfi_restore 21
	b	.L268
	.p2align 2,,3
.L297:
	.cfi_restore_state
	ldr	x2, [x0, 8]
	mov	w1, 2
	strh	w3, [x2]
.LEHB1:
	bl	_ZN7openpal6WSlice7AdvanceEj
	ldr	x2, [sp, 64]
	add	x0, x19, 8
	ldr	x1, [sp, 96]
	blr	x2
.LEHE1:
	ldrh	w1, [sp, 76]
	add	x19, x19, 24
	ldrb	w0, [sp, 78]
	add	w1, w1, 1
	strh	w1, [sp, 76]
	cmp	x20, x19
	bne	.L274
.L272:
	cbnz	w0, .L273
	ldr	x21, [sp, 32]
	.cfi_restore 21
	b	.L268
	.p2align 2,,3
.L278:
	mov	w0, 0
	b	.L268
	.p2align 2,,3
.L299:
	.cfi_offset 21, -80
	mov	x0, x2
	mov	w1, 2
.LEHB2:
	bl	_ZN7openpal6WSlice7AdvanceEj
	ldrb	w0, [sp, 78]
	b	.L271
.L298:
	.cfi_restore 21
	str	x21, [sp, 32]
	.cfi_offset 21, -80
	bl	__stack_chk_fail
.L281:
	ldrb	w1, [sp, 78]
	cbz	w1, .L276
	ldr	x1, [sp, 88]
	ldrh	w2, [sp, 76]
	strh	w2, [x1]
.L276:
	bl	_Unwind_Resume
.LEHE2:
	.cfi_endproc
.LFE1850:
	.global	__gxx_personality_v0
	.section	.gcc_except_table._ZNK8opendnp318TypedCommandHeaderINS_20AnalogOutputDouble64EE5WriteERNS_12HeaderWriterE,"aG",@progbits,_ZNK8opendnp318TypedCommandHeaderINS_20AnalogOutputDouble64EE5WriteERNS_12HeaderWriterE,comdat
.LLSDA1850:
	.byte	0xff
	.byte	0xff
	.byte	0x1
	.uleb128 .LLSDACSE1850-.LLSDACSB1850
.LLSDACSB1850:
	.uleb128 .LEHB0-.LFB1850
	.uleb128 .LEHE0-.LEHB0
	.uleb128 0
	.uleb128 0
	.uleb128 .LEHB1-.LFB1850
	.uleb128 .LEHE1-.LEHB1
	.uleb128 .L281-.LFB1850
	.uleb128 0
	.uleb128 .LEHB2-.LFB1850
	.uleb128 .LEHE2-.LEHB2
	.uleb128 0
	.uleb128 0
.LLSDACSE1850:
	.section	.text._ZNK8opendnp318TypedCommandHeaderINS_20AnalogOutputDouble64EE5WriteERNS_12HeaderWriterE,"axG",@progbits,_ZNK8opendnp318TypedCommandHeaderINS_20AnalogOutputDouble64EE5WriteERNS_12HeaderWriterE,comdat
	.size	_ZNK8opendnp318TypedCommandHeaderINS_20AnalogOutputDouble64EE5WriteERNS_12HeaderWriterE, .-_ZNK8opendnp318TypedCommandHeaderINS_20AnalogOutputDouble64EE5WriteERNS_12HeaderWriterE
	.section	.text._ZNK8opendnp318TypedCommandHeaderINS_19AnalogOutputFloat32EE5WriteERNS_12HeaderWriterE,"axG",@progbits,_ZNK8opendnp318TypedCommandHeaderINS_19AnalogOutputFloat32EE5WriteERNS_12HeaderWriterE,comdat
	.align	2
	.p2align 4,,11
	.weak	_ZNK8opendnp318TypedCommandHeaderINS_19AnalogOutputFloat32EE5WriteERNS_12HeaderWriterE
	.type	_ZNK8opendnp318TypedCommandHeaderINS_19AnalogOutputFloat32EE5WriteERNS_12HeaderWriterE, %function
_ZNK8opendnp318TypedCommandHeaderINS_19AnalogOutputFloat32EE5WriteERNS_12HeaderWriterE:
.LFB1862:
	.cfi_startproc
	.cfi_personality 0x9b,DW.ref.__gxx_personality_v0
	.cfi_lsda 0x1b,.LLSDA1862
	stp	x29, x30, [sp, -112]!
	.cfi_def_cfa_offset 112
	.cfi_offset 29, -112
	.cfi_offset 30, -104
	adrp	x2, :got:__stack_chk_guard
	mov	x29, sp
	ldr	x2, [x2, #:got_lo12:__stack_chk_guard]
	stp	x19, x20, [sp, 16]
	.cfi_offset 19, -96
	.cfi_offset 20, -88
	mov	x20, x0
	mov	x19, x1
	ldr	x1, [x2]
	str	x1, [sp, 104]
	mov	x1, 0
	ldr	x0, [x0, 48]
	ldr	x1, [x20, 56]
	cmp	x1, x0
	beq	.L311
	ldr	w3, [x20, 16]
	mov	x0, x19
	str	x21, [sp, 32]
	.cfi_offset 21, -80
	mov	w2, 40
	add	w3, w3, 4
	ldrh	w1, [x20, 40]
.LEHB3:
	bl	_ZN8opendnp312HeaderWriter22WriteHeaderWithReserveENS_16GroupVariationIDENS_13QualifierCodeEj
	tst	w0, 255
	bne	.L329
	add	x0, sp, 80
	str	wzr, [sp, 48]
	stp	xzr, xzr, [sp, 56]
	str	wzr, [sp, 72]
	strh	wzr, [sp, 76]
	strb	wzr, [sp, 78]
	bl	_ZN7openpal6WSliceC1Ev
.LEHE3:
	ldrb	w0, [sp, 78]
	str	xzr, [sp, 96]
.L304:
	ldp	x19, x20, [x20, 48]
	cmp	x20, x19
	beq	.L305
	.p2align 3,,7
.L307:
	ldrh	w3, [x19, 2]
	cbz	w0, .L328
	ldr	x0, [sp, 96]
	ldr	w1, [sp, 72]
	ldr	w2, [x0]
	cmp	w2, w1
	bcs	.L330
	mov	w0, 0
.L306:
	ldr	x1, [sp, 88]
	ldrh	w2, [sp, 76]
	strh	w2, [x1]
	ldr	x21, [sp, 32]
	.cfi_restore 21
	.p2align 3,,7
.L301:
	adrp	x1, :got:__stack_chk_guard
	ldr	x1, [x1, #:got_lo12:__stack_chk_guard]
	ldr	x3, [sp, 104]
	ldr	x2, [x1]
	subs	x3, x3, x2
	mov	x2, 0
	bne	.L331
	ldp	x19, x20, [sp, 16]
	ldp	x29, x30, [sp], 112
	.cfi_restore 30
	.cfi_restore 29
	.cfi_restore 19
	.cfi_restore 20
	.cfi_def_cfa_offset 0
	ret
	.p2align 2,,3
.L329:
	.cfi_def_cfa_offset 112
	.cfi_offset 19, -96
	.cfi_offset 20, -88
	.cfi_offset 21, -80
	.cfi_offset 29, -112
	.cfi_offset 30, -104
	ldr	x2, [x19]
	strh	wzr, [sp, 76]
	ldp	x1, x7, [x20, 16]
	mov	w0, 0
	ldr	w3, [x2]
	ldp	x4, x5, [x2]
	cmp	w3, 1
	ldr	x6, [x20, 32]
	cset	w3, hi
	stp	x1, x7, [sp, 48]
	add	w1, w1, 2
	str	x6, [sp, 64]
	str	w1, [sp, 72]
	strb	w3, [sp, 78]
	stp	x4, x5, [sp, 80]
	str	x2, [sp, 96]
	bhi	.L332
	.p2align 3,,7
.L328:
	ldr	x21, [sp, 32]
	.cfi_remember_state
	.cfi_restore 21
	b	.L301
	.p2align 2,,3
.L330:
	.cfi_restore_state
	ldr	x2, [x0, 8]
	mov	w1, 2
	strh	w3, [x2]
.LEHB4:
	bl	_ZN7openpal6WSlice7AdvanceEj
	ldr	x2, [sp, 64]
	add	x0, x19, 4
	ldr	x1, [sp, 96]
	blr	x2
.LEHE4:
	ldrh	w1, [sp, 76]
	add	x19, x19, 12
	ldrb	w0, [sp, 78]
	add	w1, w1, 1
	strh	w1, [sp, 76]
	cmp	x20, x19
	bne	.L307
.L305:
	cbnz	w0, .L306
	ldr	x21, [sp, 32]
	.cfi_restore 21
	b	.L301
	.p2align 2,,3
.L311:
	mov	w0, 0
	b	.L301
	.p2align 2,,3
.L332:
	.cfi_offset 21, -80
	mov	x0, x2
	mov	w1, 2
.LEHB5:
	bl	_ZN7openpal6WSlice7AdvanceEj
	ldrb	w0, [sp, 78]
	b	.L304
.L331:
	.cfi_restore 21
	str	x21, [sp, 32]
	.cfi_offset 21, -80
	bl	__stack_chk_fail
.L314:
	ldrb	w1, [sp, 78]
	cbz	w1, .L309
	ldr	x1, [sp, 88]
	ldrh	w2, [sp, 76]
	strh	w2, [x1]
.L309:
	bl	_Unwind_Resume
.LEHE5:
	.cfi_endproc
.LFE1862:
	.section	.gcc_except_table._ZNK8opendnp318TypedCommandHeaderINS_19AnalogOutputFloat32EE5WriteERNS_12HeaderWriterE,"aG",@progbits,_ZNK8opendnp318TypedCommandHeaderINS_19AnalogOutputFloat32EE5WriteERNS_12HeaderWriterE,comdat
.LLSDA1862:
	.byte	0xff
	.byte	0xff
	.byte	0x1
	.uleb128 .LLSDACSE1862-.LLSDACSB1862
.LLSDACSB1862:
	.uleb128 .LEHB3-.LFB1862
	.uleb128 .LEHE3-.LEHB3
	.uleb128 0
	.uleb128 0
	.uleb128 .LEHB4-.LFB1862
	.uleb128 .LEHE4-.LEHB4
	.uleb128 .L314-.LFB1862
	.uleb128 0
	.uleb128 .LEHB5-.LFB1862
	.uleb128 .LEHE5-.LEHB5
	.uleb128 0
	.uleb128 0
.LLSDACSE1862:
	.section	.text._ZNK8opendnp318TypedCommandHeaderINS_19AnalogOutputFloat32EE5WriteERNS_12HeaderWriterE,"axG",@progbits,_ZNK8opendnp318TypedCommandHeaderINS_19AnalogOutputFloat32EE5WriteERNS_12HeaderWriterE,comdat
	.size	_ZNK8opendnp318TypedCommandHeaderINS_19AnalogOutputFloat32EE5WriteERNS_12HeaderWriterE, .-_ZNK8opendnp318TypedCommandHeaderINS_19AnalogOutputFloat32EE5WriteERNS_12HeaderWriterE
	.section	.text._ZNK8opendnp318TypedCommandHeaderINS_17AnalogOutputInt16EE5WriteERNS_12HeaderWriterE,"axG",@progbits,_ZNK8opendnp318TypedCommandHeaderINS_17AnalogOutputInt16EE5WriteERNS_12HeaderWriterE,comdat
	.align	2
	.p2align 4,,11
	.weak	_ZNK8opendnp318TypedCommandHeaderINS_17AnalogOutputInt16EE5WriteERNS_12HeaderWriterE
	.type	_ZNK8opendnp318TypedCommandHeaderINS_17AnalogOutputInt16EE5WriteERNS_12HeaderWriterE, %function
_ZNK8opendnp318TypedCommandHeaderINS_17AnalogOutputInt16EE5WriteERNS_12HeaderWriterE:
.LFB1874:
	.cfi_startproc
	.cfi_personality 0x9b,DW.ref.__gxx_personality_v0
	.cfi_lsda 0x1b,.LLSDA1874
	stp	x29, x30, [sp, -112]!
	.cfi_def_cfa_offset 112
	.cfi_offset 29, -112
	.cfi_offset 30, -104
	adrp	x2, :got:__stack_chk_guard
	mov	x29, sp
	ldr	x2, [x2, #:got_lo12:__stack_chk_guard]
	stp	x19, x20, [sp, 16]
	.cfi_offset 19, -96
	.cfi_offset 20, -88
	mov	x20, x0
	mov	x19, x1
	ldr	x1, [x2]
	str	x1, [sp, 104]
	mov	x1, 0
	ldr	x0, [x0, 48]
	ldr	x1, [x20, 56]
	cmp	x1, x0
	beq	.L344
	ldr	w3, [x20, 16]
	mov	x0, x19
	str	x21, [sp, 32]
	.cfi_offset 21, -80
	mov	w2, 40
	add	w3, w3, 4
	ldrh	w1, [x20, 40]
.LEHB6:
	bl	_ZN8opendnp312HeaderWriter22WriteHeaderWithReserveENS_16GroupVariationIDENS_13QualifierCodeEj
	tst	w0, 255
	bne	.L362
	add	x0, sp, 80
	str	wzr, [sp, 48]
	stp	xzr, xzr, [sp, 56]
	str	wzr, [sp, 72]
	strh	wzr, [sp, 76]
	strb	wzr, [sp, 78]
	bl	_ZN7openpal6WSliceC1Ev
.LEHE6:
	ldrb	w0, [sp, 78]
	str	xzr, [sp, 96]
.L337:
	ldp	x19, x20, [x20, 48]
	cmp	x20, x19
	beq	.L338
	.p2align 3,,7
.L340:
	ldrh	w3, [x19, 2]
	cbz	w0, .L361
	ldr	x0, [sp, 96]
	ldr	w1, [sp, 72]
	ldr	w2, [x0]
	cmp	w2, w1
	bcs	.L363
	mov	w0, 0
.L339:
	ldr	x1, [sp, 88]
	ldrh	w2, [sp, 76]
	strh	w2, [x1]
	ldr	x21, [sp, 32]
	.cfi_restore 21
	.p2align 3,,7
.L334:
	adrp	x1, :got:__stack_chk_guard
	ldr	x1, [x1, #:got_lo12:__stack_chk_guard]
	ldr	x3, [sp, 104]
	ldr	x2, [x1]
	subs	x3, x3, x2
	mov	x2, 0
	bne	.L364
	ldp	x19, x20, [sp, 16]
	ldp	x29, x30, [sp], 112
	.cfi_restore 30
	.cfi_restore 29
	.cfi_restore 19
	.cfi_restore 20
	.cfi_def_cfa_offset 0
	ret
	.p2align 2,,3
.L362:
	.cfi_def_cfa_offset 112
	.cfi_offset 19, -96
	.cfi_offset 20, -88
	.cfi_offset 21, -80
	.cfi_offset 29, -112
	.cfi_offset 30, -104
	ldr	x2, [x19]
	strh	wzr, [sp, 76]
	ldp	x1, x7, [x20, 16]
	mov	w0, 0
	ldr	w3, [x2]
	ldp	x4, x5, [x2]
	cmp	w3, 1
	ldr	x6, [x20, 32]
	cset	w3, hi
	stp	x1, x7, [sp, 48]
	add	w1, w1, 2
	str	x6, [sp, 64]
	str	w1, [sp, 72]
	strb	w3, [sp, 78]
	stp	x4, x5, [sp, 80]
	str	x2, [sp, 96]
	bhi	.L365
	.p2align 3,,7
.L361:
	ldr	x21, [sp, 32]
	.cfi_remember_state
	.cfi_restore 21
	b	.L334
	.p2align 2,,3
.L363:
	.cfi_restore_state
	ldr	x2, [x0, 8]
	mov	w1, 2
	strh	w3, [x2]
.LEHB7:
	bl	_ZN7openpal6WSlice7AdvanceEj
	ldr	x2, [sp, 64]
	add	x0, x19, 4
	ldr	x1, [sp, 96]
	blr	x2
.LEHE7:
	ldrh	w1, [sp, 76]
	add	x19, x19, 8
	ldrb	w0, [sp, 78]
	add	w1, w1, 1
	strh	w1, [sp, 76]
	cmp	x20, x19
	bne	.L340
.L338:
	cbnz	w0, .L339
	ldr	x21, [sp, 32]
	.cfi_restore 21
	b	.L334
	.p2align 2,,3
.L344:
	mov	w0, 0
	b	.L334
	.p2align 2,,3
.L365:
	.cfi_offset 21, -80
	mov	x0, x2
	mov	w1, 2
.LEHB8:
	bl	_ZN7openpal6WSlice7AdvanceEj
	ldrb	w0, [sp, 78]
	b	.L337
.L364:
	.cfi_restore 21
	str	x21, [sp, 32]
	.cfi_offset 21, -80
	bl	__stack_chk_fail
.L347:
	ldrb	w1, [sp, 78]
	cbz	w1, .L342
	ldr	x1, [sp, 88]
	ldrh	w2, [sp, 76]
	strh	w2, [x1]
.L342:
	bl	_Unwind_Resume
.LEHE8:
	.cfi_endproc
.LFE1874:
	.section	.gcc_except_table._ZNK8opendnp318TypedCommandHeaderINS_17AnalogOutputInt16EE5WriteERNS_12HeaderWriterE,"aG",@progbits,_ZNK8opendnp318TypedCommandHeaderINS_17AnalogOutputInt16EE5WriteERNS_12HeaderWriterE,comdat
.LLSDA1874:
	.byte	0xff
	.byte	0xff
	.byte	0x1
	.uleb128 .LLSDACSE1874-.LLSDACSB1874
.LLSDACSB1874:
	.uleb128 .LEHB6-.LFB1874
	.uleb128 .LEHE6-.LEHB6
	.uleb128 0
	.uleb128 0
	.uleb128 .LEHB7-.LFB1874
	.uleb128 .LEHE7-.LEHB7
	.uleb128 .L347-.LFB1874
	.uleb128 0
	.uleb128 .LEHB8-.LFB1874
	.uleb128 .LEHE8-.LEHB8
	.uleb128 0
	.uleb128 0
.LLSDACSE1874:
	.section	.text._ZNK8opendnp318TypedCommandHeaderINS_17AnalogOutputInt16EE5WriteERNS_12HeaderWriterE,"axG",@progbits,_ZNK8opendnp318TypedCommandHeaderINS_17AnalogOutputInt16EE5WriteERNS_12HeaderWriterE,comdat
	.size	_ZNK8opendnp318TypedCommandHeaderINS_17AnalogOutputInt16EE5WriteERNS_12HeaderWriterE, .-_ZNK8opendnp318TypedCommandHeaderINS_17AnalogOutputInt16EE5WriteERNS_12HeaderWriterE
	.section	.text._ZNK8opendnp318TypedCommandHeaderINS_17AnalogOutputInt32EE5WriteERNS_12HeaderWriterE,"axG",@progbits,_ZNK8opendnp318TypedCommandHeaderINS_17AnalogOutputInt32EE5WriteERNS_12HeaderWriterE,comdat
	.align	2
	.p2align 4,,11
	.weak	_ZNK8opendnp318TypedCommandHeaderINS_17AnalogOutputInt32EE5WriteERNS_12HeaderWriterE
	.type	_ZNK8opendnp318TypedCommandHeaderINS_17AnalogOutputInt32EE5WriteERNS_12HeaderWriterE, %function
_ZNK8opendnp318TypedCommandHeaderINS_17AnalogOutputInt32EE5WriteERNS_12HeaderWriterE:
.LFB1886:
	.cfi_startproc
	.cfi_personality 0x9b,DW.ref.__gxx_personality_v0
	.cfi_lsda 0x1b,.LLSDA1886
	stp	x29, x30, [sp, -112]!
	.cfi_def_cfa_offset 112
	.cfi_offset 29, -112
	.cfi_offset 30, -104
	adrp	x2, :got:__stack_chk_guard
	mov	x29, sp
	ldr	x2, [x2, #:got_lo12:__stack_chk_guard]
	stp	x19, x20, [sp, 16]
	.cfi_offset 19, -96
	.cfi_offset 20, -88
	mov	x20, x0
	mov	x19, x1
	ldr	x1, [x2]
	str	x1, [sp, 104]
	mov	x1, 0
	ldr	x0, [x0, 48]
	ldr	x1, [x20, 56]
	cmp	x1, x0
	beq	.L377
	ldr	w3, [x20, 16]
	mov	x0, x19
	str	x21, [sp, 32]
	.cfi_offset 21, -80
	mov	w2, 40
	add	w3, w3, 4
	ldrh	w1, [x20, 40]
.LEHB9:
	bl	_ZN8opendnp312HeaderWriter22WriteHeaderWithReserveENS_16GroupVariationIDENS_13QualifierCodeEj
	tst	w0, 255
	bne	.L395
	add	x0, sp, 80
	str	wzr, [sp, 48]
	stp	xzr, xzr, [sp, 56]
	str	wzr, [sp, 72]
	strh	wzr, [sp, 76]
	strb	wzr, [sp, 78]
	bl	_ZN7openpal6WSliceC1Ev
.LEHE9:
	ldrb	w0, [sp, 78]
	str	xzr, [sp, 96]
.L370:
	ldp	x19, x20, [x20, 48]
	cmp	x20, x19
	beq	.L371
	.p2align 3,,7
.L373:
	ldrh	w3, [x19, 2]
	cbz	w0, .L394
	ldr	x0, [sp, 96]
	ldr	w1, [sp, 72]
	ldr	w2, [x0]
	cmp	w2, w1
	bcs	.L396
	mov	w0, 0
.L372:
	ldr	x1, [sp, 88]
	ldrh	w2, [sp, 76]
	strh	w2, [x1]
	ldr	x21, [sp, 32]
	.cfi_restore 21
	.p2align 3,,7
.L367:
	adrp	x1, :got:__stack_chk_guard
	ldr	x1, [x1, #:got_lo12:__stack_chk_guard]
	ldr	x3, [sp, 104]
	ldr	x2, [x1]
	subs	x3, x3, x2
	mov	x2, 0
	bne	.L397
	ldp	x19, x20, [sp, 16]
	ldp	x29, x30, [sp], 112
	.cfi_restore 30
	.cfi_restore 29
	.cfi_restore 19
	.cfi_restore 20
	.cfi_def_cfa_offset 0
	ret
	.p2align 2,,3
.L395:
	.cfi_def_cfa_offset 112
	.cfi_offset 19, -96
	.cfi_offset 20, -88
	.cfi_offset 21, -80
	.cfi_offset 29, -112
	.cfi_offset 30, -104
	ldr	x2, [x19]
	strh	wzr, [sp, 76]
	ldp	x1, x7, [x20, 16]
	mov	w0, 0
	ldr	w3, [x2]
	ldp	x4, x5, [x2]
	cmp	w3, 1
	ldr	x6, [x20, 32]
	cset	w3, hi
	stp	x1, x7, [sp, 48]
	add	w1, w1, 2
	str	x6, [sp, 64]
	str	w1, [sp, 72]
	strb	w3, [sp, 78]
	stp	x4, x5, [sp, 80]
	str	x2, [sp, 96]
	bhi	.L398
	.p2align 3,,7
.L394:
	ldr	x21, [sp, 32]
	.cfi_remember_state
	.cfi_restore 21
	b	.L367
	.p2align 2,,3
.L396:
	.cfi_restore_state
	ldr	x2, [x0, 8]
	mov	w1, 2
	strh	w3, [x2]
.LEHB10:
	bl	_ZN7openpal6WSlice7AdvanceEj
	ldr	x2, [sp, 64]
	add	x0, x19, 4
	ldr	x1, [sp, 96]
	blr	x2
.LEHE10:
	ldrh	w1, [sp, 76]
	add	x19, x19, 12
	ldrb	w0, [sp, 78]
	add	w1, w1, 1
	strh	w1, [sp, 76]
	cmp	x20, x19
	bne	.L373
.L371:
	cbnz	w0, .L372
	ldr	x21, [sp, 32]
	.cfi_restore 21
	b	.L367
	.p2align 2,,3
.L377:
	mov	w0, 0
	b	.L367
	.p2align 2,,3
.L398:
	.cfi_offset 21, -80
	mov	x0, x2
	mov	w1, 2
.LEHB11:
	bl	_ZN7openpal6WSlice7AdvanceEj
	ldrb	w0, [sp, 78]
	b	.L370
.L397:
	.cfi_restore 21
	str	x21, [sp, 32]
	.cfi_offset 21, -80
	bl	__stack_chk_fail
.L380:
	ldrb	w1, [sp, 78]
	cbz	w1, .L375
	ldr	x1, [sp, 88]
	ldrh	w2, [sp, 76]
	strh	w2, [x1]
.L375:
	bl	_Unwind_Resume
.LEHE11:
	.cfi_endproc
.LFE1886:
	.section	.gcc_except_table._ZNK8opendnp318TypedCommandHeaderINS_17AnalogOutputInt32EE5WriteERNS_12HeaderWriterE,"aG",@progbits,_ZNK8opendnp318TypedCommandHeaderINS_17AnalogOutputInt32EE5WriteERNS_12HeaderWriterE,comdat
.LLSDA1886:
	.byte	0xff
	.byte	0xff
	.byte	0x1
	.uleb128 .LLSDACSE1886-.LLSDACSB1886
.LLSDACSB1886:
	.uleb128 .LEHB9-.LFB1886
	.uleb128 .LEHE9-.LEHB9
	.uleb128 0
	.uleb128 0
	.uleb128 .LEHB10-.LFB1886
	.uleb128 .LEHE10-.LEHB10
	.uleb128 .L380-.LFB1886
	.uleb128 0
	.uleb128 .LEHB11-.LFB1886
	.uleb128 .LEHE11-.LEHB11
	.uleb128 0
	.uleb128 0
.LLSDACSE1886:
	.section	.text._ZNK8opendnp318TypedCommandHeaderINS_17AnalogOutputInt32EE5WriteERNS_12HeaderWriterE,"axG",@progbits,_ZNK8opendnp318TypedCommandHeaderINS_17AnalogOutputInt32EE5WriteERNS_12HeaderWriterE,comdat
	.size	_ZNK8opendnp318TypedCommandHeaderINS_17AnalogOutputInt32EE5WriteERNS_12HeaderWriterE, .-_ZNK8opendnp318TypedCommandHeaderINS_17AnalogOutputInt32EE5WriteERNS_12HeaderWriterE
	.section	.text._ZNK8opendnp318TypedCommandHeaderINS_23ControlRelayOutputBlockEE5WriteERNS_12HeaderWriterE,"axG",@progbits,_ZNK8opendnp318TypedCommandHeaderINS_23ControlRelayOutputBlockEE5WriteERNS_12HeaderWriterE,comdat
	.align	2
	.p2align 4,,11
	.weak	_ZNK8opendnp318TypedCommandHeaderINS_23ControlRelayOutputBlockEE5WriteERNS_12HeaderWriterE
	.type	_ZNK8opendnp318TypedCommandHeaderINS_23ControlRelayOutputBlockEE5WriteERNS_12HeaderWriterE, %function
_ZNK8opendnp318TypedCommandHeaderINS_23ControlRelayOutputBlockEE5WriteERNS_12HeaderWriterE:
.LFB1898:
	.cfi_startproc
	.cfi_personality 0x9b,DW.ref.__gxx_personality_v0
	.cfi_lsda 0x1b,.LLSDA1898
	stp	x29, x30, [sp, -112]!
	.cfi_def_cfa_offset 112
	.cfi_offset 29, -112
	.cfi_offset 30, -104
	adrp	x2, :got:__stack_chk_guard
	mov	x29, sp
	ldr	x2, [x2, #:got_lo12:__stack_chk_guard]
	stp	x19, x20, [sp, 16]
	.cfi_offset 19, -96
	.cfi_offset 20, -88
	mov	x20, x0
	mov	x19, x1
	ldr	x1, [x2]
	str	x1, [sp, 104]
	mov	x1, 0
	ldr	x0, [x0, 48]
	ldr	x1, [x20, 56]
	cmp	x1, x0
	beq	.L410
	ldr	w3, [x20, 16]
	mov	x0, x19
	str	x21, [sp, 32]
	.cfi_offset 21, -80
	mov	w2, 40
	add	w3, w3, 4
	ldrh	w1, [x20, 40]
.LEHB12:
	bl	_ZN8opendnp312HeaderWriter22WriteHeaderWithReserveENS_16GroupVariationIDENS_13QualifierCodeEj
	tst	w0, 255
	bne	.L428
	add	x0, sp, 80
	str	wzr, [sp, 48]
	stp	xzr, xzr, [sp, 56]
	str	wzr, [sp, 72]
	strh	wzr, [sp, 76]
	strb	wzr, [sp, 78]
	bl	_ZN7openpal6WSliceC1Ev
.LEHE12:
	ldrb	w0, [sp, 78]
	str	xzr, [sp, 96]
.L403:
	ldp	x19, x20, [x20, 48]
	cmp	x20, x19
	beq	.L404
	.p2align 3,,7
.L406:
	ldrh	w3, [x19, 2]
	cbz	w0, .L427
	ldr	x0, [sp, 96]
	ldr	w1, [sp, 72]
	ldr	w2, [x0]
	cmp	w2, w1
	bcs	.L429
	mov	w0, 0
.L405:
	ldr	x1, [sp, 88]
	ldrh	w2, [sp, 76]
	strh	w2, [x1]
	ldr	x21, [sp, 32]
	.cfi_restore 21
	.p2align 3,,7
.L400:
	adrp	x1, :got:__stack_chk_guard
	ldr	x1, [x1, #:got_lo12:__stack_chk_guard]
	ldr	x3, [sp, 104]
	ldr	x2, [x1]
	subs	x3, x3, x2
	mov	x2, 0
	bne	.L430
	ldp	x19, x20, [sp, 16]
	ldp	x29, x30, [sp], 112
	.cfi_restore 30
	.cfi_restore 29
	.cfi_restore 19
	.cfi_restore 20
	.cfi_def_cfa_offset 0
	ret
	.p2align 2,,3
.L428:
	.cfi_def_cfa_offset 112
	.cfi_offset 19, -96
	.cfi_offset 20, -88
	.cfi_offset 21, -80
	.cfi_offset 29, -112
	.cfi_offset 30, -104
	ldr	x2, [x19]
	strh	wzr, [sp, 76]
	ldp	x1, x7, [x20, 16]
	mov	w0, 0
	ldr	w3, [x2]
	ldp	x4, x5, [x2]
	cmp	w3, 1
	ldr	x6, [x20, 32]
	cset	w3, hi
	stp	x1, x7, [sp, 48]
	add	w1, w1, 2
	str	x6, [sp, 64]
	str	w1, [sp, 72]
	strb	w3, [sp, 78]
	stp	x4, x5, [sp, 80]
	str	x2, [sp, 96]
	bhi	.L431
	.p2align 3,,7
.L427:
	ldr	x21, [sp, 32]
	.cfi_remember_state
	.cfi_restore 21
	b	.L400
	.p2align 2,,3
.L429:
	.cfi_restore_state
	ldr	x2, [x0, 8]
	mov	w1, 2
	strh	w3, [x2]
.LEHB13:
	bl	_ZN7openpal6WSlice7AdvanceEj
	ldr	x2, [sp, 64]
	add	x0, x19, 4
	ldr	x1, [sp, 96]
	blr	x2
.LEHE13:
	ldrh	w1, [sp, 76]
	add	x19, x19, 20
	ldrb	w0, [sp, 78]
	add	w1, w1, 1
	strh	w1, [sp, 76]
	cmp	x20, x19
	bne	.L406
.L404:
	cbnz	w0, .L405
	ldr	x21, [sp, 32]
	.cfi_restore 21
	b	.L400
	.p2align 2,,3
.L410:
	mov	w0, 0
	b	.L400
	.p2align 2,,3
.L431:
	.cfi_offset 21, -80
	mov	x0, x2
	mov	w1, 2
.LEHB14:
	bl	_ZN7openpal6WSlice7AdvanceEj
	ldrb	w0, [sp, 78]
	b	.L403
.L430:
	.cfi_restore 21
	str	x21, [sp, 32]
	.cfi_offset 21, -80
	bl	__stack_chk_fail
.L413:
	ldrb	w1, [sp, 78]
	cbz	w1, .L408
	ldr	x1, [sp, 88]
	ldrh	w2, [sp, 76]
	strh	w2, [x1]
.L408:
	bl	_Unwind_Resume
.LEHE14:
	.cfi_endproc
.LFE1898:
	.section	.gcc_except_table._ZNK8opendnp318TypedCommandHeaderINS_23ControlRelayOutputBlockEE5WriteERNS_12HeaderWriterE,"aG",@progbits,_ZNK8opendnp318TypedCommandHeaderINS_23ControlRelayOutputBlockEE5WriteERNS_12HeaderWriterE,comdat
.LLSDA1898:
	.byte	0xff
	.byte	0xff
	.byte	0x1
	.uleb128 .LLSDACSE1898-.LLSDACSB1898
.LLSDACSB1898:
	.uleb128 .LEHB12-.LFB1898
	.uleb128 .LEHE12-.LEHB12
	.uleb128 0
	.uleb128 0
	.uleb128 .LEHB13-.LFB1898
	.uleb128 .LEHE13-.LEHB13
	.uleb128 .L413-.LFB1898
	.uleb128 0
	.uleb128 .LEHB14-.LFB1898
	.uleb128 .LEHE14-.LEHB14
	.uleb128 0
	.uleb128 0
.LLSDACSE1898:
	.section	.text._ZNK8opendnp318TypedCommandHeaderINS_23ControlRelayOutputBlockEE5WriteERNS_12HeaderWriterE,"axG",@progbits,_ZNK8opendnp318TypedCommandHeaderINS_23ControlRelayOutputBlockEE5WriteERNS_12HeaderWriterE,comdat
	.size	_ZNK8opendnp318TypedCommandHeaderINS_23ControlRelayOutputBlockEE5WriteERNS_12HeaderWriterE, .-_ZNK8opendnp318TypedCommandHeaderINS_23ControlRelayOutputBlockEE5WriteERNS_12HeaderWriterE
	.section	.text._ZN8opendnp318TypedCommandHeaderINS_20AnalogOutputDouble64EE19ApplySelectResponseERKNS_11ICollectionINS_7IndexedIS1_EEEE,"axG",@progbits,_ZN8opendnp318TypedCommandHeaderINS_20AnalogOutputDouble64EE19ApplySelectResponseERKNS_11ICollectionINS_7IndexedIS1_EEEE,comdat
	.align	2
	.p2align 4,,11
	.weak	_ZN8opendnp318TypedCommandHeaderINS_20AnalogOutputDouble64EE19ApplySelectResponseERKNS_11ICollectionINS_7IndexedIS1_EEEE
	.type	_ZN8opendnp318TypedCommandHeaderINS_20AnalogOutputDouble64EE19ApplySelectResponseERKNS_11ICollectionINS_7IndexedIS1_EEEE, %function
_ZN8opendnp318TypedCommandHeaderINS_20AnalogOutputDouble64EE19ApplySelectResponseERKNS_11ICollectionINS_7IndexedIS1_EEEE:
.LFB1855:
	.cfi_startproc
	stp	x29, x30, [sp, -80]!
	.cfi_def_cfa_offset 80
	.cfi_offset 29, -80
	.cfi_offset 30, -72
	adrp	x2, :got:__stack_chk_guard
	mov	x29, sp
	stp	x19, x20, [sp, 16]
	.cfi_offset 19, -64
	.cfi_offset 20, -56
	mov	x20, x0
	mov	x19, x1
	mov	x0, x1
	ldr	x1, [x1]
	ldr	x2, [x2, #:got_lo12:__stack_chk_guard]
	ldr	x1, [x1]
	ldr	x3, [x2]
	str	x3, [sp, 72]
	mov	x3, 0
	blr	x1
	ldp	x3, x2, [x20, 48]
	mov	x1, -6148914691236517206
	movk	x1, 0xaaab, lsl 0
	sub	x2, x2, x3
	asr	x2, x2, 3
	mul	x2, x2, x1
	cmp	x0, x2
	bhi	.L432
	ldr	x2, [x19]
	adrp	x0, :got:_ZTVN8opendnp314FunctorVisitorINS_7IndexedINS_20AnalogOutputDouble64EEEZNS_18TypedCommandHeaderIS2_E19ApplySelectResponseERKNS_11ICollectionIS3_EEEUlS3_E_EE
	add	x1, sp, 44
	str	wzr, [sp, 44]
	ldr	x0, [x0, #:got_lo12:_ZTVN8opendnp314FunctorVisitorINS_7IndexedINS_20AnalogOutputDouble64EEEZNS_18TypedCommandHeaderIS2_E19ApplySelectResponseERKNS_11ICollectionIS3_EEEUlS3_E_EE]
	ldr	x2, [x2, 8]
	add	x0, x0, 16
	stp	x0, x20, [sp, 48]
	mov	x0, x19
	str	x1, [sp, 64]
	add	x1, sp, 48
	blr	x2
.L432:
	adrp	x0, :got:__stack_chk_guard
	ldr	x0, [x0, #:got_lo12:__stack_chk_guard]
	ldr	x2, [sp, 72]
	ldr	x1, [x0]
	subs	x2, x2, x1
	mov	x1, 0
	bne	.L436
	ldp	x19, x20, [sp, 16]
	ldp	x29, x30, [sp], 80
	.cfi_remember_state
	.cfi_restore 30
	.cfi_restore 29
	.cfi_restore 19
	.cfi_restore 20
	.cfi_def_cfa_offset 0
	ret
.L436:
	.cfi_restore_state
	bl	__stack_chk_fail
	.cfi_endproc
.LFE1855:
	.size	_ZN8opendnp318TypedCommandHeaderINS_20AnalogOutputDouble64EE19ApplySelectResponseERKNS_11ICollectionINS_7IndexedIS1_EEEE, .-_ZN8opendnp318TypedCommandHeaderINS_20AnalogOutputDouble64EE19ApplySelectResponseERKNS_11ICollectionINS_7IndexedIS1_EEEE
	.section	.text._ZN8opendnp318TypedCommandHeaderINS_20AnalogOutputDouble64EE20ApplyOperateResponseERKNS_11ICollectionINS_7IndexedIS1_EEEE,"axG",@progbits,_ZN8opendnp318TypedCommandHeaderINS_20AnalogOutputDouble64EE20ApplyOperateResponseERKNS_11ICollectionINS_7IndexedIS1_EEEE,comdat
	.align	2
	.p2align 4,,11
	.weak	_ZN8opendnp318TypedCommandHeaderINS_20AnalogOutputDouble64EE20ApplyOperateResponseERKNS_11ICollectionINS_7IndexedIS1_EEEE
	.type	_ZN8opendnp318TypedCommandHeaderINS_20AnalogOutputDouble64EE20ApplyOperateResponseERKNS_11ICollectionINS_7IndexedIS1_EEEE, %function
_ZN8opendnp318TypedCommandHeaderINS_20AnalogOutputDouble64EE20ApplyOperateResponseERKNS_11ICollectionINS_7IndexedIS1_EEEE:
.LFB1857:
	.cfi_startproc
	stp	x29, x30, [sp, -80]!
	.cfi_def_cfa_offset 80
	.cfi_offset 29, -80
	.cfi_offset 30, -72
	adrp	x2, :got:__stack_chk_guard
	mov	x29, sp
	stp	x19, x20, [sp, 16]
	.cfi_offset 19, -64
	.cfi_offset 20, -56
	mov	x20, x0
	mov	x19, x1
	mov	x0, x1
	ldr	x1, [x1]
	ldr	x2, [x2, #:got_lo12:__stack_chk_guard]
	ldr	x1, [x1]
	ldr	x3, [x2]
	str	x3, [sp, 72]
	mov	x3, 0
	blr	x1
	ldp	x3, x2, [x20, 48]
	mov	x1, -6148914691236517206
	movk	x1, 0xaaab, lsl 0
	sub	x2, x2, x3
	asr	x2, x2, 3
	mul	x2, x2, x1
	cmp	x0, x2
	bhi	.L437
	ldr	x2, [x19]
	adrp	x0, :got:_ZTVN8opendnp314FunctorVisitorINS_7IndexedINS_20AnalogOutputDouble64EEEZNS_18TypedCommandHeaderIS2_E20ApplyOperateResponseERKNS_11ICollectionIS3_EEEUlS3_E_EE
	add	x1, sp, 44
	str	wzr, [sp, 44]
	ldr	x0, [x0, #:got_lo12:_ZTVN8opendnp314FunctorVisitorINS_7IndexedINS_20AnalogOutputDouble64EEEZNS_18TypedCommandHeaderIS2_E20ApplyOperateResponseERKNS_11ICollectionIS3_EEEUlS3_E_EE]
	ldr	x2, [x2, 8]
	add	x0, x0, 16
	stp	x0, x20, [sp, 48]
	mov	x0, x19
	str	x1, [sp, 64]
	add	x1, sp, 48
	blr	x2
.L437:
	adrp	x0, :got:__stack_chk_guard
	ldr	x0, [x0, #:got_lo12:__stack_chk_guard]
	ldr	x2, [sp, 72]
	ldr	x1, [x0]
	subs	x2, x2, x1
	mov	x1, 0
	bne	.L441
	ldp	x19, x20, [sp, 16]
	ldp	x29, x30, [sp], 80
	.cfi_remember_state
	.cfi_restore 30
	.cfi_restore 29
	.cfi_restore 19
	.cfi_restore 20
	.cfi_def_cfa_offset 0
	ret
.L441:
	.cfi_restore_state
	bl	__stack_chk_fail
	.cfi_endproc
.LFE1857:
	.size	_ZN8opendnp318TypedCommandHeaderINS_20AnalogOutputDouble64EE20ApplyOperateResponseERKNS_11ICollectionINS_7IndexedIS1_EEEE, .-_ZN8opendnp318TypedCommandHeaderINS_20AnalogOutputDouble64EE20ApplyOperateResponseERKNS_11ICollectionINS_7IndexedIS1_EEEE
	.section	.text._ZN8opendnp318TypedCommandHeaderINS_19AnalogOutputFloat32EE19ApplySelectResponseERKNS_11ICollectionINS_7IndexedIS1_EEEE,"axG",@progbits,_ZN8opendnp318TypedCommandHeaderINS_19AnalogOutputFloat32EE19ApplySelectResponseERKNS_11ICollectionINS_7IndexedIS1_EEEE,comdat
	.align	2
	.p2align 4,,11
	.weak	_ZN8opendnp318TypedCommandHeaderINS_19AnalogOutputFloat32EE19ApplySelectResponseERKNS_11ICollectionINS_7IndexedIS1_EEEE
	.type	_ZN8opendnp318TypedCommandHeaderINS_19AnalogOutputFloat32EE19ApplySelectResponseERKNS_11ICollectionINS_7IndexedIS1_EEEE, %function
_ZN8opendnp318TypedCommandHeaderINS_19AnalogOutputFloat32EE19ApplySelectResponseERKNS_11ICollectionINS_7IndexedIS1_EEEE:
.LFB1867:
	.cfi_startproc
	stp	x29, x30, [sp, -80]!
	.cfi_def_cfa_offset 80
	.cfi_offset 29, -80
	.cfi_offset 30, -72
	adrp	x2, :got:__stack_chk_guard
	mov	x29, sp
	stp	x19, x20, [sp, 16]
	.cfi_offset 19, -64
	.cfi_offset 20, -56
	mov	x20, x0
	mov	x19, x1
	mov	x0, x1
	ldr	x1, [x1]
	ldr	x2, [x2, #:got_lo12:__stack_chk_guard]
	ldr	x1, [x1]
	ldr	x3, [x2]
	str	x3, [sp, 72]
	mov	x3, 0
	blr	x1
	ldp	x3, x2, [x20, 48]
	mov	x1, -6148914691236517206
	movk	x1, 0xaaab, lsl 0
	sub	x2, x2, x3
	asr	x2, x2, 2
	mul	x2, x2, x1
	cmp	x0, x2
	bhi	.L442
	ldr	x2, [x19]
	adrp	x0, :got:_ZTVN8opendnp314FunctorVisitorINS_7IndexedINS_19AnalogOutputFloat32EEEZNS_18TypedCommandHeaderIS2_E19ApplySelectResponseERKNS_11ICollectionIS3_EEEUlS3_E_EE
	add	x1, sp, 44
	str	wzr, [sp, 44]
	ldr	x0, [x0, #:got_lo12:_ZTVN8opendnp314FunctorVisitorINS_7IndexedINS_19AnalogOutputFloat32EEEZNS_18TypedCommandHeaderIS2_E19ApplySelectResponseERKNS_11ICollectionIS3_EEEUlS3_E_EE]
	ldr	x2, [x2, 8]
	add	x0, x0, 16
	stp	x0, x20, [sp, 48]
	mov	x0, x19
	str	x1, [sp, 64]
	add	x1, sp, 48
	blr	x2
.L442:
	adrp	x0, :got:__stack_chk_guard
	ldr	x0, [x0, #:got_lo12:__stack_chk_guard]
	ldr	x2, [sp, 72]
	ldr	x1, [x0]
	subs	x2, x2, x1
	mov	x1, 0
	bne	.L446
	ldp	x19, x20, [sp, 16]
	ldp	x29, x30, [sp], 80
	.cfi_remember_state
	.cfi_restore 30
	.cfi_restore 29
	.cfi_restore 19
	.cfi_restore 20
	.cfi_def_cfa_offset 0
	ret
.L446:
	.cfi_restore_state
	bl	__stack_chk_fail
	.cfi_endproc
.LFE1867:
	.size	_ZN8opendnp318TypedCommandHeaderINS_19AnalogOutputFloat32EE19ApplySelectResponseERKNS_11ICollectionINS_7IndexedIS1_EEEE, .-_ZN8opendnp318TypedCommandHeaderINS_19AnalogOutputFloat32EE19ApplySelectResponseERKNS_11ICollectionINS_7IndexedIS1_EEEE
	.section	.text._ZN8opendnp318TypedCommandHeaderINS_19AnalogOutputFloat32EE20ApplyOperateResponseERKNS_11ICollectionINS_7IndexedIS1_EEEE,"axG",@progbits,_ZN8opendnp318TypedCommandHeaderINS_19AnalogOutputFloat32EE20ApplyOperateResponseERKNS_11ICollectionINS_7IndexedIS1_EEEE,comdat
	.align	2
	.p2align 4,,11
	.weak	_ZN8opendnp318TypedCommandHeaderINS_19AnalogOutputFloat32EE20ApplyOperateResponseERKNS_11ICollectionINS_7IndexedIS1_EEEE
	.type	_ZN8opendnp318TypedCommandHeaderINS_19AnalogOutputFloat32EE20ApplyOperateResponseERKNS_11ICollectionINS_7IndexedIS1_EEEE, %function
_ZN8opendnp318TypedCommandHeaderINS_19AnalogOutputFloat32EE20ApplyOperateResponseERKNS_11ICollectionINS_7IndexedIS1_EEEE:
.LFB1869:
	.cfi_startproc
	stp	x29, x30, [sp, -80]!
	.cfi_def_cfa_offset 80
	.cfi_offset 29, -80
	.cfi_offset 30, -72
	adrp	x2, :got:__stack_chk_guard
	mov	x29, sp
	stp	x19, x20, [sp, 16]
	.cfi_offset 19, -64
	.cfi_offset 20, -56
	mov	x20, x0
	mov	x19, x1
	mov	x0, x1
	ldr	x1, [x1]
	ldr	x2, [x2, #:got_lo12:__stack_chk_guard]
	ldr	x1, [x1]
	ldr	x3, [x2]
	str	x3, [sp, 72]
	mov	x3, 0
	blr	x1
	ldp	x3, x2, [x20, 48]
	mov	x1, -6148914691236517206
	movk	x1, 0xaaab, lsl 0
	sub	x2, x2, x3
	asr	x2, x2, 2
	mul	x2, x2, x1
	cmp	x0, x2
	bhi	.L447
	ldr	x2, [x19]
	adrp	x0, :got:_ZTVN8opendnp314FunctorVisitorINS_7IndexedINS_19AnalogOutputFloat32EEEZNS_18TypedCommandHeaderIS2_E20ApplyOperateResponseERKNS_11ICollectionIS3_EEEUlS3_E_EE
	add	x1, sp, 44
	str	wzr, [sp, 44]
	ldr	x0, [x0, #:got_lo12:_ZTVN8opendnp314FunctorVisitorINS_7IndexedINS_19AnalogOutputFloat32EEEZNS_18TypedCommandHeaderIS2_E20ApplyOperateResponseERKNS_11ICollectionIS3_EEEUlS3_E_EE]
	ldr	x2, [x2, 8]
	add	x0, x0, 16
	stp	x0, x20, [sp, 48]
	mov	x0, x19
	str	x1, [sp, 64]
	add	x1, sp, 48
	blr	x2
.L447:
	adrp	x0, :got:__stack_chk_guard
	ldr	x0, [x0, #:got_lo12:__stack_chk_guard]
	ldr	x2, [sp, 72]
	ldr	x1, [x0]
	subs	x2, x2, x1
	mov	x1, 0
	bne	.L451
	ldp	x19, x20, [sp, 16]
	ldp	x29, x30, [sp], 80
	.cfi_remember_state
	.cfi_restore 30
	.cfi_restore 29
	.cfi_restore 19
	.cfi_restore 20
	.cfi_def_cfa_offset 0
	ret
.L451:
	.cfi_restore_state
	bl	__stack_chk_fail
	.cfi_endproc
.LFE1869:
	.size	_ZN8opendnp318TypedCommandHeaderINS_19AnalogOutputFloat32EE20ApplyOperateResponseERKNS_11ICollectionINS_7IndexedIS1_EEEE, .-_ZN8opendnp318TypedCommandHeaderINS_19AnalogOutputFloat32EE20ApplyOperateResponseERKNS_11ICollectionINS_7IndexedIS1_EEEE
	.section	.text._ZN8opendnp318TypedCommandHeaderINS_17AnalogOutputInt16EE19ApplySelectResponseERKNS_11ICollectionINS_7IndexedIS1_EEEE,"axG",@progbits,_ZN8opendnp318TypedCommandHeaderINS_17AnalogOutputInt16EE19ApplySelectResponseERKNS_11ICollectionINS_7IndexedIS1_EEEE,comdat
	.align	2
	.p2align 4,,11
	.weak	_ZN8opendnp318TypedCommandHeaderINS_17AnalogOutputInt16EE19ApplySelectResponseERKNS_11ICollectionINS_7IndexedIS1_EEEE
	.type	_ZN8opendnp318TypedCommandHeaderINS_17AnalogOutputInt16EE19ApplySelectResponseERKNS_11ICollectionINS_7IndexedIS1_EEEE, %function
_ZN8opendnp318TypedCommandHeaderINS_17AnalogOutputInt16EE19ApplySelectResponseERKNS_11ICollectionINS_7IndexedIS1_EEEE:
.LFB1879:
	.cfi_startproc
	stp	x29, x30, [sp, -80]!
	.cfi_def_cfa_offset 80
	.cfi_offset 29, -80
	.cfi_offset 30, -72
	adrp	x2, :got:__stack_chk_guard
	mov	x29, sp
	stp	x19, x20, [sp, 16]
	.cfi_offset 19, -64
	.cfi_offset 20, -56
	mov	x20, x0
	mov	x19, x1
	mov	x0, x1
	ldr	x1, [x1]
	ldr	x2, [x2, #:got_lo12:__stack_chk_guard]
	ldr	x1, [x1]
	ldr	x3, [x2]
	str	x3, [sp, 72]
	mov	x3, 0
	blr	x1
	ldp	x2, x1, [x20, 48]
	sub	x1, x1, x2
	cmp	x0, x1, asr 3
	bhi	.L452
	ldr	x2, [x19]
	adrp	x0, :got:_ZTVN8opendnp314FunctorVisitorINS_7IndexedINS_17AnalogOutputInt16EEEZNS_18TypedCommandHeaderIS2_E19ApplySelectResponseERKNS_11ICollectionIS3_EEEUlS3_E_EE
	add	x1, sp, 44
	str	wzr, [sp, 44]
	ldr	x0, [x0, #:got_lo12:_ZTVN8opendnp314FunctorVisitorINS_7IndexedINS_17AnalogOutputInt16EEEZNS_18TypedCommandHeaderIS2_E19ApplySelectResponseERKNS_11ICollectionIS3_EEEUlS3_E_EE]
	ldr	x2, [x2, 8]
	add	x0, x0, 16
	stp	x0, x20, [sp, 48]
	mov	x0, x19
	str	x1, [sp, 64]
	add	x1, sp, 48
	blr	x2
.L452:
	adrp	x0, :got:__stack_chk_guard
	ldr	x0, [x0, #:got_lo12:__stack_chk_guard]
	ldr	x2, [sp, 72]
	ldr	x1, [x0]
	subs	x2, x2, x1
	mov	x1, 0
	bne	.L456
	ldp	x19, x20, [sp, 16]
	ldp	x29, x30, [sp], 80
	.cfi_remember_state
	.cfi_restore 30
	.cfi_restore 29
	.cfi_restore 19
	.cfi_restore 20
	.cfi_def_cfa_offset 0
	ret
.L456:
	.cfi_restore_state
	bl	__stack_chk_fail
	.cfi_endproc
.LFE1879:
	.size	_ZN8opendnp318TypedCommandHeaderINS_17AnalogOutputInt16EE19ApplySelectResponseERKNS_11ICollectionINS_7IndexedIS1_EEEE, .-_ZN8opendnp318TypedCommandHeaderINS_17AnalogOutputInt16EE19ApplySelectResponseERKNS_11ICollectionINS_7IndexedIS1_EEEE
	.section	.text._ZN8opendnp318TypedCommandHeaderINS_17AnalogOutputInt16EE20ApplyOperateResponseERKNS_11ICollectionINS_7IndexedIS1_EEEE,"axG",@progbits,_ZN8opendnp318TypedCommandHeaderINS_17AnalogOutputInt16EE20ApplyOperateResponseERKNS_11ICollectionINS_7IndexedIS1_EEEE,comdat
	.align	2
	.p2align 4,,11
	.weak	_ZN8opendnp318TypedCommandHeaderINS_17AnalogOutputInt16EE20ApplyOperateResponseERKNS_11ICollectionINS_7IndexedIS1_EEEE
	.type	_ZN8opendnp318TypedCommandHeaderINS_17AnalogOutputInt16EE20ApplyOperateResponseERKNS_11ICollectionINS_7IndexedIS1_EEEE, %function
_ZN8opendnp318TypedCommandHeaderINS_17AnalogOutputInt16EE20ApplyOperateResponseERKNS_11ICollectionINS_7IndexedIS1_EEEE:
.LFB1881:
	.cfi_startproc
	stp	x29, x30, [sp, -80]!
	.cfi_def_cfa_offset 80
	.cfi_offset 29, -80
	.cfi_offset 30, -72
	adrp	x2, :got:__stack_chk_guard
	mov	x29, sp
	stp	x19, x20, [sp, 16]
	.cfi_offset 19, -64
	.cfi_offset 20, -56
	mov	x20, x0
	mov	x19, x1
	mov	x0, x1
	ldr	x1, [x1]
	ldr	x2, [x2, #:got_lo12:__stack_chk_guard]
	ldr	x1, [x1]
	ldr	x3, [x2]
	str	x3, [sp, 72]
	mov	x3, 0
	blr	x1
	ldp	x2, x1, [x20, 48]
	sub	x1, x1, x2
	cmp	x0, x1, asr 3
	bhi	.L457
	ldr	x2, [x19]
	adrp	x0, :got:_ZTVN8opendnp314FunctorVisitorINS_7IndexedINS_17AnalogOutputInt16EEEZNS_18TypedCommandHeaderIS2_E20ApplyOperateResponseERKNS_11ICollectionIS3_EEEUlS3_E_EE
	add	x1, sp, 44
	str	wzr, [sp, 44]
	ldr	x0, [x0, #:got_lo12:_ZTVN8opendnp314FunctorVisitorINS_7IndexedINS_17AnalogOutputInt16EEEZNS_18TypedCommandHeaderIS2_E20ApplyOperateResponseERKNS_11ICollectionIS3_EEEUlS3_E_EE]
	ldr	x2, [x2, 8]
	add	x0, x0, 16
	stp	x0, x20, [sp, 48]
	mov	x0, x19
	str	x1, [sp, 64]
	add	x1, sp, 48
	blr	x2
.L457:
	adrp	x0, :got:__stack_chk_guard
	ldr	x0, [x0, #:got_lo12:__stack_chk_guard]
	ldr	x2, [sp, 72]
	ldr	x1, [x0]
	subs	x2, x2, x1
	mov	x1, 0
	bne	.L461
	ldp	x19, x20, [sp, 16]
	ldp	x29, x30, [sp], 80
	.cfi_remember_state
	.cfi_restore 30
	.cfi_restore 29
	.cfi_restore 19
	.cfi_restore 20
	.cfi_def_cfa_offset 0
	ret
.L461:
	.cfi_restore_state
	bl	__stack_chk_fail
	.cfi_endproc
.LFE1881:
	.size	_ZN8opendnp318TypedCommandHeaderINS_17AnalogOutputInt16EE20ApplyOperateResponseERKNS_11ICollectionINS_7IndexedIS1_EEEE, .-_ZN8opendnp318TypedCommandHeaderINS_17AnalogOutputInt16EE20ApplyOperateResponseERKNS_11ICollectionINS_7IndexedIS1_EEEE
	.section	.text._ZN8opendnp318TypedCommandHeaderINS_17AnalogOutputInt32EE19ApplySelectResponseERKNS_11ICollectionINS_7IndexedIS1_EEEE,"axG",@progbits,_ZN8opendnp318TypedCommandHeaderINS_17AnalogOutputInt32EE19ApplySelectResponseERKNS_11ICollectionINS_7IndexedIS1_EEEE,comdat
	.align	2
	.p2align 4,,11
	.weak	_ZN8opendnp318TypedCommandHeaderINS_17AnalogOutputInt32EE19ApplySelectResponseERKNS_11ICollectionINS_7IndexedIS1_EEEE
	.type	_ZN8opendnp318TypedCommandHeaderINS_17AnalogOutputInt32EE19ApplySelectResponseERKNS_11ICollectionINS_7IndexedIS1_EEEE, %function
_ZN8opendnp318TypedCommandHeaderINS_17AnalogOutputInt32EE19ApplySelectResponseERKNS_11ICollectionINS_7IndexedIS1_EEEE:
.LFB1891:
	.cfi_startproc
	stp	x29, x30, [sp, -80]!
	.cfi_def_cfa_offset 80
	.cfi_offset 29, -80
	.cfi_offset 30, -72
	adrp	x2, :got:__stack_chk_guard
	mov	x29, sp
	stp	x19, x20, [sp, 16]
	.cfi_offset 19, -64
	.cfi_offset 20, -56
	mov	x20, x0
	mov	x19, x1
	mov	x0, x1
	ldr	x1, [x1]
	ldr	x2, [x2, #:got_lo12:__stack_chk_guard]
	ldr	x1, [x1]
	ldr	x3, [x2]
	str	x3, [sp, 72]
	mov	x3, 0
	blr	x1
	ldp	x3, x2, [x20, 48]
	mov	x1, -6148914691236517206
	movk	x1, 0xaaab, lsl 0
	sub	x2, x2, x3
	asr	x2, x2, 2
	mul	x2, x2, x1
	cmp	x0, x2
	bhi	.L462
	ldr	x2, [x19]
	adrp	x0, :got:_ZTVN8opendnp314FunctorVisitorINS_7IndexedINS_17AnalogOutputInt32EEEZNS_18TypedCommandHeaderIS2_E19ApplySelectResponseERKNS_11ICollectionIS3_EEEUlS3_E_EE
	add	x1, sp, 44
	str	wzr, [sp, 44]
	ldr	x0, [x0, #:got_lo12:_ZTVN8opendnp314FunctorVisitorINS_7IndexedINS_17AnalogOutputInt32EEEZNS_18TypedCommandHeaderIS2_E19ApplySelectResponseERKNS_11ICollectionIS3_EEEUlS3_E_EE]
	ldr	x2, [x2, 8]
	add	x0, x0, 16
	stp	x0, x20, [sp, 48]
	mov	x0, x19
	str	x1, [sp, 64]
	add	x1, sp, 48
	blr	x2
.L462:
	adrp	x0, :got:__stack_chk_guard
	ldr	x0, [x0, #:got_lo12:__stack_chk_guard]
	ldr	x2, [sp, 72]
	ldr	x1, [x0]
	subs	x2, x2, x1
	mov	x1, 0
	bne	.L466
	ldp	x19, x20, [sp, 16]
	ldp	x29, x30, [sp], 80
	.cfi_remember_state
	.cfi_restore 30
	.cfi_restore 29
	.cfi_restore 19
	.cfi_restore 20
	.cfi_def_cfa_offset 0
	ret
.L466:
	.cfi_restore_state
	bl	__stack_chk_fail
	.cfi_endproc
.LFE1891:
	.size	_ZN8opendnp318TypedCommandHeaderINS_17AnalogOutputInt32EE19ApplySelectResponseERKNS_11ICollectionINS_7IndexedIS1_EEEE, .-_ZN8opendnp318TypedCommandHeaderINS_17AnalogOutputInt32EE19ApplySelectResponseERKNS_11ICollectionINS_7IndexedIS1_EEEE
	.section	.text._ZN8opendnp318TypedCommandHeaderINS_17AnalogOutputInt32EE20ApplyOperateResponseERKNS_11ICollectionINS_7IndexedIS1_EEEE,"axG",@progbits,_ZN8opendnp318TypedCommandHeaderINS_17AnalogOutputInt32EE20ApplyOperateResponseERKNS_11ICollectionINS_7IndexedIS1_EEEE,comdat
	.align	2
	.p2align 4,,11
	.weak	_ZN8opendnp318TypedCommandHeaderINS_17AnalogOutputInt32EE20ApplyOperateResponseERKNS_11ICollectionINS_7IndexedIS1_EEEE
	.type	_ZN8opendnp318TypedCommandHeaderINS_17AnalogOutputInt32EE20ApplyOperateResponseERKNS_11ICollectionINS_7IndexedIS1_EEEE, %function
_ZN8opendnp318TypedCommandHeaderINS_17AnalogOutputInt32EE20ApplyOperateResponseERKNS_11ICollectionINS_7IndexedIS1_EEEE:
.LFB1893:
	.cfi_startproc
	stp	x29, x30, [sp, -80]!
	.cfi_def_cfa_offset 80
	.cfi_offset 29, -80
	.cfi_offset 30, -72
	adrp	x2, :got:__stack_chk_guard
	mov	x29, sp
	stp	x19, x20, [sp, 16]
	.cfi_offset 19, -64
	.cfi_offset 20, -56
	mov	x20, x0
	mov	x19, x1
	mov	x0, x1
	ldr	x1, [x1]
	ldr	x2, [x2, #:got_lo12:__stack_chk_guard]
	ldr	x1, [x1]
	ldr	x3, [x2]
	str	x3, [sp, 72]
	mov	x3, 0
	blr	x1
	ldp	x3, x2, [x20, 48]
	mov	x1, -6148914691236517206
	movk	x1, 0xaaab, lsl 0
	sub	x2, x2, x3
	asr	x2, x2, 2
	mul	x2, x2, x1
	cmp	x0, x2
	bhi	.L467
	ldr	x2, [x19]
	adrp	x0, :got:_ZTVN8opendnp314FunctorVisitorINS_7IndexedINS_17AnalogOutputInt32EEEZNS_18TypedCommandHeaderIS2_E20ApplyOperateResponseERKNS_11ICollectionIS3_EEEUlS3_E_EE
	add	x1, sp, 44
	str	wzr, [sp, 44]
	ldr	x0, [x0, #:got_lo12:_ZTVN8opendnp314FunctorVisitorINS_7IndexedINS_17AnalogOutputInt32EEEZNS_18TypedCommandHeaderIS2_E20ApplyOperateResponseERKNS_11ICollectionIS3_EEEUlS3_E_EE]
	ldr	x2, [x2, 8]
	add	x0, x0, 16
	stp	x0, x20, [sp, 48]
	mov	x0, x19
	str	x1, [sp, 64]
	add	x1, sp, 48
	blr	x2
.L467:
	adrp	x0, :got:__stack_chk_guard
	ldr	x0, [x0, #:got_lo12:__stack_chk_guard]
	ldr	x2, [sp, 72]
	ldr	x1, [x0]
	subs	x2, x2, x1
	mov	x1, 0
	bne	.L471
	ldp	x19, x20, [sp, 16]
	ldp	x29, x30, [sp], 80
	.cfi_remember_state
	.cfi_restore 30
	.cfi_restore 29
	.cfi_restore 19
	.cfi_restore 20
	.cfi_def_cfa_offset 0
	ret
.L471:
	.cfi_restore_state
	bl	__stack_chk_fail
	.cfi_endproc
.LFE1893:
	.size	_ZN8opendnp318TypedCommandHeaderINS_17AnalogOutputInt32EE20ApplyOperateResponseERKNS_11ICollectionINS_7IndexedIS1_EEEE, .-_ZN8opendnp318TypedCommandHeaderINS_17AnalogOutputInt32EE20ApplyOperateResponseERKNS_11ICollectionINS_7IndexedIS1_EEEE
	.section	.text._ZN8opendnp318TypedCommandHeaderINS_23ControlRelayOutputBlockEE19ApplySelectResponseERKNS_11ICollectionINS_7IndexedIS1_EEEE,"axG",@progbits,_ZN8opendnp318TypedCommandHeaderINS_23ControlRelayOutputBlockEE19ApplySelectResponseERKNS_11ICollectionINS_7IndexedIS1_EEEE,comdat
	.align	2
	.p2align 4,,11
	.weak	_ZN8opendnp318TypedCommandHeaderINS_23ControlRelayOutputBlockEE19ApplySelectResponseERKNS_11ICollectionINS_7IndexedIS1_EEEE
	.type	_ZN8opendnp318TypedCommandHeaderINS_23ControlRelayOutputBlockEE19ApplySelectResponseERKNS_11ICollectionINS_7IndexedIS1_EEEE, %function
_ZN8opendnp318TypedCommandHeaderINS_23ControlRelayOutputBlockEE19ApplySelectResponseERKNS_11ICollectionINS_7IndexedIS1_EEEE:
.LFB1903:
	.cfi_startproc
	stp	x29, x30, [sp, -80]!
	.cfi_def_cfa_offset 80
	.cfi_offset 29, -80
	.cfi_offset 30, -72
	adrp	x2, :got:__stack_chk_guard
	mov	x29, sp
	stp	x19, x20, [sp, 16]
	.cfi_offset 19, -64
	.cfi_offset 20, -56
	mov	x20, x0
	mov	x19, x1
	mov	x0, x1
	ldr	x1, [x1]
	ldr	x2, [x2, #:got_lo12:__stack_chk_guard]
	ldr	x1, [x1]
	ldr	x3, [x2]
	str	x3, [sp, 72]
	mov	x3, 0
	blr	x1
	ldp	x3, x2, [x20, 48]
	mov	x1, -3689348814741910324
	movk	x1, 0xcccd, lsl 0
	sub	x2, x2, x3
	asr	x2, x2, 2
	mul	x2, x2, x1
	cmp	x0, x2
	bhi	.L472
	ldr	x2, [x19]
	adrp	x0, :got:_ZTVN8opendnp314FunctorVisitorINS_7IndexedINS_23ControlRelayOutputBlockEEEZNS_18TypedCommandHeaderIS2_E19ApplySelectResponseERKNS_11ICollectionIS3_EEEUlS3_E_EE
	add	x1, sp, 44
	str	wzr, [sp, 44]
	ldr	x0, [x0, #:got_lo12:_ZTVN8opendnp314FunctorVisitorINS_7IndexedINS_23ControlRelayOutputBlockEEEZNS_18TypedCommandHeaderIS2_E19ApplySelectResponseERKNS_11ICollectionIS3_EEEUlS3_E_EE]
	ldr	x2, [x2, 8]
	add	x0, x0, 16
	stp	x0, x20, [sp, 48]
	mov	x0, x19
	str	x1, [sp, 64]
	add	x1, sp, 48
	blr	x2
.L472:
	adrp	x0, :got:__stack_chk_guard
	ldr	x0, [x0, #:got_lo12:__stack_chk_guard]
	ldr	x2, [sp, 72]
	ldr	x1, [x0]
	subs	x2, x2, x1
	mov	x1, 0
	bne	.L476
	ldp	x19, x20, [sp, 16]
	ldp	x29, x30, [sp], 80
	.cfi_remember_state
	.cfi_restore 30
	.cfi_restore 29
	.cfi_restore 19
	.cfi_restore 20
	.cfi_def_cfa_offset 0
	ret
.L476:
	.cfi_restore_state
	bl	__stack_chk_fail
	.cfi_endproc
.LFE1903:
	.size	_ZN8opendnp318TypedCommandHeaderINS_23ControlRelayOutputBlockEE19ApplySelectResponseERKNS_11ICollectionINS_7IndexedIS1_EEEE, .-_ZN8opendnp318TypedCommandHeaderINS_23ControlRelayOutputBlockEE19ApplySelectResponseERKNS_11ICollectionINS_7IndexedIS1_EEEE
	.section	.text._ZN8opendnp318TypedCommandHeaderINS_23ControlRelayOutputBlockEE20ApplyOperateResponseERKNS_11ICollectionINS_7IndexedIS1_EEEE,"axG",@progbits,_ZN8opendnp318TypedCommandHeaderINS_23ControlRelayOutputBlockEE20ApplyOperateResponseERKNS_11ICollectionINS_7IndexedIS1_EEEE,comdat
	.align	2
	.p2align 4,,11
	.weak	_ZN8opendnp318TypedCommandHeaderINS_23ControlRelayOutputBlockEE20ApplyOperateResponseERKNS_11ICollectionINS_7IndexedIS1_EEEE
	.type	_ZN8opendnp318TypedCommandHeaderINS_23ControlRelayOutputBlockEE20ApplyOperateResponseERKNS_11ICollectionINS_7IndexedIS1_EEEE, %function
_ZN8opendnp318TypedCommandHeaderINS_23ControlRelayOutputBlockEE20ApplyOperateResponseERKNS_11ICollectionINS_7IndexedIS1_EEEE:
.LFB1905:
	.cfi_startproc
	stp	x29, x30, [sp, -80]!
	.cfi_def_cfa_offset 80
	.cfi_offset 29, -80
	.cfi_offset 30, -72
	adrp	x2, :got:__stack_chk_guard
	mov	x29, sp
	stp	x19, x20, [sp, 16]
	.cfi_offset 19, -64
	.cfi_offset 20, -56
	mov	x20, x0
	mov	x19, x1
	mov	x0, x1
	ldr	x1, [x1]
	ldr	x2, [x2, #:got_lo12:__stack_chk_guard]
	ldr	x1, [x1]
	ldr	x3, [x2]
	str	x3, [sp, 72]
	mov	x3, 0
	blr	x1
	ldp	x3, x2, [x20, 48]
	mov	x1, -3689348814741910324
	movk	x1, 0xcccd, lsl 0
	sub	x2, x2, x3
	asr	x2, x2, 2
	mul	x2, x2, x1
	cmp	x0, x2
	bhi	.L477
	ldr	x2, [x19]
	adrp	x0, :got:_ZTVN8opendnp314FunctorVisitorINS_7IndexedINS_23ControlRelayOutputBlockEEEZNS_18TypedCommandHeaderIS2_E20ApplyOperateResponseERKNS_11ICollectionIS3_EEEUlS3_E_EE
	add	x1, sp, 44
	str	wzr, [sp, 44]
	ldr	x0, [x0, #:got_lo12:_ZTVN8opendnp314FunctorVisitorINS_7IndexedINS_23ControlRelayOutputBlockEEEZNS_18TypedCommandHeaderIS2_E20ApplyOperateResponseERKNS_11ICollectionIS3_EEEUlS3_E_EE]
	ldr	x2, [x2, 8]
	add	x0, x0, 16
	stp	x0, x20, [sp, 48]
	mov	x0, x19
	str	x1, [sp, 64]
	add	x1, sp, 48
	blr	x2
.L477:
	adrp	x0, :got:__stack_chk_guard
	ldr	x0, [x0, #:got_lo12:__stack_chk_guard]
	ldr	x2, [sp, 72]
	ldr	x1, [x0]
	subs	x2, x2, x1
	mov	x1, 0
	bne	.L481
	ldp	x19, x20, [sp, 16]
	ldp	x29, x30, [sp], 80
	.cfi_remember_state
	.cfi_restore 30
	.cfi_restore 29
	.cfi_restore 19
	.cfi_restore 20
	.cfi_def_cfa_offset 0
	ret
.L481:
	.cfi_restore_state
	bl	__stack_chk_fail
	.cfi_endproc
.LFE1905:
	.size	_ZN8opendnp318TypedCommandHeaderINS_23ControlRelayOutputBlockEE20ApplyOperateResponseERKNS_11ICollectionINS_7IndexedIS1_EEEE, .-_ZN8opendnp318TypedCommandHeaderINS_23ControlRelayOutputBlockEE20ApplyOperateResponseERKNS_11ICollectionINS_7IndexedIS1_EEEE
	.text
	.align	2
	.p2align 4,,11
	.global	_ZN8opendnp310CommandSetC2EOS0_
	.type	_ZN8opendnp310CommandSetC2EOS0_, %function
_ZN8opendnp310CommandSetC2EOS0_:
.LFB1399:
	.cfi_startproc
	ldr	q0, [x1]
	stp	xzr, xzr, [x1]
	ldr	x2, [x1, 16]
	str	q0, [x0]
	str	x2, [x0, 16]
	str	xzr, [x1, 16]
	ret
	.cfi_endproc
.LFE1399:
	.size	_ZN8opendnp310CommandSetC2EOS0_, .-_ZN8opendnp310CommandSetC2EOS0_
	.global	_ZN8opendnp310CommandSetC1EOS0_
	.set	_ZN8opendnp310CommandSetC1EOS0_,_ZN8opendnp310CommandSetC2EOS0_
	.align	2
	.p2align 4,,11
	.global	_ZN8opendnp310CommandSetD2Ev
	.type	_ZN8opendnp310CommandSetD2Ev, %function
_ZN8opendnp310CommandSetD2Ev:
.LFB1402:
	.cfi_startproc
	stp	x29, x30, [sp, -48]!
	.cfi_def_cfa_offset 48
	.cfi_offset 29, -48
	.cfi_offset 30, -40
	mov	x29, sp
	stp	x19, x20, [sp, 16]
	.cfi_offset 19, -32
	.cfi_offset 20, -24
	ldp	x19, x20, [x0]
	str	x21, [sp, 32]
	.cfi_offset 21, -16
	mov	x21, x0
	cmp	x20, x19
	beq	.L484
	.p2align 3,,7
.L486:
	ldr	x1, [x19]
	add	x19, x19, 8
	mov	x0, x1
	cbz	x1, .L485
	ldr	x1, [x1]
	ldr	x1, [x1, 24]
	blr	x1
.L485:
	cmp	x20, x19
	bne	.L486
	ldr	x19, [x21]
.L484:
	cbz	x19, .L483
	ldr	x1, [x21, 16]
	mov	x0, x19
	ldr	x21, [sp, 32]
	sub	x1, x1, x19
	ldp	x19, x20, [sp, 16]
	ldp	x29, x30, [sp], 48
	.cfi_remember_state
	.cfi_restore 30
	.cfi_restore 29
	.cfi_restore 21
	.cfi_restore 19
	.cfi_restore 20
	.cfi_def_cfa_offset 0
	b	_ZdlPvm
	.p2align 2,,3
.L483:
	.cfi_restore_state
	ldp	x19, x20, [sp, 16]
	ldr	x21, [sp, 32]
	ldp	x29, x30, [sp], 48
	.cfi_restore 30
	.cfi_restore 29
	.cfi_restore 21
	.cfi_restore 19
	.cfi_restore 20
	.cfi_def_cfa_offset 0
	ret
	.cfi_endproc
.LFE1402:
	.size	_ZN8opendnp310CommandSetD2Ev, .-_ZN8opendnp310CommandSetD2Ev
	.global	_ZN8opendnp310CommandSetD1Ev
	.set	_ZN8opendnp310CommandSetD1Ev,_ZN8opendnp310CommandSetD2Ev
	.section	.rodata._ZNSt6vectorIPN8opendnp314ICommandHeaderESaIS2_EE17_M_realloc_insertIJS2_EEEvN9__gnu_cxx17__normal_iteratorIPS2_S4_EEDpOT_.str1.8,"aMS",@progbits,1
	.align	3
.LC0:
	.string	"vector::_M_realloc_insert"
	.section	.text._ZNSt6vectorIPN8opendnp314ICommandHeaderESaIS2_EE17_M_realloc_insertIJS2_EEEvN9__gnu_cxx17__normal_iteratorIPS2_S4_EEDpOT_,"axG",@progbits,_ZNSt6vectorIPN8opendnp314ICommandHeaderESaIS2_EE17_M_realloc_insertIJS2_EEEvN9__gnu_cxx17__normal_iteratorIPS2_S4_EEDpOT_,comdat
	.align	2
	.p2align 4,,11
	.weak	_ZNSt6vectorIPN8opendnp314ICommandHeaderESaIS2_EE17_M_realloc_insertIJS2_EEEvN9__gnu_cxx17__normal_iteratorIPS2_S4_EEDpOT_
	.type	_ZNSt6vectorIPN8opendnp314ICommandHeaderESaIS2_EE17_M_realloc_insertIJS2_EEEvN9__gnu_cxx17__normal_iteratorIPS2_S4_EEDpOT_, %function
_ZNSt6vectorIPN8opendnp314ICommandHeaderESaIS2_EE17_M_realloc_insertIJS2_EEEvN9__gnu_cxx17__normal_iteratorIPS2_S4_EEDpOT_:
.LFB1693:
	.cfi_startproc
	stp	x29, x30, [sp, -96]!
	.cfi_def_cfa_offset 96
	.cfi_offset 29, -96
	.cfi_offset 30, -88
	mov	x29, sp
	stp	x21, x22, [sp, 32]
	stp	x25, x26, [sp, 64]
	.cfi_offset 21, -64
	.cfi_offset 22, -56
	.cfi_offset 25, -32
	.cfi_offset 26, -24
	ldp	x25, x21, [x0]
	stp	x19, x20, [sp, 16]
	stp	x23, x24, [sp, 48]
	.cfi_offset 19, -80
	.cfi_offset 20, -72
	.cfi_offset 23, -48
	.cfi_offset 24, -40
	mov	x24, x1
	mov	x1, 1152921504606846975
	str	x27, [sp, 80]
	.cfi_offset 27, -16
	sub	x3, x21, x25
	asr	x3, x3, 3
	cmp	x3, x1
	beq	.L513
	cmp	x3, 0
	mov	x20, x0
	csinc	x0, x3, xzr, ne
	mov	x27, x2
	sub	x26, x24, x25
	adds	x3, x3, x0
	bcs	.L506
	cbnz	x3, .L498
	mov	x19, 0
	mov	x23, 0
.L504:
	add	x22, x26, 8
	sub	x21, x21, x24
	ldr	x0, [x27]
	add	x22, x23, x22
	str	x0, [x23, x26]
	add	x27, x22, x21
	cmp	x26, 0
	bgt	.L514
	cmp	x21, 0
	bgt	.L502
	cbnz	x25, .L512
.L503:
	ldp	x21, x22, [sp, 32]
	ldp	x25, x26, [sp, 64]
	stp	x23, x27, [x20]
	str	x19, [x20, 16]
	ldp	x19, x20, [sp, 16]
	ldp	x23, x24, [sp, 48]
	ldr	x27, [sp, 80]
	ldp	x29, x30, [sp], 96
	.cfi_remember_state
	.cfi_restore 30
	.cfi_restore 29
	.cfi_restore 27
	.cfi_restore 25
	.cfi_restore 26
	.cfi_restore 23
	.cfi_restore 24
	.cfi_restore 21
	.cfi_restore 22
	.cfi_restore 19
	.cfi_restore 20
	.cfi_def_cfa_offset 0
	ret
	.p2align 2,,3
.L514:
	.cfi_restore_state
	mov	x2, x26
	mov	x1, x25
	mov	x0, x23
	bl	memmove
	cmp	x21, 0
	bgt	.L502
.L512:
	ldr	x1, [x20, 16]
	mov	x0, x25
	sub	x1, x1, x25
	bl	_ZdlPvm
	b	.L503
	.p2align 2,,3
.L502:
	mov	x2, x21
	mov	x1, x24
	mov	x0, x22
	bl	memcpy
	cbz	x25, .L503
	b	.L512
	.p2align 2,,3
.L506:
	mov	x19, 9223372036854775800
.L497:
	mov	x0, x19
	bl	_Znwm
	mov	x23, x0
	add	x19, x0, x19
	b	.L504
	.p2align 2,,3
.L498:
	cmp	x3, x1
	csel	x3, x3, x1, ls
	lsl	x19, x3, 3
	b	.L497
.L513:
	adrp	x0, .LC0
	add	x0, x0, :lo12:.LC0
	bl	_ZSt20__throw_length_errorPKc
	.cfi_endproc
.LFE1693:
	.size	_ZNSt6vectorIPN8opendnp314ICommandHeaderESaIS2_EE17_M_realloc_insertIJS2_EEEvN9__gnu_cxx17__normal_iteratorIPS2_S4_EEDpOT_, .-_ZNSt6vectorIPN8opendnp314ICommandHeaderESaIS2_EE17_M_realloc_insertIJS2_EEEvN9__gnu_cxx17__normal_iteratorIPS2_S4_EEDpOT_
	.text
	.align	2
	.p2align 4,,11
	.global	_ZN8opendnp310CommandSet18StartHeaderAOInt32Ev
	.type	_ZN8opendnp310CommandSet18StartHeaderAOInt32Ev, %function
_ZN8opendnp310CommandSet18StartHeaderAOInt32Ev:
.LFB1420:
	.cfi_startproc
	stp	x29, x30, [sp, -48]!
	.cfi_def_cfa_offset 48
	.cfi_offset 29, -48
	.cfi_offset 30, -40
	adrp	x1, :got:__stack_chk_guard
	mov	x29, sp
	ldr	x1, [x1, #:got_lo12:__stack_chk_guard]
	stp	x19, x20, [sp, 16]
	.cfi_offset 19, -32
	.cfi_offset 20, -24
	mov	x20, x0
	ldr	x2, [x1]
	str	x2, [sp, 40]
	mov	x2, 0
	mov	x0, 72
	bl	_Znwm
	mov	x19, x0
	adrp	x1, :got:_ZTVN8opendnp318TypedCommandHeaderINS_17AnalogOutputInt32EEE
	adrp	x3, :got:_ZN8opendnp311Group41Var110ReadTargetERN7openpal6RSliceERNS_17AnalogOutputInt32E
	adrp	x2, :got:_ZN8opendnp311Group41Var111WriteTargetERKNS_17AnalogOutputInt32ERN7openpal6WSliceE
	mov	w5, 5
	ldr	x1, [x1, #:got_lo12:_ZTVN8opendnp318TypedCommandHeaderINS_17AnalogOutputInt32EEE]
	mov	w4, 297
	ldr	x2, [x2, #:got_lo12:_ZN8opendnp311Group41Var111WriteTargetERKNS_17AnalogOutputInt32ERN7openpal6WSliceE]
	add	x6, x1, 16
	ldr	x3, [x3, #:got_lo12:_ZN8opendnp311Group41Var110ReadTargetERN7openpal6RSliceERNS_17AnalogOutputInt32E]
	add	x1, x1, 168
	stp	x6, x1, [x0]
	stp	x3, x2, [x0, 24]
	ldp	x1, x2, [x20, 8]
	str	w5, [x0, 16]
	strh	w4, [x0, 40]
	stp	xzr, xzr, [x0, 48]!
	str	xzr, [x0, 16]
	str	x19, [sp, 32]
	cmp	x1, x2
	beq	.L516
	str	x19, [x1], 8
	str	x1, [x20, 8]
.L517:
	adrp	x1, :got:__stack_chk_guard
	add	x0, x19, 8
	ldr	x1, [x1, #:got_lo12:__stack_chk_guard]
	ldr	x3, [sp, 40]
	ldr	x2, [x1]
	subs	x3, x3, x2
	mov	x2, 0
	bne	.L520
	ldp	x19, x20, [sp, 16]
	ldp	x29, x30, [sp], 48
	.cfi_remember_state
	.cfi_restore 30
	.cfi_restore 29
	.cfi_restore 19
	.cfi_restore 20
	.cfi_def_cfa_offset 0
	ret
	.p2align 2,,3
.L516:
	.cfi_restore_state
	mov	x0, x20
	add	x2, sp, 32
	bl	_ZNSt6vectorIPN8opendnp314ICommandHeaderESaIS2_EE17_M_realloc_insertIJS2_EEEvN9__gnu_cxx17__normal_iteratorIPS2_S4_EEDpOT_
	b	.L517
.L520:
	bl	__stack_chk_fail
	.cfi_endproc
.LFE1420:
	.size	_ZN8opendnp310CommandSet18StartHeaderAOInt32Ev, .-_ZN8opendnp310CommandSet18StartHeaderAOInt32Ev
	.align	2
	.p2align 4,,11
	.global	_ZN8opendnp310CommandSetC2ESt16initializer_listINS_7IndexedINS_17AnalogOutputInt32EEEE
	.type	_ZN8opendnp310CommandSetC2ESt16initializer_listINS_7IndexedINS_17AnalogOutputInt32EEEE, %function
_ZN8opendnp310CommandSetC2ESt16initializer_listINS_7IndexedINS_17AnalogOutputInt32EEEE:
.LFB1411:
	.cfi_startproc
	.cfi_personality 0x9b,DW.ref.__gxx_personality_v0
	.cfi_lsda 0x1b,.LLSDA1411
	stp	xzr, xzr, [x0]
	str	xzr, [x0, 16]
	cbnz	x2, .L538
	ret
	.p2align 2,,3
.L538:
	stp	x29, x30, [sp, -64]!
	.cfi_def_cfa_offset 64
	.cfi_offset 29, -64
	.cfi_offset 30, -56
	mov	x29, sp
	stp	x19, x20, [sp, 16]
	.cfi_offset 19, -48
	.cfi_offset 20, -40
	mov	x19, x1
	mov	x20, x2
	stp	x21, x22, [sp, 32]
	.cfi_offset 21, -32
	.cfi_offset 22, -24
	mov	x22, x0
	str	x23, [sp, 48]
	.cfi_offset 23, -16
.LEHB15:
	bl	_ZN8opendnp310CommandSet18StartHeaderAOInt32Ev
	add	x20, x20, x20, lsl 1
	mov	x21, x0
	add	x20, x19, x20, lsl 2
	cmp	x20, x19
	beq	.L521
	.p2align 3,,7
.L523:
	ldr	x3, [x21]
	mov	x1, x19
	ldrh	w2, [x19, 8]
	mov	x0, x21
	ldr	x3, [x3]
	blr	x3
.LEHE15:
	add	x19, x19, 12
	cmp	x20, x19
	bne	.L523
.L521:
	ldp	x19, x20, [sp, 16]
	ldp	x21, x22, [sp, 32]
	ldr	x23, [sp, 48]
	ldp	x29, x30, [sp], 64
	.cfi_remember_state
	.cfi_restore 30
	.cfi_restore 29
	.cfi_restore 23
	.cfi_restore 21
	.cfi_restore 22
	.cfi_restore 19
	.cfi_restore 20
	.cfi_def_cfa_offset 0
	ret
.L526:
	.cfi_restore_state
	ldr	x2, [x22]
	mov	x19, x0
	ldr	x1, [x22, 16]
	sub	x1, x1, x2
	cbz	x2, .L525
	mov	x0, x2
	bl	_ZdlPvm
.L525:
	mov	x0, x19
.LEHB16:
	bl	_Unwind_Resume
.LEHE16:
	.cfi_endproc
.LFE1411:
	.section	.gcc_except_table,"a",@progbits
.LLSDA1411:
	.byte	0xff
	.byte	0xff
	.byte	0x1
	.uleb128 .LLSDACSE1411-.LLSDACSB1411
.LLSDACSB1411:
	.uleb128 .LEHB15-.LFB1411
	.uleb128 .LEHE15-.LEHB15
	.uleb128 .L526-.LFB1411
	.uleb128 0
	.uleb128 .LEHB16-.LFB1411
	.uleb128 .LEHE16-.LEHB16
	.uleb128 0
	.uleb128 0
.LLSDACSE1411:
	.text
	.size	_ZN8opendnp310CommandSetC2ESt16initializer_listINS_7IndexedINS_17AnalogOutputInt32EEEE, .-_ZN8opendnp310CommandSetC2ESt16initializer_listINS_7IndexedINS_17AnalogOutputInt32EEEE
	.global	_ZN8opendnp310CommandSetC1ESt16initializer_listINS_7IndexedINS_17AnalogOutputInt32EEEE
	.set	_ZN8opendnp310CommandSetC1ESt16initializer_listINS_7IndexedINS_17AnalogOutputInt32EEEE,_ZN8opendnp310CommandSetC2ESt16initializer_listINS_7IndexedINS_17AnalogOutputInt32EEEE
	.align	2
	.p2align 4,,11
	.global	_ZN8opendnp310CommandSet21StartHeaderAODouble64Ev
	.type	_ZN8opendnp310CommandSet21StartHeaderAODouble64Ev, %function
_ZN8opendnp310CommandSet21StartHeaderAODouble64Ev:
.LFB1423:
	.cfi_startproc
	stp	x29, x30, [sp, -48]!
	.cfi_def_cfa_offset 48
	.cfi_offset 29, -48
	.cfi_offset 30, -40
	adrp	x1, :got:__stack_chk_guard
	mov	x29, sp
	ldr	x1, [x1, #:got_lo12:__stack_chk_guard]
	stp	x19, x20, [sp, 16]
	.cfi_offset 19, -32
	.cfi_offset 20, -24
	mov	x20, x0
	ldr	x2, [x1]
	str	x2, [sp, 40]
	mov	x2, 0
	mov	x0, 72
	bl	_Znwm
	mov	x19, x0
	adrp	x1, :got:_ZTVN8opendnp318TypedCommandHeaderINS_20AnalogOutputDouble64EEE
	adrp	x3, :got:_ZN8opendnp311Group41Var410ReadTargetERN7openpal6RSliceERNS_20AnalogOutputDouble64E
	adrp	x2, :got:_ZN8opendnp311Group41Var411WriteTargetERKNS_20AnalogOutputDouble64ERN7openpal6WSliceE
	mov	w5, 9
	ldr	x1, [x1, #:got_lo12:_ZTVN8opendnp318TypedCommandHeaderINS_20AnalogOutputDouble64EEE]
	mov	w4, 1065
	ldr	x2, [x2, #:got_lo12:_ZN8opendnp311Group41Var411WriteTargetERKNS_20AnalogOutputDouble64ERN7openpal6WSliceE]
	add	x6, x1, 16
	ldr	x3, [x3, #:got_lo12:_ZN8opendnp311Group41Var410ReadTargetERN7openpal6RSliceERNS_20AnalogOutputDouble64E]
	add	x1, x1, 168
	stp	x6, x1, [x0]
	stp	x3, x2, [x0, 24]
	ldp	x1, x2, [x20, 8]
	str	w5, [x0, 16]
	strh	w4, [x0, 40]
	stp	xzr, xzr, [x0, 48]!
	str	xzr, [x0, 16]
	str	x19, [sp, 32]
	cmp	x1, x2
	beq	.L540
	str	x19, [x1], 8
	str	x1, [x20, 8]
.L541:
	adrp	x1, :got:__stack_chk_guard
	add	x0, x19, 8
	ldr	x1, [x1, #:got_lo12:__stack_chk_guard]
	ldr	x3, [sp, 40]
	ldr	x2, [x1]
	subs	x3, x3, x2
	mov	x2, 0
	bne	.L544
	ldp	x19, x20, [sp, 16]
	ldp	x29, x30, [sp], 48
	.cfi_remember_state
	.cfi_restore 30
	.cfi_restore 29
	.cfi_restore 19
	.cfi_restore 20
	.cfi_def_cfa_offset 0
	ret
	.p2align 2,,3
.L540:
	.cfi_restore_state
	mov	x0, x20
	add	x2, sp, 32
	bl	_ZNSt6vectorIPN8opendnp314ICommandHeaderESaIS2_EE17_M_realloc_insertIJS2_EEEvN9__gnu_cxx17__normal_iteratorIPS2_S4_EEDpOT_
	b	.L541
.L544:
	bl	__stack_chk_fail
	.cfi_endproc
.LFE1423:
	.size	_ZN8opendnp310CommandSet21StartHeaderAODouble64Ev, .-_ZN8opendnp310CommandSet21StartHeaderAODouble64Ev
	.align	2
	.p2align 4,,11
	.global	_ZN8opendnp310CommandSetC2ESt16initializer_listINS_7IndexedINS_20AnalogOutputDouble64EEEE
	.type	_ZN8opendnp310CommandSetC2ESt16initializer_listINS_7IndexedINS_20AnalogOutputDouble64EEEE, %function
_ZN8opendnp310CommandSetC2ESt16initializer_listINS_7IndexedINS_20AnalogOutputDouble64EEEE:
.LFB1417:
	.cfi_startproc
	.cfi_personality 0x9b,DW.ref.__gxx_personality_v0
	.cfi_lsda 0x1b,.LLSDA1417
	stp	xzr, xzr, [x0]
	str	xzr, [x0, 16]
	cbnz	x2, .L562
	ret
	.p2align 2,,3
.L562:
	stp	x29, x30, [sp, -64]!
	.cfi_def_cfa_offset 64
	.cfi_offset 29, -64
	.cfi_offset 30, -56
	mov	x29, sp
	stp	x19, x20, [sp, 16]
	.cfi_offset 19, -48
	.cfi_offset 20, -40
	mov	x19, x1
	mov	x20, x2
	stp	x21, x22, [sp, 32]
	.cfi_offset 21, -32
	.cfi_offset 22, -24
	mov	x22, x0
	str	x23, [sp, 48]
	.cfi_offset 23, -16
.LEHB17:
	bl	_ZN8opendnp310CommandSet21StartHeaderAODouble64Ev
	add	x20, x20, x20, lsl 1
	mov	x21, x0
	add	x20, x19, x20, lsl 3
	cmp	x20, x19
	beq	.L545
	.p2align 3,,7
.L547:
	ldr	x3, [x21]
	mov	x1, x19
	ldrh	w2, [x19, 16]
	mov	x0, x21
	ldr	x3, [x3]
	blr	x3
.LEHE17:
	add	x19, x19, 24
	cmp	x20, x19
	bne	.L547
.L545:
	ldp	x19, x20, [sp, 16]
	ldp	x21, x22, [sp, 32]
	ldr	x23, [sp, 48]
	ldp	x29, x30, [sp], 64
	.cfi_remember_state
	.cfi_restore 30
	.cfi_restore 29
	.cfi_restore 23
	.cfi_restore 21
	.cfi_restore 22
	.cfi_restore 19
	.cfi_restore 20
	.cfi_def_cfa_offset 0
	ret
.L550:
	.cfi_restore_state
	ldr	x2, [x22]
	mov	x19, x0
	ldr	x1, [x22, 16]
	sub	x1, x1, x2
	cbz	x2, .L549
	mov	x0, x2
	bl	_ZdlPvm
.L549:
	mov	x0, x19
.LEHB18:
	bl	_Unwind_Resume
.LEHE18:
	.cfi_endproc
.LFE1417:
	.section	.gcc_except_table
.LLSDA1417:
	.byte	0xff
	.byte	0xff
	.byte	0x1
	.uleb128 .LLSDACSE1417-.LLSDACSB1417
.LLSDACSB1417:
	.uleb128 .LEHB17-.LFB1417
	.uleb128 .LEHE17-.LEHB17
	.uleb128 .L550-.LFB1417
	.uleb128 0
	.uleb128 .LEHB18-.LFB1417
	.uleb128 .LEHE18-.LEHB18
	.uleb128 0
	.uleb128 0
.LLSDACSE1417:
	.text
	.size	_ZN8opendnp310CommandSetC2ESt16initializer_listINS_7IndexedINS_20AnalogOutputDouble64EEEE, .-_ZN8opendnp310CommandSetC2ESt16initializer_listINS_7IndexedINS_20AnalogOutputDouble64EEEE
	.global	_ZN8opendnp310CommandSetC1ESt16initializer_listINS_7IndexedINS_20AnalogOutputDouble64EEEE
	.set	_ZN8opendnp310CommandSetC1ESt16initializer_listINS_7IndexedINS_20AnalogOutputDouble64EEEE,_ZN8opendnp310CommandSetC2ESt16initializer_listINS_7IndexedINS_20AnalogOutputDouble64EEEE
	.align	2
	.p2align 4,,11
	.global	_ZN8opendnp310CommandSet18StartHeaderAOInt16Ev
	.type	_ZN8opendnp310CommandSet18StartHeaderAOInt16Ev, %function
_ZN8opendnp310CommandSet18StartHeaderAOInt16Ev:
.LFB1421:
	.cfi_startproc
	stp	x29, x30, [sp, -48]!
	.cfi_def_cfa_offset 48
	.cfi_offset 29, -48
	.cfi_offset 30, -40
	adrp	x1, :got:__stack_chk_guard
	mov	x29, sp
	ldr	x1, [x1, #:got_lo12:__stack_chk_guard]
	stp	x19, x20, [sp, 16]
	.cfi_offset 19, -32
	.cfi_offset 20, -24
	mov	x20, x0
	ldr	x2, [x1]
	str	x2, [sp, 40]
	mov	x2, 0
	mov	x0, 72
	bl	_Znwm
	mov	x19, x0
	adrp	x1, :got:_ZTVN8opendnp318TypedCommandHeaderINS_17AnalogOutputInt16EEE
	adrp	x3, :got:_ZN8opendnp311Group41Var210ReadTargetERN7openpal6RSliceERNS_17AnalogOutputInt16E
	adrp	x2, :got:_ZN8opendnp311Group41Var211WriteTargetERKNS_17AnalogOutputInt16ERN7openpal6WSliceE
	mov	w5, 3
	ldr	x1, [x1, #:got_lo12:_ZTVN8opendnp318TypedCommandHeaderINS_17AnalogOutputInt16EEE]
	mov	w4, 553
	ldr	x2, [x2, #:got_lo12:_ZN8opendnp311Group41Var211WriteTargetERKNS_17AnalogOutputInt16ERN7openpal6WSliceE]
	add	x6, x1, 16
	ldr	x3, [x3, #:got_lo12:_ZN8opendnp311Group41Var210ReadTargetERN7openpal6RSliceERNS_17AnalogOutputInt16E]
	add	x1, x1, 168
	stp	x6, x1, [x0]
	stp	x3, x2, [x0, 24]
	ldp	x1, x2, [x20, 8]
	str	w5, [x0, 16]
	strh	w4, [x0, 40]
	stp	xzr, xzr, [x0, 48]!
	str	xzr, [x0, 16]
	str	x19, [sp, 32]
	cmp	x1, x2
	beq	.L564
	str	x19, [x1], 8
	str	x1, [x20, 8]
.L565:
	adrp	x1, :got:__stack_chk_guard
	add	x0, x19, 8
	ldr	x1, [x1, #:got_lo12:__stack_chk_guard]
	ldr	x3, [sp, 40]
	ldr	x2, [x1]
	subs	x3, x3, x2
	mov	x2, 0
	bne	.L568
	ldp	x19, x20, [sp, 16]
	ldp	x29, x30, [sp], 48
	.cfi_remember_state
	.cfi_restore 30
	.cfi_restore 29
	.cfi_restore 19
	.cfi_restore 20
	.cfi_def_cfa_offset 0
	ret
	.p2align 2,,3
.L564:
	.cfi_restore_state
	mov	x0, x20
	add	x2, sp, 32
	bl	_ZNSt6vectorIPN8opendnp314ICommandHeaderESaIS2_EE17_M_realloc_insertIJS2_EEEvN9__gnu_cxx17__normal_iteratorIPS2_S4_EEDpOT_
	b	.L565
.L568:
	bl	__stack_chk_fail
	.cfi_endproc
.LFE1421:
	.size	_ZN8opendnp310CommandSet18StartHeaderAOInt16Ev, .-_ZN8opendnp310CommandSet18StartHeaderAOInt16Ev
	.align	2
	.p2align 4,,11
	.global	_ZN8opendnp310CommandSetC2ESt16initializer_listINS_7IndexedINS_17AnalogOutputInt16EEEE
	.type	_ZN8opendnp310CommandSetC2ESt16initializer_listINS_7IndexedINS_17AnalogOutputInt16EEEE, %function
_ZN8opendnp310CommandSetC2ESt16initializer_listINS_7IndexedINS_17AnalogOutputInt16EEEE:
.LFB1408:
	.cfi_startproc
	.cfi_personality 0x9b,DW.ref.__gxx_personality_v0
	.cfi_lsda 0x1b,.LLSDA1408
	stp	xzr, xzr, [x0]
	str	xzr, [x0, 16]
	cbnz	x2, .L586
	ret
	.p2align 2,,3
.L586:
	stp	x29, x30, [sp, -64]!
	.cfi_def_cfa_offset 64
	.cfi_offset 29, -64
	.cfi_offset 30, -56
	mov	x29, sp
	stp	x19, x20, [sp, 16]
	.cfi_offset 19, -48
	.cfi_offset 20, -40
	mov	x19, x1
	mov	x20, x2
	stp	x21, x22, [sp, 32]
	.cfi_offset 21, -32
	.cfi_offset 22, -24
	mov	x22, x0
	str	x23, [sp, 48]
	.cfi_offset 23, -16
.LEHB19:
	bl	_ZN8opendnp310CommandSet18StartHeaderAOInt16Ev
	add	x20, x20, x20, lsl 1
	mov	x21, x0
	add	x20, x19, x20, lsl 1
	cmp	x20, x19
	beq	.L569
	.p2align 3,,7
.L571:
	ldr	x3, [x21]
	mov	x1, x19
	ldrh	w2, [x19, 4]
	mov	x0, x21
	ldr	x3, [x3]
	blr	x3
.LEHE19:
	add	x19, x19, 6
	cmp	x20, x19
	bne	.L571
.L569:
	ldp	x19, x20, [sp, 16]
	ldp	x21, x22, [sp, 32]
	ldr	x23, [sp, 48]
	ldp	x29, x30, [sp], 64
	.cfi_remember_state
	.cfi_restore 30
	.cfi_restore 29
	.cfi_restore 23
	.cfi_restore 21
	.cfi_restore 22
	.cfi_restore 19
	.cfi_restore 20
	.cfi_def_cfa_offset 0
	ret
.L574:
	.cfi_restore_state
	ldr	x2, [x22]
	mov	x19, x0
	ldr	x1, [x22, 16]
	sub	x1, x1, x2
	cbz	x2, .L573
	mov	x0, x2
	bl	_ZdlPvm
.L573:
	mov	x0, x19
.LEHB20:
	bl	_Unwind_Resume
.LEHE20:
	.cfi_endproc
.LFE1408:
	.section	.gcc_except_table
.LLSDA1408:
	.byte	0xff
	.byte	0xff
	.byte	0x1
	.uleb128 .LLSDACSE1408-.LLSDACSB1408
.LLSDACSB1408:
	.uleb128 .LEHB19-.LFB1408
	.uleb128 .LEHE19-.LEHB19
	.uleb128 .L574-.LFB1408
	.uleb128 0
	.uleb128 .LEHB20-.LFB1408
	.uleb128 .LEHE20-.LEHB20
	.uleb128 0
	.uleb128 0
.LLSDACSE1408:
	.text
	.size	_ZN8opendnp310CommandSetC2ESt16initializer_listINS_7IndexedINS_17AnalogOutputInt16EEEE, .-_ZN8opendnp310CommandSetC2ESt16initializer_listINS_7IndexedINS_17AnalogOutputInt16EEEE
	.global	_ZN8opendnp310CommandSetC1ESt16initializer_listINS_7IndexedINS_17AnalogOutputInt16EEEE
	.set	_ZN8opendnp310CommandSetC1ESt16initializer_listINS_7IndexedINS_17AnalogOutputInt16EEEE,_ZN8opendnp310CommandSetC2ESt16initializer_listINS_7IndexedINS_17AnalogOutputInt16EEEE
	.align	2
	.p2align 4,,11
	.global	_ZN8opendnp310CommandSet20StartHeaderAOFloat32Ev
	.type	_ZN8opendnp310CommandSet20StartHeaderAOFloat32Ev, %function
_ZN8opendnp310CommandSet20StartHeaderAOFloat32Ev:
.LFB1422:
	.cfi_startproc
	stp	x29, x30, [sp, -48]!
	.cfi_def_cfa_offset 48
	.cfi_offset 29, -48
	.cfi_offset 30, -40
	adrp	x1, :got:__stack_chk_guard
	mov	x29, sp
	ldr	x1, [x1, #:got_lo12:__stack_chk_guard]
	stp	x19, x20, [sp, 16]
	.cfi_offset 19, -32
	.cfi_offset 20, -24
	mov	x20, x0
	ldr	x2, [x1]
	str	x2, [sp, 40]
	mov	x2, 0
	mov	x0, 72
	bl	_Znwm
	mov	x19, x0
	adrp	x1, :got:_ZTVN8opendnp318TypedCommandHeaderINS_19AnalogOutputFloat32EEE
	adrp	x3, :got:_ZN8opendnp311Group41Var310ReadTargetERN7openpal6RSliceERNS_19AnalogOutputFloat32E
	adrp	x2, :got:_ZN8opendnp311Group41Var311WriteTargetERKNS_19AnalogOutputFloat32ERN7openpal6WSliceE
	mov	w5, 5
	ldr	x1, [x1, #:got_lo12:_ZTVN8opendnp318TypedCommandHeaderINS_19AnalogOutputFloat32EEE]
	mov	w4, 809
	ldr	x2, [x2, #:got_lo12:_ZN8opendnp311Group41Var311WriteTargetERKNS_19AnalogOutputFloat32ERN7openpal6WSliceE]
	add	x6, x1, 16
	ldr	x3, [x3, #:got_lo12:_ZN8opendnp311Group41Var310ReadTargetERN7openpal6RSliceERNS_19AnalogOutputFloat32E]
	add	x1, x1, 168
	stp	x6, x1, [x0]
	stp	x3, x2, [x0, 24]
	ldp	x1, x2, [x20, 8]
	str	w5, [x0, 16]
	strh	w4, [x0, 40]
	stp	xzr, xzr, [x0, 48]!
	str	xzr, [x0, 16]
	str	x19, [sp, 32]
	cmp	x1, x2
	beq	.L588
	str	x19, [x1], 8
	str	x1, [x20, 8]
.L589:
	adrp	x1, :got:__stack_chk_guard
	add	x0, x19, 8
	ldr	x1, [x1, #:got_lo12:__stack_chk_guard]
	ldr	x3, [sp, 40]
	ldr	x2, [x1]
	subs	x3, x3, x2
	mov	x2, 0
	bne	.L592
	ldp	x19, x20, [sp, 16]
	ldp	x29, x30, [sp], 48
	.cfi_remember_state
	.cfi_restore 30
	.cfi_restore 29
	.cfi_restore 19
	.cfi_restore 20
	.cfi_def_cfa_offset 0
	ret
	.p2align 2,,3
.L588:
	.cfi_restore_state
	mov	x0, x20
	add	x2, sp, 32
	bl	_ZNSt6vectorIPN8opendnp314ICommandHeaderESaIS2_EE17_M_realloc_insertIJS2_EEEvN9__gnu_cxx17__normal_iteratorIPS2_S4_EEDpOT_
	b	.L589
.L592:
	bl	__stack_chk_fail
	.cfi_endproc
.LFE1422:
	.size	_ZN8opendnp310CommandSet20StartHeaderAOFloat32Ev, .-_ZN8opendnp310CommandSet20StartHeaderAOFloat32Ev
	.align	2
	.p2align 4,,11
	.global	_ZN8opendnp310CommandSetC2ESt16initializer_listINS_7IndexedINS_19AnalogOutputFloat32EEEE
	.type	_ZN8opendnp310CommandSetC2ESt16initializer_listINS_7IndexedINS_19AnalogOutputFloat32EEEE, %function
_ZN8opendnp310CommandSetC2ESt16initializer_listINS_7IndexedINS_19AnalogOutputFloat32EEEE:
.LFB1414:
	.cfi_startproc
	.cfi_personality 0x9b,DW.ref.__gxx_personality_v0
	.cfi_lsda 0x1b,.LLSDA1414
	stp	xzr, xzr, [x0]
	str	xzr, [x0, 16]
	cbnz	x2, .L610
	ret
	.p2align 2,,3
.L610:
	stp	x29, x30, [sp, -64]!
	.cfi_def_cfa_offset 64
	.cfi_offset 29, -64
	.cfi_offset 30, -56
	mov	x29, sp
	stp	x19, x20, [sp, 16]
	.cfi_offset 19, -48
	.cfi_offset 20, -40
	mov	x19, x1
	mov	x20, x2
	stp	x21, x22, [sp, 32]
	.cfi_offset 21, -32
	.cfi_offset 22, -24
	mov	x22, x0
	str	x23, [sp, 48]
	.cfi_offset 23, -16
.LEHB21:
	bl	_ZN8opendnp310CommandSet20StartHeaderAOFloat32Ev
	add	x20, x20, x20, lsl 1
	mov	x21, x0
	add	x20, x19, x20, lsl 2
	cmp	x20, x19
	beq	.L593
	.p2align 3,,7
.L595:
	ldr	x3, [x21]
	mov	x1, x19
	ldrh	w2, [x19, 8]
	mov	x0, x21
	ldr	x3, [x3]
	blr	x3
.LEHE21:
	add	x19, x19, 12
	cmp	x20, x19
	bne	.L595
.L593:
	ldp	x19, x20, [sp, 16]
	ldp	x21, x22, [sp, 32]
	ldr	x23, [sp, 48]
	ldp	x29, x30, [sp], 64
	.cfi_remember_state
	.cfi_restore 30
	.cfi_restore 29
	.cfi_restore 23
	.cfi_restore 21
	.cfi_restore 22
	.cfi_restore 19
	.cfi_restore 20
	.cfi_def_cfa_offset 0
	ret
.L598:
	.cfi_restore_state
	ldr	x2, [x22]
	mov	x19, x0
	ldr	x1, [x22, 16]
	sub	x1, x1, x2
	cbz	x2, .L597
	mov	x0, x2
	bl	_ZdlPvm
.L597:
	mov	x0, x19
.LEHB22:
	bl	_Unwind_Resume
.LEHE22:
	.cfi_endproc
.LFE1414:
	.section	.gcc_except_table
.LLSDA1414:
	.byte	0xff
	.byte	0xff
	.byte	0x1
	.uleb128 .LLSDACSE1414-.LLSDACSB1414
.LLSDACSB1414:
	.uleb128 .LEHB21-.LFB1414
	.uleb128 .LEHE21-.LEHB21
	.uleb128 .L598-.LFB1414
	.uleb128 0
	.uleb128 .LEHB22-.LFB1414
	.uleb128 .LEHE22-.LEHB22
	.uleb128 0
	.uleb128 0
.LLSDACSE1414:
	.text
	.size	_ZN8opendnp310CommandSetC2ESt16initializer_listINS_7IndexedINS_19AnalogOutputFloat32EEEE, .-_ZN8opendnp310CommandSetC2ESt16initializer_listINS_7IndexedINS_19AnalogOutputFloat32EEEE
	.global	_ZN8opendnp310CommandSetC1ESt16initializer_listINS_7IndexedINS_19AnalogOutputFloat32EEEE
	.set	_ZN8opendnp310CommandSetC1ESt16initializer_listINS_7IndexedINS_19AnalogOutputFloat32EEEE,_ZN8opendnp310CommandSetC2ESt16initializer_listINS_7IndexedINS_19AnalogOutputFloat32EEEE
	.align	2
	.p2align 4,,11
	.global	_ZN8opendnp310CommandSet15StartHeaderCROBEv
	.type	_ZN8opendnp310CommandSet15StartHeaderCROBEv, %function
_ZN8opendnp310CommandSet15StartHeaderCROBEv:
.LFB1419:
	.cfi_startproc
	stp	x29, x30, [sp, -48]!
	.cfi_def_cfa_offset 48
	.cfi_offset 29, -48
	.cfi_offset 30, -40
	adrp	x1, :got:__stack_chk_guard
	mov	x29, sp
	ldr	x1, [x1, #:got_lo12:__stack_chk_guard]
	stp	x19, x20, [sp, 16]
	.cfi_offset 19, -32
	.cfi_offset 20, -24
	mov	x20, x0
	ldr	x2, [x1]
	str	x2, [sp, 40]
	mov	x2, 0
	mov	x0, 72
	bl	_Znwm
	mov	x19, x0
	adrp	x1, :got:_ZTVN8opendnp318TypedCommandHeaderINS_23ControlRelayOutputBlockEEE
	adrp	x3, :got:_ZN8opendnp311Group12Var110ReadTargetERN7openpal6RSliceERNS_23ControlRelayOutputBlockE
	adrp	x2, :got:_ZN8opendnp311Group12Var111WriteTargetERKNS_23ControlRelayOutputBlockERN7openpal6WSliceE
	mov	w5, 11
	ldr	x1, [x1, #:got_lo12:_ZTVN8opendnp318TypedCommandHeaderINS_23ControlRelayOutputBlockEEE]
	mov	w4, 268
	ldr	x2, [x2, #:got_lo12:_ZN8opendnp311Group12Var111WriteTargetERKNS_23ControlRelayOutputBlockERN7openpal6WSliceE]
	add	x6, x1, 16
	ldr	x3, [x3, #:got_lo12:_ZN8opendnp311Group12Var110ReadTargetERN7openpal6RSliceERNS_23ControlRelayOutputBlockE]
	add	x1, x1, 168
	stp	x6, x1, [x0]
	stp	x3, x2, [x0, 24]
	ldp	x1, x2, [x20, 8]
	str	w5, [x0, 16]
	strh	w4, [x0, 40]
	stp	xzr, xzr, [x0, 48]!
	str	xzr, [x0, 16]
	str	x19, [sp, 32]
	cmp	x1, x2
	beq	.L612
	str	x19, [x1], 8
	str	x1, [x20, 8]
.L613:
	adrp	x1, :got:__stack_chk_guard
	add	x0, x19, 8
	ldr	x1, [x1, #:got_lo12:__stack_chk_guard]
	ldr	x3, [sp, 40]
	ldr	x2, [x1]
	subs	x3, x3, x2
	mov	x2, 0
	bne	.L616
	ldp	x19, x20, [sp, 16]
	ldp	x29, x30, [sp], 48
	.cfi_remember_state
	.cfi_restore 30
	.cfi_restore 29
	.cfi_restore 19
	.cfi_restore 20
	.cfi_def_cfa_offset 0
	ret
	.p2align 2,,3
.L612:
	.cfi_restore_state
	mov	x0, x20
	add	x2, sp, 32
	bl	_ZNSt6vectorIPN8opendnp314ICommandHeaderESaIS2_EE17_M_realloc_insertIJS2_EEEvN9__gnu_cxx17__normal_iteratorIPS2_S4_EEDpOT_
	b	.L613
.L616:
	bl	__stack_chk_fail
	.cfi_endproc
.LFE1419:
	.size	_ZN8opendnp310CommandSet15StartHeaderCROBEv, .-_ZN8opendnp310CommandSet15StartHeaderCROBEv
	.align	2
	.p2align 4,,11
	.global	_ZN8opendnp310CommandSetC2ESt16initializer_listINS_7IndexedINS_23ControlRelayOutputBlockEEEE
	.type	_ZN8opendnp310CommandSetC2ESt16initializer_listINS_7IndexedINS_23ControlRelayOutputBlockEEEE, %function
_ZN8opendnp310CommandSetC2ESt16initializer_listINS_7IndexedINS_23ControlRelayOutputBlockEEEE:
.LFB1405:
	.cfi_startproc
	.cfi_personality 0x9b,DW.ref.__gxx_personality_v0
	.cfi_lsda 0x1b,.LLSDA1405
	stp	xzr, xzr, [x0]
	str	xzr, [x0, 16]
	cbnz	x2, .L634
	ret
	.p2align 2,,3
.L634:
	stp	x29, x30, [sp, -64]!
	.cfi_def_cfa_offset 64
	.cfi_offset 29, -64
	.cfi_offset 30, -56
	mov	x29, sp
	stp	x19, x20, [sp, 16]
	.cfi_offset 19, -48
	.cfi_offset 20, -40
	mov	x19, x1
	mov	x20, x2
	stp	x21, x22, [sp, 32]
	.cfi_offset 21, -32
	.cfi_offset 22, -24
	mov	x22, x0
	str	x23, [sp, 48]
	.cfi_offset 23, -16
.LEHB23:
	bl	_ZN8opendnp310CommandSet15StartHeaderCROBEv
	add	x20, x20, x20, lsl 2
	mov	x21, x0
	add	x20, x19, x20, lsl 2
	cmp	x20, x19
	beq	.L617
	.p2align 3,,7
.L619:
	ldr	x3, [x21]
	mov	x1, x19
	ldrh	w2, [x19, 16]
	mov	x0, x21
	ldr	x3, [x3]
	blr	x3
.LEHE23:
	add	x19, x19, 20
	cmp	x20, x19
	bne	.L619
.L617:
	ldp	x19, x20, [sp, 16]
	ldp	x21, x22, [sp, 32]
	ldr	x23, [sp, 48]
	ldp	x29, x30, [sp], 64
	.cfi_remember_state
	.cfi_restore 30
	.cfi_restore 29
	.cfi_restore 23
	.cfi_restore 21
	.cfi_restore 22
	.cfi_restore 19
	.cfi_restore 20
	.cfi_def_cfa_offset 0
	ret
.L622:
	.cfi_restore_state
	ldr	x2, [x22]
	mov	x19, x0
	ldr	x1, [x22, 16]
	sub	x1, x1, x2
	cbz	x2, .L621
	mov	x0, x2
	bl	_ZdlPvm
.L621:
	mov	x0, x19
.LEHB24:
	bl	_Unwind_Resume
.LEHE24:
	.cfi_endproc
.LFE1405:
	.section	.gcc_except_table
.LLSDA1405:
	.byte	0xff
	.byte	0xff
	.byte	0x1
	.uleb128 .LLSDACSE1405-.LLSDACSB1405
.LLSDACSB1405:
	.uleb128 .LEHB23-.LFB1405
	.uleb128 .LEHE23-.LEHB23
	.uleb128 .L622-.LFB1405
	.uleb128 0
	.uleb128 .LEHB24-.LFB1405
	.uleb128 .LEHE24-.LEHB24
	.uleb128 0
	.uleb128 0
.LLSDACSE1405:
	.text
	.size	_ZN8opendnp310CommandSetC2ESt16initializer_listINS_7IndexedINS_23ControlRelayOutputBlockEEEE, .-_ZN8opendnp310CommandSetC2ESt16initializer_listINS_7IndexedINS_23ControlRelayOutputBlockEEEE
	.global	_ZN8opendnp310CommandSetC1ESt16initializer_listINS_7IndexedINS_23ControlRelayOutputBlockEEEE
	.set	_ZN8opendnp310CommandSetC1ESt16initializer_listINS_7IndexedINS_23ControlRelayOutputBlockEEEE,_ZN8opendnp310CommandSetC2ESt16initializer_listINS_7IndexedINS_23ControlRelayOutputBlockEEEE
	.section	.text._ZNSt6vectorIN8opendnp318TypedCommandHeaderINS0_20AnalogOutputDouble64EE6RecordESaIS4_EE17_M_realloc_insertIJS4_EEEvN9__gnu_cxx17__normal_iteratorIPS4_S6_EEDpOT_,"axG",@progbits,_ZNSt6vectorIN8opendnp318TypedCommandHeaderINS0_20AnalogOutputDouble64EE6RecordESaIS4_EE17_M_realloc_insertIJS4_EEEvN9__gnu_cxx17__normal_iteratorIPS4_S6_EEDpOT_,comdat
	.align	2
	.p2align 4,,11
	.weak	_ZNSt6vectorIN8opendnp318TypedCommandHeaderINS0_20AnalogOutputDouble64EE6RecordESaIS4_EE17_M_realloc_insertIJS4_EEEvN9__gnu_cxx17__normal_iteratorIPS4_S6_EEDpOT_
	.type	_ZNSt6vectorIN8opendnp318TypedCommandHeaderINS0_20AnalogOutputDouble64EE6RecordESaIS4_EE17_M_realloc_insertIJS4_EEEvN9__gnu_cxx17__normal_iteratorIPS4_S6_EEDpOT_, %function
_ZNSt6vectorIN8opendnp318TypedCommandHeaderINS0_20AnalogOutputDouble64EE6RecordESaIS4_EE17_M_realloc_insertIJS4_EEEvN9__gnu_cxx17__normal_iteratorIPS4_S6_EEDpOT_:
.LFB2174:
	.cfi_startproc
	stp	x29, x30, [sp, -96]!
	.cfi_def_cfa_offset 96
	.cfi_offset 29, -96
	.cfi_offset 30, -88
	mov	x3, -6148914691236517206
	movk	x3, 0xaaab, lsl 0
	mov	x29, sp
	stp	x21, x22, [sp, 32]
	.cfi_offset 21, -64
	.cfi_offset 22, -56
	mov	x22, x0
	stp	x23, x24, [sp, 48]
	.cfi_offset 23, -48
	.cfi_offset 24, -40
	ldp	x23, x21, [x0]
	stp	x19, x20, [sp, 16]
	stp	x25, x26, [sp, 64]
	.cfi_offset 19, -80
	.cfi_offset 20, -72
	.cfi_offset 25, -32
	.cfi_offset 26, -24
	mov	x26, x2
	mov	x2, 6148914691236517205
	str	x27, [sp, 80]
	.cfi_offset 27, -16
	movk	x2, 0x555, lsl 48
	sub	x0, x21, x23
	asr	x0, x0, 3
	mul	x0, x0, x3
	cmp	x0, x2
	beq	.L653
	cmp	x0, 0
	mov	x25, x1
	sub	x27, x1, x23
	csinc	x1, x0, xzr, ne
	adds	x0, x0, x1
	bcs	.L646
	cbnz	x0, .L640
	mov	x19, 24
	mov	x20, 0
	mov	x24, 0
.L645:
	add	x0, x24, x27
	ldp	x2, x3, [x26]
	ldr	x1, [x26, 16]
	stp	x2, x3, [x0]
	str	x1, [x0, 16]
	cmp	x25, x23
	beq	.L641
	mov	x3, x24
	mov	x2, x23
	.p2align 3,,7
.L642:
	ldp	x4, x5, [x2]
	stp	x4, x5, [x3]
	add	x2, x2, 24
	ldr	x4, [x2, -8]
	str	x4, [x3, 16]
	add	x3, x3, 24
	cmp	x2, x25
	bne	.L642
	sub	x19, x25, #24
	mov	x0, 43691
	sub	x19, x19, x23
	movk	x0, 0xaaaa, lsl 16
	movk	x0, 0xaaaa, lsl 32
	lsr	x19, x19, 3
	movk	x0, 0xaaa, lsl 48
	mul	x19, x19, x0
	and	x19, x19, 2305843009213693951
	add	x19, x19, 2
	add	x19, x19, x19, lsl 1
	add	x19, x24, x19, lsl 3
.L641:
	cmp	x25, x21
	beq	.L643
	sub	x21, x21, x25
	mov	x3, 43691
	sub	x21, x21, #24
	movk	x3, 0xaaaa, lsl 16
	movk	x3, 0xaaaa, lsl 32
	mov	x0, x19
	lsr	x2, x21, 3
	movk	x3, 0xaaa, lsl 48
	mov	x1, x25
	mul	x2, x2, x3
	and	x2, x2, 2305843009213693951
	add	x2, x2, 1
	add	x2, x2, x2, lsl 1
	lsl	x2, x2, 3
	add	x19, x19, x2
	bl	memcpy
.L643:
	cbz	x23, .L644
	ldr	x1, [x22, 16]
	mov	x0, x23
	sub	x1, x1, x23
	bl	_ZdlPvm
.L644:
	ldp	x25, x26, [sp, 64]
	ldr	x27, [sp, 80]
	stp	x24, x19, [x22]
	str	x20, [x22, 16]
	ldp	x19, x20, [sp, 16]
	ldp	x21, x22, [sp, 32]
	ldp	x23, x24, [sp, 48]
	ldp	x29, x30, [sp], 96
	.cfi_remember_state
	.cfi_restore 30
	.cfi_restore 29
	.cfi_restore 27
	.cfi_restore 25
	.cfi_restore 26
	.cfi_restore 23
	.cfi_restore 24
	.cfi_restore 21
	.cfi_restore 22
	.cfi_restore 19
	.cfi_restore 20
	.cfi_def_cfa_offset 0
	ret
	.p2align 2,,3
.L646:
	.cfi_restore_state
	mov	x20, 9223372036854775800
.L639:
	mov	x0, x20
	bl	_Znwm
	mov	x24, x0
	add	x20, x0, x20
	add	x19, x0, 24
	b	.L645
.L640:
	cmp	x0, x2
	csel	x0, x0, x2, ls
	add	x0, x0, x0, lsl 1
	lsl	x20, x0, 3
	b	.L639
.L653:
	adrp	x0, .LC0
	add	x0, x0, :lo12:.LC0
	bl	_ZSt20__throw_length_errorPKc
	.cfi_endproc
.LFE2174:
	.size	_ZNSt6vectorIN8opendnp318TypedCommandHeaderINS0_20AnalogOutputDouble64EE6RecordESaIS4_EE17_M_realloc_insertIJS4_EEEvN9__gnu_cxx17__normal_iteratorIPS4_S6_EEDpOT_, .-_ZNSt6vectorIN8opendnp318TypedCommandHeaderINS0_20AnalogOutputDouble64EE6RecordESaIS4_EE17_M_realloc_insertIJS4_EEEvN9__gnu_cxx17__normal_iteratorIPS4_S6_EEDpOT_
	.section	.text._ZN8opendnp318TypedCommandHeaderINS_20AnalogOutputDouble64EE3AddERKS1_t,"axG",@progbits,_ZN8opendnp318TypedCommandHeaderINS_20AnalogOutputDouble64EE3AddERKS1_t,comdat
	.align	2
	.p2align 4,,11
	.weak	_ZN8opendnp318TypedCommandHeaderINS_20AnalogOutputDouble64EE3AddERKS1_t
	.type	_ZN8opendnp318TypedCommandHeaderINS_20AnalogOutputDouble64EE3AddERKS1_t, %function
_ZN8opendnp318TypedCommandHeaderINS_20AnalogOutputDouble64EE3AddERKS1_t:
.LFB1859:
	.cfi_startproc
	stp	x29, x30, [sp, -96]!
	.cfi_def_cfa_offset 96
	.cfi_offset 29, -96
	.cfi_offset 30, -88
	adrp	x3, :got:__stack_chk_guard
	mov	w5, 32512
	mov	x29, sp
	ldr	x4, [x3, #:got_lo12:__stack_chk_guard]
	str	x19, [sp, 16]
	.cfi_offset 19, -80
	mov	x19, x0
	add	x0, x0, 48
	ldr	x6, [x4]
	str	x6, [sp, 88]
	mov	x6, 0
	strh	w5, [sp, 64]
	ldp	x4, x5, [x1]
	stp	x4, x5, [sp, 40]
	ldp	x3, x6, [x0, 8]
	strh	w2, [sp, 66]
	stp	x4, x5, [sp, 72]
	cmp	x3, x6
	beq	.L655
	ldp	x4, x5, [sp, 64]
	stp	x4, x5, [x3]
	add	x1, x3, 24
	ldr	x2, [sp, 80]
	str	x2, [x3, 16]
	str	x1, [x0, 8]
.L656:
	adrp	x1, :got:__stack_chk_guard
	add	x0, x19, 8
	ldr	x1, [x1, #:got_lo12:__stack_chk_guard]
	ldr	x3, [sp, 88]
	ldr	x2, [x1]
	subs	x3, x3, x2
	mov	x2, 0
	bne	.L659
	ldr	x19, [sp, 16]
	ldp	x29, x30, [sp], 96
	.cfi_remember_state
	.cfi_restore 30
	.cfi_restore 29
	.cfi_restore 19
	.cfi_def_cfa_offset 0
	ret
	.p2align 2,,3
.L655:
	.cfi_restore_state
	mov	x1, x3
	add	x2, sp, 64
	bl	_ZNSt6vectorIN8opendnp318TypedCommandHeaderINS0_20AnalogOutputDouble64EE6RecordESaIS4_EE17_M_realloc_insertIJS4_EEEvN9__gnu_cxx17__normal_iteratorIPS4_S6_EEDpOT_
	b	.L656
.L659:
	bl	__stack_chk_fail
	.cfi_endproc
.LFE1859:
	.size	_ZN8opendnp318TypedCommandHeaderINS_20AnalogOutputDouble64EE3AddERKS1_t, .-_ZN8opendnp318TypedCommandHeaderINS_20AnalogOutputDouble64EE3AddERKS1_t
	.align	2
	.p2align 4,,11
	.weak	_ZThn8_N8opendnp318TypedCommandHeaderINS_20AnalogOutputDouble64EE3AddERKS1_t
	.type	_ZThn8_N8opendnp318TypedCommandHeaderINS_20AnalogOutputDouble64EE3AddERKS1_t, %function
_ZThn8_N8opendnp318TypedCommandHeaderINS_20AnalogOutputDouble64EE3AddERKS1_t:
.LFB2529:
	.cfi_startproc
	stp	x29, x30, [sp, -96]!
	.cfi_def_cfa_offset 96
	.cfi_offset 29, -96
	.cfi_offset 30, -88
	adrp	x3, :got:__stack_chk_guard
	mov	w5, 32512
	mov	x29, sp
	ldr	x4, [x3, #:got_lo12:__stack_chk_guard]
	str	x19, [sp, 16]
	.cfi_offset 19, -80
	mov	x19, x0
	add	x0, x0, 40
	ldr	x6, [x4]
	str	x6, [sp, 88]
	mov	x6, 0
	strh	w5, [sp, 40]
	ldp	x4, x5, [x1]
	strh	w2, [sp, 42]
	ldp	x3, x6, [x0, 8]
	stp	x4, x5, [sp, 48]
	stp	x4, x5, [sp, 64]
	cmp	x3, x6
	beq	.L661
	ldp	x4, x5, [sp, 40]
	stp	x4, x5, [x3]
	add	x1, x3, 24
	ldr	x2, [sp, 56]
	str	x2, [x3, 16]
	str	x1, [x0, 8]
.L662:
	adrp	x0, :got:__stack_chk_guard
	ldr	x0, [x0, #:got_lo12:__stack_chk_guard]
	ldr	x2, [sp, 88]
	ldr	x1, [x0]
	subs	x2, x2, x1
	mov	x1, 0
	bne	.L665
	mov	x0, x19
	ldr	x19, [sp, 16]
	ldp	x29, x30, [sp], 96
	.cfi_remember_state
	.cfi_restore 30
	.cfi_restore 29
	.cfi_restore 19
	.cfi_def_cfa_offset 0
	ret
	.p2align 2,,3
.L661:
	.cfi_restore_state
	mov	x1, x3
	add	x2, sp, 40
	bl	_ZNSt6vectorIN8opendnp318TypedCommandHeaderINS0_20AnalogOutputDouble64EE6RecordESaIS4_EE17_M_realloc_insertIJS4_EEEvN9__gnu_cxx17__normal_iteratorIPS4_S6_EEDpOT_
	b	.L662
.L665:
	bl	__stack_chk_fail
	.cfi_endproc
.LFE2529:
	.size	_ZThn8_N8opendnp318TypedCommandHeaderINS_20AnalogOutputDouble64EE3AddERKS1_t, .-_ZThn8_N8opendnp318TypedCommandHeaderINS_20AnalogOutputDouble64EE3AddERKS1_t
	.section	.text._ZNSt6vectorIN8opendnp318TypedCommandHeaderINS0_19AnalogOutputFloat32EE6RecordESaIS4_EE17_M_realloc_insertIJS4_EEEvN9__gnu_cxx17__normal_iteratorIPS4_S6_EEDpOT_,"axG",@progbits,_ZNSt6vectorIN8opendnp318TypedCommandHeaderINS0_19AnalogOutputFloat32EE6RecordESaIS4_EE17_M_realloc_insertIJS4_EEEvN9__gnu_cxx17__normal_iteratorIPS4_S6_EEDpOT_,comdat
	.align	2
	.p2align 4,,11
	.weak	_ZNSt6vectorIN8opendnp318TypedCommandHeaderINS0_19AnalogOutputFloat32EE6RecordESaIS4_EE17_M_realloc_insertIJS4_EEEvN9__gnu_cxx17__normal_iteratorIPS4_S6_EEDpOT_
	.type	_ZNSt6vectorIN8opendnp318TypedCommandHeaderINS0_19AnalogOutputFloat32EE6RecordESaIS4_EE17_M_realloc_insertIJS4_EEEvN9__gnu_cxx17__normal_iteratorIPS4_S6_EEDpOT_, %function
_ZNSt6vectorIN8opendnp318TypedCommandHeaderINS0_19AnalogOutputFloat32EE6RecordESaIS4_EE17_M_realloc_insertIJS4_EEEvN9__gnu_cxx17__normal_iteratorIPS4_S6_EEDpOT_:
.LFB2187:
	.cfi_startproc
	stp	x29, x30, [sp, -96]!
	.cfi_def_cfa_offset 96
	.cfi_offset 29, -96
	.cfi_offset 30, -88
	mov	x3, -6148914691236517206
	movk	x3, 0xaaab, lsl 0
	mov	x29, sp
	stp	x21, x22, [sp, 32]
	.cfi_offset 21, -64
	.cfi_offset 22, -56
	mov	x22, x0
	stp	x23, x24, [sp, 48]
	.cfi_offset 23, -48
	.cfi_offset 24, -40
	ldp	x24, x21, [x0]
	stp	x19, x20, [sp, 16]
	stp	x25, x26, [sp, 64]
	.cfi_offset 19, -80
	.cfi_offset 20, -72
	.cfi_offset 25, -32
	.cfi_offset 26, -24
	mov	x26, x2
	mov	x2, -6148914691236517206
	str	x27, [sp, 80]
	.cfi_offset 27, -16
	movk	x2, 0xaaa, lsl 48
	sub	x0, x21, x24
	asr	x0, x0, 2
	mul	x0, x0, x3
	cmp	x0, x2
	beq	.L684
	cmp	x0, 0
	mov	x25, x1
	sub	x27, x1, x24
	csinc	x1, x0, xzr, ne
	adds	x0, x0, x1
	bcs	.L677
	cbnz	x0, .L671
	mov	x19, 12
	mov	x20, 0
	mov	x23, 0
.L676:
	add	x0, x23, x27
	ldr	w1, [x26, 8]
	ldr	x2, [x26]
	str	x2, [x23, x27]
	str	w1, [x0, 8]
	cmp	x25, x24
	beq	.L672
	mov	x3, x23
	mov	x2, x24
	.p2align 3,,7
.L673:
	ldr	x4, [x2]
	str	x4, [x3]
	ldr	w4, [x2, 8]
	add	x2, x2, 12
	str	w4, [x3, 8]
	add	x3, x3, 12
	cmp	x2, x25
	bne	.L673
	sub	x19, x25, #12
	mov	x0, 43691
	sub	x19, x19, x24
	movk	x0, 0xaaaa, lsl 16
	movk	x0, 0xaaaa, lsl 32
	lsr	x19, x19, 2
	movk	x0, 0x2aaa, lsl 48
	mul	x19, x19, x0
	and	x19, x19, 4611686018427387903
	add	x19, x19, 2
	add	x19, x19, x19, lsl 1
	add	x19, x23, x19, lsl 2
.L672:
	cmp	x25, x21
	beq	.L674
	sub	x21, x21, x25
	mov	x3, 43691
	sub	x21, x21, #12
	movk	x3, 0xaaaa, lsl 16
	movk	x3, 0xaaaa, lsl 32
	mov	x0, x19
	lsr	x2, x21, 2
	movk	x3, 0x2aaa, lsl 48
	mov	x1, x25
	mul	x2, x2, x3
	and	x2, x2, 4611686018427387903
	add	x2, x2, 1
	add	x2, x2, x2, lsl 1
	lsl	x2, x2, 2
	add	x19, x19, x2
	bl	memcpy
.L674:
	cbz	x24, .L675
	ldr	x1, [x22, 16]
	mov	x0, x24
	sub	x1, x1, x24
	bl	_ZdlPvm
.L675:
	ldp	x25, x26, [sp, 64]
	ldr	x27, [sp, 80]
	stp	x23, x19, [x22]
	str	x20, [x22, 16]
	ldp	x19, x20, [sp, 16]
	ldp	x21, x22, [sp, 32]
	ldp	x23, x24, [sp, 48]
	ldp	x29, x30, [sp], 96
	.cfi_remember_state
	.cfi_restore 30
	.cfi_restore 29
	.cfi_restore 27
	.cfi_restore 25
	.cfi_restore 26
	.cfi_restore 23
	.cfi_restore 24
	.cfi_restore 21
	.cfi_restore 22
	.cfi_restore 19
	.cfi_restore 20
	.cfi_def_cfa_offset 0
	ret
	.p2align 2,,3
.L677:
	.cfi_restore_state
	mov	x20, 9223372036854775800
.L670:
	mov	x0, x20
	bl	_Znwm
	mov	x23, x0
	add	x20, x0, x20
	add	x19, x0, 12
	b	.L676
.L671:
	cmp	x0, x2
	csel	x0, x0, x2, ls
	add	x0, x0, x0, lsl 1
	lsl	x20, x0, 2
	b	.L670
.L684:
	adrp	x0, .LC0
	add	x0, x0, :lo12:.LC0
	bl	_ZSt20__throw_length_errorPKc
	.cfi_endproc
.LFE2187:
	.size	_ZNSt6vectorIN8opendnp318TypedCommandHeaderINS0_19AnalogOutputFloat32EE6RecordESaIS4_EE17_M_realloc_insertIJS4_EEEvN9__gnu_cxx17__normal_iteratorIPS4_S6_EEDpOT_, .-_ZNSt6vectorIN8opendnp318TypedCommandHeaderINS0_19AnalogOutputFloat32EE6RecordESaIS4_EE17_M_realloc_insertIJS4_EEEvN9__gnu_cxx17__normal_iteratorIPS4_S6_EEDpOT_
	.section	.text._ZN8opendnp318TypedCommandHeaderINS_19AnalogOutputFloat32EE3AddERKS1_t,"axG",@progbits,_ZN8opendnp318TypedCommandHeaderINS_19AnalogOutputFloat32EE3AddERKS1_t,comdat
	.align	2
	.p2align 4,,11
	.weak	_ZN8opendnp318TypedCommandHeaderINS_19AnalogOutputFloat32EE3AddERKS1_t
	.type	_ZN8opendnp318TypedCommandHeaderINS_19AnalogOutputFloat32EE3AddERKS1_t, %function
_ZN8opendnp318TypedCommandHeaderINS_19AnalogOutputFloat32EE3AddERKS1_t:
.LFB1871:
	.cfi_startproc
	stp	x29, x30, [sp, -64]!
	.cfi_def_cfa_offset 64
	.cfi_offset 29, -64
	.cfi_offset 30, -56
	adrp	x4, :got:__stack_chk_guard
	mov	w5, 32512
	mov	x29, sp
	ldr	x4, [x4, #:got_lo12:__stack_chk_guard]
	ldr	s0, [x1]
	ldrb	w1, [x1, 4]
	str	x19, [sp, 16]
	.cfi_offset 19, -48
	mov	x19, x0
	add	x0, x0, 48
	ldr	x6, [x4]
	str	x6, [sp, 56]
	mov	x6, 0
	strh	w5, [sp, 40]
	strh	w2, [sp, 42]
	ldp	x3, x4, [x0, 8]
	str	s0, [sp, 44]
	strb	w1, [sp, 48]
	cmp	x3, x4
	beq	.L686
	ldr	x1, [sp, 40]
	str	x1, [x3]
	add	x1, x3, 12
	ldr	w2, [sp, 48]
	str	w2, [x3, 8]
	str	x1, [x0, 8]
.L687:
	adrp	x1, :got:__stack_chk_guard
	add	x0, x19, 8
	ldr	x1, [x1, #:got_lo12:__stack_chk_guard]
	ldr	x3, [sp, 56]
	ldr	x2, [x1]
	subs	x3, x3, x2
	mov	x2, 0
	bne	.L690
	ldr	x19, [sp, 16]
	ldp	x29, x30, [sp], 64
	.cfi_remember_state
	.cfi_restore 30
	.cfi_restore 29
	.cfi_restore 19
	.cfi_def_cfa_offset 0
	ret
	.p2align 2,,3
.L686:
	.cfi_restore_state
	mov	x1, x3
	add	x2, sp, 40
	bl	_ZNSt6vectorIN8opendnp318TypedCommandHeaderINS0_19AnalogOutputFloat32EE6RecordESaIS4_EE17_M_realloc_insertIJS4_EEEvN9__gnu_cxx17__normal_iteratorIPS4_S6_EEDpOT_
	b	.L687
.L690:
	bl	__stack_chk_fail
	.cfi_endproc
.LFE1871:
	.size	_ZN8opendnp318TypedCommandHeaderINS_19AnalogOutputFloat32EE3AddERKS1_t, .-_ZN8opendnp318TypedCommandHeaderINS_19AnalogOutputFloat32EE3AddERKS1_t
	.align	2
	.p2align 4,,11
	.weak	_ZThn8_N8opendnp318TypedCommandHeaderINS_19AnalogOutputFloat32EE3AddERKS1_t
	.type	_ZThn8_N8opendnp318TypedCommandHeaderINS_19AnalogOutputFloat32EE3AddERKS1_t, %function
_ZThn8_N8opendnp318TypedCommandHeaderINS_19AnalogOutputFloat32EE3AddERKS1_t:
.LFB2525:
	.cfi_startproc
	stp	x29, x30, [sp, -64]!
	.cfi_def_cfa_offset 64
	.cfi_offset 29, -64
	.cfi_offset 30, -56
	adrp	x4, :got:__stack_chk_guard
	mov	w5, 32512
	mov	x29, sp
	ldr	x4, [x4, #:got_lo12:__stack_chk_guard]
	ldr	s0, [x1]
	ldrb	w1, [x1, 4]
	str	x19, [sp, 16]
	.cfi_offset 19, -48
	mov	x19, x0
	add	x0, x0, 40
	ldr	x6, [x4]
	str	x6, [sp, 56]
	mov	x6, 0
	strh	w5, [sp, 40]
	strh	w2, [sp, 42]
	ldp	x3, x4, [x0, 8]
	str	s0, [sp, 44]
	strb	w1, [sp, 48]
	cmp	x3, x4
	beq	.L692
	ldr	x1, [sp, 40]
	str	x1, [x3]
	add	x1, x3, 12
	ldr	w2, [sp, 48]
	str	w2, [x3, 8]
	str	x1, [x0, 8]
.L693:
	adrp	x0, :got:__stack_chk_guard
	ldr	x0, [x0, #:got_lo12:__stack_chk_guard]
	ldr	x2, [sp, 56]
	ldr	x1, [x0]
	subs	x2, x2, x1
	mov	x1, 0
	bne	.L696
	mov	x0, x19
	ldr	x19, [sp, 16]
	ldp	x29, x30, [sp], 64
	.cfi_remember_state
	.cfi_restore 30
	.cfi_restore 29
	.cfi_restore 19
	.cfi_def_cfa_offset 0
	ret
	.p2align 2,,3
.L692:
	.cfi_restore_state
	mov	x1, x3
	add	x2, sp, 40
	bl	_ZNSt6vectorIN8opendnp318TypedCommandHeaderINS0_19AnalogOutputFloat32EE6RecordESaIS4_EE17_M_realloc_insertIJS4_EEEvN9__gnu_cxx17__normal_iteratorIPS4_S6_EEDpOT_
	b	.L693
.L696:
	bl	__stack_chk_fail
	.cfi_endproc
.LFE2525:
	.size	_ZThn8_N8opendnp318TypedCommandHeaderINS_19AnalogOutputFloat32EE3AddERKS1_t, .-_ZThn8_N8opendnp318TypedCommandHeaderINS_19AnalogOutputFloat32EE3AddERKS1_t
	.section	.text._ZNSt6vectorIN8opendnp318TypedCommandHeaderINS0_17AnalogOutputInt16EE6RecordESaIS4_EE17_M_realloc_insertIJS4_EEEvN9__gnu_cxx17__normal_iteratorIPS4_S6_EEDpOT_,"axG",@progbits,_ZNSt6vectorIN8opendnp318TypedCommandHeaderINS0_17AnalogOutputInt16EE6RecordESaIS4_EE17_M_realloc_insertIJS4_EEEvN9__gnu_cxx17__normal_iteratorIPS4_S6_EEDpOT_,comdat
	.align	2
	.p2align 4,,11
	.weak	_ZNSt6vectorIN8opendnp318TypedCommandHeaderINS0_17AnalogOutputInt16EE6RecordESaIS4_EE17_M_realloc_insertIJS4_EEEvN9__gnu_cxx17__normal_iteratorIPS4_S6_EEDpOT_
	.type	_ZNSt6vectorIN8opendnp318TypedCommandHeaderINS0_17AnalogOutputInt16EE6RecordESaIS4_EE17_M_realloc_insertIJS4_EEEvN9__gnu_cxx17__normal_iteratorIPS4_S6_EEDpOT_, %function
_ZNSt6vectorIN8opendnp318TypedCommandHeaderINS0_17AnalogOutputInt16EE6RecordESaIS4_EE17_M_realloc_insertIJS4_EEEvN9__gnu_cxx17__normal_iteratorIPS4_S6_EEDpOT_:
.LFB2200:
	.cfi_startproc
	stp	x29, x30, [sp, -96]!
	.cfi_def_cfa_offset 96
	.cfi_offset 29, -96
	.cfi_offset 30, -88
	mov	x29, sp
	stp	x21, x22, [sp, 32]
	stp	x23, x24, [sp, 48]
	.cfi_offset 21, -64
	.cfi_offset 22, -56
	.cfi_offset 23, -48
	.cfi_offset 24, -40
	ldp	x22, x24, [x0]
	stp	x19, x20, [sp, 16]
	.cfi_offset 19, -80
	.cfi_offset 20, -72
	mov	x19, x1
	stp	x25, x26, [sp, 64]
	str	x27, [sp, 80]
	.cfi_offset 25, -32
	.cfi_offset 26, -24
	.cfi_offset 27, -16
	mov	x27, x2
	sub	x1, x24, x22
	mov	x2, 1152921504606846975
	asr	x1, x1, 3
	cmp	x1, x2
	beq	.L715
	cmp	x1, 0
	mov	x21, x0
	csinc	x0, x1, xzr, ne
	sub	x26, x19, x22
	adds	x1, x1, x0
	bcs	.L708
	cbnz	x1, .L702
	mov	x25, 8
	mov	x20, 0
	mov	x23, 0
.L707:
	ldr	x0, [x27]
	str	x0, [x23, x26]
	cmp	x19, x22
	beq	.L703
	mov	x4, x23
	mov	x3, x22
	.p2align 3,,7
.L704:
	ldr	x5, [x3], 8
	str	x5, [x4], 8
	cmp	x3, x19
	bne	.L704
	add	x26, x26, 8
	add	x25, x23, x26
.L703:
	cmp	x19, x24
	beq	.L705
	sub	x2, x24, x19
	mov	x0, x25
	mov	x1, x19
	add	x25, x25, x2
	bl	memcpy
.L705:
	cbz	x22, .L706
	ldr	x1, [x21, 16]
	mov	x0, x22
	sub	x1, x1, x22
	bl	_ZdlPvm
.L706:
	ldr	x27, [sp, 80]
	stp	x23, x25, [x21]
	str	x20, [x21, 16]
	ldp	x19, x20, [sp, 16]
	ldp	x21, x22, [sp, 32]
	ldp	x23, x24, [sp, 48]
	ldp	x25, x26, [sp, 64]
	ldp	x29, x30, [sp], 96
	.cfi_remember_state
	.cfi_restore 30
	.cfi_restore 29
	.cfi_restore 27
	.cfi_restore 25
	.cfi_restore 26
	.cfi_restore 23
	.cfi_restore 24
	.cfi_restore 21
	.cfi_restore 22
	.cfi_restore 19
	.cfi_restore 20
	.cfi_def_cfa_offset 0
	ret
	.p2align 2,,3
.L708:
	.cfi_restore_state
	mov	x20, 9223372036854775800
.L701:
	mov	x0, x20
	bl	_Znwm
	mov	x23, x0
	add	x20, x0, x20
	add	x25, x0, 8
	b	.L707
.L702:
	cmp	x1, x2
	csel	x1, x1, x2, ls
	lsl	x20, x1, 3
	b	.L701
.L715:
	adrp	x0, .LC0
	add	x0, x0, :lo12:.LC0
	bl	_ZSt20__throw_length_errorPKc
	.cfi_endproc
.LFE2200:
	.size	_ZNSt6vectorIN8opendnp318TypedCommandHeaderINS0_17AnalogOutputInt16EE6RecordESaIS4_EE17_M_realloc_insertIJS4_EEEvN9__gnu_cxx17__normal_iteratorIPS4_S6_EEDpOT_, .-_ZNSt6vectorIN8opendnp318TypedCommandHeaderINS0_17AnalogOutputInt16EE6RecordESaIS4_EE17_M_realloc_insertIJS4_EEEvN9__gnu_cxx17__normal_iteratorIPS4_S6_EEDpOT_
	.section	.text._ZN8opendnp318TypedCommandHeaderINS_17AnalogOutputInt16EE3AddERKS1_t,"axG",@progbits,_ZN8opendnp318TypedCommandHeaderINS_17AnalogOutputInt16EE3AddERKS1_t,comdat
	.align	2
	.p2align 4,,11
	.weak	_ZN8opendnp318TypedCommandHeaderINS_17AnalogOutputInt16EE3AddERKS1_t
	.type	_ZN8opendnp318TypedCommandHeaderINS_17AnalogOutputInt16EE3AddERKS1_t, %function
_ZN8opendnp318TypedCommandHeaderINS_17AnalogOutputInt16EE3AddERKS1_t:
.LFB1883:
	.cfi_startproc
	stp	x29, x30, [sp, -48]!
	.cfi_def_cfa_offset 48
	.cfi_offset 29, -48
	.cfi_offset 30, -40
	adrp	x4, :got:__stack_chk_guard
	mov	x3, x1
	mov	x29, sp
	ldr	x4, [x4, #:got_lo12:__stack_chk_guard]
	str	x19, [sp, 16]
	.cfi_offset 19, -32
	mov	x19, x0
	add	x0, x0, 48
	ldr	x6, [x4]
	str	x6, [sp, 40]
	mov	x6, 0
	mov	x5, 32512
	str	x5, [sp, 32]
	ldp	x1, x4, [x0, 8]
	strh	w2, [sp, 34]
	ldrsh	w5, [x3]
	ldrb	w3, [x3, 2]
	strh	w5, [sp, 36]
	strb	w3, [sp, 38]
	cmp	x1, x4
	beq	.L717
	ldr	x2, [sp, 32]
	str	x2, [x1], 8
	str	x1, [x0, 8]
.L718:
	adrp	x1, :got:__stack_chk_guard
	add	x0, x19, 8
	ldr	x1, [x1, #:got_lo12:__stack_chk_guard]
	ldr	x3, [sp, 40]
	ldr	x2, [x1]
	subs	x3, x3, x2
	mov	x2, 0
	bne	.L721
	ldr	x19, [sp, 16]
	ldp	x29, x30, [sp], 48
	.cfi_remember_state
	.cfi_restore 30
	.cfi_restore 29
	.cfi_restore 19
	.cfi_def_cfa_offset 0
	ret
	.p2align 2,,3
.L717:
	.cfi_restore_state
	add	x2, sp, 32
	bl	_ZNSt6vectorIN8opendnp318TypedCommandHeaderINS0_17AnalogOutputInt16EE6RecordESaIS4_EE17_M_realloc_insertIJS4_EEEvN9__gnu_cxx17__normal_iteratorIPS4_S6_EEDpOT_
	b	.L718
.L721:
	bl	__stack_chk_fail
	.cfi_endproc
.LFE1883:
	.size	_ZN8opendnp318TypedCommandHeaderINS_17AnalogOutputInt16EE3AddERKS1_t, .-_ZN8opendnp318TypedCommandHeaderINS_17AnalogOutputInt16EE3AddERKS1_t
	.align	2
	.p2align 4,,11
	.weak	_ZThn8_N8opendnp318TypedCommandHeaderINS_17AnalogOutputInt16EE3AddERKS1_t
	.type	_ZThn8_N8opendnp318TypedCommandHeaderINS_17AnalogOutputInt16EE3AddERKS1_t, %function
_ZThn8_N8opendnp318TypedCommandHeaderINS_17AnalogOutputInt16EE3AddERKS1_t:
.LFB2526:
	.cfi_startproc
	stp	x29, x30, [sp, -48]!
	.cfi_def_cfa_offset 48
	.cfi_offset 29, -48
	.cfi_offset 30, -40
	adrp	x4, :got:__stack_chk_guard
	mov	x3, x1
	mov	x29, sp
	ldr	x4, [x4, #:got_lo12:__stack_chk_guard]
	str	x19, [sp, 16]
	.cfi_offset 19, -32
	mov	x19, x0
	add	x0, x0, 40
	ldr	x6, [x4]
	str	x6, [sp, 40]
	mov	x6, 0
	mov	x5, 32512
	str	x5, [sp, 32]
	ldp	x1, x4, [x0, 8]
	strh	w2, [sp, 34]
	ldrsh	w5, [x3]
	ldrb	w3, [x3, 2]
	strh	w5, [sp, 36]
	strb	w3, [sp, 38]
	cmp	x1, x4
	beq	.L723
	ldr	x2, [sp, 32]
	str	x2, [x1], 8
	str	x1, [x0, 8]
.L724:
	adrp	x0, :got:__stack_chk_guard
	ldr	x0, [x0, #:got_lo12:__stack_chk_guard]
	ldr	x2, [sp, 40]
	ldr	x1, [x0]
	subs	x2, x2, x1
	mov	x1, 0
	bne	.L727
	mov	x0, x19
	ldr	x19, [sp, 16]
	ldp	x29, x30, [sp], 48
	.cfi_remember_state
	.cfi_restore 30
	.cfi_restore 29
	.cfi_restore 19
	.cfi_def_cfa_offset 0
	ret
	.p2align 2,,3
.L723:
	.cfi_restore_state
	add	x2, sp, 32
	bl	_ZNSt6vectorIN8opendnp318TypedCommandHeaderINS0_17AnalogOutputInt16EE6RecordESaIS4_EE17_M_realloc_insertIJS4_EEEvN9__gnu_cxx17__normal_iteratorIPS4_S6_EEDpOT_
	b	.L724
.L727:
	bl	__stack_chk_fail
	.cfi_endproc
.LFE2526:
	.size	_ZThn8_N8opendnp318TypedCommandHeaderINS_17AnalogOutputInt16EE3AddERKS1_t, .-_ZThn8_N8opendnp318TypedCommandHeaderINS_17AnalogOutputInt16EE3AddERKS1_t
	.section	.text._ZNSt6vectorIN8opendnp318TypedCommandHeaderINS0_17AnalogOutputInt32EE6RecordESaIS4_EE17_M_realloc_insertIJS4_EEEvN9__gnu_cxx17__normal_iteratorIPS4_S6_EEDpOT_,"axG",@progbits,_ZNSt6vectorIN8opendnp318TypedCommandHeaderINS0_17AnalogOutputInt32EE6RecordESaIS4_EE17_M_realloc_insertIJS4_EEEvN9__gnu_cxx17__normal_iteratorIPS4_S6_EEDpOT_,comdat
	.align	2
	.p2align 4,,11
	.weak	_ZNSt6vectorIN8opendnp318TypedCommandHeaderINS0_17AnalogOutputInt32EE6RecordESaIS4_EE17_M_realloc_insertIJS4_EEEvN9__gnu_cxx17__normal_iteratorIPS4_S6_EEDpOT_
	.type	_ZNSt6vectorIN8opendnp318TypedCommandHeaderINS0_17AnalogOutputInt32EE6RecordESaIS4_EE17_M_realloc_insertIJS4_EEEvN9__gnu_cxx17__normal_iteratorIPS4_S6_EEDpOT_, %function
_ZNSt6vectorIN8opendnp318TypedCommandHeaderINS0_17AnalogOutputInt32EE6RecordESaIS4_EE17_M_realloc_insertIJS4_EEEvN9__gnu_cxx17__normal_iteratorIPS4_S6_EEDpOT_:
.LFB2213:
	.cfi_startproc
	stp	x29, x30, [sp, -96]!
	.cfi_def_cfa_offset 96
	.cfi_offset 29, -96
	.cfi_offset 30, -88
	mov	x3, -6148914691236517206
	movk	x3, 0xaaab, lsl 0
	mov	x29, sp
	stp	x21, x22, [sp, 32]
	.cfi_offset 21, -64
	.cfi_offset 22, -56
	mov	x22, x0
	stp	x23, x24, [sp, 48]
	.cfi_offset 23, -48
	.cfi_offset 24, -40
	ldp	x24, x21, [x0]
	stp	x19, x20, [sp, 16]
	stp	x25, x26, [sp, 64]
	.cfi_offset 19, -80
	.cfi_offset 20, -72
	.cfi_offset 25, -32
	.cfi_offset 26, -24
	mov	x26, x2
	mov	x2, -6148914691236517206
	str	x27, [sp, 80]
	.cfi_offset 27, -16
	movk	x2, 0xaaa, lsl 48
	sub	x0, x21, x24
	asr	x0, x0, 2
	mul	x0, x0, x3
	cmp	x0, x2
	beq	.L746
	cmp	x0, 0
	mov	x25, x1
	sub	x27, x1, x24
	csinc	x1, x0, xzr, ne
	adds	x0, x0, x1
	bcs	.L739
	cbnz	x0, .L733
	mov	x19, 12
	mov	x20, 0
	mov	x23, 0
.L738:
	add	x0, x23, x27
	ldr	w1, [x26, 8]
	ldr	x2, [x26]
	str	x2, [x23, x27]
	str	w1, [x0, 8]
	cmp	x25, x24
	beq	.L734
	mov	x3, x23
	mov	x2, x24
	.p2align 3,,7
.L735:
	ldr	x4, [x2]
	str	x4, [x3]
	ldr	w4, [x2, 8]
	add	x2, x2, 12
	str	w4, [x3, 8]
	add	x3, x3, 12
	cmp	x2, x25
	bne	.L735
	sub	x19, x25, #12
	mov	x0, 43691
	sub	x19, x19, x24
	movk	x0, 0xaaaa, lsl 16
	movk	x0, 0xaaaa, lsl 32
	lsr	x19, x19, 2
	movk	x0, 0x2aaa, lsl 48
	mul	x19, x19, x0
	and	x19, x19, 4611686018427387903
	add	x19, x19, 2
	add	x19, x19, x19, lsl 1
	add	x19, x23, x19, lsl 2
.L734:
	cmp	x25, x21
	beq	.L736
	sub	x21, x21, x25
	mov	x3, 43691
	sub	x21, x21, #12
	movk	x3, 0xaaaa, lsl 16
	movk	x3, 0xaaaa, lsl 32
	mov	x0, x19
	lsr	x2, x21, 2
	movk	x3, 0x2aaa, lsl 48
	mov	x1, x25
	mul	x2, x2, x3
	and	x2, x2, 4611686018427387903
	add	x2, x2, 1
	add	x2, x2, x2, lsl 1
	lsl	x2, x2, 2
	add	x19, x19, x2
	bl	memcpy
.L736:
	cbz	x24, .L737
	ldr	x1, [x22, 16]
	mov	x0, x24
	sub	x1, x1, x24
	bl	_ZdlPvm
.L737:
	ldp	x25, x26, [sp, 64]
	ldr	x27, [sp, 80]
	stp	x23, x19, [x22]
	str	x20, [x22, 16]
	ldp	x19, x20, [sp, 16]
	ldp	x21, x22, [sp, 32]
	ldp	x23, x24, [sp, 48]
	ldp	x29, x30, [sp], 96
	.cfi_remember_state
	.cfi_restore 30
	.cfi_restore 29
	.cfi_restore 27
	.cfi_restore 25
	.cfi_restore 26
	.cfi_restore 23
	.cfi_restore 24
	.cfi_restore 21
	.cfi_restore 22
	.cfi_restore 19
	.cfi_restore 20
	.cfi_def_cfa_offset 0
	ret
	.p2align 2,,3
.L739:
	.cfi_restore_state
	mov	x20, 9223372036854775800
.L732:
	mov	x0, x20
	bl	_Znwm
	mov	x23, x0
	add	x20, x0, x20
	add	x19, x0, 12
	b	.L738
.L733:
	cmp	x0, x2
	csel	x0, x0, x2, ls
	add	x0, x0, x0, lsl 1
	lsl	x20, x0, 2
	b	.L732
.L746:
	adrp	x0, .LC0
	add	x0, x0, :lo12:.LC0
	bl	_ZSt20__throw_length_errorPKc
	.cfi_endproc
.LFE2213:
	.size	_ZNSt6vectorIN8opendnp318TypedCommandHeaderINS0_17AnalogOutputInt32EE6RecordESaIS4_EE17_M_realloc_insertIJS4_EEEvN9__gnu_cxx17__normal_iteratorIPS4_S6_EEDpOT_, .-_ZNSt6vectorIN8opendnp318TypedCommandHeaderINS0_17AnalogOutputInt32EE6RecordESaIS4_EE17_M_realloc_insertIJS4_EEEvN9__gnu_cxx17__normal_iteratorIPS4_S6_EEDpOT_
	.section	.text._ZN8opendnp318TypedCommandHeaderINS_17AnalogOutputInt32EE3AddERKS1_t,"axG",@progbits,_ZN8opendnp318TypedCommandHeaderINS_17AnalogOutputInt32EE3AddERKS1_t,comdat
	.align	2
	.p2align 4,,11
	.weak	_ZN8opendnp318TypedCommandHeaderINS_17AnalogOutputInt32EE3AddERKS1_t
	.type	_ZN8opendnp318TypedCommandHeaderINS_17AnalogOutputInt32EE3AddERKS1_t, %function
_ZN8opendnp318TypedCommandHeaderINS_17AnalogOutputInt32EE3AddERKS1_t:
.LFB1895:
	.cfi_startproc
	stp	x29, x30, [sp, -64]!
	.cfi_def_cfa_offset 64
	.cfi_offset 29, -64
	.cfi_offset 30, -56
	adrp	x3, :got:__stack_chk_guard
	mov	w5, 32512
	mov	x29, sp
	ldr	x4, [x3, #:got_lo12:__stack_chk_guard]
	str	x19, [sp, 16]
	.cfi_offset 19, -48
	mov	x19, x0
	add	x0, x0, 48
	ldr	x6, [x4]
	str	x6, [sp, 56]
	mov	x6, 0
	strh	w5, [sp, 40]
	ldrb	w5, [x1, 4]
	ldp	x3, x4, [x0, 8]
	strh	w2, [sp, 42]
	ldr	w1, [x1]
	str	w1, [sp, 44]
	strb	w5, [sp, 48]
	cmp	x3, x4
	beq	.L748
	ldr	x1, [sp, 40]
	str	x1, [x3]
	add	x1, x3, 12
	ldr	w2, [sp, 48]
	str	w2, [x3, 8]
	str	x1, [x0, 8]
.L749:
	adrp	x1, :got:__stack_chk_guard
	add	x0, x19, 8
	ldr	x1, [x1, #:got_lo12:__stack_chk_guard]
	ldr	x3, [sp, 56]
	ldr	x2, [x1]
	subs	x3, x3, x2
	mov	x2, 0
	bne	.L752
	ldr	x19, [sp, 16]
	ldp	x29, x30, [sp], 64
	.cfi_remember_state
	.cfi_restore 30
	.cfi_restore 29
	.cfi_restore 19
	.cfi_def_cfa_offset 0
	ret
	.p2align 2,,3
.L748:
	.cfi_restore_state
	mov	x1, x3
	add	x2, sp, 40
	bl	_ZNSt6vectorIN8opendnp318TypedCommandHeaderINS0_17AnalogOutputInt32EE6RecordESaIS4_EE17_M_realloc_insertIJS4_EEEvN9__gnu_cxx17__normal_iteratorIPS4_S6_EEDpOT_
	b	.L749
.L752:
	bl	__stack_chk_fail
	.cfi_endproc
.LFE1895:
	.size	_ZN8opendnp318TypedCommandHeaderINS_17AnalogOutputInt32EE3AddERKS1_t, .-_ZN8opendnp318TypedCommandHeaderINS_17AnalogOutputInt32EE3AddERKS1_t
	.align	2
	.p2align 4,,11
	.weak	_ZThn8_N8opendnp318TypedCommandHeaderINS_17AnalogOutputInt32EE3AddERKS1_t
	.type	_ZThn8_N8opendnp318TypedCommandHeaderINS_17AnalogOutputInt32EE3AddERKS1_t, %function
_ZThn8_N8opendnp318TypedCommandHeaderINS_17AnalogOutputInt32EE3AddERKS1_t:
.LFB2527:
	.cfi_startproc
	stp	x29, x30, [sp, -64]!
	.cfi_def_cfa_offset 64
	.cfi_offset 29, -64
	.cfi_offset 30, -56
	adrp	x3, :got:__stack_chk_guard
	mov	w5, 32512
	mov	x29, sp
	ldr	x4, [x3, #:got_lo12:__stack_chk_guard]
	str	x19, [sp, 16]
	.cfi_offset 19, -48
	mov	x19, x0
	add	x0, x0, 40
	ldr	x6, [x4]
	str	x6, [sp, 56]
	mov	x6, 0
	strh	w5, [sp, 40]
	ldrb	w5, [x1, 4]
	ldp	x3, x4, [x0, 8]
	strh	w2, [sp, 42]
	ldr	w1, [x1]
	str	w1, [sp, 44]
	strb	w5, [sp, 48]
	cmp	x3, x4
	beq	.L754
	ldr	x1, [sp, 40]
	str	x1, [x3]
	add	x1, x3, 12
	ldr	w2, [sp, 48]
	str	w2, [x3, 8]
	str	x1, [x0, 8]
.L755:
	adrp	x0, :got:__stack_chk_guard
	ldr	x0, [x0, #:got_lo12:__stack_chk_guard]
	ldr	x2, [sp, 56]
	ldr	x1, [x0]
	subs	x2, x2, x1
	mov	x1, 0
	bne	.L758
	mov	x0, x19
	ldr	x19, [sp, 16]
	ldp	x29, x30, [sp], 64
	.cfi_remember_state
	.cfi_restore 30
	.cfi_restore 29
	.cfi_restore 19
	.cfi_def_cfa_offset 0
	ret
	.p2align 2,,3
.L754:
	.cfi_restore_state
	mov	x1, x3
	add	x2, sp, 40
	bl	_ZNSt6vectorIN8opendnp318TypedCommandHeaderINS0_17AnalogOutputInt32EE6RecordESaIS4_EE17_M_realloc_insertIJS4_EEEvN9__gnu_cxx17__normal_iteratorIPS4_S6_EEDpOT_
	b	.L755
.L758:
	bl	__stack_chk_fail
	.cfi_endproc
.LFE2527:
	.size	_ZThn8_N8opendnp318TypedCommandHeaderINS_17AnalogOutputInt32EE3AddERKS1_t, .-_ZThn8_N8opendnp318TypedCommandHeaderINS_17AnalogOutputInt32EE3AddERKS1_t
	.section	.text._ZNSt6vectorIN8opendnp318TypedCommandHeaderINS0_23ControlRelayOutputBlockEE6RecordESaIS4_EE17_M_realloc_insertIJS4_EEEvN9__gnu_cxx17__normal_iteratorIPS4_S6_EEDpOT_,"axG",@progbits,_ZNSt6vectorIN8opendnp318TypedCommandHeaderINS0_23ControlRelayOutputBlockEE6RecordESaIS4_EE17_M_realloc_insertIJS4_EEEvN9__gnu_cxx17__normal_iteratorIPS4_S6_EEDpOT_,comdat
	.align	2
	.p2align 4,,11
	.weak	_ZNSt6vectorIN8opendnp318TypedCommandHeaderINS0_23ControlRelayOutputBlockEE6RecordESaIS4_EE17_M_realloc_insertIJS4_EEEvN9__gnu_cxx17__normal_iteratorIPS4_S6_EEDpOT_
	.type	_ZNSt6vectorIN8opendnp318TypedCommandHeaderINS0_23ControlRelayOutputBlockEE6RecordESaIS4_EE17_M_realloc_insertIJS4_EEEvN9__gnu_cxx17__normal_iteratorIPS4_S6_EEDpOT_, %function
_ZNSt6vectorIN8opendnp318TypedCommandHeaderINS0_23ControlRelayOutputBlockEE6RecordESaIS4_EE17_M_realloc_insertIJS4_EEEvN9__gnu_cxx17__normal_iteratorIPS4_S6_EEDpOT_:
.LFB2226:
	.cfi_startproc
	stp	x29, x30, [sp, -96]!
	.cfi_def_cfa_offset 96
	.cfi_offset 29, -96
	.cfi_offset 30, -88
	mov	x3, -3689348814741910324
	movk	x3, 0xcccd, lsl 0
	mov	x29, sp
	stp	x21, x22, [sp, 32]
	.cfi_offset 21, -64
	.cfi_offset 22, -56
	mov	x22, x0
	stp	x23, x24, [sp, 48]
	.cfi_offset 23, -48
	.cfi_offset 24, -40
	ldp	x23, x21, [x0]
	stp	x19, x20, [sp, 16]
	stp	x25, x26, [sp, 64]
	.cfi_offset 19, -80
	.cfi_offset 20, -72
	.cfi_offset 25, -32
	.cfi_offset 26, -24
	mov	x26, x2
	mov	x2, 7378697629483820646
	str	x27, [sp, 80]
	.cfi_offset 27, -16
	movk	x2, 0x666, lsl 48
	sub	x0, x21, x23
	asr	x0, x0, 2
	mul	x0, x0, x3
	cmp	x0, x2
	beq	.L777
	cmp	x0, 0
	mov	x25, x1
	sub	x27, x1, x23
	csinc	x1, x0, xzr, ne
	adds	x0, x0, x1
	bcs	.L770
	cbnz	x0, .L764
	mov	x19, 20
	mov	x20, 0
	mov	x24, 0
.L769:
	add	x2, x24, x27
	ldr	w3, [x26, 16]
	ldp	x0, x1, [x26]
	stp	x0, x1, [x2]
	str	w3, [x2, 16]
	cmp	x25, x23
	beq	.L765
	mov	x3, x24
	mov	x2, x23
	.p2align 3,,7
.L766:
	ldp	x4, x5, [x2]
	stp	x4, x5, [x3]
	ldr	w4, [x2, 16]
	add	x2, x2, 20
	str	w4, [x3, 16]
	add	x3, x3, 20
	cmp	x2, x25
	bne	.L766
	sub	x19, x25, #20
	mov	x0, 52429
	sub	x19, x19, x23
	movk	x0, 0xcccc, lsl 16
	movk	x0, 0xcccc, lsl 32
	lsr	x19, x19, 2
	movk	x0, 0xccc, lsl 48
	mul	x19, x19, x0
	and	x19, x19, 4611686018427387903
	add	x19, x19, 2
	add	x19, x19, x19, lsl 2
	add	x19, x24, x19, lsl 2
.L765:
	cmp	x25, x21
	beq	.L767
	sub	x21, x21, x25
	mov	x3, 52429
	sub	x21, x21, #20
	movk	x3, 0xcccc, lsl 16
	movk	x3, 0xcccc, lsl 32
	mov	x0, x19
	lsr	x2, x21, 2
	movk	x3, 0xccc, lsl 48
	mov	x1, x25
	mul	x2, x2, x3
	and	x2, x2, 4611686018427387903
	add	x2, x2, 1
	add	x2, x2, x2, lsl 2
	lsl	x2, x2, 2
	add	x19, x19, x2
	bl	memcpy
.L767:
	cbz	x23, .L768
	ldr	x1, [x22, 16]
	mov	x0, x23
	sub	x1, x1, x23
	bl	_ZdlPvm
.L768:
	ldp	x25, x26, [sp, 64]
	ldr	x27, [sp, 80]
	stp	x24, x19, [x22]
	str	x20, [x22, 16]
	ldp	x19, x20, [sp, 16]
	ldp	x21, x22, [sp, 32]
	ldp	x23, x24, [sp, 48]
	ldp	x29, x30, [sp], 96
	.cfi_remember_state
	.cfi_restore 30
	.cfi_restore 29
	.cfi_restore 27
	.cfi_restore 25
	.cfi_restore 26
	.cfi_restore 23
	.cfi_restore 24
	.cfi_restore 21
	.cfi_restore 22
	.cfi_restore 19
	.cfi_restore 20
	.cfi_def_cfa_offset 0
	ret
	.p2align 2,,3
.L770:
	.cfi_restore_state
	mov	x20, 9223372036854775800
.L763:
	mov	x0, x20
	bl	_Znwm
	mov	x24, x0
	add	x20, x0, x20
	add	x19, x0, 20
	b	.L769
.L764:
	cmp	x0, x2
	csel	x0, x0, x2, ls
	add	x0, x0, x0, lsl 2
	lsl	x20, x0, 2
	b	.L763
.L777:
	adrp	x0, .LC0
	add	x0, x0, :lo12:.LC0
	bl	_ZSt20__throw_length_errorPKc
	.cfi_endproc
.LFE2226:
	.size	_ZNSt6vectorIN8opendnp318TypedCommandHeaderINS0_23ControlRelayOutputBlockEE6RecordESaIS4_EE17_M_realloc_insertIJS4_EEEvN9__gnu_cxx17__normal_iteratorIPS4_S6_EEDpOT_, .-_ZNSt6vectorIN8opendnp318TypedCommandHeaderINS0_23ControlRelayOutputBlockEE6RecordESaIS4_EE17_M_realloc_insertIJS4_EEEvN9__gnu_cxx17__normal_iteratorIPS4_S6_EEDpOT_
	.section	.text._ZN8opendnp318TypedCommandHeaderINS_23ControlRelayOutputBlockEE3AddERKS1_t,"axG",@progbits,_ZN8opendnp318TypedCommandHeaderINS_23ControlRelayOutputBlockEE3AddERKS1_t,comdat
	.align	2
	.p2align 4,,11
	.weak	_ZN8opendnp318TypedCommandHeaderINS_23ControlRelayOutputBlockEE3AddERKS1_t
	.type	_ZN8opendnp318TypedCommandHeaderINS_23ControlRelayOutputBlockEE3AddERKS1_t, %function
_ZN8opendnp318TypedCommandHeaderINS_23ControlRelayOutputBlockEE3AddERKS1_t:
.LFB1907:
	.cfi_startproc
	stp	x29, x30, [sp, -96]!
	.cfi_def_cfa_offset 96
	.cfi_offset 29, -96
	.cfi_offset 30, -88
	adrp	x3, :got:__stack_chk_guard
	mov	w5, 32512
	mov	x29, sp
	ldr	x4, [x3, #:got_lo12:__stack_chk_guard]
	str	x19, [sp, 16]
	.cfi_offset 19, -80
	mov	x19, x0
	add	x0, x0, 48
	ldr	x6, [x4]
	str	x6, [sp, 88]
	mov	x6, 0
	strh	w5, [sp, 64]
	ldp	x4, x5, [x1]
	add	x1, sp, 4
	ldp	x3, x6, [x0, 8]
	stp	x4, x5, [sp, 40]
	stp	x4, x5, [x1, 64]
	strh	w2, [sp, 66]
	cmp	x3, x6
	beq	.L779
	ldp	x4, x5, [sp, 64]
	stp	x4, x5, [x3]
	add	x1, x3, 20
	ldr	w2, [sp, 80]
	str	w2, [x3, 16]
	str	x1, [x0, 8]
.L780:
	adrp	x1, :got:__stack_chk_guard
	add	x0, x19, 8
	ldr	x1, [x1, #:got_lo12:__stack_chk_guard]
	ldr	x3, [sp, 88]
	ldr	x2, [x1]
	subs	x3, x3, x2
	mov	x2, 0
	bne	.L783
	ldr	x19, [sp, 16]
	ldp	x29, x30, [sp], 96
	.cfi_remember_state
	.cfi_restore 30
	.cfi_restore 29
	.cfi_restore 19
	.cfi_def_cfa_offset 0
	ret
	.p2align 2,,3
.L779:
	.cfi_restore_state
	mov	x1, x3
	add	x2, sp, 64
	bl	_ZNSt6vectorIN8opendnp318TypedCommandHeaderINS0_23ControlRelayOutputBlockEE6RecordESaIS4_EE17_M_realloc_insertIJS4_EEEvN9__gnu_cxx17__normal_iteratorIPS4_S6_EEDpOT_
	b	.L780
.L783:
	bl	__stack_chk_fail
	.cfi_endproc
.LFE1907:
	.size	_ZN8opendnp318TypedCommandHeaderINS_23ControlRelayOutputBlockEE3AddERKS1_t, .-_ZN8opendnp318TypedCommandHeaderINS_23ControlRelayOutputBlockEE3AddERKS1_t
	.align	2
	.p2align 4,,11
	.weak	_ZThn8_N8opendnp318TypedCommandHeaderINS_23ControlRelayOutputBlockEE3AddERKS1_t
	.type	_ZThn8_N8opendnp318TypedCommandHeaderINS_23ControlRelayOutputBlockEE3AddERKS1_t, %function
_ZThn8_N8opendnp318TypedCommandHeaderINS_23ControlRelayOutputBlockEE3AddERKS1_t:
.LFB2528:
	.cfi_startproc
	stp	x29, x30, [sp, -96]!
	.cfi_def_cfa_offset 96
	.cfi_offset 29, -96
	.cfi_offset 30, -88
	adrp	x3, :got:__stack_chk_guard
	mov	w5, 32512
	mov	x29, sp
	ldr	x4, [x3, #:got_lo12:__stack_chk_guard]
	str	x19, [sp, 16]
	.cfi_offset 19, -80
	mov	x19, x0
	add	x0, x0, 40
	ldr	x6, [x4]
	str	x6, [sp, 88]
	mov	x6, 0
	strh	w5, [sp, 40]
	ldp	x4, x5, [x1]
	add	x1, sp, 4
	ldp	x3, x6, [x0, 8]
	strh	w2, [sp, 42]
	stp	x4, x5, [x1, 40]
	stp	x4, x5, [sp, 64]
	cmp	x3, x6
	beq	.L785
	ldp	x4, x5, [sp, 40]
	stp	x4, x5, [x3]
	add	x1, x3, 20
	ldr	w2, [sp, 56]
	str	w2, [x3, 16]
	str	x1, [x0, 8]
.L786:
	adrp	x0, :got:__stack_chk_guard
	ldr	x0, [x0, #:got_lo12:__stack_chk_guard]
	ldr	x2, [sp, 88]
	ldr	x1, [x0]
	subs	x2, x2, x1
	mov	x1, 0
	bne	.L789
	mov	x0, x19
	ldr	x19, [sp, 16]
	ldp	x29, x30, [sp], 96
	.cfi_remember_state
	.cfi_restore 30
	.cfi_restore 29
	.cfi_restore 19
	.cfi_def_cfa_offset 0
	ret
	.p2align 2,,3
.L785:
	.cfi_restore_state
	mov	x1, x3
	add	x2, sp, 40
	bl	_ZNSt6vectorIN8opendnp318TypedCommandHeaderINS0_23ControlRelayOutputBlockEE6RecordESaIS4_EE17_M_realloc_insertIJS4_EEEvN9__gnu_cxx17__normal_iteratorIPS4_S6_EEDpOT_
	b	.L786
.L789:
	bl	__stack_chk_fail
	.cfi_endproc
.LFE2528:
	.size	_ZThn8_N8opendnp318TypedCommandHeaderINS_23ControlRelayOutputBlockEE3AddERKS1_t, .-_ZThn8_N8opendnp318TypedCommandHeaderINS_23ControlRelayOutputBlockEE3AddERKS1_t
	.weak	_ZTSN8opendnp38IVisitorINS_7IndexedINS_20AnalogOutputDouble64EEEEE
	.section	.rodata._ZTSN8opendnp38IVisitorINS_7IndexedINS_20AnalogOutputDouble64EEEEE,"aG",@progbits,_ZTSN8opendnp38IVisitorINS_7IndexedINS_20AnalogOutputDouble64EEEEE,comdat
	.align	3
	.type	_ZTSN8opendnp38IVisitorINS_7IndexedINS_20AnalogOutputDouble64EEEEE, %object
	.size	_ZTSN8opendnp38IVisitorINS_7IndexedINS_20AnalogOutputDouble64EEEEE, 63
_ZTSN8opendnp38IVisitorINS_7IndexedINS_20AnalogOutputDouble64EEEEE:
	.string	"N8opendnp38IVisitorINS_7IndexedINS_20AnalogOutputDouble64EEEEE"
	.weak	_ZTIN8opendnp38IVisitorINS_7IndexedINS_20AnalogOutputDouble64EEEEE
	.section	.data.rel.ro._ZTIN8opendnp38IVisitorINS_7IndexedINS_20AnalogOutputDouble64EEEEE,"awG",@progbits,_ZTIN8opendnp38IVisitorINS_7IndexedINS_20AnalogOutputDouble64EEEEE,comdat
	.align	3
	.type	_ZTIN8opendnp38IVisitorINS_7IndexedINS_20AnalogOutputDouble64EEEEE, %object
	.size	_ZTIN8opendnp38IVisitorINS_7IndexedINS_20AnalogOutputDouble64EEEEE, 16
_ZTIN8opendnp38IVisitorINS_7IndexedINS_20AnalogOutputDouble64EEEEE:
	.xword	_ZTVN10__cxxabiv117__class_type_infoE+16
	.xword	_ZTSN8opendnp38IVisitorINS_7IndexedINS_20AnalogOutputDouble64EEEEE
	.weak	_ZTSN8opendnp314FunctorVisitorINS_7IndexedINS_20AnalogOutputDouble64EEEZNS_18TypedCommandHeaderIS2_E19ApplySelectResponseERKNS_11ICollectionIS3_EEEUlS3_E_EE
	.section	.rodata._ZTSN8opendnp314FunctorVisitorINS_7IndexedINS_20AnalogOutputDouble64EEEZNS_18TypedCommandHeaderIS2_E19ApplySelectResponseERKNS_11ICollectionIS3_EEEUlS3_E_EE,"aG",@progbits,_ZTSN8opendnp314FunctorVisitorINS_7IndexedINS_20AnalogOutputDouble64EEEZNS_18TypedCommandHeaderIS2_E19ApplySelectResponseERKNS_11ICollectionIS3_EEEUlS3_E_EE,comdat
	.align	3
	.type	_ZTSN8opendnp314FunctorVisitorINS_7IndexedINS_20AnalogOutputDouble64EEEZNS_18TypedCommandHeaderIS2_E19ApplySelectResponseERKNS_11ICollectionIS3_EEEUlS3_E_EE, %object
	.size	_ZTSN8opendnp314FunctorVisitorINS_7IndexedINS_20AnalogOutputDouble64EEEZNS_18TypedCommandHeaderIS2_E19ApplySelectResponseERKNS_11ICollectionIS3_EEEUlS3_E_EE, 153
_ZTSN8opendnp314FunctorVisitorINS_7IndexedINS_20AnalogOutputDouble64EEEZNS_18TypedCommandHeaderIS2_E19ApplySelectResponseERKNS_11ICollectionIS3_EEEUlS3_E_EE:
	.string	"N8opendnp314FunctorVisitorINS_7IndexedINS_20AnalogOutputDouble64EEEZNS_18TypedCommandHeaderIS2_E19ApplySelectResponseERKNS_11ICollectionIS3_EEEUlS3_E_EE"
	.weak	_ZTIN8opendnp314FunctorVisitorINS_7IndexedINS_20AnalogOutputDouble64EEEZNS_18TypedCommandHeaderIS2_E19ApplySelectResponseERKNS_11ICollectionIS3_EEEUlS3_E_EE
	.section	.data.rel.ro._ZTIN8opendnp314FunctorVisitorINS_7IndexedINS_20AnalogOutputDouble64EEEZNS_18TypedCommandHeaderIS2_E19ApplySelectResponseERKNS_11ICollectionIS3_EEEUlS3_E_EE,"awG",@progbits,_ZTIN8opendnp314FunctorVisitorINS_7IndexedINS_20AnalogOutputDouble64EEEZNS_18TypedCommandHeaderIS2_E19ApplySelectResponseERKNS_11ICollectionIS3_EEEUlS3_E_EE,comdat
	.align	3
	.type	_ZTIN8opendnp314FunctorVisitorINS_7IndexedINS_20AnalogOutputDouble64EEEZNS_18TypedCommandHeaderIS2_E19ApplySelectResponseERKNS_11ICollectionIS3_EEEUlS3_E_EE, %object
	.size	_ZTIN8opendnp314FunctorVisitorINS_7IndexedINS_20AnalogOutputDouble64EEEZNS_18TypedCommandHeaderIS2_E19ApplySelectResponseERKNS_11ICollectionIS3_EEEUlS3_E_EE, 24
_ZTIN8opendnp314FunctorVisitorINS_7IndexedINS_20AnalogOutputDouble64EEEZNS_18TypedCommandHeaderIS2_E19ApplySelectResponseERKNS_11ICollectionIS3_EEEUlS3_E_EE:
	.xword	_ZTVN10__cxxabiv120__si_class_type_infoE+16
	.xword	_ZTSN8opendnp314FunctorVisitorINS_7IndexedINS_20AnalogOutputDouble64EEEZNS_18TypedCommandHeaderIS2_E19ApplySelectResponseERKNS_11ICollectionIS3_EEEUlS3_E_EE
	.xword	_ZTIN8opendnp38IVisitorINS_7IndexedINS_20AnalogOutputDouble64EEEEE
	.weak	_ZTSN8opendnp314FunctorVisitorINS_7IndexedINS_20AnalogOutputDouble64EEEZNS_18TypedCommandHeaderIS2_E20ApplyOperateResponseERKNS_11ICollectionIS3_EEEUlS3_E_EE
	.section	.rodata._ZTSN8opendnp314FunctorVisitorINS_7IndexedINS_20AnalogOutputDouble64EEEZNS_18TypedCommandHeaderIS2_E20ApplyOperateResponseERKNS_11ICollectionIS3_EEEUlS3_E_EE,"aG",@progbits,_ZTSN8opendnp314FunctorVisitorINS_7IndexedINS_20AnalogOutputDouble64EEEZNS_18TypedCommandHeaderIS2_E20ApplyOperateResponseERKNS_11ICollectionIS3_EEEUlS3_E_EE,comdat
	.align	3
	.type	_ZTSN8opendnp314FunctorVisitorINS_7IndexedINS_20AnalogOutputDouble64EEEZNS_18TypedCommandHeaderIS2_E20ApplyOperateResponseERKNS_11ICollectionIS3_EEEUlS3_E_EE, %object
	.size	_ZTSN8opendnp314FunctorVisitorINS_7IndexedINS_20AnalogOutputDouble64EEEZNS_18TypedCommandHeaderIS2_E20ApplyOperateResponseERKNS_11ICollectionIS3_EEEUlS3_E_EE, 154
_ZTSN8opendnp314FunctorVisitorINS_7IndexedINS_20AnalogOutputDouble64EEEZNS_18TypedCommandHeaderIS2_E20ApplyOperateResponseERKNS_11ICollectionIS3_EEEUlS3_E_EE:
	.string	"N8opendnp314FunctorVisitorINS_7IndexedINS_20AnalogOutputDouble64EEEZNS_18TypedCommandHeaderIS2_E20ApplyOperateResponseERKNS_11ICollectionIS3_EEEUlS3_E_EE"
	.weak	_ZTIN8opendnp314FunctorVisitorINS_7IndexedINS_20AnalogOutputDouble64EEEZNS_18TypedCommandHeaderIS2_E20ApplyOperateResponseERKNS_11ICollectionIS3_EEEUlS3_E_EE
	.section	.data.rel.ro._ZTIN8opendnp314FunctorVisitorINS_7IndexedINS_20AnalogOutputDouble64EEEZNS_18TypedCommandHeaderIS2_E20ApplyOperateResponseERKNS_11ICollectionIS3_EEEUlS3_E_EE,"awG",@progbits,_ZTIN8opendnp314FunctorVisitorINS_7IndexedINS_20AnalogOutputDouble64EEEZNS_18TypedCommandHeaderIS2_E20ApplyOperateResponseERKNS_11ICollectionIS3_EEEUlS3_E_EE,comdat
	.align	3
	.type	_ZTIN8opendnp314FunctorVisitorINS_7IndexedINS_20AnalogOutputDouble64EEEZNS_18TypedCommandHeaderIS2_E20ApplyOperateResponseERKNS_11ICollectionIS3_EEEUlS3_E_EE, %object
	.size	_ZTIN8opendnp314FunctorVisitorINS_7IndexedINS_20AnalogOutputDouble64EEEZNS_18TypedCommandHeaderIS2_E20ApplyOperateResponseERKNS_11ICollectionIS3_EEEUlS3_E_EE, 24
_ZTIN8opendnp314FunctorVisitorINS_7IndexedINS_20AnalogOutputDouble64EEEZNS_18TypedCommandHeaderIS2_E20ApplyOperateResponseERKNS_11ICollectionIS3_EEEUlS3_E_EE:
	.xword	_ZTVN10__cxxabiv120__si_class_type_infoE+16
	.xword	_ZTSN8opendnp314FunctorVisitorINS_7IndexedINS_20AnalogOutputDouble64EEEZNS_18TypedCommandHeaderIS2_E20ApplyOperateResponseERKNS_11ICollectionIS3_EEEUlS3_E_EE
	.xword	_ZTIN8opendnp38IVisitorINS_7IndexedINS_20AnalogOutputDouble64EEEEE
	.weak	_ZTSN8opendnp38IVisitorINS_7IndexedINS_19AnalogOutputFloat32EEEEE
	.section	.rodata._ZTSN8opendnp38IVisitorINS_7IndexedINS_19AnalogOutputFloat32EEEEE,"aG",@progbits,_ZTSN8opendnp38IVisitorINS_7IndexedINS_19AnalogOutputFloat32EEEEE,comdat
	.align	3
	.type	_ZTSN8opendnp38IVisitorINS_7IndexedINS_19AnalogOutputFloat32EEEEE, %object
	.size	_ZTSN8opendnp38IVisitorINS_7IndexedINS_19AnalogOutputFloat32EEEEE, 62
_ZTSN8opendnp38IVisitorINS_7IndexedINS_19AnalogOutputFloat32EEEEE:
	.string	"N8opendnp38IVisitorINS_7IndexedINS_19AnalogOutputFloat32EEEEE"
	.weak	_ZTIN8opendnp38IVisitorINS_7IndexedINS_19AnalogOutputFloat32EEEEE
	.section	.data.rel.ro._ZTIN8opendnp38IVisitorINS_7IndexedINS_19AnalogOutputFloat32EEEEE,"awG",@progbits,_ZTIN8opendnp38IVisitorINS_7IndexedINS_19AnalogOutputFloat32EEEEE,comdat
	.align	3
	.type	_ZTIN8opendnp38IVisitorINS_7IndexedINS_19AnalogOutputFloat32EEEEE, %object
	.size	_ZTIN8opendnp38IVisitorINS_7IndexedINS_19AnalogOutputFloat32EEEEE, 16
_ZTIN8opendnp38IVisitorINS_7IndexedINS_19AnalogOutputFloat32EEEEE:
	.xword	_ZTVN10__cxxabiv117__class_type_infoE+16
	.xword	_ZTSN8opendnp38IVisitorINS_7IndexedINS_19AnalogOutputFloat32EEEEE
	.weak	_ZTSN8opendnp314FunctorVisitorINS_7IndexedINS_19AnalogOutputFloat32EEEZNS_18TypedCommandHeaderIS2_E19ApplySelectResponseERKNS_11ICollectionIS3_EEEUlS3_E_EE
	.section	.rodata._ZTSN8opendnp314FunctorVisitorINS_7IndexedINS_19AnalogOutputFloat32EEEZNS_18TypedCommandHeaderIS2_E19ApplySelectResponseERKNS_11ICollectionIS3_EEEUlS3_E_EE,"aG",@progbits,_ZTSN8opendnp314FunctorVisitorINS_7IndexedINS_19AnalogOutputFloat32EEEZNS_18TypedCommandHeaderIS2_E19ApplySelectResponseERKNS_11ICollectionIS3_EEEUlS3_E_EE,comdat
	.align	3
	.type	_ZTSN8opendnp314FunctorVisitorINS_7IndexedINS_19AnalogOutputFloat32EEEZNS_18TypedCommandHeaderIS2_E19ApplySelectResponseERKNS_11ICollectionIS3_EEEUlS3_E_EE, %object
	.size	_ZTSN8opendnp314FunctorVisitorINS_7IndexedINS_19AnalogOutputFloat32EEEZNS_18TypedCommandHeaderIS2_E19ApplySelectResponseERKNS_11ICollectionIS3_EEEUlS3_E_EE, 152
_ZTSN8opendnp314FunctorVisitorINS_7IndexedINS_19AnalogOutputFloat32EEEZNS_18TypedCommandHeaderIS2_E19ApplySelectResponseERKNS_11ICollectionIS3_EEEUlS3_E_EE:
	.string	"N8opendnp314FunctorVisitorINS_7IndexedINS_19AnalogOutputFloat32EEEZNS_18TypedCommandHeaderIS2_E19ApplySelectResponseERKNS_11ICollectionIS3_EEEUlS3_E_EE"
	.weak	_ZTIN8opendnp314FunctorVisitorINS_7IndexedINS_19AnalogOutputFloat32EEEZNS_18TypedCommandHeaderIS2_E19ApplySelectResponseERKNS_11ICollectionIS3_EEEUlS3_E_EE
	.section	.data.rel.ro._ZTIN8opendnp314FunctorVisitorINS_7IndexedINS_19AnalogOutputFloat32EEEZNS_18TypedCommandHeaderIS2_E19ApplySelectResponseERKNS_11ICollectionIS3_EEEUlS3_E_EE,"awG",@progbits,_ZTIN8opendnp314FunctorVisitorINS_7IndexedINS_19AnalogOutputFloat32EEEZNS_18TypedCommandHeaderIS2_E19ApplySelectResponseERKNS_11ICollectionIS3_EEEUlS3_E_EE,comdat
	.align	3
	.type	_ZTIN8opendnp314FunctorVisitorINS_7IndexedINS_19AnalogOutputFloat32EEEZNS_18TypedCommandHeaderIS2_E19ApplySelectResponseERKNS_11ICollectionIS3_EEEUlS3_E_EE, %object
	.size	_ZTIN8opendnp314FunctorVisitorINS_7IndexedINS_19AnalogOutputFloat32EEEZNS_18TypedCommandHeaderIS2_E19ApplySelectResponseERKNS_11ICollectionIS3_EEEUlS3_E_EE, 24
_ZTIN8opendnp314FunctorVisitorINS_7IndexedINS_19AnalogOutputFloat32EEEZNS_18TypedCommandHeaderIS2_E19ApplySelectResponseERKNS_11ICollectionIS3_EEEUlS3_E_EE:
	.xword	_ZTVN10__cxxabiv120__si_class_type_infoE+16
	.xword	_ZTSN8opendnp314FunctorVisitorINS_7IndexedINS_19AnalogOutputFloat32EEEZNS_18TypedCommandHeaderIS2_E19ApplySelectResponseERKNS_11ICollectionIS3_EEEUlS3_E_EE
	.xword	_ZTIN8opendnp38IVisitorINS_7IndexedINS_19AnalogOutputFloat32EEEEE
	.weak	_ZTSN8opendnp314FunctorVisitorINS_7IndexedINS_19AnalogOutputFloat32EEEZNS_18TypedCommandHeaderIS2_E20ApplyOperateResponseERKNS_11ICollectionIS3_EEEUlS3_E_EE
	.section	.rodata._ZTSN8opendnp314FunctorVisitorINS_7IndexedINS_19AnalogOutputFloat32EEEZNS_18TypedCommandHeaderIS2_E20ApplyOperateResponseERKNS_11ICollectionIS3_EEEUlS3_E_EE,"aG",@progbits,_ZTSN8opendnp314FunctorVisitorINS_7IndexedINS_19AnalogOutputFloat32EEEZNS_18TypedCommandHeaderIS2_E20ApplyOperateResponseERKNS_11ICollectionIS3_EEEUlS3_E_EE,comdat
	.align	3
	.type	_ZTSN8opendnp314FunctorVisitorINS_7IndexedINS_19AnalogOutputFloat32EEEZNS_18TypedCommandHeaderIS2_E20ApplyOperateResponseERKNS_11ICollectionIS3_EEEUlS3_E_EE, %object
	.size	_ZTSN8opendnp314FunctorVisitorINS_7IndexedINS_19AnalogOutputFloat32EEEZNS_18TypedCommandHeaderIS2_E20ApplyOperateResponseERKNS_11ICollectionIS3_EEEUlS3_E_EE, 153
_ZTSN8opendnp314FunctorVisitorINS_7IndexedINS_19AnalogOutputFloat32EEEZNS_18TypedCommandHeaderIS2_E20ApplyOperateResponseERKNS_11ICollectionIS3_EEEUlS3_E_EE:
	.string	"N8opendnp314FunctorVisitorINS_7IndexedINS_19AnalogOutputFloat32EEEZNS_18TypedCommandHeaderIS2_E20ApplyOperateResponseERKNS_11ICollectionIS3_EEEUlS3_E_EE"
	.weak	_ZTIN8opendnp314FunctorVisitorINS_7IndexedINS_19AnalogOutputFloat32EEEZNS_18TypedCommandHeaderIS2_E20ApplyOperateResponseERKNS_11ICollectionIS3_EEEUlS3_E_EE
	.section	.data.rel.ro._ZTIN8opendnp314FunctorVisitorINS_7IndexedINS_19AnalogOutputFloat32EEEZNS_18TypedCommandHeaderIS2_E20ApplyOperateResponseERKNS_11ICollectionIS3_EEEUlS3_E_EE,"awG",@progbits,_ZTIN8opendnp314FunctorVisitorINS_7IndexedINS_19AnalogOutputFloat32EEEZNS_18TypedCommandHeaderIS2_E20ApplyOperateResponseERKNS_11ICollectionIS3_EEEUlS3_E_EE,comdat
	.align	3
	.type	_ZTIN8opendnp314FunctorVisitorINS_7IndexedINS_19AnalogOutputFloat32EEEZNS_18TypedCommandHeaderIS2_E20ApplyOperateResponseERKNS_11ICollectionIS3_EEEUlS3_E_EE, %object
	.size	_ZTIN8opendnp314FunctorVisitorINS_7IndexedINS_19AnalogOutputFloat32EEEZNS_18TypedCommandHeaderIS2_E20ApplyOperateResponseERKNS_11ICollectionIS3_EEEUlS3_E_EE, 24
_ZTIN8opendnp314FunctorVisitorINS_7IndexedINS_19AnalogOutputFloat32EEEZNS_18TypedCommandHeaderIS2_E20ApplyOperateResponseERKNS_11ICollectionIS3_EEEUlS3_E_EE:
	.xword	_ZTVN10__cxxabiv120__si_class_type_infoE+16
	.xword	_ZTSN8opendnp314FunctorVisitorINS_7IndexedINS_19AnalogOutputFloat32EEEZNS_18TypedCommandHeaderIS2_E20ApplyOperateResponseERKNS_11ICollectionIS3_EEEUlS3_E_EE
	.xword	_ZTIN8opendnp38IVisitorINS_7IndexedINS_19AnalogOutputFloat32EEEEE
	.weak	_ZTSN8opendnp38IVisitorINS_7IndexedINS_17AnalogOutputInt16EEEEE
	.section	.rodata._ZTSN8opendnp38IVisitorINS_7IndexedINS_17AnalogOutputInt16EEEEE,"aG",@progbits,_ZTSN8opendnp38IVisitorINS_7IndexedINS_17AnalogOutputInt16EEEEE,comdat
	.align	3
	.type	_ZTSN8opendnp38IVisitorINS_7IndexedINS_17AnalogOutputInt16EEEEE, %object
	.size	_ZTSN8opendnp38IVisitorINS_7IndexedINS_17AnalogOutputInt16EEEEE, 60
_ZTSN8opendnp38IVisitorINS_7IndexedINS_17AnalogOutputInt16EEEEE:
	.string	"N8opendnp38IVisitorINS_7IndexedINS_17AnalogOutputInt16EEEEE"
	.weak	_ZTIN8opendnp38IVisitorINS_7IndexedINS_17AnalogOutputInt16EEEEE
	.section	.data.rel.ro._ZTIN8opendnp38IVisitorINS_7IndexedINS_17AnalogOutputInt16EEEEE,"awG",@progbits,_ZTIN8opendnp38IVisitorINS_7IndexedINS_17AnalogOutputInt16EEEEE,comdat
	.align	3
	.type	_ZTIN8opendnp38IVisitorINS_7IndexedINS_17AnalogOutputInt16EEEEE, %object
	.size	_ZTIN8opendnp38IVisitorINS_7IndexedINS_17AnalogOutputInt16EEEEE, 16
_ZTIN8opendnp38IVisitorINS_7IndexedINS_17AnalogOutputInt16EEEEE:
	.xword	_ZTVN10__cxxabiv117__class_type_infoE+16
	.xword	_ZTSN8opendnp38IVisitorINS_7IndexedINS_17AnalogOutputInt16EEEEE
	.weak	_ZTSN8opendnp314FunctorVisitorINS_7IndexedINS_17AnalogOutputInt16EEEZNS_18TypedCommandHeaderIS2_E19ApplySelectResponseERKNS_11ICollectionIS3_EEEUlS3_E_EE
	.section	.rodata._ZTSN8opendnp314FunctorVisitorINS_7IndexedINS_17AnalogOutputInt16EEEZNS_18TypedCommandHeaderIS2_E19ApplySelectResponseERKNS_11ICollectionIS3_EEEUlS3_E_EE,"aG",@progbits,_ZTSN8opendnp314FunctorVisitorINS_7IndexedINS_17AnalogOutputInt16EEEZNS_18TypedCommandHeaderIS2_E19ApplySelectResponseERKNS_11ICollectionIS3_EEEUlS3_E_EE,comdat
	.align	3
	.type	_ZTSN8opendnp314FunctorVisitorINS_7IndexedINS_17AnalogOutputInt16EEEZNS_18TypedCommandHeaderIS2_E19ApplySelectResponseERKNS_11ICollectionIS3_EEEUlS3_E_EE, %object
	.size	_ZTSN8opendnp314FunctorVisitorINS_7IndexedINS_17AnalogOutputInt16EEEZNS_18TypedCommandHeaderIS2_E19ApplySelectResponseERKNS_11ICollectionIS3_EEEUlS3_E_EE, 150
_ZTSN8opendnp314FunctorVisitorINS_7IndexedINS_17AnalogOutputInt16EEEZNS_18TypedCommandHeaderIS2_E19ApplySelectResponseERKNS_11ICollectionIS3_EEEUlS3_E_EE:
	.string	"N8opendnp314FunctorVisitorINS_7IndexedINS_17AnalogOutputInt16EEEZNS_18TypedCommandHeaderIS2_E19ApplySelectResponseERKNS_11ICollectionIS3_EEEUlS3_E_EE"
	.weak	_ZTIN8opendnp314FunctorVisitorINS_7IndexedINS_17AnalogOutputInt16EEEZNS_18TypedCommandHeaderIS2_E19ApplySelectResponseERKNS_11ICollectionIS3_EEEUlS3_E_EE
	.section	.data.rel.ro._ZTIN8opendnp314FunctorVisitorINS_7IndexedINS_17AnalogOutputInt16EEEZNS_18TypedCommandHeaderIS2_E19ApplySelectResponseERKNS_11ICollectionIS3_EEEUlS3_E_EE,"awG",@progbits,_ZTIN8opendnp314FunctorVisitorINS_7IndexedINS_17AnalogOutputInt16EEEZNS_18TypedCommandHeaderIS2_E19ApplySelectResponseERKNS_11ICollectionIS3_EEEUlS3_E_EE,comdat
	.align	3
	.type	_ZTIN8opendnp314FunctorVisitorINS_7IndexedINS_17AnalogOutputInt16EEEZNS_18TypedCommandHeaderIS2_E19ApplySelectResponseERKNS_11ICollectionIS3_EEEUlS3_E_EE, %object
	.size	_ZTIN8opendnp314FunctorVisitorINS_7IndexedINS_17AnalogOutputInt16EEEZNS_18TypedCommandHeaderIS2_E19ApplySelectResponseERKNS_11ICollectionIS3_EEEUlS3_E_EE, 24
_ZTIN8opendnp314FunctorVisitorINS_7IndexedINS_17AnalogOutputInt16EEEZNS_18TypedCommandHeaderIS2_E19ApplySelectResponseERKNS_11ICollectionIS3_EEEUlS3_E_EE:
	.xword	_ZTVN10__cxxabiv120__si_class_type_infoE+16
	.xword	_ZTSN8opendnp314FunctorVisitorINS_7IndexedINS_17AnalogOutputInt16EEEZNS_18TypedCommandHeaderIS2_E19ApplySelectResponseERKNS_11ICollectionIS3_EEEUlS3_E_EE
	.xword	_ZTIN8opendnp38IVisitorINS_7IndexedINS_17AnalogOutputInt16EEEEE
	.weak	_ZTSN8opendnp314FunctorVisitorINS_7IndexedINS_17AnalogOutputInt16EEEZNS_18TypedCommandHeaderIS2_E20ApplyOperateResponseERKNS_11ICollectionIS3_EEEUlS3_E_EE
	.section	.rodata._ZTSN8opendnp314FunctorVisitorINS_7IndexedINS_17AnalogOutputInt16EEEZNS_18TypedCommandHeaderIS2_E20ApplyOperateResponseERKNS_11ICollectionIS3_EEEUlS3_E_EE,"aG",@progbits,_ZTSN8opendnp314FunctorVisitorINS_7IndexedINS_17AnalogOutputInt16EEEZNS_18TypedCommandHeaderIS2_E20ApplyOperateResponseERKNS_11ICollectionIS3_EEEUlS3_E_EE,comdat
	.align	3
	.type	_ZTSN8opendnp314FunctorVisitorINS_7IndexedINS_17AnalogOutputInt16EEEZNS_18TypedCommandHeaderIS2_E20ApplyOperateResponseERKNS_11ICollectionIS3_EEEUlS3_E_EE, %object
	.size	_ZTSN8opendnp314FunctorVisitorINS_7IndexedINS_17AnalogOutputInt16EEEZNS_18TypedCommandHeaderIS2_E20ApplyOperateResponseERKNS_11ICollectionIS3_EEEUlS3_E_EE, 151
_ZTSN8opendnp314FunctorVisitorINS_7IndexedINS_17AnalogOutputInt16EEEZNS_18TypedCommandHeaderIS2_E20ApplyOperateResponseERKNS_11ICollectionIS3_EEEUlS3_E_EE:
	.string	"N8opendnp314FunctorVisitorINS_7IndexedINS_17AnalogOutputInt16EEEZNS_18TypedCommandHeaderIS2_E20ApplyOperateResponseERKNS_11ICollectionIS3_EEEUlS3_E_EE"
	.weak	_ZTIN8opendnp314FunctorVisitorINS_7IndexedINS_17AnalogOutputInt16EEEZNS_18TypedCommandHeaderIS2_E20ApplyOperateResponseERKNS_11ICollectionIS3_EEEUlS3_E_EE
	.section	.data.rel.ro._ZTIN8opendnp314FunctorVisitorINS_7IndexedINS_17AnalogOutputInt16EEEZNS_18TypedCommandHeaderIS2_E20ApplyOperateResponseERKNS_11ICollectionIS3_EEEUlS3_E_EE,"awG",@progbits,_ZTIN8opendnp314FunctorVisitorINS_7IndexedINS_17AnalogOutputInt16EEEZNS_18TypedCommandHeaderIS2_E20ApplyOperateResponseERKNS_11ICollectionIS3_EEEUlS3_E_EE,comdat
	.align	3
	.type	_ZTIN8opendnp314FunctorVisitorINS_7IndexedINS_17AnalogOutputInt16EEEZNS_18TypedCommandHeaderIS2_E20ApplyOperateResponseERKNS_11ICollectionIS3_EEEUlS3_E_EE, %object
	.size	_ZTIN8opendnp314FunctorVisitorINS_7IndexedINS_17AnalogOutputInt16EEEZNS_18TypedCommandHeaderIS2_E20ApplyOperateResponseERKNS_11ICollectionIS3_EEEUlS3_E_EE, 24
_ZTIN8opendnp314FunctorVisitorINS_7IndexedINS_17AnalogOutputInt16EEEZNS_18TypedCommandHeaderIS2_E20ApplyOperateResponseERKNS_11ICollectionIS3_EEEUlS3_E_EE:
	.xword	_ZTVN10__cxxabiv120__si_class_type_infoE+16
	.xword	_ZTSN8opendnp314FunctorVisitorINS_7IndexedINS_17AnalogOutputInt16EEEZNS_18TypedCommandHeaderIS2_E20ApplyOperateResponseERKNS_11ICollectionIS3_EEEUlS3_E_EE
	.xword	_ZTIN8opendnp38IVisitorINS_7IndexedINS_17AnalogOutputInt16EEEEE
	.weak	_ZTSN8opendnp38IVisitorINS_7IndexedINS_17AnalogOutputInt32EEEEE
	.section	.rodata._ZTSN8opendnp38IVisitorINS_7IndexedINS_17AnalogOutputInt32EEEEE,"aG",@progbits,_ZTSN8opendnp38IVisitorINS_7IndexedINS_17AnalogOutputInt32EEEEE,comdat
	.align	3
	.type	_ZTSN8opendnp38IVisitorINS_7IndexedINS_17AnalogOutputInt32EEEEE, %object
	.size	_ZTSN8opendnp38IVisitorINS_7IndexedINS_17AnalogOutputInt32EEEEE, 60
_ZTSN8opendnp38IVisitorINS_7IndexedINS_17AnalogOutputInt32EEEEE:
	.string	"N8opendnp38IVisitorINS_7IndexedINS_17AnalogOutputInt32EEEEE"
	.weak	_ZTIN8opendnp38IVisitorINS_7IndexedINS_17AnalogOutputInt32EEEEE
	.section	.data.rel.ro._ZTIN8opendnp38IVisitorINS_7IndexedINS_17AnalogOutputInt32EEEEE,"awG",@progbits,_ZTIN8opendnp38IVisitorINS_7IndexedINS_17AnalogOutputInt32EEEEE,comdat
	.align	3
	.type	_ZTIN8opendnp38IVisitorINS_7IndexedINS_17AnalogOutputInt32EEEEE, %object
	.size	_ZTIN8opendnp38IVisitorINS_7IndexedINS_17AnalogOutputInt32EEEEE, 16
_ZTIN8opendnp38IVisitorINS_7IndexedINS_17AnalogOutputInt32EEEEE:
	.xword	_ZTVN10__cxxabiv117__class_type_infoE+16
	.xword	_ZTSN8opendnp38IVisitorINS_7IndexedINS_17AnalogOutputInt32EEEEE
	.weak	_ZTSN8opendnp314FunctorVisitorINS_7IndexedINS_17AnalogOutputInt32EEEZNS_18TypedCommandHeaderIS2_E19ApplySelectResponseERKNS_11ICollectionIS3_EEEUlS3_E_EE
	.section	.rodata._ZTSN8opendnp314FunctorVisitorINS_7IndexedINS_17AnalogOutputInt32EEEZNS_18TypedCommandHeaderIS2_E19ApplySelectResponseERKNS_11ICollectionIS3_EEEUlS3_E_EE,"aG",@progbits,_ZTSN8opendnp314FunctorVisitorINS_7IndexedINS_17AnalogOutputInt32EEEZNS_18TypedCommandHeaderIS2_E19ApplySelectResponseERKNS_11ICollectionIS3_EEEUlS3_E_EE,comdat
	.align	3
	.type	_ZTSN8opendnp314FunctorVisitorINS_7IndexedINS_17AnalogOutputInt32EEEZNS_18TypedCommandHeaderIS2_E19ApplySelectResponseERKNS_11ICollectionIS3_EEEUlS3_E_EE, %object
	.size	_ZTSN8opendnp314FunctorVisitorINS_7IndexedINS_17AnalogOutputInt32EEEZNS_18TypedCommandHeaderIS2_E19ApplySelectResponseERKNS_11ICollectionIS3_EEEUlS3_E_EE, 150
_ZTSN8opendnp314FunctorVisitorINS_7IndexedINS_17AnalogOutputInt32EEEZNS_18TypedCommandHeaderIS2_E19ApplySelectResponseERKNS_11ICollectionIS3_EEEUlS3_E_EE:
	.string	"N8opendnp314FunctorVisitorINS_7IndexedINS_17AnalogOutputInt32EEEZNS_18TypedCommandHeaderIS2_E19ApplySelectResponseERKNS_11ICollectionIS3_EEEUlS3_E_EE"
	.weak	_ZTIN8opendnp314FunctorVisitorINS_7IndexedINS_17AnalogOutputInt32EEEZNS_18TypedCommandHeaderIS2_E19ApplySelectResponseERKNS_11ICollectionIS3_EEEUlS3_E_EE
	.section	.data.rel.ro._ZTIN8opendnp314FunctorVisitorINS_7IndexedINS_17AnalogOutputInt32EEEZNS_18TypedCommandHeaderIS2_E19ApplySelectResponseERKNS_11ICollectionIS3_EEEUlS3_E_EE,"awG",@progbits,_ZTIN8opendnp314FunctorVisitorINS_7IndexedINS_17AnalogOutputInt32EEEZNS_18TypedCommandHeaderIS2_E19ApplySelectResponseERKNS_11ICollectionIS3_EEEUlS3_E_EE,comdat
	.align	3
	.type	_ZTIN8opendnp314FunctorVisitorINS_7IndexedINS_17AnalogOutputInt32EEEZNS_18TypedCommandHeaderIS2_E19ApplySelectResponseERKNS_11ICollectionIS3_EEEUlS3_E_EE, %object
	.size	_ZTIN8opendnp314FunctorVisitorINS_7IndexedINS_17AnalogOutputInt32EEEZNS_18TypedCommandHeaderIS2_E19ApplySelectResponseERKNS_11ICollectionIS3_EEEUlS3_E_EE, 24
_ZTIN8opendnp314FunctorVisitorINS_7IndexedINS_17AnalogOutputInt32EEEZNS_18TypedCommandHeaderIS2_E19ApplySelectResponseERKNS_11ICollectionIS3_EEEUlS3_E_EE:
	.xword	_ZTVN10__cxxabiv120__si_class_type_infoE+16
	.xword	_ZTSN8opendnp314FunctorVisitorINS_7IndexedINS_17AnalogOutputInt32EEEZNS_18TypedCommandHeaderIS2_E19ApplySelectResponseERKNS_11ICollectionIS3_EEEUlS3_E_EE
	.xword	_ZTIN8opendnp38IVisitorINS_7IndexedINS_17AnalogOutputInt32EEEEE
	.weak	_ZTSN8opendnp314FunctorVisitorINS_7IndexedINS_17AnalogOutputInt32EEEZNS_18TypedCommandHeaderIS2_E20ApplyOperateResponseERKNS_11ICollectionIS3_EEEUlS3_E_EE
	.section	.rodata._ZTSN8opendnp314FunctorVisitorINS_7IndexedINS_17AnalogOutputInt32EEEZNS_18TypedCommandHeaderIS2_E20ApplyOperateResponseERKNS_11ICollectionIS3_EEEUlS3_E_EE,"aG",@progbits,_ZTSN8opendnp314FunctorVisitorINS_7IndexedINS_17AnalogOutputInt32EEEZNS_18TypedCommandHeaderIS2_E20ApplyOperateResponseERKNS_11ICollectionIS3_EEEUlS3_E_EE,comdat
	.align	3
	.type	_ZTSN8opendnp314FunctorVisitorINS_7IndexedINS_17AnalogOutputInt32EEEZNS_18TypedCommandHeaderIS2_E20ApplyOperateResponseERKNS_11ICollectionIS3_EEEUlS3_E_EE, %object
	.size	_ZTSN8opendnp314FunctorVisitorINS_7IndexedINS_17AnalogOutputInt32EEEZNS_18TypedCommandHeaderIS2_E20ApplyOperateResponseERKNS_11ICollectionIS3_EEEUlS3_E_EE, 151
_ZTSN8opendnp314FunctorVisitorINS_7IndexedINS_17AnalogOutputInt32EEEZNS_18TypedCommandHeaderIS2_E20ApplyOperateResponseERKNS_11ICollectionIS3_EEEUlS3_E_EE:
	.string	"N8opendnp314FunctorVisitorINS_7IndexedINS_17AnalogOutputInt32EEEZNS_18TypedCommandHeaderIS2_E20ApplyOperateResponseERKNS_11ICollectionIS3_EEEUlS3_E_EE"
	.weak	_ZTIN8opendnp314FunctorVisitorINS_7IndexedINS_17AnalogOutputInt32EEEZNS_18TypedCommandHeaderIS2_E20ApplyOperateResponseERKNS_11ICollectionIS3_EEEUlS3_E_EE
	.section	.data.rel.ro._ZTIN8opendnp314FunctorVisitorINS_7IndexedINS_17AnalogOutputInt32EEEZNS_18TypedCommandHeaderIS2_E20ApplyOperateResponseERKNS_11ICollectionIS3_EEEUlS3_E_EE,"awG",@progbits,_ZTIN8opendnp314FunctorVisitorINS_7IndexedINS_17AnalogOutputInt32EEEZNS_18TypedCommandHeaderIS2_E20ApplyOperateResponseERKNS_11ICollectionIS3_EEEUlS3_E_EE,comdat
	.align	3
	.type	_ZTIN8opendnp314FunctorVisitorINS_7IndexedINS_17AnalogOutputInt32EEEZNS_18TypedCommandHeaderIS2_E20ApplyOperateResponseERKNS_11ICollectionIS3_EEEUlS3_E_EE, %object
	.size	_ZTIN8opendnp314FunctorVisitorINS_7IndexedINS_17AnalogOutputInt32EEEZNS_18TypedCommandHeaderIS2_E20ApplyOperateResponseERKNS_11ICollectionIS3_EEEUlS3_E_EE, 24
_ZTIN8opendnp314FunctorVisitorINS_7IndexedINS_17AnalogOutputInt32EEEZNS_18TypedCommandHeaderIS2_E20ApplyOperateResponseERKNS_11ICollectionIS3_EEEUlS3_E_EE:
	.xword	_ZTVN10__cxxabiv120__si_class_type_infoE+16
	.xword	_ZTSN8opendnp314FunctorVisitorINS_7IndexedINS_17AnalogOutputInt32EEEZNS_18TypedCommandHeaderIS2_E20ApplyOperateResponseERKNS_11ICollectionIS3_EEEUlS3_E_EE
	.xword	_ZTIN8opendnp38IVisitorINS_7IndexedINS_17AnalogOutputInt32EEEEE
	.weak	_ZTSN8opendnp38IVisitorINS_7IndexedINS_23ControlRelayOutputBlockEEEEE
	.section	.rodata._ZTSN8opendnp38IVisitorINS_7IndexedINS_23ControlRelayOutputBlockEEEEE,"aG",@progbits,_ZTSN8opendnp38IVisitorINS_7IndexedINS_23ControlRelayOutputBlockEEEEE,comdat
	.align	3
	.type	_ZTSN8opendnp38IVisitorINS_7IndexedINS_23ControlRelayOutputBlockEEEEE, %object
	.size	_ZTSN8opendnp38IVisitorINS_7IndexedINS_23ControlRelayOutputBlockEEEEE, 66
_ZTSN8opendnp38IVisitorINS_7IndexedINS_23ControlRelayOutputBlockEEEEE:
	.string	"N8opendnp38IVisitorINS_7IndexedINS_23ControlRelayOutputBlockEEEEE"
	.weak	_ZTIN8opendnp38IVisitorINS_7IndexedINS_23ControlRelayOutputBlockEEEEE
	.section	.data.rel.ro._ZTIN8opendnp38IVisitorINS_7IndexedINS_23ControlRelayOutputBlockEEEEE,"awG",@progbits,_ZTIN8opendnp38IVisitorINS_7IndexedINS_23ControlRelayOutputBlockEEEEE,comdat
	.align	3
	.type	_ZTIN8opendnp38IVisitorINS_7IndexedINS_23ControlRelayOutputBlockEEEEE, %object
	.size	_ZTIN8opendnp38IVisitorINS_7IndexedINS_23ControlRelayOutputBlockEEEEE, 16
_ZTIN8opendnp38IVisitorINS_7IndexedINS_23ControlRelayOutputBlockEEEEE:
	.xword	_ZTVN10__cxxabiv117__class_type_infoE+16
	.xword	_ZTSN8opendnp38IVisitorINS_7IndexedINS_23ControlRelayOutputBlockEEEEE
	.weak	_ZTSN8opendnp314FunctorVisitorINS_7IndexedINS_23ControlRelayOutputBlockEEEZNS_18TypedCommandHeaderIS2_E19ApplySelectResponseERKNS_11ICollectionIS3_EEEUlS3_E_EE
	.section	.rodata._ZTSN8opendnp314FunctorVisitorINS_7IndexedINS_23ControlRelayOutputBlockEEEZNS_18TypedCommandHeaderIS2_E19ApplySelectResponseERKNS_11ICollectionIS3_EEEUlS3_E_EE,"aG",@progbits,_ZTSN8opendnp314FunctorVisitorINS_7IndexedINS_23ControlRelayOutputBlockEEEZNS_18TypedCommandHeaderIS2_E19ApplySelectResponseERKNS_11ICollectionIS3_EEEUlS3_E_EE,comdat
	.align	3
	.type	_ZTSN8opendnp314FunctorVisitorINS_7IndexedINS_23ControlRelayOutputBlockEEEZNS_18TypedCommandHeaderIS2_E19ApplySelectResponseERKNS_11ICollectionIS3_EEEUlS3_E_EE, %object
	.size	_ZTSN8opendnp314FunctorVisitorINS_7IndexedINS_23ControlRelayOutputBlockEEEZNS_18TypedCommandHeaderIS2_E19ApplySelectResponseERKNS_11ICollectionIS3_EEEUlS3_E_EE, 156
_ZTSN8opendnp314FunctorVisitorINS_7IndexedINS_23ControlRelayOutputBlockEEEZNS_18TypedCommandHeaderIS2_E19ApplySelectResponseERKNS_11ICollectionIS3_EEEUlS3_E_EE:
	.string	"N8opendnp314FunctorVisitorINS_7IndexedINS_23ControlRelayOutputBlockEEEZNS_18TypedCommandHeaderIS2_E19ApplySelectResponseERKNS_11ICollectionIS3_EEEUlS3_E_EE"
	.weak	_ZTIN8opendnp314FunctorVisitorINS_7IndexedINS_23ControlRelayOutputBlockEEEZNS_18TypedCommandHeaderIS2_E19ApplySelectResponseERKNS_11ICollectionIS3_EEEUlS3_E_EE
	.section	.data.rel.ro._ZTIN8opendnp314FunctorVisitorINS_7IndexedINS_23ControlRelayOutputBlockEEEZNS_18TypedCommandHeaderIS2_E19ApplySelectResponseERKNS_11ICollectionIS3_EEEUlS3_E_EE,"awG",@progbits,_ZTIN8opendnp314FunctorVisitorINS_7IndexedINS_23ControlRelayOutputBlockEEEZNS_18TypedCommandHeaderIS2_E19ApplySelectResponseERKNS_11ICollectionIS3_EEEUlS3_E_EE,comdat
	.align	3
	.type	_ZTIN8opendnp314FunctorVisitorINS_7IndexedINS_23ControlRelayOutputBlockEEEZNS_18TypedCommandHeaderIS2_E19ApplySelectResponseERKNS_11ICollectionIS3_EEEUlS3_E_EE, %object
	.size	_ZTIN8opendnp314FunctorVisitorINS_7IndexedINS_23ControlRelayOutputBlockEEEZNS_18TypedCommandHeaderIS2_E19ApplySelectResponseERKNS_11ICollectionIS3_EEEUlS3_E_EE, 24
_ZTIN8opendnp314FunctorVisitorINS_7IndexedINS_23ControlRelayOutputBlockEEEZNS_18TypedCommandHeaderIS2_E19ApplySelectResponseERKNS_11ICollectionIS3_EEEUlS3_E_EE:
	.xword	_ZTVN10__cxxabiv120__si_class_type_infoE+16
	.xword	_ZTSN8opendnp314FunctorVisitorINS_7IndexedINS_23ControlRelayOutputBlockEEEZNS_18TypedCommandHeaderIS2_E19ApplySelectResponseERKNS_11ICollectionIS3_EEEUlS3_E_EE
	.xword	_ZTIN8opendnp38IVisitorINS_7IndexedINS_23ControlRelayOutputBlockEEEEE
	.weak	_ZTSN8opendnp314FunctorVisitorINS_7IndexedINS_23ControlRelayOutputBlockEEEZNS_18TypedCommandHeaderIS2_E20ApplyOperateResponseERKNS_11ICollectionIS3_EEEUlS3_E_EE
	.section	.rodata._ZTSN8opendnp314FunctorVisitorINS_7IndexedINS_23ControlRelayOutputBlockEEEZNS_18TypedCommandHeaderIS2_E20ApplyOperateResponseERKNS_11ICollectionIS3_EEEUlS3_E_EE,"aG",@progbits,_ZTSN8opendnp314FunctorVisitorINS_7IndexedINS_23ControlRelayOutputBlockEEEZNS_18TypedCommandHeaderIS2_E20ApplyOperateResponseERKNS_11ICollectionIS3_EEEUlS3_E_EE,comdat
	.align	3
	.type	_ZTSN8opendnp314FunctorVisitorINS_7IndexedINS_23ControlRelayOutputBlockEEEZNS_18TypedCommandHeaderIS2_E20ApplyOperateResponseERKNS_11ICollectionIS3_EEEUlS3_E_EE, %object
	.size	_ZTSN8opendnp314FunctorVisitorINS_7IndexedINS_23ControlRelayOutputBlockEEEZNS_18TypedCommandHeaderIS2_E20ApplyOperateResponseERKNS_11ICollectionIS3_EEEUlS3_E_EE, 157
_ZTSN8opendnp314FunctorVisitorINS_7IndexedINS_23ControlRelayOutputBlockEEEZNS_18TypedCommandHeaderIS2_E20ApplyOperateResponseERKNS_11ICollectionIS3_EEEUlS3_E_EE:
	.string	"N8opendnp314FunctorVisitorINS_7IndexedINS_23ControlRelayOutputBlockEEEZNS_18TypedCommandHeaderIS2_E20ApplyOperateResponseERKNS_11ICollectionIS3_EEEUlS3_E_EE"
	.weak	_ZTIN8opendnp314FunctorVisitorINS_7IndexedINS_23ControlRelayOutputBlockEEEZNS_18TypedCommandHeaderIS2_E20ApplyOperateResponseERKNS_11ICollectionIS3_EEEUlS3_E_EE
	.section	.data.rel.ro._ZTIN8opendnp314FunctorVisitorINS_7IndexedINS_23ControlRelayOutputBlockEEEZNS_18TypedCommandHeaderIS2_E20ApplyOperateResponseERKNS_11ICollectionIS3_EEEUlS3_E_EE,"awG",@progbits,_ZTIN8opendnp314FunctorVisitorINS_7IndexedINS_23ControlRelayOutputBlockEEEZNS_18TypedCommandHeaderIS2_E20ApplyOperateResponseERKNS_11ICollectionIS3_EEEUlS3_E_EE,comdat
	.align	3
	.type	_ZTIN8opendnp314FunctorVisitorINS_7IndexedINS_23ControlRelayOutputBlockEEEZNS_18TypedCommandHeaderIS2_E20ApplyOperateResponseERKNS_11ICollectionIS3_EEEUlS3_E_EE, %object
	.size	_ZTIN8opendnp314FunctorVisitorINS_7IndexedINS_23ControlRelayOutputBlockEEEZNS_18TypedCommandHeaderIS2_E20ApplyOperateResponseERKNS_11ICollectionIS3_EEEUlS3_E_EE, 24
_ZTIN8opendnp314FunctorVisitorINS_7IndexedINS_23ControlRelayOutputBlockEEEZNS_18TypedCommandHeaderIS2_E20ApplyOperateResponseERKNS_11ICollectionIS3_EEEUlS3_E_EE:
	.xword	_ZTVN10__cxxabiv120__si_class_type_infoE+16
	.xword	_ZTSN8opendnp314FunctorVisitorINS_7IndexedINS_23ControlRelayOutputBlockEEEZNS_18TypedCommandHeaderIS2_E20ApplyOperateResponseERKNS_11ICollectionIS3_EEEUlS3_E_EE
	.xword	_ZTIN8opendnp38IVisitorINS_7IndexedINS_23ControlRelayOutputBlockEEEEE
	.weak	_ZTVN8opendnp314FunctorVisitorINS_7IndexedINS_20AnalogOutputDouble64EEEZNS_18TypedCommandHeaderIS2_E19ApplySelectResponseERKNS_11ICollectionIS3_EEEUlS3_E_EE
	.section	.data.rel.ro._ZTVN8opendnp314FunctorVisitorINS_7IndexedINS_20AnalogOutputDouble64EEEZNS_18TypedCommandHeaderIS2_E19ApplySelectResponseERKNS_11ICollectionIS3_EEEUlS3_E_EE,"awG",@progbits,_ZTVN8opendnp314FunctorVisitorINS_7IndexedINS_20AnalogOutputDouble64EEEZNS_18TypedCommandHeaderIS2_E19ApplySelectResponseERKNS_11ICollectionIS3_EEEUlS3_E_EE,comdat
	.align	3
	.type	_ZTVN8opendnp314FunctorVisitorINS_7IndexedINS_20AnalogOutputDouble64EEEZNS_18TypedCommandHeaderIS2_E19ApplySelectResponseERKNS_11ICollectionIS3_EEEUlS3_E_EE, %object
	.size	_ZTVN8opendnp314FunctorVisitorINS_7IndexedINS_20AnalogOutputDouble64EEEZNS_18TypedCommandHeaderIS2_E19ApplySelectResponseERKNS_11ICollectionIS3_EEEUlS3_E_EE, 24
_ZTVN8opendnp314FunctorVisitorINS_7IndexedINS_20AnalogOutputDouble64EEEZNS_18TypedCommandHeaderIS2_E19ApplySelectResponseERKNS_11ICollectionIS3_EEEUlS3_E_EE:
	.xword	0
	.xword	_ZTIN8opendnp314FunctorVisitorINS_7IndexedINS_20AnalogOutputDouble64EEEZNS_18TypedCommandHeaderIS2_E19ApplySelectResponseERKNS_11ICollectionIS3_EEEUlS3_E_EE
	.xword	_ZN8opendnp314FunctorVisitorINS_7IndexedINS_20AnalogOutputDouble64EEEZNS_18TypedCommandHeaderIS2_E19ApplySelectResponseERKNS_11ICollectionIS3_EEEUlS3_E_E7OnValueERKS3_
	.weak	_ZTVN8opendnp314FunctorVisitorINS_7IndexedINS_20AnalogOutputDouble64EEEZNS_18TypedCommandHeaderIS2_E20ApplyOperateResponseERKNS_11ICollectionIS3_EEEUlS3_E_EE
	.section	.data.rel.ro._ZTVN8opendnp314FunctorVisitorINS_7IndexedINS_20AnalogOutputDouble64EEEZNS_18TypedCommandHeaderIS2_E20ApplyOperateResponseERKNS_11ICollectionIS3_EEEUlS3_E_EE,"awG",@progbits,_ZTVN8opendnp314FunctorVisitorINS_7IndexedINS_20AnalogOutputDouble64EEEZNS_18TypedCommandHeaderIS2_E20ApplyOperateResponseERKNS_11ICollectionIS3_EEEUlS3_E_EE,comdat
	.align	3
	.type	_ZTVN8opendnp314FunctorVisitorINS_7IndexedINS_20AnalogOutputDouble64EEEZNS_18TypedCommandHeaderIS2_E20ApplyOperateResponseERKNS_11ICollectionIS3_EEEUlS3_E_EE, %object
	.size	_ZTVN8opendnp314FunctorVisitorINS_7IndexedINS_20AnalogOutputDouble64EEEZNS_18TypedCommandHeaderIS2_E20ApplyOperateResponseERKNS_11ICollectionIS3_EEEUlS3_E_EE, 24
_ZTVN8opendnp314FunctorVisitorINS_7IndexedINS_20AnalogOutputDouble64EEEZNS_18TypedCommandHeaderIS2_E20ApplyOperateResponseERKNS_11ICollectionIS3_EEEUlS3_E_EE:
	.xword	0
	.xword	_ZTIN8opendnp314FunctorVisitorINS_7IndexedINS_20AnalogOutputDouble64EEEZNS_18TypedCommandHeaderIS2_E20ApplyOperateResponseERKNS_11ICollectionIS3_EEEUlS3_E_EE
	.xword	_ZN8opendnp314FunctorVisitorINS_7IndexedINS_20AnalogOutputDouble64EEEZNS_18TypedCommandHeaderIS2_E20ApplyOperateResponseERKNS_11ICollectionIS3_EEEUlS3_E_E7OnValueERKS3_
	.weak	_ZTVN8opendnp314FunctorVisitorINS_7IndexedINS_19AnalogOutputFloat32EEEZNS_18TypedCommandHeaderIS2_E19ApplySelectResponseERKNS_11ICollectionIS3_EEEUlS3_E_EE
	.section	.data.rel.ro._ZTVN8opendnp314FunctorVisitorINS_7IndexedINS_19AnalogOutputFloat32EEEZNS_18TypedCommandHeaderIS2_E19ApplySelectResponseERKNS_11ICollectionIS3_EEEUlS3_E_EE,"awG",@progbits,_ZTVN8opendnp314FunctorVisitorINS_7IndexedINS_19AnalogOutputFloat32EEEZNS_18TypedCommandHeaderIS2_E19ApplySelectResponseERKNS_11ICollectionIS3_EEEUlS3_E_EE,comdat
	.align	3
	.type	_ZTVN8opendnp314FunctorVisitorINS_7IndexedINS_19AnalogOutputFloat32EEEZNS_18TypedCommandHeaderIS2_E19ApplySelectResponseERKNS_11ICollectionIS3_EEEUlS3_E_EE, %object
	.size	_ZTVN8opendnp314FunctorVisitorINS_7IndexedINS_19AnalogOutputFloat32EEEZNS_18TypedCommandHeaderIS2_E19ApplySelectResponseERKNS_11ICollectionIS3_EEEUlS3_E_EE, 24
_ZTVN8opendnp314FunctorVisitorINS_7IndexedINS_19AnalogOutputFloat32EEEZNS_18TypedCommandHeaderIS2_E19ApplySelectResponseERKNS_11ICollectionIS3_EEEUlS3_E_EE:
	.xword	0
	.xword	_ZTIN8opendnp314FunctorVisitorINS_7IndexedINS_19AnalogOutputFloat32EEEZNS_18TypedCommandHeaderIS2_E19ApplySelectResponseERKNS_11ICollectionIS3_EEEUlS3_E_EE
	.xword	_ZN8opendnp314FunctorVisitorINS_7IndexedINS_19AnalogOutputFloat32EEEZNS_18TypedCommandHeaderIS2_E19ApplySelectResponseERKNS_11ICollectionIS3_EEEUlS3_E_E7OnValueERKS3_
	.weak	_ZTVN8opendnp314FunctorVisitorINS_7IndexedINS_19AnalogOutputFloat32EEEZNS_18TypedCommandHeaderIS2_E20ApplyOperateResponseERKNS_11ICollectionIS3_EEEUlS3_E_EE
	.section	.data.rel.ro._ZTVN8opendnp314FunctorVisitorINS_7IndexedINS_19AnalogOutputFloat32EEEZNS_18TypedCommandHeaderIS2_E20ApplyOperateResponseERKNS_11ICollectionIS3_EEEUlS3_E_EE,"awG",@progbits,_ZTVN8opendnp314FunctorVisitorINS_7IndexedINS_19AnalogOutputFloat32EEEZNS_18TypedCommandHeaderIS2_E20ApplyOperateResponseERKNS_11ICollectionIS3_EEEUlS3_E_EE,comdat
	.align	3
	.type	_ZTVN8opendnp314FunctorVisitorINS_7IndexedINS_19AnalogOutputFloat32EEEZNS_18TypedCommandHeaderIS2_E20ApplyOperateResponseERKNS_11ICollectionIS3_EEEUlS3_E_EE, %object
	.size	_ZTVN8opendnp314FunctorVisitorINS_7IndexedINS_19AnalogOutputFloat32EEEZNS_18TypedCommandHeaderIS2_E20ApplyOperateResponseERKNS_11ICollectionIS3_EEEUlS3_E_EE, 24
_ZTVN8opendnp314FunctorVisitorINS_7IndexedINS_19AnalogOutputFloat32EEEZNS_18TypedCommandHeaderIS2_E20ApplyOperateResponseERKNS_11ICollectionIS3_EEEUlS3_E_EE:
	.xword	0
	.xword	_ZTIN8opendnp314FunctorVisitorINS_7IndexedINS_19AnalogOutputFloat32EEEZNS_18TypedCommandHeaderIS2_E20ApplyOperateResponseERKNS_11ICollectionIS3_EEEUlS3_E_EE
	.xword	_ZN8opendnp314FunctorVisitorINS_7IndexedINS_19AnalogOutputFloat32EEEZNS_18TypedCommandHeaderIS2_E20ApplyOperateResponseERKNS_11ICollectionIS3_EEEUlS3_E_E7OnValueERKS3_
	.weak	_ZTVN8opendnp314FunctorVisitorINS_7IndexedINS_17AnalogOutputInt16EEEZNS_18TypedCommandHeaderIS2_E19ApplySelectResponseERKNS_11ICollectionIS3_EEEUlS3_E_EE
	.section	.data.rel.ro._ZTVN8opendnp314FunctorVisitorINS_7IndexedINS_17AnalogOutputInt16EEEZNS_18TypedCommandHeaderIS2_E19ApplySelectResponseERKNS_11ICollectionIS3_EEEUlS3_E_EE,"awG",@progbits,_ZTVN8opendnp314FunctorVisitorINS_7IndexedINS_17AnalogOutputInt16EEEZNS_18TypedCommandHeaderIS2_E19ApplySelectResponseERKNS_11ICollectionIS3_EEEUlS3_E_EE,comdat
	.align	3
	.type	_ZTVN8opendnp314FunctorVisitorINS_7IndexedINS_17AnalogOutputInt16EEEZNS_18TypedCommandHeaderIS2_E19ApplySelectResponseERKNS_11ICollectionIS3_EEEUlS3_E_EE, %object
	.size	_ZTVN8opendnp314FunctorVisitorINS_7IndexedINS_17AnalogOutputInt16EEEZNS_18TypedCommandHeaderIS2_E19ApplySelectResponseERKNS_11ICollectionIS3_EEEUlS3_E_EE, 24
_ZTVN8opendnp314FunctorVisitorINS_7IndexedINS_17AnalogOutputInt16EEEZNS_18TypedCommandHeaderIS2_E19ApplySelectResponseERKNS_11ICollectionIS3_EEEUlS3_E_EE:
	.xword	0
	.xword	_ZTIN8opendnp314FunctorVisitorINS_7IndexedINS_17AnalogOutputInt16EEEZNS_18TypedCommandHeaderIS2_E19ApplySelectResponseERKNS_11ICollectionIS3_EEEUlS3_E_EE
	.xword	_ZN8opendnp314FunctorVisitorINS_7IndexedINS_17AnalogOutputInt16EEEZNS_18TypedCommandHeaderIS2_E19ApplySelectResponseERKNS_11ICollectionIS3_EEEUlS3_E_E7OnValueERKS3_
	.weak	_ZTVN8opendnp314FunctorVisitorINS_7IndexedINS_17AnalogOutputInt16EEEZNS_18TypedCommandHeaderIS2_E20ApplyOperateResponseERKNS_11ICollectionIS3_EEEUlS3_E_EE
	.section	.data.rel.ro._ZTVN8opendnp314FunctorVisitorINS_7IndexedINS_17AnalogOutputInt16EEEZNS_18TypedCommandHeaderIS2_E20ApplyOperateResponseERKNS_11ICollectionIS3_EEEUlS3_E_EE,"awG",@progbits,_ZTVN8opendnp314FunctorVisitorINS_7IndexedINS_17AnalogOutputInt16EEEZNS_18TypedCommandHeaderIS2_E20ApplyOperateResponseERKNS_11ICollectionIS3_EEEUlS3_E_EE,comdat
	.align	3
	.type	_ZTVN8opendnp314FunctorVisitorINS_7IndexedINS_17AnalogOutputInt16EEEZNS_18TypedCommandHeaderIS2_E20ApplyOperateResponseERKNS_11ICollectionIS3_EEEUlS3_E_EE, %object
	.size	_ZTVN8opendnp314FunctorVisitorINS_7IndexedINS_17AnalogOutputInt16EEEZNS_18TypedCommandHeaderIS2_E20ApplyOperateResponseERKNS_11ICollectionIS3_EEEUlS3_E_EE, 24
_ZTVN8opendnp314FunctorVisitorINS_7IndexedINS_17AnalogOutputInt16EEEZNS_18TypedCommandHeaderIS2_E20ApplyOperateResponseERKNS_11ICollectionIS3_EEEUlS3_E_EE:
	.xword	0
	.xword	_ZTIN8opendnp314FunctorVisitorINS_7IndexedINS_17AnalogOutputInt16EEEZNS_18TypedCommandHeaderIS2_E20ApplyOperateResponseERKNS_11ICollectionIS3_EEEUlS3_E_EE
	.xword	_ZN8opendnp314FunctorVisitorINS_7IndexedINS_17AnalogOutputInt16EEEZNS_18TypedCommandHeaderIS2_E20ApplyOperateResponseERKNS_11ICollectionIS3_EEEUlS3_E_E7OnValueERKS3_
	.weak	_ZTVN8opendnp314FunctorVisitorINS_7IndexedINS_17AnalogOutputInt32EEEZNS_18TypedCommandHeaderIS2_E19ApplySelectResponseERKNS_11ICollectionIS3_EEEUlS3_E_EE
	.section	.data.rel.ro._ZTVN8opendnp314FunctorVisitorINS_7IndexedINS_17AnalogOutputInt32EEEZNS_18TypedCommandHeaderIS2_E19ApplySelectResponseERKNS_11ICollectionIS3_EEEUlS3_E_EE,"awG",@progbits,_ZTVN8opendnp314FunctorVisitorINS_7IndexedINS_17AnalogOutputInt32EEEZNS_18TypedCommandHeaderIS2_E19ApplySelectResponseERKNS_11ICollectionIS3_EEEUlS3_E_EE,comdat
	.align	3
	.type	_ZTVN8opendnp314FunctorVisitorINS_7IndexedINS_17AnalogOutputInt32EEEZNS_18TypedCommandHeaderIS2_E19ApplySelectResponseERKNS_11ICollectionIS3_EEEUlS3_E_EE, %object
	.size	_ZTVN8opendnp314FunctorVisitorINS_7IndexedINS_17AnalogOutputInt32EEEZNS_18TypedCommandHeaderIS2_E19ApplySelectResponseERKNS_11ICollectionIS3_EEEUlS3_E_EE, 24
_ZTVN8opendnp314FunctorVisitorINS_7IndexedINS_17AnalogOutputInt32EEEZNS_18TypedCommandHeaderIS2_E19ApplySelectResponseERKNS_11ICollectionIS3_EEEUlS3_E_EE:
	.xword	0
	.xword	_ZTIN8opendnp314FunctorVisitorINS_7IndexedINS_17AnalogOutputInt32EEEZNS_18TypedCommandHeaderIS2_E19ApplySelectResponseERKNS_11ICollectionIS3_EEEUlS3_E_EE
	.xword	_ZN8opendnp314FunctorVisitorINS_7IndexedINS_17AnalogOutputInt32EEEZNS_18TypedCommandHeaderIS2_E19ApplySelectResponseERKNS_11ICollectionIS3_EEEUlS3_E_E7OnValueERKS3_
	.weak	_ZTVN8opendnp314FunctorVisitorINS_7IndexedINS_17AnalogOutputInt32EEEZNS_18TypedCommandHeaderIS2_E20ApplyOperateResponseERKNS_11ICollectionIS3_EEEUlS3_E_EE
	.section	.data.rel.ro._ZTVN8opendnp314FunctorVisitorINS_7IndexedINS_17AnalogOutputInt32EEEZNS_18TypedCommandHeaderIS2_E20ApplyOperateResponseERKNS_11ICollectionIS3_EEEUlS3_E_EE,"awG",@progbits,_ZTVN8opendnp314FunctorVisitorINS_7IndexedINS_17AnalogOutputInt32EEEZNS_18TypedCommandHeaderIS2_E20ApplyOperateResponseERKNS_11ICollectionIS3_EEEUlS3_E_EE,comdat
	.align	3
	.type	_ZTVN8opendnp314FunctorVisitorINS_7IndexedINS_17AnalogOutputInt32EEEZNS_18TypedCommandHeaderIS2_E20ApplyOperateResponseERKNS_11ICollectionIS3_EEEUlS3_E_EE, %object
	.size	_ZTVN8opendnp314FunctorVisitorINS_7IndexedINS_17AnalogOutputInt32EEEZNS_18TypedCommandHeaderIS2_E20ApplyOperateResponseERKNS_11ICollectionIS3_EEEUlS3_E_EE, 24
_ZTVN8opendnp314FunctorVisitorINS_7IndexedINS_17AnalogOutputInt32EEEZNS_18TypedCommandHeaderIS2_E20ApplyOperateResponseERKNS_11ICollectionIS3_EEEUlS3_E_EE:
	.xword	0
	.xword	_ZTIN8opendnp314FunctorVisitorINS_7IndexedINS_17AnalogOutputInt32EEEZNS_18TypedCommandHeaderIS2_E20ApplyOperateResponseERKNS_11ICollectionIS3_EEEUlS3_E_EE
	.xword	_ZN8opendnp314FunctorVisitorINS_7IndexedINS_17AnalogOutputInt32EEEZNS_18TypedCommandHeaderIS2_E20ApplyOperateResponseERKNS_11ICollectionIS3_EEEUlS3_E_E7OnValueERKS3_
	.weak	_ZTVN8opendnp314FunctorVisitorINS_7IndexedINS_23ControlRelayOutputBlockEEEZNS_18TypedCommandHeaderIS2_E19ApplySelectResponseERKNS_11ICollectionIS3_EEEUlS3_E_EE
	.section	.data.rel.ro._ZTVN8opendnp314FunctorVisitorINS_7IndexedINS_23ControlRelayOutputBlockEEEZNS_18TypedCommandHeaderIS2_E19ApplySelectResponseERKNS_11ICollectionIS3_EEEUlS3_E_EE,"awG",@progbits,_ZTVN8opendnp314FunctorVisitorINS_7IndexedINS_23ControlRelayOutputBlockEEEZNS_18TypedCommandHeaderIS2_E19ApplySelectResponseERKNS_11ICollectionIS3_EEEUlS3_E_EE,comdat
	.align	3
	.type	_ZTVN8opendnp314FunctorVisitorINS_7IndexedINS_23ControlRelayOutputBlockEEEZNS_18TypedCommandHeaderIS2_E19ApplySelectResponseERKNS_11ICollectionIS3_EEEUlS3_E_EE, %object
	.size	_ZTVN8opendnp314FunctorVisitorINS_7IndexedINS_23ControlRelayOutputBlockEEEZNS_18TypedCommandHeaderIS2_E19ApplySelectResponseERKNS_11ICollectionIS3_EEEUlS3_E_EE, 24
_ZTVN8opendnp314FunctorVisitorINS_7IndexedINS_23ControlRelayOutputBlockEEEZNS_18TypedCommandHeaderIS2_E19ApplySelectResponseERKNS_11ICollectionIS3_EEEUlS3_E_EE:
	.xword	0
	.xword	_ZTIN8opendnp314FunctorVisitorINS_7IndexedINS_23ControlRelayOutputBlockEEEZNS_18TypedCommandHeaderIS2_E19ApplySelectResponseERKNS_11ICollectionIS3_EEEUlS3_E_EE
	.xword	_ZN8opendnp314FunctorVisitorINS_7IndexedINS_23ControlRelayOutputBlockEEEZNS_18TypedCommandHeaderIS2_E19ApplySelectResponseERKNS_11ICollectionIS3_EEEUlS3_E_E7OnValueERKS3_
	.weak	_ZTVN8opendnp314FunctorVisitorINS_7IndexedINS_23ControlRelayOutputBlockEEEZNS_18TypedCommandHeaderIS2_E20ApplyOperateResponseERKNS_11ICollectionIS3_EEEUlS3_E_EE
	.section	.data.rel.ro._ZTVN8opendnp314FunctorVisitorINS_7IndexedINS_23ControlRelayOutputBlockEEEZNS_18TypedCommandHeaderIS2_E20ApplyOperateResponseERKNS_11ICollectionIS3_EEEUlS3_E_EE,"awG",@progbits,_ZTVN8opendnp314FunctorVisitorINS_7IndexedINS_23ControlRelayOutputBlockEEEZNS_18TypedCommandHeaderIS2_E20ApplyOperateResponseERKNS_11ICollectionIS3_EEEUlS3_E_EE,comdat
	.align	3
	.type	_ZTVN8opendnp314FunctorVisitorINS_7IndexedINS_23ControlRelayOutputBlockEEEZNS_18TypedCommandHeaderIS2_E20ApplyOperateResponseERKNS_11ICollectionIS3_EEEUlS3_E_EE, %object
	.size	_ZTVN8opendnp314FunctorVisitorINS_7IndexedINS_23ControlRelayOutputBlockEEEZNS_18TypedCommandHeaderIS2_E20ApplyOperateResponseERKNS_11ICollectionIS3_EEEUlS3_E_EE, 24
_ZTVN8opendnp314FunctorVisitorINS_7IndexedINS_23ControlRelayOutputBlockEEEZNS_18TypedCommandHeaderIS2_E20ApplyOperateResponseERKNS_11ICollectionIS3_EEEUlS3_E_EE:
	.xword	0
	.xword	_ZTIN8opendnp314FunctorVisitorINS_7IndexedINS_23ControlRelayOutputBlockEEEZNS_18TypedCommandHeaderIS2_E20ApplyOperateResponseERKNS_11ICollectionIS3_EEEUlS3_E_EE
	.xword	_ZN8opendnp314FunctorVisitorINS_7IndexedINS_23ControlRelayOutputBlockEEEZNS_18TypedCommandHeaderIS2_E20ApplyOperateResponseERKNS_11ICollectionIS3_EEEUlS3_E_E7OnValueERKS3_
	.weak	_ZTSN8opendnp311ICollectionINS_12CommandStateEEE
	.section	.rodata._ZTSN8opendnp311ICollectionINS_12CommandStateEEE,"aG",@progbits,_ZTSN8opendnp311ICollectionINS_12CommandStateEEE,comdat
	.align	3
	.type	_ZTSN8opendnp311ICollectionINS_12CommandStateEEE, %object
	.size	_ZTSN8opendnp311ICollectionINS_12CommandStateEEE, 45
_ZTSN8opendnp311ICollectionINS_12CommandStateEEE:
	.string	"N8opendnp311ICollectionINS_12CommandStateEEE"
	.weak	_ZTIN8opendnp311ICollectionINS_12CommandStateEEE
	.section	.data.rel.ro._ZTIN8opendnp311ICollectionINS_12CommandStateEEE,"awG",@progbits,_ZTIN8opendnp311ICollectionINS_12CommandStateEEE,comdat
	.align	3
	.type	_ZTIN8opendnp311ICollectionINS_12CommandStateEEE, %object
	.size	_ZTIN8opendnp311ICollectionINS_12CommandStateEEE, 16
_ZTIN8opendnp311ICollectionINS_12CommandStateEEE:
	.xword	_ZTVN10__cxxabiv117__class_type_infoE+16
	.xword	_ZTSN8opendnp311ICollectionINS_12CommandStateEEE
	.weak	_ZTSN8opendnp314ICommandHeaderE
	.section	.rodata._ZTSN8opendnp314ICommandHeaderE,"aG",@progbits,_ZTSN8opendnp314ICommandHeaderE,comdat
	.align	3
	.type	_ZTSN8opendnp314ICommandHeaderE, %object
	.size	_ZTSN8opendnp314ICommandHeaderE, 28
_ZTSN8opendnp314ICommandHeaderE:
	.string	"N8opendnp314ICommandHeaderE"
	.weak	_ZTIN8opendnp314ICommandHeaderE
	.section	.data.rel.ro._ZTIN8opendnp314ICommandHeaderE,"awG",@progbits,_ZTIN8opendnp314ICommandHeaderE,comdat
	.align	3
	.type	_ZTIN8opendnp314ICommandHeaderE, %object
	.size	_ZTIN8opendnp314ICommandHeaderE, 24
_ZTIN8opendnp314ICommandHeaderE:
	.xword	_ZTVN10__cxxabiv120__si_class_type_infoE+16
	.xword	_ZTSN8opendnp314ICommandHeaderE
	.xword	_ZTIN8opendnp311ICollectionINS_12CommandStateEEE
	.weak	_ZTSN8opendnp318ICommandCollectionINS_23ControlRelayOutputBlockEEE
	.section	.rodata._ZTSN8opendnp318ICommandCollectionINS_23ControlRelayOutputBlockEEE,"aG",@progbits,_ZTSN8opendnp318ICommandCollectionINS_23ControlRelayOutputBlockEEE,comdat
	.align	3
	.type	_ZTSN8opendnp318ICommandCollectionINS_23ControlRelayOutputBlockEEE, %object
	.size	_ZTSN8opendnp318ICommandCollectionINS_23ControlRelayOutputBlockEEE, 63
_ZTSN8opendnp318ICommandCollectionINS_23ControlRelayOutputBlockEEE:
	.string	"N8opendnp318ICommandCollectionINS_23ControlRelayOutputBlockEEE"
	.weak	_ZTIN8opendnp318ICommandCollectionINS_23ControlRelayOutputBlockEEE
	.section	.data.rel.ro._ZTIN8opendnp318ICommandCollectionINS_23ControlRelayOutputBlockEEE,"awG",@progbits,_ZTIN8opendnp318ICommandCollectionINS_23ControlRelayOutputBlockEEE,comdat
	.align	3
	.type	_ZTIN8opendnp318ICommandCollectionINS_23ControlRelayOutputBlockEEE, %object
	.size	_ZTIN8opendnp318ICommandCollectionINS_23ControlRelayOutputBlockEEE, 16
_ZTIN8opendnp318ICommandCollectionINS_23ControlRelayOutputBlockEEE:
	.xword	_ZTVN10__cxxabiv117__class_type_infoE+16
	.xword	_ZTSN8opendnp318ICommandCollectionINS_23ControlRelayOutputBlockEEE
	.weak	_ZTSN8opendnp318TypedCommandHeaderINS_23ControlRelayOutputBlockEEE
	.section	.rodata._ZTSN8opendnp318TypedCommandHeaderINS_23ControlRelayOutputBlockEEE,"aG",@progbits,_ZTSN8opendnp318TypedCommandHeaderINS_23ControlRelayOutputBlockEEE,comdat
	.align	3
	.type	_ZTSN8opendnp318TypedCommandHeaderINS_23ControlRelayOutputBlockEEE, %object
	.size	_ZTSN8opendnp318TypedCommandHeaderINS_23ControlRelayOutputBlockEEE, 63
_ZTSN8opendnp318TypedCommandHeaderINS_23ControlRelayOutputBlockEEE:
	.string	"N8opendnp318TypedCommandHeaderINS_23ControlRelayOutputBlockEEE"
	.weak	_ZTIN8opendnp318TypedCommandHeaderINS_23ControlRelayOutputBlockEEE
	.section	.data.rel.ro._ZTIN8opendnp318TypedCommandHeaderINS_23ControlRelayOutputBlockEEE,"awG",@progbits,_ZTIN8opendnp318TypedCommandHeaderINS_23ControlRelayOutputBlockEEE,comdat
	.align	3
	.type	_ZTIN8opendnp318TypedCommandHeaderINS_23ControlRelayOutputBlockEEE, %object
	.size	_ZTIN8opendnp318TypedCommandHeaderINS_23ControlRelayOutputBlockEEE, 56
_ZTIN8opendnp318TypedCommandHeaderINS_23ControlRelayOutputBlockEEE:
	.xword	_ZTVN10__cxxabiv121__vmi_class_type_infoE+16
	.xword	_ZTSN8opendnp318TypedCommandHeaderINS_23ControlRelayOutputBlockEEE
	.word	0
	.word	2
	.xword	_ZTIN8opendnp314ICommandHeaderE
	.xword	2
	.xword	_ZTIN8opendnp318ICommandCollectionINS_23ControlRelayOutputBlockEEE
	.xword	2050
	.weak	_ZTSN8opendnp318ICommandCollectionINS_17AnalogOutputInt32EEE
	.section	.rodata._ZTSN8opendnp318ICommandCollectionINS_17AnalogOutputInt32EEE,"aG",@progbits,_ZTSN8opendnp318ICommandCollectionINS_17AnalogOutputInt32EEE,comdat
	.align	3
	.type	_ZTSN8opendnp318ICommandCollectionINS_17AnalogOutputInt32EEE, %object
	.size	_ZTSN8opendnp318ICommandCollectionINS_17AnalogOutputInt32EEE, 57
_ZTSN8opendnp318ICommandCollectionINS_17AnalogOutputInt32EEE:
	.string	"N8opendnp318ICommandCollectionINS_17AnalogOutputInt32EEE"
	.weak	_ZTIN8opendnp318ICommandCollectionINS_17AnalogOutputInt32EEE
	.section	.data.rel.ro._ZTIN8opendnp318ICommandCollectionINS_17AnalogOutputInt32EEE,"awG",@progbits,_ZTIN8opendnp318ICommandCollectionINS_17AnalogOutputInt32EEE,comdat
	.align	3
	.type	_ZTIN8opendnp318ICommandCollectionINS_17AnalogOutputInt32EEE, %object
	.size	_ZTIN8opendnp318ICommandCollectionINS_17AnalogOutputInt32EEE, 16
_ZTIN8opendnp318ICommandCollectionINS_17AnalogOutputInt32EEE:
	.xword	_ZTVN10__cxxabiv117__class_type_infoE+16
	.xword	_ZTSN8opendnp318ICommandCollectionINS_17AnalogOutputInt32EEE
	.weak	_ZTSN8opendnp318TypedCommandHeaderINS_17AnalogOutputInt32EEE
	.section	.rodata._ZTSN8opendnp318TypedCommandHeaderINS_17AnalogOutputInt32EEE,"aG",@progbits,_ZTSN8opendnp318TypedCommandHeaderINS_17AnalogOutputInt32EEE,comdat
	.align	3
	.type	_ZTSN8opendnp318TypedCommandHeaderINS_17AnalogOutputInt32EEE, %object
	.size	_ZTSN8opendnp318TypedCommandHeaderINS_17AnalogOutputInt32EEE, 57
_ZTSN8opendnp318TypedCommandHeaderINS_17AnalogOutputInt32EEE:
	.string	"N8opendnp318TypedCommandHeaderINS_17AnalogOutputInt32EEE"
	.weak	_ZTIN8opendnp318TypedCommandHeaderINS_17AnalogOutputInt32EEE
	.section	.data.rel.ro._ZTIN8opendnp318TypedCommandHeaderINS_17AnalogOutputInt32EEE,"awG",@progbits,_ZTIN8opendnp318TypedCommandHeaderINS_17AnalogOutputInt32EEE,comdat
	.align	3
	.type	_ZTIN8opendnp318TypedCommandHeaderINS_17AnalogOutputInt32EEE, %object
	.size	_ZTIN8opendnp318TypedCommandHeaderINS_17AnalogOutputInt32EEE, 56
_ZTIN8opendnp318TypedCommandHeaderINS_17AnalogOutputInt32EEE:
	.xword	_ZTVN10__cxxabiv121__vmi_class_type_infoE+16
	.xword	_ZTSN8opendnp318TypedCommandHeaderINS_17AnalogOutputInt32EEE
	.word	0
	.word	2
	.xword	_ZTIN8opendnp314ICommandHeaderE
	.xword	2
	.xword	_ZTIN8opendnp318ICommandCollectionINS_17AnalogOutputInt32EEE
	.xword	2050
	.weak	_ZTSN8opendnp318ICommandCollectionINS_17AnalogOutputInt16EEE
	.section	.rodata._ZTSN8opendnp318ICommandCollectionINS_17AnalogOutputInt16EEE,"aG",@progbits,_ZTSN8opendnp318ICommandCollectionINS_17AnalogOutputInt16EEE,comdat
	.align	3
	.type	_ZTSN8opendnp318ICommandCollectionINS_17AnalogOutputInt16EEE, %object
	.size	_ZTSN8opendnp318ICommandCollectionINS_17AnalogOutputInt16EEE, 57
_ZTSN8opendnp318ICommandCollectionINS_17AnalogOutputInt16EEE:
	.string	"N8opendnp318ICommandCollectionINS_17AnalogOutputInt16EEE"
	.weak	_ZTIN8opendnp318ICommandCollectionINS_17AnalogOutputInt16EEE
	.section	.data.rel.ro._ZTIN8opendnp318ICommandCollectionINS_17AnalogOutputInt16EEE,"awG",@progbits,_ZTIN8opendnp318ICommandCollectionINS_17AnalogOutputInt16EEE,comdat
	.align	3
	.type	_ZTIN8opendnp318ICommandCollectionINS_17AnalogOutputInt16EEE, %object
	.size	_ZTIN8opendnp318ICommandCollectionINS_17AnalogOutputInt16EEE, 16
_ZTIN8opendnp318ICommandCollectionINS_17AnalogOutputInt16EEE:
	.xword	_ZTVN10__cxxabiv117__class_type_infoE+16
	.xword	_ZTSN8opendnp318ICommandCollectionINS_17AnalogOutputInt16EEE
	.weak	_ZTSN8opendnp318TypedCommandHeaderINS_17AnalogOutputInt16EEE
	.section	.rodata._ZTSN8opendnp318TypedCommandHeaderINS_17AnalogOutputInt16EEE,"aG",@progbits,_ZTSN8opendnp318TypedCommandHeaderINS_17AnalogOutputInt16EEE,comdat
	.align	3
	.type	_ZTSN8opendnp318TypedCommandHeaderINS_17AnalogOutputInt16EEE, %object
	.size	_ZTSN8opendnp318TypedCommandHeaderINS_17AnalogOutputInt16EEE, 57
_ZTSN8opendnp318TypedCommandHeaderINS_17AnalogOutputInt16EEE:
	.string	"N8opendnp318TypedCommandHeaderINS_17AnalogOutputInt16EEE"
	.weak	_ZTIN8opendnp318TypedCommandHeaderINS_17AnalogOutputInt16EEE
	.section	.data.rel.ro._ZTIN8opendnp318TypedCommandHeaderINS_17AnalogOutputInt16EEE,"awG",@progbits,_ZTIN8opendnp318TypedCommandHeaderINS_17AnalogOutputInt16EEE,comdat
	.align	3
	.type	_ZTIN8opendnp318TypedCommandHeaderINS_17AnalogOutputInt16EEE, %object
	.size	_ZTIN8opendnp318TypedCommandHeaderINS_17AnalogOutputInt16EEE, 56
_ZTIN8opendnp318TypedCommandHeaderINS_17AnalogOutputInt16EEE:
	.xword	_ZTVN10__cxxabiv121__vmi_class_type_infoE+16
	.xword	_ZTSN8opendnp318TypedCommandHeaderINS_17AnalogOutputInt16EEE
	.word	0
	.word	2
	.xword	_ZTIN8opendnp314ICommandHeaderE
	.xword	2
	.xword	_ZTIN8opendnp318ICommandCollectionINS_17AnalogOutputInt16EEE
	.xword	2050
	.weak	_ZTSN8opendnp318ICommandCollectionINS_19AnalogOutputFloat32EEE
	.section	.rodata._ZTSN8opendnp318ICommandCollectionINS_19AnalogOutputFloat32EEE,"aG",@progbits,_ZTSN8opendnp318ICommandCollectionINS_19AnalogOutputFloat32EEE,comdat
	.align	3
	.type	_ZTSN8opendnp318ICommandCollectionINS_19AnalogOutputFloat32EEE, %object
	.size	_ZTSN8opendnp318ICommandCollectionINS_19AnalogOutputFloat32EEE, 59
_ZTSN8opendnp318ICommandCollectionINS_19AnalogOutputFloat32EEE:
	.string	"N8opendnp318ICommandCollectionINS_19AnalogOutputFloat32EEE"
	.weak	_ZTIN8opendnp318ICommandCollectionINS_19AnalogOutputFloat32EEE
	.section	.data.rel.ro._ZTIN8opendnp318ICommandCollectionINS_19AnalogOutputFloat32EEE,"awG",@progbits,_ZTIN8opendnp318ICommandCollectionINS_19AnalogOutputFloat32EEE,comdat
	.align	3
	.type	_ZTIN8opendnp318ICommandCollectionINS_19AnalogOutputFloat32EEE, %object
	.size	_ZTIN8opendnp318ICommandCollectionINS_19AnalogOutputFloat32EEE, 16
_ZTIN8opendnp318ICommandCollectionINS_19AnalogOutputFloat32EEE:
	.xword	_ZTVN10__cxxabiv117__class_type_infoE+16
	.xword	_ZTSN8opendnp318ICommandCollectionINS_19AnalogOutputFloat32EEE
	.weak	_ZTSN8opendnp318TypedCommandHeaderINS_19AnalogOutputFloat32EEE
	.section	.rodata._ZTSN8opendnp318TypedCommandHeaderINS_19AnalogOutputFloat32EEE,"aG",@progbits,_ZTSN8opendnp318TypedCommandHeaderINS_19AnalogOutputFloat32EEE,comdat
	.align	3
	.type	_ZTSN8opendnp318TypedCommandHeaderINS_19AnalogOutputFloat32EEE, %object
	.size	_ZTSN8opendnp318TypedCommandHeaderINS_19AnalogOutputFloat32EEE, 59
_ZTSN8opendnp318TypedCommandHeaderINS_19AnalogOutputFloat32EEE:
	.string	"N8opendnp318TypedCommandHeaderINS_19AnalogOutputFloat32EEE"
	.weak	_ZTIN8opendnp318TypedCommandHeaderINS_19AnalogOutputFloat32EEE
	.section	.data.rel.ro._ZTIN8opendnp318TypedCommandHeaderINS_19AnalogOutputFloat32EEE,"awG",@progbits,_ZTIN8opendnp318TypedCommandHeaderINS_19AnalogOutputFloat32EEE,comdat
	.align	3
	.type	_ZTIN8opendnp318TypedCommandHeaderINS_19AnalogOutputFloat32EEE, %object
	.size	_ZTIN8opendnp318TypedCommandHeaderINS_19AnalogOutputFloat32EEE, 56
_ZTIN8opendnp318TypedCommandHeaderINS_19AnalogOutputFloat32EEE:
	.xword	_ZTVN10__cxxabiv121__vmi_class_type_infoE+16
	.xword	_ZTSN8opendnp318TypedCommandHeaderINS_19AnalogOutputFloat32EEE
	.word	0
	.word	2
	.xword	_ZTIN8opendnp314ICommandHeaderE
	.xword	2
	.xword	_ZTIN8opendnp318ICommandCollectionINS_19AnalogOutputFloat32EEE
	.xword	2050
	.weak	_ZTSN8opendnp318ICommandCollectionINS_20AnalogOutputDouble64EEE
	.section	.rodata._ZTSN8opendnp318ICommandCollectionINS_20AnalogOutputDouble64EEE,"aG",@progbits,_ZTSN8opendnp318ICommandCollectionINS_20AnalogOutputDouble64EEE,comdat
	.align	3
	.type	_ZTSN8opendnp318ICommandCollectionINS_20AnalogOutputDouble64EEE, %object
	.size	_ZTSN8opendnp318ICommandCollectionINS_20AnalogOutputDouble64EEE, 60
_ZTSN8opendnp318ICommandCollectionINS_20AnalogOutputDouble64EEE:
	.string	"N8opendnp318ICommandCollectionINS_20AnalogOutputDouble64EEE"
	.weak	_ZTIN8opendnp318ICommandCollectionINS_20AnalogOutputDouble64EEE
	.section	.data.rel.ro._ZTIN8opendnp318ICommandCollectionINS_20AnalogOutputDouble64EEE,"awG",@progbits,_ZTIN8opendnp318ICommandCollectionINS_20AnalogOutputDouble64EEE,comdat
	.align	3
	.type	_ZTIN8opendnp318ICommandCollectionINS_20AnalogOutputDouble64EEE, %object
	.size	_ZTIN8opendnp318ICommandCollectionINS_20AnalogOutputDouble64EEE, 16
_ZTIN8opendnp318ICommandCollectionINS_20AnalogOutputDouble64EEE:
	.xword	_ZTVN10__cxxabiv117__class_type_infoE+16
	.xword	_ZTSN8opendnp318ICommandCollectionINS_20AnalogOutputDouble64EEE
	.weak	_ZTSN8opendnp318TypedCommandHeaderINS_20AnalogOutputDouble64EEE
	.section	.rodata._ZTSN8opendnp318TypedCommandHeaderINS_20AnalogOutputDouble64EEE,"aG",@progbits,_ZTSN8opendnp318TypedCommandHeaderINS_20AnalogOutputDouble64EEE,comdat
	.align	3
	.type	_ZTSN8opendnp318TypedCommandHeaderINS_20AnalogOutputDouble64EEE, %object
	.size	_ZTSN8opendnp318TypedCommandHeaderINS_20AnalogOutputDouble64EEE, 60
_ZTSN8opendnp318TypedCommandHeaderINS_20AnalogOutputDouble64EEE:
	.string	"N8opendnp318TypedCommandHeaderINS_20AnalogOutputDouble64EEE"
	.weak	_ZTIN8opendnp318TypedCommandHeaderINS_20AnalogOutputDouble64EEE
	.section	.data.rel.ro._ZTIN8opendnp318TypedCommandHeaderINS_20AnalogOutputDouble64EEE,"awG",@progbits,_ZTIN8opendnp318TypedCommandHeaderINS_20AnalogOutputDouble64EEE,comdat
	.align	3
	.type	_ZTIN8opendnp318TypedCommandHeaderINS_20AnalogOutputDouble64EEE, %object
	.size	_ZTIN8opendnp318TypedCommandHeaderINS_20AnalogOutputDouble64EEE, 56
_ZTIN8opendnp318TypedCommandHeaderINS_20AnalogOutputDouble64EEE:
	.xword	_ZTVN10__cxxabiv121__vmi_class_type_infoE+16
	.xword	_ZTSN8opendnp318TypedCommandHeaderINS_20AnalogOutputDouble64EEE
	.word	0
	.word	2
	.xword	_ZTIN8opendnp314ICommandHeaderE
	.xword	2
	.xword	_ZTIN8opendnp318ICommandCollectionINS_20AnalogOutputDouble64EEE
	.xword	2050
	.weak	_ZTVN8opendnp318TypedCommandHeaderINS_23ControlRelayOutputBlockEEE
	.section	.data.rel.ro._ZTVN8opendnp318TypedCommandHeaderINS_23ControlRelayOutputBlockEEE,"awG",@progbits,_ZTVN8opendnp318TypedCommandHeaderINS_23ControlRelayOutputBlockEEE,comdat
	.align	3
	.type	_ZTVN8opendnp318TypedCommandHeaderINS_23ControlRelayOutputBlockEEE, %object
	.size	_ZTVN8opendnp318TypedCommandHeaderINS_23ControlRelayOutputBlockEEE, 176
_ZTVN8opendnp318TypedCommandHeaderINS_23ControlRelayOutputBlockEEE:
	.xword	0
	.xword	_ZTIN8opendnp318TypedCommandHeaderINS_23ControlRelayOutputBlockEEE
	.xword	_ZNK8opendnp318TypedCommandHeaderINS_23ControlRelayOutputBlockEE5CountEv
	.xword	_ZNK8opendnp318TypedCommandHeaderINS_23ControlRelayOutputBlockEE7ForeachERNS_8IVisitorINS_12CommandStateEEE
	.xword	_ZN8opendnp318TypedCommandHeaderINS_23ControlRelayOutputBlockEED1Ev
	.xword	_ZN8opendnp318TypedCommandHeaderINS_23ControlRelayOutputBlockEED0Ev
	.xword	_ZNK8opendnp318TypedCommandHeaderINS_23ControlRelayOutputBlockEE5WriteERNS_12HeaderWriterE
	.xword	_ZNK8opendnp318TypedCommandHeaderINS_23ControlRelayOutputBlockEE14AreAllSelectedEv
	.xword	_ZN8opendnp318TypedCommandHeaderINS_23ControlRelayOutputBlockEE19ApplySelectResponseERKNS_11ICollectionINS_7IndexedIS1_EEEE
	.xword	_ZN8opendnp314ICommandHeader19ApplySelectResponseERKNS_11ICollectionINS_7IndexedINS_17AnalogOutputInt16EEEEE
	.xword	_ZN8opendnp314ICommandHeader19ApplySelectResponseERKNS_11ICollectionINS_7IndexedINS_17AnalogOutputInt32EEEEE
	.xword	_ZN8opendnp314ICommandHeader19ApplySelectResponseERKNS_11ICollectionINS_7IndexedINS_19AnalogOutputFloat32EEEEE
	.xword	_ZN8opendnp314ICommandHeader19ApplySelectResponseERKNS_11ICollectionINS_7IndexedINS_20AnalogOutputDouble64EEEEE
	.xword	_ZN8opendnp318TypedCommandHeaderINS_23ControlRelayOutputBlockEE20ApplyOperateResponseERKNS_11ICollectionINS_7IndexedIS1_EEEE
	.xword	_ZN8opendnp314ICommandHeader20ApplyOperateResponseERKNS_11ICollectionINS_7IndexedINS_17AnalogOutputInt16EEEEE
	.xword	_ZN8opendnp314ICommandHeader20ApplyOperateResponseERKNS_11ICollectionINS_7IndexedINS_17AnalogOutputInt32EEEEE
	.xword	_ZN8opendnp314ICommandHeader20ApplyOperateResponseERKNS_11ICollectionINS_7IndexedINS_19AnalogOutputFloat32EEEEE
	.xword	_ZN8opendnp314ICommandHeader20ApplyOperateResponseERKNS_11ICollectionINS_7IndexedINS_20AnalogOutputDouble64EEEEE
	.xword	_ZN8opendnp318TypedCommandHeaderINS_23ControlRelayOutputBlockEE3AddERKS1_t
	.xword	-8
	.xword	_ZTIN8opendnp318TypedCommandHeaderINS_23ControlRelayOutputBlockEEE
	.xword	_ZThn8_N8opendnp318TypedCommandHeaderINS_23ControlRelayOutputBlockEE3AddERKS1_t
	.weak	_ZTVN8opendnp318TypedCommandHeaderINS_17AnalogOutputInt32EEE
	.section	.data.rel.ro._ZTVN8opendnp318TypedCommandHeaderINS_17AnalogOutputInt32EEE,"awG",@progbits,_ZTVN8opendnp318TypedCommandHeaderINS_17AnalogOutputInt32EEE,comdat
	.align	3
	.type	_ZTVN8opendnp318TypedCommandHeaderINS_17AnalogOutputInt32EEE, %object
	.size	_ZTVN8opendnp318TypedCommandHeaderINS_17AnalogOutputInt32EEE, 176
_ZTVN8opendnp318TypedCommandHeaderINS_17AnalogOutputInt32EEE:
	.xword	0
	.xword	_ZTIN8opendnp318TypedCommandHeaderINS_17AnalogOutputInt32EEE
	.xword	_ZNK8opendnp318TypedCommandHeaderINS_17AnalogOutputInt32EE5CountEv
	.xword	_ZNK8opendnp318TypedCommandHeaderINS_17AnalogOutputInt32EE7ForeachERNS_8IVisitorINS_12CommandStateEEE
	.xword	_ZN8opendnp318TypedCommandHeaderINS_17AnalogOutputInt32EED1Ev
	.xword	_ZN8opendnp318TypedCommandHeaderINS_17AnalogOutputInt32EED0Ev
	.xword	_ZNK8opendnp318TypedCommandHeaderINS_17AnalogOutputInt32EE5WriteERNS_12HeaderWriterE
	.xword	_ZNK8opendnp318TypedCommandHeaderINS_17AnalogOutputInt32EE14AreAllSelectedEv
	.xword	_ZN8opendnp314ICommandHeader19ApplySelectResponseERKNS_11ICollectionINS_7IndexedINS_23ControlRelayOutputBlockEEEEE
	.xword	_ZN8opendnp314ICommandHeader19ApplySelectResponseERKNS_11ICollectionINS_7IndexedINS_17AnalogOutputInt16EEEEE
	.xword	_ZN8opendnp318TypedCommandHeaderINS_17AnalogOutputInt32EE19ApplySelectResponseERKNS_11ICollectionINS_7IndexedIS1_EEEE
	.xword	_ZN8opendnp314ICommandHeader19ApplySelectResponseERKNS_11ICollectionINS_7IndexedINS_19AnalogOutputFloat32EEEEE
	.xword	_ZN8opendnp314ICommandHeader19ApplySelectResponseERKNS_11ICollectionINS_7IndexedINS_20AnalogOutputDouble64EEEEE
	.xword	_ZN8opendnp314ICommandHeader20ApplyOperateResponseERKNS_11ICollectionINS_7IndexedINS_23ControlRelayOutputBlockEEEEE
	.xword	_ZN8opendnp314ICommandHeader20ApplyOperateResponseERKNS_11ICollectionINS_7IndexedINS_17AnalogOutputInt16EEEEE
	.xword	_ZN8opendnp318TypedCommandHeaderINS_17AnalogOutputInt32EE20ApplyOperateResponseERKNS_11ICollectionINS_7IndexedIS1_EEEE
	.xword	_ZN8opendnp314ICommandHeader20ApplyOperateResponseERKNS_11ICollectionINS_7IndexedINS_19AnalogOutputFloat32EEEEE
	.xword	_ZN8opendnp314ICommandHeader20ApplyOperateResponseERKNS_11ICollectionINS_7IndexedINS_20AnalogOutputDouble64EEEEE
	.xword	_ZN8opendnp318TypedCommandHeaderINS_17AnalogOutputInt32EE3AddERKS1_t
	.xword	-8
	.xword	_ZTIN8opendnp318TypedCommandHeaderINS_17AnalogOutputInt32EEE
	.xword	_ZThn8_N8opendnp318TypedCommandHeaderINS_17AnalogOutputInt32EE3AddERKS1_t
	.weak	_ZTVN8opendnp318TypedCommandHeaderINS_17AnalogOutputInt16EEE
	.section	.data.rel.ro._ZTVN8opendnp318TypedCommandHeaderINS_17AnalogOutputInt16EEE,"awG",@progbits,_ZTVN8opendnp318TypedCommandHeaderINS_17AnalogOutputInt16EEE,comdat
	.align	3
	.type	_ZTVN8opendnp318TypedCommandHeaderINS_17AnalogOutputInt16EEE, %object
	.size	_ZTVN8opendnp318TypedCommandHeaderINS_17AnalogOutputInt16EEE, 176
_ZTVN8opendnp318TypedCommandHeaderINS_17AnalogOutputInt16EEE:
	.xword	0
	.xword	_ZTIN8opendnp318TypedCommandHeaderINS_17AnalogOutputInt16EEE
	.xword	_ZNK8opendnp318TypedCommandHeaderINS_17AnalogOutputInt16EE5CountEv
	.xword	_ZNK8opendnp318TypedCommandHeaderINS_17AnalogOutputInt16EE7ForeachERNS_8IVisitorINS_12CommandStateEEE
	.xword	_ZN8opendnp318TypedCommandHeaderINS_17AnalogOutputInt16EED1Ev
	.xword	_ZN8opendnp318TypedCommandHeaderINS_17AnalogOutputInt16EED0Ev
	.xword	_ZNK8opendnp318TypedCommandHeaderINS_17AnalogOutputInt16EE5WriteERNS_12HeaderWriterE
	.xword	_ZNK8opendnp318TypedCommandHeaderINS_17AnalogOutputInt16EE14AreAllSelectedEv
	.xword	_ZN8opendnp314ICommandHeader19ApplySelectResponseERKNS_11ICollectionINS_7IndexedINS_23ControlRelayOutputBlockEEEEE
	.xword	_ZN8opendnp318TypedCommandHeaderINS_17AnalogOutputInt16EE19ApplySelectResponseERKNS_11ICollectionINS_7IndexedIS1_EEEE
	.xword	_ZN8opendnp314ICommandHeader19ApplySelectResponseERKNS_11ICollectionINS_7IndexedINS_17AnalogOutputInt32EEEEE
	.xword	_ZN8opendnp314ICommandHeader19ApplySelectResponseERKNS_11ICollectionINS_7IndexedINS_19AnalogOutputFloat32EEEEE
	.xword	_ZN8opendnp314ICommandHeader19ApplySelectResponseERKNS_11ICollectionINS_7IndexedINS_20AnalogOutputDouble64EEEEE
	.xword	_ZN8opendnp314ICommandHeader20ApplyOperateResponseERKNS_11ICollectionINS_7IndexedINS_23ControlRelayOutputBlockEEEEE
	.xword	_ZN8opendnp318TypedCommandHeaderINS_17AnalogOutputInt16EE20ApplyOperateResponseERKNS_11ICollectionINS_7IndexedIS1_EEEE
	.xword	_ZN8opendnp314ICommandHeader20ApplyOperateResponseERKNS_11ICollectionINS_7IndexedINS_17AnalogOutputInt32EEEEE
	.xword	_ZN8opendnp314ICommandHeader20ApplyOperateResponseERKNS_11ICollectionINS_7IndexedINS_19AnalogOutputFloat32EEEEE
	.xword	_ZN8opendnp314ICommandHeader20ApplyOperateResponseERKNS_11ICollectionINS_7IndexedINS_20AnalogOutputDouble64EEEEE
	.xword	_ZN8opendnp318TypedCommandHeaderINS_17AnalogOutputInt16EE3AddERKS1_t
	.xword	-8
	.xword	_ZTIN8opendnp318TypedCommandHeaderINS_17AnalogOutputInt16EEE
	.xword	_ZThn8_N8opendnp318TypedCommandHeaderINS_17AnalogOutputInt16EE3AddERKS1_t
	.weak	_ZTVN8opendnp318TypedCommandHeaderINS_19AnalogOutputFloat32EEE
	.section	.data.rel.ro._ZTVN8opendnp318TypedCommandHeaderINS_19AnalogOutputFloat32EEE,"awG",@progbits,_ZTVN8opendnp318TypedCommandHeaderINS_19AnalogOutputFloat32EEE,comdat
	.align	3
	.type	_ZTVN8opendnp318TypedCommandHeaderINS_19AnalogOutputFloat32EEE, %object
	.size	_ZTVN8opendnp318TypedCommandHeaderINS_19AnalogOutputFloat32EEE, 176
_ZTVN8opendnp318TypedCommandHeaderINS_19AnalogOutputFloat32EEE:
	.xword	0
	.xword	_ZTIN8opendnp318TypedCommandHeaderINS_19AnalogOutputFloat32EEE
	.xword	_ZNK8opendnp318TypedCommandHeaderINS_19AnalogOutputFloat32EE5CountEv
	.xword	_ZNK8opendnp318TypedCommandHeaderINS_19AnalogOutputFloat32EE7ForeachERNS_8IVisitorINS_12CommandStateEEE
	.xword	_ZN8opendnp318TypedCommandHeaderINS_19AnalogOutputFloat32EED1Ev
	.xword	_ZN8opendnp318TypedCommandHeaderINS_19AnalogOutputFloat32EED0Ev
	.xword	_ZNK8opendnp318TypedCommandHeaderINS_19AnalogOutputFloat32EE5WriteERNS_12HeaderWriterE
	.xword	_ZNK8opendnp318TypedCommandHeaderINS_19AnalogOutputFloat32EE14AreAllSelectedEv
	.xword	_ZN8opendnp314ICommandHeader19ApplySelectResponseERKNS_11ICollectionINS_7IndexedINS_23ControlRelayOutputBlockEEEEE
	.xword	_ZN8opendnp314ICommandHeader19ApplySelectResponseERKNS_11ICollectionINS_7IndexedINS_17AnalogOutputInt16EEEEE
	.xword	_ZN8opendnp314ICommandHeader19ApplySelectResponseERKNS_11ICollectionINS_7IndexedINS_17AnalogOutputInt32EEEEE
	.xword	_ZN8opendnp318TypedCommandHeaderINS_19AnalogOutputFloat32EE19ApplySelectResponseERKNS_11ICollectionINS_7IndexedIS1_EEEE
	.xword	_ZN8opendnp314ICommandHeader19ApplySelectResponseERKNS_11ICollectionINS_7IndexedINS_20AnalogOutputDouble64EEEEE
	.xword	_ZN8opendnp314ICommandHeader20ApplyOperateResponseERKNS_11ICollectionINS_7IndexedINS_23ControlRelayOutputBlockEEEEE
	.xword	_ZN8opendnp314ICommandHeader20ApplyOperateResponseERKNS_11ICollectionINS_7IndexedINS_17AnalogOutputInt16EEEEE
	.xword	_ZN8opendnp314ICommandHeader20ApplyOperateResponseERKNS_11ICollectionINS_7IndexedINS_17AnalogOutputInt32EEEEE
	.xword	_ZN8opendnp318TypedCommandHeaderINS_19AnalogOutputFloat32EE20ApplyOperateResponseERKNS_11ICollectionINS_7IndexedIS1_EEEE
	.xword	_ZN8opendnp314ICommandHeader20ApplyOperateResponseERKNS_11ICollectionINS_7IndexedINS_20AnalogOutputDouble64EEEEE
	.xword	_ZN8opendnp318TypedCommandHeaderINS_19AnalogOutputFloat32EE3AddERKS1_t
	.xword	-8
	.xword	_ZTIN8opendnp318TypedCommandHeaderINS_19AnalogOutputFloat32EEE
	.xword	_ZThn8_N8opendnp318TypedCommandHeaderINS_19AnalogOutputFloat32EE3AddERKS1_t
	.weak	_ZTVN8opendnp318TypedCommandHeaderINS_20AnalogOutputDouble64EEE
	.section	.data.rel.ro._ZTVN8opendnp318TypedCommandHeaderINS_20AnalogOutputDouble64EEE,"awG",@progbits,_ZTVN8opendnp318TypedCommandHeaderINS_20AnalogOutputDouble64EEE,comdat
	.align	3
	.type	_ZTVN8opendnp318TypedCommandHeaderINS_20AnalogOutputDouble64EEE, %object
	.size	_ZTVN8opendnp318TypedCommandHeaderINS_20AnalogOutputDouble64EEE, 176
_ZTVN8opendnp318TypedCommandHeaderINS_20AnalogOutputDouble64EEE:
	.xword	0
	.xword	_ZTIN8opendnp318TypedCommandHeaderINS_20AnalogOutputDouble64EEE
	.xword	_ZNK8opendnp318TypedCommandHeaderINS_20AnalogOutputDouble64EE5CountEv
	.xword	_ZNK8opendnp318TypedCommandHeaderINS_20AnalogOutputDouble64EE7ForeachERNS_8IVisitorINS_12CommandStateEEE
	.xword	_ZN8opendnp318TypedCommandHeaderINS_20AnalogOutputDouble64EED1Ev
	.xword	_ZN8opendnp318TypedCommandHeaderINS_20AnalogOutputDouble64EED0Ev
	.xword	_ZNK8opendnp318TypedCommandHeaderINS_20AnalogOutputDouble64EE5WriteERNS_12HeaderWriterE
	.xword	_ZNK8opendnp318TypedCommandHeaderINS_20AnalogOutputDouble64EE14AreAllSelectedEv
	.xword	_ZN8opendnp314ICommandHeader19ApplySelectResponseERKNS_11ICollectionINS_7IndexedINS_23ControlRelayOutputBlockEEEEE
	.xword	_ZN8opendnp314ICommandHeader19ApplySelectResponseERKNS_11ICollectionINS_7IndexedINS_17AnalogOutputInt16EEEEE
	.xword	_ZN8opendnp314ICommandHeader19ApplySelectResponseERKNS_11ICollectionINS_7IndexedINS_17AnalogOutputInt32EEEEE
	.xword	_ZN8opendnp314ICommandHeader19ApplySelectResponseERKNS_11ICollectionINS_7IndexedINS_19AnalogOutputFloat32EEEEE
	.xword	_ZN8opendnp318TypedCommandHeaderINS_20AnalogOutputDouble64EE19ApplySelectResponseERKNS_11ICollectionINS_7IndexedIS1_EEEE
	.xword	_ZN8opendnp314ICommandHeader20ApplyOperateResponseERKNS_11ICollectionINS_7IndexedINS_23ControlRelayOutputBlockEEEEE
	.xword	_ZN8opendnp314ICommandHeader20ApplyOperateResponseERKNS_11ICollectionINS_7IndexedINS_17AnalogOutputInt16EEEEE
	.xword	_ZN8opendnp314ICommandHeader20ApplyOperateResponseERKNS_11ICollectionINS_7IndexedINS_17AnalogOutputInt32EEEEE
	.xword	_ZN8opendnp314ICommandHeader20ApplyOperateResponseERKNS_11ICollectionINS_7IndexedINS_19AnalogOutputFloat32EEEEE
	.xword	_ZN8opendnp318TypedCommandHeaderINS_20AnalogOutputDouble64EE20ApplyOperateResponseERKNS_11ICollectionINS_7IndexedIS1_EEEE
	.xword	_ZN8opendnp318TypedCommandHeaderINS_20AnalogOutputDouble64EE3AddERKS1_t
	.xword	-8
	.xword	_ZTIN8opendnp318TypedCommandHeaderINS_20AnalogOutputDouble64EEE
	.xword	_ZThn8_N8opendnp318TypedCommandHeaderINS_20AnalogOutputDouble64EE3AddERKS1_t
	.hidden	DW.ref.__gxx_personality_v0
	.weak	DW.ref.__gxx_personality_v0
	.section	.data.rel.local.DW.ref.__gxx_personality_v0,"awG",@progbits,DW.ref.__gxx_personality_v0,comdat
	.align	3
	.type	DW.ref.__gxx_personality_v0, %object
	.size	DW.ref.__gxx_personality_v0, 8
DW.ref.__gxx_personality_v0:
	.xword	__gxx_personality_v0
	.ident	"GCC: (Ubuntu 11.4.0-1ubuntu1~22.04) 11.4.0"
	.section	.note.GNU-stack,"",@progbits
