	.arch armv8-a
	.file	"CommandTask.cpp"
	.text
	.section	.text._ZNK8opendnp311IMasterTask10IsAuthTaskEv,"axG",@progbits,_ZNK8opendnp311IMasterTask10IsAuthTaskEv,comdat
	.align	2
	.p2align 4,,11
	.weak	_ZNK8opendnp311IMasterTask10IsAuthTaskEv
	.type	_ZNK8opendnp311IMasterTask10IsAuthTaskEv, %function
_ZNK8opendnp311IMasterTask10IsAuthTaskEv:
.LFB2455:
	.cfi_startproc
	mov	w0, 0
	ret
	.cfi_endproc
.LFE2455:
	.size	_ZNK8opendnp311IMasterTask10IsAuthTaskEv, .-_ZNK8opendnp311IMasterTask10IsAuthTaskEv
	.section	.rodata._ZNK8opendnp311CommandTask4NameEv.str1.8,"aMS",@progbits,1
	.align	3
.LC0:
	.string	"Command Task"
	.section	.text._ZNK8opendnp311CommandTask4NameEv,"axG",@progbits,_ZNK8opendnp311CommandTask4NameEv,comdat
	.align	2
	.p2align 4,,11
	.weak	_ZNK8opendnp311CommandTask4NameEv
	.type	_ZNK8opendnp311CommandTask4NameEv, %function
_ZNK8opendnp311CommandTask4NameEv:
.LFB2995:
	.cfi_startproc
	adrp	x0, .LC0
	add	x0, x0, :lo12:.LC0
	ret
	.cfi_endproc
.LFE2995:
	.size	_ZNK8opendnp311CommandTask4NameEv, .-_ZNK8opendnp311CommandTask4NameEv
	.section	.text._ZNK8opendnp311CommandTask8PriorityEv,"axG",@progbits,_ZNK8opendnp311CommandTask8PriorityEv,comdat
	.align	2
	.p2align 4,,11
	.weak	_ZNK8opendnp311CommandTask8PriorityEv
	.type	_ZNK8opendnp311CommandTask8PriorityEv, %function
_ZNK8opendnp311CommandTask8PriorityEv:
.LFB2996:
	.cfi_startproc
	mov	w0, 100
	ret
	.cfi_endproc
.LFE2996:
	.size	_ZNK8opendnp311CommandTask8PriorityEv, .-_ZNK8opendnp311CommandTask8PriorityEv
	.section	.text._ZNK8opendnp311CommandTask19BlocksLowerPriorityEv,"axG",@progbits,_ZNK8opendnp311CommandTask19BlocksLowerPriorityEv,comdat
	.align	2
	.p2align 4,,11
	.weak	_ZNK8opendnp311CommandTask19BlocksLowerPriorityEv
	.type	_ZNK8opendnp311CommandTask19BlocksLowerPriorityEv, %function
_ZNK8opendnp311CommandTask19BlocksLowerPriorityEv:
.LFB2997:
	.cfi_startproc
	mov	w0, 0
	ret
	.cfi_endproc
.LFE2997:
	.size	_ZNK8opendnp311CommandTask19BlocksLowerPriorityEv, .-_ZNK8opendnp311CommandTask19BlocksLowerPriorityEv
	.section	.text._ZNK8opendnp311CommandTask11IsRecurringEv,"axG",@progbits,_ZNK8opendnp311CommandTask11IsRecurringEv,comdat
	.align	2
	.p2align 4,,11
	.weak	_ZNK8opendnp311CommandTask11IsRecurringEv
	.type	_ZNK8opendnp311CommandTask11IsRecurringEv, %function
_ZNK8opendnp311CommandTask11IsRecurringEv:
.LFB2998:
	.cfi_startproc
	mov	w0, 0
	ret
	.cfi_endproc
.LFE2998:
	.size	_ZNK8opendnp311CommandTask11IsRecurringEv, .-_ZNK8opendnp311CommandTask11IsRecurringEv
	.section	.text._ZNK8opendnp311CommandTask9IsEnabledEv,"axG",@progbits,_ZNK8opendnp311CommandTask9IsEnabledEv,comdat
	.align	2
	.p2align 4,,11
	.weak	_ZNK8opendnp311CommandTask9IsEnabledEv
	.type	_ZNK8opendnp311CommandTask9IsEnabledEv, %function
_ZNK8opendnp311CommandTask9IsEnabledEv:
.LFB2999:
	.cfi_startproc
	mov	w0, 1
	ret
	.cfi_endproc
.LFE2999:
	.size	_ZNK8opendnp311CommandTask9IsEnabledEv, .-_ZNK8opendnp311CommandTask9IsEnabledEv
	.section	.text._ZNK8opendnp311CommandTask11GetTaskTypeEv,"axG",@progbits,_ZNK8opendnp311CommandTask11GetTaskTypeEv,comdat
	.align	2
	.p2align 4,,11
	.weak	_ZNK8opendnp311CommandTask11GetTaskTypeEv
	.type	_ZNK8opendnp311CommandTask11GetTaskTypeEv, %function
_ZNK8opendnp311CommandTask11GetTaskTypeEv:
.LFB3000:
	.cfi_startproc
	mov	w0, 7
	ret
	.cfi_endproc
.LFE3000:
	.size	_ZNK8opendnp311CommandTask11GetTaskTypeEv, .-_ZNK8opendnp311CommandTask11GetTaskTypeEv
	.text
	.align	2
	.p2align 4,,11
	.global	_ZN8opendnp311CommandTask10InitializeEv
	.type	_ZN8opendnp311CommandTask10InitializeEv, %function
_ZN8opendnp311CommandTask10InitializeEv:
.LFB3206:
	.cfi_startproc
	mov	w1, 127
	strb	w1, [x0, 168]
	ret
	.cfi_endproc
.LFE3206:
	.size	_ZN8opendnp311CommandTask10InitializeEv, .-_ZN8opendnp311CommandTask10InitializeEv
	.section	.text._ZNSt23_Sp_counted_ptr_inplaceIN8opendnp311CommandTaskESaIS1_ELN9__gnu_cxx12_Lock_policyE2EED2Ev,"axG",@progbits,_ZNSt23_Sp_counted_ptr_inplaceIN8opendnp311CommandTaskESaIS1_ELN9__gnu_cxx12_Lock_policyE2EED5Ev,comdat
	.align	2
	.p2align 4,,11
	.weak	_ZNSt23_Sp_counted_ptr_inplaceIN8opendnp311CommandTaskESaIS1_ELN9__gnu_cxx12_Lock_policyE2EED2Ev
	.type	_ZNSt23_Sp_counted_ptr_inplaceIN8opendnp311CommandTaskESaIS1_ELN9__gnu_cxx12_Lock_policyE2EED2Ev, %function
_ZNSt23_Sp_counted_ptr_inplaceIN8opendnp311CommandTaskESaIS1_ELN9__gnu_cxx12_Lock_policyE2EED2Ev:
.LFB4166:
	.cfi_startproc
	ret
	.cfi_endproc
.LFE4166:
	.size	_ZNSt23_Sp_counted_ptr_inplaceIN8opendnp311CommandTaskESaIS1_ELN9__gnu_cxx12_Lock_policyE2EED2Ev, .-_ZNSt23_Sp_counted_ptr_inplaceIN8opendnp311CommandTaskESaIS1_ELN9__gnu_cxx12_Lock_policyE2EED2Ev
	.weak	_ZNSt23_Sp_counted_ptr_inplaceIN8opendnp311CommandTaskESaIS1_ELN9__gnu_cxx12_Lock_policyE2EED1Ev
	.set	_ZNSt23_Sp_counted_ptr_inplaceIN8opendnp311CommandTaskESaIS1_ELN9__gnu_cxx12_Lock_policyE2EED1Ev,_ZNSt23_Sp_counted_ptr_inplaceIN8opendnp311CommandTaskESaIS1_ELN9__gnu_cxx12_Lock_policyE2EED2Ev
	.section	.text._ZNSt23_Sp_counted_ptr_inplaceIN8opendnp311CommandTaskESaIS1_ELN9__gnu_cxx12_Lock_policyE2EE10_M_disposeEv,"axG",@progbits,_ZNSt23_Sp_counted_ptr_inplaceIN8opendnp311CommandTaskESaIS1_ELN9__gnu_cxx12_Lock_policyE2EE10_M_disposeEv,comdat
	.align	2
	.p2align 4,,11
	.weak	_ZNSt23_Sp_counted_ptr_inplaceIN8opendnp311CommandTaskESaIS1_ELN9__gnu_cxx12_Lock_policyE2EE10_M_disposeEv
	.type	_ZNSt23_Sp_counted_ptr_inplaceIN8opendnp311CommandTaskESaIS1_ELN9__gnu_cxx12_Lock_policyE2EE10_M_disposeEv, %function
_ZNSt23_Sp_counted_ptr_inplaceIN8opendnp311CommandTaskESaIS1_ELN9__gnu_cxx12_Lock_policyE2EE10_M_disposeEv:
.LFB4169:
	.cfi_startproc
	mov	x1, x0
	add	x0, x0, 16
	ldr	x1, [x1, 16]
	ldr	x1, [x1]
	mov	x16, x1
	br	x16
	.cfi_endproc
.LFE4169:
	.size	_ZNSt23_Sp_counted_ptr_inplaceIN8opendnp311CommandTaskESaIS1_ELN9__gnu_cxx12_Lock_policyE2EE10_M_disposeEv, .-_ZNSt23_Sp_counted_ptr_inplaceIN8opendnp311CommandTaskESaIS1_ELN9__gnu_cxx12_Lock_policyE2EE10_M_disposeEv
	.section	.text._ZNSt23_Sp_counted_ptr_inplaceIN8opendnp311CommandTaskESaIS1_ELN9__gnu_cxx12_Lock_policyE2EE14_M_get_deleterERKSt9type_info,"axG",@progbits,_ZNSt23_Sp_counted_ptr_inplaceIN8opendnp311CommandTaskESaIS1_ELN9__gnu_cxx12_Lock_policyE2EE14_M_get_deleterERKSt9type_info,comdat
	.align	2
	.p2align 4,,11
	.weak	_ZNSt23_Sp_counted_ptr_inplaceIN8opendnp311CommandTaskESaIS1_ELN9__gnu_cxx12_Lock_policyE2EE14_M_get_deleterERKSt9type_info
	.type	_ZNSt23_Sp_counted_ptr_inplaceIN8opendnp311CommandTaskESaIS1_ELN9__gnu_cxx12_Lock_policyE2EE14_M_get_deleterERKSt9type_info, %function
_ZNSt23_Sp_counted_ptr_inplaceIN8opendnp311CommandTaskESaIS1_ELN9__gnu_cxx12_Lock_policyE2EE14_M_get_deleterERKSt9type_info:
.LFB4171:
	.cfi_startproc
	stp	x29, x30, [sp, -32]!
	.cfi_def_cfa_offset 32
	.cfi_offset 29, -32
	.cfi_offset 30, -24
	adrp	x2, :got:_ZZNSt19_Sp_make_shared_tag5_S_tiEvE5__tag
	mov	x29, sp
	ldr	x2, [x2, #:got_lo12:_ZZNSt19_Sp_make_shared_tag5_S_tiEvE5__tag]
	str	x19, [sp, 16]
	.cfi_offset 19, -16
	add	x19, x0, 16
	cmp	x1, x2
	beq	.L12
	adrp	x2, :got:_ZTSSt19_Sp_make_shared_tag
	ldr	x0, [x1, 8]
	ldr	x1, [x2, #:got_lo12:_ZTSSt19_Sp_make_shared_tag]
	cmp	x0, x1
	beq	.L12
	ldrb	w2, [x0]
	cmp	w2, 42
	beq	.L14
	bl	strcmp
	cmp	w0, 0
	csel	x19, x19, xzr, eq
.L12:
	mov	x0, x19
	ldr	x19, [sp, 16]
	ldp	x29, x30, [sp], 32
	.cfi_remember_state
	.cfi_restore 30
	.cfi_restore 29
	.cfi_restore 19
	.cfi_def_cfa_offset 0
	ret
	.p2align 2,,3
.L14:
	.cfi_restore_state
	mov	x19, 0
	mov	x0, x19
	ldr	x19, [sp, 16]
	ldp	x29, x30, [sp], 32
	.cfi_restore 30
	.cfi_restore 29
	.cfi_restore 19
	.cfi_def_cfa_offset 0
	ret
	.cfi_endproc
.LFE4171:
	.size	_ZNSt23_Sp_counted_ptr_inplaceIN8opendnp311CommandTaskESaIS1_ELN9__gnu_cxx12_Lock_policyE2EE14_M_get_deleterERKSt9type_info, .-_ZNSt23_Sp_counted_ptr_inplaceIN8opendnp311CommandTaskESaIS1_ELN9__gnu_cxx12_Lock_policyE2EE14_M_get_deleterERKSt9type_info
	.section	.text._ZNSt23_Sp_counted_ptr_inplaceIN8opendnp311CommandTaskESaIS1_ELN9__gnu_cxx12_Lock_policyE2EED0Ev,"axG",@progbits,_ZNSt23_Sp_counted_ptr_inplaceIN8opendnp311CommandTaskESaIS1_ELN9__gnu_cxx12_Lock_policyE2EED5Ev,comdat
	.align	2
	.p2align 4,,11
	.weak	_ZNSt23_Sp_counted_ptr_inplaceIN8opendnp311CommandTaskESaIS1_ELN9__gnu_cxx12_Lock_policyE2EED0Ev
	.type	_ZNSt23_Sp_counted_ptr_inplaceIN8opendnp311CommandTaskESaIS1_ELN9__gnu_cxx12_Lock_policyE2EED0Ev, %function
_ZNSt23_Sp_counted_ptr_inplaceIN8opendnp311CommandTaskESaIS1_ELN9__gnu_cxx12_Lock_policyE2EED0Ev:
.LFB4168:
	.cfi_startproc
	mov	x1, 248
	b	_ZdlPvm
	.cfi_endproc
.LFE4168:
	.size	_ZNSt23_Sp_counted_ptr_inplaceIN8opendnp311CommandTaskESaIS1_ELN9__gnu_cxx12_Lock_policyE2EED0Ev, .-_ZNSt23_Sp_counted_ptr_inplaceIN8opendnp311CommandTaskESaIS1_ELN9__gnu_cxx12_Lock_policyE2EED0Ev
	.section	.text._ZNSt23_Sp_counted_ptr_inplaceIN8opendnp311CommandTaskESaIS1_ELN9__gnu_cxx12_Lock_policyE2EE10_M_destroyEv,"axG",@progbits,_ZNSt23_Sp_counted_ptr_inplaceIN8opendnp311CommandTaskESaIS1_ELN9__gnu_cxx12_Lock_policyE2EE10_M_destroyEv,comdat
	.align	2
	.p2align 4,,11
	.weak	_ZNSt23_Sp_counted_ptr_inplaceIN8opendnp311CommandTaskESaIS1_ELN9__gnu_cxx12_Lock_policyE2EE10_M_destroyEv
	.type	_ZNSt23_Sp_counted_ptr_inplaceIN8opendnp311CommandTaskESaIS1_ELN9__gnu_cxx12_Lock_policyE2EE10_M_destroyEv, %function
_ZNSt23_Sp_counted_ptr_inplaceIN8opendnp311CommandTaskESaIS1_ELN9__gnu_cxx12_Lock_policyE2EE10_M_destroyEv:
.LFB4170:
	.cfi_startproc
	mov	x1, 248
	b	_ZdlPvm
	.cfi_endproc
.LFE4170:
	.size	_ZNSt23_Sp_counted_ptr_inplaceIN8opendnp311CommandTaskESaIS1_ELN9__gnu_cxx12_Lock_policyE2EE10_M_destroyEv, .-_ZNSt23_Sp_counted_ptr_inplaceIN8opendnp311CommandTaskESaIS1_ELN9__gnu_cxx12_Lock_policyE2EE10_M_destroyEv
	.text
	.align	2
	.p2align 4,,11
	.global	_ZN8opendnp311CommandTask14OnTaskCompleteENS_14TaskCompletionEN7openpal18MonotonicTimestampE
	.type	_ZN8opendnp311CommandTask14OnTaskCompleteENS_14TaskCompletionEN7openpal18MonotonicTimestampE, %function
_ZN8opendnp311CommandTask14OnTaskCompleteENS_14TaskCompletionEN7openpal18MonotonicTimestampE:
.LFB3205:
	.cfi_startproc
	stp	x29, x30, [sp, -16]!
	.cfi_def_cfa_offset 16
	.cfi_offset 29, -16
	.cfi_offset 30, -8
	add	x2, x0, 176
	add	x0, x0, 208
	mov	x29, sp
	bl	_ZN8opendnp313CommandSetOps14InvokeCallbackERKNS_10CommandSetENS_14TaskCompletionERSt8functionIFvRKNS_18ICommandTaskResultEEE
	bl	_ZN7openpal18MonotonicTimestamp3MaxEv
	mov	x1, x0
	ldp	x29, x30, [sp], 16
	.cfi_restore 30
	.cfi_restore 29
	.cfi_def_cfa_offset 0
	mov	x0, 0
	ret
	.cfi_endproc
.LFE3205:
	.size	_ZN8opendnp311CommandTask14OnTaskCompleteENS_14TaskCompletionEN7openpal18MonotonicTimestampE, .-_ZN8opendnp311CommandTask14OnTaskCompleteENS_14TaskCompletionEN7openpal18MonotonicTimestampE
	.align	2
	.p2align 4,,11
	.global	_ZN8opendnp311CommandTask12BuildRequestERNS_11APDURequestEh
	.type	_ZN8opendnp311CommandTask12BuildRequestERNS_11APDURequestEh, %function
_ZN8opendnp311CommandTask12BuildRequestERNS_11APDURequestEh:
.LFB3203:
	.cfi_startproc
	stp	x29, x30, [sp, -112]!
	.cfi_def_cfa_offset 112
	.cfi_offset 29, -112
	.cfi_offset 30, -104
	adrp	x3, :got:__stack_chk_guard
	mov	x29, sp
	ldr	x3, [x3, #:got_lo12:__stack_chk_guard]
	stp	x19, x20, [sp, 16]
	.cfi_offset 19, -96
	.cfi_offset 20, -88
	mov	x19, x0
	mov	x20, x1
	ldr	x1, [x0, 104]
	ldr	x0, [x3]
	str	x0, [sp, 104]
	mov	x0, 0
	ldr	x3, [x19, 136]
	cmp	x1, x3
	beq	.L22
	ldrb	w1, [x1]
	mov	x0, x20
	stp	x21, x22, [sp, 32]
	.cfi_offset 22, -72
	.cfi_offset 21, -80
	add	x21, x19, 88
	and	w22, w2, 255
	bl	_ZN8opendnp311APDUWrapper11SetFunctionENS_12FunctionCodeE
	ldr	x1, [x21, 32]
	ldr	x0, [x21, 16]
	sub	x1, x1, #1
	cmp	x0, x1
	beq	.L23
	add	x0, x0, 1
.L24:
	str	x0, [x21, 16]
	mov	w0, w22
	add	x21, sp, 72
	bl	_ZN8opendnp315AppControlField7RequestEh
	mov	x2, x0
	strb	w0, [sp, 64]
	mov	x0, x20
	ubfx	x4, x2, 8, 8
	ubfx	x3, x2, 16, 8
	lsr	w1, w2, 24
	ubfx	x2, x2, 32, 8
	strb	w4, [sp, 65]
	strb	w3, [sp, 66]
	strb	w1, [sp, 67]
	strb	w2, [sp, 68]
	ldr	x1, [sp, 64]
	bl	_ZN8opendnp311APDUWrapper10SetControlENS_15AppControlFieldE
	mov	x8, x21
	mov	x0, x20
	bl	_ZN8opendnp311APDUWrapper9GetWriterEv
	mov	x1, x21
	add	x0, x19, 208
	bl	_ZN8opendnp313CommandSetOps5WriteERKNS_10CommandSetERNS_12HeaderWriterE
	and	w0, w0, 255
	ldp	x21, x22, [sp, 32]
	.cfi_restore 22
	.cfi_restore 21
.L22:
	adrp	x1, :got:__stack_chk_guard
	ldr	x1, [x1, #:got_lo12:__stack_chk_guard]
	ldr	x3, [sp, 104]
	ldr	x2, [x1]
	subs	x3, x3, x2
	mov	x2, 0
	bne	.L28
	ldp	x19, x20, [sp, 16]
	ldp	x29, x30, [sp], 112
	.cfi_restore 30
	.cfi_restore 29
	.cfi_restore 19
	.cfi_restore 20
	.cfi_def_cfa_offset 0
	ret
	.p2align 2,,3
.L23:
	.cfi_def_cfa_offset 112
	.cfi_offset 19, -96
	.cfi_offset 20, -88
	.cfi_offset 21, -80
	.cfi_offset 22, -72
	.cfi_offset 29, -112
	.cfi_offset 30, -104
	ldr	x0, [x21, 24]
	mov	x1, 512
	str	x23, [sp, 48]
	.cfi_offset 23, -64
	add	x23, x19, 104
	bl	_ZdlPvm
	ldr	x0, [x21, 40]
	add	x1, x0, 8
	ldr	x0, [x0, 8]
	str	x0, [x23, 8]
	str	x1, [x23, 24]
	add	x1, x0, 512
	str	x1, [x23, 16]
	ldr	x23, [sp, 48]
	.cfi_restore 23
	b	.L24
.L28:
	.cfi_restore 21
	.cfi_restore 22
	stp	x21, x22, [sp, 32]
	.cfi_offset 22, -72
	.cfi_offset 21, -80
	str	x23, [sp, 48]
	.cfi_offset 23, -64
	bl	__stack_chk_fail
	.cfi_endproc
.LFE3203:
	.size	_ZN8opendnp311CommandTask12BuildRequestERNS_11APDURequestEh, .-_ZN8opendnp311CommandTask12BuildRequestERNS_11APDURequestEh
	.section	.text._ZN8opendnp311CommandTaskD2Ev,"axG",@progbits,_ZN8opendnp311CommandTaskD5Ev,comdat
	.align	2
	.p2align 4,,11
	.weak	_ZN8opendnp311CommandTaskD2Ev
	.type	_ZN8opendnp311CommandTaskD2Ev, %function
_ZN8opendnp311CommandTaskD2Ev:
.LFB4146:
	.cfi_startproc
	.cfi_personality 0x9b,DW.ref.__gxx_personality_v0
	.cfi_lsda 0x1b,.LLSDA4146
	stp	x29, x30, [sp, -48]!
	.cfi_def_cfa_offset 48
	.cfi_offset 29, -48
	.cfi_offset 30, -40
	adrp	x1, :got:_ZTVN8opendnp311CommandTaskE
	mov	x29, sp
	ldr	x1, [x1, #:got_lo12:_ZTVN8opendnp311CommandTaskE]
	stp	x19, x20, [sp, 16]
	.cfi_offset 19, -32
	.cfi_offset 20, -24
	mov	x20, x0
	add	x1, x1, 16
	stp	x21, x22, [sp, 32]
	.cfi_offset 21, -16
	.cfi_offset 22, -8
	str	x1, [x0], 208
	bl	_ZN8opendnp310CommandSetD1Ev
	ldr	x3, [x20, 192]
	add	x1, x20, 176
	cbz	x3, .L30
	mov	x0, x1
	mov	w2, 3
	blr	x3
.L30:
	ldr	x0, [x20, 88]
	add	x22, x20, 88
	cbz	x0, .L31
	ldr	x21, [x22, 72]
	ldr	x19, [x22, 40]
	add	x21, x21, 8
	cmp	x19, x21
	bcs	.L32
	.p2align 3,,7
.L33:
	ldr	x0, [x19], 8
	mov	x1, 512
	bl	_ZdlPvm
	cmp	x21, x19
	bhi	.L33
	ldr	x0, [x20, 88]
.L32:
	ldr	x1, [x22, 8]
	lsl	x1, x1, 3
	bl	_ZdlPvm
.L31:
	mov	x0, x20
	ldp	x19, x20, [sp, 16]
	ldp	x21, x22, [sp, 32]
	ldp	x29, x30, [sp], 48
	.cfi_restore 30
	.cfi_restore 29
	.cfi_restore 21
	.cfi_restore 22
	.cfi_restore 19
	.cfi_restore 20
	.cfi_def_cfa_offset 0
	b	_ZN8opendnp311IMasterTaskD2Ev
	.cfi_endproc
.LFE4146:
	.global	__gxx_personality_v0
	.section	.gcc_except_table._ZN8opendnp311CommandTaskD2Ev,"aG",@progbits,_ZN8opendnp311CommandTaskD5Ev,comdat
.LLSDA4146:
	.byte	0xff
	.byte	0xff
	.byte	0x1
	.uleb128 .LLSDACSE4146-.LLSDACSB4146
.LLSDACSB4146:
.LLSDACSE4146:
	.section	.text._ZN8opendnp311CommandTaskD2Ev,"axG",@progbits,_ZN8opendnp311CommandTaskD5Ev,comdat
	.size	_ZN8opendnp311CommandTaskD2Ev, .-_ZN8opendnp311CommandTaskD2Ev
	.weak	_ZN8opendnp311CommandTaskD1Ev
	.set	_ZN8opendnp311CommandTaskD1Ev,_ZN8opendnp311CommandTaskD2Ev
	.section	.text._ZN8opendnp311CommandTaskD0Ev,"axG",@progbits,_ZN8opendnp311CommandTaskD5Ev,comdat
	.align	2
	.p2align 4,,11
	.weak	_ZN8opendnp311CommandTaskD0Ev
	.type	_ZN8opendnp311CommandTaskD0Ev, %function
_ZN8opendnp311CommandTaskD0Ev:
.LFB4148:
	.cfi_startproc
	.cfi_personality 0x9b,DW.ref.__gxx_personality_v0
	.cfi_lsda 0x1b,.LLSDA4148
	stp	x29, x30, [sp, -48]!
	.cfi_def_cfa_offset 48
	.cfi_offset 29, -48
	.cfi_offset 30, -40
	adrp	x1, :got:_ZTVN8opendnp311CommandTaskE
	mov	x29, sp
	ldr	x1, [x1, #:got_lo12:_ZTVN8opendnp311CommandTaskE]
	stp	x19, x20, [sp, 16]
	.cfi_offset 19, -32
	.cfi_offset 20, -24
	mov	x20, x0
	add	x1, x1, 16
	stp	x21, x22, [sp, 32]
	.cfi_offset 21, -16
	.cfi_offset 22, -8
	str	x1, [x0], 208
	bl	_ZN8opendnp310CommandSetD1Ev
	ldr	x3, [x20, 192]
	add	x1, x20, 176
	cbz	x3, .L43
	mov	x0, x1
	mov	w2, 3
	blr	x3
.L43:
	ldr	x0, [x20, 88]
	add	x22, x20, 88
	cbz	x0, .L44
	ldr	x21, [x22, 72]
	ldr	x19, [x22, 40]
	add	x21, x21, 8
	cmp	x19, x21
	bcs	.L45
	.p2align 3,,7
.L46:
	ldr	x0, [x19], 8
	mov	x1, 512
	bl	_ZdlPvm
	cmp	x21, x19
	bhi	.L46
	ldr	x0, [x20, 88]
.L45:
	ldr	x1, [x22, 8]
	lsl	x1, x1, 3
	bl	_ZdlPvm
.L44:
	mov	x0, x20
	bl	_ZN8opendnp311IMasterTaskD2Ev
	mov	x0, x20
	mov	x1, 232
	ldp	x19, x20, [sp, 16]
	ldp	x21, x22, [sp, 32]
	ldp	x29, x30, [sp], 48
	.cfi_restore 30
	.cfi_restore 29
	.cfi_restore 21
	.cfi_restore 22
	.cfi_restore 19
	.cfi_restore 20
	.cfi_def_cfa_offset 0
	b	_ZdlPvm
	.cfi_endproc
.LFE4148:
	.section	.gcc_except_table._ZN8opendnp311CommandTaskD0Ev,"aG",@progbits,_ZN8opendnp311CommandTaskD5Ev,comdat
.LLSDA4148:
	.byte	0xff
	.byte	0xff
	.byte	0x1
	.uleb128 .LLSDACSE4148-.LLSDACSB4148
.LLSDACSB4148:
.LLSDACSE4148:
	.section	.text._ZN8opendnp311CommandTaskD0Ev,"axG",@progbits,_ZN8opendnp311CommandTaskD5Ev,comdat
	.size	_ZN8opendnp311CommandTaskD0Ev, .-_ZN8opendnp311CommandTaskD0Ev
	.global	__aarch64_ldadd4_acq_rel
	.section	.text._ZN7openpal6LoggerD2Ev,"axG",@progbits,_ZN7openpal6LoggerD5Ev,comdat
	.align	2
	.p2align 4,,11
	.weak	_ZN7openpal6LoggerD2Ev
	.type	_ZN7openpal6LoggerD2Ev, %function
_ZN7openpal6LoggerD2Ev:
.LFB2070:
	.cfi_startproc
	stp	x29, x30, [sp, -48]!
	.cfi_def_cfa_offset 48
	.cfi_offset 29, -48
	.cfi_offset 30, -40
	mov	x29, sp
	stp	x19, x20, [sp, 16]
	.cfi_offset 19, -32
	.cfi_offset 20, -24
	mov	x19, x0
	ldr	x20, [x0, 24]
	str	x21, [sp, 32]
	.cfi_offset 21, -16
	cbz	x20, .L57
	adrp	x21, :got:__libc_single_threaded
	ldr	x0, [x21, #:got_lo12:__libc_single_threaded]
	ldrb	w0, [x0]
	cbz	w0, .L58
	ldr	w0, [x20, 8]
	sub	w1, w0, #1
	str	w1, [x20, 8]
.L59:
	cmp	w0, 1
	beq	.L71
.L57:
	ldr	x19, [x19, 8]
	cbz	x19, .L55
	adrp	x21, :got:__libc_single_threaded
	ldr	x0, [x21, #:got_lo12:__libc_single_threaded]
	ldrb	w0, [x0]
	cbz	w0, .L65
	ldr	w0, [x19, 8]
	sub	w1, w0, #1
	str	w1, [x19, 8]
.L66:
	cmp	w0, 1
	beq	.L72
.L55:
	ldp	x19, x20, [sp, 16]
	ldr	x21, [sp, 32]
	ldp	x29, x30, [sp], 48
	.cfi_remember_state
	.cfi_restore 30
	.cfi_restore 29
	.cfi_restore 21
	.cfi_restore 19
	.cfi_restore 20
	.cfi_def_cfa_offset 0
	ret
	.p2align 2,,3
.L71:
	.cfi_restore_state
	ldr	x1, [x20]
	mov	x0, x20
	ldr	x1, [x1, 16]
	blr	x1
	ldr	x21, [x21, #:got_lo12:__libc_single_threaded]
	ldrb	w0, [x21]
	cbz	w0, .L61
	ldr	w0, [x20, 12]
	sub	w1, w0, #1
	str	w1, [x20, 12]
.L62:
	cmp	w0, 1
	bne	.L57
	ldr	x1, [x20]
	mov	x0, x20
	ldr	x1, [x1, 24]
	blr	x1
	b	.L57
	.p2align 2,,3
.L72:
	ldr	x1, [x19]
	mov	x0, x19
	ldr	x1, [x1, 16]
	blr	x1
	ldr	x21, [x21, #:got_lo12:__libc_single_threaded]
	ldrb	w0, [x21]
	cbz	w0, .L68
	ldr	w0, [x19, 12]
	sub	w1, w0, #1
	str	w1, [x19, 12]
.L69:
	cmp	w0, 1
	bne	.L55
	ldr	x1, [x19]
	mov	x0, x19
	ldp	x19, x20, [sp, 16]
	ldr	x21, [sp, 32]
	ldp	x29, x30, [sp], 48
	.cfi_remember_state
	.cfi_restore 30
	.cfi_restore 29
	.cfi_restore 21
	.cfi_restore 19
	.cfi_restore 20
	.cfi_def_cfa_offset 0
	ldr	x1, [x1, 24]
	mov	x16, x1
	br	x16
	.p2align 2,,3
.L65:
	.cfi_restore_state
	add	x1, x19, 8
	mov	w0, -1
	bl	__aarch64_ldadd4_acq_rel
	b	.L66
	.p2align 2,,3
.L58:
	add	x1, x20, 8
	mov	w0, -1
	bl	__aarch64_ldadd4_acq_rel
	b	.L59
	.p2align 2,,3
.L61:
	add	x1, x20, 12
	mov	w0, -1
	bl	__aarch64_ldadd4_acq_rel
	b	.L62
	.p2align 2,,3
.L68:
	add	x1, x19, 12
	mov	w0, -1
	bl	__aarch64_ldadd4_acq_rel
	b	.L69
	.cfi_endproc
.LFE2070:
	.size	_ZN7openpal6LoggerD2Ev, .-_ZN7openpal6LoggerD2Ev
	.weak	_ZN7openpal6LoggerD1Ev
	.set	_ZN7openpal6LoggerD1Ev,_ZN7openpal6LoggerD2Ev
	.text
	.align	2
	.p2align 4,,11
	.global	_ZN8opendnp311CommandTaskC2EONS_10CommandSetERNS_18IMasterApplicationERKSt8functionIFvRKNS_18ICommandTaskResultEEERKNS_10TaskConfigEN7openpal6LoggerE
	.type	_ZN8opendnp311CommandTaskC2EONS_10CommandSetERNS_18IMasterApplicationERKSt8functionIFvRKNS_18ICommandTaskResultEEERKNS_10TaskConfigEN7openpal6LoggerE, %function
_ZN8opendnp311CommandTaskC2EONS_10CommandSetERNS_18IMasterApplicationERKSt8functionIFvRKNS_18ICommandTaskResultEEERKNS_10TaskConfigEN7openpal6LoggerE:
.LFB3199:
	.cfi_startproc
	.cfi_personality 0x9b,DW.ref.__gxx_personality_v0
	.cfi_lsda 0x1b,.LLSDA3199
	stp	x29, x30, [sp, -128]!
	.cfi_def_cfa_offset 128
	.cfi_offset 29, -128
	.cfi_offset 30, -120
	adrp	x6, :got:__stack_chk_guard
	mov	x29, sp
	ldr	x6, [x6, #:got_lo12:__stack_chk_guard]
	stp	x19, x20, [sp, 16]
	.cfi_offset 19, -112
	.cfi_offset 20, -104
	mov	x19, x0
	stp	x21, x22, [sp, 32]
	mov	x20, x5
	.cfi_offset 21, -96
	.cfi_offset 22, -88
	mov	x21, x2
	stp	x23, x24, [sp, 48]
	mov	x22, x3
	.cfi_offset 23, -80
	.cfi_offset 24, -72
	mov	x23, x1
	stp	x25, x26, [sp, 64]
	.cfi_offset 25, -64
	.cfi_offset 26, -56
	mov	x25, x4
	ldr	x0, [x6]
	str	x0, [sp, 120]
	mov	x0, 0
.LEHB0:
	bl	_ZN7openpal18MonotonicTimestamp3MinEv
.LEHE0:
	mov	x24, x0
	ldr	q0, [x20]
	umov	x1, v0.d[1]
	str	q0, [sp, 80]
	cbz	x1, .L74
	adrp	x0, :got:__libc_single_threaded
	ldr	x0, [x0, #:got_lo12:__libc_single_threaded]
	ldrb	w0, [x0]
	cbz	w0, .L75
	ldr	w0, [x1, 8]
	add	w0, w0, 1
	str	w0, [x1, 8]
.L74:
	ldr	q0, [x20, 16]
	umov	x1, v0.d[1]
	str	q0, [sp, 96]
	cbz	x1, .L76
	adrp	x0, :got:__libc_single_threaded
	ldr	x0, [x0, #:got_lo12:__libc_single_threaded]
	ldrb	w0, [x0]
	cbz	w0, .L77
	ldr	w0, [x1, 8]
	add	w0, w0, 1
	str	w0, [x1, 8]
.L76:
	ldp	x4, x5, [x25]
	add	x20, sp, 80
	mov	x2, x24
	mov	x1, x21
	mov	x3, x20
	mov	x0, x19
.LEHB1:
	bl	_ZN8opendnp311IMasterTaskC2ERNS_18IMasterApplicationEN7openpal18MonotonicTimestampENS3_6LoggerENS_10TaskConfigE
.LEHE1:
	ldr	x20, [sp, 104]
	cbz	x20, .L79
	adrp	x21, :got:__libc_single_threaded
	ldr	x0, [x21, #:got_lo12:__libc_single_threaded]
	ldrb	w0, [x0]
	cbz	w0, .L80
	ldr	w0, [x20, 8]
	sub	w1, w0, #1
	str	w1, [x20, 8]
.L81:
	cmp	w0, 1
	beq	.L133
.L79:
	ldr	x20, [sp, 88]
	cbz	x20, .L86
	adrp	x21, :got:__libc_single_threaded
	ldr	x0, [x21, #:got_lo12:__libc_single_threaded]
	ldrb	w0, [x0]
	cbz	w0, .L87
	ldr	w0, [x20, 8]
	sub	w1, w0, #1
	str	w1, [x20, 8]
.L88:
	cmp	w0, 1
	beq	.L134
.L86:
	adrp	x2, :got:_ZTVN8opendnp311CommandTaskE
	mov	x21, x19
	movi	v0.4s, 0
	mov	x1, 8
	ldr	x2, [x2, #:got_lo12:_ZTVN8opendnp311CommandTaskE]
	mov	x0, 64
	add	x2, x2, 16
	str	x2, [x21], 88
	add	x2, x19, 104
	str	xzr, [x19, 88]
	stp	q0, q0, [x2]
	stp	q0, q0, [x2, 32]
	str	x1, [x21, 8]
.LEHB2:
	bl	_Znwm
.LEHE2:
	ldr	x20, [x21, 8]
	mov	x24, x0
	str	x24, [x19, 88]
	mov	x0, 512
	sub	x20, x20, #1
	lsr	x20, x20, 1
	add	x25, x24, x20, lsl 3
.LEHB3:
	bl	_Znwm
.LEHE3:
	add	x3, x0, 512
	add	x26, x19, 176
	stp	x0, x3, [x19, 112]
	mov	w4, 127
	str	x25, [x19, 128]
	stp	x0, x3, [x19, 144]
	str	x25, [x19, 160]
	ldr	x3, [x22, 16]
	str	x0, [x21, 16]
	str	x0, [x21, 48]
	strb	w4, [x19, 168]
	stp	xzr, xzr, [x19, 176]
	str	x0, [x24, x20, lsl 3]
	stp	xzr, xzr, [x26, 16]
	cbz	x3, .L93
	mov	x1, x22
	mov	x0, x26
	mov	w2, 2
.LEHB4:
	blr	x3
.LEHE4:
	ldr	q0, [x22, 16]
	str	q0, [x19, 192]
.L93:
	mov	x1, x23
	add	x0, x19, 208
.LEHB5:
	bl	_ZN8opendnp310CommandSetC1EOS0_
.LEHE5:
	adrp	x0, :got:__stack_chk_guard
	ldr	x0, [x0, #:got_lo12:__stack_chk_guard]
	ldr	x2, [sp, 120]
	ldr	x1, [x0]
	subs	x2, x2, x1
	mov	x1, 0
	bne	.L135
	ldp	x19, x20, [sp, 16]
	ldp	x21, x22, [sp, 32]
	ldp	x23, x24, [sp, 48]
	ldp	x25, x26, [sp, 64]
	ldp	x29, x30, [sp], 128
	.cfi_remember_state
	.cfi_restore 30
	.cfi_restore 29
	.cfi_restore 25
	.cfi_restore 26
	.cfi_restore 23
	.cfi_restore 24
	.cfi_restore 21
	.cfi_restore 22
	.cfi_restore 19
	.cfi_restore 20
	.cfi_def_cfa_offset 0
	ret
	.p2align 2,,3
.L77:
	.cfi_restore_state
	add	x1, x1, 8
	mov	w0, 1
	bl	__aarch64_ldadd4_acq_rel
	b	.L76
	.p2align 2,,3
.L75:
	add	x1, x1, 8
	mov	w0, 1
	bl	__aarch64_ldadd4_acq_rel
	b	.L74
	.p2align 2,,3
.L133:
	ldr	x1, [x20]
	mov	x0, x20
	ldr	x1, [x1, 16]
	blr	x1
	ldr	x21, [x21, #:got_lo12:__libc_single_threaded]
	ldrb	w0, [x21]
	cbz	w0, .L83
	ldr	w0, [x20, 12]
	sub	w1, w0, #1
	str	w1, [x20, 12]
.L84:
	cmp	w0, 1
	bne	.L79
	ldr	x1, [x20]
	mov	x0, x20
	ldr	x1, [x1, 24]
	blr	x1
	b	.L79
	.p2align 2,,3
.L134:
	ldr	x1, [x20]
	mov	x0, x20
	ldr	x1, [x1, 16]
	blr	x1
	ldr	x21, [x21, #:got_lo12:__libc_single_threaded]
	ldrb	w0, [x21]
	cbz	w0, .L90
	ldr	w0, [x20, 12]
	sub	w1, w0, #1
	str	w1, [x20, 12]
.L91:
	cmp	w0, 1
	bne	.L86
	ldr	x1, [x20]
	mov	x0, x20
	ldr	x1, [x1, 24]
	blr	x1
	b	.L86
	.p2align 2,,3
.L80:
	add	x1, x20, 8
	mov	w0, -1
	bl	__aarch64_ldadd4_acq_rel
	b	.L81
	.p2align 2,,3
.L87:
	add	x1, x20, 8
	mov	w0, -1
	bl	__aarch64_ldadd4_acq_rel
	b	.L88
.L83:
	add	x1, x20, 12
	mov	w0, -1
	bl	__aarch64_ldadd4_acq_rel
	b	.L84
.L90:
	add	x1, x20, 12
	mov	w0, -1
	bl	__aarch64_ldadd4_acq_rel
	b	.L91
.L135:
	bl	__stack_chk_fail
.L113:
	bl	__cxa_begin_catch
.LEHB6:
	bl	__cxa_rethrow
.LEHE6:
.L110:
	mov	x20, x0
	b	.L97
.L115:
	ldr	x3, [x26, 16]
	mov	x20, x0
	cbz	x3, .L101
	mov	x1, x26
	mov	x0, x26
	mov	w2, 3
	blr	x3
	b	.L101
.L111:
	ldr	x3, [x26, 16]
	mov	x20, x0
	cbz	x3, .L101
	mov	x1, x26
	mov	x0, x26
	mov	w2, 3
	blr	x3
.L101:
	ldr	x0, [x19, 88]
	cbz	x0, .L97
	ldr	x22, [x21, 72]
	ldr	x23, [x21, 40]
	add	x22, x22, 8
.L106:
	cmp	x22, x23
	bls	.L136
	ldr	x0, [x23], 8
	mov	x1, 512
	bl	_ZdlPvm
	b	.L106
.L114:
	mov	x20, x0
	bl	__cxa_end_catch
	mov	x0, x20
	bl	__cxa_begin_catch
	ldr	x1, [x21, 8]
	ldr	x0, [x19, 88]
	lsl	x1, x1, 3
	bl	_ZdlPvm
	str	xzr, [x19, 88]
	str	xzr, [x21, 8]
.LEHB7:
	bl	__cxa_rethrow
.LEHE7:
.L109:
	mov	x19, x0
	mov	x0, x20
	bl	_ZN7openpal6LoggerD1Ev
	mov	x0, x19
.LEHB8:
	bl	_Unwind_Resume
.LEHE8:
.L112:
	mov	x20, x0
	bl	__cxa_end_catch
.L97:
	mov	x0, x19
	bl	_ZN8opendnp311IMasterTaskD2Ev
	mov	x0, x20
.LEHB9:
	bl	_Unwind_Resume
.LEHE9:
.L136:
	ldr	x1, [x21, 8]
	ldr	x0, [x19, 88]
	lsl	x1, x1, 3
	bl	_ZdlPvm
	b	.L97
	.cfi_endproc
.LFE3199:
	.section	.gcc_except_table,"a",@progbits
	.align	2
.LLSDA3199:
	.byte	0xff
	.byte	0x9b
	.uleb128 .LLSDATT3199-.LLSDATTD3199
.LLSDATTD3199:
	.byte	0x1
	.uleb128 .LLSDACSE3199-.LLSDACSB3199
.LLSDACSB3199:
	.uleb128 .LEHB0-.LFB3199
	.uleb128 .LEHE0-.LEHB0
	.uleb128 0
	.uleb128 0
	.uleb128 .LEHB1-.LFB3199
	.uleb128 .LEHE1-.LEHB1
	.uleb128 .L109-.LFB3199
	.uleb128 0
	.uleb128 .LEHB2-.LFB3199
	.uleb128 .LEHE2-.LEHB2
	.uleb128 .L110-.LFB3199
	.uleb128 0
	.uleb128 .LEHB3-.LFB3199
	.uleb128 .LEHE3-.LEHB3
	.uleb128 .L113-.LFB3199
	.uleb128 0x1
	.uleb128 .LEHB4-.LFB3199
	.uleb128 .LEHE4-.LEHB4
	.uleb128 .L115-.LFB3199
	.uleb128 0
	.uleb128 .LEHB5-.LFB3199
	.uleb128 .LEHE5-.LEHB5
	.uleb128 .L111-.LFB3199
	.uleb128 0
	.uleb128 .LEHB6-.LFB3199
	.uleb128 .LEHE6-.LEHB6
	.uleb128 .L114-.LFB3199
	.uleb128 0x1
	.uleb128 .LEHB7-.LFB3199
	.uleb128 .LEHE7-.LEHB7
	.uleb128 .L112-.LFB3199
	.uleb128 0
	.uleb128 .LEHB8-.LFB3199
	.uleb128 .LEHE8-.LEHB8
	.uleb128 0
	.uleb128 0
	.uleb128 .LEHB9-.LFB3199
	.uleb128 .LEHE9-.LEHB9
	.uleb128 0
	.uleb128 0
.LLSDACSE3199:
	.byte	0x1
	.byte	0
	.align	2
	.4byte	0

.LLSDATT3199:
	.text
	.size	_ZN8opendnp311CommandTaskC2EONS_10CommandSetERNS_18IMasterApplicationERKSt8functionIFvRKNS_18ICommandTaskResultEEERKNS_10TaskConfigEN7openpal6LoggerE, .-_ZN8opendnp311CommandTaskC2EONS_10CommandSetERNS_18IMasterApplicationERKSt8functionIFvRKNS_18ICommandTaskResultEEERKNS_10TaskConfigEN7openpal6LoggerE
	.global	_ZN8opendnp311CommandTaskC1EONS_10CommandSetERNS_18IMasterApplicationERKSt8functionIFvRKNS_18ICommandTaskResultEEERKNS_10TaskConfigEN7openpal6LoggerE
	.set	_ZN8opendnp311CommandTaskC1EONS_10CommandSetERNS_18IMasterApplicationERKSt8functionIFvRKNS_18ICommandTaskResultEEERKNS_10TaskConfigEN7openpal6LoggerE,_ZN8opendnp311CommandTaskC2EONS_10CommandSetERNS_18IMasterApplicationERKSt8functionIFvRKNS_18ICommandTaskResultEEERKNS_10TaskConfigEN7openpal6LoggerE
	.align	2
	.p2align 4,,11
	.global	_ZN8opendnp311CommandTask15ProcessResponseERKN7openpal6RSliceE
	.type	_ZN8opendnp311CommandTask15ProcessResponseERKN7openpal6RSliceE, %function
_ZN8opendnp311CommandTask15ProcessResponseERKN7openpal6RSliceE:
.LFB3207:
	.cfi_startproc
	mov	x3, x0
	stp	x29, x30, [sp, -16]!
	.cfi_def_cfa_offset 16
	.cfi_offset 29, -16
	.cfi_offset 30, -8
	add	x2, x3, 16
	mov	x29, sp
	ldr	x4, [x3, 104]
	add	x0, x0, 208
	ldr	x3, [x3, 136]
	cmp	x3, x4
	beq	.L143
	bl	_ZN8opendnp313CommandSetOps21ProcessSelectResponseERNS_10CommandSetERKN7openpal6RSliceEPNS3_6LoggerE
	ands	w1, w0, 255
	mov	w0, 3
	beq	.L139
	cmp	w1, 2
	cset	w0, eq
	lsl	w0, w0, 1
.L139:
	ldp	x29, x30, [sp], 16
	.cfi_remember_state
	.cfi_restore 30
	.cfi_restore 29
	.cfi_def_cfa_offset 0
	ret
	.p2align 2,,3
.L143:
	.cfi_restore_state
	bl	_ZN8opendnp313CommandSetOps22ProcessOperateResponseERNS_10CommandSetERKN7openpal6RSliceEPNS3_6LoggerE
	and	w0, w0, 255
	cmp	w0, 1
	cset	w0, ne
	ldp	x29, x30, [sp], 16
	.cfi_restore 30
	.cfi_restore 29
	.cfi_def_cfa_offset 0
	lsl	w0, w0, 1
	ret
	.cfi_endproc
.LFE3207:
	.size	_ZN8opendnp311CommandTask15ProcessResponseERKN7openpal6RSliceE, .-_ZN8opendnp311CommandTask15ProcessResponseERKN7openpal6RSliceE
	.align	2
	.p2align 4,,11
	.global	_ZN8opendnp311CommandTask15ProcessResponseERKNS_18APDUResponseHeaderERKN7openpal6RSliceE
	.type	_ZN8opendnp311CommandTask15ProcessResponseERKNS_18APDUResponseHeaderERKN7openpal6RSliceE, %function
_ZN8opendnp311CommandTask15ProcessResponseERKNS_18APDUResponseHeaderERKN7openpal6RSliceE:
.LFB3204:
	.cfi_startproc
	stp	x29, x30, [sp, -32]!
	.cfi_def_cfa_offset 32
	.cfi_offset 29, -32
	.cfi_offset 30, -24
	mov	x29, sp
	stp	x19, x20, [sp, 16]
	.cfi_offset 19, -16
	.cfi_offset 20, -8
	mov	x20, x2
	mov	x19, x0
	bl	_ZN8opendnp311IMasterTask22ValidateSingleResponseERKNS_18APDUResponseHeaderE
	tst	w0, 255
	bne	.L147
	mov	w0, 0
	ldp	x19, x20, [sp, 16]
	ldp	x29, x30, [sp], 32
	.cfi_remember_state
	.cfi_restore 30
	.cfi_restore 29
	.cfi_restore 19
	.cfi_restore 20
	.cfi_def_cfa_offset 0
	ret
	.p2align 2,,3
.L147:
	.cfi_restore_state
	mov	x1, x20
	mov	x0, x19
	ldp	x19, x20, [sp, 16]
	ldp	x29, x30, [sp], 32
	.cfi_restore 30
	.cfi_restore 29
	.cfi_restore 19
	.cfi_restore 20
	.cfi_def_cfa_offset 0
	b	_ZN8opendnp311CommandTask15ProcessResponseERKN7openpal6RSliceE
	.cfi_endproc
.LFE3204:
	.size	_ZN8opendnp311CommandTask15ProcessResponseERKNS_18APDUResponseHeaderERKN7openpal6RSliceE, .-_ZN8opendnp311CommandTask15ProcessResponseERKNS_18APDUResponseHeaderERKN7openpal6RSliceE
	.section	.text._ZNSt16_Sp_counted_baseILN9__gnu_cxx12_Lock_policyE2EE10_M_releaseEv,"axG",@progbits,_ZNSt16_Sp_counted_baseILN9__gnu_cxx12_Lock_policyE2EE10_M_releaseEv,comdat
	.align	2
	.p2align 4,,11
	.weak	_ZNSt16_Sp_counted_baseILN9__gnu_cxx12_Lock_policyE2EE10_M_releaseEv
	.type	_ZNSt16_Sp_counted_baseILN9__gnu_cxx12_Lock_policyE2EE10_M_releaseEv, %function
_ZNSt16_Sp_counted_baseILN9__gnu_cxx12_Lock_policyE2EE10_M_releaseEv:
.LFB3665:
	.cfi_startproc
	stp	x29, x30, [sp, -32]!
	.cfi_def_cfa_offset 32
	.cfi_offset 29, -32
	.cfi_offset 30, -24
	mov	x29, sp
	stp	x19, x20, [sp, 16]
	.cfi_offset 19, -16
	.cfi_offset 20, -8
	adrp	x20, :got:__libc_single_threaded
	mov	x19, x0
	ldr	x0, [x20, #:got_lo12:__libc_single_threaded]
	ldrb	w0, [x0]
	cbz	w0, .L149
	ldr	w0, [x19, 8]
	sub	w1, w0, #1
	str	w1, [x19, 8]
.L150:
	cmp	w0, 1
	beq	.L157
.L148:
	ldp	x19, x20, [sp, 16]
	ldp	x29, x30, [sp], 32
	.cfi_remember_state
	.cfi_restore 30
	.cfi_restore 29
	.cfi_restore 19
	.cfi_restore 20
	.cfi_def_cfa_offset 0
	ret
	.p2align 2,,3
.L157:
	.cfi_restore_state
	ldr	x1, [x19]
	mov	x0, x19
	ldr	x1, [x1, 16]
	blr	x1
	ldr	x20, [x20, #:got_lo12:__libc_single_threaded]
	ldrb	w0, [x20]
	cbz	w0, .L153
	ldr	w0, [x19, 12]
	sub	w1, w0, #1
	str	w1, [x19, 12]
.L154:
	cmp	w0, 1
	bne	.L148
	ldr	x1, [x19]
	mov	x0, x19
	ldp	x19, x20, [sp, 16]
	ldp	x29, x30, [sp], 32
	.cfi_remember_state
	.cfi_restore 30
	.cfi_restore 29
	.cfi_restore 19
	.cfi_restore 20
	.cfi_def_cfa_offset 0
	ldr	x1, [x1, 24]
	mov	x16, x1
	br	x16
	.p2align 2,,3
.L149:
	.cfi_restore_state
	add	x1, x19, 8
	mov	w0, -1
	bl	__aarch64_ldadd4_acq_rel
	b	.L150
	.p2align 2,,3
.L153:
	add	x1, x19, 12
	mov	w0, -1
	bl	__aarch64_ldadd4_acq_rel
	b	.L154
	.cfi_endproc
.LFE3665:
	.size	_ZNSt16_Sp_counted_baseILN9__gnu_cxx12_Lock_policyE2EE10_M_releaseEv, .-_ZNSt16_Sp_counted_baseILN9__gnu_cxx12_Lock_policyE2EE10_M_releaseEv
	.section	.rodata._ZNSt5dequeIN8opendnp312FunctionCodeESaIS1_EE16_M_push_back_auxIJS1_EEEvDpOT_.str1.8,"aMS",@progbits,1
	.align	3
.LC1:
	.string	"cannot create std::deque larger than max_size()"
	.section	.text._ZNSt5dequeIN8opendnp312FunctionCodeESaIS1_EE16_M_push_back_auxIJS1_EEEvDpOT_,"axG",@progbits,_ZNSt5dequeIN8opendnp312FunctionCodeESaIS1_EE16_M_push_back_auxIJS1_EEEvDpOT_,comdat
	.align	2
	.p2align 4,,11
	.weak	_ZNSt5dequeIN8opendnp312FunctionCodeESaIS1_EE16_M_push_back_auxIJS1_EEEvDpOT_
	.type	_ZNSt5dequeIN8opendnp312FunctionCodeESaIS1_EE16_M_push_back_auxIJS1_EEEvDpOT_, %function
_ZNSt5dequeIN8opendnp312FunctionCodeESaIS1_EE16_M_push_back_auxIJS1_EEEvDpOT_:
.LFB3840:
	.cfi_startproc
	stp	x29, x30, [sp, -80]!
	.cfi_def_cfa_offset 80
	.cfi_offset 29, -80
	.cfi_offset 30, -72
	mov	x5, 9223372036854775807
	mov	x29, sp
	stp	x19, x20, [sp, 16]
	.cfi_offset 19, -64
	.cfi_offset 20, -56
	add	x20, x0, 48
	mov	x19, x0
	stp	x23, x24, [sp, 48]
	.cfi_offset 23, -32
	.cfi_offset 24, -24
	add	x24, x0, 16
	ldr	x2, [x20, 8]
	stp	x21, x22, [sp, 32]
	.cfi_offset 21, -48
	.cfi_offset 22, -40
	mov	x22, x1
	ldr	x3, [x0, 48]
	stp	x25, x26, [sp, 64]
	.cfi_offset 25, -16
	.cfi_offset 26, -8
	sub	x3, x3, x2
	ldp	x2, x1, [x24, 16]
	ldr	x21, [x20, 24]
	ldr	x6, [x0, 16]
	cmp	x21, 0
	sub	x25, x21, x1
	cset	x0, ne
	sub	x2, x2, x6
	asr	x4, x25, 3
	sub	x0, x4, x0
	add	x0, x3, x0, lsl 9
	add	x0, x0, x2
	cmp	x0, x5
	beq	.L168
	ldp	x3, x0, [x19]
	sub	x2, x21, x3
	sub	x2, x0, x2, asr 3
	cmp	x2, 1
	bls	.L169
.L160:
	mov	x0, 512
	bl	_Znwm
	ldrb	w3, [x22]
	ldp	x23, x24, [sp, 48]
	ldp	x25, x26, [sp, 64]
	str	x0, [x21, 8]
	ldr	x0, [x19, 72]
	ldr	x2, [x19, 48]
	add	x1, x0, 8
	ldr	x0, [x0, 8]
	ldp	x21, x22, [sp, 32]
	strb	w3, [x2]
	add	x2, x0, 512
	stp	x0, x2, [x20, 8]
	str	x1, [x20, 24]
	str	x0, [x19, 48]
	ldp	x19, x20, [sp, 16]
	ldp	x29, x30, [sp], 80
	.cfi_remember_state
	.cfi_restore 30
	.cfi_restore 29
	.cfi_restore 25
	.cfi_restore 26
	.cfi_restore 23
	.cfi_restore 24
	.cfi_restore 21
	.cfi_restore 22
	.cfi_restore 19
	.cfi_restore 20
	.cfi_def_cfa_offset 0
	ret
	.p2align 2,,3
.L169:
	.cfi_restore_state
	add	x23, x4, 2
	cmp	x0, x23, lsl 1
	bhi	.L170
	cmp	x0, 0
	add	x2, x0, 2
	csinc	x0, x0, xzr, ne
	mov	x1, 1152921504606846975
	add	x21, x0, x2
	cmp	x21, x1
	bhi	.L171
	lsl	x0, x21, 3
	bl	_Znwm
	sub	x4, x21, x23
	mov	x26, x0
	ldr	x2, [x19, 72]
	lsr	x4, x4, 1
	ldr	x1, [x19, 40]
	add	x2, x2, 8
	add	x23, x0, x4, lsl 3
	cmp	x1, x2
	beq	.L166
	sub	x2, x2, x1
	mov	x0, x23
	bl	memmove
.L166:
	ldp	x0, x1, [x19]
	lsl	x1, x1, 3
	bl	_ZdlPvm
	stp	x26, x21, [x19]
.L163:
	add	x21, x23, x25
	ldr	x0, [x23]
	str	x0, [x24, 8]
	str	x23, [x24, 24]
	add	x0, x0, 512
	str	x0, [x24, 16]
	ldr	x0, [x23, x25]
	str	x0, [x20, 8]
	str	x21, [x20, 24]
	add	x0, x0, 512
	str	x0, [x20, 16]
	b	.L160
	.p2align 2,,3
.L170:
	sub	x0, x0, x23
	add	x21, x21, 8
	sub	x2, x21, x1
	lsr	x0, x0, 1
	add	x23, x3, x0, lsl 3
	cmp	x1, x23
	bls	.L162
	cmp	x1, x21
	beq	.L163
	mov	x0, x23
	bl	memmove
	b	.L163
	.p2align 2,,3
.L162:
	cmp	x1, x21
	beq	.L163
	add	x0, x25, 8
	sub	x0, x0, x2
	add	x0, x23, x0
	bl	memmove
	b	.L163
	.p2align 2,,3
.L171:
	mov	x0, 2305843009213693951
	cmp	x21, x0
	bls	.L165
	bl	_ZSt28__throw_bad_array_new_lengthv
.L165:
	bl	_ZSt17__throw_bad_allocv
.L168:
	adrp	x0, .LC1
	add	x0, x0, :lo12:.LC1
	bl	_ZSt20__throw_length_errorPKc
	.cfi_endproc
.LFE3840:
	.size	_ZNSt5dequeIN8opendnp312FunctionCodeESaIS1_EE16_M_push_back_auxIJS1_EEEvDpOT_, .-_ZNSt5dequeIN8opendnp312FunctionCodeESaIS1_EE16_M_push_back_auxIJS1_EEEvDpOT_
	.text
	.align	2
	.p2align 4,,11
	.global	_ZN8opendnp311CommandTask20LoadSelectAndOperateEv
	.type	_ZN8opendnp311CommandTask20LoadSelectAndOperateEv, %function
_ZN8opendnp311CommandTask20LoadSelectAndOperateEv:
.LFB3201:
	.cfi_startproc
	stp	x29, x30, [sp, -96]!
	.cfi_def_cfa_offset 96
	.cfi_offset 29, -96
	.cfi_offset 30, -88
	adrp	x2, :got:__stack_chk_guard
	mov	x29, sp
	ldr	x2, [x2, #:got_lo12:__stack_chk_guard]
	stp	x21, x22, [sp, 32]
	.cfi_offset 21, -64
	.cfi_offset 22, -56
	add	x22, x0, 88
	stp	x23, x24, [sp, 48]
	.cfi_offset 23, -48
	.cfi_offset 24, -40
	ldr	x23, [x0, 128]
	stp	x19, x20, [sp, 16]
	ldr	x21, [x0, 160]
	.cfi_offset 19, -80
	.cfi_offset 20, -72
	add	x19, x23, 8
	ldp	x20, x24, [x0, 104]
	str	x25, [sp, 64]
	.cfi_offset 25, -32
	add	x21, x21, 8
	ldr	x3, [x2]
	str	x3, [sp, 88]
	mov	x3, 0
	ldr	x25, [x0, 120]
	cmp	x19, x21
	bcs	.L176
	.p2align 3,,7
.L173:
	ldr	x0, [x19], 8
	mov	x1, 512
	bl	_ZdlPvm
	cmp	x21, x19
	bhi	.L173
.L176:
	mov	w2, 3
	sub	x1, x25, #1
	stp	x20, x24, [x22, 48]
	stp	x25, x23, [x22, 64]
	strb	w2, [sp, 87]
	cmp	x1, x20
	beq	.L185
	mov	x0, x20
	strb	w2, [x0], 1
	mov	w2, 4
	strb	w2, [sp, 87]
	str	x0, [x22, 48]
	cmp	x1, x0
	beq	.L178
.L187:
	strb	w2, [x0], 1
	str	x0, [x22, 48]
.L172:
	adrp	x0, :got:__stack_chk_guard
	ldr	x0, [x0, #:got_lo12:__stack_chk_guard]
	ldr	x2, [sp, 88]
	ldr	x1, [x0]
	subs	x2, x2, x1
	mov	x1, 0
	bne	.L186
	ldp	x19, x20, [sp, 16]
	ldp	x21, x22, [sp, 32]
	ldp	x23, x24, [sp, 48]
	ldr	x25, [sp, 64]
	ldp	x29, x30, [sp], 96
	.cfi_remember_state
	.cfi_restore 30
	.cfi_restore 29
	.cfi_restore 25
	.cfi_restore 23
	.cfi_restore 24
	.cfi_restore 21
	.cfi_restore 22
	.cfi_restore 19
	.cfi_restore 20
	.cfi_def_cfa_offset 0
	ret
	.p2align 2,,3
.L185:
	.cfi_restore_state
	add	x1, sp, 87
	mov	x0, x22
	bl	_ZNSt5dequeIN8opendnp312FunctionCodeESaIS1_EE16_M_push_back_auxIJS1_EEEvDpOT_
	ldr	x1, [x22, 64]
	mov	w2, 4
	ldr	x0, [x22, 48]
	sub	x1, x1, #1
	strb	w2, [sp, 87]
	cmp	x1, x0
	bne	.L187
	.p2align 3,,7
.L178:
	mov	x0, x22
	add	x1, sp, 87
	bl	_ZNSt5dequeIN8opendnp312FunctionCodeESaIS1_EE16_M_push_back_auxIJS1_EEEvDpOT_
	b	.L172
.L186:
	bl	__stack_chk_fail
	.cfi_endproc
.LFE3201:
	.size	_ZN8opendnp311CommandTask20LoadSelectAndOperateEv, .-_ZN8opendnp311CommandTask20LoadSelectAndOperateEv
	.align	2
	.p2align 4,,11
	.global	_ZN8opendnp311CommandTask22CreateSelectAndOperateEONS_10CommandSetERNS_18IMasterApplicationERKSt8functionIFvRKNS_18ICommandTaskResultEEERKNS_10TaskConfigEN7openpal6LoggerE
	.type	_ZN8opendnp311CommandTask22CreateSelectAndOperateEONS_10CommandSetERNS_18IMasterApplicationERKSt8functionIFvRKNS_18ICommandTaskResultEEERKNS_10TaskConfigEN7openpal6LoggerE, %function
_ZN8opendnp311CommandTask22CreateSelectAndOperateEONS_10CommandSetERNS_18IMasterApplicationERKSt8functionIFvRKNS_18ICommandTaskResultEEERKNS_10TaskConfigEN7openpal6LoggerE:
.LFB3191:
	.cfi_startproc
	.cfi_personality 0x9b,DW.ref.__gxx_personality_v0
	.cfi_lsda 0x1b,.LLSDA3191
	stp	x29, x30, [sp, -128]!
	.cfi_def_cfa_offset 128
	.cfi_offset 29, -128
	.cfi_offset 30, -120
	adrp	x5, :got:__stack_chk_guard
	mov	x29, sp
	ldr	x5, [x5, #:got_lo12:__stack_chk_guard]
	stp	x19, x20, [sp, 16]
	stp	x21, x22, [sp, 32]
	.cfi_offset 19, -112
	.cfi_offset 20, -104
	.cfi_offset 21, -96
	.cfi_offset 22, -88
	mov	x22, x4
	mov	x21, x8
	stp	x23, x24, [sp, 48]
	.cfi_offset 23, -80
	.cfi_offset 24, -72
	mov	x23, x0
	mov	x24, x1
	stp	x25, x26, [sp, 64]
	.cfi_offset 25, -64
	.cfi_offset 26, -56
	mov	x25, x2
	mov	x26, x3
	ldr	x0, [x5]
	str	x0, [sp, 120]
	mov	x0, 0
	mov	x0, 248
.LEHB10:
	bl	_Znwm
.LEHE10:
	ldr	q0, [x22]
	movi	v1.2s, 0x1
	adrp	x5, :got:_ZTVSt23_Sp_counted_ptr_inplaceIN8opendnp311CommandTaskESaIS1_ELN9__gnu_cxx12_Lock_policyE2EE
	mov	x20, x0
	mov	x19, x0
	ldr	x5, [x5, #:got_lo12:_ZTVSt23_Sp_counted_ptr_inplaceIN8opendnp311CommandTaskESaIS1_ELN9__gnu_cxx12_Lock_policyE2EE]
	umov	x1, v0.d[1]
	str	d1, [x0, 8]
	add	x5, x5, 16
	str	x5, [x20], 16
	str	q0, [sp, 80]
	cbz	x1, .L189
	adrp	x0, :got:__libc_single_threaded
	ldr	x0, [x0, #:got_lo12:__libc_single_threaded]
	ldrb	w0, [x0]
	cbz	w0, .L190
	ldr	w0, [x1, 8]
	add	w0, w0, 1
	str	w0, [x1, 8]
.L189:
	ldr	q0, [x22, 16]
	umov	x1, v0.d[1]
	str	q0, [sp, 96]
	cbz	x1, .L191
	adrp	x0, :got:__libc_single_threaded
	ldr	x0, [x0, #:got_lo12:__libc_single_threaded]
	ldrb	w0, [x0]
	cbz	w0, .L192
	ldr	w0, [x1, 8]
	add	w0, w0, 1
	str	w0, [x1, 8]
.L191:
	add	x22, sp, 80
	mov	x4, x26
	mov	x3, x25
	mov	x2, x24
	mov	x1, x23
	mov	x5, x22
	mov	x0, x20
.LEHB11:
	bl	_ZN8opendnp311CommandTaskC1EONS_10CommandSetERNS_18IMasterApplicationERKSt8functionIFvRKNS_18ICommandTaskResultEEERKNS_10TaskConfigEN7openpal6LoggerE
.LEHE11:
	ldr	x22, [sp, 104]
	cbz	x22, .L194
	adrp	x23, :got:__libc_single_threaded
	ldr	x0, [x23, #:got_lo12:__libc_single_threaded]
	ldrb	w0, [x0]
	cbz	w0, .L195
	ldr	w0, [x22, 8]
	sub	w1, w0, #1
	str	w1, [x22, 8]
.L196:
	cmp	w0, 1
	beq	.L222
.L194:
	ldr	x22, [sp, 88]
	cbz	x22, .L201
	adrp	x23, :got:__libc_single_threaded
	ldr	x0, [x23, #:got_lo12:__libc_single_threaded]
	ldrb	w0, [x0]
	cbz	w0, .L202
	ldr	w0, [x22, 8]
	sub	w1, w0, #1
	str	w1, [x22, 8]
.L203:
	cmp	w0, 1
	beq	.L223
.L201:
	mov	x0, x20
.LEHB12:
	bl	_ZN8opendnp311CommandTask20LoadSelectAndOperateEv
.LEHE12:
	adrp	x0, :got:__stack_chk_guard
	stp	x20, x19, [x21]
	ldr	x0, [x0, #:got_lo12:__stack_chk_guard]
	ldr	x2, [sp, 120]
	ldr	x1, [x0]
	subs	x2, x2, x1
	mov	x1, 0
	bne	.L224
	mov	x0, x21
	ldp	x19, x20, [sp, 16]
	ldp	x21, x22, [sp, 32]
	ldp	x23, x24, [sp, 48]
	ldp	x25, x26, [sp, 64]
	ldp	x29, x30, [sp], 128
	.cfi_remember_state
	.cfi_restore 30
	.cfi_restore 29
	.cfi_restore 25
	.cfi_restore 26
	.cfi_restore 23
	.cfi_restore 24
	.cfi_restore 21
	.cfi_restore 22
	.cfi_restore 19
	.cfi_restore 20
	.cfi_def_cfa_offset 0
	ret
	.p2align 2,,3
.L190:
	.cfi_restore_state
	add	x1, x1, 8
	mov	w0, 1
	bl	__aarch64_ldadd4_acq_rel
	b	.L189
	.p2align 2,,3
.L192:
	add	x1, x1, 8
	mov	w0, 1
	bl	__aarch64_ldadd4_acq_rel
	b	.L191
	.p2align 2,,3
.L222:
	ldr	x1, [x22]
	mov	x0, x22
	ldr	x1, [x1, 16]
	blr	x1
	ldr	x23, [x23, #:got_lo12:__libc_single_threaded]
	ldrb	w0, [x23]
	cbz	w0, .L198
	ldr	w0, [x22, 12]
	sub	w1, w0, #1
	str	w1, [x22, 12]
.L199:
	cmp	w0, 1
	bne	.L194
	ldr	x1, [x22]
	mov	x0, x22
	ldr	x1, [x1, 24]
	blr	x1
	b	.L194
	.p2align 2,,3
.L223:
	ldr	x1, [x22]
	mov	x0, x22
	ldr	x1, [x1, 16]
	blr	x1
	ldr	x23, [x23, #:got_lo12:__libc_single_threaded]
	ldrb	w0, [x23]
	cbz	w0, .L205
	ldr	w0, [x22, 12]
	sub	w1, w0, #1
	str	w1, [x22, 12]
.L206:
	cmp	w0, 1
	bne	.L201
	ldr	x1, [x22]
	mov	x0, x22
	ldr	x1, [x1, 24]
	blr	x1
	b	.L201
	.p2align 2,,3
.L195:
	add	x1, x22, 8
	mov	w0, -1
	bl	__aarch64_ldadd4_acq_rel
	b	.L196
	.p2align 2,,3
.L202:
	add	x1, x22, 8
	mov	w0, -1
	bl	__aarch64_ldadd4_acq_rel
	b	.L203
	.p2align 2,,3
.L198:
	add	x1, x22, 12
	mov	w0, -1
	bl	__aarch64_ldadd4_acq_rel
	b	.L199
	.p2align 2,,3
.L205:
	add	x1, x22, 12
	mov	w0, -1
	bl	__aarch64_ldadd4_acq_rel
	b	.L206
.L224:
	bl	__stack_chk_fail
.L212:
	mov	x20, x0
	mov	x0, x22
	bl	_ZN7openpal6LoggerD1Ev
	mov	x1, 248
	mov	x0, x19
	bl	_ZdlPvm
	mov	x0, x20
.LEHB13:
	bl	_Unwind_Resume
.L211:
	mov	x1, x0
	mov	x0, x19
	mov	x19, x1
	bl	_ZNSt16_Sp_counted_baseILN9__gnu_cxx12_Lock_policyE2EE10_M_releaseEv
	mov	x0, x19
	bl	_Unwind_Resume
.LEHE13:
	.cfi_endproc
.LFE3191:
	.section	.gcc_except_table
.LLSDA3191:
	.byte	0xff
	.byte	0xff
	.byte	0x1
	.uleb128 .LLSDACSE3191-.LLSDACSB3191
.LLSDACSB3191:
	.uleb128 .LEHB10-.LFB3191
	.uleb128 .LEHE10-.LEHB10
	.uleb128 0
	.uleb128 0
	.uleb128 .LEHB11-.LFB3191
	.uleb128 .LEHE11-.LEHB11
	.uleb128 .L212-.LFB3191
	.uleb128 0
	.uleb128 .LEHB12-.LFB3191
	.uleb128 .LEHE12-.LEHB12
	.uleb128 .L211-.LFB3191
	.uleb128 0
	.uleb128 .LEHB13-.LFB3191
	.uleb128 .LEHE13-.LEHB13
	.uleb128 0
	.uleb128 0
.LLSDACSE3191:
	.text
	.size	_ZN8opendnp311CommandTask22CreateSelectAndOperateEONS_10CommandSetERNS_18IMasterApplicationERKSt8functionIFvRKNS_18ICommandTaskResultEEERKNS_10TaskConfigEN7openpal6LoggerE, .-_ZN8opendnp311CommandTask22CreateSelectAndOperateEONS_10CommandSetERNS_18IMasterApplicationERKSt8functionIFvRKNS_18ICommandTaskResultEEERKNS_10TaskConfigEN7openpal6LoggerE
	.align	2
	.p2align 4,,11
	.global	_ZN8opendnp311CommandTask17LoadDirectOperateEv
	.type	_ZN8opendnp311CommandTask17LoadDirectOperateEv, %function
_ZN8opendnp311CommandTask17LoadDirectOperateEv:
.LFB3202:
	.cfi_startproc
	stp	x29, x30, [sp, -96]!
	.cfi_def_cfa_offset 96
	.cfi_offset 29, -96
	.cfi_offset 30, -88
	adrp	x1, :got:__stack_chk_guard
	mov	x29, sp
	stp	x23, x24, [sp, 48]
	.cfi_offset 23, -48
	.cfi_offset 24, -40
	ldp	x24, x23, [x0, 120]
	stp	x19, x20, [sp, 16]
	ldr	x1, [x1, #:got_lo12:__stack_chk_guard]
	stp	x21, x22, [sp, 32]
	.cfi_offset 19, -80
	.cfi_offset 20, -72
	.cfi_offset 21, -64
	.cfi_offset 22, -56
	mov	x21, x0
	ldr	x20, [x0, 160]
	add	x19, x23, 8
	ldr	x22, [x0, 104]
	str	x25, [sp, 64]
	.cfi_offset 25, -32
	add	x20, x20, 8
	ldr	x2, [x1]
	str	x2, [sp, 88]
	mov	x2, 0
	ldr	x25, [x0, 112]
	cmp	x19, x20
	bcs	.L226
	.p2align 3,,7
.L227:
	ldr	x0, [x19], 8
	mov	x1, 512
	bl	_ZdlPvm
	cmp	x20, x19
	bhi	.L227
.L226:
	add	x0, x21, 88
	mov	w1, 5
	sub	x2, x24, #1
	strb	w1, [sp, 87]
	stp	x22, x25, [x0, 48]
	stp	x24, x23, [x0, 64]
	cmp	x22, x2
	beq	.L228
	strb	w1, [x22], 1
	str	x22, [x0, 48]
.L225:
	adrp	x0, :got:__stack_chk_guard
	ldr	x0, [x0, #:got_lo12:__stack_chk_guard]
	ldr	x2, [sp, 88]
	ldr	x1, [x0]
	subs	x2, x2, x1
	mov	x1, 0
	bne	.L233
	ldp	x19, x20, [sp, 16]
	ldp	x21, x22, [sp, 32]
	ldp	x23, x24, [sp, 48]
	ldr	x25, [sp, 64]
	ldp	x29, x30, [sp], 96
	.cfi_remember_state
	.cfi_restore 30
	.cfi_restore 29
	.cfi_restore 25
	.cfi_restore 23
	.cfi_restore 24
	.cfi_restore 21
	.cfi_restore 22
	.cfi_restore 19
	.cfi_restore 20
	.cfi_def_cfa_offset 0
	ret
	.p2align 2,,3
.L228:
	.cfi_restore_state
	add	x1, sp, 87
	bl	_ZNSt5dequeIN8opendnp312FunctionCodeESaIS1_EE16_M_push_back_auxIJS1_EEEvDpOT_
	b	.L225
.L233:
	bl	__stack_chk_fail
	.cfi_endproc
.LFE3202:
	.size	_ZN8opendnp311CommandTask17LoadDirectOperateEv, .-_ZN8opendnp311CommandTask17LoadDirectOperateEv
	.align	2
	.p2align 4,,11
	.global	_ZN8opendnp311CommandTask19CreateDirectOperateEONS_10CommandSetERNS_18IMasterApplicationERKSt8functionIFvRKNS_18ICommandTaskResultEEERKNS_10TaskConfigEN7openpal6LoggerE
	.type	_ZN8opendnp311CommandTask19CreateDirectOperateEONS_10CommandSetERNS_18IMasterApplicationERKSt8functionIFvRKNS_18ICommandTaskResultEEERKNS_10TaskConfigEN7openpal6LoggerE, %function
_ZN8opendnp311CommandTask19CreateDirectOperateEONS_10CommandSetERNS_18IMasterApplicationERKSt8functionIFvRKNS_18ICommandTaskResultEEERKNS_10TaskConfigEN7openpal6LoggerE:
.LFB3176:
	.cfi_startproc
	.cfi_personality 0x9b,DW.ref.__gxx_personality_v0
	.cfi_lsda 0x1b,.LLSDA3176
	stp	x29, x30, [sp, -128]!
	.cfi_def_cfa_offset 128
	.cfi_offset 29, -128
	.cfi_offset 30, -120
	adrp	x5, :got:__stack_chk_guard
	mov	x29, sp
	ldr	x5, [x5, #:got_lo12:__stack_chk_guard]
	stp	x19, x20, [sp, 16]
	stp	x21, x22, [sp, 32]
	.cfi_offset 19, -112
	.cfi_offset 20, -104
	.cfi_offset 21, -96
	.cfi_offset 22, -88
	mov	x22, x4
	mov	x21, x8
	stp	x23, x24, [sp, 48]
	.cfi_offset 23, -80
	.cfi_offset 24, -72
	mov	x23, x0
	mov	x24, x1
	stp	x25, x26, [sp, 64]
	.cfi_offset 25, -64
	.cfi_offset 26, -56
	mov	x25, x2
	mov	x26, x3
	ldr	x0, [x5]
	str	x0, [sp, 120]
	mov	x0, 0
	mov	x0, 248
.LEHB14:
	bl	_Znwm
.LEHE14:
	ldr	q0, [x22]
	movi	v1.2s, 0x1
	adrp	x5, :got:_ZTVSt23_Sp_counted_ptr_inplaceIN8opendnp311CommandTaskESaIS1_ELN9__gnu_cxx12_Lock_policyE2EE
	mov	x20, x0
	mov	x19, x0
	ldr	x5, [x5, #:got_lo12:_ZTVSt23_Sp_counted_ptr_inplaceIN8opendnp311CommandTaskESaIS1_ELN9__gnu_cxx12_Lock_policyE2EE]
	umov	x1, v0.d[1]
	str	d1, [x0, 8]
	add	x5, x5, 16
	str	x5, [x20], 16
	str	q0, [sp, 80]
	cbz	x1, .L235
	adrp	x0, :got:__libc_single_threaded
	ldr	x0, [x0, #:got_lo12:__libc_single_threaded]
	ldrb	w0, [x0]
	cbz	w0, .L236
	ldr	w0, [x1, 8]
	add	w0, w0, 1
	str	w0, [x1, 8]
.L235:
	ldr	q0, [x22, 16]
	umov	x1, v0.d[1]
	str	q0, [sp, 96]
	cbz	x1, .L237
	adrp	x0, :got:__libc_single_threaded
	ldr	x0, [x0, #:got_lo12:__libc_single_threaded]
	ldrb	w0, [x0]
	cbz	w0, .L238
	ldr	w0, [x1, 8]
	add	w0, w0, 1
	str	w0, [x1, 8]
.L237:
	add	x22, sp, 80
	mov	x4, x26
	mov	x3, x25
	mov	x2, x24
	mov	x1, x23
	mov	x5, x22
	mov	x0, x20
.LEHB15:
	bl	_ZN8opendnp311CommandTaskC1EONS_10CommandSetERNS_18IMasterApplicationERKSt8functionIFvRKNS_18ICommandTaskResultEEERKNS_10TaskConfigEN7openpal6LoggerE
.LEHE15:
	ldr	x22, [sp, 104]
	cbz	x22, .L240
	adrp	x23, :got:__libc_single_threaded
	ldr	x0, [x23, #:got_lo12:__libc_single_threaded]
	ldrb	w0, [x0]
	cbz	w0, .L241
	ldr	w0, [x22, 8]
	sub	w1, w0, #1
	str	w1, [x22, 8]
.L242:
	cmp	w0, 1
	beq	.L268
.L240:
	ldr	x22, [sp, 88]
	cbz	x22, .L247
	adrp	x23, :got:__libc_single_threaded
	ldr	x0, [x23, #:got_lo12:__libc_single_threaded]
	ldrb	w0, [x0]
	cbz	w0, .L248
	ldr	w0, [x22, 8]
	sub	w1, w0, #1
	str	w1, [x22, 8]
.L249:
	cmp	w0, 1
	beq	.L269
.L247:
	mov	x0, x20
.LEHB16:
	bl	_ZN8opendnp311CommandTask17LoadDirectOperateEv
.LEHE16:
	adrp	x0, :got:__stack_chk_guard
	stp	x20, x19, [x21]
	ldr	x0, [x0, #:got_lo12:__stack_chk_guard]
	ldr	x2, [sp, 120]
	ldr	x1, [x0]
	subs	x2, x2, x1
	mov	x1, 0
	bne	.L270
	mov	x0, x21
	ldp	x19, x20, [sp, 16]
	ldp	x21, x22, [sp, 32]
	ldp	x23, x24, [sp, 48]
	ldp	x25, x26, [sp, 64]
	ldp	x29, x30, [sp], 128
	.cfi_remember_state
	.cfi_restore 30
	.cfi_restore 29
	.cfi_restore 25
	.cfi_restore 26
	.cfi_restore 23
	.cfi_restore 24
	.cfi_restore 21
	.cfi_restore 22
	.cfi_restore 19
	.cfi_restore 20
	.cfi_def_cfa_offset 0
	ret
	.p2align 2,,3
.L236:
	.cfi_restore_state
	add	x1, x1, 8
	mov	w0, 1
	bl	__aarch64_ldadd4_acq_rel
	b	.L235
	.p2align 2,,3
.L238:
	add	x1, x1, 8
	mov	w0, 1
	bl	__aarch64_ldadd4_acq_rel
	b	.L237
	.p2align 2,,3
.L268:
	ldr	x1, [x22]
	mov	x0, x22
	ldr	x1, [x1, 16]
	blr	x1
	ldr	x23, [x23, #:got_lo12:__libc_single_threaded]
	ldrb	w0, [x23]
	cbz	w0, .L244
	ldr	w0, [x22, 12]
	sub	w1, w0, #1
	str	w1, [x22, 12]
.L245:
	cmp	w0, 1
	bne	.L240
	ldr	x1, [x22]
	mov	x0, x22
	ldr	x1, [x1, 24]
	blr	x1
	b	.L240
	.p2align 2,,3
.L269:
	ldr	x1, [x22]
	mov	x0, x22
	ldr	x1, [x1, 16]
	blr	x1
	ldr	x23, [x23, #:got_lo12:__libc_single_threaded]
	ldrb	w0, [x23]
	cbz	w0, .L251
	ldr	w0, [x22, 12]
	sub	w1, w0, #1
	str	w1, [x22, 12]
.L252:
	cmp	w0, 1
	bne	.L247
	ldr	x1, [x22]
	mov	x0, x22
	ldr	x1, [x1, 24]
	blr	x1
	b	.L247
	.p2align 2,,3
.L241:
	add	x1, x22, 8
	mov	w0, -1
	bl	__aarch64_ldadd4_acq_rel
	b	.L242
	.p2align 2,,3
.L248:
	add	x1, x22, 8
	mov	w0, -1
	bl	__aarch64_ldadd4_acq_rel
	b	.L249
	.p2align 2,,3
.L244:
	add	x1, x22, 12
	mov	w0, -1
	bl	__aarch64_ldadd4_acq_rel
	b	.L245
	.p2align 2,,3
.L251:
	add	x1, x22, 12
	mov	w0, -1
	bl	__aarch64_ldadd4_acq_rel
	b	.L252
.L270:
	bl	__stack_chk_fail
.L258:
	mov	x20, x0
	mov	x0, x22
	bl	_ZN7openpal6LoggerD1Ev
	mov	x1, 248
	mov	x0, x19
	bl	_ZdlPvm
	mov	x0, x20
.LEHB17:
	bl	_Unwind_Resume
.L257:
	mov	x1, x0
	mov	x0, x19
	mov	x19, x1
	bl	_ZNSt16_Sp_counted_baseILN9__gnu_cxx12_Lock_policyE2EE10_M_releaseEv
	mov	x0, x19
	bl	_Unwind_Resume
.LEHE17:
	.cfi_endproc
.LFE3176:
	.section	.gcc_except_table
.LLSDA3176:
	.byte	0xff
	.byte	0xff
	.byte	0x1
	.uleb128 .LLSDACSE3176-.LLSDACSB3176
.LLSDACSB3176:
	.uleb128 .LEHB14-.LFB3176
	.uleb128 .LEHE14-.LEHB14
	.uleb128 0
	.uleb128 0
	.uleb128 .LEHB15-.LFB3176
	.uleb128 .LEHE15-.LEHB15
	.uleb128 .L258-.LFB3176
	.uleb128 0
	.uleb128 .LEHB16-.LFB3176
	.uleb128 .LEHE16-.LEHB16
	.uleb128 .L257-.LFB3176
	.uleb128 0
	.uleb128 .LEHB17-.LFB3176
	.uleb128 .LEHE17-.LEHB17
	.uleb128 0
	.uleb128 0
.LLSDACSE3176:
	.text
	.size	_ZN8opendnp311CommandTask19CreateDirectOperateEONS_10CommandSetERNS_18IMasterApplicationERKSt8functionIFvRKNS_18ICommandTaskResultEEERKNS_10TaskConfigEN7openpal6LoggerE, .-_ZN8opendnp311CommandTask19CreateDirectOperateEONS_10CommandSetERNS_18IMasterApplicationERKSt8functionIFvRKNS_18ICommandTaskResultEEERKNS_10TaskConfigEN7openpal6LoggerE
	.weak	_ZTSSt11_Mutex_baseILN9__gnu_cxx12_Lock_policyE2EE
	.section	.rodata._ZTSSt11_Mutex_baseILN9__gnu_cxx12_Lock_policyE2EE,"aG",@progbits,_ZTSSt11_Mutex_baseILN9__gnu_cxx12_Lock_policyE2EE,comdat
	.align	3
	.type	_ZTSSt11_Mutex_baseILN9__gnu_cxx12_Lock_policyE2EE, %object
	.size	_ZTSSt11_Mutex_baseILN9__gnu_cxx12_Lock_policyE2EE, 47
_ZTSSt11_Mutex_baseILN9__gnu_cxx12_Lock_policyE2EE:
	.string	"St11_Mutex_baseILN9__gnu_cxx12_Lock_policyE2EE"
	.weak	_ZTISt11_Mutex_baseILN9__gnu_cxx12_Lock_policyE2EE
	.section	.data.rel.ro._ZTISt11_Mutex_baseILN9__gnu_cxx12_Lock_policyE2EE,"awG",@progbits,_ZTISt11_Mutex_baseILN9__gnu_cxx12_Lock_policyE2EE,comdat
	.align	3
	.type	_ZTISt11_Mutex_baseILN9__gnu_cxx12_Lock_policyE2EE, %object
	.size	_ZTISt11_Mutex_baseILN9__gnu_cxx12_Lock_policyE2EE, 16
_ZTISt11_Mutex_baseILN9__gnu_cxx12_Lock_policyE2EE:
	.xword	_ZTVN10__cxxabiv117__class_type_infoE+16
	.xword	_ZTSSt11_Mutex_baseILN9__gnu_cxx12_Lock_policyE2EE
	.weak	_ZTSSt19_Sp_make_shared_tag
	.section	.rodata._ZTSSt19_Sp_make_shared_tag,"aG",@progbits,_ZTSSt19_Sp_make_shared_tag,comdat
	.align	3
	.type	_ZTSSt19_Sp_make_shared_tag, %object
	.size	_ZTSSt19_Sp_make_shared_tag, 24
_ZTSSt19_Sp_make_shared_tag:
	.string	"St19_Sp_make_shared_tag"
	.weak	_ZTSSt16_Sp_counted_baseILN9__gnu_cxx12_Lock_policyE2EE
	.section	.rodata._ZTSSt16_Sp_counted_baseILN9__gnu_cxx12_Lock_policyE2EE,"aG",@progbits,_ZTSSt16_Sp_counted_baseILN9__gnu_cxx12_Lock_policyE2EE,comdat
	.align	3
	.type	_ZTSSt16_Sp_counted_baseILN9__gnu_cxx12_Lock_policyE2EE, %object
	.size	_ZTSSt16_Sp_counted_baseILN9__gnu_cxx12_Lock_policyE2EE, 52
_ZTSSt16_Sp_counted_baseILN9__gnu_cxx12_Lock_policyE2EE:
	.string	"St16_Sp_counted_baseILN9__gnu_cxx12_Lock_policyE2EE"
	.weak	_ZTISt16_Sp_counted_baseILN9__gnu_cxx12_Lock_policyE2EE
	.section	.data.rel.ro._ZTISt16_Sp_counted_baseILN9__gnu_cxx12_Lock_policyE2EE,"awG",@progbits,_ZTISt16_Sp_counted_baseILN9__gnu_cxx12_Lock_policyE2EE,comdat
	.align	3
	.type	_ZTISt16_Sp_counted_baseILN9__gnu_cxx12_Lock_policyE2EE, %object
	.size	_ZTISt16_Sp_counted_baseILN9__gnu_cxx12_Lock_policyE2EE, 24
_ZTISt16_Sp_counted_baseILN9__gnu_cxx12_Lock_policyE2EE:
	.xword	_ZTVN10__cxxabiv120__si_class_type_infoE+16
	.xword	_ZTSSt16_Sp_counted_baseILN9__gnu_cxx12_Lock_policyE2EE
	.xword	_ZTISt11_Mutex_baseILN9__gnu_cxx12_Lock_policyE2EE
	.weak	_ZTSN8opendnp311CommandTaskE
	.section	.rodata._ZTSN8opendnp311CommandTaskE,"aG",@progbits,_ZTSN8opendnp311CommandTaskE,comdat
	.align	3
	.type	_ZTSN8opendnp311CommandTaskE, %object
	.size	_ZTSN8opendnp311CommandTaskE, 25
_ZTSN8opendnp311CommandTaskE:
	.string	"N8opendnp311CommandTaskE"
	.weak	_ZTIN8opendnp311CommandTaskE
	.section	.data.rel.ro._ZTIN8opendnp311CommandTaskE,"awG",@progbits,_ZTIN8opendnp311CommandTaskE,comdat
	.align	3
	.type	_ZTIN8opendnp311CommandTaskE, %object
	.size	_ZTIN8opendnp311CommandTaskE, 24
_ZTIN8opendnp311CommandTaskE:
	.xword	_ZTVN10__cxxabiv120__si_class_type_infoE+16
	.xword	_ZTSN8opendnp311CommandTaskE
	.xword	_ZTIN8opendnp311IMasterTaskE
	.weak	_ZTSSt23_Sp_counted_ptr_inplaceIN8opendnp311CommandTaskESaIS1_ELN9__gnu_cxx12_Lock_policyE2EE
	.section	.rodata._ZTSSt23_Sp_counted_ptr_inplaceIN8opendnp311CommandTaskESaIS1_ELN9__gnu_cxx12_Lock_policyE2EE,"aG",@progbits,_ZTSSt23_Sp_counted_ptr_inplaceIN8opendnp311CommandTaskESaIS1_ELN9__gnu_cxx12_Lock_policyE2EE,comdat
	.align	3
	.type	_ZTSSt23_Sp_counted_ptr_inplaceIN8opendnp311CommandTaskESaIS1_ELN9__gnu_cxx12_Lock_policyE2EE, %object
	.size	_ZTSSt23_Sp_counted_ptr_inplaceIN8opendnp311CommandTaskESaIS1_ELN9__gnu_cxx12_Lock_policyE2EE, 90
_ZTSSt23_Sp_counted_ptr_inplaceIN8opendnp311CommandTaskESaIS1_ELN9__gnu_cxx12_Lock_policyE2EE:
	.string	"St23_Sp_counted_ptr_inplaceIN8opendnp311CommandTaskESaIS1_ELN9__gnu_cxx12_Lock_policyE2EE"
	.weak	_ZTISt23_Sp_counted_ptr_inplaceIN8opendnp311CommandTaskESaIS1_ELN9__gnu_cxx12_Lock_policyE2EE
	.section	.data.rel.ro._ZTISt23_Sp_counted_ptr_inplaceIN8opendnp311CommandTaskESaIS1_ELN9__gnu_cxx12_Lock_policyE2EE,"awG",@progbits,_ZTISt23_Sp_counted_ptr_inplaceIN8opendnp311CommandTaskESaIS1_ELN9__gnu_cxx12_Lock_policyE2EE,comdat
	.align	3
	.type	_ZTISt23_Sp_counted_ptr_inplaceIN8opendnp311CommandTaskESaIS1_ELN9__gnu_cxx12_Lock_policyE2EE, %object
	.size	_ZTISt23_Sp_counted_ptr_inplaceIN8opendnp311CommandTaskESaIS1_ELN9__gnu_cxx12_Lock_policyE2EE, 24
_ZTISt23_Sp_counted_ptr_inplaceIN8opendnp311CommandTaskESaIS1_ELN9__gnu_cxx12_Lock_policyE2EE:
	.xword	_ZTVN10__cxxabiv120__si_class_type_infoE+16
	.xword	_ZTSSt23_Sp_counted_ptr_inplaceIN8opendnp311CommandTaskESaIS1_ELN9__gnu_cxx12_Lock_policyE2EE
	.xword	_ZTISt16_Sp_counted_baseILN9__gnu_cxx12_Lock_policyE2EE
	.weak	_ZTVN8opendnp311CommandTaskE
	.section	.data.rel.ro._ZTVN8opendnp311CommandTaskE,"awG",@progbits,_ZTVN8opendnp311CommandTaskE,comdat
	.align	3
	.type	_ZTVN8opendnp311CommandTaskE, %object
	.size	_ZTVN8opendnp311CommandTaskE, 120
_ZTVN8opendnp311CommandTaskE:
	.xword	0
	.xword	_ZTIN8opendnp311CommandTaskE
	.xword	_ZN8opendnp311CommandTaskD1Ev
	.xword	_ZN8opendnp311CommandTaskD0Ev
	.xword	_ZNK8opendnp311IMasterTask10IsAuthTaskEv
	.xword	_ZNK8opendnp311CommandTask4NameEv
	.xword	_ZNK8opendnp311CommandTask8PriorityEv
	.xword	_ZNK8opendnp311CommandTask19BlocksLowerPriorityEv
	.xword	_ZNK8opendnp311CommandTask11IsRecurringEv
	.xword	_ZN8opendnp311CommandTask12BuildRequestERNS_11APDURequestEh
	.xword	_ZN8opendnp311CommandTask10InitializeEv
	.xword	_ZN8opendnp311CommandTask15ProcessResponseERKNS_18APDUResponseHeaderERKN7openpal6RSliceE
	.xword	_ZN8opendnp311CommandTask14OnTaskCompleteENS_14TaskCompletionEN7openpal18MonotonicTimestampE
	.xword	_ZNK8opendnp311CommandTask9IsEnabledEv
	.xword	_ZNK8opendnp311CommandTask11GetTaskTypeEv
	.weak	_ZTVSt23_Sp_counted_ptr_inplaceIN8opendnp311CommandTaskESaIS1_ELN9__gnu_cxx12_Lock_policyE2EE
	.section	.data.rel.ro._ZTVSt23_Sp_counted_ptr_inplaceIN8opendnp311CommandTaskESaIS1_ELN9__gnu_cxx12_Lock_policyE2EE,"awG",@progbits,_ZTVSt23_Sp_counted_ptr_inplaceIN8opendnp311CommandTaskESaIS1_ELN9__gnu_cxx12_Lock_policyE2EE,comdat
	.align	3
	.type	_ZTVSt23_Sp_counted_ptr_inplaceIN8opendnp311CommandTaskESaIS1_ELN9__gnu_cxx12_Lock_policyE2EE, %object
	.size	_ZTVSt23_Sp_counted_ptr_inplaceIN8opendnp311CommandTaskESaIS1_ELN9__gnu_cxx12_Lock_policyE2EE, 56
_ZTVSt23_Sp_counted_ptr_inplaceIN8opendnp311CommandTaskESaIS1_ELN9__gnu_cxx12_Lock_policyE2EE:
	.xword	0
	.xword	_ZTISt23_Sp_counted_ptr_inplaceIN8opendnp311CommandTaskESaIS1_ELN9__gnu_cxx12_Lock_policyE2EE
	.xword	_ZNSt23_Sp_counted_ptr_inplaceIN8opendnp311CommandTaskESaIS1_ELN9__gnu_cxx12_Lock_policyE2EED1Ev
	.xword	_ZNSt23_Sp_counted_ptr_inplaceIN8opendnp311CommandTaskESaIS1_ELN9__gnu_cxx12_Lock_policyE2EED0Ev
	.xword	_ZNSt23_Sp_counted_ptr_inplaceIN8opendnp311CommandTaskESaIS1_ELN9__gnu_cxx12_Lock_policyE2EE10_M_disposeEv
	.xword	_ZNSt23_Sp_counted_ptr_inplaceIN8opendnp311CommandTaskESaIS1_ELN9__gnu_cxx12_Lock_policyE2EE10_M_destroyEv
	.xword	_ZNSt23_Sp_counted_ptr_inplaceIN8opendnp311CommandTaskESaIS1_ELN9__gnu_cxx12_Lock_policyE2EE14_M_get_deleterERKSt9type_info
	.weak	_ZZNSt19_Sp_make_shared_tag5_S_tiEvE5__tag
	.section	.rodata._ZZNSt19_Sp_make_shared_tag5_S_tiEvE5__tag,"aG",@progbits,_ZZNSt19_Sp_make_shared_tag5_S_tiEvE5__tag,comdat
	.align	3
	.type	_ZZNSt19_Sp_make_shared_tag5_S_tiEvE5__tag, %gnu_unique_object
	.size	_ZZNSt19_Sp_make_shared_tag5_S_tiEvE5__tag, 16
_ZZNSt19_Sp_make_shared_tag5_S_tiEvE5__tag:
	.zero	16
	.hidden	DW.ref.__gxx_personality_v0
	.weak	DW.ref.__gxx_personality_v0
	.section	.data.rel.local.DW.ref.__gxx_personality_v0,"awG",@progbits,DW.ref.__gxx_personality_v0,comdat
	.align	3
	.type	DW.ref.__gxx_personality_v0, %object
	.size	DW.ref.__gxx_personality_v0, 8
DW.ref.__gxx_personality_v0:
	.xword	__gxx_personality_v0
	.ident	"GCC: (Ubuntu 11.4.0-1ubuntu1~22.04) 11.4.0"
	.section	.note.GNU-stack,"",@progbits
