	.arch armv8-a
	.file	"EmptyResponseTask.cpp"
	.text
	.section	.text._ZNK8opendnp311IMasterTask10IsAuthTaskEv,"axG",@progbits,_ZNK8opendnp311IMasterTask10IsAuthTaskEv,comdat
	.align	2
	.p2align 4,,11
	.weak	_ZNK8opendnp311IMasterTask10IsAuthTaskEv
	.type	_ZNK8opendnp311IMasterTask10IsAuthTaskEv, %function
_ZNK8opendnp311IMasterTask10IsAuthTaskEv:
.LFB2455:
	.cfi_startproc
	mov	w0, 0
	ret
	.cfi_endproc
.LFE2455:
	.size	_ZNK8opendnp311IMasterTask10IsAuthTaskEv, .-_ZNK8opendnp311IMasterTask10IsAuthTaskEv
	.section	.text._ZN8opendnp311IMasterTask10InitializeEv,"axG",@progbits,_ZN8opendnp311IMasterTask10InitializeEv,comdat
	.align	2
	.p2align 4,,11
	.weak	_ZN8opendnp311IMasterTask10InitializeEv
	.type	_ZN8opendnp311IMasterTask10InitializeEv, %function
_ZN8opendnp311IMasterTask10InitializeEv:
.LFB2456:
	.cfi_startproc
	ret
	.cfi_endproc
.LFE2456:
	.size	_ZN8opendnp311IMasterTask10InitializeEv, .-_ZN8opendnp311IMasterTask10InitializeEv
	.section	.text._ZNK8opendnp321SimpleRequestTaskBase11IsRecurringEv,"axG",@progbits,_ZNK8opendnp321SimpleRequestTaskBase11IsRecurringEv,comdat
	.align	2
	.p2align 4,,11
	.weak	_ZNK8opendnp321SimpleRequestTaskBase11IsRecurringEv
	.type	_ZNK8opendnp321SimpleRequestTaskBase11IsRecurringEv, %function
_ZNK8opendnp321SimpleRequestTaskBase11IsRecurringEv:
.LFB2457:
	.cfi_startproc
	mov	w0, 0
	ret
	.cfi_endproc
.LFE2457:
	.size	_ZNK8opendnp321SimpleRequestTaskBase11IsRecurringEv, .-_ZNK8opendnp321SimpleRequestTaskBase11IsRecurringEv
	.section	.text._ZNK8opendnp321SimpleRequestTaskBase8PriorityEv,"axG",@progbits,_ZNK8opendnp321SimpleRequestTaskBase8PriorityEv,comdat
	.align	2
	.p2align 4,,11
	.weak	_ZNK8opendnp321SimpleRequestTaskBase8PriorityEv
	.type	_ZNK8opendnp321SimpleRequestTaskBase8PriorityEv, %function
_ZNK8opendnp321SimpleRequestTaskBase8PriorityEv:
.LFB2458:
	.cfi_startproc
	ldr	w0, [x0, 92]
	ret
	.cfi_endproc
.LFE2458:
	.size	_ZNK8opendnp321SimpleRequestTaskBase8PriorityEv, .-_ZNK8opendnp321SimpleRequestTaskBase8PriorityEv
	.section	.text._ZNK8opendnp321SimpleRequestTaskBase19BlocksLowerPriorityEv,"axG",@progbits,_ZNK8opendnp321SimpleRequestTaskBase19BlocksLowerPriorityEv,comdat
	.align	2
	.p2align 4,,11
	.weak	_ZNK8opendnp321SimpleRequestTaskBase19BlocksLowerPriorityEv
	.type	_ZNK8opendnp321SimpleRequestTaskBase19BlocksLowerPriorityEv, %function
_ZNK8opendnp321SimpleRequestTaskBase19BlocksLowerPriorityEv:
.LFB2459:
	.cfi_startproc
	mov	w0, 0
	ret
	.cfi_endproc
.LFE2459:
	.size	_ZNK8opendnp321SimpleRequestTaskBase19BlocksLowerPriorityEv, .-_ZNK8opendnp321SimpleRequestTaskBase19BlocksLowerPriorityEv
	.section	.text._ZNK8opendnp321SimpleRequestTaskBase9IsEnabledEv,"axG",@progbits,_ZNK8opendnp321SimpleRequestTaskBase9IsEnabledEv,comdat
	.align	2
	.p2align 4,,11
	.weak	_ZNK8opendnp321SimpleRequestTaskBase9IsEnabledEv
	.type	_ZNK8opendnp321SimpleRequestTaskBase9IsEnabledEv, %function
_ZNK8opendnp321SimpleRequestTaskBase9IsEnabledEv:
.LFB2460:
	.cfi_startproc
	mov	w0, 1
	ret
	.cfi_endproc
.LFE2460:
	.size	_ZNK8opendnp321SimpleRequestTaskBase9IsEnabledEv, .-_ZNK8opendnp321SimpleRequestTaskBase9IsEnabledEv
	.section	.text._ZNK8opendnp321SimpleRequestTaskBase11GetTaskTypeEv,"axG",@progbits,_ZNK8opendnp321SimpleRequestTaskBase11GetTaskTypeEv,comdat
	.align	2
	.p2align 4,,11
	.weak	_ZNK8opendnp321SimpleRequestTaskBase11GetTaskTypeEv
	.type	_ZNK8opendnp321SimpleRequestTaskBase11GetTaskTypeEv, %function
_ZNK8opendnp321SimpleRequestTaskBase11GetTaskTypeEv:
.LFB2461:
	.cfi_startproc
	mov	w0, 7
	ret
	.cfi_endproc
.LFE2461:
	.size	_ZNK8opendnp321SimpleRequestTaskBase11GetTaskTypeEv, .-_ZNK8opendnp321SimpleRequestTaskBase11GetTaskTypeEv
	.section	.text._ZNK8opendnp317EmptyResponseTask4NameEv,"axG",@progbits,_ZNK8opendnp317EmptyResponseTask4NameEv,comdat
	.align	2
	.p2align 4,,11
	.weak	_ZNK8opendnp317EmptyResponseTask4NameEv
	.type	_ZNK8opendnp317EmptyResponseTask4NameEv, %function
_ZNK8opendnp317EmptyResponseTask4NameEv:
.LFB2462:
	.cfi_startproc
	ldr	x0, [x0, 128]
	ret
	.cfi_endproc
.LFE2462:
	.size	_ZNK8opendnp317EmptyResponseTask4NameEv, .-_ZNK8opendnp317EmptyResponseTask4NameEv
	.text
	.align	2
	.p2align 4,,11
	.global	_ZN8opendnp317EmptyResponseTask15ProcessResponseERKNS_18APDUResponseHeaderERKN7openpal6RSliceE
	.type	_ZN8opendnp317EmptyResponseTask15ProcessResponseERKNS_18APDUResponseHeaderERKN7openpal6RSliceE, %function
_ZN8opendnp317EmptyResponseTask15ProcessResponseERKNS_18APDUResponseHeaderERKN7openpal6RSliceE:
.LFB2474:
	.cfi_startproc
	stp	x29, x30, [sp, -16]!
	.cfi_def_cfa_offset 16
	.cfi_offset 29, -16
	.cfi_offset 30, -8
	mov	x29, sp
	bl	_ZN8opendnp311IMasterTask20ValidateNullResponseERKNS_18APDUResponseHeaderERKN7openpal6RSliceE
	ubfiz	w0, w0, 1, 7
	ldp	x29, x30, [sp], 16
	.cfi_restore 30
	.cfi_restore 29
	.cfi_def_cfa_offset 0
	ret
	.cfi_endproc
.LFE2474:
	.size	_ZN8opendnp317EmptyResponseTask15ProcessResponseERKNS_18APDUResponseHeaderERKN7openpal6RSliceE, .-_ZN8opendnp317EmptyResponseTask15ProcessResponseERKNS_18APDUResponseHeaderERKN7openpal6RSliceE
	.section	.text._ZN8opendnp317EmptyResponseTask14OnTaskCompleteENS_14TaskCompletionEN7openpal18MonotonicTimestampE,"axG",@progbits,_ZN8opendnp317EmptyResponseTask14OnTaskCompleteENS_14TaskCompletionEN7openpal18MonotonicTimestampE,comdat
	.align	2
	.p2align 4,,11
	.weak	_ZN8opendnp317EmptyResponseTask14OnTaskCompleteENS_14TaskCompletionEN7openpal18MonotonicTimestampE
	.type	_ZN8opendnp317EmptyResponseTask14OnTaskCompleteENS_14TaskCompletionEN7openpal18MonotonicTimestampE, %function
_ZN8opendnp317EmptyResponseTask14OnTaskCompleteENS_14TaskCompletionEN7openpal18MonotonicTimestampE:
.LFB2463:
	.cfi_startproc
	stp	x29, x30, [sp, -16]!
	.cfi_def_cfa_offset 16
	.cfi_offset 29, -16
	.cfi_offset 30, -8
	mov	x29, sp
	bl	_ZN7openpal18MonotonicTimestamp3MaxEv
	mov	x1, x0
	ldp	x29, x30, [sp], 16
	.cfi_restore 30
	.cfi_restore 29
	.cfi_def_cfa_offset 0
	mov	x0, 0
	ret
	.cfi_endproc
.LFE2463:
	.size	_ZN8opendnp317EmptyResponseTask14OnTaskCompleteENS_14TaskCompletionEN7openpal18MonotonicTimestampE, .-_ZN8opendnp317EmptyResponseTask14OnTaskCompleteENS_14TaskCompletionEN7openpal18MonotonicTimestampE
	.section	.text._ZN8opendnp317EmptyResponseTaskD2Ev,"axG",@progbits,_ZN8opendnp317EmptyResponseTaskD5Ev,comdat
	.align	2
	.p2align 4,,11
	.weak	_ZN8opendnp317EmptyResponseTaskD2Ev
	.type	_ZN8opendnp317EmptyResponseTaskD2Ev, %function
_ZN8opendnp317EmptyResponseTaskD2Ev:
.LFB3107:
	.cfi_startproc
	.cfi_personality 0x9b,DW.ref.__gxx_personality_v0
	.cfi_lsda 0x1b,.LLSDA3107
	stp	x29, x30, [sp, -32]!
	.cfi_def_cfa_offset 32
	.cfi_offset 29, -32
	.cfi_offset 30, -24
	adrp	x1, :got:_ZTVN8opendnp317EmptyResponseTaskE
	mov	x2, x0
	mov	x29, sp
	ldr	x1, [x1, #:got_lo12:_ZTVN8opendnp317EmptyResponseTaskE]
	add	x3, x0, 144
	str	x19, [sp, 16]
	.cfi_offset 19, -16
	mov	x19, x0
	ldr	x0, [x0, 128]
	add	x1, x1, 16
	str	x1, [x2], 128
	cmp	x0, x3
	beq	.L15
	ldr	x1, [x2, 16]
	add	x1, x1, 1
	bl	_ZdlPvm
.L15:
	adrp	x0, :got:_ZTVN8opendnp321SimpleRequestTaskBaseE
	mov	x1, x19
	ldr	x0, [x0, #:got_lo12:_ZTVN8opendnp321SimpleRequestTaskBaseE]
	add	x0, x0, 16
	str	x0, [x1], 96
	ldr	x3, [x1, 16]
	cbz	x3, .L16
	mov	x0, x1
	mov	w2, 3
	blr	x3
.L16:
	mov	x0, x19
	ldr	x19, [sp, 16]
	ldp	x29, x30, [sp], 32
	.cfi_restore 30
	.cfi_restore 29
	.cfi_restore 19
	.cfi_def_cfa_offset 0
	b	_ZN8opendnp311IMasterTaskD2Ev
	.cfi_endproc
.LFE3107:
	.global	__gxx_personality_v0
	.section	.gcc_except_table._ZN8opendnp317EmptyResponseTaskD2Ev,"aG",@progbits,_ZN8opendnp317EmptyResponseTaskD5Ev,comdat
.LLSDA3107:
	.byte	0xff
	.byte	0xff
	.byte	0x1
	.uleb128 .LLSDACSE3107-.LLSDACSB3107
.LLSDACSB3107:
.LLSDACSE3107:
	.section	.text._ZN8opendnp317EmptyResponseTaskD2Ev,"axG",@progbits,_ZN8opendnp317EmptyResponseTaskD5Ev,comdat
	.size	_ZN8opendnp317EmptyResponseTaskD2Ev, .-_ZN8opendnp317EmptyResponseTaskD2Ev
	.weak	_ZN8opendnp317EmptyResponseTaskD1Ev
	.set	_ZN8opendnp317EmptyResponseTaskD1Ev,_ZN8opendnp317EmptyResponseTaskD2Ev
	.section	.text._ZN8opendnp317EmptyResponseTaskD0Ev,"axG",@progbits,_ZN8opendnp317EmptyResponseTaskD5Ev,comdat
	.align	2
	.p2align 4,,11
	.weak	_ZN8opendnp317EmptyResponseTaskD0Ev
	.type	_ZN8opendnp317EmptyResponseTaskD0Ev, %function
_ZN8opendnp317EmptyResponseTaskD0Ev:
.LFB3109:
	.cfi_startproc
	.cfi_personality 0x9b,DW.ref.__gxx_personality_v0
	.cfi_lsda 0x1b,.LLSDA3109
	stp	x29, x30, [sp, -32]!
	.cfi_def_cfa_offset 32
	.cfi_offset 29, -32
	.cfi_offset 30, -24
	adrp	x1, :got:_ZTVN8opendnp317EmptyResponseTaskE
	mov	x2, x0
	mov	x29, sp
	ldr	x1, [x1, #:got_lo12:_ZTVN8opendnp317EmptyResponseTaskE]
	add	x3, x0, 144
	str	x19, [sp, 16]
	.cfi_offset 19, -16
	mov	x19, x0
	ldr	x0, [x0, 128]
	add	x1, x1, 16
	str	x1, [x2], 128
	cmp	x0, x3
	beq	.L22
	ldr	x1, [x2, 16]
	add	x1, x1, 1
	bl	_ZdlPvm
.L22:
	adrp	x0, :got:_ZTVN8opendnp321SimpleRequestTaskBaseE
	mov	x1, x19
	ldr	x0, [x0, #:got_lo12:_ZTVN8opendnp321SimpleRequestTaskBaseE]
	add	x0, x0, 16
	str	x0, [x1], 96
	ldr	x3, [x1, 16]
	cbz	x3, .L23
	mov	x0, x1
	mov	w2, 3
	blr	x3
.L23:
	mov	x0, x19
	bl	_ZN8opendnp311IMasterTaskD2Ev
	mov	x0, x19
	mov	x1, 160
	ldr	x19, [sp, 16]
	ldp	x29, x30, [sp], 32
	.cfi_restore 30
	.cfi_restore 29
	.cfi_restore 19
	.cfi_def_cfa_offset 0
	b	_ZdlPvm
	.cfi_endproc
.LFE3109:
	.section	.gcc_except_table._ZN8opendnp317EmptyResponseTaskD0Ev,"aG",@progbits,_ZN8opendnp317EmptyResponseTaskD5Ev,comdat
.LLSDA3109:
	.byte	0xff
	.byte	0xff
	.byte	0x1
	.uleb128 .LLSDACSE3109-.LLSDACSB3109
.LLSDACSB3109:
.LLSDACSE3109:
	.section	.text._ZN8opendnp317EmptyResponseTaskD0Ev,"axG",@progbits,_ZN8opendnp317EmptyResponseTaskD5Ev,comdat
	.size	_ZN8opendnp317EmptyResponseTaskD0Ev, .-_ZN8opendnp317EmptyResponseTaskD0Ev
	.global	__aarch64_ldadd4_acq_rel
	.section	.text._ZN7openpal6LoggerD2Ev,"axG",@progbits,_ZN7openpal6LoggerD5Ev,comdat
	.align	2
	.p2align 4,,11
	.weak	_ZN7openpal6LoggerD2Ev
	.type	_ZN7openpal6LoggerD2Ev, %function
_ZN7openpal6LoggerD2Ev:
.LFB2070:
	.cfi_startproc
	stp	x29, x30, [sp, -48]!
	.cfi_def_cfa_offset 48
	.cfi_offset 29, -48
	.cfi_offset 30, -40
	mov	x29, sp
	stp	x19, x20, [sp, 16]
	.cfi_offset 19, -32
	.cfi_offset 20, -24
	mov	x19, x0
	ldr	x20, [x0, 24]
	str	x21, [sp, 32]
	.cfi_offset 21, -16
	cbz	x20, .L30
	adrp	x21, :got:__libc_single_threaded
	ldr	x0, [x21, #:got_lo12:__libc_single_threaded]
	ldrb	w0, [x0]
	cbz	w0, .L31
	ldr	w0, [x20, 8]
	sub	w1, w0, #1
	str	w1, [x20, 8]
.L32:
	cmp	w0, 1
	beq	.L44
.L30:
	ldr	x19, [x19, 8]
	cbz	x19, .L28
	adrp	x21, :got:__libc_single_threaded
	ldr	x0, [x21, #:got_lo12:__libc_single_threaded]
	ldrb	w0, [x0]
	cbz	w0, .L38
	ldr	w0, [x19, 8]
	sub	w1, w0, #1
	str	w1, [x19, 8]
.L39:
	cmp	w0, 1
	beq	.L45
.L28:
	ldp	x19, x20, [sp, 16]
	ldr	x21, [sp, 32]
	ldp	x29, x30, [sp], 48
	.cfi_remember_state
	.cfi_restore 30
	.cfi_restore 29
	.cfi_restore 21
	.cfi_restore 19
	.cfi_restore 20
	.cfi_def_cfa_offset 0
	ret
	.p2align 2,,3
.L44:
	.cfi_restore_state
	ldr	x1, [x20]
	mov	x0, x20
	ldr	x1, [x1, 16]
	blr	x1
	ldr	x21, [x21, #:got_lo12:__libc_single_threaded]
	ldrb	w0, [x21]
	cbz	w0, .L34
	ldr	w0, [x20, 12]
	sub	w1, w0, #1
	str	w1, [x20, 12]
.L35:
	cmp	w0, 1
	bne	.L30
	ldr	x1, [x20]
	mov	x0, x20
	ldr	x1, [x1, 24]
	blr	x1
	b	.L30
	.p2align 2,,3
.L45:
	ldr	x1, [x19]
	mov	x0, x19
	ldr	x1, [x1, 16]
	blr	x1
	ldr	x21, [x21, #:got_lo12:__libc_single_threaded]
	ldrb	w0, [x21]
	cbz	w0, .L41
	ldr	w0, [x19, 12]
	sub	w1, w0, #1
	str	w1, [x19, 12]
.L42:
	cmp	w0, 1
	bne	.L28
	ldr	x1, [x19]
	mov	x0, x19
	ldp	x19, x20, [sp, 16]
	ldr	x21, [sp, 32]
	ldp	x29, x30, [sp], 48
	.cfi_remember_state
	.cfi_restore 30
	.cfi_restore 29
	.cfi_restore 21
	.cfi_restore 19
	.cfi_restore 20
	.cfi_def_cfa_offset 0
	ldr	x1, [x1, 24]
	mov	x16, x1
	br	x16
	.p2align 2,,3
.L38:
	.cfi_restore_state
	add	x1, x19, 8
	mov	w0, -1
	bl	__aarch64_ldadd4_acq_rel
	b	.L39
	.p2align 2,,3
.L31:
	add	x1, x20, 8
	mov	w0, -1
	bl	__aarch64_ldadd4_acq_rel
	b	.L32
	.p2align 2,,3
.L34:
	add	x1, x20, 12
	mov	w0, -1
	bl	__aarch64_ldadd4_acq_rel
	b	.L35
	.p2align 2,,3
.L41:
	add	x1, x19, 12
	mov	w0, -1
	bl	__aarch64_ldadd4_acq_rel
	b	.L42
	.cfi_endproc
.LFE2070:
	.size	_ZN7openpal6LoggerD2Ev, .-_ZN7openpal6LoggerD2Ev
	.weak	_ZN7openpal6LoggerD1Ev
	.set	_ZN7openpal6LoggerD1Ev,_ZN7openpal6LoggerD2Ev
	.section	.rodata.str1.8,"aMS",@progbits,1
	.align	3
.LC0:
	.string	"basic_string::_M_construct null not valid"
	.text
	.align	2
	.p2align 4,,11
	.global	_ZN8opendnp317EmptyResponseTaskC2ERNS_18IMasterApplicationERKNSt7__cxx1112basic_stringIcSt11char_traitsIcESaIcEEENS_12FunctionCodeERKSt8functionIFbRNS_12HeaderWriterEEEN7openpal6LoggerERKNS_10TaskConfigE
	.type	_ZN8opendnp317EmptyResponseTaskC2ERNS_18IMasterApplicationERKNSt7__cxx1112basic_stringIcSt11char_traitsIcESaIcEEENS_12FunctionCodeERKSt8functionIFbRNS_12HeaderWriterEEEN7openpal6LoggerERKNS_10TaskConfigE, %function
_ZN8opendnp317EmptyResponseTaskC2ERNS_18IMasterApplicationERKNSt7__cxx1112basic_stringIcSt11char_traitsIcESaIcEEENS_12FunctionCodeERKSt8functionIFbRNS_12HeaderWriterEEEN7openpal6LoggerERKNS_10TaskConfigE:
.LFB2472:
	.cfi_startproc
	.cfi_personality 0x9b,DW.ref.__gxx_personality_v0
	.cfi_lsda 0x1b,.LLSDA2472
	stp	x29, x30, [sp, -128]!
	.cfi_def_cfa_offset 128
	.cfi_offset 29, -128
	.cfi_offset 30, -120
	adrp	x7, :got:__stack_chk_guard
	mov	x29, sp
	stp	x19, x20, [sp, 16]
	.cfi_offset 19, -112
	.cfi_offset 20, -104
	mov	x19, x0
	mov	x20, x5
	stp	x21, x22, [sp, 32]
	.cfi_offset 21, -96
	.cfi_offset 22, -88
	mov	x22, x1
	mov	x21, x2
	stp	x23, x24, [sp, 48]
	.cfi_offset 23, -80
	.cfi_offset 24, -72
	mov	x24, x4
	stp	x25, x26, [sp, 64]
	.cfi_offset 25, -64
	.cfi_offset 26, -56
	mov	x25, x6
	and	w26, w3, 255
	ldr	q0, [x5]
	ldr	x7, [x7, #:got_lo12:__stack_chk_guard]
	umov	x0, v0.d[1]
	ldr	x5, [x7]
	str	x5, [sp, 120]
	mov	x5, 0
	str	q0, [sp, 80]
	cbz	x0, .L47
	adrp	x1, :got:__libc_single_threaded
	ldr	x1, [x1, #:got_lo12:__libc_single_threaded]
	ldrb	w1, [x1]
	cbz	w1, .L48
	ldr	w1, [x0, 8]
	add	w1, w1, 1
	str	w1, [x0, 8]
.L47:
	ldr	q0, [x20, 16]
	umov	x1, v0.d[1]
	str	q0, [sp, 96]
	cbz	x1, .L49
	adrp	x0, :got:__libc_single_threaded
	ldr	x0, [x0, #:got_lo12:__libc_single_threaded]
	ldrb	w0, [x0]
	cbz	w0, .L50
	ldr	w0, [x1, 8]
	add	w0, w0, 1
	str	w0, [x1, 8]
.L49:
	add	x23, sp, 80
	mov	x6, x25
	mov	x4, x24
	mov	w2, w26
	mov	x1, x22
	mov	x5, x23
	mov	x0, x19
	mov	w3, 110
.LEHB0:
	bl	_ZN8opendnp321SimpleRequestTaskBaseC2ERNS_18IMasterApplicationENS_12FunctionCodeEiRKSt8functionIFbRNS_12HeaderWriterEEEN7openpal6LoggerERKNS_10TaskConfigE
.LEHE0:
	ldr	x20, [sp, 104]
	cbz	x20, .L52
	adrp	x22, :got:__libc_single_threaded
	ldr	x0, [x22, #:got_lo12:__libc_single_threaded]
	ldrb	w0, [x0]
	cbz	w0, .L53
	ldr	w0, [x20, 8]
	sub	w1, w0, #1
	str	w1, [x20, 8]
.L54:
	cmp	w0, 1
	beq	.L90
.L52:
	ldr	x20, [sp, 88]
	cbz	x20, .L59
	adrp	x22, :got:__libc_single_threaded
	ldr	x0, [x22, #:got_lo12:__libc_single_threaded]
	ldrb	w0, [x0]
	cbz	w0, .L60
	ldr	w0, [x20, 8]
	sub	w1, w0, #1
	str	w1, [x20, 8]
.L61:
	cmp	w0, 1
	beq	.L91
.L59:
	adrp	x1, :got:_ZTVN8opendnp317EmptyResponseTaskE
	mov	x22, x19
	ldr	x20, [x21, 8]
	add	x0, x19, 144
	ldr	x1, [x1, #:got_lo12:_ZTVN8opendnp317EmptyResponseTaskE]
	add	x1, x1, 16
	str	x1, [x22], 128
	str	x0, [x19, 128]
	ldr	x21, [x21]
	cmn	x21, x20
	ccmp	x21, 0, 0, ne
	beq	.L92
	str	x20, [sp, 80]
	cmp	x20, 15
	bhi	.L93
	cmp	x20, 1
	bne	.L68
	ldrb	w1, [x21]
	strb	w1, [x19, 144]
.L69:
	adrp	x1, :got:__stack_chk_guard
	str	x20, [x22, 8]
	strb	wzr, [x0, x20]
	ldr	x1, [x1, #:got_lo12:__stack_chk_guard]
	ldr	x0, [sp, 120]
	ldr	x2, [x1]
	subs	x0, x0, x2
	mov	x2, 0
	bne	.L94
	ldp	x19, x20, [sp, 16]
	ldp	x21, x22, [sp, 32]
	ldp	x23, x24, [sp, 48]
	ldp	x25, x26, [sp, 64]
	ldp	x29, x30, [sp], 128
	.cfi_remember_state
	.cfi_restore 30
	.cfi_restore 29
	.cfi_restore 25
	.cfi_restore 26
	.cfi_restore 23
	.cfi_restore 24
	.cfi_restore 21
	.cfi_restore 22
	.cfi_restore 19
	.cfi_restore 20
	.cfi_def_cfa_offset 0
	ret
	.p2align 2,,3
.L68:
	.cfi_restore_state
	cbz	x20, .L69
	b	.L67
	.p2align 2,,3
.L50:
	add	x1, x1, 8
	mov	w0, 1
	bl	__aarch64_ldadd4_acq_rel
	b	.L49
	.p2align 2,,3
.L48:
	add	x1, x0, 8
	mov	w0, 1
	bl	__aarch64_ldadd4_acq_rel
	b	.L47
	.p2align 2,,3
.L93:
	mov	x1, x23
	mov	x0, x22
	mov	x2, 0
.LEHB1:
	bl	_ZNSt7__cxx1112basic_stringIcSt11char_traitsIcESaIcEE9_M_createERmm
	str	x0, [x19, 128]
	ldr	x1, [sp, 80]
	str	x1, [x22, 16]
.L67:
	mov	x2, x20
	mov	x1, x21
	bl	memcpy
	ldr	x20, [sp, 80]
	ldr	x0, [x19, 128]
	b	.L69
	.p2align 2,,3
.L90:
	ldr	x1, [x20]
	mov	x0, x20
	ldr	x1, [x1, 16]
	blr	x1
	ldr	x22, [x22, #:got_lo12:__libc_single_threaded]
	ldrb	w0, [x22]
	cbz	w0, .L56
	ldr	w0, [x20, 12]
	sub	w1, w0, #1
	str	w1, [x20, 12]
.L57:
	cmp	w0, 1
	bne	.L52
	ldr	x1, [x20]
	mov	x0, x20
	ldr	x1, [x1, 24]
	blr	x1
	b	.L52
	.p2align 2,,3
.L91:
	ldr	x1, [x20]
	mov	x0, x20
	ldr	x1, [x1, 16]
	blr	x1
	ldr	x22, [x22, #:got_lo12:__libc_single_threaded]
	ldrb	w0, [x22]
	cbz	w0, .L63
	ldr	w0, [x20, 12]
	sub	w1, w0, #1
	str	w1, [x20, 12]
.L64:
	cmp	w0, 1
	bne	.L59
	ldr	x1, [x20]
	mov	x0, x20
	ldr	x1, [x1, 24]
	blr	x1
	b	.L59
	.p2align 2,,3
.L60:
	add	x1, x20, 8
	mov	w0, -1
	bl	__aarch64_ldadd4_acq_rel
	b	.L61
	.p2align 2,,3
.L53:
	add	x1, x20, 8
	mov	w0, -1
	bl	__aarch64_ldadd4_acq_rel
	b	.L54
	.p2align 2,,3
.L56:
	add	x1, x20, 12
	mov	w0, -1
	bl	__aarch64_ldadd4_acq_rel
	b	.L57
	.p2align 2,,3
.L63:
	add	x1, x20, 12
	mov	w0, -1
	bl	__aarch64_ldadd4_acq_rel
	b	.L64
.L94:
	bl	__stack_chk_fail
.L92:
	adrp	x0, .LC0
	add	x0, x0, :lo12:.LC0
	bl	_ZSt19__throw_logic_errorPKc
.LEHE1:
.L74:
	mov	x19, x0
	mov	x0, x23
	bl	_ZN7openpal6LoggerD1Ev
	mov	x0, x19
.LEHB2:
	bl	_Unwind_Resume
.LEHE2:
.L75:
	adrp	x2, :got:_ZTVN8opendnp321SimpleRequestTaskBaseE
	mov	x1, x19
	mov	x20, x0
	ldr	x2, [x2, #:got_lo12:_ZTVN8opendnp321SimpleRequestTaskBaseE]
	add	x2, x2, 16
	str	x2, [x1], 96
	ldr	x3, [x1, 16]
	cbz	x3, .L72
	mov	x0, x1
	mov	w2, 3
	blr	x3
.L72:
	mov	x0, x19
	bl	_ZN8opendnp311IMasterTaskD2Ev
	mov	x0, x20
.LEHB3:
	bl	_Unwind_Resume
.LEHE3:
	.cfi_endproc
.LFE2472:
	.section	.gcc_except_table,"a",@progbits
.LLSDA2472:
	.byte	0xff
	.byte	0xff
	.byte	0x1
	.uleb128 .LLSDACSE2472-.LLSDACSB2472
.LLSDACSB2472:
	.uleb128 .LEHB0-.LFB2472
	.uleb128 .LEHE0-.LEHB0
	.uleb128 .L74-.LFB2472
	.uleb128 0
	.uleb128 .LEHB1-.LFB2472
	.uleb128 .LEHE1-.LEHB1
	.uleb128 .L75-.LFB2472
	.uleb128 0
	.uleb128 .LEHB2-.LFB2472
	.uleb128 .LEHE2-.LEHB2
	.uleb128 0
	.uleb128 0
	.uleb128 .LEHB3-.LFB2472
	.uleb128 .LEHE3-.LEHB3
	.uleb128 0
	.uleb128 0
.LLSDACSE2472:
	.text
	.size	_ZN8opendnp317EmptyResponseTaskC2ERNS_18IMasterApplicationERKNSt7__cxx1112basic_stringIcSt11char_traitsIcESaIcEEENS_12FunctionCodeERKSt8functionIFbRNS_12HeaderWriterEEEN7openpal6LoggerERKNS_10TaskConfigE, .-_ZN8opendnp317EmptyResponseTaskC2ERNS_18IMasterApplicationERKNSt7__cxx1112basic_stringIcSt11char_traitsIcESaIcEEENS_12FunctionCodeERKSt8functionIFbRNS_12HeaderWriterEEEN7openpal6LoggerERKNS_10TaskConfigE
	.global	_ZN8opendnp317EmptyResponseTaskC1ERNS_18IMasterApplicationERKNSt7__cxx1112basic_stringIcSt11char_traitsIcESaIcEEENS_12FunctionCodeERKSt8functionIFbRNS_12HeaderWriterEEEN7openpal6LoggerERKNS_10TaskConfigE
	.set	_ZN8opendnp317EmptyResponseTaskC1ERNS_18IMasterApplicationERKNSt7__cxx1112basic_stringIcSt11char_traitsIcESaIcEEENS_12FunctionCodeERKSt8functionIFbRNS_12HeaderWriterEEEN7openpal6LoggerERKNS_10TaskConfigE,_ZN8opendnp317EmptyResponseTaskC2ERNS_18IMasterApplicationERKNSt7__cxx1112basic_stringIcSt11char_traitsIcESaIcEEENS_12FunctionCodeERKSt8functionIFbRNS_12HeaderWriterEEEN7openpal6LoggerERKNS_10TaskConfigE
	.weak	_ZTSN8opendnp317EmptyResponseTaskE
	.section	.rodata._ZTSN8opendnp317EmptyResponseTaskE,"aG",@progbits,_ZTSN8opendnp317EmptyResponseTaskE,comdat
	.align	3
	.type	_ZTSN8opendnp317EmptyResponseTaskE, %object
	.size	_ZTSN8opendnp317EmptyResponseTaskE, 31
_ZTSN8opendnp317EmptyResponseTaskE:
	.string	"N8opendnp317EmptyResponseTaskE"
	.weak	_ZTIN8opendnp317EmptyResponseTaskE
	.section	.data.rel.ro._ZTIN8opendnp317EmptyResponseTaskE,"awG",@progbits,_ZTIN8opendnp317EmptyResponseTaskE,comdat
	.align	3
	.type	_ZTIN8opendnp317EmptyResponseTaskE, %object
	.size	_ZTIN8opendnp317EmptyResponseTaskE, 24
_ZTIN8opendnp317EmptyResponseTaskE:
	.xword	_ZTVN10__cxxabiv120__si_class_type_infoE+16
	.xword	_ZTSN8opendnp317EmptyResponseTaskE
	.xword	_ZTIN8opendnp321SimpleRequestTaskBaseE
	.weak	_ZTVN8opendnp317EmptyResponseTaskE
	.section	.data.rel.ro._ZTVN8opendnp317EmptyResponseTaskE,"awG",@progbits,_ZTVN8opendnp317EmptyResponseTaskE,comdat
	.align	3
	.type	_ZTVN8opendnp317EmptyResponseTaskE, %object
	.size	_ZTVN8opendnp317EmptyResponseTaskE, 120
_ZTVN8opendnp317EmptyResponseTaskE:
	.xword	0
	.xword	_ZTIN8opendnp317EmptyResponseTaskE
	.xword	_ZN8opendnp317EmptyResponseTaskD1Ev
	.xword	_ZN8opendnp317EmptyResponseTaskD0Ev
	.xword	_ZNK8opendnp311IMasterTask10IsAuthTaskEv
	.xword	_ZNK8opendnp317EmptyResponseTask4NameEv
	.xword	_ZNK8opendnp321SimpleRequestTaskBase8PriorityEv
	.xword	_ZNK8opendnp321SimpleRequestTaskBase19BlocksLowerPriorityEv
	.xword	_ZNK8opendnp321SimpleRequestTaskBase11IsRecurringEv
	.xword	_ZN8opendnp321SimpleRequestTaskBase12BuildRequestERNS_11APDURequestEh
	.xword	_ZN8opendnp311IMasterTask10InitializeEv
	.xword	_ZN8opendnp317EmptyResponseTask15ProcessResponseERKNS_18APDUResponseHeaderERKN7openpal6RSliceE
	.xword	_ZN8opendnp317EmptyResponseTask14OnTaskCompleteENS_14TaskCompletionEN7openpal18MonotonicTimestampE
	.xword	_ZNK8opendnp321SimpleRequestTaskBase9IsEnabledEv
	.xword	_ZNK8opendnp321SimpleRequestTaskBase11GetTaskTypeEv
	.hidden	DW.ref.__gxx_personality_v0
	.weak	DW.ref.__gxx_personality_v0
	.section	.data.rel.local.DW.ref.__gxx_personality_v0,"awG",@progbits,DW.ref.__gxx_personality_v0,comdat
	.align	3
	.type	DW.ref.__gxx_personality_v0, %object
	.size	DW.ref.__gxx_personality_v0, 8
DW.ref.__gxx_personality_v0:
	.xword	__gxx_personality_v0
	.ident	"GCC: (Ubuntu 11.4.0-1ubuntu1~22.04) 11.4.0"
	.section	.note.GNU-stack,"",@progbits
