	.arch armv8-a
	.file	"MasterContext.cpp"
	.text
	.section	.text._ZN8opendnp318IMasterApplication12OnReceiveIINERKNS_8IINFieldE,"axG",@progbits,_ZN8opendnp318IMasterApplication12OnReceiveIINERKNS_8IINFieldE,comdat
	.align	2
	.p2align 4,,11
	.weak	_ZN8opendnp318IMasterApplication12OnReceiveIINERKNS_8IINFieldE
	.type	_ZN8opendnp318IMasterApplication12OnReceiveIINERKNS_8IINFieldE, %function
_ZN8opendnp318IMasterApplication12OnReceiveIINERKNS_8IINFieldE:
.LFB2545:
	.cfi_startproc
	ret
	.cfi_endproc
.LFE2545:
	.size	_ZN8opendnp318IMasterApplication12OnReceiveIINERKNS_8IINFieldE, .-_ZN8opendnp318IMasterApplication12OnReceiveIINERKNS_8IINFieldE
	.section	.text._ZN8opendnp318IMasterApplication6OnOpenEv,"axG",@progbits,_ZN8opendnp318IMasterApplication6OnOpenEv,comdat
	.align	2
	.p2align 4,,11
	.weak	_ZN8opendnp318IMasterApplication6OnOpenEv
	.type	_ZN8opendnp318IMasterApplication6OnOpenEv, %function
_ZN8opendnp318IMasterApplication6OnOpenEv:
.LFB2548:
	.cfi_startproc
	ret
	.cfi_endproc
.LFE2548:
	.size	_ZN8opendnp318IMasterApplication6OnOpenEv, .-_ZN8opendnp318IMasterApplication6OnOpenEv
	.section	.text._ZN8opendnp318IMasterApplication7OnCloseEv,"axG",@progbits,_ZN8opendnp318IMasterApplication7OnCloseEv,comdat
	.align	2
	.p2align 4,,11
	.weak	_ZN8opendnp318IMasterApplication7OnCloseEv
	.type	_ZN8opendnp318IMasterApplication7OnCloseEv, %function
_ZN8opendnp318IMasterApplication7OnCloseEv:
.LFB2549:
	.cfi_startproc
	ret
	.cfi_endproc
.LFE2549:
	.size	_ZN8opendnp318IMasterApplication7OnCloseEv, .-_ZN8opendnp318IMasterApplication7OnCloseEv
	.section	.text._ZN8opendnp312NullTaskLock7AcquireERNS_17IScheduleCallbackE,"axG",@progbits,_ZN8opendnp312NullTaskLock7AcquireERNS_17IScheduleCallbackE,comdat
	.align	2
	.p2align 4,,11
	.weak	_ZN8opendnp312NullTaskLock7AcquireERNS_17IScheduleCallbackE
	.type	_ZN8opendnp312NullTaskLock7AcquireERNS_17IScheduleCallbackE, %function
_ZN8opendnp312NullTaskLock7AcquireERNS_17IScheduleCallbackE:
.LFB3151:
	.cfi_startproc
	mov	w0, 1
	ret
	.cfi_endproc
.LFE3151:
	.size	_ZN8opendnp312NullTaskLock7AcquireERNS_17IScheduleCallbackE, .-_ZN8opendnp312NullTaskLock7AcquireERNS_17IScheduleCallbackE
	.section	.text._ZN8opendnp312NullTaskLock7ReleaseERNS_17IScheduleCallbackE,"axG",@progbits,_ZN8opendnp312NullTaskLock7ReleaseERNS_17IScheduleCallbackE,comdat
	.align	2
	.p2align 4,,11
	.weak	_ZN8opendnp312NullTaskLock7ReleaseERNS_17IScheduleCallbackE
	.type	_ZN8opendnp312NullTaskLock7ReleaseERNS_17IScheduleCallbackE, %function
_ZN8opendnp312NullTaskLock7ReleaseERNS_17IScheduleCallbackE:
.LFB3152:
	.cfi_startproc
	mov	w0, 1
	ret
	.cfi_endproc
.LFE3152:
	.size	_ZN8opendnp312NullTaskLock7ReleaseERNS_17IScheduleCallbackE, .-_ZN8opendnp312NullTaskLock7ReleaseERNS_17IScheduleCallbackE
	.section	.text._ZN8opendnp38MContext17RecordLastRequestERKN7openpal6RSliceE,"axG",@progbits,_ZN8opendnp38MContext17RecordLastRequestERKN7openpal6RSliceE,comdat
	.align	2
	.p2align 4,,11
	.weak	_ZN8opendnp38MContext17RecordLastRequestERKN7openpal6RSliceE
	.type	_ZN8opendnp38MContext17RecordLastRequestERKN7openpal6RSliceE, %function
_ZN8opendnp38MContext17RecordLastRequestERKN7openpal6RSliceE:
.LFB3165:
	.cfi_startproc
	ret
	.cfi_endproc
.LFE3165:
	.size	_ZN8opendnp38MContext17RecordLastRequestERKN7openpal6RSliceE, .-_ZN8opendnp38MContext17RecordLastRequestERKN7openpal6RSliceE
	.section	.text._ZN8opendnp38MContext21MeetsUserRequirementsERKSt10shared_ptrINS_11IMasterTaskEE,"axG",@progbits,_ZN8opendnp38MContext21MeetsUserRequirementsERKSt10shared_ptrINS_11IMasterTaskEE,comdat
	.align	2
	.p2align 4,,11
	.weak	_ZN8opendnp38MContext21MeetsUserRequirementsERKSt10shared_ptrINS_11IMasterTaskEE
	.type	_ZN8opendnp38MContext21MeetsUserRequirementsERKSt10shared_ptrINS_11IMasterTaskEE, %function
_ZN8opendnp38MContext21MeetsUserRequirementsERKSt10shared_ptrINS_11IMasterTaskEE:
.LFB3166:
	.cfi_startproc
	mov	w0, 1
	ret
	.cfi_endproc
.LFE3166:
	.size	_ZN8opendnp38MContext21MeetsUserRequirementsERKSt10shared_ptrINS_11IMasterTaskEE, .-_ZN8opendnp38MContext21MeetsUserRequirementsERKSt10shared_ptrINS_11IMasterTaskEE
	.section	.text._ZN8opendnp38MContext6CanRunERKNS_11IMasterTaskE,"axG",@progbits,_ZN8opendnp38MContext6CanRunERKNS_11IMasterTaskE,comdat
	.align	2
	.p2align 4,,11
	.weak	_ZN8opendnp38MContext6CanRunERKNS_11IMasterTaskE
	.type	_ZN8opendnp38MContext6CanRunERKNS_11IMasterTaskE, %function
_ZN8opendnp38MContext6CanRunERKNS_11IMasterTaskE:
.LFB3167:
	.cfi_startproc
	mov	w0, 1
	ret
	.cfi_endproc
.LFE3167:
	.size	_ZN8opendnp38MContext6CanRunERKNS_11IMasterTaskE, .-_ZN8opendnp38MContext6CanRunERKNS_11IMasterTaskE
	.section	.text._ZNSt23_Sp_counted_ptr_inplaceIN8opendnp320RestartOperationTaskESaIS1_ELN9__gnu_cxx12_Lock_policyE2EED2Ev,"axG",@progbits,_ZNSt23_Sp_counted_ptr_inplaceIN8opendnp320RestartOperationTaskESaIS1_ELN9__gnu_cxx12_Lock_policyE2EED5Ev,comdat
	.align	2
	.p2align 4,,11
	.weak	_ZNSt23_Sp_counted_ptr_inplaceIN8opendnp320RestartOperationTaskESaIS1_ELN9__gnu_cxx12_Lock_policyE2EED2Ev
	.type	_ZNSt23_Sp_counted_ptr_inplaceIN8opendnp320RestartOperationTaskESaIS1_ELN9__gnu_cxx12_Lock_policyE2EED2Ev, %function
_ZNSt23_Sp_counted_ptr_inplaceIN8opendnp320RestartOperationTaskESaIS1_ELN9__gnu_cxx12_Lock_policyE2EED2Ev:
.LFB5134:
	.cfi_startproc
	ret
	.cfi_endproc
.LFE5134:
	.size	_ZNSt23_Sp_counted_ptr_inplaceIN8opendnp320RestartOperationTaskESaIS1_ELN9__gnu_cxx12_Lock_policyE2EED2Ev, .-_ZNSt23_Sp_counted_ptr_inplaceIN8opendnp320RestartOperationTaskESaIS1_ELN9__gnu_cxx12_Lock_policyE2EED2Ev
	.weak	_ZNSt23_Sp_counted_ptr_inplaceIN8opendnp320RestartOperationTaskESaIS1_ELN9__gnu_cxx12_Lock_policyE2EED1Ev
	.set	_ZNSt23_Sp_counted_ptr_inplaceIN8opendnp320RestartOperationTaskESaIS1_ELN9__gnu_cxx12_Lock_policyE2EED1Ev,_ZNSt23_Sp_counted_ptr_inplaceIN8opendnp320RestartOperationTaskESaIS1_ELN9__gnu_cxx12_Lock_policyE2EED2Ev
	.section	.text._ZNSt23_Sp_counted_ptr_inplaceIN8opendnp317EmptyResponseTaskESaIS1_ELN9__gnu_cxx12_Lock_policyE2EED2Ev,"axG",@progbits,_ZNSt23_Sp_counted_ptr_inplaceIN8opendnp317EmptyResponseTaskESaIS1_ELN9__gnu_cxx12_Lock_policyE2EED5Ev,comdat
	.align	2
	.p2align 4,,11
	.weak	_ZNSt23_Sp_counted_ptr_inplaceIN8opendnp317EmptyResponseTaskESaIS1_ELN9__gnu_cxx12_Lock_policyE2EED2Ev
	.type	_ZNSt23_Sp_counted_ptr_inplaceIN8opendnp317EmptyResponseTaskESaIS1_ELN9__gnu_cxx12_Lock_policyE2EED2Ev, %function
_ZNSt23_Sp_counted_ptr_inplaceIN8opendnp317EmptyResponseTaskESaIS1_ELN9__gnu_cxx12_Lock_policyE2EED2Ev:
.LFB5141:
	.cfi_startproc
	ret
	.cfi_endproc
.LFE5141:
	.size	_ZNSt23_Sp_counted_ptr_inplaceIN8opendnp317EmptyResponseTaskESaIS1_ELN9__gnu_cxx12_Lock_policyE2EED2Ev, .-_ZNSt23_Sp_counted_ptr_inplaceIN8opendnp317EmptyResponseTaskESaIS1_ELN9__gnu_cxx12_Lock_policyE2EED2Ev
	.weak	_ZNSt23_Sp_counted_ptr_inplaceIN8opendnp317EmptyResponseTaskESaIS1_ELN9__gnu_cxx12_Lock_policyE2EED1Ev
	.set	_ZNSt23_Sp_counted_ptr_inplaceIN8opendnp317EmptyResponseTaskESaIS1_ELN9__gnu_cxx12_Lock_policyE2EED1Ev,_ZNSt23_Sp_counted_ptr_inplaceIN8opendnp317EmptyResponseTaskESaIS1_ELN9__gnu_cxx12_Lock_policyE2EED2Ev
	.section	.text._ZNSt23_Sp_counted_ptr_inplaceIN8opendnp317EmptyResponseTaskESaIS1_ELN9__gnu_cxx12_Lock_policyE2EE10_M_disposeEv,"axG",@progbits,_ZNSt23_Sp_counted_ptr_inplaceIN8opendnp317EmptyResponseTaskESaIS1_ELN9__gnu_cxx12_Lock_policyE2EE10_M_disposeEv,comdat
	.align	2
	.p2align 4,,11
	.weak	_ZNSt23_Sp_counted_ptr_inplaceIN8opendnp317EmptyResponseTaskESaIS1_ELN9__gnu_cxx12_Lock_policyE2EE10_M_disposeEv
	.type	_ZNSt23_Sp_counted_ptr_inplaceIN8opendnp317EmptyResponseTaskESaIS1_ELN9__gnu_cxx12_Lock_policyE2EE10_M_disposeEv, %function
_ZNSt23_Sp_counted_ptr_inplaceIN8opendnp317EmptyResponseTaskESaIS1_ELN9__gnu_cxx12_Lock_policyE2EE10_M_disposeEv:
.LFB5144:
	.cfi_startproc
	mov	x1, x0
	add	x0, x0, 16
	ldr	x1, [x1, 16]
	ldr	x1, [x1]
	mov	x16, x1
	br	x16
	.cfi_endproc
.LFE5144:
	.size	_ZNSt23_Sp_counted_ptr_inplaceIN8opendnp317EmptyResponseTaskESaIS1_ELN9__gnu_cxx12_Lock_policyE2EE10_M_disposeEv, .-_ZNSt23_Sp_counted_ptr_inplaceIN8opendnp317EmptyResponseTaskESaIS1_ELN9__gnu_cxx12_Lock_policyE2EE10_M_disposeEv
	.section	.text._ZNSt23_Sp_counted_ptr_inplaceIN8opendnp312UserPollTaskESaIS1_ELN9__gnu_cxx12_Lock_policyE2EED2Ev,"axG",@progbits,_ZNSt23_Sp_counted_ptr_inplaceIN8opendnp312UserPollTaskESaIS1_ELN9__gnu_cxx12_Lock_policyE2EED5Ev,comdat
	.align	2
	.p2align 4,,11
	.weak	_ZNSt23_Sp_counted_ptr_inplaceIN8opendnp312UserPollTaskESaIS1_ELN9__gnu_cxx12_Lock_policyE2EED2Ev
	.type	_ZNSt23_Sp_counted_ptr_inplaceIN8opendnp312UserPollTaskESaIS1_ELN9__gnu_cxx12_Lock_policyE2EED2Ev, %function
_ZNSt23_Sp_counted_ptr_inplaceIN8opendnp312UserPollTaskESaIS1_ELN9__gnu_cxx12_Lock_policyE2EED2Ev:
.LFB5148:
	.cfi_startproc
	ret
	.cfi_endproc
.LFE5148:
	.size	_ZNSt23_Sp_counted_ptr_inplaceIN8opendnp312UserPollTaskESaIS1_ELN9__gnu_cxx12_Lock_policyE2EED2Ev, .-_ZNSt23_Sp_counted_ptr_inplaceIN8opendnp312UserPollTaskESaIS1_ELN9__gnu_cxx12_Lock_policyE2EED2Ev
	.weak	_ZNSt23_Sp_counted_ptr_inplaceIN8opendnp312UserPollTaskESaIS1_ELN9__gnu_cxx12_Lock_policyE2EED1Ev
	.set	_ZNSt23_Sp_counted_ptr_inplaceIN8opendnp312UserPollTaskESaIS1_ELN9__gnu_cxx12_Lock_policyE2EED1Ev,_ZNSt23_Sp_counted_ptr_inplaceIN8opendnp312UserPollTaskESaIS1_ELN9__gnu_cxx12_Lock_policyE2EED2Ev
	.section	.text._ZNSt23_Sp_counted_ptr_inplaceIN8opendnp312UserPollTaskESaIS1_ELN9__gnu_cxx12_Lock_policyE2EED0Ev,"axG",@progbits,_ZNSt23_Sp_counted_ptr_inplaceIN8opendnp312UserPollTaskESaIS1_ELN9__gnu_cxx12_Lock_policyE2EED5Ev,comdat
	.align	2
	.p2align 4,,11
	.weak	_ZNSt23_Sp_counted_ptr_inplaceIN8opendnp312UserPollTaskESaIS1_ELN9__gnu_cxx12_Lock_policyE2EED0Ev
	.type	_ZNSt23_Sp_counted_ptr_inplaceIN8opendnp312UserPollTaskESaIS1_ELN9__gnu_cxx12_Lock_policyE2EED0Ev, %function
_ZNSt23_Sp_counted_ptr_inplaceIN8opendnp312UserPollTaskESaIS1_ELN9__gnu_cxx12_Lock_policyE2EED0Ev:
.LFB5150:
	.cfi_startproc
	mov	x1, 176
	b	_ZdlPvm
	.cfi_endproc
.LFE5150:
	.size	_ZNSt23_Sp_counted_ptr_inplaceIN8opendnp312UserPollTaskESaIS1_ELN9__gnu_cxx12_Lock_policyE2EED0Ev, .-_ZNSt23_Sp_counted_ptr_inplaceIN8opendnp312UserPollTaskESaIS1_ELN9__gnu_cxx12_Lock_policyE2EED0Ev
	.section	.text._ZNSt23_Sp_counted_ptr_inplaceIN8opendnp317EmptyResponseTaskESaIS1_ELN9__gnu_cxx12_Lock_policyE2EED0Ev,"axG",@progbits,_ZNSt23_Sp_counted_ptr_inplaceIN8opendnp317EmptyResponseTaskESaIS1_ELN9__gnu_cxx12_Lock_policyE2EED5Ev,comdat
	.align	2
	.p2align 4,,11
	.weak	_ZNSt23_Sp_counted_ptr_inplaceIN8opendnp317EmptyResponseTaskESaIS1_ELN9__gnu_cxx12_Lock_policyE2EED0Ev
	.type	_ZNSt23_Sp_counted_ptr_inplaceIN8opendnp317EmptyResponseTaskESaIS1_ELN9__gnu_cxx12_Lock_policyE2EED0Ev, %function
_ZNSt23_Sp_counted_ptr_inplaceIN8opendnp317EmptyResponseTaskESaIS1_ELN9__gnu_cxx12_Lock_policyE2EED0Ev:
.LFB5143:
	.cfi_startproc
	mov	x1, 176
	b	_ZdlPvm
	.cfi_endproc
.LFE5143:
	.size	_ZNSt23_Sp_counted_ptr_inplaceIN8opendnp317EmptyResponseTaskESaIS1_ELN9__gnu_cxx12_Lock_policyE2EED0Ev, .-_ZNSt23_Sp_counted_ptr_inplaceIN8opendnp317EmptyResponseTaskESaIS1_ELN9__gnu_cxx12_Lock_policyE2EED0Ev
	.section	.text._ZNSt23_Sp_counted_ptr_inplaceIN8opendnp320RestartOperationTaskESaIS1_ELN9__gnu_cxx12_Lock_policyE2EED0Ev,"axG",@progbits,_ZNSt23_Sp_counted_ptr_inplaceIN8opendnp320RestartOperationTaskESaIS1_ELN9__gnu_cxx12_Lock_policyE2EED5Ev,comdat
	.align	2
	.p2align 4,,11
	.weak	_ZNSt23_Sp_counted_ptr_inplaceIN8opendnp320RestartOperationTaskESaIS1_ELN9__gnu_cxx12_Lock_policyE2EED0Ev
	.type	_ZNSt23_Sp_counted_ptr_inplaceIN8opendnp320RestartOperationTaskESaIS1_ELN9__gnu_cxx12_Lock_policyE2EED0Ev, %function
_ZNSt23_Sp_counted_ptr_inplaceIN8opendnp320RestartOperationTaskESaIS1_ELN9__gnu_cxx12_Lock_policyE2EED0Ev:
.LFB5136:
	.cfi_startproc
	mov	x1, 208
	b	_ZdlPvm
	.cfi_endproc
.LFE5136:
	.size	_ZNSt23_Sp_counted_ptr_inplaceIN8opendnp320RestartOperationTaskESaIS1_ELN9__gnu_cxx12_Lock_policyE2EED0Ev, .-_ZNSt23_Sp_counted_ptr_inplaceIN8opendnp320RestartOperationTaskESaIS1_ELN9__gnu_cxx12_Lock_policyE2EED0Ev
	.section	.text._ZNSt23_Sp_counted_ptr_inplaceIN8opendnp320RestartOperationTaskESaIS1_ELN9__gnu_cxx12_Lock_policyE2EE10_M_destroyEv,"axG",@progbits,_ZNSt23_Sp_counted_ptr_inplaceIN8opendnp320RestartOperationTaskESaIS1_ELN9__gnu_cxx12_Lock_policyE2EE10_M_destroyEv,comdat
	.align	2
	.p2align 4,,11
	.weak	_ZNSt23_Sp_counted_ptr_inplaceIN8opendnp320RestartOperationTaskESaIS1_ELN9__gnu_cxx12_Lock_policyE2EE10_M_destroyEv
	.type	_ZNSt23_Sp_counted_ptr_inplaceIN8opendnp320RestartOperationTaskESaIS1_ELN9__gnu_cxx12_Lock_policyE2EE10_M_destroyEv, %function
_ZNSt23_Sp_counted_ptr_inplaceIN8opendnp320RestartOperationTaskESaIS1_ELN9__gnu_cxx12_Lock_policyE2EE10_M_destroyEv:
.LFB5138:
	.cfi_startproc
	mov	x1, 208
	b	_ZdlPvm
	.cfi_endproc
.LFE5138:
	.size	_ZNSt23_Sp_counted_ptr_inplaceIN8opendnp320RestartOperationTaskESaIS1_ELN9__gnu_cxx12_Lock_policyE2EE10_M_destroyEv, .-_ZNSt23_Sp_counted_ptr_inplaceIN8opendnp320RestartOperationTaskESaIS1_ELN9__gnu_cxx12_Lock_policyE2EE10_M_destroyEv
	.section	.text._ZNSt23_Sp_counted_ptr_inplaceIN8opendnp317EmptyResponseTaskESaIS1_ELN9__gnu_cxx12_Lock_policyE2EE10_M_destroyEv,"axG",@progbits,_ZNSt23_Sp_counted_ptr_inplaceIN8opendnp317EmptyResponseTaskESaIS1_ELN9__gnu_cxx12_Lock_policyE2EE10_M_destroyEv,comdat
	.align	2
	.p2align 4,,11
	.weak	_ZNSt23_Sp_counted_ptr_inplaceIN8opendnp317EmptyResponseTaskESaIS1_ELN9__gnu_cxx12_Lock_policyE2EE10_M_destroyEv
	.type	_ZNSt23_Sp_counted_ptr_inplaceIN8opendnp317EmptyResponseTaskESaIS1_ELN9__gnu_cxx12_Lock_policyE2EE10_M_destroyEv, %function
_ZNSt23_Sp_counted_ptr_inplaceIN8opendnp317EmptyResponseTaskESaIS1_ELN9__gnu_cxx12_Lock_policyE2EE10_M_destroyEv:
.LFB5145:
	.cfi_startproc
	mov	x1, 176
	b	_ZdlPvm
	.cfi_endproc
.LFE5145:
	.size	_ZNSt23_Sp_counted_ptr_inplaceIN8opendnp317EmptyResponseTaskESaIS1_ELN9__gnu_cxx12_Lock_policyE2EE10_M_destroyEv, .-_ZNSt23_Sp_counted_ptr_inplaceIN8opendnp317EmptyResponseTaskESaIS1_ELN9__gnu_cxx12_Lock_policyE2EE10_M_destroyEv
	.section	.text._ZNSt23_Sp_counted_ptr_inplaceIN8opendnp312UserPollTaskESaIS1_ELN9__gnu_cxx12_Lock_policyE2EE10_M_destroyEv,"axG",@progbits,_ZNSt23_Sp_counted_ptr_inplaceIN8opendnp312UserPollTaskESaIS1_ELN9__gnu_cxx12_Lock_policyE2EE10_M_destroyEv,comdat
	.align	2
	.p2align 4,,11
	.weak	_ZNSt23_Sp_counted_ptr_inplaceIN8opendnp312UserPollTaskESaIS1_ELN9__gnu_cxx12_Lock_policyE2EE10_M_destroyEv
	.type	_ZNSt23_Sp_counted_ptr_inplaceIN8opendnp312UserPollTaskESaIS1_ELN9__gnu_cxx12_Lock_policyE2EE10_M_destroyEv, %function
_ZNSt23_Sp_counted_ptr_inplaceIN8opendnp312UserPollTaskESaIS1_ELN9__gnu_cxx12_Lock_policyE2EE10_M_destroyEv:
.LFB5152:
	.cfi_startproc
	mov	x1, 176
	b	_ZdlPvm
	.cfi_endproc
.LFE5152:
	.size	_ZNSt23_Sp_counted_ptr_inplaceIN8opendnp312UserPollTaskESaIS1_ELN9__gnu_cxx12_Lock_policyE2EE10_M_destroyEv, .-_ZNSt23_Sp_counted_ptr_inplaceIN8opendnp312UserPollTaskESaIS1_ELN9__gnu_cxx12_Lock_policyE2EE10_M_destroyEv
	.section	.text._ZNSt23_Sp_counted_ptr_inplaceIN8opendnp312UserPollTaskESaIS1_ELN9__gnu_cxx12_Lock_policyE2EE14_M_get_deleterERKSt9type_info,"axG",@progbits,_ZNSt23_Sp_counted_ptr_inplaceIN8opendnp312UserPollTaskESaIS1_ELN9__gnu_cxx12_Lock_policyE2EE14_M_get_deleterERKSt9type_info,comdat
	.align	2
	.p2align 4,,11
	.weak	_ZNSt23_Sp_counted_ptr_inplaceIN8opendnp312UserPollTaskESaIS1_ELN9__gnu_cxx12_Lock_policyE2EE14_M_get_deleterERKSt9type_info
	.type	_ZNSt23_Sp_counted_ptr_inplaceIN8opendnp312UserPollTaskESaIS1_ELN9__gnu_cxx12_Lock_policyE2EE14_M_get_deleterERKSt9type_info, %function
_ZNSt23_Sp_counted_ptr_inplaceIN8opendnp312UserPollTaskESaIS1_ELN9__gnu_cxx12_Lock_policyE2EE14_M_get_deleterERKSt9type_info:
.LFB5153:
	.cfi_startproc
	stp	x29, x30, [sp, -32]!
	.cfi_def_cfa_offset 32
	.cfi_offset 29, -32
	.cfi_offset 30, -24
	adrp	x2, :got:_ZZNSt19_Sp_make_shared_tag5_S_tiEvE5__tag
	mov	x29, sp
	ldr	x2, [x2, #:got_lo12:_ZZNSt19_Sp_make_shared_tag5_S_tiEvE5__tag]
	str	x19, [sp, 16]
	.cfi_offset 19, -16
	add	x19, x0, 16
	cmp	x1, x2
	beq	.L20
	adrp	x2, :got:_ZTSSt19_Sp_make_shared_tag
	ldr	x0, [x1, 8]
	ldr	x1, [x2, #:got_lo12:_ZTSSt19_Sp_make_shared_tag]
	cmp	x0, x1
	beq	.L20
	ldrb	w2, [x0]
	cmp	w2, 42
	beq	.L22
	bl	strcmp
	cmp	w0, 0
	csel	x19, x19, xzr, eq
.L20:
	mov	x0, x19
	ldr	x19, [sp, 16]
	ldp	x29, x30, [sp], 32
	.cfi_remember_state
	.cfi_restore 30
	.cfi_restore 29
	.cfi_restore 19
	.cfi_def_cfa_offset 0
	ret
	.p2align 2,,3
.L22:
	.cfi_restore_state
	mov	x19, 0
	mov	x0, x19
	ldr	x19, [sp, 16]
	ldp	x29, x30, [sp], 32
	.cfi_restore 30
	.cfi_restore 29
	.cfi_restore 19
	.cfi_def_cfa_offset 0
	ret
	.cfi_endproc
.LFE5153:
	.size	_ZNSt23_Sp_counted_ptr_inplaceIN8opendnp312UserPollTaskESaIS1_ELN9__gnu_cxx12_Lock_policyE2EE14_M_get_deleterERKSt9type_info, .-_ZNSt23_Sp_counted_ptr_inplaceIN8opendnp312UserPollTaskESaIS1_ELN9__gnu_cxx12_Lock_policyE2EE14_M_get_deleterERKSt9type_info
	.text
	.align	2
	.p2align 4,,11
	.type	_ZNSt17_Function_handlerIFbRN8opendnp312HeaderWriterEEZNS0_8MContext12AddClassScanERKNS0_10ClassFieldEN7openpal12TimeDurationENS0_10TaskConfigEEUlS2_E_E9_M_invokeERKSt9_Any_dataS2_, %function
_ZNSt17_Function_handlerIFbRN8opendnp312HeaderWriterEEZNS0_8MContext12AddClassScanERKNS0_10ClassFieldEN7openpal12TimeDurationENS0_10TaskConfigEEUlS2_E_E9_M_invokeERKSt9_Any_dataS2_:
.LFB4271:
	.cfi_startproc
	mov	x2, x0
	mov	x0, x1
	mov	x1, x2
	b	_ZN8opendnp35build17WriteClassHeadersERNS_12HeaderWriterERKNS_10ClassFieldE
	.cfi_endproc
.LFE4271:
	.size	_ZNSt17_Function_handlerIFbRN8opendnp312HeaderWriterEEZNS0_8MContext12AddClassScanERKNS0_10ClassFieldEN7openpal12TimeDurationENS0_10TaskConfigEEUlS2_E_E9_M_invokeERKSt9_Any_dataS2_, .-_ZNSt17_Function_handlerIFbRN8opendnp312HeaderWriterEEZNS0_8MContext12AddClassScanERKNS0_10ClassFieldEN7openpal12TimeDurationENS0_10TaskConfigEEUlS2_E_E9_M_invokeERKSt9_Any_dataS2_
	.align	2
	.p2align 4,,11
	.type	_ZNSt17_Function_handlerIFbRN8opendnp312HeaderWriterEEZNS0_8MContext17AddAllObjectsScanENS0_16GroupVariationIDEN7openpal12TimeDurationENS0_10TaskConfigEEUlS2_E_E9_M_invokeERKSt9_Any_dataS2_, %function
_ZNSt17_Function_handlerIFbRN8opendnp312HeaderWriterEEZNS0_8MContext17AddAllObjectsScanENS0_16GroupVariationIDEN7openpal12TimeDurationENS0_10TaskConfigEEUlS2_E_E9_M_invokeERKSt9_Any_dataS2_:
.LFB4276:
	.cfi_startproc
	mov	x3, x0
	mov	x0, x1
	mov	w2, 6
	ldrh	w1, [x3]
	b	_ZN8opendnp312HeaderWriter11WriteHeaderENS_16GroupVariationIDENS_13QualifierCodeE
	.cfi_endproc
.LFE4276:
	.size	_ZNSt17_Function_handlerIFbRN8opendnp312HeaderWriterEEZNS0_8MContext17AddAllObjectsScanENS0_16GroupVariationIDEN7openpal12TimeDurationENS0_10TaskConfigEEUlS2_E_E9_M_invokeERKSt9_Any_dataS2_, .-_ZNSt17_Function_handlerIFbRN8opendnp312HeaderWriterEEZNS0_8MContext17AddAllObjectsScanENS0_16GroupVariationIDEN7openpal12TimeDurationENS0_10TaskConfigEEUlS2_E_E9_M_invokeERKSt9_Any_dataS2_
	.align	2
	.p2align 4,,11
	.type	_ZNSt17_Function_handlerIFbRN8opendnp312HeaderWriterEEZNS0_8MContext14ScanAllObjectsENS0_16GroupVariationIDENS0_10TaskConfigEEUlS2_E_E9_M_invokeERKSt9_Any_dataS2_, %function
_ZNSt17_Function_handlerIFbRN8opendnp312HeaderWriterEEZNS0_8MContext14ScanAllObjectsENS0_16GroupVariationIDENS0_10TaskConfigEEUlS2_E_E9_M_invokeERKSt9_Any_dataS2_:
.LFB4290:
	.cfi_startproc
	mov	x3, x0
	mov	x0, x1
	mov	w2, 6
	ldrh	w1, [x3]
	b	_ZN8opendnp312HeaderWriter11WriteHeaderENS_16GroupVariationIDENS_13QualifierCodeE
	.cfi_endproc
.LFE4290:
	.size	_ZNSt17_Function_handlerIFbRN8opendnp312HeaderWriterEEZNS0_8MContext14ScanAllObjectsENS0_16GroupVariationIDENS0_10TaskConfigEEUlS2_E_E9_M_invokeERKSt9_Any_dataS2_, .-_ZNSt17_Function_handlerIFbRN8opendnp312HeaderWriterEEZNS0_8MContext14ScanAllObjectsENS0_16GroupVariationIDENS0_10TaskConfigEEUlS2_E_E9_M_invokeERKSt9_Any_dataS2_
	.align	2
	.p2align 4,,11
	.global	_ZN8opendnp38MContext19SetTaskStartTimeoutERKN7openpal18MonotonicTimestampE
	.type	_ZN8opendnp38MContext19SetTaskStartTimeoutERKN7openpal18MonotonicTimestampE, %function
_ZN8opendnp38MContext19SetTaskStartTimeoutERKN7openpal18MonotonicTimestampE:
.LFB3553:
	.cfi_startproc
	.cfi_personality 0x9b,DW.ref.__gxx_personality_v0
	.cfi_lsda 0x1b,.LLSDA3553
	stp	x29, x30, [sp, -80]!
	.cfi_def_cfa_offset 80
	.cfi_offset 29, -80
	.cfi_offset 30, -72
	adrp	x2, :got:__stack_chk_guard
	mov	x3, x0
	mov	x29, sp
	ldr	x2, [x2, #:got_lo12:__stack_chk_guard]
	stp	x19, x20, [sp, 16]
	.cfi_offset 19, -64
	.cfi_offset 20, -56
	adrp	x4, _ZNSt17_Function_handlerIFvvEZN7openpal8TimerRef7RestartIZN8opendnp38MContext19SetTaskStartTimeoutERKNS1_18MonotonicTimestampEEUlvE_EEvS8_RKT_EUlvE_E9_M_invokeERKSt9_Any_data
	ldr	x5, [x2]
	str	x5, [sp, 72]
	mov	x5, 0
	add	x4, x4, :lo12:_ZNSt17_Function_handlerIFvvEZN7openpal8TimerRef7RestartIZN8opendnp38MContext19SetTaskStartTimeoutERKNS1_18MonotonicTimestampEEUlvE_EEvS8_RKT_EUlvE_E9_M_invokeERKSt9_Any_data
	adrp	x5, _ZNSt17_Function_handlerIFvvEZN7openpal8TimerRef7RestartIZN8opendnp38MContext19SetTaskStartTimeoutERKNS1_18MonotonicTimestampEEUlvE_EEvS8_RKT_EUlvE_E10_M_managerERSt9_Any_dataRKSF_St18_Manager_operation
	add	x5, x5, :lo12:_ZNSt17_Function_handlerIFvvEZN7openpal8TimerRef7RestartIZN8opendnp38MContext19SetTaskStartTimeoutERKNS1_18MonotonicTimestampEEUlvE_EEvS8_RKT_EUlvE_E10_M_managerERSt9_Any_dataRKSF_St18_Manager_operation
	add	x19, sp, 40
	add	x0, x0, 224
	mov	x2, x19
	stp	x0, x3, [sp, 40]
	stp	x5, x4, [sp, 56]
.LEHB0:
	bl	_ZN7openpal8TimerRef13RestartActionERKNS_18MonotonicTimestampERKSt8functionIFvvEE
.LEHE0:
	ldr	x3, [sp, 56]
	cbz	x3, .L28
	mov	x1, x19
	mov	x0, x19
	mov	w2, 3
	blr	x3
.L28:
	adrp	x0, :got:__stack_chk_guard
	ldr	x0, [x0, #:got_lo12:__stack_chk_guard]
	ldr	x2, [sp, 72]
	ldr	x1, [x0]
	subs	x2, x2, x1
	mov	x1, 0
	bne	.L41
	ldp	x19, x20, [sp, 16]
	ldp	x29, x30, [sp], 80
	.cfi_remember_state
	.cfi_restore 30
	.cfi_restore 29
	.cfi_restore 19
	.cfi_restore 20
	.cfi_def_cfa_offset 0
	ret
.L41:
	.cfi_restore_state
	bl	__stack_chk_fail
.L33:
	ldr	x3, [sp, 56]
	mov	x20, x0
	cbz	x3, .L31
	mov	x1, x19
	mov	x0, x19
	mov	w2, 3
	blr	x3
.L31:
	mov	x0, x20
.LEHB1:
	bl	_Unwind_Resume
.LEHE1:
	.cfi_endproc
.LFE3553:
	.global	__gxx_personality_v0
	.section	.gcc_except_table,"a",@progbits
.LLSDA3553:
	.byte	0xff
	.byte	0xff
	.byte	0x1
	.uleb128 .LLSDACSE3553-.LLSDACSB3553
.LLSDACSB3553:
	.uleb128 .LEHB0-.LFB3553
	.uleb128 .LEHE0-.LEHB0
	.uleb128 .L33-.LFB3553
	.uleb128 0
	.uleb128 .LEHB1-.LFB3553
	.uleb128 .LEHE1-.LEHB1
	.uleb128 0
	.uleb128 0
.LLSDACSE3553:
	.text
	.size	_ZN8opendnp38MContext19SetTaskStartTimeoutERKN7openpal18MonotonicTimestampE, .-_ZN8opendnp38MContext19SetTaskStartTimeoutERKN7openpal18MonotonicTimestampE
	.section	.text._ZN7openpal5ArrayIhjED2Ev,"axG",@progbits,_ZN7openpal5ArrayIhjED5Ev,comdat
	.align	2
	.p2align 4,,11
	.weak	_ZN7openpal5ArrayIhjED2Ev
	.type	_ZN7openpal5ArrayIhjED2Ev, %function
_ZN7openpal5ArrayIhjED2Ev:
.LFB3839:
	.cfi_startproc
	adrp	x1, :got:_ZTVN7openpal5ArrayIhjEE
	mov	x2, x0
	ldr	x0, [x0, 16]
	ldr	x1, [x1, #:got_lo12:_ZTVN7openpal5ArrayIhjEE]
	add	x1, x1, 16
	str	x1, [x2]
	cbz	x0, .L42
	b	_ZdaPv
	.p2align 2,,3
.L42:
	ret
	.cfi_endproc
.LFE3839:
	.size	_ZN7openpal5ArrayIhjED2Ev, .-_ZN7openpal5ArrayIhjED2Ev
	.weak	_ZN7openpal5ArrayIhjED1Ev
	.set	_ZN7openpal5ArrayIhjED1Ev,_ZN7openpal5ArrayIhjED2Ev
	.section	.text._ZN7openpal5ArrayIhjED0Ev,"axG",@progbits,_ZN7openpal5ArrayIhjED5Ev,comdat
	.align	2
	.p2align 4,,11
	.weak	_ZN7openpal5ArrayIhjED0Ev
	.type	_ZN7openpal5ArrayIhjED0Ev, %function
_ZN7openpal5ArrayIhjED0Ev:
.LFB3841:
	.cfi_startproc
	stp	x29, x30, [sp, -32]!
	.cfi_def_cfa_offset 32
	.cfi_offset 29, -32
	.cfi_offset 30, -24
	adrp	x1, :got:_ZTVN7openpal5ArrayIhjEE
	mov	x29, sp
	ldr	x1, [x1, #:got_lo12:_ZTVN7openpal5ArrayIhjEE]
	str	x19, [sp, 16]
	.cfi_offset 19, -16
	mov	x19, x0
	ldr	x0, [x0, 16]
	add	x1, x1, 16
	str	x1, [x19]
	cbz	x0, .L45
	bl	_ZdaPv
.L45:
	mov	x0, x19
	mov	x1, 24
	ldr	x19, [sp, 16]
	ldp	x29, x30, [sp], 32
	.cfi_restore 30
	.cfi_restore 29
	.cfi_restore 19
	.cfi_def_cfa_offset 0
	b	_ZdlPvm
	.cfi_endproc
.LFE3841:
	.size	_ZN7openpal5ArrayIhjED0Ev, .-_ZN7openpal5ArrayIhjED0Ev
	.text
	.align	2
	.p2align 4,,11
	.type	_ZNSt17_Function_handlerIFvvEZN7openpal8TimerRef5StartIZN8opendnp38MContext18StartResponseTimerEvEUlvE_EEbRKNS1_12TimeDurationERKT_EUlvE_E10_M_managerERSt9_Any_dataRKSF_St18_Manager_operation, %function
_ZNSt17_Function_handlerIFvvEZN7openpal8TimerRef5StartIZN8opendnp38MContext18StartResponseTimerEvEUlvE_EEbRKNS1_12TimeDurationERKT_EUlvE_E10_M_managerERSt9_Any_dataRKSF_St18_Manager_operation:
.LFB4448:
	.cfi_startproc
	cbz	w2, .L51
	cmp	w2, 1
	beq	.L52
	cmp	w2, 2
	beq	.L56
.L54:
	mov	w0, 0
	ret
	.p2align 2,,3
.L51:
	adrp	x1, .LANCHOR0
	add	x1, x1, :lo12:.LANCHOR0
	str	x1, [x0]
	mov	w0, 0
	ret
	.p2align 2,,3
.L52:
	str	x1, [x0]
	mov	w0, 0
	ret
	.p2align 2,,3
.L56:
	ldp	x2, x3, [x1]
	stp	x2, x3, [x0]
	b	.L54
	.cfi_endproc
.LFE4448:
	.size	_ZNSt17_Function_handlerIFvvEZN7openpal8TimerRef5StartIZN8opendnp38MContext18StartResponseTimerEvEUlvE_EEbRKNS1_12TimeDurationERKT_EUlvE_E10_M_managerERSt9_Any_dataRKSF_St18_Manager_operation, .-_ZNSt17_Function_handlerIFvvEZN7openpal8TimerRef5StartIZN8opendnp38MContext18StartResponseTimerEvEUlvE_EEbRKNS1_12TimeDurationERKT_EUlvE_E10_M_managerERSt9_Any_dataRKSF_St18_Manager_operation
	.align	2
	.p2align 4,,11
	.type	_ZNSt17_Function_handlerIFvvEZN8opendnp38MContext16PostCheckForTaskEvEUlvE_E10_M_managerERSt9_Any_dataRKS5_St18_Manager_operation, %function
_ZNSt17_Function_handlerIFvvEZN8opendnp38MContext16PostCheckForTaskEvEUlvE_E10_M_managerERSt9_Any_dataRKS5_St18_Manager_operation:
.LFB4249:
	.cfi_startproc
	cbz	w2, .L58
	cmp	w2, 1
	beq	.L63
	cmp	w2, 2
	beq	.L64
	mov	w0, 0
	ret
	.p2align 2,,3
.L64:
	ldr	x1, [x1]
.L63:
	str	x1, [x0]
	mov	w0, 0
	ret
	.p2align 2,,3
.L58:
	adrp	x1, .LANCHOR0
	add	x1, x1, :lo12:.LANCHOR0
	add	x1, x1, 16
	str	x1, [x0]
	mov	w0, 0
	ret
	.cfi_endproc
.LFE4249:
	.size	_ZNSt17_Function_handlerIFvvEZN8opendnp38MContext16PostCheckForTaskEvEUlvE_E10_M_managerERSt9_Any_dataRKS5_St18_Manager_operation, .-_ZNSt17_Function_handlerIFvvEZN8opendnp38MContext16PostCheckForTaskEvEUlvE_E10_M_managerERSt9_Any_dataRKS5_St18_Manager_operation
	.align	2
	.p2align 4,,11
	.type	_ZNSt17_Function_handlerIFbRN8opendnp312HeaderWriterEEZNS0_8MContext12AddClassScanERKNS0_10ClassFieldEN7openpal12TimeDurationENS0_10TaskConfigEEUlS2_E_E10_M_managerERSt9_Any_dataRKSD_St18_Manager_operation, %function
_ZNSt17_Function_handlerIFbRN8opendnp312HeaderWriterEEZNS0_8MContext12AddClassScanERKNS0_10ClassFieldEN7openpal12TimeDurationENS0_10TaskConfigEEUlS2_E_E10_M_managerERSt9_Any_dataRKSD_St18_Manager_operation:
.LFB4273:
	.cfi_startproc
	cbz	w2, .L66
	cmp	w2, 1
	beq	.L67
	cmp	w2, 2
	beq	.L71
.L69:
	mov	w0, 0
	ret
	.p2align 2,,3
.L66:
	adrp	x1, .LANCHOR0
	add	x1, x1, :lo12:.LANCHOR0
	add	x1, x1, 32
	str	x1, [x0]
	mov	w0, 0
	ret
	.p2align 2,,3
.L67:
	str	x1, [x0]
	mov	w0, 0
	ret
	.p2align 2,,3
.L71:
	ldrb	w1, [x1]
	strb	w1, [x0]
	b	.L69
	.cfi_endproc
.LFE4273:
	.size	_ZNSt17_Function_handlerIFbRN8opendnp312HeaderWriterEEZNS0_8MContext12AddClassScanERKNS0_10ClassFieldEN7openpal12TimeDurationENS0_10TaskConfigEEUlS2_E_E10_M_managerERSt9_Any_dataRKSD_St18_Manager_operation, .-_ZNSt17_Function_handlerIFbRN8opendnp312HeaderWriterEEZNS0_8MContext12AddClassScanERKNS0_10ClassFieldEN7openpal12TimeDurationENS0_10TaskConfigEEUlS2_E_E10_M_managerERSt9_Any_dataRKSD_St18_Manager_operation
	.align	2
	.p2align 4,,11
	.type	_ZNSt17_Function_handlerIFbRN8opendnp312HeaderWriterEEZNS0_8MContext17AddAllObjectsScanENS0_16GroupVariationIDEN7openpal12TimeDurationENS0_10TaskConfigEEUlS2_E_E10_M_managerERSt9_Any_dataRKSB_St18_Manager_operation, %function
_ZNSt17_Function_handlerIFbRN8opendnp312HeaderWriterEEZNS0_8MContext17AddAllObjectsScanENS0_16GroupVariationIDEN7openpal12TimeDurationENS0_10TaskConfigEEUlS2_E_E10_M_managerERSt9_Any_dataRKSB_St18_Manager_operation:
.LFB4277:
	.cfi_startproc
	cbz	w2, .L73
	cmp	w2, 1
	beq	.L74
	cmp	w2, 2
	beq	.L78
.L76:
	mov	w0, 0
	ret
	.p2align 2,,3
.L73:
	adrp	x1, .LANCHOR0
	add	x1, x1, :lo12:.LANCHOR0
	add	x1, x1, 48
	str	x1, [x0]
	mov	w0, 0
	ret
	.p2align 2,,3
.L74:
	str	x1, [x0]
	mov	w0, 0
	ret
	.p2align 2,,3
.L78:
	ldrh	w1, [x1]
	strh	w1, [x0]
	b	.L76
	.cfi_endproc
.LFE4277:
	.size	_ZNSt17_Function_handlerIFbRN8opendnp312HeaderWriterEEZNS0_8MContext17AddAllObjectsScanENS0_16GroupVariationIDEN7openpal12TimeDurationENS0_10TaskConfigEEUlS2_E_E10_M_managerERSt9_Any_dataRKSB_St18_Manager_operation, .-_ZNSt17_Function_handlerIFbRN8opendnp312HeaderWriterEEZNS0_8MContext17AddAllObjectsScanENS0_16GroupVariationIDEN7openpal12TimeDurationENS0_10TaskConfigEEUlS2_E_E10_M_managerERSt9_Any_dataRKSB_St18_Manager_operation
	.align	2
	.p2align 4,,11
	.type	_ZNSt17_Function_handlerIFbRN8opendnp312HeaderWriterEEZNS0_8MContext12AddRangeScanENS0_16GroupVariationIDEttN7openpal12TimeDurationENS0_10TaskConfigEEUlS2_E_E10_M_managerERSt9_Any_dataRKSB_St18_Manager_operation, %function
_ZNSt17_Function_handlerIFbRN8opendnp312HeaderWriterEEZNS0_8MContext12AddRangeScanENS0_16GroupVariationIDEttN7openpal12TimeDurationENS0_10TaskConfigEEUlS2_E_E10_M_managerERSt9_Any_dataRKSB_St18_Manager_operation:
.LFB4282:
	.cfi_startproc
	cbz	w2, .L80
	cmp	w2, 1
	beq	.L81
	cmp	w2, 2
	beq	.L85
.L83:
	mov	w0, 0
	ret
	.p2align 2,,3
.L80:
	adrp	x1, .LANCHOR0
	add	x1, x1, :lo12:.LANCHOR0
	add	x1, x1, 64
	str	x1, [x0]
	mov	w0, 0
	ret
	.p2align 2,,3
.L81:
	str	x1, [x0]
	mov	w0, 0
	ret
	.p2align 2,,3
.L85:
	ldr	w2, [x1]
	str	w2, [x0]
	ldrh	w1, [x1, 4]
	strh	w1, [x0, 4]
	b	.L83
	.cfi_endproc
.LFE4282:
	.size	_ZNSt17_Function_handlerIFbRN8opendnp312HeaderWriterEEZNS0_8MContext12AddRangeScanENS0_16GroupVariationIDEttN7openpal12TimeDurationENS0_10TaskConfigEEUlS2_E_E10_M_managerERSt9_Any_dataRKSB_St18_Manager_operation, .-_ZNSt17_Function_handlerIFbRN8opendnp312HeaderWriterEEZNS0_8MContext12AddRangeScanENS0_16GroupVariationIDEttN7openpal12TimeDurationENS0_10TaskConfigEEUlS2_E_E10_M_managerERSt9_Any_dataRKSB_St18_Manager_operation
	.align	2
	.p2align 4,,11
	.type	_ZNSt17_Function_handlerIFbRN8opendnp312HeaderWriterEEZNS0_8MContext11ScanClassesERKNS0_10ClassFieldENS0_10TaskConfigEEUlS2_E_E10_M_managerERSt9_Any_dataRKSB_St18_Manager_operation, %function
_ZNSt17_Function_handlerIFbRN8opendnp312HeaderWriterEEZNS0_8MContext11ScanClassesERKNS0_10ClassFieldENS0_10TaskConfigEEUlS2_E_E10_M_managerERSt9_Any_dataRKSB_St18_Manager_operation:
.LFB4287:
	.cfi_startproc
	cbz	w2, .L87
	cmp	w2, 1
	beq	.L88
	cmp	w2, 2
	beq	.L92
.L90:
	mov	w0, 0
	ret
	.p2align 2,,3
.L87:
	adrp	x1, .LANCHOR0
	add	x1, x1, :lo12:.LANCHOR0
	add	x1, x1, 80
	str	x1, [x0]
	mov	w0, 0
	ret
	.p2align 2,,3
.L88:
	str	x1, [x0]
	mov	w0, 0
	ret
	.p2align 2,,3
.L92:
	ldrb	w1, [x1]
	strb	w1, [x0]
	b	.L90
	.cfi_endproc
.LFE4287:
	.size	_ZNSt17_Function_handlerIFbRN8opendnp312HeaderWriterEEZNS0_8MContext11ScanClassesERKNS0_10ClassFieldENS0_10TaskConfigEEUlS2_E_E10_M_managerERSt9_Any_dataRKSB_St18_Manager_operation, .-_ZNSt17_Function_handlerIFbRN8opendnp312HeaderWriterEEZNS0_8MContext11ScanClassesERKNS0_10ClassFieldENS0_10TaskConfigEEUlS2_E_E10_M_managerERSt9_Any_dataRKSB_St18_Manager_operation
	.align	2
	.p2align 4,,11
	.type	_ZNSt17_Function_handlerIFbRN8opendnp312HeaderWriterEEZNS0_8MContext14ScanAllObjectsENS0_16GroupVariationIDENS0_10TaskConfigEEUlS2_E_E10_M_managerERSt9_Any_dataRKS9_St18_Manager_operation, %function
_ZNSt17_Function_handlerIFbRN8opendnp312HeaderWriterEEZNS0_8MContext14ScanAllObjectsENS0_16GroupVariationIDENS0_10TaskConfigEEUlS2_E_E10_M_managerERSt9_Any_dataRKS9_St18_Manager_operation:
.LFB4291:
	.cfi_startproc
	cbz	w2, .L94
	cmp	w2, 1
	beq	.L95
	cmp	w2, 2
	beq	.L99
.L97:
	mov	w0, 0
	ret
	.p2align 2,,3
.L94:
	adrp	x1, .LANCHOR0
	add	x1, x1, :lo12:.LANCHOR0
	add	x1, x1, 96
	str	x1, [x0]
	mov	w0, 0
	ret
	.p2align 2,,3
.L95:
	str	x1, [x0]
	mov	w0, 0
	ret
	.p2align 2,,3
.L99:
	ldrh	w1, [x1]
	strh	w1, [x0]
	b	.L97
	.cfi_endproc
.LFE4291:
	.size	_ZNSt17_Function_handlerIFbRN8opendnp312HeaderWriterEEZNS0_8MContext14ScanAllObjectsENS0_16GroupVariationIDENS0_10TaskConfigEEUlS2_E_E10_M_managerERSt9_Any_dataRKS9_St18_Manager_operation, .-_ZNSt17_Function_handlerIFbRN8opendnp312HeaderWriterEEZNS0_8MContext14ScanAllObjectsENS0_16GroupVariationIDENS0_10TaskConfigEEUlS2_E_E10_M_managerERSt9_Any_dataRKS9_St18_Manager_operation
	.align	2
	.p2align 4,,11
	.type	_ZNSt17_Function_handlerIFbRN8opendnp312HeaderWriterEEZNS0_8MContext9ScanRangeENS0_16GroupVariationIDEttNS0_10TaskConfigEEUlS2_E_E10_M_managerERSt9_Any_dataRKS9_St18_Manager_operation, %function
_ZNSt17_Function_handlerIFbRN8opendnp312HeaderWriterEEZNS0_8MContext9ScanRangeENS0_16GroupVariationIDEttNS0_10TaskConfigEEUlS2_E_E10_M_managerERSt9_Any_dataRKS9_St18_Manager_operation:
.LFB4295:
	.cfi_startproc
	cbz	w2, .L101
	cmp	w2, 1
	beq	.L102
	cmp	w2, 2
	beq	.L106
.L104:
	mov	w0, 0
	ret
	.p2align 2,,3
.L101:
	adrp	x1, .LANCHOR0
	add	x1, x1, :lo12:.LANCHOR0
	add	x1, x1, 112
	str	x1, [x0]
	mov	w0, 0
	ret
	.p2align 2,,3
.L102:
	str	x1, [x0]
	mov	w0, 0
	ret
	.p2align 2,,3
.L106:
	ldr	w2, [x1]
	str	w2, [x0]
	ldrh	w1, [x1, 4]
	strh	w1, [x0, 4]
	b	.L104
	.cfi_endproc
.LFE4295:
	.size	_ZNSt17_Function_handlerIFbRN8opendnp312HeaderWriterEEZNS0_8MContext9ScanRangeENS0_16GroupVariationIDEttNS0_10TaskConfigEEUlS2_E_E10_M_managerERSt9_Any_dataRKS9_St18_Manager_operation, .-_ZNSt17_Function_handlerIFbRN8opendnp312HeaderWriterEEZNS0_8MContext9ScanRangeENS0_16GroupVariationIDEttNS0_10TaskConfigEEUlS2_E_E10_M_managerERSt9_Any_dataRKS9_St18_Manager_operation
	.align	2
	.p2align 4,,11
	.type	_ZNSt17_Function_handlerIFvvEZN7openpal8TimerRef7RestartIZN8opendnp38MContext19SetTaskStartTimeoutERKNS1_18MonotonicTimestampEEUlvE_EEvS8_RKT_EUlvE_E10_M_managerERSt9_Any_dataRKSF_St18_Manager_operation, %function
_ZNSt17_Function_handlerIFvvEZN7openpal8TimerRef7RestartIZN8opendnp38MContext19SetTaskStartTimeoutERKNS1_18MonotonicTimestampEEUlvE_EEvS8_RKT_EUlvE_E10_M_managerERSt9_Any_dataRKSF_St18_Manager_operation:
.LFB4535:
	.cfi_startproc
	cbz	w2, .L108
	cmp	w2, 1
	beq	.L109
	cmp	w2, 2
	beq	.L113
.L111:
	mov	w0, 0
	ret
	.p2align 2,,3
.L108:
	adrp	x1, .LANCHOR0
	add	x1, x1, :lo12:.LANCHOR0
	add	x1, x1, 128
	str	x1, [x0]
	mov	w0, 0
	ret
	.p2align 2,,3
.L109:
	str	x1, [x0]
	mov	w0, 0
	ret
	.p2align 2,,3
.L113:
	ldp	x2, x3, [x1]
	stp	x2, x3, [x0]
	b	.L111
	.cfi_endproc
.LFE4535:
	.size	_ZNSt17_Function_handlerIFvvEZN7openpal8TimerRef7RestartIZN8opendnp38MContext19SetTaskStartTimeoutERKNS1_18MonotonicTimestampEEUlvE_EEvS8_RKT_EUlvE_E10_M_managerERSt9_Any_dataRKSF_St18_Manager_operation, .-_ZNSt17_Function_handlerIFvvEZN7openpal8TimerRef7RestartIZN8opendnp38MContext19SetTaskStartTimeoutERKNS1_18MonotonicTimestampEEUlvE_EEvS8_RKT_EUlvE_E10_M_managerERSt9_Any_dataRKSF_St18_Manager_operation
	.align	2
	.p2align 4,,11
	.type	_ZNSt17_Function_handlerIFvvEZN7openpal8TimerRef7RestartIZN8opendnp38MContext14StartTask_IdleEvEUlvE_EEvRKNS1_18MonotonicTimestampERKT_EUlvE_E10_M_managerERSt9_Any_dataRKSF_St18_Manager_operation, %function
_ZNSt17_Function_handlerIFvvEZN7openpal8TimerRef7RestartIZN8opendnp38MContext14StartTask_IdleEvEUlvE_EEvRKNS1_18MonotonicTimestampERKT_EUlvE_E10_M_managerERSt9_Any_dataRKSF_St18_Manager_operation:
.LFB4539:
	.cfi_startproc
	cbz	w2, .L115
	cmp	w2, 1
	beq	.L116
	cmp	w2, 2
	beq	.L120
.L118:
	mov	w0, 0
	ret
	.p2align 2,,3
.L115:
	adrp	x1, .LANCHOR0
	add	x1, x1, :lo12:.LANCHOR0
	add	x1, x1, 144
	str	x1, [x0]
	mov	w0, 0
	ret
	.p2align 2,,3
.L116:
	str	x1, [x0]
	mov	w0, 0
	ret
	.p2align 2,,3
.L120:
	ldp	x2, x3, [x1]
	stp	x2, x3, [x0]
	b	.L118
	.cfi_endproc
.LFE4539:
	.size	_ZNSt17_Function_handlerIFvvEZN7openpal8TimerRef7RestartIZN8opendnp38MContext14StartTask_IdleEvEUlvE_EEvRKNS1_18MonotonicTimestampERKT_EUlvE_E10_M_managerERSt9_Any_dataRKSF_St18_Manager_operation, .-_ZNSt17_Function_handlerIFvvEZN7openpal8TimerRef7RestartIZN8opendnp38MContext14StartTask_IdleEvEUlvE_EEvRKNS1_18MonotonicTimestampERKT_EUlvE_E10_M_managerERSt9_Any_dataRKSF_St18_Manager_operation
	.align	2
	.p2align 4,,11
	.type	_ZNSt17_Function_handlerIFbRN8opendnp312HeaderWriterEEZNS0_8MContext5WriteERKNS0_15TimeAndIntervalEtNS0_10TaskConfigEEUlS2_E_E9_M_invokeERKSt9_Any_dataS2_, %function
_ZNSt17_Function_handlerIFbRN8opendnp312HeaderWriterEEZNS0_8MContext5WriteERKNS0_15TimeAndIntervalEtNS0_10TaskConfigEEUlS2_E_E9_M_invokeERKSt9_Any_dataS2_:
.LFB5097:
	.cfi_startproc
	stp	x29, x30, [sp, -48]!
	.cfi_def_cfa_offset 48
	.cfi_offset 29, -48
	.cfi_offset 30, -40
	mov	x4, x0
	mov	w3, 15
	mov	x29, sp
	stp	x21, x22, [sp, 32]
	mov	x0, x1
	mov	w2, 40
	.cfi_offset 21, -16
	.cfi_offset 22, -8
	ldr	x21, [x4]
	stp	x19, x20, [sp, 16]
	.cfi_offset 19, -32
	.cfi_offset 20, -24
	mov	x20, x1
	mov	w1, 1074
	ldrh	w22, [x21, 16]
	bl	_ZN8opendnp312HeaderWriter22WriteHeaderWithReserveENS_16GroupVariationIDENS_13QualifierCodeEj
	mov	w19, w0
	tst	w0, 255
	bne	.L127
	mov	w0, w19
	ldp	x19, x20, [sp, 16]
	ldp	x21, x22, [sp, 32]
	ldp	x29, x30, [sp], 48
	.cfi_remember_state
	.cfi_restore 30
	.cfi_restore 29
	.cfi_restore 21
	.cfi_restore 22
	.cfi_restore 19
	.cfi_restore 20
	.cfi_def_cfa_offset 0
	ret
	.p2align 2,,3
.L127:
	.cfi_restore_state
	ldr	x0, [x20]
	mov	w3, 1
	mov	w1, 2
	ldr	x2, [x0, 8]
	strh	w3, [x2]
	bl	_ZN7openpal6WSlice7AdvanceEj
	ldr	x0, [x20]
	mov	w1, 2
	ldr	x2, [x0, 8]
	strh	w22, [x2]
	bl	_ZN7openpal6WSlice7AdvanceEj
	ldr	x1, [x20]
	mov	x0, x21
	bl	_ZN8opendnp311Group50Var411WriteTargetERKNS_15TimeAndIntervalERN7openpal6WSliceE
	mov	w0, w19
	ldp	x19, x20, [sp, 16]
	ldp	x21, x22, [sp, 32]
	ldp	x29, x30, [sp], 48
	.cfi_restore 30
	.cfi_restore 29
	.cfi_restore 21
	.cfi_restore 22
	.cfi_restore 19
	.cfi_restore 20
	.cfi_def_cfa_offset 0
	ret
	.cfi_endproc
.LFE5097:
	.size	_ZNSt17_Function_handlerIFbRN8opendnp312HeaderWriterEEZNS0_8MContext5WriteERKNS0_15TimeAndIntervalEtNS0_10TaskConfigEEUlS2_E_E9_M_invokeERKSt9_Any_dataS2_, .-_ZNSt17_Function_handlerIFbRN8opendnp312HeaderWriterEEZNS0_8MContext5WriteERKNS0_15TimeAndIntervalEtNS0_10TaskConfigEEUlS2_E_E9_M_invokeERKSt9_Any_dataS2_
	.align	2
	.p2align 4,,11
	.type	_ZNSt17_Function_handlerIFbRN8opendnp312HeaderWriterEEZNS0_8MContext5WriteERKNS0_15TimeAndIntervalEtNS0_10TaskConfigEEUlS2_E_E10_M_managerERSt9_Any_dataRKSB_St18_Manager_operation, %function
_ZNSt17_Function_handlerIFbRN8opendnp312HeaderWriterEEZNS0_8MContext5WriteERKNS0_15TimeAndIntervalEtNS0_10TaskConfigEEUlS2_E_E10_M_managerERSt9_Any_dataRKSB_St18_Manager_operation:
.LFB5098:
	.cfi_startproc
	stp	x29, x30, [sp, -32]!
	.cfi_def_cfa_offset 32
	.cfi_offset 29, -32
	.cfi_offset 30, -24
	mov	x29, sp
	stp	x19, x20, [sp, 16]
	.cfi_offset 19, -16
	.cfi_offset 20, -8
	mov	x19, x0
	cbz	w2, .L129
	cmp	w2, 1
	beq	.L130
	cmp	w2, 2
	beq	.L133
	cmp	w2, 3
	bne	.L132
	ldr	x0, [x0]
	cbz	x0, .L132
	mov	x1, 24
	bl	_ZdlPvm
.L132:
	mov	w0, 0
	ldp	x19, x20, [sp, 16]
	ldp	x29, x30, [sp], 32
	.cfi_remember_state
	.cfi_restore 30
	.cfi_restore 29
	.cfi_restore 19
	.cfi_restore 20
	.cfi_def_cfa_offset 0
	ret
	.p2align 2,,3
.L129:
	.cfi_restore_state
	adrp	x0, .LANCHOR0
	add	x0, x0, :lo12:.LANCHOR0
	add	x0, x0, 160
	str	x0, [x19]
	mov	w0, 0
	ldp	x19, x20, [sp, 16]
	ldp	x29, x30, [sp], 32
	.cfi_remember_state
	.cfi_restore 30
	.cfi_restore 29
	.cfi_restore 19
	.cfi_restore 20
	.cfi_def_cfa_offset 0
	ret
	.p2align 2,,3
.L130:
	.cfi_restore_state
	ldr	x0, [x1]
	str	x0, [x19]
	mov	w0, 0
	ldp	x19, x20, [sp, 16]
	ldp	x29, x30, [sp], 32
	.cfi_remember_state
	.cfi_restore 30
	.cfi_restore 29
	.cfi_restore 19
	.cfi_restore 20
	.cfi_def_cfa_offset 0
	ret
	.p2align 2,,3
.L133:
	.cfi_restore_state
	ldr	x20, [x1]
	mov	x0, 24
	bl	_Znwm
	ldp	x2, x3, [x20]
	stp	x2, x3, [x0]
	ldr	x1, [x20, 16]
	str	x0, [x19]
	str	x1, [x0, 16]
	b	.L132
	.cfi_endproc
.LFE5098:
	.size	_ZNSt17_Function_handlerIFbRN8opendnp312HeaderWriterEEZNS0_8MContext5WriteERKNS0_15TimeAndIntervalEtNS0_10TaskConfigEEUlS2_E_E10_M_managerERSt9_Any_dataRKSB_St18_Manager_operation, .-_ZNSt17_Function_handlerIFbRN8opendnp312HeaderWriterEEZNS0_8MContext5WriteERKNS0_15TimeAndIntervalEtNS0_10TaskConfigEEUlS2_E_E10_M_managerERSt9_Any_dataRKSB_St18_Manager_operation
	.align	2
	.p2align 4,,11
	.type	_ZNSt17_Function_handlerIFvvEZN7openpal8TimerRef7RestartIZN8opendnp38MContext19SetTaskStartTimeoutERKNS1_18MonotonicTimestampEEUlvE_EEvS8_RKT_EUlvE_E9_M_invokeERKSt9_Any_data, %function
_ZNSt17_Function_handlerIFvvEZN7openpal8TimerRef7RestartIZN8opendnp38MContext19SetTaskStartTimeoutERKNS1_18MonotonicTimestampEEUlvE_EEvS8_RKT_EUlvE_E9_M_invokeERKSt9_Any_data:
.LFB4534:
	.cfi_startproc
	stp	x29, x30, [sp, -48]!
	.cfi_def_cfa_offset 48
	.cfi_offset 29, -48
	.cfi_offset 30, -40
	adrp	x1, :got:__stack_chk_guard
	mov	x29, sp
	ldr	x1, [x1, #:got_lo12:__stack_chk_guard]
	str	x19, [sp, 16]
	.cfi_offset 19, -32
	ldr	x2, [x1]
	str	x2, [sp, 40]
	mov	x2, 0
	ldp	x1, x19, [x0]
	ldr	x0, [x19, 56]
	str	xzr, [x1, 8]
	ldr	x1, [x0]
	ldr	x1, [x1, 16]
	blr	x1
	mov	x2, x0
	add	x1, sp, 32
	add	x0, x19, 376
	str	x2, [sp, 32]
	bl	_ZN8opendnp315MasterScheduler21CheckTaskStartTimeoutERKN7openpal18MonotonicTimestampE
	adrp	x0, :got:__stack_chk_guard
	ldr	x0, [x0, #:got_lo12:__stack_chk_guard]
	ldr	x2, [sp, 40]
	ldr	x1, [x0]
	subs	x2, x2, x1
	mov	x1, 0
	bne	.L143
	ldr	x19, [sp, 16]
	ldp	x29, x30, [sp], 48
	.cfi_remember_state
	.cfi_restore 30
	.cfi_restore 29
	.cfi_restore 19
	.cfi_def_cfa_offset 0
	ret
.L143:
	.cfi_restore_state
	bl	__stack_chk_fail
	.cfi_endproc
.LFE4534:
	.size	_ZNSt17_Function_handlerIFvvEZN7openpal8TimerRef7RestartIZN8opendnp38MContext19SetTaskStartTimeoutERKNS1_18MonotonicTimestampEEUlvE_EEvS8_RKT_EUlvE_E9_M_invokeERKSt9_Any_data, .-_ZNSt17_Function_handlerIFvvEZN7openpal8TimerRef7RestartIZN8opendnp38MContext19SetTaskStartTimeoutERKNS1_18MonotonicTimestampEEUlvE_EEvS8_RKT_EUlvE_E9_M_invokeERKSt9_Any_data
	.section	.text._ZN8opendnp38MContext6CanRunERKNS_11IMasterTaskE,"axG",@progbits,_ZN8opendnp38MContext6CanRunERKNS_11IMasterTaskE,comdat
	.align	2
	.p2align 4,,11
	.weak	_ZThn16_N8opendnp38MContext6CanRunERKNS_11IMasterTaskE
	.type	_ZThn16_N8opendnp38MContext6CanRunERKNS_11IMasterTaskE, %function
_ZThn16_N8opendnp38MContext6CanRunERKNS_11IMasterTaskE:
.LFB5234:
	.cfi_startproc
	mov	w0, 1
	ret
	.cfi_endproc
.LFE5234:
	.size	_ZThn16_N8opendnp38MContext6CanRunERKNS_11IMasterTaskE, .-_ZThn16_N8opendnp38MContext6CanRunERKNS_11IMasterTaskE
	.text
	.align	2
	.p2align 4,,11
	.type	_ZNSt17_Function_handlerIFbRN8opendnp312HeaderWriterEEZNS0_8MContext11ScanClassesERKNS0_10ClassFieldENS0_10TaskConfigEEUlS2_E_E9_M_invokeERKSt9_Any_dataS2_, %function
_ZNSt17_Function_handlerIFbRN8opendnp312HeaderWriterEEZNS0_8MContext11ScanClassesERKNS0_10ClassFieldENS0_10TaskConfigEEUlS2_E_E9_M_invokeERKSt9_Any_dataS2_:
.LFB5233:
	.cfi_startproc
	mov	x2, x0
	mov	x0, x1
	mov	x1, x2
	b	_ZN8opendnp35build17WriteClassHeadersERNS_12HeaderWriterERKNS_10ClassFieldE
	.cfi_endproc
.LFE5233:
	.size	_ZNSt17_Function_handlerIFbRN8opendnp312HeaderWriterEEZNS0_8MContext11ScanClassesERKNS0_10ClassFieldENS0_10TaskConfigEEUlS2_E_E9_M_invokeERKSt9_Any_dataS2_, .-_ZNSt17_Function_handlerIFbRN8opendnp312HeaderWriterEEZNS0_8MContext11ScanClassesERKNS0_10ClassFieldENS0_10TaskConfigEEUlS2_E_E9_M_invokeERKSt9_Any_dataS2_
	.align	2
	.p2align 4,,11
	.type	_ZNSt17_Function_handlerIFbRN8opendnp312HeaderWriterEEZNS0_8MContext12AddRangeScanENS0_16GroupVariationIDEttN7openpal12TimeDurationENS0_10TaskConfigEEUlS2_E_E9_M_invokeERKSt9_Any_dataS2_, %function
_ZNSt17_Function_handlerIFbRN8opendnp312HeaderWriterEEZNS0_8MContext12AddRangeScanENS0_16GroupVariationIDEttN7openpal12TimeDurationENS0_10TaskConfigEEUlS2_E_E9_M_invokeERKSt9_Any_dataS2_:
.LFB4281:
	.cfi_startproc
	stp	x29, x30, [sp, -48]!
	.cfi_def_cfa_offset 48
	.cfi_offset 29, -48
	.cfi_offset 30, -40
	mov	x4, x0
	mov	x0, x1
	mov	x29, sp
	stp	x19, x20, [sp, 16]
	.cfi_offset 19, -32
	.cfi_offset 20, -24
	mov	x20, x1
	ldrh	w1, [x4]
	mov	w3, 4
	mov	w2, 1
	stp	x21, x22, [sp, 32]
	.cfi_offset 21, -16
	.cfi_offset 22, -8
	ldrh	w22, [x4, 2]
	ldrh	w21, [x4, 4]
	bl	_ZN8opendnp312HeaderWriter22WriteHeaderWithReserveENS_16GroupVariationIDENS_13QualifierCodeEj
	mov	w19, w0
	tst	w0, 255
	bne	.L152
	mov	w0, w19
	ldp	x19, x20, [sp, 16]
	ldp	x21, x22, [sp, 32]
	ldp	x29, x30, [sp], 48
	.cfi_remember_state
	.cfi_restore 30
	.cfi_restore 29
	.cfi_restore 21
	.cfi_restore 22
	.cfi_restore 19
	.cfi_restore 20
	.cfi_def_cfa_offset 0
	ret
	.p2align 2,,3
.L152:
	.cfi_restore_state
	ldr	x0, [x20]
	mov	w1, 2
	ldr	x2, [x0, 8]
	strh	w22, [x2]
	bl	_ZN7openpal6WSlice7AdvanceEj
	ldr	x0, [x20]
	mov	w1, 2
	ldr	x2, [x0, 8]
	strh	w21, [x2]
	bl	_ZN7openpal6WSlice7AdvanceEj
	mov	w0, w19
	ldp	x19, x20, [sp, 16]
	ldp	x21, x22, [sp, 32]
	ldp	x29, x30, [sp], 48
	.cfi_restore 30
	.cfi_restore 29
	.cfi_restore 21
	.cfi_restore 22
	.cfi_restore 19
	.cfi_restore 20
	.cfi_def_cfa_offset 0
	ret
	.cfi_endproc
.LFE4281:
	.size	_ZNSt17_Function_handlerIFbRN8opendnp312HeaderWriterEEZNS0_8MContext12AddRangeScanENS0_16GroupVariationIDEttN7openpal12TimeDurationENS0_10TaskConfigEEUlS2_E_E9_M_invokeERKSt9_Any_dataS2_, .-_ZNSt17_Function_handlerIFbRN8opendnp312HeaderWriterEEZNS0_8MContext12AddRangeScanENS0_16GroupVariationIDEttN7openpal12TimeDurationENS0_10TaskConfigEEUlS2_E_E9_M_invokeERKSt9_Any_dataS2_
	.align	2
	.p2align 4,,11
	.type	_ZNSt17_Function_handlerIFbRN8opendnp312HeaderWriterEEZNS0_8MContext9ScanRangeENS0_16GroupVariationIDEttNS0_10TaskConfigEEUlS2_E_E9_M_invokeERKSt9_Any_dataS2_, %function
_ZNSt17_Function_handlerIFbRN8opendnp312HeaderWriterEEZNS0_8MContext9ScanRangeENS0_16GroupVariationIDEttNS0_10TaskConfigEEUlS2_E_E9_M_invokeERKSt9_Any_dataS2_:
.LFB4294:
	.cfi_startproc
	stp	x29, x30, [sp, -48]!
	.cfi_def_cfa_offset 48
	.cfi_offset 29, -48
	.cfi_offset 30, -40
	mov	x4, x0
	mov	x0, x1
	mov	x29, sp
	stp	x19, x20, [sp, 16]
	.cfi_offset 19, -32
	.cfi_offset 20, -24
	mov	x20, x1
	ldrh	w1, [x4]
	mov	w3, 4
	mov	w2, 1
	stp	x21, x22, [sp, 32]
	.cfi_offset 21, -16
	.cfi_offset 22, -8
	ldrh	w22, [x4, 2]
	ldrh	w21, [x4, 4]
	bl	_ZN8opendnp312HeaderWriter22WriteHeaderWithReserveENS_16GroupVariationIDENS_13QualifierCodeEj
	mov	w19, w0
	tst	w0, 255
	bne	.L159
	mov	w0, w19
	ldp	x19, x20, [sp, 16]
	ldp	x21, x22, [sp, 32]
	ldp	x29, x30, [sp], 48
	.cfi_remember_state
	.cfi_restore 30
	.cfi_restore 29
	.cfi_restore 21
	.cfi_restore 22
	.cfi_restore 19
	.cfi_restore 20
	.cfi_def_cfa_offset 0
	ret
	.p2align 2,,3
.L159:
	.cfi_restore_state
	ldr	x0, [x20]
	mov	w1, 2
	ldr	x2, [x0, 8]
	strh	w22, [x2]
	bl	_ZN7openpal6WSlice7AdvanceEj
	ldr	x0, [x20]
	mov	w1, 2
	ldr	x2, [x0, 8]
	strh	w21, [x2]
	bl	_ZN7openpal6WSlice7AdvanceEj
	mov	w0, w19
	ldp	x19, x20, [sp, 16]
	ldp	x21, x22, [sp, 32]
	ldp	x29, x30, [sp], 48
	.cfi_restore 30
	.cfi_restore 29
	.cfi_restore 21
	.cfi_restore 22
	.cfi_restore 19
	.cfi_restore 20
	.cfi_def_cfa_offset 0
	ret
	.cfi_endproc
.LFE4294:
	.size	_ZNSt17_Function_handlerIFbRN8opendnp312HeaderWriterEEZNS0_8MContext9ScanRangeENS0_16GroupVariationIDEttNS0_10TaskConfigEEUlS2_E_E9_M_invokeERKSt9_Any_dataS2_, .-_ZNSt17_Function_handlerIFbRN8opendnp312HeaderWriterEEZNS0_8MContext9ScanRangeENS0_16GroupVariationIDEttNS0_10TaskConfigEEUlS2_E_E9_M_invokeERKSt9_Any_dataS2_
	.section	.text._ZNSt23_Sp_counted_ptr_inplaceIN8opendnp312UserPollTaskESaIS1_ELN9__gnu_cxx12_Lock_policyE2EE10_M_disposeEv,"axG",@progbits,_ZNSt23_Sp_counted_ptr_inplaceIN8opendnp312UserPollTaskESaIS1_ELN9__gnu_cxx12_Lock_policyE2EE10_M_disposeEv,comdat
	.align	2
	.p2align 4,,11
	.weak	_ZNSt23_Sp_counted_ptr_inplaceIN8opendnp312UserPollTaskESaIS1_ELN9__gnu_cxx12_Lock_policyE2EE10_M_disposeEv
	.type	_ZNSt23_Sp_counted_ptr_inplaceIN8opendnp312UserPollTaskESaIS1_ELN9__gnu_cxx12_Lock_policyE2EE10_M_disposeEv, %function
_ZNSt23_Sp_counted_ptr_inplaceIN8opendnp312UserPollTaskESaIS1_ELN9__gnu_cxx12_Lock_policyE2EE10_M_disposeEv:
.LFB5151:
	.cfi_startproc
	.cfi_personality 0x9b,DW.ref.__gxx_personality_v0
	.cfi_lsda 0x1b,.LLSDA5151
	stp	x29, x30, [sp, -32]!
	.cfi_def_cfa_offset 32
	.cfi_offset 29, -32
	.cfi_offset 30, -24
	add	x1, x0, 120
	adrp	x2, :got:_ZTVN8opendnp312UserPollTaskE
	mov	x29, sp
	ldr	x2, [x2, #:got_lo12:_ZTVN8opendnp312UserPollTaskE]
	stp	x19, x20, [sp, 16]
	.cfi_offset 19, -16
	.cfi_offset 20, -8
	mov	x19, x0
	ldr	x3, [x1, 16]
	add	x2, x2, 16
	str	x2, [x0, 16]
	add	x20, x0, 16
	cbz	x3, .L161
	mov	x0, x1
	mov	w2, 3
	blr	x3
.L161:
	adrp	x1, :got:_ZTVN8opendnp312PollTaskBaseE
	mov	x0, x20
	ldr	x1, [x1, #:got_lo12:_ZTVN8opendnp312PollTaskBaseE]
	add	x1, x1, 16
	str	x1, [x19, 16]
	ldp	x19, x20, [sp, 16]
	ldp	x29, x30, [sp], 32
	.cfi_restore 30
	.cfi_restore 29
	.cfi_restore 19
	.cfi_restore 20
	.cfi_def_cfa_offset 0
	b	_ZN8opendnp311IMasterTaskD2Ev
	.cfi_endproc
.LFE5151:
	.section	.gcc_except_table
.LLSDA5151:
	.byte	0xff
	.byte	0xff
	.byte	0x1
	.uleb128 .LLSDACSE5151-.LLSDACSB5151
.LLSDACSB5151:
.LLSDACSE5151:
	.section	.text._ZNSt23_Sp_counted_ptr_inplaceIN8opendnp312UserPollTaskESaIS1_ELN9__gnu_cxx12_Lock_policyE2EE10_M_disposeEv,"axG",@progbits,_ZNSt23_Sp_counted_ptr_inplaceIN8opendnp312UserPollTaskESaIS1_ELN9__gnu_cxx12_Lock_policyE2EE10_M_disposeEv,comdat
	.size	_ZNSt23_Sp_counted_ptr_inplaceIN8opendnp312UserPollTaskESaIS1_ELN9__gnu_cxx12_Lock_policyE2EE10_M_disposeEv, .-_ZNSt23_Sp_counted_ptr_inplaceIN8opendnp312UserPollTaskESaIS1_ELN9__gnu_cxx12_Lock_policyE2EE10_M_disposeEv
	.section	.text._ZNSt23_Sp_counted_ptr_inplaceIN8opendnp320RestartOperationTaskESaIS1_ELN9__gnu_cxx12_Lock_policyE2EE14_M_get_deleterERKSt9type_info,"axG",@progbits,_ZNSt23_Sp_counted_ptr_inplaceIN8opendnp320RestartOperationTaskESaIS1_ELN9__gnu_cxx12_Lock_policyE2EE14_M_get_deleterERKSt9type_info,comdat
	.align	2
	.p2align 4,,11
	.weak	_ZNSt23_Sp_counted_ptr_inplaceIN8opendnp320RestartOperationTaskESaIS1_ELN9__gnu_cxx12_Lock_policyE2EE14_M_get_deleterERKSt9type_info
	.type	_ZNSt23_Sp_counted_ptr_inplaceIN8opendnp320RestartOperationTaskESaIS1_ELN9__gnu_cxx12_Lock_policyE2EE14_M_get_deleterERKSt9type_info, %function
_ZNSt23_Sp_counted_ptr_inplaceIN8opendnp320RestartOperationTaskESaIS1_ELN9__gnu_cxx12_Lock_policyE2EE14_M_get_deleterERKSt9type_info:
.LFB5139:
	.cfi_startproc
	stp	x29, x30, [sp, -32]!
	.cfi_def_cfa_offset 32
	.cfi_offset 29, -32
	.cfi_offset 30, -24
	adrp	x2, :got:_ZZNSt19_Sp_make_shared_tag5_S_tiEvE5__tag
	mov	x29, sp
	ldr	x2, [x2, #:got_lo12:_ZZNSt19_Sp_make_shared_tag5_S_tiEvE5__tag]
	str	x19, [sp, 16]
	.cfi_offset 19, -16
	add	x19, x0, 16
	cmp	x1, x2
	beq	.L166
	adrp	x2, :got:_ZTSSt19_Sp_make_shared_tag
	ldr	x0, [x1, 8]
	ldr	x1, [x2, #:got_lo12:_ZTSSt19_Sp_make_shared_tag]
	cmp	x0, x1
	beq	.L166
	ldrb	w2, [x0]
	cmp	w2, 42
	beq	.L168
	bl	strcmp
	cmp	w0, 0
	csel	x19, x19, xzr, eq
.L166:
	mov	x0, x19
	ldr	x19, [sp, 16]
	ldp	x29, x30, [sp], 32
	.cfi_remember_state
	.cfi_restore 30
	.cfi_restore 29
	.cfi_restore 19
	.cfi_def_cfa_offset 0
	ret
	.p2align 2,,3
.L168:
	.cfi_restore_state
	mov	x19, 0
	mov	x0, x19
	ldr	x19, [sp, 16]
	ldp	x29, x30, [sp], 32
	.cfi_restore 30
	.cfi_restore 29
	.cfi_restore 19
	.cfi_def_cfa_offset 0
	ret
	.cfi_endproc
.LFE5139:
	.size	_ZNSt23_Sp_counted_ptr_inplaceIN8opendnp320RestartOperationTaskESaIS1_ELN9__gnu_cxx12_Lock_policyE2EE14_M_get_deleterERKSt9type_info, .-_ZNSt23_Sp_counted_ptr_inplaceIN8opendnp320RestartOperationTaskESaIS1_ELN9__gnu_cxx12_Lock_policyE2EE14_M_get_deleterERKSt9type_info
	.section	.text._ZNSt23_Sp_counted_ptr_inplaceIN8opendnp317EmptyResponseTaskESaIS1_ELN9__gnu_cxx12_Lock_policyE2EE14_M_get_deleterERKSt9type_info,"axG",@progbits,_ZNSt23_Sp_counted_ptr_inplaceIN8opendnp317EmptyResponseTaskESaIS1_ELN9__gnu_cxx12_Lock_policyE2EE14_M_get_deleterERKSt9type_info,comdat
	.align	2
	.p2align 4,,11
	.weak	_ZNSt23_Sp_counted_ptr_inplaceIN8opendnp317EmptyResponseTaskESaIS1_ELN9__gnu_cxx12_Lock_policyE2EE14_M_get_deleterERKSt9type_info
	.type	_ZNSt23_Sp_counted_ptr_inplaceIN8opendnp317EmptyResponseTaskESaIS1_ELN9__gnu_cxx12_Lock_policyE2EE14_M_get_deleterERKSt9type_info, %function
_ZNSt23_Sp_counted_ptr_inplaceIN8opendnp317EmptyResponseTaskESaIS1_ELN9__gnu_cxx12_Lock_policyE2EE14_M_get_deleterERKSt9type_info:
.LFB5146:
	.cfi_startproc
	stp	x29, x30, [sp, -32]!
	.cfi_def_cfa_offset 32
	.cfi_offset 29, -32
	.cfi_offset 30, -24
	adrp	x2, :got:_ZZNSt19_Sp_make_shared_tag5_S_tiEvE5__tag
	mov	x29, sp
	ldr	x2, [x2, #:got_lo12:_ZZNSt19_Sp_make_shared_tag5_S_tiEvE5__tag]
	str	x19, [sp, 16]
	.cfi_offset 19, -16
	add	x19, x0, 16
	cmp	x1, x2
	beq	.L171
	adrp	x2, :got:_ZTSSt19_Sp_make_shared_tag
	ldr	x0, [x1, 8]
	ldr	x1, [x2, #:got_lo12:_ZTSSt19_Sp_make_shared_tag]
	cmp	x0, x1
	beq	.L171
	ldrb	w2, [x0]
	cmp	w2, 42
	beq	.L173
	bl	strcmp
	cmp	w0, 0
	csel	x19, x19, xzr, eq
.L171:
	mov	x0, x19
	ldr	x19, [sp, 16]
	ldp	x29, x30, [sp], 32
	.cfi_remember_state
	.cfi_restore 30
	.cfi_restore 29
	.cfi_restore 19
	.cfi_def_cfa_offset 0
	ret
	.p2align 2,,3
.L173:
	.cfi_restore_state
	mov	x19, 0
	mov	x0, x19
	ldr	x19, [sp, 16]
	ldp	x29, x30, [sp], 32
	.cfi_restore 30
	.cfi_restore 29
	.cfi_restore 19
	.cfi_def_cfa_offset 0
	ret
	.cfi_endproc
.LFE5146:
	.size	_ZNSt23_Sp_counted_ptr_inplaceIN8opendnp317EmptyResponseTaskESaIS1_ELN9__gnu_cxx12_Lock_policyE2EE14_M_get_deleterERKSt9type_info, .-_ZNSt23_Sp_counted_ptr_inplaceIN8opendnp317EmptyResponseTaskESaIS1_ELN9__gnu_cxx12_Lock_policyE2EE14_M_get_deleterERKSt9type_info
	.section	.text._ZNSt23_Sp_counted_ptr_inplaceIN8opendnp320RestartOperationTaskESaIS1_ELN9__gnu_cxx12_Lock_policyE2EE10_M_disposeEv,"axG",@progbits,_ZNSt23_Sp_counted_ptr_inplaceIN8opendnp320RestartOperationTaskESaIS1_ELN9__gnu_cxx12_Lock_policyE2EE10_M_disposeEv,comdat
	.align	2
	.p2align 4,,11
	.weak	_ZNSt23_Sp_counted_ptr_inplaceIN8opendnp320RestartOperationTaskESaIS1_ELN9__gnu_cxx12_Lock_policyE2EE10_M_disposeEv
	.type	_ZNSt23_Sp_counted_ptr_inplaceIN8opendnp320RestartOperationTaskESaIS1_ELN9__gnu_cxx12_Lock_policyE2EE10_M_disposeEv, %function
_ZNSt23_Sp_counted_ptr_inplaceIN8opendnp320RestartOperationTaskESaIS1_ELN9__gnu_cxx12_Lock_policyE2EE10_M_disposeEv:
.LFB5137:
	.cfi_startproc
	.cfi_personality 0x9b,DW.ref.__gxx_personality_v0
	.cfi_lsda 0x1b,.LLSDA5137
	stp	x29, x30, [sp, -32]!
	.cfi_def_cfa_offset 32
	.cfi_offset 29, -32
	.cfi_offset 30, -24
	adrp	x2, :got:_ZTVN8opendnp320RestartOperationTaskE
	add	x1, x0, 168
	mov	x29, sp
	stp	x19, x20, [sp, 16]
	.cfi_offset 19, -16
	.cfi_offset 20, -8
	mov	x19, x0
	add	x20, x0, 16
	ldr	x0, [x2, #:got_lo12:_ZTVN8opendnp320RestartOperationTaskE]
	ldr	x3, [x1, 16]
	add	x2, x0, 16
	str	x2, [x19, 16]
	add	x0, x0, 160
	str	x0, [x20, 128]
	cbz	x3, .L177
	mov	x0, x1
	mov	w2, 3
	blr	x3
.L177:
	adrp	x0, :got:_ZTVN8opendnp321SimpleRequestTaskBaseE
	add	x1, x19, 112
	ldr	x3, [x1, 16]
	ldr	x0, [x0, #:got_lo12:_ZTVN8opendnp321SimpleRequestTaskBaseE]
	add	x0, x0, 16
	str	x0, [x19, 16]
	cbz	x3, .L178
	mov	x0, x1
	mov	w2, 3
	blr	x3
.L178:
	mov	x0, x20
	ldp	x19, x20, [sp, 16]
	ldp	x29, x30, [sp], 32
	.cfi_restore 30
	.cfi_restore 29
	.cfi_restore 19
	.cfi_restore 20
	.cfi_def_cfa_offset 0
	b	_ZN8opendnp311IMasterTaskD2Ev
	.cfi_endproc
.LFE5137:
	.section	.gcc_except_table
.LLSDA5137:
	.byte	0xff
	.byte	0xff
	.byte	0x1
	.uleb128 .LLSDACSE5137-.LLSDACSB5137
.LLSDACSB5137:
.LLSDACSE5137:
	.section	.text._ZNSt23_Sp_counted_ptr_inplaceIN8opendnp320RestartOperationTaskESaIS1_ELN9__gnu_cxx12_Lock_policyE2EE10_M_disposeEv,"axG",@progbits,_ZNSt23_Sp_counted_ptr_inplaceIN8opendnp320RestartOperationTaskESaIS1_ELN9__gnu_cxx12_Lock_policyE2EE10_M_disposeEv,comdat
	.size	_ZNSt23_Sp_counted_ptr_inplaceIN8opendnp320RestartOperationTaskESaIS1_ELN9__gnu_cxx12_Lock_policyE2EE10_M_disposeEv, .-_ZNSt23_Sp_counted_ptr_inplaceIN8opendnp320RestartOperationTaskESaIS1_ELN9__gnu_cxx12_Lock_policyE2EE10_M_disposeEv
	.text
	.align	2
	.p2align 4,,11
	.global	_ZThn16_N8opendnp38MContext19SetTaskStartTimeoutERKN7openpal18MonotonicTimestampE
	.type	_ZThn16_N8opendnp38MContext19SetTaskStartTimeoutERKN7openpal18MonotonicTimestampE, %function
_ZThn16_N8opendnp38MContext19SetTaskStartTimeoutERKN7openpal18MonotonicTimestampE:
.LFB5236:
	.cfi_startproc
	.cfi_personality 0x9b,DW.ref.__gxx_personality_v0
	.cfi_lsda 0x1b,.LLSDA5236
	stp	x29, x30, [sp, -80]!
	.cfi_def_cfa_offset 80
	.cfi_offset 29, -80
	.cfi_offset 30, -72
	adrp	x3, :got:__stack_chk_guard
	mov	x2, x0
	mov	x29, sp
	ldr	x4, [x3, #:got_lo12:__stack_chk_guard]
	stp	x19, x20, [sp, 16]
	.cfi_offset 19, -64
	.cfi_offset 20, -56
	sub	x3, x2, #16
	adrp	x5, _ZNSt17_Function_handlerIFvvEZN7openpal8TimerRef7RestartIZN8opendnp38MContext19SetTaskStartTimeoutERKNS1_18MonotonicTimestampEEUlvE_EEvS8_RKT_EUlvE_E10_M_managerERSt9_Any_dataRKSF_St18_Manager_operation
	ldr	x2, [x4]
	str	x2, [sp, 72]
	mov	x2, 0
	add	x5, x5, :lo12:_ZNSt17_Function_handlerIFvvEZN7openpal8TimerRef7RestartIZN8opendnp38MContext19SetTaskStartTimeoutERKNS1_18MonotonicTimestampEEUlvE_EEvS8_RKT_EUlvE_E10_M_managerERSt9_Any_dataRKSF_St18_Manager_operation
	adrp	x4, _ZNSt17_Function_handlerIFvvEZN7openpal8TimerRef7RestartIZN8opendnp38MContext19SetTaskStartTimeoutERKNS1_18MonotonicTimestampEEUlvE_EEvS8_RKT_EUlvE_E9_M_invokeERKSt9_Any_data
	add	x4, x4, :lo12:_ZNSt17_Function_handlerIFvvEZN7openpal8TimerRef7RestartIZN8opendnp38MContext19SetTaskStartTimeoutERKNS1_18MonotonicTimestampEEUlvE_EEvS8_RKT_EUlvE_E9_M_invokeERKSt9_Any_data
	add	x19, sp, 40
	add	x0, x0, 208
	mov	x2, x19
	stp	x0, x3, [sp, 40]
	stp	x5, x4, [sp, 56]
.LEHB2:
	bl	_ZN7openpal8TimerRef13RestartActionERKNS_18MonotonicTimestampERKSt8functionIFvvEE
.LEHE2:
	ldr	x3, [sp, 56]
	cbz	x3, .L186
	mov	x1, x19
	mov	x0, x19
	mov	w2, 3
	blr	x3
.L186:
	adrp	x0, :got:__stack_chk_guard
	ldr	x0, [x0, #:got_lo12:__stack_chk_guard]
	ldr	x2, [sp, 72]
	ldr	x1, [x0]
	subs	x2, x2, x1
	mov	x1, 0
	bne	.L199
	ldp	x19, x20, [sp, 16]
	ldp	x29, x30, [sp], 80
	.cfi_remember_state
	.cfi_restore 30
	.cfi_restore 29
	.cfi_restore 19
	.cfi_restore 20
	.cfi_def_cfa_offset 0
	ret
.L199:
	.cfi_restore_state
	bl	__stack_chk_fail
.L191:
	ldr	x3, [sp, 56]
	mov	x20, x0
	cbz	x3, .L189
	mov	x1, x19
	mov	x0, x19
	mov	w2, 3
	blr	x3
.L189:
	mov	x0, x20
.LEHB3:
	bl	_Unwind_Resume
.LEHE3:
	.cfi_endproc
.LFE5236:
	.section	.gcc_except_table
.LLSDA5236:
	.byte	0xff
	.byte	0xff
	.byte	0x1
	.uleb128 .LLSDACSE5236-.LLSDACSB5236
.LLSDACSB5236:
	.uleb128 .LEHB2-.LFB5236
	.uleb128 .LEHE2-.LEHB2
	.uleb128 .L191-.LFB5236
	.uleb128 0
	.uleb128 .LEHB3-.LFB5236
	.uleb128 .LEHE3-.LEHB3
	.uleb128 0
	.uleb128 0
.LLSDACSE5236:
	.text
	.size	_ZThn16_N8opendnp38MContext19SetTaskStartTimeoutERKN7openpal18MonotonicTimestampE, .-_ZThn16_N8opendnp38MContext19SetTaskStartTimeoutERKN7openpal18MonotonicTimestampE
	.global	__aarch64_ldadd4_acq_rel
	.align	2
	.p2align 4,,11
	.global	_ZN8opendnp38MContext16OnLowerLayerDownEv
	.type	_ZN8opendnp38MContext16OnLowerLayerDownEv, %function
_ZN8opendnp38MContext16OnLowerLayerDownEv:
.LFB3475:
	.cfi_startproc
	stp	x29, x30, [sp, -64]!
	.cfi_def_cfa_offset 64
	.cfi_offset 29, -64
	.cfi_offset 30, -56
	adrp	x1, :got:__stack_chk_guard
	mov	x29, sp
	ldr	x1, [x1, #:got_lo12:__stack_chk_guard]
	stp	x19, x20, [sp, 16]
	.cfi_offset 19, -48
	.cfi_offset 20, -40
	ldrb	w20, [x0, 168]
	mov	x19, x0
	ldr	x0, [x1]
	str	x0, [sp, 56]
	mov	x0, 0
	cbz	w20, .L201
	ldr	x0, [x19, 56]
	ldr	x1, [x0]
	ldr	x1, [x1, 16]
	blr	x1
	mov	x2, x0
	add	x1, sp, 48
	add	x0, x19, 376
	str	x2, [sp, 48]
	bl	_ZN8opendnp315MasterScheduler8ShutdownERKN7openpal18MonotonicTimestampE
	ldr	x0, [x19, 176]
	cbz	x0, .L203
	ldr	x1, [sp, 48]
	stp	x21, x22, [sp, 32]
	.cfi_offset 22, -24
	.cfi_offset 21, -32
	bl	_ZN8opendnp311IMasterTask17OnLowerLayerCloseEN7openpal18MonotonicTimestampE
	ldr	x21, [x19, 184]
	stp	xzr, xzr, [x19, 176]
	cbz	x21, .L221
	adrp	x22, :got:__libc_single_threaded
	ldr	x0, [x22, #:got_lo12:__libc_single_threaded]
	ldrb	w0, [x0]
	cbz	w0, .L205
	ldr	w0, [x21, 8]
	sub	w1, w0, #1
	str	w1, [x21, 8]
.L206:
	cmp	w0, 1
	bne	.L221
	ldr	x1, [x21]
	mov	x0, x21
	ldr	x1, [x1, 16]
	blr	x1
	ldr	x22, [x22, #:got_lo12:__libc_single_threaded]
	ldrb	w0, [x22]
	cbz	w0, .L207
	ldr	w0, [x21, 12]
	sub	w1, w0, #1
	str	w1, [x21, 12]
.L208:
	cmp	w0, 1
	bne	.L221
	ldr	x1, [x21]
	mov	x0, x21
	ldr	x1, [x1, 24]
	blr	x1
	ldp	x21, x22, [sp, 32]
	.cfi_restore 22
	.cfi_restore 21
	.p2align 3,,7
.L203:
	adrp	x1, :got:_ZN8opendnp312NullTaskLock7ReleaseERNS_17IScheduleCallbackE
	ldr	x0, [x19, 160]
	ldr	x1, [x1, #:got_lo12:_ZN8opendnp312NullTaskLock7ReleaseERNS_17IScheduleCallbackE]
	ldr	x2, [x0]
	ldr	x2, [x2, 8]
	str	wzr, [x19, 512]
	cmp	x2, x1
	bne	.L222
.L209:
	add	x0, x19, 192
	bl	_ZN7openpal8TimerRef6CancelEv
	add	x0, x19, 224
	bl	_ZN7openpal8TimerRef6CancelEv
	add	x0, x19, 208
	bl	_ZN7openpal8TimerRef6CancelEv
	ldr	x0, [x19, 144]
	strb	wzr, [x19, 171]
	adrp	x1, :got:_ZN8opendnp318IMasterApplication7OnCloseEv
	strh	wzr, [x19, 168]
	strb	wzr, [x19, 170]
	ldr	x2, [x0]
	ldr	x1, [x1, #:got_lo12:_ZN8opendnp318IMasterApplication7OnCloseEv]
	ldr	x2, [x2, 80]
	cmp	x2, x1
	bne	.L223
.L201:
	adrp	x0, :got:__stack_chk_guard
	ldr	x0, [x0, #:got_lo12:__stack_chk_guard]
	ldr	x2, [sp, 56]
	ldr	x1, [x0]
	subs	x2, x2, x1
	mov	x1, 0
	bne	.L224
	mov	w0, w20
	ldp	x19, x20, [sp, 16]
	ldp	x29, x30, [sp], 64
	.cfi_restore 30
	.cfi_restore 29
	.cfi_restore 19
	.cfi_restore 20
	.cfi_def_cfa_offset 0
	ret
	.p2align 2,,3
.L221:
	.cfi_def_cfa_offset 64
	.cfi_offset 19, -48
	.cfi_offset 20, -40
	.cfi_offset 21, -32
	.cfi_offset 22, -24
	.cfi_offset 29, -64
	.cfi_offset 30, -56
	ldr	x0, [x19, 160]
	adrp	x1, :got:_ZN8opendnp312NullTaskLock7ReleaseERNS_17IScheduleCallbackE
	ldp	x21, x22, [sp, 32]
	.cfi_restore 22
	.cfi_restore 21
	ldr	x2, [x0]
	ldr	x1, [x1, #:got_lo12:_ZN8opendnp312NullTaskLock7ReleaseERNS_17IScheduleCallbackE]
	ldr	x2, [x2, 8]
	str	wzr, [x19, 512]
	cmp	x2, x1
	beq	.L209
.L222:
	add	x1, x19, 8
	blr	x2
	b	.L209
	.p2align 2,,3
.L223:
	blr	x2
	b	.L201
	.p2align 2,,3
.L205:
	.cfi_offset 21, -32
	.cfi_offset 22, -24
	add	x1, x21, 8
	mov	w0, -1
	bl	__aarch64_ldadd4_acq_rel
	b	.L206
	.p2align 2,,3
.L207:
	add	x1, x21, 12
	mov	w0, -1
	bl	__aarch64_ldadd4_acq_rel
	b	.L208
.L224:
	.cfi_restore 21
	.cfi_restore 22
	stp	x21, x22, [sp, 32]
	.cfi_offset 22, -24
	.cfi_offset 21, -32
	bl	__stack_chk_fail
	.cfi_endproc
.LFE3475:
	.size	_ZN8opendnp38MContext16OnLowerLayerDownEv, .-_ZN8opendnp38MContext16OnLowerLayerDownEv
	.section	.text._ZN8opendnp38MContextD0Ev,"axG",@progbits,_ZN8opendnp38MContextD5Ev,comdat
	.align	2
	.p2align 4,,11
	.weak	_ZN8opendnp38MContextD0Ev
	.type	_ZN8opendnp38MContextD0Ev, %function
_ZN8opendnp38MContextD0Ev:
.LFB5115:
	.cfi_startproc
	stp	x29, x30, [sp, -64]!
	.cfi_def_cfa_offset 64
	.cfi_offset 29, -64
	.cfi_offset 30, -56
	adrp	x1, :got:_ZTVN8opendnp38MContextE
	adrp	x2, :got:_ZTVN7openpal5ArrayIhjEE
	mov	x29, sp
	ldr	x1, [x1, #:got_lo12:_ZTVN8opendnp38MContextE]
	stp	x19, x20, [sp, 16]
	.cfi_offset 19, -48
	.cfi_offset 20, -40
	mov	x19, x0
	ldr	x2, [x2, #:got_lo12:_ZTVN7openpal5ArrayIhjEE]
	stp	x21, x22, [sp, 32]
	add	x4, x1, 16
	ldr	x0, [x0, 504]
	stp	x23, x24, [sp, 48]
	.cfi_offset 21, -32
	.cfi_offset 22, -24
	.cfi_offset 23, -16
	.cfi_offset 24, -8
	add	x3, x1, 128
	add	x2, x2, 16
	add	x1, x1, 152
	stp	x4, x3, [x19]
	str	x1, [x19, 16]
	str	x2, [x19, 488]
	cbz	x0, .L226
	bl	_ZdaPv
.L226:
	ldr	x0, [x19, 408]
	add	x22, x19, 408
	cbz	x0, .L227
	ldr	x21, [x22, 72]
	ldr	x20, [x22, 40]
	add	x21, x21, 8
	cmp	x20, x21
	bcs	.L228
	.p2align 3,,7
.L229:
	ldr	x0, [x20], 8
	mov	x1, 510
	bl	_ZdlPvm
	cmp	x21, x20
	bhi	.L229
	ldr	x0, [x19, 408]
.L228:
	ldr	x1, [x22, 8]
	lsl	x1, x1, 3
	bl	_ZdlPvm
.L227:
	ldr	x20, [x19, 384]
	add	x24, x19, 384
	ldr	x22, [x24, 8]
	cmp	x20, x22
	beq	.L230
	adrp	x23, :got:__libc_single_threaded
	ldr	x23, [x23, #:got_lo12:__libc_single_threaded]
	b	.L238
	.p2align 2,,3
.L232:
	add	x20, x20, 16
	cmp	x22, x20
	beq	.L364
.L238:
	ldr	x21, [x20, 8]
	cbz	x21, .L232
	ldrb	w0, [x23]
	cbz	w0, .L233
	ldr	w0, [x21, 8]
	sub	w1, w0, #1
	str	w1, [x21, 8]
.L234:
	cmp	w0, 1
	bne	.L232
	ldr	x1, [x21]
	mov	x0, x21
	ldr	x1, [x1, 16]
	blr	x1
	ldrb	w0, [x23]
	cbz	w0, .L236
	ldr	w0, [x21, 12]
	sub	w1, w0, #1
	str	w1, [x21, 12]
.L237:
	cmp	w0, 1
	bne	.L232
	ldr	x1, [x21]
	mov	x0, x21
	add	x20, x20, 16
	ldr	x1, [x1, 24]
	blr	x1
	cmp	x22, x20
	bne	.L238
	.p2align 3,,7
.L364:
	ldr	x22, [x19, 384]
.L230:
	cbz	x22, .L239
	ldr	x1, [x24, 16]
	mov	x0, x22
	sub	x1, x1, x22
	bl	_ZdlPvm
.L239:
	ldr	x20, [x19, 352]
	add	x24, x19, 352
	ldr	x22, [x24, 8]
	cmp	x20, x22
	beq	.L240
	adrp	x23, :got:__libc_single_threaded
	ldr	x23, [x23, #:got_lo12:__libc_single_threaded]
	b	.L248
	.p2align 2,,3
.L242:
	add	x20, x20, 16
	cmp	x22, x20
	beq	.L365
.L248:
	ldr	x21, [x20, 8]
	cbz	x21, .L242
	ldrb	w0, [x23]
	cbz	w0, .L243
	ldr	w0, [x21, 8]
	sub	w1, w0, #1
	str	w1, [x21, 8]
.L244:
	cmp	w0, 1
	bne	.L242
	ldr	x1, [x21]
	mov	x0, x21
	ldr	x1, [x1, 16]
	blr	x1
	ldrb	w0, [x23]
	cbz	w0, .L246
	ldr	w0, [x21, 12]
	sub	w1, w0, #1
	str	w1, [x21, 12]
.L247:
	cmp	w0, 1
	bne	.L242
	ldr	x1, [x21]
	mov	x0, x21
	add	x20, x20, 16
	ldr	x1, [x1, 24]
	blr	x1
	cmp	x22, x20
	bne	.L248
	.p2align 3,,7
.L365:
	ldr	x22, [x19, 352]
.L240:
	cbz	x22, .L249
	ldr	x1, [x24, 16]
	mov	x0, x22
	sub	x1, x1, x22
	bl	_ZdlPvm
.L249:
	ldr	x21, [x19, 344]
	cbz	x21, .L251
	adrp	x20, :got:__libc_single_threaded
	ldr	x0, [x20, #:got_lo12:__libc_single_threaded]
	ldrb	w0, [x0]
	cbz	w0, .L252
	ldr	w0, [x21, 8]
	sub	w1, w0, #1
	str	w1, [x21, 8]
.L253:
	cmp	w0, 1
	beq	.L366
.L251:
	ldr	x21, [x19, 328]
	cbz	x21, .L258
	adrp	x20, :got:__libc_single_threaded
	ldr	x0, [x20, #:got_lo12:__libc_single_threaded]
	ldrb	w0, [x0]
	cbz	w0, .L259
	ldr	w0, [x21, 8]
	sub	w1, w0, #1
	str	w1, [x21, 8]
.L260:
	cmp	w0, 1
	beq	.L367
.L258:
	ldr	x21, [x19, 312]
	cbz	x21, .L265
	adrp	x20, :got:__libc_single_threaded
	ldr	x0, [x20, #:got_lo12:__libc_single_threaded]
	ldrb	w0, [x0]
	cbz	w0, .L266
	ldr	w0, [x21, 8]
	sub	w1, w0, #1
	str	w1, [x21, 8]
.L267:
	cmp	w0, 1
	beq	.L368
.L265:
	ldr	x21, [x19, 296]
	cbz	x21, .L272
	adrp	x20, :got:__libc_single_threaded
	ldr	x0, [x20, #:got_lo12:__libc_single_threaded]
	ldrb	w0, [x0]
	cbz	w0, .L273
	ldr	w0, [x21, 8]
	sub	w1, w0, #1
	str	w1, [x21, 8]
.L274:
	cmp	w0, 1
	beq	.L369
.L272:
	ldr	x21, [x19, 280]
	cbz	x21, .L279
	adrp	x20, :got:__libc_single_threaded
	ldr	x0, [x20, #:got_lo12:__libc_single_threaded]
	ldrb	w0, [x0]
	cbz	w0, .L280
	ldr	w0, [x21, 8]
	sub	w1, w0, #1
	str	w1, [x21, 8]
.L281:
	cmp	w0, 1
	beq	.L370
.L279:
	ldr	x21, [x19, 264]
	cbz	x21, .L286
	adrp	x20, :got:__libc_single_threaded
	ldr	x0, [x20, #:got_lo12:__libc_single_threaded]
	ldrb	w0, [x0]
	cbz	w0, .L287
	ldr	w0, [x21, 8]
	sub	w1, w0, #1
	str	w1, [x21, 8]
.L288:
	cmp	w0, 1
	beq	.L371
.L286:
	ldr	x21, [x19, 248]
	cbz	x21, .L293
	adrp	x20, :got:__libc_single_threaded
	ldr	x0, [x20, #:got_lo12:__libc_single_threaded]
	ldrb	w0, [x0]
	cbz	w0, .L294
	ldr	w0, [x21, 8]
	sub	w1, w0, #1
	str	w1, [x21, 8]
.L295:
	cmp	w0, 1
	beq	.L372
.L293:
	add	x0, x19, 224
	bl	_ZN7openpal8TimerRefD1Ev
	add	x0, x19, 208
	bl	_ZN7openpal8TimerRefD1Ev
	add	x0, x19, 192
	bl	_ZN7openpal8TimerRefD1Ev
	ldr	x21, [x19, 184]
	cbz	x21, .L300
	adrp	x20, :got:__libc_single_threaded
	ldr	x0, [x20, #:got_lo12:__libc_single_threaded]
	ldrb	w0, [x0]
	cbz	w0, .L301
	ldr	w0, [x21, 8]
	sub	w1, w0, #1
	str	w1, [x21, 8]
.L302:
	cmp	w0, 1
	beq	.L373
.L300:
	ldr	x21, [x19, 152]
	cbz	x21, .L307
	adrp	x20, :got:__libc_single_threaded
	ldr	x0, [x20, #:got_lo12:__libc_single_threaded]
	ldrb	w0, [x0]
	cbz	w0, .L308
	ldr	w0, [x21, 8]
	sub	w1, w0, #1
	str	w1, [x21, 8]
.L309:
	cmp	w0, 1
	beq	.L374
.L307:
	ldr	x21, [x19, 136]
	cbz	x21, .L314
	adrp	x20, :got:__libc_single_threaded
	ldr	x0, [x20, #:got_lo12:__libc_single_threaded]
	ldrb	w0, [x0]
	cbz	w0, .L315
	ldr	w0, [x21, 8]
	sub	w1, w0, #1
	str	w1, [x21, 8]
.L316:
	cmp	w0, 1
	beq	.L375
.L314:
	ldr	x21, [x19, 80]
	cbz	x21, .L321
	adrp	x20, :got:__libc_single_threaded
	ldr	x0, [x20, #:got_lo12:__libc_single_threaded]
	ldrb	w0, [x0]
	cbz	w0, .L322
	ldr	w0, [x21, 8]
	sub	w1, w0, #1
	str	w1, [x21, 8]
.L323:
	cmp	w0, 1
	beq	.L376
.L321:
	ldr	x21, [x19, 64]
	cbz	x21, .L328
	adrp	x20, :got:__libc_single_threaded
	ldr	x0, [x20, #:got_lo12:__libc_single_threaded]
	ldrb	w0, [x0]
	cbz	w0, .L329
	ldr	w0, [x21, 8]
	sub	w1, w0, #1
	str	w1, [x21, 8]
.L330:
	cmp	w0, 1
	beq	.L377
.L328:
	ldr	x21, [x19, 48]
	cbz	x21, .L335
	adrp	x20, :got:__libc_single_threaded
	ldr	x0, [x20, #:got_lo12:__libc_single_threaded]
	ldrb	w0, [x0]
	cbz	w0, .L336
	ldr	w0, [x21, 8]
	sub	w1, w0, #1
	str	w1, [x21, 8]
.L337:
	cmp	w0, 1
	beq	.L378
.L335:
	ldr	x21, [x19, 32]
	cbz	x21, .L342
	adrp	x20, :got:__libc_single_threaded
	ldr	x0, [x20, #:got_lo12:__libc_single_threaded]
	ldrb	w0, [x0]
	cbz	w0, .L343
	ldr	w0, [x21, 8]
	sub	w1, w0, #1
	str	w1, [x21, 8]
.L344:
	cmp	w0, 1
	beq	.L379
.L342:
	mov	x0, x19
	mov	x1, 520
	ldp	x19, x20, [sp, 16]
	ldp	x21, x22, [sp, 32]
	ldp	x23, x24, [sp, 48]
	ldp	x29, x30, [sp], 64
	.cfi_remember_state
	.cfi_restore 30
	.cfi_restore 29
	.cfi_restore 23
	.cfi_restore 24
	.cfi_restore 21
	.cfi_restore 22
	.cfi_restore 19
	.cfi_restore 20
	.cfi_def_cfa_offset 0
	b	_ZdlPvm
	.p2align 2,,3
.L233:
	.cfi_restore_state
	add	x1, x21, 8
	mov	w0, -1
	bl	__aarch64_ldadd4_acq_rel
	b	.L234
	.p2align 2,,3
.L243:
	add	x1, x21, 8
	mov	w0, -1
	bl	__aarch64_ldadd4_acq_rel
	b	.L244
	.p2align 2,,3
.L246:
	add	x1, x21, 12
	mov	w0, -1
	bl	__aarch64_ldadd4_acq_rel
	b	.L247
	.p2align 2,,3
.L236:
	add	x1, x21, 12
	mov	w0, -1
	bl	__aarch64_ldadd4_acq_rel
	b	.L237
	.p2align 2,,3
.L366:
	ldr	x1, [x21]
	mov	x0, x21
	ldr	x1, [x1, 16]
	blr	x1
	ldr	x20, [x20, #:got_lo12:__libc_single_threaded]
	ldrb	w0, [x20]
	cbz	w0, .L255
	ldr	w0, [x21, 12]
	sub	w1, w0, #1
	str	w1, [x21, 12]
.L256:
	cmp	w0, 1
	bne	.L251
	ldr	x1, [x21]
	mov	x0, x21
	ldr	x1, [x1, 24]
	blr	x1
	b	.L251
	.p2align 2,,3
.L367:
	ldr	x1, [x21]
	mov	x0, x21
	ldr	x1, [x1, 16]
	blr	x1
	ldr	x20, [x20, #:got_lo12:__libc_single_threaded]
	ldrb	w0, [x20]
	cbz	w0, .L262
	ldr	w0, [x21, 12]
	sub	w1, w0, #1
	str	w1, [x21, 12]
.L263:
	cmp	w0, 1
	bne	.L258
	ldr	x1, [x21]
	mov	x0, x21
	ldr	x1, [x1, 24]
	blr	x1
	b	.L258
	.p2align 2,,3
.L368:
	ldr	x1, [x21]
	mov	x0, x21
	ldr	x1, [x1, 16]
	blr	x1
	ldr	x20, [x20, #:got_lo12:__libc_single_threaded]
	ldrb	w0, [x20]
	cbz	w0, .L269
	ldr	w0, [x21, 12]
	sub	w1, w0, #1
	str	w1, [x21, 12]
.L270:
	cmp	w0, 1
	bne	.L265
	ldr	x1, [x21]
	mov	x0, x21
	ldr	x1, [x1, 24]
	blr	x1
	b	.L265
	.p2align 2,,3
.L369:
	ldr	x1, [x21]
	mov	x0, x21
	ldr	x1, [x1, 16]
	blr	x1
	ldr	x20, [x20, #:got_lo12:__libc_single_threaded]
	ldrb	w0, [x20]
	cbz	w0, .L276
	ldr	w0, [x21, 12]
	sub	w1, w0, #1
	str	w1, [x21, 12]
.L277:
	cmp	w0, 1
	bne	.L272
	ldr	x1, [x21]
	mov	x0, x21
	ldr	x1, [x1, 24]
	blr	x1
	b	.L272
	.p2align 2,,3
.L370:
	ldr	x1, [x21]
	mov	x0, x21
	ldr	x1, [x1, 16]
	blr	x1
	ldr	x20, [x20, #:got_lo12:__libc_single_threaded]
	ldrb	w0, [x20]
	cbz	w0, .L283
	ldr	w0, [x21, 12]
	sub	w1, w0, #1
	str	w1, [x21, 12]
.L284:
	cmp	w0, 1
	bne	.L279
	ldr	x1, [x21]
	mov	x0, x21
	ldr	x1, [x1, 24]
	blr	x1
	b	.L279
	.p2align 2,,3
.L374:
	ldr	x1, [x21]
	mov	x0, x21
	ldr	x1, [x1, 16]
	blr	x1
	ldr	x20, [x20, #:got_lo12:__libc_single_threaded]
	ldrb	w0, [x20]
	cbz	w0, .L311
	ldr	w0, [x21, 12]
	sub	w1, w0, #1
	str	w1, [x21, 12]
.L312:
	cmp	w0, 1
	bne	.L307
	ldr	x1, [x21]
	mov	x0, x21
	ldr	x1, [x1, 24]
	blr	x1
	b	.L307
	.p2align 2,,3
.L372:
	ldr	x1, [x21]
	mov	x0, x21
	ldr	x1, [x1, 16]
	blr	x1
	ldr	x20, [x20, #:got_lo12:__libc_single_threaded]
	ldrb	w0, [x20]
	cbz	w0, .L297
	ldr	w0, [x21, 12]
	sub	w1, w0, #1
	str	w1, [x21, 12]
.L298:
	cmp	w0, 1
	bne	.L293
	ldr	x1, [x21]
	mov	x0, x21
	ldr	x1, [x1, 24]
	blr	x1
	b	.L293
	.p2align 2,,3
.L376:
	ldr	x1, [x21]
	mov	x0, x21
	ldr	x1, [x1, 16]
	blr	x1
	ldr	x20, [x20, #:got_lo12:__libc_single_threaded]
	ldrb	w0, [x20]
	cbz	w0, .L325
	ldr	w0, [x21, 12]
	sub	w1, w0, #1
	str	w1, [x21, 12]
.L326:
	cmp	w0, 1
	bne	.L321
	ldr	x1, [x21]
	mov	x0, x21
	ldr	x1, [x1, 24]
	blr	x1
	b	.L321
	.p2align 2,,3
.L371:
	ldr	x1, [x21]
	mov	x0, x21
	ldr	x1, [x1, 16]
	blr	x1
	ldr	x20, [x20, #:got_lo12:__libc_single_threaded]
	ldrb	w0, [x20]
	cbz	w0, .L290
	ldr	w0, [x21, 12]
	sub	w1, w0, #1
	str	w1, [x21, 12]
.L291:
	cmp	w0, 1
	bne	.L286
	ldr	x1, [x21]
	mov	x0, x21
	ldr	x1, [x1, 24]
	blr	x1
	b	.L286
	.p2align 2,,3
.L375:
	ldr	x1, [x21]
	mov	x0, x21
	ldr	x1, [x1, 16]
	blr	x1
	ldr	x20, [x20, #:got_lo12:__libc_single_threaded]
	ldrb	w0, [x20]
	cbz	w0, .L318
	ldr	w0, [x21, 12]
	sub	w1, w0, #1
	str	w1, [x21, 12]
.L319:
	cmp	w0, 1
	bne	.L314
	ldr	x1, [x21]
	mov	x0, x21
	ldr	x1, [x1, 24]
	blr	x1
	b	.L314
	.p2align 2,,3
.L373:
	ldr	x1, [x21]
	mov	x0, x21
	ldr	x1, [x1, 16]
	blr	x1
	ldr	x20, [x20, #:got_lo12:__libc_single_threaded]
	ldrb	w0, [x20]
	cbz	w0, .L304
	ldr	w0, [x21, 12]
	sub	w1, w0, #1
	str	w1, [x21, 12]
.L305:
	cmp	w0, 1
	bne	.L300
	ldr	x1, [x21]
	mov	x0, x21
	ldr	x1, [x1, 24]
	blr	x1
	b	.L300
	.p2align 2,,3
.L377:
	ldr	x1, [x21]
	mov	x0, x21
	ldr	x1, [x1, 16]
	blr	x1
	ldr	x20, [x20, #:got_lo12:__libc_single_threaded]
	ldrb	w0, [x20]
	cbz	w0, .L332
	ldr	w0, [x21, 12]
	sub	w1, w0, #1
	str	w1, [x21, 12]
.L333:
	cmp	w0, 1
	bne	.L328
	ldr	x1, [x21]
	mov	x0, x21
	ldr	x1, [x1, 24]
	blr	x1
	b	.L328
	.p2align 2,,3
.L378:
	ldr	x1, [x21]
	mov	x0, x21
	ldr	x1, [x1, 16]
	blr	x1
	ldr	x20, [x20, #:got_lo12:__libc_single_threaded]
	ldrb	w0, [x20]
	cbz	w0, .L339
	ldr	w0, [x21, 12]
	sub	w1, w0, #1
	str	w1, [x21, 12]
.L340:
	cmp	w0, 1
	bne	.L335
	ldr	x1, [x21]
	mov	x0, x21
	ldr	x1, [x1, 24]
	blr	x1
	b	.L335
	.p2align 2,,3
.L379:
	ldr	x1, [x21]
	mov	x0, x21
	ldr	x1, [x1, 16]
	blr	x1
	ldr	x20, [x20, #:got_lo12:__libc_single_threaded]
	ldrb	w0, [x20]
	cbz	w0, .L346
	ldr	w0, [x21, 12]
	sub	w1, w0, #1
	str	w1, [x21, 12]
.L347:
	cmp	w0, 1
	bne	.L342
	ldr	x1, [x21]
	mov	x0, x21
	ldr	x1, [x1, 24]
	blr	x1
	b	.L342
	.p2align 2,,3
.L329:
	add	x1, x21, 8
	mov	w0, -1
	bl	__aarch64_ldadd4_acq_rel
	b	.L330
	.p2align 2,,3
.L301:
	add	x1, x21, 8
	mov	w0, -1
	bl	__aarch64_ldadd4_acq_rel
	b	.L302
	.p2align 2,,3
.L308:
	add	x1, x21, 8
	mov	w0, -1
	bl	__aarch64_ldadd4_acq_rel
	b	.L309
	.p2align 2,,3
.L315:
	add	x1, x21, 8
	mov	w0, -1
	bl	__aarch64_ldadd4_acq_rel
	b	.L316
	.p2align 2,,3
.L322:
	add	x1, x21, 8
	mov	w0, -1
	bl	__aarch64_ldadd4_acq_rel
	b	.L323
	.p2align 2,,3
.L287:
	add	x1, x21, 8
	mov	w0, -1
	bl	__aarch64_ldadd4_acq_rel
	b	.L288
	.p2align 2,,3
.L294:
	add	x1, x21, 8
	mov	w0, -1
	bl	__aarch64_ldadd4_acq_rel
	b	.L295
	.p2align 2,,3
.L273:
	add	x1, x21, 8
	mov	w0, -1
	bl	__aarch64_ldadd4_acq_rel
	b	.L274
	.p2align 2,,3
.L280:
	add	x1, x21, 8
	mov	w0, -1
	bl	__aarch64_ldadd4_acq_rel
	b	.L281
	.p2align 2,,3
.L343:
	add	x1, x21, 8
	mov	w0, -1
	bl	__aarch64_ldadd4_acq_rel
	b	.L344
	.p2align 2,,3
.L252:
	add	x1, x21, 8
	mov	w0, -1
	bl	__aarch64_ldadd4_acq_rel
	b	.L253
	.p2align 2,,3
.L259:
	add	x1, x21, 8
	mov	w0, -1
	bl	__aarch64_ldadd4_acq_rel
	b	.L260
	.p2align 2,,3
.L266:
	add	x1, x21, 8
	mov	w0, -1
	bl	__aarch64_ldadd4_acq_rel
	b	.L267
	.p2align 2,,3
.L336:
	add	x1, x21, 8
	mov	w0, -1
	bl	__aarch64_ldadd4_acq_rel
	b	.L337
.L255:
	add	x1, x21, 12
	mov	w0, -1
	bl	__aarch64_ldadd4_acq_rel
	b	.L256
.L346:
	add	x1, x21, 12
	mov	w0, -1
	bl	__aarch64_ldadd4_acq_rel
	b	.L347
.L262:
	add	x1, x21, 12
	mov	w0, -1
	bl	__aarch64_ldadd4_acq_rel
	b	.L263
.L269:
	add	x1, x21, 12
	mov	w0, -1
	bl	__aarch64_ldadd4_acq_rel
	b	.L270
.L332:
	add	x1, x21, 12
	mov	w0, -1
	bl	__aarch64_ldadd4_acq_rel
	b	.L333
.L339:
	add	x1, x21, 12
	mov	w0, -1
	bl	__aarch64_ldadd4_acq_rel
	b	.L340
.L276:
	add	x1, x21, 12
	mov	w0, -1
	bl	__aarch64_ldadd4_acq_rel
	b	.L277
.L325:
	add	x1, x21, 12
	mov	w0, -1
	bl	__aarch64_ldadd4_acq_rel
	b	.L326
.L311:
	add	x1, x21, 12
	mov	w0, -1
	bl	__aarch64_ldadd4_acq_rel
	b	.L312
.L318:
	add	x1, x21, 12
	mov	w0, -1
	bl	__aarch64_ldadd4_acq_rel
	b	.L319
.L283:
	add	x1, x21, 12
	mov	w0, -1
	bl	__aarch64_ldadd4_acq_rel
	b	.L284
.L290:
	add	x1, x21, 12
	mov	w0, -1
	bl	__aarch64_ldadd4_acq_rel
	b	.L291
.L297:
	add	x1, x21, 12
	mov	w0, -1
	bl	__aarch64_ldadd4_acq_rel
	b	.L298
.L304:
	add	x1, x21, 12
	mov	w0, -1
	bl	__aarch64_ldadd4_acq_rel
	b	.L305
	.cfi_endproc
.LFE5115:
	.size	_ZN8opendnp38MContextD0Ev, .-_ZN8opendnp38MContextD0Ev
	.section	.text._ZN8opendnp38MContextD2Ev,"axG",@progbits,_ZN8opendnp38MContextD5Ev,comdat
	.align	2
	.p2align 4,,11
	.weak	_ZN8opendnp38MContextD2Ev
	.type	_ZN8opendnp38MContextD2Ev, %function
_ZN8opendnp38MContextD2Ev:
.LFB5113:
	.cfi_startproc
	stp	x29, x30, [sp, -64]!
	.cfi_def_cfa_offset 64
	.cfi_offset 29, -64
	.cfi_offset 30, -56
	adrp	x1, :got:_ZTVN8opendnp38MContextE
	adrp	x2, :got:_ZTVN7openpal5ArrayIhjEE
	mov	x29, sp
	ldr	x1, [x1, #:got_lo12:_ZTVN8opendnp38MContextE]
	stp	x19, x20, [sp, 16]
	.cfi_offset 19, -48
	.cfi_offset 20, -40
	mov	x20, x0
	ldr	x2, [x2, #:got_lo12:_ZTVN7openpal5ArrayIhjEE]
	stp	x21, x22, [sp, 32]
	add	x4, x1, 16
	ldr	x0, [x0, 504]
	stp	x23, x24, [sp, 48]
	.cfi_offset 21, -32
	.cfi_offset 22, -24
	.cfi_offset 23, -16
	.cfi_offset 24, -8
	add	x3, x1, 128
	add	x2, x2, 16
	add	x1, x1, 152
	stp	x4, x3, [x20]
	str	x1, [x20, 16]
	str	x2, [x20, 488]
	cbz	x0, .L381
	bl	_ZdaPv
.L381:
	ldr	x0, [x20, 408]
	add	x22, x20, 408
	cbz	x0, .L382
	ldr	x21, [x22, 72]
	ldr	x19, [x22, 40]
	add	x21, x21, 8
	cmp	x19, x21
	bcs	.L383
	.p2align 3,,7
.L384:
	ldr	x0, [x19], 8
	mov	x1, 510
	bl	_ZdlPvm
	cmp	x21, x19
	bhi	.L384
	ldr	x0, [x20, 408]
.L383:
	ldr	x1, [x22, 8]
	lsl	x1, x1, 3
	bl	_ZdlPvm
.L382:
	ldr	x19, [x20, 384]
	add	x24, x20, 384
	ldr	x22, [x24, 8]
	cmp	x19, x22
	beq	.L385
	adrp	x23, :got:__libc_single_threaded
	ldr	x23, [x23, #:got_lo12:__libc_single_threaded]
	b	.L393
	.p2align 2,,3
.L387:
	add	x19, x19, 16
	cmp	x22, x19
	beq	.L519
.L393:
	ldr	x21, [x19, 8]
	cbz	x21, .L387
	ldrb	w0, [x23]
	cbz	w0, .L388
	ldr	w0, [x21, 8]
	sub	w1, w0, #1
	str	w1, [x21, 8]
.L389:
	cmp	w0, 1
	bne	.L387
	ldr	x1, [x21]
	mov	x0, x21
	ldr	x1, [x1, 16]
	blr	x1
	ldrb	w0, [x23]
	cbz	w0, .L391
	ldr	w0, [x21, 12]
	sub	w1, w0, #1
	str	w1, [x21, 12]
.L392:
	cmp	w0, 1
	bne	.L387
	ldr	x1, [x21]
	mov	x0, x21
	add	x19, x19, 16
	ldr	x1, [x1, 24]
	blr	x1
	cmp	x22, x19
	bne	.L393
	.p2align 3,,7
.L519:
	ldr	x22, [x20, 384]
.L385:
	cbz	x22, .L394
	ldr	x1, [x24, 16]
	mov	x0, x22
	sub	x1, x1, x22
	bl	_ZdlPvm
.L394:
	ldr	x19, [x20, 352]
	add	x24, x20, 352
	ldr	x22, [x24, 8]
	cmp	x19, x22
	beq	.L395
	adrp	x23, :got:__libc_single_threaded
	ldr	x23, [x23, #:got_lo12:__libc_single_threaded]
	b	.L403
	.p2align 2,,3
.L397:
	add	x19, x19, 16
	cmp	x22, x19
	beq	.L520
.L403:
	ldr	x21, [x19, 8]
	cbz	x21, .L397
	ldrb	w0, [x23]
	cbz	w0, .L398
	ldr	w0, [x21, 8]
	sub	w1, w0, #1
	str	w1, [x21, 8]
.L399:
	cmp	w0, 1
	bne	.L397
	ldr	x1, [x21]
	mov	x0, x21
	ldr	x1, [x1, 16]
	blr	x1
	ldrb	w0, [x23]
	cbz	w0, .L401
	ldr	w0, [x21, 12]
	sub	w1, w0, #1
	str	w1, [x21, 12]
.L402:
	cmp	w0, 1
	bne	.L397
	ldr	x1, [x21]
	mov	x0, x21
	add	x19, x19, 16
	ldr	x1, [x1, 24]
	blr	x1
	cmp	x22, x19
	bne	.L403
	.p2align 3,,7
.L520:
	ldr	x22, [x20, 352]
.L395:
	cbz	x22, .L404
	ldr	x1, [x24, 16]
	mov	x0, x22
	sub	x1, x1, x22
	bl	_ZdlPvm
.L404:
	ldr	x21, [x20, 344]
	cbz	x21, .L406
	adrp	x19, :got:__libc_single_threaded
	ldr	x0, [x19, #:got_lo12:__libc_single_threaded]
	ldrb	w0, [x0]
	cbz	w0, .L407
	ldr	w0, [x21, 8]
	sub	w1, w0, #1
	str	w1, [x21, 8]
.L408:
	cmp	w0, 1
	beq	.L521
.L406:
	ldr	x21, [x20, 328]
	cbz	x21, .L413
	adrp	x19, :got:__libc_single_threaded
	ldr	x0, [x19, #:got_lo12:__libc_single_threaded]
	ldrb	w0, [x0]
	cbz	w0, .L414
	ldr	w0, [x21, 8]
	sub	w1, w0, #1
	str	w1, [x21, 8]
.L415:
	cmp	w0, 1
	beq	.L522
.L413:
	ldr	x21, [x20, 312]
	cbz	x21, .L420
	adrp	x19, :got:__libc_single_threaded
	ldr	x0, [x19, #:got_lo12:__libc_single_threaded]
	ldrb	w0, [x0]
	cbz	w0, .L421
	ldr	w0, [x21, 8]
	sub	w1, w0, #1
	str	w1, [x21, 8]
.L422:
	cmp	w0, 1
	beq	.L523
.L420:
	ldr	x21, [x20, 296]
	cbz	x21, .L427
	adrp	x19, :got:__libc_single_threaded
	ldr	x0, [x19, #:got_lo12:__libc_single_threaded]
	ldrb	w0, [x0]
	cbz	w0, .L428
	ldr	w0, [x21, 8]
	sub	w1, w0, #1
	str	w1, [x21, 8]
.L429:
	cmp	w0, 1
	beq	.L524
.L427:
	ldr	x21, [x20, 280]
	cbz	x21, .L434
	adrp	x19, :got:__libc_single_threaded
	ldr	x0, [x19, #:got_lo12:__libc_single_threaded]
	ldrb	w0, [x0]
	cbz	w0, .L435
	ldr	w0, [x21, 8]
	sub	w1, w0, #1
	str	w1, [x21, 8]
.L436:
	cmp	w0, 1
	beq	.L525
.L434:
	ldr	x21, [x20, 264]
	cbz	x21, .L441
	adrp	x19, :got:__libc_single_threaded
	ldr	x0, [x19, #:got_lo12:__libc_single_threaded]
	ldrb	w0, [x0]
	cbz	w0, .L442
	ldr	w0, [x21, 8]
	sub	w1, w0, #1
	str	w1, [x21, 8]
.L443:
	cmp	w0, 1
	beq	.L526
.L441:
	ldr	x21, [x20, 248]
	cbz	x21, .L448
	adrp	x19, :got:__libc_single_threaded
	ldr	x0, [x19, #:got_lo12:__libc_single_threaded]
	ldrb	w0, [x0]
	cbz	w0, .L449
	ldr	w0, [x21, 8]
	sub	w1, w0, #1
	str	w1, [x21, 8]
.L450:
	cmp	w0, 1
	beq	.L527
.L448:
	add	x0, x20, 224
	bl	_ZN7openpal8TimerRefD1Ev
	add	x0, x20, 208
	bl	_ZN7openpal8TimerRefD1Ev
	add	x0, x20, 192
	bl	_ZN7openpal8TimerRefD1Ev
	ldr	x21, [x20, 184]
	cbz	x21, .L455
	adrp	x19, :got:__libc_single_threaded
	ldr	x0, [x19, #:got_lo12:__libc_single_threaded]
	ldrb	w0, [x0]
	cbz	w0, .L456
	ldr	w0, [x21, 8]
	sub	w1, w0, #1
	str	w1, [x21, 8]
.L457:
	cmp	w0, 1
	beq	.L528
.L455:
	ldr	x21, [x20, 152]
	cbz	x21, .L462
	adrp	x19, :got:__libc_single_threaded
	ldr	x0, [x19, #:got_lo12:__libc_single_threaded]
	ldrb	w0, [x0]
	cbz	w0, .L463
	ldr	w0, [x21, 8]
	sub	w1, w0, #1
	str	w1, [x21, 8]
.L464:
	cmp	w0, 1
	beq	.L529
.L462:
	ldr	x21, [x20, 136]
	cbz	x21, .L469
	adrp	x19, :got:__libc_single_threaded
	ldr	x0, [x19, #:got_lo12:__libc_single_threaded]
	ldrb	w0, [x0]
	cbz	w0, .L470
	ldr	w0, [x21, 8]
	sub	w1, w0, #1
	str	w1, [x21, 8]
.L471:
	cmp	w0, 1
	beq	.L530
.L469:
	ldr	x21, [x20, 80]
	cbz	x21, .L476
	adrp	x19, :got:__libc_single_threaded
	ldr	x0, [x19, #:got_lo12:__libc_single_threaded]
	ldrb	w0, [x0]
	cbz	w0, .L477
	ldr	w0, [x21, 8]
	sub	w1, w0, #1
	str	w1, [x21, 8]
.L478:
	cmp	w0, 1
	beq	.L531
.L476:
	ldr	x21, [x20, 64]
	cbz	x21, .L483
	adrp	x19, :got:__libc_single_threaded
	ldr	x0, [x19, #:got_lo12:__libc_single_threaded]
	ldrb	w0, [x0]
	cbz	w0, .L484
	ldr	w0, [x21, 8]
	sub	w1, w0, #1
	str	w1, [x21, 8]
.L485:
	cmp	w0, 1
	beq	.L532
.L483:
	ldr	x21, [x20, 48]
	cbz	x21, .L490
	adrp	x19, :got:__libc_single_threaded
	ldr	x0, [x19, #:got_lo12:__libc_single_threaded]
	ldrb	w0, [x0]
	cbz	w0, .L491
	ldr	w0, [x21, 8]
	sub	w1, w0, #1
	str	w1, [x21, 8]
.L492:
	cmp	w0, 1
	beq	.L533
.L490:
	ldr	x20, [x20, 32]
	cbz	x20, .L380
	adrp	x19, :got:__libc_single_threaded
	ldr	x0, [x19, #:got_lo12:__libc_single_threaded]
	ldrb	w0, [x0]
	cbz	w0, .L498
	ldr	w0, [x20, 8]
	sub	w1, w0, #1
	str	w1, [x20, 8]
.L499:
	cmp	w0, 1
	beq	.L534
.L380:
	ldp	x19, x20, [sp, 16]
	ldp	x21, x22, [sp, 32]
	ldp	x23, x24, [sp, 48]
	ldp	x29, x30, [sp], 64
	.cfi_remember_state
	.cfi_restore 30
	.cfi_restore 29
	.cfi_restore 23
	.cfi_restore 24
	.cfi_restore 21
	.cfi_restore 22
	.cfi_restore 19
	.cfi_restore 20
	.cfi_def_cfa_offset 0
	ret
	.p2align 2,,3
.L388:
	.cfi_restore_state
	add	x1, x21, 8
	mov	w0, -1
	bl	__aarch64_ldadd4_acq_rel
	b	.L389
	.p2align 2,,3
.L398:
	add	x1, x21, 8
	mov	w0, -1
	bl	__aarch64_ldadd4_acq_rel
	b	.L399
	.p2align 2,,3
.L401:
	add	x1, x21, 12
	mov	w0, -1
	bl	__aarch64_ldadd4_acq_rel
	b	.L402
	.p2align 2,,3
.L391:
	add	x1, x21, 12
	mov	w0, -1
	bl	__aarch64_ldadd4_acq_rel
	b	.L392
	.p2align 2,,3
.L521:
	ldr	x1, [x21]
	mov	x0, x21
	ldr	x1, [x1, 16]
	blr	x1
	ldr	x19, [x19, #:got_lo12:__libc_single_threaded]
	ldrb	w0, [x19]
	cbz	w0, .L410
	ldr	w0, [x21, 12]
	sub	w1, w0, #1
	str	w1, [x21, 12]
.L411:
	cmp	w0, 1
	bne	.L406
	ldr	x1, [x21]
	mov	x0, x21
	ldr	x1, [x1, 24]
	blr	x1
	b	.L406
	.p2align 2,,3
.L522:
	ldr	x1, [x21]
	mov	x0, x21
	ldr	x1, [x1, 16]
	blr	x1
	ldr	x19, [x19, #:got_lo12:__libc_single_threaded]
	ldrb	w0, [x19]
	cbz	w0, .L417
	ldr	w0, [x21, 12]
	sub	w1, w0, #1
	str	w1, [x21, 12]
.L418:
	cmp	w0, 1
	bne	.L413
	ldr	x1, [x21]
	mov	x0, x21
	ldr	x1, [x1, 24]
	blr	x1
	b	.L413
	.p2align 2,,3
.L523:
	ldr	x1, [x21]
	mov	x0, x21
	ldr	x1, [x1, 16]
	blr	x1
	ldr	x19, [x19, #:got_lo12:__libc_single_threaded]
	ldrb	w0, [x19]
	cbz	w0, .L424
	ldr	w0, [x21, 12]
	sub	w1, w0, #1
	str	w1, [x21, 12]
.L425:
	cmp	w0, 1
	bne	.L420
	ldr	x1, [x21]
	mov	x0, x21
	ldr	x1, [x1, 24]
	blr	x1
	b	.L420
	.p2align 2,,3
.L524:
	ldr	x1, [x21]
	mov	x0, x21
	ldr	x1, [x1, 16]
	blr	x1
	ldr	x19, [x19, #:got_lo12:__libc_single_threaded]
	ldrb	w0, [x19]
	cbz	w0, .L431
	ldr	w0, [x21, 12]
	sub	w1, w0, #1
	str	w1, [x21, 12]
.L432:
	cmp	w0, 1
	bne	.L427
	ldr	x1, [x21]
	mov	x0, x21
	ldr	x1, [x1, 24]
	blr	x1
	b	.L427
	.p2align 2,,3
.L525:
	ldr	x1, [x21]
	mov	x0, x21
	ldr	x1, [x1, 16]
	blr	x1
	ldr	x19, [x19, #:got_lo12:__libc_single_threaded]
	ldrb	w0, [x19]
	cbz	w0, .L438
	ldr	w0, [x21, 12]
	sub	w1, w0, #1
	str	w1, [x21, 12]
.L439:
	cmp	w0, 1
	bne	.L434
	ldr	x1, [x21]
	mov	x0, x21
	ldr	x1, [x1, 24]
	blr	x1
	b	.L434
	.p2align 2,,3
.L529:
	ldr	x1, [x21]
	mov	x0, x21
	ldr	x1, [x1, 16]
	blr	x1
	ldr	x19, [x19, #:got_lo12:__libc_single_threaded]
	ldrb	w0, [x19]
	cbz	w0, .L466
	ldr	w0, [x21, 12]
	sub	w1, w0, #1
	str	w1, [x21, 12]
.L467:
	cmp	w0, 1
	bne	.L462
	ldr	x1, [x21]
	mov	x0, x21
	ldr	x1, [x1, 24]
	blr	x1
	b	.L462
	.p2align 2,,3
.L527:
	ldr	x1, [x21]
	mov	x0, x21
	ldr	x1, [x1, 16]
	blr	x1
	ldr	x19, [x19, #:got_lo12:__libc_single_threaded]
	ldrb	w0, [x19]
	cbz	w0, .L452
	ldr	w0, [x21, 12]
	sub	w1, w0, #1
	str	w1, [x21, 12]
.L453:
	cmp	w0, 1
	bne	.L448
	ldr	x1, [x21]
	mov	x0, x21
	ldr	x1, [x1, 24]
	blr	x1
	b	.L448
	.p2align 2,,3
.L531:
	ldr	x1, [x21]
	mov	x0, x21
	ldr	x1, [x1, 16]
	blr	x1
	ldr	x19, [x19, #:got_lo12:__libc_single_threaded]
	ldrb	w0, [x19]
	cbz	w0, .L480
	ldr	w0, [x21, 12]
	sub	w1, w0, #1
	str	w1, [x21, 12]
.L481:
	cmp	w0, 1
	bne	.L476
	ldr	x1, [x21]
	mov	x0, x21
	ldr	x1, [x1, 24]
	blr	x1
	b	.L476
	.p2align 2,,3
.L526:
	ldr	x1, [x21]
	mov	x0, x21
	ldr	x1, [x1, 16]
	blr	x1
	ldr	x19, [x19, #:got_lo12:__libc_single_threaded]
	ldrb	w0, [x19]
	cbz	w0, .L445
	ldr	w0, [x21, 12]
	sub	w1, w0, #1
	str	w1, [x21, 12]
.L446:
	cmp	w0, 1
	bne	.L441
	ldr	x1, [x21]
	mov	x0, x21
	ldr	x1, [x1, 24]
	blr	x1
	b	.L441
	.p2align 2,,3
.L530:
	ldr	x1, [x21]
	mov	x0, x21
	ldr	x1, [x1, 16]
	blr	x1
	ldr	x19, [x19, #:got_lo12:__libc_single_threaded]
	ldrb	w0, [x19]
	cbz	w0, .L473
	ldr	w0, [x21, 12]
	sub	w1, w0, #1
	str	w1, [x21, 12]
.L474:
	cmp	w0, 1
	bne	.L469
	ldr	x1, [x21]
	mov	x0, x21
	ldr	x1, [x1, 24]
	blr	x1
	b	.L469
	.p2align 2,,3
.L528:
	ldr	x1, [x21]
	mov	x0, x21
	ldr	x1, [x1, 16]
	blr	x1
	ldr	x19, [x19, #:got_lo12:__libc_single_threaded]
	ldrb	w0, [x19]
	cbz	w0, .L459
	ldr	w0, [x21, 12]
	sub	w1, w0, #1
	str	w1, [x21, 12]
.L460:
	cmp	w0, 1
	bne	.L455
	ldr	x1, [x21]
	mov	x0, x21
	ldr	x1, [x1, 24]
	blr	x1
	b	.L455
	.p2align 2,,3
.L532:
	ldr	x1, [x21]
	mov	x0, x21
	ldr	x1, [x1, 16]
	blr	x1
	ldr	x19, [x19, #:got_lo12:__libc_single_threaded]
	ldrb	w0, [x19]
	cbz	w0, .L487
	ldr	w0, [x21, 12]
	sub	w1, w0, #1
	str	w1, [x21, 12]
.L488:
	cmp	w0, 1
	bne	.L483
	ldr	x1, [x21]
	mov	x0, x21
	ldr	x1, [x1, 24]
	blr	x1
	b	.L483
	.p2align 2,,3
.L533:
	ldr	x1, [x21]
	mov	x0, x21
	ldr	x1, [x1, 16]
	blr	x1
	ldr	x19, [x19, #:got_lo12:__libc_single_threaded]
	ldrb	w0, [x19]
	cbz	w0, .L494
	ldr	w0, [x21, 12]
	sub	w1, w0, #1
	str	w1, [x21, 12]
.L495:
	cmp	w0, 1
	bne	.L490
	ldr	x1, [x21]
	mov	x0, x21
	ldr	x1, [x1, 24]
	blr	x1
	b	.L490
	.p2align 2,,3
.L534:
	ldr	x1, [x20]
	mov	x0, x20
	ldr	x1, [x1, 16]
	blr	x1
	ldr	x19, [x19, #:got_lo12:__libc_single_threaded]
	ldrb	w0, [x19]
	cbz	w0, .L501
	ldr	w0, [x20, 12]
	sub	w1, w0, #1
	str	w1, [x20, 12]
.L502:
	cmp	w0, 1
	bne	.L380
	ldr	x1, [x20]
	mov	x0, x20
	ldp	x19, x20, [sp, 16]
	ldp	x21, x22, [sp, 32]
	ldp	x23, x24, [sp, 48]
	ldp	x29, x30, [sp], 64
	.cfi_remember_state
	.cfi_restore 30
	.cfi_restore 29
	.cfi_restore 23
	.cfi_restore 24
	.cfi_restore 21
	.cfi_restore 22
	.cfi_restore 19
	.cfi_restore 20
	.cfi_def_cfa_offset 0
	ldr	x1, [x1, 24]
	mov	x16, x1
	br	x16
	.p2align 2,,3
.L484:
	.cfi_restore_state
	add	x1, x21, 8
	mov	w0, -1
	bl	__aarch64_ldadd4_acq_rel
	b	.L485
	.p2align 2,,3
.L456:
	add	x1, x21, 8
	mov	w0, -1
	bl	__aarch64_ldadd4_acq_rel
	b	.L457
	.p2align 2,,3
.L463:
	add	x1, x21, 8
	mov	w0, -1
	bl	__aarch64_ldadd4_acq_rel
	b	.L464
	.p2align 2,,3
.L470:
	add	x1, x21, 8
	mov	w0, -1
	bl	__aarch64_ldadd4_acq_rel
	b	.L471
	.p2align 2,,3
.L477:
	add	x1, x21, 8
	mov	w0, -1
	bl	__aarch64_ldadd4_acq_rel
	b	.L478
	.p2align 2,,3
.L442:
	add	x1, x21, 8
	mov	w0, -1
	bl	__aarch64_ldadd4_acq_rel
	b	.L443
	.p2align 2,,3
.L449:
	add	x1, x21, 8
	mov	w0, -1
	bl	__aarch64_ldadd4_acq_rel
	b	.L450
	.p2align 2,,3
.L428:
	add	x1, x21, 8
	mov	w0, -1
	bl	__aarch64_ldadd4_acq_rel
	b	.L429
	.p2align 2,,3
.L435:
	add	x1, x21, 8
	mov	w0, -1
	bl	__aarch64_ldadd4_acq_rel
	b	.L436
	.p2align 2,,3
.L498:
	add	x1, x20, 8
	mov	w0, -1
	bl	__aarch64_ldadd4_acq_rel
	b	.L499
	.p2align 2,,3
.L407:
	add	x1, x21, 8
	mov	w0, -1
	bl	__aarch64_ldadd4_acq_rel
	b	.L408
	.p2align 2,,3
.L414:
	add	x1, x21, 8
	mov	w0, -1
	bl	__aarch64_ldadd4_acq_rel
	b	.L415
	.p2align 2,,3
.L421:
	add	x1, x21, 8
	mov	w0, -1
	bl	__aarch64_ldadd4_acq_rel
	b	.L422
	.p2align 2,,3
.L491:
	add	x1, x21, 8
	mov	w0, -1
	bl	__aarch64_ldadd4_acq_rel
	b	.L492
.L410:
	add	x1, x21, 12
	mov	w0, -1
	bl	__aarch64_ldadd4_acq_rel
	b	.L411
.L501:
	add	x1, x20, 12
	mov	w0, -1
	bl	__aarch64_ldadd4_acq_rel
	b	.L502
.L417:
	add	x1, x21, 12
	mov	w0, -1
	bl	__aarch64_ldadd4_acq_rel
	b	.L418
.L424:
	add	x1, x21, 12
	mov	w0, -1
	bl	__aarch64_ldadd4_acq_rel
	b	.L425
.L487:
	add	x1, x21, 12
	mov	w0, -1
	bl	__aarch64_ldadd4_acq_rel
	b	.L488
.L494:
	add	x1, x21, 12
	mov	w0, -1
	bl	__aarch64_ldadd4_acq_rel
	b	.L495
.L431:
	add	x1, x21, 12
	mov	w0, -1
	bl	__aarch64_ldadd4_acq_rel
	b	.L432
.L480:
	add	x1, x21, 12
	mov	w0, -1
	bl	__aarch64_ldadd4_acq_rel
	b	.L481
.L466:
	add	x1, x21, 12
	mov	w0, -1
	bl	__aarch64_ldadd4_acq_rel
	b	.L467
.L473:
	add	x1, x21, 12
	mov	w0, -1
	bl	__aarch64_ldadd4_acq_rel
	b	.L474
.L438:
	add	x1, x21, 12
	mov	w0, -1
	bl	__aarch64_ldadd4_acq_rel
	b	.L439
.L445:
	add	x1, x21, 12
	mov	w0, -1
	bl	__aarch64_ldadd4_acq_rel
	b	.L446
.L452:
	add	x1, x21, 12
	mov	w0, -1
	bl	__aarch64_ldadd4_acq_rel
	b	.L453
.L459:
	add	x1, x21, 12
	mov	w0, -1
	bl	__aarch64_ldadd4_acq_rel
	b	.L460
	.cfi_endproc
.LFE5113:
	.size	_ZN8opendnp38MContextD2Ev, .-_ZN8opendnp38MContextD2Ev
	.weak	_ZN8opendnp38MContextD1Ev
	.set	_ZN8opendnp38MContextD1Ev,_ZN8opendnp38MContextD2Ev
	.section	.text._ZN7openpal6LoggerD2Ev,"axG",@progbits,_ZN7openpal6LoggerD5Ev,comdat
	.align	2
	.p2align 4,,11
	.weak	_ZN7openpal6LoggerD2Ev
	.type	_ZN7openpal6LoggerD2Ev, %function
_ZN7openpal6LoggerD2Ev:
.LFB2174:
	.cfi_startproc
	stp	x29, x30, [sp, -48]!
	.cfi_def_cfa_offset 48
	.cfi_offset 29, -48
	.cfi_offset 30, -40
	mov	x29, sp
	stp	x19, x20, [sp, 16]
	.cfi_offset 19, -32
	.cfi_offset 20, -24
	mov	x19, x0
	ldr	x20, [x0, 24]
	str	x21, [sp, 32]
	.cfi_offset 21, -16
	cbz	x20, .L537
	adrp	x21, :got:__libc_single_threaded
	ldr	x0, [x21, #:got_lo12:__libc_single_threaded]
	ldrb	w0, [x0]
	cbz	w0, .L538
	ldr	w0, [x20, 8]
	sub	w1, w0, #1
	str	w1, [x20, 8]
.L539:
	cmp	w0, 1
	beq	.L551
.L537:
	ldr	x19, [x19, 8]
	cbz	x19, .L535
	adrp	x21, :got:__libc_single_threaded
	ldr	x0, [x21, #:got_lo12:__libc_single_threaded]
	ldrb	w0, [x0]
	cbz	w0, .L545
	ldr	w0, [x19, 8]
	sub	w1, w0, #1
	str	w1, [x19, 8]
.L546:
	cmp	w0, 1
	beq	.L552
.L535:
	ldp	x19, x20, [sp, 16]
	ldr	x21, [sp, 32]
	ldp	x29, x30, [sp], 48
	.cfi_remember_state
	.cfi_restore 30
	.cfi_restore 29
	.cfi_restore 21
	.cfi_restore 19
	.cfi_restore 20
	.cfi_def_cfa_offset 0
	ret
	.p2align 2,,3
.L551:
	.cfi_restore_state
	ldr	x1, [x20]
	mov	x0, x20
	ldr	x1, [x1, 16]
	blr	x1
	ldr	x21, [x21, #:got_lo12:__libc_single_threaded]
	ldrb	w0, [x21]
	cbz	w0, .L541
	ldr	w0, [x20, 12]
	sub	w1, w0, #1
	str	w1, [x20, 12]
.L542:
	cmp	w0, 1
	bne	.L537
	ldr	x1, [x20]
	mov	x0, x20
	ldr	x1, [x1, 24]
	blr	x1
	b	.L537
	.p2align 2,,3
.L552:
	ldr	x1, [x19]
	mov	x0, x19
	ldr	x1, [x1, 16]
	blr	x1
	ldr	x21, [x21, #:got_lo12:__libc_single_threaded]
	ldrb	w0, [x21]
	cbz	w0, .L548
	ldr	w0, [x19, 12]
	sub	w1, w0, #1
	str	w1, [x19, 12]
.L549:
	cmp	w0, 1
	bne	.L535
	ldr	x1, [x19]
	mov	x0, x19
	ldp	x19, x20, [sp, 16]
	ldr	x21, [sp, 32]
	ldp	x29, x30, [sp], 48
	.cfi_remember_state
	.cfi_restore 30
	.cfi_restore 29
	.cfi_restore 21
	.cfi_restore 19
	.cfi_restore 20
	.cfi_def_cfa_offset 0
	ldr	x1, [x1, 24]
	mov	x16, x1
	br	x16
	.p2align 2,,3
.L545:
	.cfi_restore_state
	add	x1, x19, 8
	mov	w0, -1
	bl	__aarch64_ldadd4_acq_rel
	b	.L546
	.p2align 2,,3
.L538:
	add	x1, x20, 8
	mov	w0, -1
	bl	__aarch64_ldadd4_acq_rel
	b	.L539
	.p2align 2,,3
.L541:
	add	x1, x20, 12
	mov	w0, -1
	bl	__aarch64_ldadd4_acq_rel
	b	.L542
	.p2align 2,,3
.L548:
	add	x1, x19, 12
	mov	w0, -1
	bl	__aarch64_ldadd4_acq_rel
	b	.L549
	.cfi_endproc
.LFE2174:
	.size	_ZN7openpal6LoggerD2Ev, .-_ZN7openpal6LoggerD2Ev
	.weak	_ZN7openpal6LoggerD1Ev
	.set	_ZN7openpal6LoggerD1Ev,_ZN7openpal6LoggerD2Ev
	.section	.text._ZN8opendnp311MasterTasksD2Ev,"axG",@progbits,_ZN8opendnp311MasterTasksD5Ev,comdat
	.align	2
	.p2align 4,,11
	.weak	_ZN8opendnp311MasterTasksD2Ev
	.type	_ZN8opendnp311MasterTasksD2Ev, %function
_ZN8opendnp311MasterTasksD2Ev:
.LFB3464:
	.cfi_startproc
	stp	x29, x30, [sp, -64]!
	.cfi_def_cfa_offset 64
	.cfi_offset 29, -64
	.cfi_offset 30, -56
	mov	x29, sp
	stp	x23, x24, [sp, 48]
	.cfi_offset 23, -16
	.cfi_offset 24, -8
	add	x24, x0, 112
	stp	x19, x20, [sp, 16]
	stp	x21, x22, [sp, 32]
	.cfi_offset 19, -48
	.cfi_offset 20, -40
	.cfi_offset 21, -32
	.cfi_offset 22, -24
	mov	x22, x0
	ldr	x21, [x24, 8]
	ldr	x19, [x0, 112]
	cmp	x19, x21
	beq	.L554
	adrp	x23, :got:__libc_single_threaded
	ldr	x23, [x23, #:got_lo12:__libc_single_threaded]
	b	.L562
	.p2align 2,,3
.L556:
	add	x19, x19, 16
	cmp	x21, x19
	beq	.L618
.L562:
	ldr	x20, [x19, 8]
	cbz	x20, .L556
	ldrb	w0, [x23]
	cbz	w0, .L557
	ldr	w0, [x20, 8]
	sub	w1, w0, #1
	str	w1, [x20, 8]
.L558:
	cmp	w0, 1
	bne	.L556
	ldr	x1, [x20]
	mov	x0, x20
	ldr	x1, [x1, 16]
	blr	x1
	ldrb	w0, [x23]
	cbz	w0, .L560
	ldr	w0, [x20, 12]
	sub	w1, w0, #1
	str	w1, [x20, 12]
.L561:
	cmp	w0, 1
	bne	.L556
	ldr	x1, [x20]
	mov	x0, x20
	add	x19, x19, 16
	ldr	x1, [x1, 24]
	blr	x1
	cmp	x21, x19
	bne	.L562
	.p2align 3,,7
.L618:
	ldr	x21, [x22, 112]
.L554:
	cbz	x21, .L563
	ldr	x1, [x24, 16]
	mov	x0, x21
	sub	x1, x1, x21
	bl	_ZdlPvm
.L563:
	ldr	x20, [x22, 104]
	cbz	x20, .L565
	adrp	x19, :got:__libc_single_threaded
	ldr	x0, [x19, #:got_lo12:__libc_single_threaded]
	ldrb	w0, [x0]
	cbz	w0, .L566
	ldr	w0, [x20, 8]
	sub	w1, w0, #1
	str	w1, [x20, 8]
.L567:
	cmp	w0, 1
	beq	.L619
.L565:
	ldr	x20, [x22, 88]
	cbz	x20, .L572
	adrp	x19, :got:__libc_single_threaded
	ldr	x0, [x19, #:got_lo12:__libc_single_threaded]
	ldrb	w0, [x0]
	cbz	w0, .L573
	ldr	w0, [x20, 8]
	sub	w1, w0, #1
	str	w1, [x20, 8]
.L574:
	cmp	w0, 1
	beq	.L620
.L572:
	ldr	x20, [x22, 72]
	cbz	x20, .L579
	adrp	x19, :got:__libc_single_threaded
	ldr	x0, [x19, #:got_lo12:__libc_single_threaded]
	ldrb	w0, [x0]
	cbz	w0, .L580
	ldr	w0, [x20, 8]
	sub	w1, w0, #1
	str	w1, [x20, 8]
.L581:
	cmp	w0, 1
	beq	.L621
.L579:
	ldr	x20, [x22, 56]
	cbz	x20, .L586
	adrp	x19, :got:__libc_single_threaded
	ldr	x0, [x19, #:got_lo12:__libc_single_threaded]
	ldrb	w0, [x0]
	cbz	w0, .L587
	ldr	w0, [x20, 8]
	sub	w1, w0, #1
	str	w1, [x20, 8]
.L588:
	cmp	w0, 1
	beq	.L622
.L586:
	ldr	x20, [x22, 40]
	cbz	x20, .L593
	adrp	x19, :got:__libc_single_threaded
	ldr	x0, [x19, #:got_lo12:__libc_single_threaded]
	ldrb	w0, [x0]
	cbz	w0, .L594
	ldr	w0, [x20, 8]
	sub	w1, w0, #1
	str	w1, [x20, 8]
.L595:
	cmp	w0, 1
	beq	.L623
.L593:
	ldr	x20, [x22, 24]
	cbz	x20, .L600
	adrp	x19, :got:__libc_single_threaded
	ldr	x0, [x19, #:got_lo12:__libc_single_threaded]
	ldrb	w0, [x0]
	cbz	w0, .L601
	ldr	w0, [x20, 8]
	sub	w1, w0, #1
	str	w1, [x20, 8]
.L602:
	cmp	w0, 1
	beq	.L624
.L600:
	ldr	x20, [x22, 8]
	cbz	x20, .L553
	adrp	x19, :got:__libc_single_threaded
	ldr	x0, [x19, #:got_lo12:__libc_single_threaded]
	ldrb	w0, [x0]
	cbz	w0, .L608
	ldr	w0, [x20, 8]
	sub	w1, w0, #1
	str	w1, [x20, 8]
.L609:
	cmp	w0, 1
	beq	.L625
.L553:
	ldp	x19, x20, [sp, 16]
	ldp	x21, x22, [sp, 32]
	ldp	x23, x24, [sp, 48]
	ldp	x29, x30, [sp], 64
	.cfi_remember_state
	.cfi_restore 30
	.cfi_restore 29
	.cfi_restore 23
	.cfi_restore 24
	.cfi_restore 21
	.cfi_restore 22
	.cfi_restore 19
	.cfi_restore 20
	.cfi_def_cfa_offset 0
	ret
	.p2align 2,,3
.L557:
	.cfi_restore_state
	add	x1, x20, 8
	mov	w0, -1
	bl	__aarch64_ldadd4_acq_rel
	b	.L558
	.p2align 2,,3
.L560:
	add	x1, x20, 12
	mov	w0, -1
	bl	__aarch64_ldadd4_acq_rel
	b	.L561
	.p2align 2,,3
.L619:
	ldr	x1, [x20]
	mov	x0, x20
	ldr	x1, [x1, 16]
	blr	x1
	ldr	x19, [x19, #:got_lo12:__libc_single_threaded]
	ldrb	w0, [x19]
	cbz	w0, .L569
	ldr	w0, [x20, 12]
	sub	w1, w0, #1
	str	w1, [x20, 12]
.L570:
	cmp	w0, 1
	bne	.L565
	ldr	x1, [x20]
	mov	x0, x20
	ldr	x1, [x1, 24]
	blr	x1
	b	.L565
	.p2align 2,,3
.L620:
	ldr	x1, [x20]
	mov	x0, x20
	ldr	x1, [x1, 16]
	blr	x1
	ldr	x19, [x19, #:got_lo12:__libc_single_threaded]
	ldrb	w0, [x19]
	cbz	w0, .L576
	ldr	w0, [x20, 12]
	sub	w1, w0, #1
	str	w1, [x20, 12]
.L577:
	cmp	w0, 1
	bne	.L572
	ldr	x1, [x20]
	mov	x0, x20
	ldr	x1, [x1, 24]
	blr	x1
	b	.L572
	.p2align 2,,3
.L621:
	ldr	x1, [x20]
	mov	x0, x20
	ldr	x1, [x1, 16]
	blr	x1
	ldr	x19, [x19, #:got_lo12:__libc_single_threaded]
	ldrb	w0, [x19]
	cbz	w0, .L583
	ldr	w0, [x20, 12]
	sub	w1, w0, #1
	str	w1, [x20, 12]
.L584:
	cmp	w0, 1
	bne	.L579
	ldr	x1, [x20]
	mov	x0, x20
	ldr	x1, [x1, 24]
	blr	x1
	b	.L579
	.p2align 2,,3
.L623:
	ldr	x1, [x20]
	mov	x0, x20
	ldr	x1, [x1, 16]
	blr	x1
	ldr	x19, [x19, #:got_lo12:__libc_single_threaded]
	ldrb	w0, [x19]
	cbz	w0, .L597
	ldr	w0, [x20, 12]
	sub	w1, w0, #1
	str	w1, [x20, 12]
.L598:
	cmp	w0, 1
	bne	.L593
	ldr	x1, [x20]
	mov	x0, x20
	ldr	x1, [x1, 24]
	blr	x1
	b	.L593
	.p2align 2,,3
.L622:
	ldr	x1, [x20]
	mov	x0, x20
	ldr	x1, [x1, 16]
	blr	x1
	ldr	x19, [x19, #:got_lo12:__libc_single_threaded]
	ldrb	w0, [x19]
	cbz	w0, .L590
	ldr	w0, [x20, 12]
	sub	w1, w0, #1
	str	w1, [x20, 12]
.L591:
	cmp	w0, 1
	bne	.L586
	ldr	x1, [x20]
	mov	x0, x20
	ldr	x1, [x1, 24]
	blr	x1
	b	.L586
	.p2align 2,,3
.L624:
	ldr	x1, [x20]
	mov	x0, x20
	ldr	x1, [x1, 16]
	blr	x1
	ldr	x19, [x19, #:got_lo12:__libc_single_threaded]
	ldrb	w0, [x19]
	cbz	w0, .L604
	ldr	w0, [x20, 12]
	sub	w1, w0, #1
	str	w1, [x20, 12]
.L605:
	cmp	w0, 1
	bne	.L600
	ldr	x1, [x20]
	mov	x0, x20
	ldr	x1, [x1, 24]
	blr	x1
	b	.L600
	.p2align 2,,3
.L625:
	ldr	x1, [x20]
	mov	x0, x20
	ldr	x1, [x1, 16]
	blr	x1
	ldr	x19, [x19, #:got_lo12:__libc_single_threaded]
	ldrb	w0, [x19]
	cbz	w0, .L611
	ldr	w0, [x20, 12]
	sub	w1, w0, #1
	str	w1, [x20, 12]
.L612:
	cmp	w0, 1
	bne	.L553
	ldr	x1, [x20]
	mov	x0, x20
	ldp	x19, x20, [sp, 16]
	ldp	x21, x22, [sp, 32]
	ldp	x23, x24, [sp, 48]
	ldp	x29, x30, [sp], 64
	.cfi_remember_state
	.cfi_restore 30
	.cfi_restore 29
	.cfi_restore 23
	.cfi_restore 24
	.cfi_restore 21
	.cfi_restore 22
	.cfi_restore 19
	.cfi_restore 20
	.cfi_def_cfa_offset 0
	ldr	x1, [x1, 24]
	mov	x16, x1
	br	x16
	.p2align 2,,3
.L601:
	.cfi_restore_state
	add	x1, x20, 8
	mov	w0, -1
	bl	__aarch64_ldadd4_acq_rel
	b	.L602
	.p2align 2,,3
.L587:
	add	x1, x20, 8
	mov	w0, -1
	bl	__aarch64_ldadd4_acq_rel
	b	.L588
	.p2align 2,,3
.L594:
	add	x1, x20, 8
	mov	w0, -1
	bl	__aarch64_ldadd4_acq_rel
	b	.L595
	.p2align 2,,3
.L580:
	add	x1, x20, 8
	mov	w0, -1
	bl	__aarch64_ldadd4_acq_rel
	b	.L581
	.p2align 2,,3
.L566:
	add	x1, x20, 8
	mov	w0, -1
	bl	__aarch64_ldadd4_acq_rel
	b	.L567
	.p2align 2,,3
.L573:
	add	x1, x20, 8
	mov	w0, -1
	bl	__aarch64_ldadd4_acq_rel
	b	.L574
	.p2align 2,,3
.L608:
	add	x1, x20, 8
	mov	w0, -1
	bl	__aarch64_ldadd4_acq_rel
	b	.L609
.L611:
	add	x1, x20, 12
	mov	w0, -1
	bl	__aarch64_ldadd4_acq_rel
	b	.L612
.L569:
	add	x1, x20, 12
	mov	w0, -1
	bl	__aarch64_ldadd4_acq_rel
	b	.L570
.L604:
	add	x1, x20, 12
	mov	w0, -1
	bl	__aarch64_ldadd4_acq_rel
	b	.L605
.L576:
	add	x1, x20, 12
	mov	w0, -1
	bl	__aarch64_ldadd4_acq_rel
	b	.L577
.L597:
	add	x1, x20, 12
	mov	w0, -1
	bl	__aarch64_ldadd4_acq_rel
	b	.L598
.L583:
	add	x1, x20, 12
	mov	w0, -1
	bl	__aarch64_ldadd4_acq_rel
	b	.L584
.L590:
	add	x1, x20, 12
	mov	w0, -1
	bl	__aarch64_ldadd4_acq_rel
	b	.L591
	.cfi_endproc
.LFE3464:
	.size	_ZN8opendnp311MasterTasksD2Ev, .-_ZN8opendnp311MasterTasksD2Ev
	.weak	_ZN8opendnp311MasterTasksD1Ev
	.set	_ZN8opendnp311MasterTasksD1Ev,_ZN8opendnp311MasterTasksD2Ev
	.text
	.align	2
	.p2align 4,,11
	.global	_ZN8opendnp38MContext10ProcessIINERKNS_8IINFieldE
	.type	_ZN8opendnp38MContext10ProcessIINERKNS_8IINFieldE, %function
_ZN8opendnp38MContext10ProcessIINERKNS_8IINFieldE:
.LFB3486:
	.cfi_startproc
	stp	x29, x30, [sp, -32]!
	.cfi_def_cfa_offset 32
	.cfi_offset 29, -32
	.cfi_offset 30, -24
	mov	x29, sp
	stp	x19, x20, [sp, 16]
	.cfi_offset 19, -16
	.cfi_offset 20, -8
	mov	x19, x1
	mov	x20, x0
	mov	x0, x1
	mov	w1, 7
	bl	_ZNK8opendnp38IINField5IsSetENS_6IINBitE
	tst	w0, 255
	beq	.L627
	ldrb	w0, [x20, 98]
	cbz	w0, .L655
.L627:
	mov	x0, x19
	mov	w1, 11
	bl	_ZNK8opendnp38IINField5IsSetENS_6IINBitE
	tst	w0, 255
	beq	.L628
	ldrb	w0, [x20, 101]
	cbnz	w0, .L656
.L628:
	mov	x0, x19
	mov	w1, 4
	bl	_ZNK8opendnp38IINField5IsSetENS_6IINBitE
	tst	w0, 255
	beq	.L629
	ldrb	w0, [x20, 96]
	cmp	w0, 1
	beq	.L657
.L629:
	mov	x0, x19
	mov	w1, 1
	bl	_ZNK8opendnp38IINField5IsSetENS_6IINBitE
	tst	w0, 255
	beq	.L633
	add	x0, x20, 102
	bl	_ZNK8opendnp310ClassField9HasClass1Ev
	tst	w0, 255
	beq	.L633
.L637:
	ldr	x0, [x20, 336]
	bl	_ZN8opendnp311IMasterTask6DemandEv
.L634:
	ldr	x0, [x20, 144]
	adrp	x1, :got:_ZN8opendnp318IMasterApplication12OnReceiveIINERKNS_8IINFieldE
	ldr	x1, [x1, #:got_lo12:_ZN8opendnp318IMasterApplication12OnReceiveIINERKNS_8IINFieldE]
	ldr	x2, [x0]
	ldr	x2, [x2, 48]
	cmp	x2, x1
	bne	.L658
	ldp	x19, x20, [sp, 16]
	ldp	x29, x30, [sp], 32
	.cfi_remember_state
	.cfi_restore 30
	.cfi_restore 29
	.cfi_restore 19
	.cfi_restore 20
	.cfi_def_cfa_offset 0
	ret
	.p2align 2,,3
.L633:
	.cfi_restore_state
	mov	x0, x19
	mov	w1, 2
	bl	_ZNK8opendnp38IINField5IsSetENS_6IINBitE
	tst	w0, 255
	beq	.L632
	add	x0, x20, 102
	bl	_ZNK8opendnp310ClassField9HasClass2Ev
	tst	w0, 255
	bne	.L637
.L632:
	mov	x0, x19
	mov	w1, 3
	bl	_ZNK8opendnp38IINField5IsSetENS_6IINBitE
	tst	w0, 255
	beq	.L634
	add	x0, x20, 102
	bl	_ZNK8opendnp310ClassField9HasClass3Ev
	tst	w0, 255
	bne	.L637
	b	.L634
	.p2align 2,,3
.L658:
	mov	x1, x19
	mov	x16, x2
	ldp	x19, x20, [sp, 16]
	ldp	x29, x30, [sp], 32
	.cfi_remember_state
	.cfi_restore 30
	.cfi_restore 29
	.cfi_restore 19
	.cfi_restore 20
	.cfi_def_cfa_offset 0
	br	x16
	.p2align 2,,3
.L655:
	.cfi_restore_state
	ldr	x0, [x20, 256]
	bl	_ZN8opendnp311IMasterTask6DemandEv
	ldr	x0, [x20, 272]
	bl	_ZN8opendnp311IMasterTask6DemandEv
	ldr	x0, [x20, 288]
	bl	_ZN8opendnp311IMasterTask6DemandEv
	ldr	x0, [x20, 240]
	bl	_ZN8opendnp311IMasterTask6DemandEv
	b	.L627
	.p2align 2,,3
.L656:
	ldr	x0, [x20, 288]
	bl	_ZN8opendnp311IMasterTask6DemandEv
	b	.L628
	.p2align 2,,3
.L657:
	ldr	x0, [x20, 320]
	bl	_ZN8opendnp311IMasterTask6DemandEv
	b	.L629
	.cfi_endproc
.LFE3486:
	.size	_ZN8opendnp38MContext10ProcessIINERKNS_8IINFieldE, .-_ZN8opendnp38MContext10ProcessIINERKNS_8IINFieldE
	.align	2
	.p2align 4,,11
	.global	_ZN8opendnp38MContext8TransmitERKN7openpal6RSliceE
	.type	_ZN8opendnp38MContext8TransmitERKN7openpal6RSliceE, %function
_ZN8opendnp38MContext8TransmitERKN7openpal6RSliceE:
.LFB3491:
	.cfi_startproc
	.cfi_personality 0x9b,DW.ref.__gxx_personality_v0
	.cfi_lsda 0x1b,.LLSDA3491
	stp	x29, x30, [sp, -96]!
	.cfi_def_cfa_offset 96
	.cfi_offset 29, -96
	.cfi_offset 30, -88
	adrp	x2, :got:__stack_chk_guard
	mov	x29, sp
	stp	x19, x20, [sp, 16]
	.cfi_offset 19, -80
	.cfi_offset 20, -72
	mov	x20, x1
	mov	x19, x0
	stp	x21, x22, [sp, 32]
	.cfi_offset 21, -64
	.cfi_offset 22, -56
	ldr	q0, [x0, 24]
	ldr	x2, [x2, #:got_lo12:__stack_chk_guard]
	umov	x1, v0.d[1]
	ldr	x0, [x2]
	str	x0, [sp, 88]
	mov	x0, 0
	str	q0, [sp, 48]
	cbz	x1, .L660
	adrp	x0, :got:__libc_single_threaded
	ldr	x0, [x0, #:got_lo12:__libc_single_threaded]
	ldrb	w0, [x0]
	cbz	w0, .L661
	ldr	w0, [x1, 8]
	add	w0, w0, 1
	str	w0, [x1, 8]
.L660:
	ldr	q0, [x19, 40]
	umov	x1, v0.d[1]
	str	q0, [sp, 64]
	cbz	x1, .L662
	adrp	x0, :got:__libc_single_threaded
	ldr	x0, [x0, #:got_lo12:__libc_single_threaded]
	ldrb	w0, [x0]
	cbz	w0, .L663
	ldr	w0, [x1, 8]
	add	w0, w0, 1
	str	w0, [x1, 8]
.L662:
	add	x21, sp, 48
	mov	x1, x20
	mov	x0, x21
.LEHB4:
	bl	_ZN8opendnp37logging20ParseAndLogRequestTxEN7openpal6LoggerERKNS1_6RSliceE
.LEHE4:
	ldr	x21, [sp, 72]
	cbz	x21, .L665
	adrp	x22, :got:__libc_single_threaded
	ldr	x0, [x22, #:got_lo12:__libc_single_threaded]
	ldrb	w0, [x0]
	cbz	w0, .L666
	ldr	w0, [x21, 8]
	sub	w1, w0, #1
	str	w1, [x21, 8]
.L667:
	cmp	w0, 1
	beq	.L689
.L665:
	ldr	x21, [sp, 56]
	cbz	x21, .L672
	adrp	x22, :got:__libc_single_threaded
	ldr	x0, [x22, #:got_lo12:__libc_single_threaded]
	ldrb	w0, [x0]
	cbz	w0, .L673
	ldr	w0, [x21, 8]
	sub	w1, w0, #1
	str	w1, [x21, 8]
.L674:
	cmp	w0, 1
	beq	.L690
.L672:
	adrp	x1, :got:__stack_chk_guard
	mov	w0, 1
	strb	w0, [x19, 169]
	ldr	x1, [x1, #:got_lo12:__stack_chk_guard]
	ldr	x0, [x19, 72]
	ldr	x3, [sp, 88]
	ldr	x2, [x1]
	subs	x3, x3, x2
	mov	x2, 0
	bne	.L691
	ldr	x2, [x0]
	mov	x1, x20
	ldp	x19, x20, [sp, 16]
	ldr	x2, [x2, 16]
	ldp	x21, x22, [sp, 32]
	mov	x16, x2
	ldp	x29, x30, [sp], 96
	.cfi_remember_state
	.cfi_restore 30
	.cfi_restore 29
	.cfi_restore 21
	.cfi_restore 22
	.cfi_restore 19
	.cfi_restore 20
	.cfi_def_cfa_offset 0
.LEHB5:
	br	x16
	.p2align 2,,3
.L661:
	.cfi_restore_state
	add	x1, x1, 8
	mov	w0, 1
	bl	__aarch64_ldadd4_acq_rel
	b	.L660
	.p2align 2,,3
.L663:
	add	x1, x1, 8
	mov	w0, 1
	bl	__aarch64_ldadd4_acq_rel
	b	.L662
	.p2align 2,,3
.L689:
	ldr	x1, [x21]
	mov	x0, x21
	ldr	x1, [x1, 16]
	blr	x1
	ldr	x22, [x22, #:got_lo12:__libc_single_threaded]
	ldrb	w0, [x22]
	cbz	w0, .L669
	ldr	w0, [x21, 12]
	sub	w1, w0, #1
	str	w1, [x21, 12]
.L670:
	cmp	w0, 1
	bne	.L665
	ldr	x1, [x21]
	mov	x0, x21
	ldr	x1, [x1, 24]
	blr	x1
	b	.L665
	.p2align 2,,3
.L690:
	ldr	x1, [x21]
	mov	x0, x21
	ldr	x1, [x1, 16]
	blr	x1
	ldr	x22, [x22, #:got_lo12:__libc_single_threaded]
	ldrb	w0, [x22]
	cbz	w0, .L676
	ldr	w0, [x21, 12]
	sub	w1, w0, #1
	str	w1, [x21, 12]
.L677:
	cmp	w0, 1
	bne	.L672
	ldr	x1, [x21]
	mov	x0, x21
	ldr	x1, [x1, 24]
	blr	x1
	b	.L672
	.p2align 2,,3
.L666:
	add	x1, x21, 8
	mov	w0, -1
	bl	__aarch64_ldadd4_acq_rel
	b	.L667
	.p2align 2,,3
.L673:
	add	x1, x21, 8
	mov	w0, -1
	bl	__aarch64_ldadd4_acq_rel
	b	.L674
	.p2align 2,,3
.L669:
	add	x1, x21, 12
	mov	w0, -1
	bl	__aarch64_ldadd4_acq_rel
	b	.L670
	.p2align 2,,3
.L676:
	add	x1, x21, 12
	mov	w0, -1
	bl	__aarch64_ldadd4_acq_rel
	b	.L677
.L691:
	bl	__stack_chk_fail
.L681:
	mov	x19, x0
	mov	x0, x21
	bl	_ZN7openpal6LoggerD1Ev
	mov	x0, x19
	bl	_Unwind_Resume
.LEHE5:
	.cfi_endproc
.LFE3491:
	.section	.gcc_except_table
.LLSDA3491:
	.byte	0xff
	.byte	0xff
	.byte	0x1
	.uleb128 .LLSDACSE3491-.LLSDACSB3491
.LLSDACSB3491:
	.uleb128 .LEHB4-.LFB3491
	.uleb128 .LEHE4-.LEHB4
	.uleb128 .L681-.LFB3491
	.uleb128 0
	.uleb128 .LEHB5-.LFB3491
	.uleb128 .LEHE5-.LEHB5
	.uleb128 0
	.uleb128 0
.LLSDACSE3491:
	.text
	.size	_ZN8opendnp38MContext8TransmitERKN7openpal6RSliceE, .-_ZN8opendnp38MContext8TransmitERKN7openpal6RSliceE
	.align	2
	.p2align 4,,11
	.global	_ZN8opendnp38MContext20CheckConfirmTransmitEv
	.type	_ZN8opendnp38MContext20CheckConfirmTransmitEv, %function
_ZN8opendnp38MContext20CheckConfirmTransmitEv:
.LFB3490:
	.cfi_startproc
	stp	x29, x30, [sp, -144]!
	.cfi_def_cfa_offset 144
	.cfi_offset 29, -144
	.cfi_offset 30, -136
	adrp	x1, :got:__stack_chk_guard
	mov	x29, sp
	ldr	x1, [x1, #:got_lo12:__stack_chk_guard]
	stp	x19, x20, [sp, 16]
	.cfi_offset 19, -128
	.cfi_offset 20, -120
	mov	x19, x0
	ldrb	w0, [x0, 169]
	ldr	x2, [x1]
	str	x2, [sp, 136]
	mov	x2, 0
	cbnz	w0, .L696
	ldr	x2, [x19, 424]
	stp	x23, x24, [sp, 48]
	.cfi_offset 24, -88
	.cfi_offset 23, -96
	add	x23, x19, 424
	ldr	x1, [x19, 456]
	cmp	x2, x1
	beq	.L698
	ldr	w3, [x2]
	add	x0, x19, 488
	ldrh	w1, [x2, 4]
	add	x20, sp, 96
	ldrb	w24, [x2]
	stp	x21, x22, [sp, 32]
	.cfi_offset 22, -104
	.cfi_offset 21, -112
	add	x21, sp, 80
	add	x22, x19, 408
	str	w3, [sp, 72]
	strh	w1, [sp, 76]
	bl	_ZN7openpal6Buffer9GetWSliceEv
	mov	x2, x0
	mov	x3, x1
	mov	x0, x20
	mov	x1, x21
	stp	x2, x3, [sp, 80]
	bl	_ZN8opendnp311APDUWrapperC1ERKN7openpal6WSliceE
	mov	w1, w24
	mov	x0, x20
	bl	_ZN8opendnp311APDUWrapper11SetFunctionENS_12FunctionCodeE
	ldrb	w4, [sp, 73]
	mov	x0, x20
	ldrb	w3, [sp, 74]
	ldrb	w2, [sp, 75]
	ldrb	w1, [sp, 76]
	orr	x3, x4, x3, lsl 8
	ldrb	w4, [sp, 77]
	orr	x2, x3, x2, lsl 16
	orr	x1, x2, x1, lsl 24
	orr	x1, x1, x4, lsl 32
	bl	_ZN8opendnp311APDUWrapper10SetControlENS_15AppControlFieldE
	mov	x0, x20
	bl	_ZNK8opendnp311APDUWrapper8ToRSliceEv
	mov	x2, x0
	mov	x3, x1
	mov	x0, x19
	mov	x1, x21
	stp	x2, x3, [sp, 80]
	bl	_ZN8opendnp38MContext8TransmitERKN7openpal6RSliceE
	ldr	x1, [x22, 32]
	ldr	x0, [x22, 16]
	sub	x1, x1, #6
	cmp	x0, x1
	beq	.L694
	add	x1, x0, 6
	mov	w0, 1
	ldp	x23, x24, [sp, 48]
	.cfi_restore 24
	.cfi_restore 23
	str	x1, [x22, 16]
	ldp	x21, x22, [sp, 32]
	.cfi_restore 22
	.cfi_restore 21
.L693:
	adrp	x1, :got:__stack_chk_guard
	ldr	x1, [x1, #:got_lo12:__stack_chk_guard]
	ldr	x3, [sp, 136]
	ldr	x2, [x1]
	subs	x3, x3, x2
	mov	x2, 0
	bne	.L699
	ldp	x19, x20, [sp, 16]
	ldp	x29, x30, [sp], 144
	.cfi_restore 30
	.cfi_restore 29
	.cfi_restore 19
	.cfi_restore 20
	.cfi_def_cfa_offset 0
	ret
	.p2align 2,,3
.L698:
	.cfi_def_cfa_offset 144
	.cfi_offset 19, -128
	.cfi_offset 20, -120
	.cfi_offset 23, -96
	.cfi_offset 24, -88
	.cfi_offset 29, -144
	.cfi_offset 30, -136
	ldp	x23, x24, [sp, 48]
	.cfi_restore 24
	.cfi_restore 23
	b	.L693
	.p2align 2,,3
.L696:
	mov	w0, 0
	b	.L693
	.p2align 2,,3
.L694:
	.cfi_offset 21, -112
	.cfi_offset 22, -104
	.cfi_offset 23, -96
	.cfi_offset 24, -88
	ldr	x0, [x22, 24]
	mov	x1, 510
	bl	_ZdlPvm
	ldr	x1, [x22, 40]
	mov	w0, 1
	add	x2, x1, 8
	ldr	x1, [x1, 8]
	str	x1, [x23, 8]
	str	x2, [x23, 24]
	add	x2, x1, 510
	str	x2, [x23, 16]
	ldp	x23, x24, [sp, 48]
	.cfi_restore 24
	.cfi_restore 23
	str	x1, [x22, 16]
	ldp	x21, x22, [sp, 32]
	.cfi_restore 22
	.cfi_restore 21
	b	.L693
.L699:
	stp	x21, x22, [sp, 32]
	.cfi_offset 22, -104
	.cfi_offset 21, -112
	stp	x23, x24, [sp, 48]
	.cfi_offset 24, -88
	.cfi_offset 23, -96
	bl	__stack_chk_fail
	.cfi_endproc
.LFE3490:
	.size	_ZN8opendnp38MContext20CheckConfirmTransmitEv, .-_ZN8opendnp38MContext20CheckConfirmTransmitEv
	.section	.rodata.str1.8,"aMS",@progbits,1
	.align	3
.LC0:
	.string	"cannot create std::deque larger than max_size()"
	.text
	.align	2
	.p2align 4,,11
	.global	_ZN8opendnp38MContext12QueueConfirmERKNS_10APDUHeaderE
	.type	_ZN8opendnp38MContext12QueueConfirmERKNS_10APDUHeaderE, %function
_ZN8opendnp38MContext12QueueConfirmERKNS_10APDUHeaderE:
.LFB3489:
	.cfi_startproc
	stp	x29, x30, [sp, -96]!
	.cfi_def_cfa_offset 96
	.cfi_offset 29, -96
	.cfi_offset 30, -88
	mov	x29, sp
	stp	x21, x22, [sp, 32]
	.cfi_offset 21, -64
	.cfi_offset 22, -56
	add	x21, x0, 408
	stp	x19, x20, [sp, 16]
	.cfi_offset 19, -80
	.cfi_offset 20, -72
	mov	x20, x1
	mov	x19, x0
	ldr	x1, [x21, 64]
	ldr	x0, [x21, 48]
	sub	x1, x1, #6
	cmp	x0, x1
	beq	.L701
	ldr	w2, [x20]
	add	x1, x0, 6
	str	w2, [x0]
	ldrh	w2, [x20, 4]
	strh	w2, [x0, 4]
	mov	x0, x19
	ldp	x19, x20, [sp, 16]
	str	x1, [x21, 48]
	ldp	x21, x22, [sp, 32]
	ldp	x29, x30, [sp], 96
	.cfi_remember_state
	.cfi_restore 30
	.cfi_restore 29
	.cfi_restore 21
	.cfi_restore 22
	.cfi_restore 19
	.cfi_restore 20
	.cfi_def_cfa_offset 0
	b	_ZN8opendnp38MContext20CheckConfirmTransmitEv
	.p2align 2,,3
.L701:
	.cfi_restore_state
	stp	x25, x26, [sp, 64]
	.cfi_offset 26, -24
	.cfi_offset 25, -32
	add	x25, x19, 424
	mov	x5, -6148914691236517206
	stp	x23, x24, [sp, 48]
	.cfi_offset 24, -40
	.cfi_offset 23, -48
	movk	x5, 0xaaab, lsl 0
	mov	x6, 6148914691236517205
	ldp	x3, x1, [x25, 16]
	add	x22, x19, 456
	ldr	x23, [x22, 24]
	movk	x6, 0x1555, lsl 48
	ldr	x8, [x22, 8]
	cmp	x23, 0
	sub	x26, x23, x1
	cset	x2, ne
	ldr	x7, [x19, 424]
	asr	x4, x26, 3
	sub	x2, x4, x2
	sub	x0, x0, x8
	sub	x3, x3, x7
	add	x2, x2, x2, lsl 2
	asr	x0, x0, 1
	asr	x3, x3, 1
	add	x2, x2, x2, lsl 4
	madd	x0, x0, x5, x2
	madd	x0, x3, x5, x0
	cmp	x0, x6
	beq	.L712
	ldr	x3, [x19, 408]
	ldr	x0, [x21, 8]
	sub	x2, x23, x3
	sub	x2, x0, x2, asr 3
	cmp	x2, 1
	bls	.L713
.L704:
	mov	x0, 510
	bl	_Znwm
	ldr	w3, [x20]
	ldp	x25, x26, [sp, 64]
	.cfi_remember_state
	.cfi_restore 26
	.cfi_restore 25
	ldr	x1, [x21, 72]
	str	x0, [x23, 8]
	ldp	x23, x24, [sp, 48]
	.cfi_restore 24
	.cfi_restore 23
	add	x2, x1, 8
	ldr	x0, [x21, 48]
	ldr	x1, [x1, 8]
	str	w3, [x0]
	add	x3, x1, 510
	ldrh	w4, [x20, 4]
	strh	w4, [x0, 4]
	mov	x0, x19
	stp	x1, x3, [x22, 8]
	str	x2, [x22, 24]
	ldp	x19, x20, [sp, 16]
	str	x1, [x21, 48]
	ldp	x21, x22, [sp, 32]
	ldp	x29, x30, [sp], 96
	.cfi_restore 30
	.cfi_restore 29
	.cfi_restore 21
	.cfi_restore 22
	.cfi_restore 19
	.cfi_restore 20
	.cfi_def_cfa_offset 0
	b	_ZN8opendnp38MContext20CheckConfirmTransmitEv
	.p2align 2,,3
.L713:
	.cfi_restore_state
	add	x24, x4, 2
	cmp	x0, x24, lsl 1
	bhi	.L714
	cmp	x0, 0
	add	x2, x0, 2
	csinc	x0, x0, xzr, ne
	str	x27, [sp, 80]
	.cfi_offset 27, -16
	add	x23, x0, x2
	mov	x1, 1152921504606846975
	cmp	x23, x1
	bhi	.L715
	lsl	x0, x23, 3
	bl	_Znwm
	sub	x24, x23, x24
	mov	x27, x0
	ldr	x2, [x21, 72]
	lsr	x24, x24, 1
	ldr	x1, [x21, 40]
	add	x2, x2, 8
	add	x24, x0, x24, lsl 3
	cmp	x1, x2
	beq	.L710
	sub	x2, x2, x1
	mov	x0, x24
	bl	memmove
.L710:
	ldr	x1, [x21, 8]
	ldr	x0, [x19, 408]
	lsl	x1, x1, 3
	bl	_ZdlPvm
	str	x27, [x19, 408]
	ldr	x27, [sp, 80]
	.cfi_restore 27
	str	x23, [x21, 8]
.L707:
	ldr	x0, [x24]
	str	x0, [x25, 8]
	str	x24, [x25, 24]
	add	x23, x24, x26
	add	x0, x0, 510
	str	x0, [x25, 16]
	ldr	x0, [x24, x26]
	str	x0, [x22, 8]
	str	x23, [x22, 24]
	add	x0, x0, 510
	str	x0, [x22, 16]
	b	.L704
	.p2align 2,,3
.L714:
	sub	x0, x0, x24
	add	x23, x23, 8
	sub	x2, x23, x1
	lsr	x0, x0, 1
	add	x24, x3, x0, lsl 3
	cmp	x1, x24
	bls	.L706
	cmp	x1, x23
	beq	.L707
	mov	x0, x24
	bl	memmove
	b	.L707
	.p2align 2,,3
.L706:
	cmp	x1, x23
	beq	.L707
	add	x0, x26, 8
	sub	x0, x0, x2
	add	x0, x24, x0
	bl	memmove
	b	.L707
.L715:
	.cfi_offset 27, -16
	mov	x0, 2305843009213693951
	cmp	x23, x0
	bls	.L709
	bl	_ZSt28__throw_bad_array_new_lengthv
.L709:
	bl	_ZSt17__throw_bad_allocv
.L712:
	.cfi_restore 27
	adrp	x0, .LC0
	add	x0, x0, :lo12:.LC0
	str	x27, [sp, 80]
	.cfi_offset 27, -16
	bl	_ZSt20__throw_length_errorPKc
	.cfi_endproc
.LFE3489:
	.size	_ZN8opendnp38MContext12QueueConfirmERKNS_10APDUHeaderE, .-_ZN8opendnp38MContext12QueueConfirmERKNS_10APDUHeaderE
	.section	.rodata.str1.8
	.align	3
.LC1:
	.string	"Ignoring unsolicited response without UNS bit set"
	.align	3
.LC2:
	.string	"/home/jaehyun/OpenPLC_v3/utils/dnp3_src/cpp/libs/src/opendnp3/master/MasterContext.cpp(266)"
	.text
	.align	2
	.p2align 4,,11
	.global	_ZN8opendnp38MContext26ProcessUnsolicitedResponseERKNS_18APDUResponseHeaderERKN7openpal6RSliceE
	.type	_ZN8opendnp38MContext26ProcessUnsolicitedResponseERKNS_18APDUResponseHeaderERKN7openpal6RSliceE, %function
_ZN8opendnp38MContext26ProcessUnsolicitedResponseERKNS_18APDUResponseHeaderERKN7openpal6RSliceE:
.LFB3487:
	.cfi_startproc
	stp	x29, x30, [sp, -64]!
	.cfi_def_cfa_offset 64
	.cfi_offset 29, -64
	.cfi_offset 30, -56
	adrp	x3, :got:__stack_chk_guard
	mov	x29, sp
	ldr	x3, [x3, #:got_lo12:__stack_chk_guard]
	stp	x19, x20, [sp, 16]
	.cfi_offset 19, -48
	.cfi_offset 20, -40
	mov	x20, x1
	ldrb	w1, [x1, 4]
	mov	x19, x0
	str	x21, [sp, 32]
	.cfi_offset 21, -32
	add	x21, x19, 24
	ldr	x0, [x3]
	str	x0, [sp, 56]
	mov	x0, 0
	cbz	w1, .L730
	mov	x0, x2
	mov	x1, x21
	ldr	x2, [x19, 128]
	bl	_ZN8opendnp318MeasurementHandler19ProcessMeasurementsERKN7openpal6RSliceERNS1_6LoggerEPNS_11ISOEHandlerE
	tst	w0, 255
	beq	.L731
.L719:
	adrp	x0, :got:__stack_chk_guard
	ldr	x0, [x0, #:got_lo12:__stack_chk_guard]
	ldr	x2, [sp, 56]
	ldr	x1, [x0]
	subs	x2, x2, x1
	mov	x1, 0
	bne	.L729
	add	x1, x20, 6
	mov	x0, x19
	ldp	x19, x20, [sp, 16]
	ldr	x21, [sp, 32]
	ldp	x29, x30, [sp], 64
	.cfi_remember_state
	.cfi_restore 30
	.cfi_restore 29
	.cfi_restore 21
	.cfi_restore 19
	.cfi_restore 20
	.cfi_def_cfa_offset 0
	b	_ZN8opendnp38MContext10ProcessIINERKNS_8IINFieldE
	.p2align 2,,3
.L731:
	.cfi_restore_state
	ldrb	w0, [x20, 3]
	cbz	w0, .L719
	ldrb	w0, [x20, 5]
	bl	_ZN8opendnp310APDUHeader18UnsolicitedConfirmEh
	mov	x2, x0
	strb	w2, [sp, 48]
	add	x1, sp, 48
	ubfx	x6, x2, 8, 8
	ubfx	x5, x2, 16, 8
	lsr	w4, w2, 24
	ubfx	x3, x2, 32, 8
	ubfx	x2, x2, 40, 8
	mov	x0, x19
	strb	w6, [sp, 49]
	strb	w5, [sp, 50]
	strb	w4, [sp, 51]
	strb	w3, [sp, 52]
	strb	w2, [sp, 53]
	bl	_ZN8opendnp38MContext12QueueConfirmERKNS_10APDUHeaderE
	b	.L719
	.p2align 2,,3
.L730:
	add	x20, sp, 48
	mov	w19, 4
	mov	x1, x20
	mov	x0, x21
	str	w19, [sp, 48]
	bl	_ZNK7openpal6Logger9IsEnabledERKNS_10LogFiltersE
	tst	w0, 255
	bne	.L732
.L716:
	adrp	x0, :got:__stack_chk_guard
	ldr	x0, [x0, #:got_lo12:__stack_chk_guard]
	ldr	x2, [sp, 56]
	ldr	x1, [x0]
	subs	x2, x2, x1
	mov	x1, 0
	bne	.L729
	ldp	x19, x20, [sp, 16]
	ldr	x21, [sp, 32]
	ldp	x29, x30, [sp], 64
	.cfi_remember_state
	.cfi_restore 30
	.cfi_restore 29
	.cfi_restore 21
	.cfi_restore 19
	.cfi_restore 20
	.cfi_def_cfa_offset 0
	ret
	.p2align 2,,3
.L732:
	.cfi_restore_state
	mov	x1, x20
	mov	x0, x21
	adrp	x3, .LC1
	adrp	x2, .LC2
	add	x3, x3, :lo12:.LC1
	add	x2, x2, :lo12:.LC2
	str	w19, [sp, 48]
	bl	_ZN7openpal6Logger3LogERKNS_10LogFiltersEPKcS5_
	b	.L716
.L729:
	bl	__stack_chk_fail
	.cfi_endproc
.LFE3487:
	.size	_ZN8opendnp38MContext26ProcessUnsolicitedResponseERKNS_18APDUResponseHeaderERKN7openpal6RSliceE, .-_ZN8opendnp38MContext26ProcessUnsolicitedResponseERKNS_18APDUResponseHeaderERKN7openpal6RSliceE
	.align	2
	.p2align 4,,11
	.global	_ZN8opendnp38MContext18StartResponseTimerEv
	.type	_ZN8opendnp38MContext18StartResponseTimerEv, %function
_ZN8opendnp38MContext18StartResponseTimerEv:
.LFB3492:
	.cfi_startproc
	.cfi_personality 0x9b,DW.ref.__gxx_personality_v0
	.cfi_lsda 0x1b,.LLSDA3492
	stp	x29, x30, [sp, -80]!
	.cfi_def_cfa_offset 80
	.cfi_offset 29, -80
	.cfi_offset 30, -72
	adrp	x2, :got:__stack_chk_guard
	mov	x3, x0
	mov	x29, sp
	ldr	x2, [x2, #:got_lo12:__stack_chk_guard]
	stp	x19, x20, [sp, 16]
	.cfi_offset 19, -64
	.cfi_offset 20, -56
	adrp	x5, _ZNSt17_Function_handlerIFvvEZN7openpal8TimerRef5StartIZN8opendnp38MContext18StartResponseTimerEvEUlvE_EEbRKNS1_12TimeDurationERKT_EUlvE_E10_M_managerERSt9_Any_dataRKSF_St18_Manager_operation
	ldr	x4, [x2]
	str	x4, [sp, 72]
	mov	x4, 0
	add	x5, x5, :lo12:_ZNSt17_Function_handlerIFvvEZN7openpal8TimerRef5StartIZN8opendnp38MContext18StartResponseTimerEvEUlvE_EEbRKNS1_12TimeDurationERKT_EUlvE_E10_M_managerERSt9_Any_dataRKSF_St18_Manager_operation
	adrp	x4, _ZNSt17_Function_handlerIFvvEZN7openpal8TimerRef5StartIZN8opendnp38MContext18StartResponseTimerEvEUlvE_EEbRKNS1_12TimeDurationERKT_EUlvE_E9_M_invokeERKSt9_Any_data
	add	x4, x4, :lo12:_ZNSt17_Function_handlerIFvvEZN7openpal8TimerRef5StartIZN8opendnp38MContext18StartResponseTimerEvEUlvE_EEbRKNS1_12TimeDurationERKT_EUlvE_E9_M_invokeERKSt9_Any_data
	add	x19, sp, 40
	add	x0, x0, 192
	add	x1, x3, 88
	mov	x2, x19
	stp	x0, x3, [sp, 40]
	stp	x5, x4, [sp, 56]
.LEHB6:
	bl	_ZN7openpal8TimerRef11StartActionERKNS_12TimeDurationERKSt8functionIFvvEE
.LEHE6:
	ldr	x3, [sp, 56]
	cbz	x3, .L733
	mov	x1, x19
	mov	x0, x19
	mov	w2, 3
	blr	x3
.L733:
	adrp	x0, :got:__stack_chk_guard
	ldr	x0, [x0, #:got_lo12:__stack_chk_guard]
	ldr	x2, [sp, 72]
	ldr	x1, [x0]
	subs	x2, x2, x1
	mov	x1, 0
	bne	.L746
	ldp	x19, x20, [sp, 16]
	ldp	x29, x30, [sp], 80
	.cfi_remember_state
	.cfi_restore 30
	.cfi_restore 29
	.cfi_restore 19
	.cfi_restore 20
	.cfi_def_cfa_offset 0
	ret
.L746:
	.cfi_restore_state
	bl	__stack_chk_fail
.L738:
	ldr	x3, [sp, 56]
	mov	x20, x0
	cbz	x3, .L736
	mov	x1, x19
	mov	x0, x19
	mov	w2, 3
	blr	x3
.L736:
	mov	x0, x20
.LEHB7:
	bl	_Unwind_Resume
.LEHE7:
	.cfi_endproc
.LFE3492:
	.section	.gcc_except_table
.LLSDA3492:
	.byte	0xff
	.byte	0xff
	.byte	0x1
	.uleb128 .LLSDACSE3492-.LLSDACSB3492
.LLSDACSB3492:
	.uleb128 .LEHB6-.LFB3492
	.uleb128 .LEHE6-.LEHB6
	.uleb128 .L738-.LFB3492
	.uleb128 0
	.uleb128 .LEHB7-.LFB3492
	.uleb128 .LEHE7-.LEHB7
	.uleb128 0
	.uleb128 0
.LLSDACSE3492:
	.text
	.size	_ZN8opendnp38MContext18StartResponseTimerEv, .-_ZN8opendnp38MContext18StartResponseTimerEv
	.align	2
	.p2align 4,,11
	.global	_ZN8opendnp38MContext16PostCheckForTaskEv
	.type	_ZN8opendnp38MContext16PostCheckForTaskEv, %function
_ZN8opendnp38MContext16PostCheckForTaskEv:
.LFB3494:
	.cfi_startproc
	.cfi_personality 0x9b,DW.ref.__gxx_personality_v0
	.cfi_lsda 0x1b,.LLSDA3494
	stp	x29, x30, [sp, -80]!
	.cfi_def_cfa_offset 80
	.cfi_offset 29, -80
	.cfi_offset 30, -72
	adrp	x3, :got:__stack_chk_guard
	mov	x1, x0
	mov	x29, sp
	ldr	x3, [x3, #:got_lo12:__stack_chk_guard]
	stp	x19, x20, [sp, 16]
	.cfi_offset 19, -64
	.cfi_offset 20, -56
	adrp	x2, _ZNSt17_Function_handlerIFvvEZN8opendnp38MContext16PostCheckForTaskEvEUlvE_E9_M_invokeERKSt9_Any_data
	ldr	x0, [x0, 56]
	ldr	x4, [x3]
	str	x4, [sp, 72]
	mov	x4, 0
	adrp	x3, _ZNSt17_Function_handlerIFvvEZN8opendnp38MContext16PostCheckForTaskEvEUlvE_E10_M_managerERSt9_Any_dataRKS5_St18_Manager_operation
	add	x3, x3, :lo12:_ZNSt17_Function_handlerIFvvEZN8opendnp38MContext16PostCheckForTaskEvEUlvE_E10_M_managerERSt9_Any_dataRKS5_St18_Manager_operation
	add	x2, x2, :lo12:_ZNSt17_Function_handlerIFvvEZN8opendnp38MContext16PostCheckForTaskEvEUlvE_E9_M_invokeERKSt9_Any_data
	add	x19, sp, 40
	ldr	x4, [x0]
	stp	x3, x2, [sp, 56]
	stp	x1, xzr, [sp, 40]
	mov	x1, x19
	ldr	x3, [x4, 40]
.LEHB8:
	blr	x3
.LEHE8:
	ldr	x3, [sp, 56]
	cbz	x3, .L747
	mov	x1, x19
	mov	x0, x19
	mov	w2, 3
	blr	x3
.L747:
	adrp	x0, :got:__stack_chk_guard
	ldr	x0, [x0, #:got_lo12:__stack_chk_guard]
	ldr	x2, [sp, 72]
	ldr	x1, [x0]
	subs	x2, x2, x1
	mov	x1, 0
	bne	.L760
	ldp	x19, x20, [sp, 16]
	ldp	x29, x30, [sp], 80
	.cfi_remember_state
	.cfi_restore 30
	.cfi_restore 29
	.cfi_restore 19
	.cfi_restore 20
	.cfi_def_cfa_offset 0
	ret
.L760:
	.cfi_restore_state
	bl	__stack_chk_fail
.L752:
	ldr	x3, [sp, 56]
	mov	x20, x0
	cbz	x3, .L750
	mov	x1, x19
	mov	x0, x19
	mov	w2, 3
	blr	x3
.L750:
	mov	x0, x20
.LEHB9:
	bl	_Unwind_Resume
.LEHE9:
	.cfi_endproc
.LFE3494:
	.section	.gcc_except_table
.LLSDA3494:
	.byte	0xff
	.byte	0xff
	.byte	0x1
	.uleb128 .LLSDACSE3494-.LLSDACSB3494
.LLSDACSB3494:
	.uleb128 .LEHB8-.LFB3494
	.uleb128 .LEHE8-.LEHB8
	.uleb128 .L752-.LFB3494
	.uleb128 0
	.uleb128 .LEHB9-.LFB3494
	.uleb128 .LEHE9-.LEHB9
	.uleb128 0
	.uleb128 0
.LLSDACSE3494:
	.text
	.size	_ZN8opendnp38MContext16PostCheckForTaskEv, .-_ZN8opendnp38MContext16PostCheckForTaskEv
	.section	.text._ZN8opendnp38MContext13OnPendingTaskEv,"axG",@progbits,_ZN8opendnp38MContext13OnPendingTaskEv,comdat
	.align	2
	.p2align 4,,11
	.weak	_ZN8opendnp38MContext13OnPendingTaskEv
	.type	_ZN8opendnp38MContext13OnPendingTaskEv, %function
_ZN8opendnp38MContext13OnPendingTaskEv:
.LFB3168:
	.cfi_startproc
	b	_ZN8opendnp38MContext16PostCheckForTaskEv
	.cfi_endproc
.LFE3168:
	.size	_ZN8opendnp38MContext13OnPendingTaskEv, .-_ZN8opendnp38MContext13OnPendingTaskEv
	.text
	.align	2
	.p2align 4,,11
	.global	_ZN8opendnp38MContext14OnLowerLayerUpEv
	.type	_ZN8opendnp38MContext14OnLowerLayerUpEv, %function
_ZN8opendnp38MContext14OnLowerLayerUpEv:
.LFB3474:
	.cfi_startproc
	stp	x29, x30, [sp, -32]!
	.cfi_def_cfa_offset 32
	.cfi_offset 29, -32
	.cfi_offset 30, -24
	mov	x29, sp
	stp	x19, x20, [sp, 16]
	.cfi_offset 19, -16
	.cfi_offset 20, -8
	mov	x19, x0
	ldrb	w0, [x0, 168]
	mov	w20, 0
	cbz	w0, .L767
.L763:
	mov	w0, w20
	ldp	x19, x20, [sp, 16]
	ldp	x29, x30, [sp], 32
	.cfi_remember_state
	.cfi_restore 30
	.cfi_restore 29
	.cfi_restore 19
	.cfi_restore 20
	.cfi_def_cfa_offset 0
	ret
	.p2align 2,,3
.L767:
	.cfi_restore_state
	add	x1, x19, 376
	mov	w0, 1
	strb	w0, [x19, 168]
	add	x0, x19, 240
	mov	w20, 1
	bl	_ZN8opendnp311MasterTasks10InitializeERNS_15MasterSchedulerE
	mov	x0, x19
	bl	_ZN8opendnp38MContext16PostCheckForTaskEv
	ldr	x0, [x19, 144]
	adrp	x1, :got:_ZN8opendnp318IMasterApplication6OnOpenEv
	ldr	x1, [x1, #:got_lo12:_ZN8opendnp318IMasterApplication6OnOpenEv]
	ldr	x2, [x0]
	ldr	x2, [x2, 72]
	cmp	x2, x1
	beq	.L763
	blr	x2
	b	.L763
	.cfi_endproc
.LFE3474:
	.size	_ZN8opendnp38MContext14OnLowerLayerUpEv, .-_ZN8opendnp38MContext14OnLowerLayerUpEv
	.align	2
	.p2align 4,,11
	.global	_ZN8opendnp38MContext18CompleteActiveTaskEv
	.type	_ZN8opendnp38MContext18CompleteActiveTaskEv, %function
_ZN8opendnp38MContext18CompleteActiveTaskEv:
.LFB3480:
	.cfi_startproc
	stp	x29, x30, [sp, -48]!
	.cfi_def_cfa_offset 48
	.cfi_offset 29, -48
	.cfi_offset 30, -40
	mov	x29, sp
	stp	x19, x20, [sp, 16]
	.cfi_offset 19, -32
	.cfi_offset 20, -24
	mov	x19, x0
	add	x20, x0, 176
	ldr	x0, [x0, 176]
	cbz	x0, .L768
	ldr	x2, [x0]
	ldr	x2, [x2, 48]
	blr	x2
	tst	w0, 255
	bne	.L782
	ldr	x20, [x19, 184]
	stp	xzr, xzr, [x19, 176]
	cbz	x20, .L771
	str	x21, [sp, 32]
	.cfi_offset 21, -16
	adrp	x21, :got:__libc_single_threaded
	ldr	x0, [x21, #:got_lo12:__libc_single_threaded]
	ldrb	w0, [x0]
	cbz	w0, .L773
	ldr	w0, [x20, 8]
	sub	w1, w0, #1
	str	w1, [x20, 8]
.L774:
	cmp	w0, 1
	beq	.L783
.L781:
	ldr	x0, [x19, 160]
	adrp	x1, :got:_ZN8opendnp312NullTaskLock7ReleaseERNS_17IScheduleCallbackE
	ldr	x21, [sp, 32]
	.cfi_restore 21
	ldr	x2, [x0]
	ldr	x1, [x1, #:got_lo12:_ZN8opendnp312NullTaskLock7ReleaseERNS_17IScheduleCallbackE]
	ldr	x2, [x2, 8]
	cmp	x2, x1
	beq	.L778
.L784:
	add	x1, x19, 8
	blr	x2
	mov	x0, x19
	ldp	x19, x20, [sp, 16]
	ldp	x29, x30, [sp], 48
	.cfi_remember_state
	.cfi_restore 30
	.cfi_restore 29
	.cfi_restore 19
	.cfi_restore 20
	.cfi_def_cfa_offset 0
	b	_ZN8opendnp38MContext16PostCheckForTaskEv
	.p2align 2,,3
.L782:
	.cfi_restore_state
	mov	x1, x20
	add	x0, x19, 376
	bl	_ZN8opendnp315MasterScheduler8ScheduleERKSt10shared_ptrINS_11IMasterTaskEE
.L771:
	ldr	x0, [x19, 160]
	adrp	x1, :got:_ZN8opendnp312NullTaskLock7ReleaseERNS_17IScheduleCallbackE
	ldr	x1, [x1, #:got_lo12:_ZN8opendnp312NullTaskLock7ReleaseERNS_17IScheduleCallbackE]
	ldr	x2, [x0]
	ldr	x2, [x2, 8]
	cmp	x2, x1
	bne	.L784
.L778:
	mov	x0, x19
	ldp	x19, x20, [sp, 16]
	ldp	x29, x30, [sp], 48
	.cfi_remember_state
	.cfi_restore 30
	.cfi_restore 29
	.cfi_restore 19
	.cfi_restore 20
	.cfi_def_cfa_offset 0
	b	_ZN8opendnp38MContext16PostCheckForTaskEv
	.p2align 2,,3
.L768:
	.cfi_restore_state
	ldp	x19, x20, [sp, 16]
	ldp	x29, x30, [sp], 48
	.cfi_restore 30
	.cfi_restore 29
	.cfi_restore 19
	.cfi_restore 20
	.cfi_def_cfa_offset 0
	ret
	.p2align 2,,3
.L783:
	.cfi_def_cfa_offset 48
	.cfi_offset 19, -32
	.cfi_offset 20, -24
	.cfi_offset 21, -16
	.cfi_offset 29, -48
	.cfi_offset 30, -40
	ldr	x1, [x20]
	mov	x0, x20
	ldr	x1, [x1, 16]
	blr	x1
	ldr	x21, [x21, #:got_lo12:__libc_single_threaded]
	ldrb	w0, [x21]
	cbz	w0, .L776
	ldr	w0, [x20, 12]
	sub	w1, w0, #1
	str	w1, [x20, 12]
.L777:
	cmp	w0, 1
	bne	.L781
	ldr	x1, [x20]
	mov	x0, x20
	ldr	x1, [x1, 24]
	blr	x1
	ldr	x21, [sp, 32]
	.cfi_remember_state
	.cfi_restore 21
	b	.L771
	.p2align 2,,3
.L773:
	.cfi_restore_state
	add	x1, x20, 8
	mov	w0, -1
	bl	__aarch64_ldadd4_acq_rel
	b	.L774
	.p2align 2,,3
.L776:
	add	x1, x20, 12
	mov	w0, -1
	bl	__aarch64_ldadd4_acq_rel
	b	.L777
	.cfi_endproc
.LFE3480:
	.size	_ZN8opendnp38MContext18CompleteActiveTaskEv, .-_ZN8opendnp38MContext18CompleteActiveTaskEv
	.section	.text._ZN8opendnp38MContext13OnPendingTaskEv,"axG",@progbits,_ZN8opendnp38MContext13OnPendingTaskEv,comdat
	.align	2
	.p2align 4,,11
	.weak	_ZThn8_N8opendnp38MContext13OnPendingTaskEv
	.type	_ZThn8_N8opendnp38MContext13OnPendingTaskEv, %function
_ZThn8_N8opendnp38MContext13OnPendingTaskEv:
.LFB5235:
	.cfi_startproc
	sub	x0, x0, #8
	b	_ZN8opendnp38MContext16PostCheckForTaskEv
	.cfi_endproc
.LFE5235:
	.size	_ZThn8_N8opendnp38MContext13OnPendingTaskEv, .-_ZThn8_N8opendnp38MContext13OnPendingTaskEv
	.text
	.align	2
	.p2align 4,,11
	.global	_ZN8opendnp38MContext25ScheduleRecurringPollTaskERKSt10shared_ptrINS_11IMasterTaskEE
	.type	_ZN8opendnp38MContext25ScheduleRecurringPollTaskERKSt10shared_ptrINS_11IMasterTaskEE, %function
_ZN8opendnp38MContext25ScheduleRecurringPollTaskERKSt10shared_ptrINS_11IMasterTaskEE:
.LFB3555:
	.cfi_startproc
	stp	x29, x30, [sp, -32]!
	.cfi_def_cfa_offset 32
	.cfi_offset 29, -32
	.cfi_offset 30, -24
	mov	x29, sp
	stp	x19, x20, [sp, 16]
	.cfi_offset 19, -16
	.cfi_offset 20, -8
	mov	x19, x0
	mov	x20, x1
	add	x0, x0, 240
	bl	_ZN8opendnp311MasterTasks8BindTaskERKSt10shared_ptrINS_11IMasterTaskEE
	ldrb	w0, [x19, 168]
	cbnz	w0, .L789
	ldp	x19, x20, [sp, 16]
	ldp	x29, x30, [sp], 32
	.cfi_remember_state
	.cfi_restore 30
	.cfi_restore 29
	.cfi_restore 19
	.cfi_restore 20
	.cfi_def_cfa_offset 0
	ret
	.p2align 2,,3
.L789:
	.cfi_restore_state
	mov	x1, x20
	add	x0, x19, 376
	bl	_ZN8opendnp315MasterScheduler8ScheduleERKSt10shared_ptrINS_11IMasterTaskEE
	mov	x0, x19
	ldp	x19, x20, [sp, 16]
	ldp	x29, x30, [sp], 32
	.cfi_restore 30
	.cfi_restore 29
	.cfi_restore 19
	.cfi_restore 20
	.cfi_def_cfa_offset 0
	b	_ZN8opendnp38MContext16PostCheckForTaskEv
	.cfi_endproc
.LFE3555:
	.size	_ZN8opendnp38MContext25ScheduleRecurringPollTaskERKSt10shared_ptrINS_11IMasterTaskEE, .-_ZN8opendnp38MContext25ScheduleRecurringPollTaskERKSt10shared_ptrINS_11IMasterTaskEE
	.align	2
	.p2align 4,,11
	.global	_ZN8opendnp38MContext16ResumeActiveTaskEv
	.type	_ZN8opendnp38MContext16ResumeActiveTaskEv, %function
_ZN8opendnp38MContext16ResumeActiveTaskEv:
.LFB3561:
	.cfi_startproc
	stp	x29, x30, [sp, -112]!
	.cfi_def_cfa_offset 112
	.cfi_offset 29, -112
	.cfi_offset 30, -104
	adrp	x2, :got:__stack_chk_guard
	adrp	x1, :got:_ZN8opendnp312NullTaskLock7AcquireERNS_17IScheduleCallbackE
	mov	x29, sp
	stp	x19, x20, [sp, 16]
	.cfi_offset 19, -96
	.cfi_offset 20, -88
	mov	x19, x0
	ldr	x0, [x0, 160]
	ldr	x2, [x2, #:got_lo12:__stack_chk_guard]
	ldr	x1, [x1, #:got_lo12:_ZN8opendnp312NullTaskLock7AcquireERNS_17IScheduleCallbackE]
	ldr	x3, [x2]
	str	x3, [sp, 104]
	mov	x3, 0
	ldr	x2, [x0]
	ldr	x2, [x2]
	cmp	x2, x1
	bne	.L791
.L794:
	add	x0, x19, 488
	str	x21, [sp, 32]
	.cfi_offset 21, -80
	bl	_ZN7openpal6Buffer9GetWSliceEv
	mov	x2, x0
	mov	x3, x1
	add	x20, sp, 64
	add	x21, sp, 48
	mov	x0, x20
	mov	x1, x21
	stp	x2, x3, [sp, 48]
	bl	_ZN8opendnp311APDURequestC1ERKN7openpal6WSliceE
	ldr	x0, [x19, 176]
	mov	x1, x20
	ldrb	w2, [x19, 170]
	ldr	x3, [x0]
	ldr	x3, [x3, 56]
	blr	x3
	tst	w0, 255
	bne	.L801
	ldr	x0, [x19, 56]
	ldr	x20, [x19, 176]
	ldr	x1, [x0]
	ldr	x1, [x1, 16]
	blr	x1
	mov	x1, x0
	mov	x0, x20
	bl	_ZN8opendnp311IMasterTask15OnInternalErrorEN7openpal18MonotonicTimestampE
	mov	x0, x19
	bl	_ZN8opendnp38MContext18CompleteActiveTaskEv
	ldr	x21, [sp, 32]
	.cfi_restore 21
	mov	w0, 0
.L790:
	adrp	x1, :got:__stack_chk_guard
	ldr	x1, [x1, #:got_lo12:__stack_chk_guard]
	ldr	x3, [sp, 104]
	ldr	x2, [x1]
	subs	x3, x3, x2
	mov	x2, 0
	bne	.L802
	ldp	x19, x20, [sp, 16]
	ldp	x29, x30, [sp], 112
	.cfi_remember_state
	.cfi_restore 30
	.cfi_restore 29
	.cfi_restore 19
	.cfi_restore 20
	.cfi_def_cfa_offset 0
	ret
	.p2align 2,,3
.L791:
	.cfi_restore_state
	add	x1, x19, 8
	blr	x2
	tst	w0, 255
	bne	.L794
	mov	w0, 1
	b	.L790
	.p2align 2,,3
.L801:
	.cfi_offset 21, -80
	mov	x0, x19
	bl	_ZN8opendnp38MContext18StartResponseTimerEv
	mov	x0, x20
	bl	_ZNK8opendnp311APDUWrapper8ToRSliceEv
	ldr	x2, [x19]
	mov	x5, x1
	adrp	x1, :got:_ZN8opendnp38MContext17RecordLastRequestERKN7openpal6RSliceE
	mov	x4, x0
	stp	x4, x5, [sp, 48]
	ldr	x1, [x1, #:got_lo12:_ZN8opendnp38MContext17RecordLastRequestERKN7openpal6RSliceE]
	ldr	x2, [x2, 56]
	cmp	x2, x1
	bne	.L803
.L797:
	mov	x1, x21
	mov	x0, x19
	bl	_ZN8opendnp38MContext8TransmitERKN7openpal6RSliceE
	mov	w0, 2
	ldr	x21, [sp, 32]
	.cfi_remember_state
	.cfi_restore 21
	b	.L790
	.p2align 2,,3
.L803:
	.cfi_restore_state
	mov	x1, x21
	mov	x0, x19
	blr	x2
	b	.L797
.L802:
	.cfi_restore 21
	str	x21, [sp, 32]
	.cfi_offset 21, -80
	bl	__stack_chk_fail
	.cfi_endproc
.LFE3561:
	.size	_ZN8opendnp38MContext16ResumeActiveTaskEv, .-_ZN8opendnp38MContext16ResumeActiveTaskEv
	.section	.rodata.str1.8
	.align	3
.LC3:
	.string	"Begining task: %s"
	.align	3
.LC4:
	.string	"/home/jaehyun/OpenPLC_v3/utils/dnp3_src/cpp/libs/src/opendnp3/master/MasterContext.cpp(477)"
	.text
	.align	2
	.p2align 4,,11
	.global	_ZN8opendnp38MContext12BeginNewTaskERKSt10shared_ptrINS_11IMasterTaskEE
	.type	_ZN8opendnp38MContext12BeginNewTaskERKSt10shared_ptrINS_11IMasterTaskEE, %function
_ZN8opendnp38MContext12BeginNewTaskERKSt10shared_ptrINS_11IMasterTaskEE:
.LFB3558:
	.cfi_startproc
	stp	x29, x30, [sp, -208]!
	.cfi_def_cfa_offset 208
	.cfi_offset 29, -208
	.cfi_offset 30, -200
	mov	x29, sp
	stp	x19, x20, [sp, 16]
	.cfi_offset 19, -192
	.cfi_offset 20, -184
	mov	x19, x0
	adrp	x0, :got:__stack_chk_guard
	stp	x21, x22, [sp, 32]
	ldr	x0, [x0, #:got_lo12:__stack_chk_guard]
	.cfi_offset 21, -176
	.cfi_offset 22, -168
	ldr	x21, [x19, 184]
	ldr	x2, [x0]
	str	x2, [sp, 200]
	mov	x2, 0
	ldp	x0, x20, [x1]
	str	x0, [x19, 176]
	cmp	x20, x21
	beq	.L805
	cbz	x20, .L806
	adrp	x22, :got:__libc_single_threaded
	ldr	x1, [x22, #:got_lo12:__libc_single_threaded]
	ldrb	w1, [x1]
	cbz	w1, .L807
	ldr	w1, [x20, 8]
	add	w1, w1, 1
	str	w1, [x20, 8]
	cbz	x21, .L809
.L808:
	ldr	w0, [x21, 8]
	sub	w1, w0, #1
	str	w1, [x21, 8]
	cmp	w0, 1
	beq	.L813
.L827:
	ldr	x0, [x19, 176]
.L809:
	str	x20, [x19, 184]
.L805:
	bl	_ZN8opendnp311IMasterTask7OnStartEv
	add	x21, x19, 24
	add	x22, sp, 72
	mov	w20, 8
	mov	x0, x21
	mov	x1, x22
	str	w20, [sp, 72]
	bl	_ZNK7openpal6Logger9IsEnabledERKNS_10LogFiltersE
	tst	w0, 255
	beq	.L817
	ldr	x0, [x19, 176]
	ldr	x1, [x0]
	ldr	x1, [x1, 24]
	str	x23, [sp, 48]
	.cfi_offset 23, -160
	add	x23, sp, 80
	blr	x1
	mov	x5, x0
	adrp	x4, .LC3
	add	x4, x4, :lo12:.LC3
	mov	x3, 120
	mov	x0, x23
	mov	x1, x3
	mov	w2, 1
	bl	__snprintf_chk
	str	w20, [sp, 72]
	mov	x3, x23
	mov	x1, x22
	mov	x0, x21
	adrp	x2, .LC4
	add	x2, x2, :lo12:.LC4
	bl	_ZN7openpal6Logger3LogERKNS_10LogFiltersEPKcS5_
	ldr	x23, [sp, 48]
	.cfi_restore 23
.L817:
	adrp	x0, :got:__stack_chk_guard
	ldr	x0, [x0, #:got_lo12:__stack_chk_guard]
	ldr	x2, [sp, 200]
	ldr	x1, [x0]
	subs	x2, x2, x1
	mov	x1, 0
	bne	.L828
	mov	x0, x19
	ldp	x19, x20, [sp, 16]
	ldp	x21, x22, [sp, 32]
	ldp	x29, x30, [sp], 208
	.cfi_remember_state
	.cfi_restore 30
	.cfi_restore 29
	.cfi_restore 21
	.cfi_restore 22
	.cfi_restore 19
	.cfi_restore 20
	.cfi_def_cfa_offset 0
	b	_ZN8opendnp38MContext16ResumeActiveTaskEv
	.p2align 2,,3
.L807:
	.cfi_restore_state
	add	x1, x20, 8
	mov	w0, 1
	bl	__aarch64_ldadd4_acq_rel
	ldr	x21, [x19, 184]
.L806:
	cbz	x21, .L827
	adrp	x22, :got:__libc_single_threaded
	ldr	x0, [x22, #:got_lo12:__libc_single_threaded]
	ldrb	w0, [x0]
	cbnz	w0, .L808
	add	x1, x21, 8
	mov	w0, -1
	bl	__aarch64_ldadd4_acq_rel
	cmp	w0, 1
	bne	.L827
.L813:
	ldr	x1, [x21]
	mov	x0, x21
	ldr	x1, [x1, 16]
	blr	x1
	ldr	x22, [x22, #:got_lo12:__libc_single_threaded]
	ldrb	w0, [x22]
	cbz	w0, .L814
	ldr	w0, [x21, 12]
	sub	w1, w0, #1
	str	w1, [x21, 12]
.L815:
	cmp	w0, 1
	bne	.L827
	ldr	x1, [x21]
	mov	x0, x21
	ldr	x1, [x1, 24]
	blr	x1
	ldr	x0, [x19, 176]
	b	.L809
	.p2align 2,,3
.L814:
	add	x1, x21, 12
	mov	w0, -1
	bl	__aarch64_ldadd4_acq_rel
	b	.L815
.L828:
	str	x23, [sp, 48]
	.cfi_offset 23, -160
	bl	__stack_chk_fail
	.cfi_endproc
.LFE3558:
	.size	_ZN8opendnp38MContext12BeginNewTaskERKSt10shared_ptrINS_11IMasterTaskEE, .-_ZN8opendnp38MContext12BeginNewTaskERKSt10shared_ptrINS_11IMasterTaskEE
	.align	2
	.p2align 4,,11
	.global	_ZN8opendnp38MContext19StartTask_TaskReadyEv
	.type	_ZN8opendnp38MContext19StartTask_TaskReadyEv, %function
_ZN8opendnp38MContext19StartTask_TaskReadyEv:
.LFB3567:
	.cfi_startproc
	ldrb	w1, [x0, 169]
	cbz	w1, .L831
	mov	w0, 1
	ret
	.p2align 2,,3
.L831:
	b	_ZN8opendnp38MContext16ResumeActiveTaskEv
	.cfi_endproc
.LFE3567:
	.size	_ZN8opendnp38MContext19StartTask_TaskReadyEv, .-_ZN8opendnp38MContext19StartTask_TaskReadyEv
	.section	.rodata.str1.8
	.align	3
.LC5:
	.string	"Response with bad sequence: %u"
	.align	3
.LC6:
	.string	"/home/jaehyun/OpenPLC_v3/utils/dnp3_src/cpp/libs/src/opendnp3/master/MasterContext.cpp(589)"
	.text
	.align	2
	.p2align 4,,11
	.global	_ZN8opendnp38MContext26OnResponse_WaitForResponseERKNS_18APDUResponseHeaderERKN7openpal6RSliceE
	.type	_ZN8opendnp38MContext26OnResponse_WaitForResponseERKNS_18APDUResponseHeaderERKN7openpal6RSliceE, %function
_ZN8opendnp38MContext26OnResponse_WaitForResponseERKNS_18APDUResponseHeaderERKN7openpal6RSliceE:
.LFB3568:
	.cfi_startproc
	stp	x29, x30, [sp, -208]!
	.cfi_def_cfa_offset 208
	.cfi_offset 29, -208
	.cfi_offset 30, -200
	adrp	x3, :got:__stack_chk_guard
	mov	x29, sp
	ldr	x3, [x3, #:got_lo12:__stack_chk_guard]
	stp	x19, x20, [sp, 16]
	.cfi_offset 19, -192
	.cfi_offset 20, -184
	mov	x19, x0
	stp	x21, x22, [sp, 32]
	mov	x20, x1
	.cfi_offset 21, -176
	.cfi_offset 22, -168
	mov	x21, x2
	ldrb	w1, [x1, 5]
	ldr	x2, [x3]
	str	x2, [sp, 200]
	mov	x2, 0
	ldrb	w0, [x0, 170]
	cmp	w1, w0
	bne	.L849
	add	x0, x19, 192
	bl	_ZN7openpal8TimerRef6CancelEv
	ldrb	w1, [x19, 170]
	ldr	x0, [x19, 56]
	add	w1, w1, 1
	and	w1, w1, 15
	strb	w1, [x19, 170]
	ldr	x1, [x0]
	ldr	x1, [x1, 16]
	blr	x1
	mov	x3, x0
	ldr	x0, [x19, 176]
	mov	x2, x21
	mov	x1, x20
	bl	_ZN8opendnp311IMasterTask10OnResponseERKNS_18APDUResponseHeaderERKN7openpal6RSliceENS4_18MonotonicTimestampE
	and	w21, w0, 255
	ldrb	w1, [x20, 3]
	cbnz	w1, .L850
	cmp	w21, 3
	beq	.L836
.L851:
	cmp	w21, 4
	bne	.L837
	mov	x0, x19
	mov	w21, 2
	bl	_ZN8opendnp38MContext18StartResponseTimerEv
.L832:
	adrp	x0, :got:__stack_chk_guard
	ldr	x0, [x0, #:got_lo12:__stack_chk_guard]
	ldr	x2, [sp, 200]
	ldr	x1, [x0]
	subs	x2, x2, x1
	mov	x1, 0
	bne	.L848
	mov	w0, w21
	ldp	x19, x20, [sp, 16]
	ldp	x21, x22, [sp, 32]
	ldp	x29, x30, [sp], 208
	.cfi_remember_state
	.cfi_restore 30
	.cfi_restore 29
	.cfi_restore 21
	.cfi_restore 22
	.cfi_restore 19
	.cfi_restore 20
	.cfi_def_cfa_offset 0
	ret
	.p2align 2,,3
.L837:
	.cfi_restore_state
	mov	x0, x19
	mov	w21, 0
	bl	_ZN8opendnp38MContext18CompleteActiveTaskEv
	b	.L832
	.p2align 2,,3
.L836:
	adrp	x0, :got:__stack_chk_guard
	ldr	x0, [x0, #:got_lo12:__stack_chk_guard]
	ldr	x2, [sp, 200]
	ldr	x1, [x0]
	subs	x2, x2, x1
	mov	x1, 0
	bne	.L848
	mov	x0, x19
	ldp	x19, x20, [sp, 16]
	ldp	x21, x22, [sp, 32]
	ldp	x29, x30, [sp], 208
	.cfi_remember_state
	.cfi_restore 30
	.cfi_restore 29
	.cfi_restore 21
	.cfi_restore 22
	.cfi_restore 19
	.cfi_restore 20
	.cfi_def_cfa_offset 0
	b	_ZN8opendnp38MContext19StartTask_TaskReadyEv
	.p2align 2,,3
.L850:
	.cfi_restore_state
	ldrb	w0, [x20, 5]
	bl	_ZN8opendnp310APDUHeader16SolicitedConfirmEh
	mov	x2, x0
	strb	w2, [sp, 72]
	add	x1, sp, 72
	ubfx	x6, x2, 8, 8
	ubfx	x5, x2, 16, 8
	lsr	w4, w2, 24
	ubfx	x3, x2, 32, 8
	ubfx	x2, x2, 40, 8
	mov	x0, x19
	strb	w6, [sp, 73]
	strb	w5, [sp, 74]
	strb	w4, [sp, 75]
	strb	w3, [sp, 76]
	strb	w2, [sp, 77]
	bl	_ZN8opendnp38MContext12QueueConfirmERKNS_10APDUHeaderE
	cmp	w21, 3
	bne	.L851
	b	.L836
	.p2align 2,,3
.L849:
	add	x19, x19, 24
	str	x23, [sp, 48]
	.cfi_offset 23, -160
	add	x23, sp, 72
	mov	w22, 4
	mov	x0, x19
	mov	x1, x23
	mov	w21, 2
	str	w22, [sp, 72]
	bl	_ZNK7openpal6Logger9IsEnabledERKNS_10LogFiltersE
	tst	w0, 255
	bne	.L852
	ldr	x23, [sp, 48]
	.cfi_restore 23
	b	.L832
	.p2align 2,,3
.L852:
	.cfi_offset 23, -160
	ldrb	w5, [x20, 5]
	adrp	x4, .LC5
	add	x4, x4, :lo12:.LC5
	add	x20, sp, 80
	mov	x3, 120
	mov	w2, 1
	mov	x1, x3
	mov	x0, x20
	bl	__snprintf_chk
	str	w22, [sp, 72]
	mov	x1, x23
	mov	x3, x20
	mov	x0, x19
	adrp	x2, .LC6
	add	x2, x2, :lo12:.LC6
	bl	_ZN7openpal6Logger3LogERKNS_10LogFiltersEPKcS5_
	ldr	x23, [sp, 48]
	.cfi_restore 23
	b	.L832
.L848:
	str	x23, [sp, 48]
	.cfi_offset 23, -160
	bl	__stack_chk_fail
	.cfi_endproc
.LFE3568:
	.size	_ZN8opendnp38MContext26OnResponse_WaitForResponseERKNS_18APDUResponseHeaderERKN7openpal6RSliceE, .-_ZN8opendnp38MContext26OnResponse_WaitForResponseERKNS_18APDUResponseHeaderERKN7openpal6RSliceE
	.section	.rodata.str1.8
	.align	3
.LC7:
	.string	"Not expecting a response, sequence: %u"
	.align	3
.LC8:
	.string	"/home/jaehyun/OpenPLC_v3/utils/dnp3_src/cpp/libs/src/opendnp3/master/MasterContext.cpp(515)"
	.text
	.align	2
	.p2align 4,,11
	.global	_ZN8opendnp38MContext15OnResponseEventERKNS_18APDUResponseHeaderERKN7openpal6RSliceE
	.type	_ZN8opendnp38MContext15OnResponseEventERKNS_18APDUResponseHeaderERKN7openpal6RSliceE, %function
_ZN8opendnp38MContext15OnResponseEventERKNS_18APDUResponseHeaderERKN7openpal6RSliceE:
.LFB3562:
	.cfi_startproc
	stp	x29, x30, [sp, -208]!
	.cfi_def_cfa_offset 208
	.cfi_offset 29, -208
	.cfi_offset 30, -200
	adrp	x3, :got:__stack_chk_guard
	mov	x29, sp
	ldr	x3, [x3, #:got_lo12:__stack_chk_guard]
	ldr	w4, [x0, 512]
	ldr	x5, [x3]
	str	x5, [sp, 200]
	mov	x5, 0
	cmp	w4, 2
	beq	.L862
	stp	x21, x22, [sp, 32]
	.cfi_offset 22, -168
	.cfi_offset 21, -176
	add	x22, x0, 24
	mov	w21, 4
	str	x23, [sp, 48]
	.cfi_offset 23, -160
	add	x23, sp, 72
	stp	x19, x20, [sp, 16]
	.cfi_offset 20, -184
	.cfi_offset 19, -192
	mov	x19, x0
	mov	x20, x1
	mov	x0, x22
	mov	x1, x23
	str	w21, [sp, 72]
	bl	_ZNK7openpal6Logger9IsEnabledERKNS_10LogFiltersE
	tst	w0, 255
	bne	.L863
.L856:
	adrp	x1, :got:__stack_chk_guard
	ldr	w0, [x19, 512]
	ldr	x1, [x1, #:got_lo12:__stack_chk_guard]
	ldr	x3, [sp, 200]
	ldr	x2, [x1]
	subs	x3, x3, x2
	mov	x2, 0
	bne	.L864
	ldp	x19, x20, [sp, 16]
	.cfi_remember_state
	.cfi_restore 20
	.cfi_restore 19
	ldp	x21, x22, [sp, 32]
	.cfi_restore 22
	.cfi_restore 21
	ldr	x23, [sp, 48]
	.cfi_restore 23
	ldp	x29, x30, [sp], 208
	.cfi_restore 30
	.cfi_restore 29
	.cfi_def_cfa_offset 0
	ret
	.p2align 2,,3
.L863:
	.cfi_restore_state
	ldrb	w5, [x20, 5]
	adrp	x4, .LC7
	add	x4, x4, :lo12:.LC7
	add	x20, sp, 80
	mov	x3, 120
	mov	x0, x20
	mov	x1, x3
	mov	w2, 1
	bl	__snprintf_chk
	str	w21, [sp, 72]
	mov	x3, x20
	mov	x1, x23
	mov	x0, x22
	adrp	x2, .LC8
	add	x2, x2, :lo12:.LC8
	bl	_ZN7openpal6Logger3LogERKNS_10LogFiltersEPKcS5_
	b	.L856
	.p2align 2,,3
.L862:
	.cfi_restore 19
	.cfi_restore 20
	.cfi_restore 21
	.cfi_restore 22
	.cfi_restore 23
	adrp	x3, :got:__stack_chk_guard
	ldr	x3, [x3, #:got_lo12:__stack_chk_guard]
	ldr	x5, [sp, 200]
	ldr	x4, [x3]
	subs	x5, x5, x4
	mov	x4, 0
	bne	.L865
	ldp	x29, x30, [sp], 208
	.cfi_restore 30
	.cfi_restore 29
	.cfi_def_cfa_offset 0
	b	_ZN8opendnp38MContext26OnResponse_WaitForResponseERKNS_18APDUResponseHeaderERKN7openpal6RSliceE
.L864:
	.cfi_def_cfa_offset 208
	.cfi_offset 19, -192
	.cfi_offset 20, -184
	.cfi_offset 21, -176
	.cfi_offset 22, -168
	.cfi_offset 23, -160
	.cfi_offset 29, -208
	.cfi_offset 30, -200
	bl	__stack_chk_fail
.L865:
	.cfi_restore 19
	.cfi_restore 20
	.cfi_restore 21
	.cfi_restore 22
	.cfi_restore 23
	stp	x19, x20, [sp, 16]
	.cfi_offset 20, -184
	.cfi_offset 19, -192
	stp	x21, x22, [sp, 32]
	.cfi_offset 22, -168
	.cfi_offset 21, -176
	str	x23, [sp, 48]
	.cfi_offset 23, -160
	bl	__stack_chk_fail
	.cfi_endproc
.LFE3562:
	.size	_ZN8opendnp38MContext15OnResponseEventERKNS_18APDUResponseHeaderERKN7openpal6RSliceE, .-_ZN8opendnp38MContext15OnResponseEventERKNS_18APDUResponseHeaderERKN7openpal6RSliceE
	.align	2
	.p2align 4,,11
	.global	_ZN8opendnp38MContext15ProcessResponseERKNS_18APDUResponseHeaderERKN7openpal6RSliceE
	.type	_ZN8opendnp38MContext15ProcessResponseERKNS_18APDUResponseHeaderERKN7openpal6RSliceE, %function
_ZN8opendnp38MContext15ProcessResponseERKNS_18APDUResponseHeaderERKN7openpal6RSliceE:
.LFB3488:
	.cfi_startproc
	stp	x29, x30, [sp, -32]!
	.cfi_def_cfa_offset 32
	.cfi_offset 29, -32
	.cfi_offset 30, -24
	mov	x29, sp
	stp	x19, x20, [sp, 16]
	.cfi_offset 19, -16
	.cfi_offset 20, -8
	mov	x19, x0
	mov	x20, x1
	bl	_ZN8opendnp38MContext15OnResponseEventERKNS_18APDUResponseHeaderERKN7openpal6RSliceE
	mov	w2, w0
	str	w2, [x19, 512]
	add	x1, x20, 6
	mov	x0, x19
	ldp	x19, x20, [sp, 16]
	ldp	x29, x30, [sp], 32
	.cfi_restore 30
	.cfi_restore 29
	.cfi_restore 19
	.cfi_restore 20
	.cfi_def_cfa_offset 0
	b	_ZN8opendnp38MContext10ProcessIINERKNS_8IINFieldE
	.cfi_endproc
.LFE3488:
	.size	_ZN8opendnp38MContext15ProcessResponseERKNS_18APDUResponseHeaderERKN7openpal6RSliceE, .-_ZN8opendnp38MContext15ProcessResponseERKNS_18APDUResponseHeaderERKN7openpal6RSliceE
	.section	.rodata.str1.8
	.align	3
.LC9:
	.string	"Ignoring unsupported function code: %s"
	.align	3
.LC10:
	.string	"/home/jaehyun/OpenPLC_v3/utils/dnp3_src/cpp/libs/src/opendnp3/master/MasterContext.cpp(220)"
	.text
	.align	2
	.p2align 4,,11
	.global	_ZN8opendnp38MContext11ProcessAPDUERKNS_18APDUResponseHeaderERKN7openpal6RSliceE
	.type	_ZN8opendnp38MContext11ProcessAPDUERKNS_18APDUResponseHeaderERKN7openpal6RSliceE, %function
_ZN8opendnp38MContext11ProcessAPDUERKNS_18APDUResponseHeaderERKN7openpal6RSliceE:
.LFB3485:
	.cfi_startproc
	stp	x29, x30, [sp, -192]!
	.cfi_def_cfa_offset 192
	.cfi_offset 29, -192
	.cfi_offset 30, -184
	adrp	x3, :got:__stack_chk_guard
	mov	x29, sp
	ldr	x4, [x3, #:got_lo12:__stack_chk_guard]
	ldrb	w5, [x1]
	ldr	x6, [x4]
	str	x6, [sp, 184]
	mov	x6, 0
	cmp	w5, 129
	beq	.L869
	cmp	w5, 130
	bne	.L870
	adrp	x3, :got:__stack_chk_guard
	ldr	x3, [x3, #:got_lo12:__stack_chk_guard]
	ldr	x5, [sp, 184]
	ldr	x4, [x3]
	subs	x5, x5, x4
	mov	x4, 0
	bne	.L879
	ldp	x29, x30, [sp], 192
	.cfi_remember_state
	.cfi_restore 30
	.cfi_restore 29
	.cfi_def_cfa_offset 0
	b	_ZN8opendnp38MContext26ProcessUnsolicitedResponseERKNS_18APDUResponseHeaderERKN7openpal6RSliceE
	.p2align 2,,3
.L869:
	.cfi_restore_state
	adrp	x3, :got:__stack_chk_guard
	ldr	x3, [x3, #:got_lo12:__stack_chk_guard]
	ldr	x5, [sp, 184]
	ldr	x4, [x3]
	subs	x5, x5, x4
	mov	x4, 0
	bne	.L879
	ldp	x29, x30, [sp], 192
	.cfi_remember_state
	.cfi_restore 30
	.cfi_restore 29
	.cfi_def_cfa_offset 0
	b	_ZN8opendnp38MContext15ProcessResponseERKNS_18APDUResponseHeaderERKN7openpal6RSliceE
	.p2align 2,,3
.L870:
	.cfi_restore_state
	stp	x19, x20, [sp, 16]
	.cfi_offset 20, -168
	.cfi_offset 19, -176
	add	x20, x0, 24
	mov	x19, x1
	stp	x21, x22, [sp, 32]
	.cfi_offset 22, -152
	.cfi_offset 21, -160
	add	x22, sp, 56
	mov	w21, 4
	mov	x0, x20
	mov	x1, x22
	str	w21, [sp, 56]
	bl	_ZNK7openpal6Logger9IsEnabledERKNS_10LogFiltersE
	tst	w0, 255
	bne	.L880
.L868:
	adrp	x0, :got:__stack_chk_guard
	ldr	x0, [x0, #:got_lo12:__stack_chk_guard]
	ldr	x2, [sp, 184]
	ldr	x1, [x0]
	subs	x2, x2, x1
	mov	x1, 0
	bne	.L881
	ldp	x19, x20, [sp, 16]
	.cfi_remember_state
	.cfi_restore 20
	.cfi_restore 19
	ldp	x21, x22, [sp, 32]
	.cfi_restore 22
	.cfi_restore 21
	ldp	x29, x30, [sp], 192
	.cfi_restore 30
	.cfi_restore 29
	.cfi_def_cfa_offset 0
	ret
	.p2align 2,,3
.L880:
	.cfi_restore_state
	ldrb	w0, [x19]
	add	x19, sp, 64
	bl	_ZN8opendnp320FunctionCodeToStringENS_12FunctionCodeE
	mov	x5, x0
	adrp	x4, .LC9
	add	x4, x4, :lo12:.LC9
	mov	x3, 120
	mov	x0, x19
	mov	x1, x3
	mov	w2, 1
	bl	__snprintf_chk
	str	w21, [sp, 56]
	mov	x3, x19
	mov	x1, x22
	mov	x0, x20
	adrp	x2, .LC10
	add	x2, x2, :lo12:.LC10
	bl	_ZN7openpal6Logger3LogERKNS_10LogFiltersEPKcS5_
	b	.L868
.L879:
	.cfi_restore 19
	.cfi_restore 20
	.cfi_restore 21
	.cfi_restore 22
	stp	x19, x20, [sp, 16]
	.cfi_offset 20, -168
	.cfi_offset 19, -176
	stp	x21, x22, [sp, 32]
	.cfi_offset 22, -152
	.cfi_offset 21, -160
	bl	__stack_chk_fail
.L881:
	bl	__stack_chk_fail
	.cfi_endproc
.LFE3485:
	.size	_ZN8opendnp38MContext11ProcessAPDUERKNS_18APDUResponseHeaderERKN7openpal6RSliceE, .-_ZN8opendnp38MContext11ProcessAPDUERKNS_18APDUResponseHeaderERKN7openpal6RSliceE
	.align	2
	.p2align 4,,11
	.global	_ZN8opendnp38MContext14OnParsedHeaderERKN7openpal6RSliceERKNS_18APDUResponseHeaderES4_
	.type	_ZN8opendnp38MContext14OnParsedHeaderERKN7openpal6RSliceERKNS_18APDUResponseHeaderES4_, %function
_ZN8opendnp38MContext14OnParsedHeaderERKN7openpal6RSliceERKNS_18APDUResponseHeaderES4_:
.LFB3481:
	.cfi_startproc
	mov	x1, x2
	mov	x2, x3
	b	_ZN8opendnp38MContext11ProcessAPDUERKNS_18APDUResponseHeaderERKN7openpal6RSliceE
	.cfi_endproc
.LFE3481:
	.size	_ZN8opendnp38MContext14OnParsedHeaderERKN7openpal6RSliceERKNS_18APDUResponseHeaderES4_, .-_ZN8opendnp38MContext14OnParsedHeaderERKN7openpal6RSliceERKNS_18APDUResponseHeaderES4_
	.set	_ZN8opendnp38MContext14OnParsedHeaderERKN7openpal6RSliceERKNS_18APDUResponseHeaderES4_.localalias,_ZN8opendnp38MContext14OnParsedHeaderERKN7openpal6RSliceERKNS_18APDUResponseHeaderES4_
	.section	.rodata.str1.8
	.align	3
.LC11:
	.string	"Ignorning rx data while offline"
	.align	3
.LC12:
	.string	"/home/jaehyun/OpenPLC_v3/utils/dnp3_src/cpp/libs/src/opendnp3/master/MasterContext.cpp(118)"
	.align	3
.LC13:
	.string	"FIR: %i FIN: %i CON: %i UNS: %i SEQ: %i FUNC: %s IIN: [0x%02x, 0x%02x]"
	.align	3
.LC14:
	.string	"/home/jaehyun/OpenPLC_v3/utils/dnp3_src/cpp/libs/src/opendnp3/master/MasterContext.cpp(129)"
	.text
	.align	2
	.p2align 4,,11
	.global	_ZN8opendnp38MContext9OnReceiveERKN7openpal6RSliceE
	.type	_ZN8opendnp38MContext9OnReceiveERKN7openpal6RSliceE, %function
_ZN8opendnp38MContext9OnReceiveERKN7openpal6RSliceE:
.LFB3476:
	.cfi_startproc
	sub	sp, sp, #320
	.cfi_def_cfa_offset 320
	adrp	x2, :got:__stack_chk_guard
	stp	x29, x30, [sp, 48]
	.cfi_offset 29, -272
	.cfi_offset 30, -264
	add	x29, sp, 48
	ldr	x2, [x2, #:got_lo12:__stack_chk_guard]
	stp	x19, x20, [sp, 64]
	.cfi_offset 19, -256
	.cfi_offset 20, -248
	mov	x19, x0
	stp	x21, x22, [sp, 80]
	.cfi_offset 21, -240
	.cfi_offset 22, -232
	add	x22, x0, 24
	ldrb	w21, [x0, 168]
	ldr	x0, [x2]
	str	x0, [sp, 312]
	mov	x0, 0
	cbz	w21, .L903
	mov	x6, 255
	mov	w5, 0
	mov	w4, 0
	mov	w3, 0
	mov	w2, 1
	mov	x20, x1
	add	x0, sp, 169
	mov	w1, w2
	stp	x23, x24, [sp, 96]
	.cfi_offset 24, -216
	.cfi_offset 23, -224
	add	x23, sp, 168
	str	x6, [sp, 168]
	bl	_ZN8opendnp315AppControlFieldC1Ebbbbh
	mov	x1, x23
	mov	x2, x22
	mov	x0, x20
	strh	wzr, [sp, 174]
	bl	_ZN8opendnp316APDUHeaderParser13ParseResponseERKN7openpal6RSliceERNS_18APDUResponseHeaderEPNS1_6LoggerE
	tst	w0, 255
	bne	.L904
	ldp	x23, x24, [sp, 96]
	.cfi_restore 24
	.cfi_restore 23
.L885:
	adrp	x0, :got:__stack_chk_guard
	ldr	x0, [x0, #:got_lo12:__stack_chk_guard]
	ldr	x2, [sp, 312]
	ldr	x1, [x0]
	subs	x2, x2, x1
	mov	x1, 0
	bne	.L905
	mov	w0, w21
	ldp	x29, x30, [sp, 48]
	ldp	x19, x20, [sp, 64]
	ldp	x21, x22, [sp, 80]
	add	sp, sp, 320
	.cfi_restore 29
	.cfi_restore 30
	.cfi_restore 21
	.cfi_restore 22
	.cfi_restore 19
	.cfi_restore 20
	.cfi_def_cfa_offset 0
	ret
	.p2align 2,,3
.L904:
	.cfi_def_cfa_offset 320
	.cfi_offset 19, -256
	.cfi_offset 20, -248
	.cfi_offset 21, -240
	.cfi_offset 22, -232
	.cfi_offset 23, -224
	.cfi_offset 24, -216
	.cfi_offset 29, -272
	.cfi_offset 30, -264
	add	x24, sp, 176
	mov	x0, x22
	mov	x1, x24
	stp	x25, x26, [sp, 112]
	.cfi_offset 26, -200
	.cfi_offset 25, -208
	mov	w25, 2048
	str	w25, [sp, 176]
	bl	_ZNK7openpal6Logger9IsEnabledERKNS_10LogFiltersE
	tst	w0, 255
	bne	.L906
.L887:
	ldr	x2, [x19]
	mov	x0, x20
	mov	w1, 4
	ldr	x22, [x2, 48]
	bl	_ZNK7openpal6RSlice4SkipEj
	mov	x3, x1
	mov	x2, x0
	adrp	x1, _ZN8opendnp38MContext14OnParsedHeaderERKN7openpal6RSliceERKNS_18APDUResponseHeaderES4_.localalias
	add	x1, x1, :lo12:_ZN8opendnp38MContext14OnParsedHeaderERKN7openpal6RSliceERKNS_18APDUResponseHeaderES4_.localalias
	stp	x2, x3, [sp, 176]
	cmp	x22, x1
	bne	.L888
	mov	x2, x24
	mov	x1, x23
	mov	x0, x19
	bl	_ZN8opendnp38MContext11ProcessAPDUERKNS_18APDUResponseHeaderERKN7openpal6RSliceE
	ldp	x23, x24, [sp, 96]
	.cfi_restore 24
	.cfi_restore 23
	ldp	x25, x26, [sp, 112]
	.cfi_restore 26
	.cfi_restore 25
	b	.L885
	.p2align 2,,3
.L903:
	add	x20, sp, 176
	mov	w19, 2
	mov	x1, x20
	mov	x0, x22
	str	w19, [sp, 176]
	bl	_ZNK7openpal6Logger9IsEnabledERKNS_10LogFiltersE
	tst	w0, 255
	beq	.L885
	mov	x1, x20
	mov	x0, x22
	adrp	x3, .LC11
	adrp	x2, .LC12
	add	x3, x3, :lo12:.LC11
	add	x2, x2, :lo12:.LC12
	str	w19, [sp, 176]
	bl	_ZN7openpal6Logger3LogERKNS_10LogFiltersEPKcS5_
	b	.L885
	.p2align 2,,3
.L906:
	.cfi_offset 23, -224
	.cfi_offset 24, -216
	.cfi_offset 25, -208
	.cfi_offset 26, -200
	ldrb	w5, [sp, 169]
	add	x26, sp, 192
	ldrb	w6, [sp, 170]
	ldrb	w7, [sp, 171]
	ldrb	w0, [sp, 168]
	stp	x27, x28, [sp, 128]
	.cfi_offset 28, -184
	.cfi_offset 27, -192
	ldrb	w28, [sp, 172]
	ldrb	w27, [sp, 173]
	stp	w7, w6, [sp, 148]
	str	w5, [sp, 156]
	bl	_ZN8opendnp320FunctionCodeToStringENS_12FunctionCodeE
	ldrb	w8, [sp, 175]
	mov	x1, x0
	ldp	w7, w6, [sp, 148]
	adrp	x4, .LC13
	ldr	w5, [sp, 156]
	add	x4, x4, :lo12:.LC13
	ldrb	w2, [sp, 174]
	mov	x3, 120
	str	w28, [sp]
	mov	x0, x26
	str	w27, [sp, 8]
	str	x1, [sp, 16]
	mov	x1, x3
	str	w2, [sp, 24]
	mov	w2, 1
	str	w8, [sp, 32]
	bl	__snprintf_chk
	str	w25, [sp, 176]
	mov	x3, x26
	mov	x0, x22
	mov	x1, x24
	adrp	x2, .LC14
	add	x2, x2, :lo12:.LC14
	bl	_ZN7openpal6Logger3LogERKNS_10LogFiltersEPKcS5_
	ldp	x27, x28, [sp, 128]
	.cfi_restore 28
	.cfi_restore 27
	b	.L887
	.p2align 2,,3
.L888:
	mov	x3, x24
	mov	x2, x23
	mov	x1, x20
	mov	x0, x19
	blr	x22
	ldp	x23, x24, [sp, 96]
	.cfi_restore 24
	.cfi_restore 23
	ldp	x25, x26, [sp, 112]
	.cfi_restore 26
	.cfi_restore 25
	b	.L885
.L905:
	stp	x23, x24, [sp, 96]
	.cfi_offset 24, -216
	.cfi_offset 23, -224
	stp	x25, x26, [sp, 112]
	.cfi_offset 26, -200
	.cfi_offset 25, -208
	stp	x27, x28, [sp, 128]
	.cfi_offset 28, -184
	.cfi_offset 27, -192
	bl	__stack_chk_fail
	.cfi_endproc
.LFE3476:
	.size	_ZN8opendnp38MContext9OnReceiveERKN7openpal6RSliceE, .-_ZN8opendnp38MContext9OnReceiveERKN7openpal6RSliceE
	.align	2
	.p2align 4,,11
	.global	_ZN8opendnp38MContext33OnResponseTimeout_WaitForResponseEv
	.type	_ZN8opendnp38MContext33OnResponseTimeout_WaitForResponseEv, %function
_ZN8opendnp38MContext33OnResponseTimeout_WaitForResponseEv:
.LFB3569:
	.cfi_startproc
	stp	x29, x30, [sp, -32]!
	.cfi_def_cfa_offset 32
	.cfi_offset 29, -32
	.cfi_offset 30, -24
	mov	x29, sp
	str	x19, [sp, 16]
	.cfi_offset 19, -16
	mov	x19, x0
	ldr	x0, [x0, 56]
	ldr	x1, [x0]
	ldr	x1, [x1, 16]
	blr	x1
	mov	x1, x0
	ldr	x0, [x19, 176]
	bl	_ZN8opendnp311IMasterTask17OnResponseTimeoutEN7openpal18MonotonicTimestampE
	ldrb	w1, [x19, 170]
	mov	x0, x19
	add	w1, w1, 1
	and	w1, w1, 15
	strb	w1, [x19, 170]
	bl	_ZN8opendnp38MContext18CompleteActiveTaskEv
	mov	w0, 0
	ldr	x19, [sp, 16]
	ldp	x29, x30, [sp], 32
	.cfi_restore 30
	.cfi_restore 29
	.cfi_restore 19
	.cfi_def_cfa_offset 0
	ret
	.cfi_endproc
.LFE3569:
	.size	_ZN8opendnp38MContext33OnResponseTimeout_WaitForResponseEv, .-_ZN8opendnp38MContext33OnResponseTimeout_WaitForResponseEv
	.section	.rodata.str1.8
	.align	3
.LC15:
	.string	"Unexpected response timeout"
	.align	3
.LC16:
	.string	"/home/jaehyun/OpenPLC_v3/utils/dnp3_src/cpp/libs/src/opendnp3/master/MasterContext.cpp(540)"
	.text
	.align	2
	.p2align 4,,11
	.global	_ZN8opendnp38MContext22OnResponseTimeoutEventEv
	.type	_ZN8opendnp38MContext22OnResponseTimeoutEventEv, %function
_ZN8opendnp38MContext22OnResponseTimeoutEventEv:
.LFB3564:
	.cfi_startproc
	stp	x29, x30, [sp, -64]!
	.cfi_def_cfa_offset 64
	.cfi_offset 29, -64
	.cfi_offset 30, -56
	adrp	x1, :got:__stack_chk_guard
	mov	x29, sp
	ldr	x1, [x1, #:got_lo12:__stack_chk_guard]
	ldr	w2, [x0, 512]
	ldr	x3, [x1]
	str	x3, [sp, 56]
	mov	x3, 0
	cmp	w2, 2
	beq	.L918
	stp	x21, x22, [sp, 32]
	.cfi_offset 22, -24
	.cfi_offset 21, -32
	add	x21, x0, 24
	add	x22, sp, 48
	mov	x1, x22
	stp	x19, x20, [sp, 16]
	.cfi_offset 20, -40
	.cfi_offset 19, -48
	mov	x19, x0
	mov	w20, 2
	mov	x0, x21
	str	w20, [sp, 48]
	bl	_ZNK7openpal6Logger9IsEnabledERKNS_10LogFiltersE
	tst	w0, 255
	bne	.L919
.L912:
	adrp	x1, :got:__stack_chk_guard
	ldr	w0, [x19, 512]
	ldr	x1, [x1, #:got_lo12:__stack_chk_guard]
	ldr	x3, [sp, 56]
	ldr	x2, [x1]
	subs	x3, x3, x2
	mov	x2, 0
	bne	.L920
	ldp	x19, x20, [sp, 16]
	.cfi_remember_state
	.cfi_restore 20
	.cfi_restore 19
	ldp	x21, x22, [sp, 32]
	.cfi_restore 22
	.cfi_restore 21
	ldp	x29, x30, [sp], 64
	.cfi_restore 30
	.cfi_restore 29
	.cfi_def_cfa_offset 0
	ret
	.p2align 2,,3
.L919:
	.cfi_restore_state
	mov	x1, x22
	mov	x0, x21
	adrp	x3, .LC15
	adrp	x2, .LC16
	add	x3, x3, :lo12:.LC15
	add	x2, x2, :lo12:.LC16
	str	w20, [sp, 48]
	bl	_ZN7openpal6Logger3LogERKNS_10LogFiltersEPKcS5_
	b	.L912
	.p2align 2,,3
.L918:
	.cfi_restore 19
	.cfi_restore 20
	.cfi_restore 21
	.cfi_restore 22
	adrp	x1, :got:__stack_chk_guard
	ldr	x1, [x1, #:got_lo12:__stack_chk_guard]
	ldr	x3, [sp, 56]
	ldr	x2, [x1]
	subs	x3, x3, x2
	mov	x2, 0
	bne	.L921
	ldp	x29, x30, [sp], 64
	.cfi_restore 30
	.cfi_restore 29
	.cfi_def_cfa_offset 0
	b	_ZN8opendnp38MContext33OnResponseTimeout_WaitForResponseEv
.L920:
	.cfi_def_cfa_offset 64
	.cfi_offset 19, -48
	.cfi_offset 20, -40
	.cfi_offset 21, -32
	.cfi_offset 22, -24
	.cfi_offset 29, -64
	.cfi_offset 30, -56
	bl	__stack_chk_fail
.L921:
	.cfi_restore 19
	.cfi_restore 20
	.cfi_restore 21
	.cfi_restore 22
	stp	x19, x20, [sp, 16]
	.cfi_offset 20, -40
	.cfi_offset 19, -48
	stp	x21, x22, [sp, 32]
	.cfi_offset 22, -24
	.cfi_offset 21, -32
	bl	__stack_chk_fail
	.cfi_endproc
.LFE3564:
	.size	_ZN8opendnp38MContext22OnResponseTimeoutEventEv, .-_ZN8opendnp38MContext22OnResponseTimeoutEventEv
	.align	2
	.p2align 4,,11
	.global	_ZN8opendnp38MContext17OnResponseTimeoutEv
	.type	_ZN8opendnp38MContext17OnResponseTimeoutEv, %function
_ZN8opendnp38MContext17OnResponseTimeoutEv:
.LFB3479:
	.cfi_startproc
	ldrb	w1, [x0, 168]
	cbnz	w1, .L931
	ret
	.p2align 2,,3
.L931:
	stp	x29, x30, [sp, -32]!
	.cfi_def_cfa_offset 32
	.cfi_offset 29, -32
	.cfi_offset 30, -24
	mov	x29, sp
	str	x19, [sp, 16]
	.cfi_offset 19, -16
	mov	x19, x0
	bl	_ZN8opendnp38MContext22OnResponseTimeoutEventEv
	str	w0, [x19, 512]
	ldr	x19, [sp, 16]
	ldp	x29, x30, [sp], 32
	.cfi_restore 30
	.cfi_restore 29
	.cfi_restore 19
	.cfi_def_cfa_offset 0
	ret
	.cfi_endproc
.LFE3479:
	.size	_ZN8opendnp38MContext17OnResponseTimeoutEv, .-_ZN8opendnp38MContext17OnResponseTimeoutEv
	.align	2
	.p2align 4,,11
	.type	_ZNSt17_Function_handlerIFvvEZN7openpal8TimerRef5StartIZN8opendnp38MContext18StartResponseTimerEvEUlvE_EEbRKNS1_12TimeDurationERKT_EUlvE_E9_M_invokeERKSt9_Any_data, %function
_ZNSt17_Function_handlerIFvvEZN7openpal8TimerRef5StartIZN8opendnp38MContext18StartResponseTimerEvEUlvE_EEbRKNS1_12TimeDurationERKT_EUlvE_E9_M_invokeERKSt9_Any_data:
.LFB4447:
	.cfi_startproc
	ldp	x1, x0, [x0]
	str	xzr, [x1, 8]
	b	_ZN8opendnp38MContext17OnResponseTimeoutEv
	.cfi_endproc
.LFE4447:
	.size	_ZNSt17_Function_handlerIFvvEZN7openpal8TimerRef5StartIZN8opendnp38MContext18StartResponseTimerEvEUlvE_EEbRKNS1_12TimeDurationERKT_EUlvE_E9_M_invokeERKSt9_Any_data, .-_ZNSt17_Function_handlerIFvvEZN7openpal8TimerRef5StartIZN8opendnp38MContext18StartResponseTimerEvEUlvE_EEbRKNS1_12TimeDurationERKT_EUlvE_E9_M_invokeERKSt9_Any_data
	.section	.text._ZNSt6vectorISt10shared_ptrIN8opendnp311IMasterTaskEESaIS3_EED2Ev,"axG",@progbits,_ZNSt6vectorISt10shared_ptrIN8opendnp311IMasterTaskEESaIS3_EED5Ev,comdat
	.align	2
	.p2align 4,,11
	.weak	_ZNSt6vectorISt10shared_ptrIN8opendnp311IMasterTaskEESaIS3_EED2Ev
	.type	_ZNSt6vectorISt10shared_ptrIN8opendnp311IMasterTaskEESaIS3_EED2Ev, %function
_ZNSt6vectorISt10shared_ptrIN8opendnp311IMasterTaskEESaIS3_EED2Ev:
.LFB3907:
	.cfi_startproc
	stp	x29, x30, [sp, -64]!
	.cfi_def_cfa_offset 64
	.cfi_offset 29, -64
	.cfi_offset 30, -56
	mov	x29, sp
	stp	x19, x20, [sp, 16]
	stp	x21, x22, [sp, 32]
	.cfi_offset 19, -48
	.cfi_offset 20, -40
	.cfi_offset 21, -32
	.cfi_offset 22, -24
	ldp	x19, x21, [x0]
	str	x23, [sp, 48]
	.cfi_offset 23, -16
	mov	x23, x0
	cmp	x19, x21
	beq	.L934
	adrp	x22, :got:__libc_single_threaded
	ldr	x22, [x22, #:got_lo12:__libc_single_threaded]
	b	.L942
	.p2align 2,,3
.L936:
	add	x19, x19, 16
	cmp	x21, x19
	beq	.L946
.L942:
	ldr	x20, [x19, 8]
	cbz	x20, .L936
	ldrb	w1, [x22]
	cbz	w1, .L937
	ldr	w0, [x20, 8]
	sub	w1, w0, #1
	str	w1, [x20, 8]
.L938:
	cmp	w0, 1
	bne	.L936
	ldr	x1, [x20]
	mov	x0, x20
	ldr	x1, [x1, 16]
	blr	x1
	ldrb	w0, [x22]
	cbz	w0, .L940
	ldr	w0, [x20, 12]
	sub	w1, w0, #1
	str	w1, [x20, 12]
.L941:
	cmp	w0, 1
	bne	.L936
	ldr	x1, [x20]
	mov	x0, x20
	add	x19, x19, 16
	ldr	x1, [x1, 24]
	blr	x1
	cmp	x21, x19
	bne	.L942
	.p2align 3,,7
.L946:
	ldr	x21, [x23]
.L934:
	cbz	x21, .L933
	ldr	x1, [x23, 16]
	mov	x0, x21
	ldp	x19, x20, [sp, 16]
	sub	x1, x1, x21
	ldp	x21, x22, [sp, 32]
	ldr	x23, [sp, 48]
	ldp	x29, x30, [sp], 64
	.cfi_remember_state
	.cfi_restore 30
	.cfi_restore 29
	.cfi_restore 23
	.cfi_restore 21
	.cfi_restore 22
	.cfi_restore 19
	.cfi_restore 20
	.cfi_def_cfa_offset 0
	b	_ZdlPvm
	.p2align 2,,3
.L937:
	.cfi_restore_state
	add	x1, x20, 8
	mov	w0, -1
	bl	__aarch64_ldadd4_acq_rel
	b	.L938
	.p2align 2,,3
.L940:
	add	x1, x20, 12
	mov	w0, -1
	bl	__aarch64_ldadd4_acq_rel
	b	.L941
	.p2align 2,,3
.L933:
	ldp	x19, x20, [sp, 16]
	ldp	x21, x22, [sp, 32]
	ldr	x23, [sp, 48]
	ldp	x29, x30, [sp], 64
	.cfi_restore 30
	.cfi_restore 29
	.cfi_restore 23
	.cfi_restore 21
	.cfi_restore 22
	.cfi_restore 19
	.cfi_restore 20
	.cfi_def_cfa_offset 0
	ret
	.cfi_endproc
.LFE3907:
	.size	_ZNSt6vectorISt10shared_ptrIN8opendnp311IMasterTaskEESaIS3_EED2Ev, .-_ZNSt6vectorISt10shared_ptrIN8opendnp311IMasterTaskEESaIS3_EED2Ev
	.weak	_ZNSt6vectorISt10shared_ptrIN8opendnp311IMasterTaskEESaIS3_EED1Ev
	.set	_ZNSt6vectorISt10shared_ptrIN8opendnp311IMasterTaskEESaIS3_EED1Ev,_ZNSt6vectorISt10shared_ptrIN8opendnp311IMasterTaskEESaIS3_EED2Ev
	.section	.text._ZNSt16_Sp_counted_baseILN9__gnu_cxx12_Lock_policyE2EE10_M_releaseEv,"axG",@progbits,_ZNSt16_Sp_counted_baseILN9__gnu_cxx12_Lock_policyE2EE10_M_releaseEv,comdat
	.align	2
	.p2align 4,,11
	.weak	_ZNSt16_Sp_counted_baseILN9__gnu_cxx12_Lock_policyE2EE10_M_releaseEv
	.type	_ZNSt16_Sp_counted_baseILN9__gnu_cxx12_Lock_policyE2EE10_M_releaseEv, %function
_ZNSt16_Sp_counted_baseILN9__gnu_cxx12_Lock_policyE2EE10_M_releaseEv:
.LFB4146:
	.cfi_startproc
	stp	x29, x30, [sp, -32]!
	.cfi_def_cfa_offset 32
	.cfi_offset 29, -32
	.cfi_offset 30, -24
	mov	x29, sp
	stp	x19, x20, [sp, 16]
	.cfi_offset 19, -16
	.cfi_offset 20, -8
	adrp	x20, :got:__libc_single_threaded
	mov	x19, x0
	ldr	x0, [x20, #:got_lo12:__libc_single_threaded]
	ldrb	w0, [x0]
	cbz	w0, .L948
	ldr	w0, [x19, 8]
	sub	w1, w0, #1
	str	w1, [x19, 8]
.L949:
	cmp	w0, 1
	beq	.L956
.L947:
	ldp	x19, x20, [sp, 16]
	ldp	x29, x30, [sp], 32
	.cfi_remember_state
	.cfi_restore 30
	.cfi_restore 29
	.cfi_restore 19
	.cfi_restore 20
	.cfi_def_cfa_offset 0
	ret
	.p2align 2,,3
.L956:
	.cfi_restore_state
	ldr	x1, [x19]
	mov	x0, x19
	ldr	x1, [x1, 16]
	blr	x1
	ldr	x20, [x20, #:got_lo12:__libc_single_threaded]
	ldrb	w0, [x20]
	cbz	w0, .L952
	ldr	w0, [x19, 12]
	sub	w1, w0, #1
	str	w1, [x19, 12]
.L953:
	cmp	w0, 1
	bne	.L947
	ldr	x1, [x19]
	mov	x0, x19
	ldp	x19, x20, [sp, 16]
	ldp	x29, x30, [sp], 32
	.cfi_remember_state
	.cfi_restore 30
	.cfi_restore 29
	.cfi_restore 19
	.cfi_restore 20
	.cfi_def_cfa_offset 0
	ldr	x1, [x1, 24]
	mov	x16, x1
	br	x16
	.p2align 2,,3
.L948:
	.cfi_restore_state
	add	x1, x19, 8
	mov	w0, -1
	bl	__aarch64_ldadd4_acq_rel
	b	.L949
	.p2align 2,,3
.L952:
	add	x1, x19, 12
	mov	w0, -1
	bl	__aarch64_ldadd4_acq_rel
	b	.L953
	.cfi_endproc
.LFE4146:
	.size	_ZNSt16_Sp_counted_baseILN9__gnu_cxx12_Lock_policyE2EE10_M_releaseEv, .-_ZNSt16_Sp_counted_baseILN9__gnu_cxx12_Lock_policyE2EE10_M_releaseEv
	.text
	.align	2
	.p2align 4,,11
	.global	_ZN8opendnp38MContext14StartTask_IdleEv
	.type	_ZN8opendnp38MContext14StartTask_IdleEv, %function
_ZN8opendnp38MContext14StartTask_IdleEv:
.LFB3565:
	.cfi_startproc
	.cfi_personality 0x9b,DW.ref.__gxx_personality_v0
	.cfi_lsda 0x1b,.LLSDA3565
	stp	x29, x30, [sp, -128]!
	.cfi_def_cfa_offset 128
	.cfi_offset 29, -128
	.cfi_offset 30, -120
	adrp	x1, :got:__stack_chk_guard
	mov	x29, sp
	ldr	x1, [x1, #:got_lo12:__stack_chk_guard]
	stp	x19, x20, [sp, 16]
	.cfi_offset 19, -112
	.cfi_offset 20, -104
	mov	x19, x0
	ldrb	w0, [x0, 169]
	ldr	x2, [x1]
	str	x2, [sp, 120]
	mov	x2, 0
	mov	w20, 0
	cbz	w0, .L991
.L957:
	adrp	x1, :got:__stack_chk_guard
	ldr	x1, [x1, #:got_lo12:__stack_chk_guard]
	ldr	x0, [sp, 120]
	ldr	x2, [x1]
	subs	x0, x0, x2
	mov	x2, 0
	bne	.L992
	mov	w0, w20
	ldp	x19, x20, [sp, 16]
	ldp	x29, x30, [sp], 128
	.cfi_remember_state
	.cfi_restore 30
	.cfi_restore 29
	.cfi_restore 19
	.cfi_restore 20
	.cfi_def_cfa_offset 0
	ret
	.p2align 2,,3
.L991:
	.cfi_restore_state
	str	x21, [sp, 32]
	.cfi_offset 21, -96
	add	x21, sp, 56
	mov	x0, x21
.LEHB10:
	bl	_ZN7openpal18MonotonicTimestampC1Ev
	ldr	x0, [x19, 56]
	add	x20, sp, 72
	ldr	x1, [x0]
	ldr	x1, [x1, 16]
	blr	x1
	mov	x3, x0
	mov	x2, x21
	add	x0, x19, 376
	mov	x8, x20
	add	x1, sp, 64
	str	x3, [sp, 64]
	bl	_ZN8opendnp315MasterScheduler7GetNextERKN7openpal18MonotonicTimestampERS2_
.LEHE10:
	ldr	x0, [sp, 72]
	cbz	x0, .L959
	mov	x1, x20
	mov	x0, x19
.LEHB11:
	bl	_ZN8opendnp38MContext12BeginNewTaskERKSt10shared_ptrINS_11IMasterTaskEE
	mov	w20, w0
.L960:
	ldr	x19, [sp, 80]
	cbz	x19, .L990
	adrp	x21, :got:__libc_single_threaded
	ldr	x0, [x21, #:got_lo12:__libc_single_threaded]
	ldrb	w0, [x0]
	cbz	w0, .L967
	ldr	w0, [x19, 8]
	sub	w1, w0, #1
	str	w1, [x19, 8]
.L968:
	cmp	w0, 1
	bne	.L990
	ldr	x1, [x19]
	mov	x0, x19
	ldr	x1, [x1, 16]
	blr	x1
	ldr	x21, [x21, #:got_lo12:__libc_single_threaded]
	ldrb	w0, [x21]
	cbz	w0, .L970
	ldr	w0, [x19, 12]
	sub	w1, w0, #1
	str	w1, [x19, 12]
.L971:
	cmp	w0, 1
	beq	.L993
	.p2align 3,,7
.L990:
	ldr	x21, [sp, 32]
	.cfi_remember_state
	.cfi_restore 21
	b	.L957
	.p2align 2,,3
.L967:
	.cfi_restore_state
	add	x1, x19, 8
	mov	w0, -1
	bl	__aarch64_ldadd4_acq_rel
	b	.L968
	.p2align 2,,3
.L959:
	mov	x0, x21
	bl	_ZNK7openpal18MonotonicTimestamp5IsMaxEv
.LEHE11:
	mov	w20, 0
	tst	w0, 255
	bne	.L960
	adrp	x3, _ZNSt17_Function_handlerIFvvEZN7openpal8TimerRef7RestartIZN8opendnp38MContext14StartTask_IdleEvEUlvE_EEvRKNS1_18MonotonicTimestampERKT_EUlvE_E9_M_invokeERKSt9_Any_data
	adrp	x4, _ZNSt17_Function_handlerIFvvEZN7openpal8TimerRef7RestartIZN8opendnp38MContext14StartTask_IdleEvEUlvE_EEvRKNS1_18MonotonicTimestampERKT_EUlvE_E10_M_managerERSt9_Any_dataRKSF_St18_Manager_operation
	add	x3, x3, :lo12:_ZNSt17_Function_handlerIFvvEZN7openpal8TimerRef7RestartIZN8opendnp38MContext14StartTask_IdleEvEUlvE_EEvRKNS1_18MonotonicTimestampERKT_EUlvE_E9_M_invokeERKSt9_Any_data
	add	x4, x4, :lo12:_ZNSt17_Function_handlerIFvvEZN7openpal8TimerRef7RestartIZN8opendnp38MContext14StartTask_IdleEvEUlvE_EEvRKNS1_18MonotonicTimestampERKT_EUlvE_E10_M_managerERSt9_Any_dataRKSF_St18_Manager_operation
	add	x20, sp, 88
	add	x0, x19, 208
	mov	x1, x21
	mov	x2, x20
	stp	x0, x19, [sp, 88]
	stp	x4, x3, [sp, 104]
.LEHB12:
	bl	_ZN7openpal8TimerRef13RestartActionERKNS_18MonotonicTimestampERKSt8functionIFvvEE
.LEHE12:
	ldr	x3, [sp, 104]
	cbz	x3, .L961
	mov	x1, x20
	mov	x0, x20
	mov	w2, 3
	blr	x3
.L961:
	mov	w20, 0
	b	.L960
	.p2align 2,,3
.L993:
	ldr	x1, [x19]
	mov	x0, x19
	ldr	x1, [x1, 24]
	blr	x1
	ldr	x21, [sp, 32]
	.cfi_remember_state
	.cfi_restore 21
	b	.L957
	.p2align 2,,3
.L970:
	.cfi_restore_state
	add	x1, x19, 12
	mov	w0, -1
	bl	__aarch64_ldadd4_acq_rel
	b	.L971
.L992:
	.cfi_restore 21
	str	x21, [sp, 32]
	.cfi_offset 21, -96
	bl	__stack_chk_fail
.L977:
	ldr	x3, [sp, 104]
	mov	x19, x0
	cbz	x3, .L964
	mov	x1, x20
	mov	x0, x20
	mov	w2, 3
	blr	x3
.L964:
	ldr	x0, [sp, 80]
	cbz	x0, .L972
	bl	_ZNSt16_Sp_counted_baseILN9__gnu_cxx12_Lock_policyE2EE10_M_releaseEv
.L972:
	mov	x0, x19
.LEHB13:
	bl	_Unwind_Resume
.LEHE13:
.L976:
	mov	x19, x0
	b	.L964
	.cfi_endproc
.LFE3565:
	.section	.gcc_except_table
.LLSDA3565:
	.byte	0xff
	.byte	0xff
	.byte	0x1
	.uleb128 .LLSDACSE3565-.LLSDACSB3565
.LLSDACSB3565:
	.uleb128 .LEHB10-.LFB3565
	.uleb128 .LEHE10-.LEHB10
	.uleb128 0
	.uleb128 0
	.uleb128 .LEHB11-.LFB3565
	.uleb128 .LEHE11-.LEHB11
	.uleb128 .L976-.LFB3565
	.uleb128 0
	.uleb128 .LEHB12-.LFB3565
	.uleb128 .LEHE12-.LEHB12
	.uleb128 .L977-.LFB3565
	.uleb128 0
	.uleb128 .LEHB13-.LFB3565
	.uleb128 .LEHE13-.LEHB13
	.uleb128 0
	.uleb128 0
.LLSDACSE3565:
	.text
	.size	_ZN8opendnp38MContext14StartTask_IdleEv, .-_ZN8opendnp38MContext14StartTask_IdleEv
	.align	2
	.p2align 4,,11
	.global	_ZN8opendnp38MContext12OnStartEventEv
	.type	_ZN8opendnp38MContext12OnStartEventEv, %function
_ZN8opendnp38MContext12OnStartEventEv:
.LFB3563:
	.cfi_startproc
	ldr	w1, [x0, 512]
	cbz	w1, .L995
	cmp	w1, 1
	beq	.L996
	mov	w0, w1
	ret
	.p2align 2,,3
.L995:
	b	_ZN8opendnp38MContext14StartTask_IdleEv
	.p2align 2,,3
.L996:
	b	_ZN8opendnp38MContext19StartTask_TaskReadyEv
	.cfi_endproc
.LFE3563:
	.size	_ZN8opendnp38MContext12OnStartEventEv, .-_ZN8opendnp38MContext12OnStartEventEv
	.align	2
	.p2align 4,,11
	.global	_ZN8opendnp38MContext12CheckForTaskEv
	.type	_ZN8opendnp38MContext12CheckForTaskEv, %function
_ZN8opendnp38MContext12CheckForTaskEv:
.LFB3478:
	.cfi_startproc
	ldrb	w1, [x0, 168]
	cbnz	w1, .L1008
	ret
	.p2align 2,,3
.L1008:
	stp	x29, x30, [sp, -32]!
	.cfi_def_cfa_offset 32
	.cfi_offset 29, -32
	.cfi_offset 30, -24
	mov	x29, sp
	str	x19, [sp, 16]
	.cfi_offset 19, -16
	mov	x19, x0
	bl	_ZN8opendnp38MContext12OnStartEventEv
	str	w0, [x19, 512]
	ldr	x19, [sp, 16]
	ldp	x29, x30, [sp], 32
	.cfi_restore 30
	.cfi_restore 29
	.cfi_restore 19
	.cfi_def_cfa_offset 0
	ret
	.cfi_endproc
.LFE3478:
	.size	_ZN8opendnp38MContext12CheckForTaskEv, .-_ZN8opendnp38MContext12CheckForTaskEv
	.align	2
	.p2align 4,,11
	.type	_ZNSt17_Function_handlerIFvvEZN8opendnp38MContext16PostCheckForTaskEvEUlvE_E9_M_invokeERKSt9_Any_data, %function
_ZNSt17_Function_handlerIFvvEZN8opendnp38MContext16PostCheckForTaskEvEUlvE_E9_M_invokeERKSt9_Any_data:
.LFB4248:
	.cfi_startproc
	ldr	x0, [x0]
	b	_ZN8opendnp38MContext12CheckForTaskEv
	.cfi_endproc
.LFE4248:
	.size	_ZNSt17_Function_handlerIFvvEZN8opendnp38MContext16PostCheckForTaskEvEUlvE_E9_M_invokeERKSt9_Any_data, .-_ZNSt17_Function_handlerIFvvEZN8opendnp38MContext16PostCheckForTaskEvEUlvE_E9_M_invokeERKSt9_Any_data
	.align	2
	.p2align 4,,11
	.global	_ZN8opendnp38MContext17ScheduleAdhocTaskERKSt10shared_ptrINS_11IMasterTaskEE
	.type	_ZN8opendnp38MContext17ScheduleAdhocTaskERKSt10shared_ptrINS_11IMasterTaskEE, %function
_ZN8opendnp38MContext17ScheduleAdhocTaskERKSt10shared_ptrINS_11IMasterTaskEE:
.LFB3556:
	.cfi_startproc
	stp	x29, x30, [sp, -64]!
	.cfi_def_cfa_offset 64
	.cfi_offset 29, -64
	.cfi_offset 30, -56
	adrp	x2, :got:__stack_chk_guard
	mov	x29, sp
	ldr	x2, [x2, #:got_lo12:__stack_chk_guard]
	stp	x19, x20, [sp, 16]
	.cfi_offset 19, -48
	.cfi_offset 20, -40
	mov	x19, x0
	ldr	x0, [x0, 56]
	str	x21, [sp, 32]
	.cfi_offset 21, -32
	mov	x20, x1
	ldr	x1, [x2]
	str	x1, [sp, 56]
	mov	x1, 0
	ldr	x1, [x0]
	ldr	x1, [x1, 16]
	blr	x1
	mov	x2, x0
	ldr	x21, [x20]
	add	x1, x19, 112
	add	x0, sp, 48
	str	x2, [sp, 48]
	bl	_ZNK7openpal18MonotonicTimestamp3AddERKNS_12TimeDurationE
	mov	x1, x0
	mov	x0, x21
	bl	_ZN8opendnp311IMasterTask24ConfigureStartExpirationEN7openpal18MonotonicTimestampE
	ldrb	w0, [x19, 168]
	cbz	w0, .L1011
	ldr	x1, [x19]
	adrp	x0, :got:_ZN8opendnp38MContext21MeetsUserRequirementsERKSt10shared_ptrINS_11IMasterTaskEE
	ldr	x0, [x0, #:got_lo12:_ZN8opendnp38MContext21MeetsUserRequirementsERKSt10shared_ptrINS_11IMasterTaskEE]
	ldr	x2, [x1, 64]
	cmp	x2, x0
	bne	.L1012
.L1014:
	mov	x1, x20
	add	x0, x19, 376
	bl	_ZN8opendnp315MasterScheduler8ScheduleERKSt10shared_ptrINS_11IMasterTaskEE
	mov	x0, x19
	bl	_ZN8opendnp38MContext12CheckForTaskEv
.L1010:
	adrp	x0, :got:__stack_chk_guard
	ldr	x0, [x0, #:got_lo12:__stack_chk_guard]
	ldr	x2, [sp, 56]
	ldr	x1, [x0]
	subs	x2, x2, x1
	mov	x1, 0
	bne	.L1017
	ldp	x19, x20, [sp, 16]
	ldr	x21, [sp, 32]
	ldp	x29, x30, [sp], 64
	.cfi_remember_state
	.cfi_restore 30
	.cfi_restore 29
	.cfi_restore 21
	.cfi_restore 19
	.cfi_restore 20
	.cfi_def_cfa_offset 0
	ret
	.p2align 2,,3
.L1011:
	.cfi_restore_state
	ldr	x0, [x20]
	ldr	x1, [sp, 48]
	bl	_ZN8opendnp311IMasterTask17OnLowerLayerCloseEN7openpal18MonotonicTimestampE
	b	.L1010
	.p2align 2,,3
.L1012:
	mov	x1, x20
	mov	x0, x19
	blr	x2
	tst	w0, 255
	bne	.L1014
	ldr	x0, [x20]
	ldr	x1, [sp, 48]
	bl	_ZN8opendnp311IMasterTask8OnNoUserEN7openpal18MonotonicTimestampE
	b	.L1010
.L1017:
	bl	__stack_chk_fail
	.cfi_endproc
.LFE3556:
	.size	_ZN8opendnp38MContext17ScheduleAdhocTaskERKSt10shared_ptrINS_11IMasterTaskEE, .-_ZN8opendnp38MContext17ScheduleAdhocTaskERKSt10shared_ptrINS_11IMasterTaskEE
	.align	2
	.p2align 4,,11
	.type	_ZNSt17_Function_handlerIFvvEZN7openpal8TimerRef7RestartIZN8opendnp38MContext14StartTask_IdleEvEUlvE_EEvRKNS1_18MonotonicTimestampERKT_EUlvE_E9_M_invokeERKSt9_Any_data, %function
_ZNSt17_Function_handlerIFvvEZN7openpal8TimerRef7RestartIZN8opendnp38MContext14StartTask_IdleEvEUlvE_EEvRKNS1_18MonotonicTimestampERKT_EUlvE_E9_M_invokeERKSt9_Any_data:
.LFB4538:
	.cfi_startproc
	ldp	x1, x0, [x0]
	str	xzr, [x1, 8]
	b	_ZN8opendnp38MContext12CheckForTaskEv
	.cfi_endproc
.LFE4538:
	.size	_ZNSt17_Function_handlerIFvvEZN7openpal8TimerRef7RestartIZN8opendnp38MContext14StartTask_IdleEvEUlvE_EEvRKNS1_18MonotonicTimestampERKT_EUlvE_E9_M_invokeERKSt9_Any_data, .-_ZNSt17_Function_handlerIFvvEZN7openpal8TimerRef7RestartIZN8opendnp38MContext14StartTask_IdleEvEUlvE_EEvRKNS1_18MonotonicTimestampERKT_EUlvE_E9_M_invokeERKSt9_Any_data
	.align	2
	.p2align 4,,11
	.global	_ZN8opendnp38MContext12OnSendResultEb
	.type	_ZN8opendnp38MContext12OnSendResultEb, %function
_ZN8opendnp38MContext12OnSendResultEb:
.LFB3477:
	.cfi_startproc
	stp	x29, x30, [sp, -32]!
	.cfi_def_cfa_offset 32
	.cfi_offset 29, -32
	.cfi_offset 30, -24
	mov	x29, sp
	stp	x19, x20, [sp, 16]
	.cfi_offset 19, -16
	.cfi_offset 20, -8
	ldrb	w20, [x0, 168]
	cbz	w20, .L1020
	ldrb	w20, [x0, 169]
	mov	x19, x0
	cbnz	w20, .L1028
.L1020:
	mov	w0, w20
	ldp	x19, x20, [sp, 16]
	ldp	x29, x30, [sp], 32
	.cfi_remember_state
	.cfi_restore 30
	.cfi_restore 29
	.cfi_restore 19
	.cfi_restore 20
	.cfi_def_cfa_offset 0
	ret
	.p2align 2,,3
.L1028:
	.cfi_restore_state
	strb	wzr, [x0, 169]
	bl	_ZN8opendnp38MContext20CheckConfirmTransmitEv
	mov	x0, x19
	bl	_ZN8opendnp38MContext12CheckForTaskEv
	mov	w0, w20
	ldp	x19, x20, [sp, 16]
	ldp	x29, x30, [sp], 32
	.cfi_restore 30
	.cfi_restore 29
	.cfi_restore 19
	.cfi_restore 20
	.cfi_def_cfa_offset 0
	ret
	.cfi_endproc
.LFE3477:
	.size	_ZN8opendnp38MContext12OnSendResultEb, .-_ZN8opendnp38MContext12OnSendResultEb
	.align	2
	.p2align 4,,11
	.global	_ZN8opendnp38MContext13DirectOperateEONS_10CommandSetERKSt8functionIFvRKNS_18ICommandTaskResultEEERKNS_10TaskConfigE
	.type	_ZN8opendnp38MContext13DirectOperateEONS_10CommandSetERKSt8functionIFvRKNS_18ICommandTaskResultEEERKNS_10TaskConfigE, %function
_ZN8opendnp38MContext13DirectOperateEONS_10CommandSetERKSt8functionIFvRKNS_18ICommandTaskResultEEERKNS_10TaskConfigE:
.LFB3482:
	.cfi_startproc
	.cfi_personality 0x9b,DW.ref.__gxx_personality_v0
	.cfi_lsda 0x1b,.LLSDA3482
	stp	x29, x30, [sp, -144]!
	.cfi_def_cfa_offset 144
	.cfi_offset 29, -144
	.cfi_offset 30, -136
	adrp	x4, :got:__stack_chk_guard
	mov	x29, sp
	stp	x19, x20, [sp, 16]
	.cfi_offset 19, -128
	.cfi_offset 20, -120
	mov	x20, x1
	mov	x19, x0
	stp	x21, x22, [sp, 32]
	.cfi_offset 21, -112
	.cfi_offset 22, -104
	mov	x21, x2
	mov	x22, x3
	stp	x23, x24, [sp, 48]
	str	x25, [sp, 64]
	.cfi_offset 23, -96
	.cfi_offset 24, -88
	.cfi_offset 25, -80
	ldr	x4, [x4, #:got_lo12:__stack_chk_guard]
	ldr	q0, [x0, 24]
	ldr	x0, [x4]
	str	x0, [sp, 136]
	mov	x0, 0
	ldr	x25, [x19, 144]
	umov	x1, v0.d[1]
	str	q0, [sp, 96]
	cbz	x1, .L1030
	adrp	x0, :got:__libc_single_threaded
	ldr	x0, [x0, #:got_lo12:__libc_single_threaded]
	ldrb	w0, [x0]
	cbz	w0, .L1031
	ldr	w0, [x1, 8]
	add	w0, w0, 1
	str	w0, [x1, 8]
.L1030:
	ldr	q0, [x19, 40]
	umov	x1, v0.d[1]
	str	q0, [sp, 112]
	cbz	x1, .L1032
	adrp	x0, :got:__libc_single_threaded
	ldr	x0, [x0, #:got_lo12:__libc_single_threaded]
	ldrb	w0, [x0]
	cbz	w0, .L1033
	ldr	w0, [x1, 8]
	add	w0, w0, 1
	str	w0, [x1, 8]
.L1032:
	add	x24, sp, 96
	add	x23, sp, 80
	mov	x3, x22
	mov	x2, x21
	mov	x1, x25
	mov	x0, x20
	mov	x4, x24
	mov	x8, x23
.LEHB14:
	bl	_ZN8opendnp311CommandTask19CreateDirectOperateEONS_10CommandSetERNS_18IMasterApplicationERKSt8functionIFvRKNS_18ICommandTaskResultEEERKNS_10TaskConfigEN7openpal6LoggerE
.LEHE14:
	mov	x1, x23
	mov	x0, x19
.LEHB15:
	bl	_ZN8opendnp38MContext17ScheduleAdhocTaskERKSt10shared_ptrINS_11IMasterTaskEE
.LEHE15:
	ldr	x20, [sp, 88]
	cbz	x20, .L1035
	adrp	x19, :got:__libc_single_threaded
	ldr	x0, [x19, #:got_lo12:__libc_single_threaded]
	ldrb	w0, [x0]
	cbz	w0, .L1036
	ldr	w0, [x20, 8]
	sub	w1, w0, #1
	str	w1, [x20, 8]
.L1037:
	cmp	w0, 1
	beq	.L1071
.L1035:
	ldr	x20, [sp, 120]
	cbz	x20, .L1042
	adrp	x19, :got:__libc_single_threaded
	ldr	x0, [x19, #:got_lo12:__libc_single_threaded]
	ldrb	w0, [x0]
	cbz	w0, .L1043
	ldr	w0, [x20, 8]
	sub	w1, w0, #1
	str	w1, [x20, 8]
.L1044:
	cmp	w0, 1
	beq	.L1072
.L1042:
	ldr	x20, [sp, 104]
	cbz	x20, .L1029
	adrp	x19, :got:__libc_single_threaded
	ldr	x0, [x19, #:got_lo12:__libc_single_threaded]
	ldrb	w0, [x0]
	cbz	w0, .L1050
	ldr	w0, [x20, 8]
	sub	w1, w0, #1
	str	w1, [x20, 8]
.L1051:
	cmp	w0, 1
	beq	.L1073
.L1029:
	adrp	x0, :got:__stack_chk_guard
	ldr	x0, [x0, #:got_lo12:__stack_chk_guard]
	ldr	x2, [sp, 136]
	ldr	x1, [x0]
	subs	x2, x2, x1
	mov	x1, 0
	bne	.L1074
	ldp	x19, x20, [sp, 16]
	ldp	x21, x22, [sp, 32]
	ldp	x23, x24, [sp, 48]
	ldr	x25, [sp, 64]
	ldp	x29, x30, [sp], 144
	.cfi_remember_state
	.cfi_restore 30
	.cfi_restore 29
	.cfi_restore 25
	.cfi_restore 23
	.cfi_restore 24
	.cfi_restore 21
	.cfi_restore 22
	.cfi_restore 19
	.cfi_restore 20
	.cfi_def_cfa_offset 0
	ret
	.p2align 2,,3
.L1033:
	.cfi_restore_state
	add	x1, x1, 8
	mov	w0, 1
	bl	__aarch64_ldadd4_acq_rel
	b	.L1032
	.p2align 2,,3
.L1031:
	add	x1, x1, 8
	mov	w0, 1
	bl	__aarch64_ldadd4_acq_rel
	b	.L1030
	.p2align 2,,3
.L1071:
	ldr	x1, [x20]
	mov	x0, x20
	ldr	x1, [x1, 16]
	blr	x1
	ldr	x19, [x19, #:got_lo12:__libc_single_threaded]
	ldrb	w0, [x19]
	cbz	w0, .L1039
	ldr	w0, [x20, 12]
	sub	w1, w0, #1
	str	w1, [x20, 12]
.L1040:
	cmp	w0, 1
	bne	.L1035
	ldr	x1, [x20]
	mov	x0, x20
	ldr	x1, [x1, 24]
	blr	x1
	b	.L1035
	.p2align 2,,3
.L1072:
	ldr	x1, [x20]
	mov	x0, x20
	ldr	x1, [x1, 16]
	blr	x1
	ldr	x19, [x19, #:got_lo12:__libc_single_threaded]
	ldrb	w0, [x19]
	cbz	w0, .L1046
	ldr	w0, [x20, 12]
	sub	w1, w0, #1
	str	w1, [x20, 12]
.L1047:
	cmp	w0, 1
	bne	.L1042
	ldr	x1, [x20]
	mov	x0, x20
	ldr	x1, [x1, 24]
	blr	x1
	b	.L1042
	.p2align 2,,3
.L1073:
	ldr	x1, [x20]
	mov	x0, x20
	ldr	x1, [x1, 16]
	blr	x1
	ldr	x19, [x19, #:got_lo12:__libc_single_threaded]
	ldrb	w0, [x19]
	cbz	w0, .L1053
	ldr	w0, [x20, 12]
	sub	w1, w0, #1
	str	w1, [x20, 12]
.L1054:
	cmp	w0, 1
	bne	.L1029
	ldr	x1, [x20]
	mov	x0, x20
	ldr	x1, [x1, 24]
	blr	x1
	b	.L1029
	.p2align 2,,3
.L1050:
	add	x1, x20, 8
	mov	w0, -1
	bl	__aarch64_ldadd4_acq_rel
	b	.L1051
	.p2align 2,,3
.L1043:
	add	x1, x20, 8
	mov	w0, -1
	bl	__aarch64_ldadd4_acq_rel
	b	.L1044
	.p2align 2,,3
.L1036:
	add	x1, x20, 8
	mov	w0, -1
	bl	__aarch64_ldadd4_acq_rel
	b	.L1037
	.p2align 2,,3
.L1053:
	add	x1, x20, 12
	mov	w0, -1
	bl	__aarch64_ldadd4_acq_rel
	b	.L1054
	.p2align 2,,3
.L1039:
	add	x1, x20, 12
	mov	w0, -1
	bl	__aarch64_ldadd4_acq_rel
	b	.L1040
	.p2align 2,,3
.L1046:
	add	x1, x20, 12
	mov	w0, -1
	bl	__aarch64_ldadd4_acq_rel
	b	.L1047
.L1074:
	bl	__stack_chk_fail
.L1060:
	ldr	x1, [sp, 88]
	mov	x19, x0
	cbz	x1, .L1057
	mov	x0, x1
	bl	_ZNSt16_Sp_counted_baseILN9__gnu_cxx12_Lock_policyE2EE10_M_releaseEv
.L1057:
	mov	x0, x24
	bl	_ZN7openpal6LoggerD1Ev
	mov	x0, x19
.LEHB16:
	bl	_Unwind_Resume
.LEHE16:
.L1059:
	mov	x19, x0
	b	.L1057
	.cfi_endproc
.LFE3482:
	.section	.gcc_except_table
.LLSDA3482:
	.byte	0xff
	.byte	0xff
	.byte	0x1
	.uleb128 .LLSDACSE3482-.LLSDACSB3482
.LLSDACSB3482:
	.uleb128 .LEHB14-.LFB3482
	.uleb128 .LEHE14-.LEHB14
	.uleb128 .L1059-.LFB3482
	.uleb128 0
	.uleb128 .LEHB15-.LFB3482
	.uleb128 .LEHE15-.LEHB15
	.uleb128 .L1060-.LFB3482
	.uleb128 0
	.uleb128 .LEHB16-.LFB3482
	.uleb128 .LEHE16-.LEHB16
	.uleb128 0
	.uleb128 0
.LLSDACSE3482:
	.text
	.size	_ZN8opendnp38MContext13DirectOperateEONS_10CommandSetERKSt8functionIFvRKNS_18ICommandTaskResultEEERKNS_10TaskConfigE, .-_ZN8opendnp38MContext13DirectOperateEONS_10CommandSetERKSt8functionIFvRKNS_18ICommandTaskResultEEERKNS_10TaskConfigE
	.align	2
	.p2align 4,,11
	.global	_ZN8opendnp38MContext16SelectAndOperateEONS_10CommandSetERKSt8functionIFvRKNS_18ICommandTaskResultEEERKNS_10TaskConfigE
	.type	_ZN8opendnp38MContext16SelectAndOperateEONS_10CommandSetERKSt8functionIFvRKNS_18ICommandTaskResultEEERKNS_10TaskConfigE, %function
_ZN8opendnp38MContext16SelectAndOperateEONS_10CommandSetERKSt8functionIFvRKNS_18ICommandTaskResultEEERKNS_10TaskConfigE:
.LFB3484:
	.cfi_startproc
	.cfi_personality 0x9b,DW.ref.__gxx_personality_v0
	.cfi_lsda 0x1b,.LLSDA3484
	stp	x29, x30, [sp, -144]!
	.cfi_def_cfa_offset 144
	.cfi_offset 29, -144
	.cfi_offset 30, -136
	adrp	x4, :got:__stack_chk_guard
	mov	x29, sp
	stp	x19, x20, [sp, 16]
	.cfi_offset 19, -128
	.cfi_offset 20, -120
	mov	x20, x1
	mov	x19, x0
	stp	x21, x22, [sp, 32]
	.cfi_offset 21, -112
	.cfi_offset 22, -104
	mov	x21, x2
	mov	x22, x3
	stp	x23, x24, [sp, 48]
	str	x25, [sp, 64]
	.cfi_offset 23, -96
	.cfi_offset 24, -88
	.cfi_offset 25, -80
	ldr	x4, [x4, #:got_lo12:__stack_chk_guard]
	ldr	q0, [x0, 24]
	ldr	x0, [x4]
	str	x0, [sp, 136]
	mov	x0, 0
	ldr	x25, [x19, 144]
	umov	x1, v0.d[1]
	str	q0, [sp, 96]
	cbz	x1, .L1076
	adrp	x0, :got:__libc_single_threaded
	ldr	x0, [x0, #:got_lo12:__libc_single_threaded]
	ldrb	w0, [x0]
	cbz	w0, .L1077
	ldr	w0, [x1, 8]
	add	w0, w0, 1
	str	w0, [x1, 8]
.L1076:
	ldr	q0, [x19, 40]
	umov	x1, v0.d[1]
	str	q0, [sp, 112]
	cbz	x1, .L1078
	adrp	x0, :got:__libc_single_threaded
	ldr	x0, [x0, #:got_lo12:__libc_single_threaded]
	ldrb	w0, [x0]
	cbz	w0, .L1079
	ldr	w0, [x1, 8]
	add	w0, w0, 1
	str	w0, [x1, 8]
.L1078:
	add	x24, sp, 96
	add	x23, sp, 80
	mov	x3, x22
	mov	x2, x21
	mov	x1, x25
	mov	x0, x20
	mov	x4, x24
	mov	x8, x23
.LEHB17:
	bl	_ZN8opendnp311CommandTask22CreateSelectAndOperateEONS_10CommandSetERNS_18IMasterApplicationERKSt8functionIFvRKNS_18ICommandTaskResultEEERKNS_10TaskConfigEN7openpal6LoggerE
.LEHE17:
	mov	x1, x23
	mov	x0, x19
.LEHB18:
	bl	_ZN8opendnp38MContext17ScheduleAdhocTaskERKSt10shared_ptrINS_11IMasterTaskEE
.LEHE18:
	ldr	x20, [sp, 88]
	cbz	x20, .L1081
	adrp	x19, :got:__libc_single_threaded
	ldr	x0, [x19, #:got_lo12:__libc_single_threaded]
	ldrb	w0, [x0]
	cbz	w0, .L1082
	ldr	w0, [x20, 8]
	sub	w1, w0, #1
	str	w1, [x20, 8]
.L1083:
	cmp	w0, 1
	beq	.L1117
.L1081:
	ldr	x20, [sp, 120]
	cbz	x20, .L1088
	adrp	x19, :got:__libc_single_threaded
	ldr	x0, [x19, #:got_lo12:__libc_single_threaded]
	ldrb	w0, [x0]
	cbz	w0, .L1089
	ldr	w0, [x20, 8]
	sub	w1, w0, #1
	str	w1, [x20, 8]
.L1090:
	cmp	w0, 1
	beq	.L1118
.L1088:
	ldr	x20, [sp, 104]
	cbz	x20, .L1075
	adrp	x19, :got:__libc_single_threaded
	ldr	x0, [x19, #:got_lo12:__libc_single_threaded]
	ldrb	w0, [x0]
	cbz	w0, .L1096
	ldr	w0, [x20, 8]
	sub	w1, w0, #1
	str	w1, [x20, 8]
.L1097:
	cmp	w0, 1
	beq	.L1119
.L1075:
	adrp	x0, :got:__stack_chk_guard
	ldr	x0, [x0, #:got_lo12:__stack_chk_guard]
	ldr	x2, [sp, 136]
	ldr	x1, [x0]
	subs	x2, x2, x1
	mov	x1, 0
	bne	.L1120
	ldp	x19, x20, [sp, 16]
	ldp	x21, x22, [sp, 32]
	ldp	x23, x24, [sp, 48]
	ldr	x25, [sp, 64]
	ldp	x29, x30, [sp], 144
	.cfi_remember_state
	.cfi_restore 30
	.cfi_restore 29
	.cfi_restore 25
	.cfi_restore 23
	.cfi_restore 24
	.cfi_restore 21
	.cfi_restore 22
	.cfi_restore 19
	.cfi_restore 20
	.cfi_def_cfa_offset 0
	ret
	.p2align 2,,3
.L1079:
	.cfi_restore_state
	add	x1, x1, 8
	mov	w0, 1
	bl	__aarch64_ldadd4_acq_rel
	b	.L1078
	.p2align 2,,3
.L1077:
	add	x1, x1, 8
	mov	w0, 1
	bl	__aarch64_ldadd4_acq_rel
	b	.L1076
	.p2align 2,,3
.L1117:
	ldr	x1, [x20]
	mov	x0, x20
	ldr	x1, [x1, 16]
	blr	x1
	ldr	x19, [x19, #:got_lo12:__libc_single_threaded]
	ldrb	w0, [x19]
	cbz	w0, .L1085
	ldr	w0, [x20, 12]
	sub	w1, w0, #1
	str	w1, [x20, 12]
.L1086:
	cmp	w0, 1
	bne	.L1081
	ldr	x1, [x20]
	mov	x0, x20
	ldr	x1, [x1, 24]
	blr	x1
	b	.L1081
	.p2align 2,,3
.L1118:
	ldr	x1, [x20]
	mov	x0, x20
	ldr	x1, [x1, 16]
	blr	x1
	ldr	x19, [x19, #:got_lo12:__libc_single_threaded]
	ldrb	w0, [x19]
	cbz	w0, .L1092
	ldr	w0, [x20, 12]
	sub	w1, w0, #1
	str	w1, [x20, 12]
.L1093:
	cmp	w0, 1
	bne	.L1088
	ldr	x1, [x20]
	mov	x0, x20
	ldr	x1, [x1, 24]
	blr	x1
	b	.L1088
	.p2align 2,,3
.L1119:
	ldr	x1, [x20]
	mov	x0, x20
	ldr	x1, [x1, 16]
	blr	x1
	ldr	x19, [x19, #:got_lo12:__libc_single_threaded]
	ldrb	w0, [x19]
	cbz	w0, .L1099
	ldr	w0, [x20, 12]
	sub	w1, w0, #1
	str	w1, [x20, 12]
.L1100:
	cmp	w0, 1
	bne	.L1075
	ldr	x1, [x20]
	mov	x0, x20
	ldr	x1, [x1, 24]
	blr	x1
	b	.L1075
	.p2align 2,,3
.L1096:
	add	x1, x20, 8
	mov	w0, -1
	bl	__aarch64_ldadd4_acq_rel
	b	.L1097
	.p2align 2,,3
.L1089:
	add	x1, x20, 8
	mov	w0, -1
	bl	__aarch64_ldadd4_acq_rel
	b	.L1090
	.p2align 2,,3
.L1082:
	add	x1, x20, 8
	mov	w0, -1
	bl	__aarch64_ldadd4_acq_rel
	b	.L1083
	.p2align 2,,3
.L1099:
	add	x1, x20, 12
	mov	w0, -1
	bl	__aarch64_ldadd4_acq_rel
	b	.L1100
	.p2align 2,,3
.L1085:
	add	x1, x20, 12
	mov	w0, -1
	bl	__aarch64_ldadd4_acq_rel
	b	.L1086
	.p2align 2,,3
.L1092:
	add	x1, x20, 12
	mov	w0, -1
	bl	__aarch64_ldadd4_acq_rel
	b	.L1093
.L1120:
	bl	__stack_chk_fail
.L1106:
	ldr	x1, [sp, 88]
	mov	x19, x0
	cbz	x1, .L1103
	mov	x0, x1
	bl	_ZNSt16_Sp_counted_baseILN9__gnu_cxx12_Lock_policyE2EE10_M_releaseEv
.L1103:
	mov	x0, x24
	bl	_ZN7openpal6LoggerD1Ev
	mov	x0, x19
.LEHB19:
	bl	_Unwind_Resume
.LEHE19:
.L1105:
	mov	x19, x0
	b	.L1103
	.cfi_endproc
.LFE3484:
	.section	.gcc_except_table
.LLSDA3484:
	.byte	0xff
	.byte	0xff
	.byte	0x1
	.uleb128 .LLSDACSE3484-.LLSDACSB3484
.LLSDACSB3484:
	.uleb128 .LEHB17-.LFB3484
	.uleb128 .LEHE17-.LEHB17
	.uleb128 .L1105-.LFB3484
	.uleb128 0
	.uleb128 .LEHB18-.LFB3484
	.uleb128 .LEHE18-.LEHB18
	.uleb128 .L1106-.LFB3484
	.uleb128 0
	.uleb128 .LEHB19-.LFB3484
	.uleb128 .LEHE19-.LEHB19
	.uleb128 0
	.uleb128 0
.LLSDACSE3484:
	.text
	.size	_ZN8opendnp38MContext16SelectAndOperateEONS_10CommandSetERKSt8functionIFvRKNS_18ICommandTaskResultEEERKNS_10TaskConfigE, .-_ZN8opendnp38MContext16SelectAndOperateEONS_10CommandSetERKSt8functionIFvRKNS_18ICommandTaskResultEEERKNS_10TaskConfigE
	.align	2
	.p2align 4,,11
	.global	_ZN8opendnp38MContextC2ERKN7openpal6LoggerERKSt10shared_ptrINS1_9IExecutorEERKS5_INS_11ILowerLayerEERKS5_INS_11ISOEHandlerEERKS5_INS_18IMasterApplicationEERKNS_12MasterParamsERNS_9ITaskLockE
	.type	_ZN8opendnp38MContextC2ERKN7openpal6LoggerERKSt10shared_ptrINS1_9IExecutorEERKS5_INS_11ILowerLayerEERKS5_INS_11ISOEHandlerEERKS5_INS_18IMasterApplicationEERKNS_12MasterParamsERNS_9ITaskLockE, %function
_ZN8opendnp38MContextC2ERKN7openpal6LoggerERKSt10shared_ptrINS1_9IExecutorEERKS5_INS_11ILowerLayerEERKS5_INS_11ISOEHandlerEERKS5_INS_18IMasterApplicationEERKNS_12MasterParamsERNS_9ITaskLockE:
.LFB3472:
	.cfi_startproc
	.cfi_personality 0x9b,DW.ref.__gxx_personality_v0
	.cfi_lsda 0x1b,.LLSDA3472
	stp	x29, x30, [sp, -112]!
	.cfi_def_cfa_offset 112
	.cfi_offset 29, -112
	.cfi_offset 30, -104
	adrp	x8, :got:_ZTVN8opendnp38MContextE
	mov	x29, sp
	stp	x19, x20, [sp, 16]
	.cfi_offset 19, -96
	.cfi_offset 20, -88
	mov	x19, x0
	mov	x20, x6
	ldr	x0, [x8, #:got_lo12:_ZTVN8opendnp38MContextE]
	stp	x21, x22, [sp, 32]
	.cfi_offset 21, -80
	.cfi_offset 22, -72
	mov	x21, x1
	stp	x23, x24, [sp, 48]
	add	x1, x0, 128
	add	x8, x0, 16
	stp	x25, x26, [sp, 64]
	add	x0, x0, 152
	mov	x22, x2
	stp	x27, x28, [sp, 80]
	.cfi_offset 23, -64
	.cfi_offset 24, -56
	.cfi_offset 25, -48
	.cfi_offset 26, -40
	.cfi_offset 27, -32
	.cfi_offset 28, -24
	mov	x26, x3
	mov	x24, x4
	stp	x8, x1, [x19]
	mov	x23, x5
	mov	x25, x7
	str	x0, [x19, 16]
	add	x0, x19, 24
	str	x0, [sp, 104]
	ldr	q0, [x21]
	umov	x1, v0.d[1]
	str	q0, [x19, 24]
	cbz	x1, .L1122
	adrp	x0, :got:__libc_single_threaded
	ldr	x0, [x0, #:got_lo12:__libc_single_threaded]
	ldrb	w0, [x0]
	cbz	w0, .L1123
	ldr	w0, [x1, 8]
	add	w0, w0, 1
	str	w0, [x1, 8]
.L1122:
	ldr	q0, [x21, 16]
	umov	x1, v0.d[1]
	str	q0, [x19, 40]
	cbz	x1, .L1124
	adrp	x0, :got:__libc_single_threaded
	ldr	x0, [x0, #:got_lo12:__libc_single_threaded]
	ldrb	w0, [x0]
	cbz	w0, .L1125
	ldr	w0, [x1, 8]
	add	w0, w0, 1
	str	w0, [x1, 8]
.L1124:
	ldr	q0, [x22]
	umov	x1, v0.d[1]
	str	q0, [x19, 56]
	cbz	x1, .L1126
	adrp	x0, :got:__libc_single_threaded
	ldr	x0, [x0, #:got_lo12:__libc_single_threaded]
	ldrb	w0, [x0]
	cbz	w0, .L1127
	ldr	w0, [x1, 8]
	add	w0, w0, 1
	str	w0, [x1, 8]
.L1126:
	ldr	q0, [x26]
	umov	x1, v0.d[1]
	str	q0, [x19, 72]
	cbz	x1, .L1128
	adrp	x0, :got:__libc_single_threaded
	ldr	x0, [x0, #:got_lo12:__libc_single_threaded]
	ldrb	w0, [x0]
	cbz	w0, .L1129
	ldr	w0, [x1, 8]
	add	w0, w0, 1
	str	w0, [x1, 8]
.L1128:
	ldp	q0, q1, [x20]
	add	x0, x19, 88
	ldr	x1, [x20, 32]
	str	x1, [x19, 120]
	stp	q0, q1, [x0]
	ldr	q0, [x24]
	umov	x1, v0.d[1]
	str	q0, [x19, 128]
	cbz	x1, .L1130
	adrp	x0, :got:__libc_single_threaded
	ldr	x0, [x0, #:got_lo12:__libc_single_threaded]
	ldrb	w0, [x0]
	cbz	w0, .L1131
	ldr	w0, [x1, 8]
	add	w0, w0, 1
	str	w0, [x1, 8]
.L1130:
	ldr	q0, [x23]
	umov	x1, v0.d[1]
	str	q0, [x19, 144]
	cbz	x1, .L1132
	adrp	x0, :got:__libc_single_threaded
	ldr	x0, [x0, #:got_lo12:__libc_single_threaded]
	ldrb	w0, [x0]
	cbz	w0, .L1133
	ldr	w0, [x1, 8]
	add	w0, w0, 1
	str	w0, [x1, 8]
.L1132:
	str	wzr, [x19, 168]
	stp	xzr, xzr, [x19, 176]
	ldr	x1, [x22]
	str	x25, [x19, 160]
	add	x25, x19, 192
	mov	x0, x25
.LEHB20:
	bl	_ZN7openpal8TimerRefC1ERNS_9IExecutorE
.LEHE20:
	ldr	x1, [x22]
	add	x26, x19, 208
	mov	x0, x26
.LEHB21:
	bl	_ZN7openpal8TimerRefC1ERNS_9IExecutorE
.LEHE21:
	ldr	x1, [x22]
	add	x27, x19, 224
	mov	x0, x27
.LEHB22:
	bl	_ZN7openpal8TimerRefC1ERNS_9IExecutorE
.LEHE22:
	ldr	x3, [x23]
	add	x28, x19, 240
	ldr	x4, [x24]
	mov	x2, x21
	mov	x0, x28
	mov	x1, x20
.LEHB23:
	bl	_ZN8opendnp311MasterTasksC1ERKNS_12MasterParamsERKN7openpal6LoggerERNS_18IMasterApplicationERNS_11ISOEHandlerE
.LEHE23:
	add	x1, x19, 16
	add	x0, x19, 376
.LEHB24:
	bl	_ZN8opendnp315MasterSchedulerC1ERNS_11ITaskFilterE
.LEHE24:
	movi	v0.4s, 0
	add	x1, x19, 512
	sub	x3, x1, #88
	add	x23, x19, 408
	str	xzr, [x19, 408]
	mov	x2, 8
	mov	x0, 64
	stp	q0, q0, [x3]
	stp	q0, q0, [x3, 32]
	str	x2, [x23, 8]
.LEHB25:
	bl	_Znwm
.LEHE25:
	ldr	x21, [x23, 8]
	mov	x22, x0
	str	x22, [x19, 408]
	mov	x0, 510
	sub	x21, x21, #1
	lsr	x21, x21, 1
	add	x24, x22, x21, lsl 3
.LEHB26:
	bl	_Znwm
.LEHE26:
	ldr	w1, [x20, 32]
	mov	x2, x0
	add	x5, x0, 510
	stp	x2, x5, [x19, 432]
	add	x0, x19, 488
	str	x24, [x19, 448]
	stp	x2, x5, [x19, 464]
	str	x24, [x19, 480]
	str	x2, [x22, x21, lsl 3]
	str	x2, [x23, 16]
	str	x2, [x23, 48]
.LEHB27:
	bl	_ZN7openpal6BufferC1Ej
.LEHE27:
	ldp	x21, x22, [sp, 32]
	ldp	x23, x24, [sp, 48]
	ldp	x25, x26, [sp, 64]
	ldp	x27, x28, [sp, 80]
	str	wzr, [x19, 512]
	ldp	x19, x20, [sp, 16]
	ldp	x29, x30, [sp], 112
	.cfi_remember_state
	.cfi_restore 30
	.cfi_restore 29
	.cfi_restore 27
	.cfi_restore 28
	.cfi_restore 25
	.cfi_restore 26
	.cfi_restore 23
	.cfi_restore 24
	.cfi_restore 21
	.cfi_restore 22
	.cfi_restore 19
	.cfi_restore 20
	.cfi_def_cfa_offset 0
	ret
	.p2align 2,,3
.L1123:
	.cfi_restore_state
	add	x1, x1, 8
	mov	w0, 1
	bl	__aarch64_ldadd4_acq_rel
	b	.L1122
	.p2align 2,,3
.L1127:
	add	x1, x1, 8
	mov	w0, 1
	bl	__aarch64_ldadd4_acq_rel
	b	.L1126
	.p2align 2,,3
.L1125:
	add	x1, x1, 8
	mov	w0, 1
	bl	__aarch64_ldadd4_acq_rel
	b	.L1124
	.p2align 2,,3
.L1131:
	add	x1, x1, 8
	mov	w0, 1
	bl	__aarch64_ldadd4_acq_rel
	b	.L1130
	.p2align 2,,3
.L1129:
	add	x1, x1, 8
	mov	w0, 1
	bl	__aarch64_ldadd4_acq_rel
	b	.L1128
	.p2align 2,,3
.L1133:
	add	x1, x1, 8
	mov	w0, 1
	bl	__aarch64_ldadd4_acq_rel
	b	.L1132
.L1159:
	ldr	x1, [x19, 408]
	mov	x20, x0
	cbz	x1, .L1140
	ldr	x21, [x23, 72]
	ldr	x22, [x23, 40]
	add	x21, x21, 8
.L1141:
	cmp	x21, x22
	bls	.L1202
	ldr	x0, [x22], 8
	mov	x1, 510
	bl	_ZdlPvm
	b	.L1141
.L1153:
	mov	x20, x0
	b	.L1147
.L1202:
	ldr	x1, [x23, 8]
	ldr	x0, [x19, 408]
	lsl	x1, x1, 3
	bl	_ZdlPvm
.L1140:
	mov	x0, x20
.L1138:
	mov	x20, x0
	add	x0, x19, 384
	bl	_ZNSt6vectorISt10shared_ptrIN8opendnp311IMasterTaskEESaIS3_EED1Ev
.L1143:
	mov	x0, x28
	bl	_ZN8opendnp311MasterTasksD1Ev
.L1144:
	mov	x0, x27
	bl	_ZN7openpal8TimerRefD1Ev
.L1145:
	mov	x0, x26
	bl	_ZN7openpal8TimerRefD1Ev
.L1146:
	mov	x0, x25
	bl	_ZN7openpal8TimerRefD1Ev
.L1147:
	ldr	x0, [x19, 184]
	cbz	x0, .L1148
	bl	_ZNSt16_Sp_counted_baseILN9__gnu_cxx12_Lock_policyE2EE10_M_releaseEv
.L1148:
	ldr	x0, [x19, 152]
	cbz	x0, .L1149
	bl	_ZNSt16_Sp_counted_baseILN9__gnu_cxx12_Lock_policyE2EE10_M_releaseEv
.L1149:
	ldr	x0, [x19, 136]
	cbz	x0, .L1150
	bl	_ZNSt16_Sp_counted_baseILN9__gnu_cxx12_Lock_policyE2EE10_M_releaseEv
.L1150:
	ldr	x0, [x19, 80]
	cbz	x0, .L1151
	bl	_ZNSt16_Sp_counted_baseILN9__gnu_cxx12_Lock_policyE2EE10_M_releaseEv
.L1151:
	ldr	x0, [x19, 64]
	cbz	x0, .L1152
	bl	_ZNSt16_Sp_counted_baseILN9__gnu_cxx12_Lock_policyE2EE10_M_releaseEv
.L1152:
	ldr	x0, [sp, 104]
	bl	_ZN7openpal6LoggerD1Ev
	mov	x0, x20
.LEHB28:
	bl	_Unwind_Resume
.LEHE28:
.L1161:
	bl	__cxa_begin_catch
.LEHB29:
	bl	__cxa_rethrow
.LEHE29:
.L1155:
	mov	x20, x0
	b	.L1145
.L1157:
	mov	x20, x0
	b	.L1143
.L1158:
	b	.L1138
.L1154:
	mov	x20, x0
	b	.L1146
.L1162:
	mov	x20, x0
	bl	__cxa_end_catch
	mov	x0, x20
	bl	__cxa_begin_catch
	ldr	x1, [x23, 8]
	ldr	x0, [x19, 408]
	lsl	x1, x1, 3
	bl	_ZdlPvm
	str	xzr, [x19, 408]
	str	xzr, [x23, 8]
.LEHB30:
	bl	__cxa_rethrow
.LEHE30:
.L1160:
	mov	x20, x0
	bl	__cxa_end_catch
	mov	x0, x20
	b	.L1138
.L1156:
	mov	x20, x0
	b	.L1144
	.cfi_endproc
.LFE3472:
	.section	.gcc_except_table
	.align	2
.LLSDA3472:
	.byte	0xff
	.byte	0x9b
	.uleb128 .LLSDATT3472-.LLSDATTD3472
.LLSDATTD3472:
	.byte	0x1
	.uleb128 .LLSDACSE3472-.LLSDACSB3472
.LLSDACSB3472:
	.uleb128 .LEHB20-.LFB3472
	.uleb128 .LEHE20-.LEHB20
	.uleb128 .L1153-.LFB3472
	.uleb128 0
	.uleb128 .LEHB21-.LFB3472
	.uleb128 .LEHE21-.LEHB21
	.uleb128 .L1154-.LFB3472
	.uleb128 0
	.uleb128 .LEHB22-.LFB3472
	.uleb128 .LEHE22-.LEHB22
	.uleb128 .L1155-.LFB3472
	.uleb128 0
	.uleb128 .LEHB23-.LFB3472
	.uleb128 .LEHE23-.LEHB23
	.uleb128 .L1156-.LFB3472
	.uleb128 0
	.uleb128 .LEHB24-.LFB3472
	.uleb128 .LEHE24-.LEHB24
	.uleb128 .L1157-.LFB3472
	.uleb128 0
	.uleb128 .LEHB25-.LFB3472
	.uleb128 .LEHE25-.LEHB25
	.uleb128 .L1158-.LFB3472
	.uleb128 0
	.uleb128 .LEHB26-.LFB3472
	.uleb128 .LEHE26-.LEHB26
	.uleb128 .L1161-.LFB3472
	.uleb128 0x1
	.uleb128 .LEHB27-.LFB3472
	.uleb128 .LEHE27-.LEHB27
	.uleb128 .L1159-.LFB3472
	.uleb128 0
	.uleb128 .LEHB28-.LFB3472
	.uleb128 .LEHE28-.LEHB28
	.uleb128 0
	.uleb128 0
	.uleb128 .LEHB29-.LFB3472
	.uleb128 .LEHE29-.LEHB29
	.uleb128 .L1162-.LFB3472
	.uleb128 0x1
	.uleb128 .LEHB30-.LFB3472
	.uleb128 .LEHE30-.LEHB30
	.uleb128 .L1160-.LFB3472
	.uleb128 0
.LLSDACSE3472:
	.byte	0x1
	.byte	0
	.align	2
	.4byte	0

.LLSDATT3472:
	.text
	.size	_ZN8opendnp38MContextC2ERKN7openpal6LoggerERKSt10shared_ptrINS1_9IExecutorEERKS5_INS_11ILowerLayerEERKS5_INS_11ISOEHandlerEERKS5_INS_18IMasterApplicationEERKNS_12MasterParamsERNS_9ITaskLockE, .-_ZN8opendnp38MContextC2ERKN7openpal6LoggerERKSt10shared_ptrINS1_9IExecutorEERKS5_INS_11ILowerLayerEERKS5_INS_11ISOEHandlerEERKS5_INS_18IMasterApplicationEERKNS_12MasterParamsERNS_9ITaskLockE
	.global	_ZN8opendnp38MContextC1ERKN7openpal6LoggerERKSt10shared_ptrINS1_9IExecutorEERKS5_INS_11ILowerLayerEERKS5_INS_11ISOEHandlerEERKS5_INS_18IMasterApplicationEERKNS_12MasterParamsERNS_9ITaskLockE
	.set	_ZN8opendnp38MContextC1ERKN7openpal6LoggerERKSt10shared_ptrINS1_9IExecutorEERKS5_INS_11ILowerLayerEERKS5_INS_11ISOEHandlerEERKS5_INS_18IMasterApplicationEERKNS_12MasterParamsERNS_9ITaskLockE,_ZN8opendnp38MContextC2ERKN7openpal6LoggerERKSt10shared_ptrINS1_9IExecutorEERKS5_INS_11ILowerLayerEERKS5_INS_11ISOEHandlerEERKS5_INS_18IMasterApplicationEERKNS_12MasterParamsERNS_9ITaskLockE
	.align	2
	.p2align 4,,11
	.global	_ZN8opendnp38MContext7AddScanEN7openpal12TimeDurationERKSt8functionIFbRNS_12HeaderWriterEEENS_10TaskConfigE
	.type	_ZN8opendnp38MContext7AddScanEN7openpal12TimeDurationERKSt8functionIFbRNS_12HeaderWriterEEENS_10TaskConfigE, %function
_ZN8opendnp38MContext7AddScanEN7openpal12TimeDurationERKSt8functionIFbRNS_12HeaderWriterEEENS_10TaskConfigE:
.LFB3501:
	.cfi_startproc
	.cfi_personality 0x9b,DW.ref.__gxx_personality_v0
	.cfi_lsda 0x1b,.LLSDA3501
	sub	sp, sp, #176
	.cfi_def_cfa_offset 176
	adrp	x5, :got:__stack_chk_guard
	stp	x29, x30, [sp, 16]
	.cfi_offset 29, -160
	.cfi_offset 30, -152
	add	x29, sp, 16
	ldr	x5, [x5, #:got_lo12:__stack_chk_guard]
	stp	x19, x20, [sp, 32]
	.cfi_offset 19, -144
	.cfi_offset 20, -136
	mov	x19, x0
	stp	x21, x22, [sp, 48]
	.cfi_offset 21, -128
	.cfi_offset 22, -120
	mov	x21, x8
	stp	x23, x24, [sp, 64]
	.cfi_offset 23, -112
	.cfi_offset 24, -104
	mov	x23, x2
	mov	x24, x4
	stp	x25, x26, [sp, 80]
	.cfi_offset 25, -96
	.cfi_offset 26, -88
	mov	x25, x3
	stp	x27, x28, [sp, 96]
	.cfi_offset 27, -80
	.cfi_offset 28, -72
	mov	x27, x1
	ldr	x0, [x5]
	str	x0, [sp, 168]
	mov	x0, 0
	mov	x0, 176
	ldr	x28, [x19, 128]
	ldr	x26, [x19, 144]
.LEHB31:
	bl	_Znwm
.LEHE31:
	ldr	q0, [x19, 24]
	movi	v1.2s, 0x1
	adrp	x2, :got:_ZTVSt23_Sp_counted_ptr_inplaceIN8opendnp312UserPollTaskESaIS1_ELN9__gnu_cxx12_Lock_policyE2EE
	mov	x20, x0
	mov	x22, x0
	add	x0, x0, 8
	ldr	x2, [x2, #:got_lo12:_ZTVSt23_Sp_counted_ptr_inplaceIN8opendnp312UserPollTaskESaIS1_ELN9__gnu_cxx12_Lock_policyE2EE]
	umov	x1, v0.d[1]
	str	d1, [x20, 8]
	add	x2, x2, 16
	str	x2, [x22], 16
	str	x0, [sp, 120]
	str	q0, [sp, 128]
	ldr	x4, [x19, 104]
	cbz	x1, .L1204
	adrp	x0, :got:__libc_single_threaded
	ldr	x0, [x0, #:got_lo12:__libc_single_threaded]
	ldrb	w0, [x0]
	cbz	w0, .L1205
	ldr	w0, [x1, 8]
	add	w0, w0, 1
	str	w0, [x1, 8]
.L1204:
	ldr	q0, [x19, 40]
	umov	x1, v0.d[1]
	str	q0, [sp, 144]
	cbz	x1, .L1206
	adrp	x0, :got:__libc_single_threaded
	ldr	x0, [x0, #:got_lo12:__libc_single_threaded]
	ldrb	w0, [x0]
	cbz	w0, .L1207
	ldr	w0, [x1, 8]
	add	w0, w0, 1
	str	w0, [x1, 8]
.L1206:
	stp	x25, x24, [sp]
	add	x25, sp, 128
	mov	x6, x28
	mov	x5, x26
	mov	x3, x27
	mov	x1, x23
	mov	x0, x22
	mov	x7, x25
	mov	w2, 1
.LEHB32:
	bl	_ZN8opendnp312UserPollTaskC1ERKSt8functionIFbRNS_12HeaderWriterEEEbN7openpal12TimeDurationES9_RNS_18IMasterApplicationERNS_11ISOEHandlerENS8_6LoggerENS_10TaskConfigE
.LEHE32:
	adrp	x23, :got:__libc_single_threaded
	ldr	x24, [sp, 152]
	ldr	x0, [x23, #:got_lo12:__libc_single_threaded]
	ldrb	w0, [x0]
	cbz	x24, .L1209
	cbz	w0, .L1210
	ldr	w0, [x24, 8]
	sub	w1, w0, #1
	str	w1, [x24, 8]
.L1211:
	cmp	w0, 1
	beq	.L1252
.L1209:
	ldr	x0, [x23, #:got_lo12:__libc_single_threaded]
	ldr	x24, [sp, 136]
	ldrb	w0, [x0]
	cbz	x24, .L1220
	cbz	w0, .L1216
	ldr	w0, [x24, 8]
	sub	w1, w0, #1
	str	w1, [x24, 8]
.L1217:
	cmp	w0, 1
	beq	.L1253
.L1220:
	ldr	x0, [x23, #:got_lo12:__libc_single_threaded]
	stp	x22, x20, [sp, 128]
	ldrb	w0, [x0]
	cbz	w0, .L1254
	ldr	w0, [x20, 8]
	add	w0, w0, 1
	str	w0, [x20, 8]
.L1222:
	mov	x1, x25
	mov	x0, x19
.LEHB33:
	bl	_ZN8opendnp38MContext25ScheduleRecurringPollTaskERKSt10shared_ptrINS_11IMasterTaskEE
.LEHE33:
	ldr	x19, [sp, 136]
	cbz	x19, .L1224
	ldr	x0, [x23, #:got_lo12:__libc_single_threaded]
	ldrb	w0, [x0]
	cbz	w0, .L1225
	ldr	w0, [x19, 8]
	sub	w1, w0, #1
	str	w1, [x19, 8]
.L1226:
	cmp	w0, 1
	beq	.L1255
.L1224:
	adrp	x0, :got:__stack_chk_guard
	stp	x22, x20, [x21]
	ldr	x0, [x0, #:got_lo12:__stack_chk_guard]
	ldr	x2, [sp, 168]
	ldr	x1, [x0]
	subs	x2, x2, x1
	mov	x1, 0
	bne	.L1256
	mov	x0, x21
	ldp	x29, x30, [sp, 16]
	ldp	x19, x20, [sp, 32]
	ldp	x21, x22, [sp, 48]
	ldp	x23, x24, [sp, 64]
	ldp	x25, x26, [sp, 80]
	ldp	x27, x28, [sp, 96]
	add	sp, sp, 176
	.cfi_remember_state
	.cfi_restore 29
	.cfi_restore 30
	.cfi_restore 27
	.cfi_restore 28
	.cfi_restore 25
	.cfi_restore 26
	.cfi_restore 23
	.cfi_restore 24
	.cfi_restore 21
	.cfi_restore 22
	.cfi_restore 19
	.cfi_restore 20
	.cfi_def_cfa_offset 0
	ret
	.p2align 2,,3
.L1205:
	.cfi_restore_state
	add	x1, x1, 8
	mov	w0, 1
	str	x4, [sp, 120]
	bl	__aarch64_ldadd4_acq_rel
	ldr	x4, [sp, 120]
	b	.L1204
	.p2align 2,,3
.L1254:
	add	x1, x20, 8
	mov	w0, 1
	bl	__aarch64_ldadd4_acq_rel
	b	.L1222
	.p2align 2,,3
.L1207:
	add	x1, x1, 8
	mov	w0, 1
	str	x4, [sp, 120]
	bl	__aarch64_ldadd4_acq_rel
	ldr	x4, [sp, 120]
	b	.L1206
	.p2align 2,,3
.L1252:
	ldr	x1, [x24]
	mov	x0, x24
	ldr	x1, [x1, 16]
	blr	x1
	ldr	x0, [x23, #:got_lo12:__libc_single_threaded]
	ldrb	w0, [x0]
	cbz	w0, .L1213
	ldr	w0, [x24, 12]
	sub	w1, w0, #1
	str	w1, [x24, 12]
.L1214:
	cmp	w0, 1
	bne	.L1209
	ldr	x1, [x24]
	mov	x0, x24
	ldr	x1, [x1, 24]
	blr	x1
	b	.L1209
	.p2align 2,,3
.L1253:
	ldr	x1, [x24]
	mov	x0, x24
	ldr	x1, [x1, 16]
	blr	x1
	ldr	x0, [x23, #:got_lo12:__libc_single_threaded]
	ldrb	w0, [x0]
	cbz	w0, .L1218
	ldr	w0, [x24, 12]
	sub	w1, w0, #1
	str	w1, [x24, 12]
.L1219:
	cmp	w0, 1
	bne	.L1220
	ldr	x1, [x24]
	mov	x0, x24
	ldr	x1, [x1, 24]
	blr	x1
	b	.L1220
	.p2align 2,,3
.L1255:
	ldr	x1, [x19]
	mov	x0, x19
	ldr	x1, [x1, 16]
	blr	x1
	ldr	x23, [x23, #:got_lo12:__libc_single_threaded]
	ldrb	w0, [x23]
	cbz	w0, .L1228
	ldr	w0, [x19, 12]
	sub	w1, w0, #1
	str	w1, [x19, 12]
.L1229:
	cmp	w0, 1
	bne	.L1224
	ldr	x1, [x19]
	mov	x0, x19
	ldr	x1, [x1, 24]
	blr	x1
	b	.L1224
	.p2align 2,,3
.L1216:
	add	x1, x24, 8
	mov	w0, -1
	bl	__aarch64_ldadd4_acq_rel
	b	.L1217
	.p2align 2,,3
.L1225:
	add	x1, x19, 8
	mov	w0, -1
	bl	__aarch64_ldadd4_acq_rel
	b	.L1226
	.p2align 2,,3
.L1210:
	add	x1, x24, 8
	mov	w0, -1
	bl	__aarch64_ldadd4_acq_rel
	b	.L1211
	.p2align 2,,3
.L1218:
	add	x1, x24, 12
	mov	w0, -1
	bl	__aarch64_ldadd4_acq_rel
	b	.L1219
	.p2align 2,,3
.L1213:
	add	x1, x24, 12
	mov	w0, -1
	bl	__aarch64_ldadd4_acq_rel
	b	.L1214
	.p2align 2,,3
.L1228:
	add	x1, x19, 12
	mov	w0, -1
	bl	__aarch64_ldadd4_acq_rel
	b	.L1229
.L1256:
	bl	__stack_chk_fail
.L1235:
	ldr	x1, [sp, 136]
	mov	x19, x0
	cbz	x1, .L1231
	mov	x0, x1
	bl	_ZNSt16_Sp_counted_baseILN9__gnu_cxx12_Lock_policyE2EE10_M_releaseEv
.L1231:
	mov	x0, x20
	bl	_ZNSt16_Sp_counted_baseILN9__gnu_cxx12_Lock_policyE2EE10_M_releaseEv
	mov	x0, x19
.LEHB34:
	bl	_Unwind_Resume
.L1236:
	mov	x19, x0
	mov	x0, x25
	bl	_ZN7openpal6LoggerD1Ev
	mov	x1, 176
	mov	x0, x20
	bl	_ZdlPvm
	mov	x0, x19
	bl	_Unwind_Resume
.LEHE34:
	.cfi_endproc
.LFE3501:
	.section	.gcc_except_table
.LLSDA3501:
	.byte	0xff
	.byte	0xff
	.byte	0x1
	.uleb128 .LLSDACSE3501-.LLSDACSB3501
.LLSDACSB3501:
	.uleb128 .LEHB31-.LFB3501
	.uleb128 .LEHE31-.LEHB31
	.uleb128 0
	.uleb128 0
	.uleb128 .LEHB32-.LFB3501
	.uleb128 .LEHE32-.LEHB32
	.uleb128 .L1236-.LFB3501
	.uleb128 0
	.uleb128 .LEHB33-.LFB3501
	.uleb128 .LEHE33-.LEHB33
	.uleb128 .L1235-.LFB3501
	.uleb128 0
	.uleb128 .LEHB34-.LFB3501
	.uleb128 .LEHE34-.LEHB34
	.uleb128 0
	.uleb128 0
.LLSDACSE3501:
	.text
	.size	_ZN8opendnp38MContext7AddScanEN7openpal12TimeDurationERKSt8functionIFbRNS_12HeaderWriterEEENS_10TaskConfigE, .-_ZN8opendnp38MContext7AddScanEN7openpal12TimeDurationERKSt8functionIFbRNS_12HeaderWriterEEENS_10TaskConfigE
	.align	2
	.p2align 4,,11
	.global	_ZN8opendnp38MContext12AddClassScanERKNS_10ClassFieldEN7openpal12TimeDurationENS_10TaskConfigE
	.type	_ZN8opendnp38MContext12AddClassScanERKNS_10ClassFieldEN7openpal12TimeDurationENS_10TaskConfigE, %function
_ZN8opendnp38MContext12AddClassScanERKNS_10ClassFieldEN7openpal12TimeDurationENS_10TaskConfigE:
.LFB3509:
	.cfi_startproc
	.cfi_personality 0x9b,DW.ref.__gxx_personality_v0
	.cfi_lsda 0x1b,.LLSDA3509
	stp	x29, x30, [sp, -80]!
	.cfi_def_cfa_offset 80
	.cfi_offset 29, -80
	.cfi_offset 30, -72
	adrp	x5, :got:__stack_chk_guard
	adrp	x6, _ZNSt17_Function_handlerIFbRN8opendnp312HeaderWriterEEZNS0_8MContext12AddClassScanERKNS0_10ClassFieldEN7openpal12TimeDurationENS0_10TaskConfigEEUlS2_E_E10_M_managerERSt9_Any_dataRKSD_St18_Manager_operation
	mov	x29, sp
	ldr	x5, [x5, #:got_lo12:__stack_chk_guard]
	stp	x19, x20, [sp, 16]
	.cfi_offset 19, -64
	.cfi_offset 20, -56
	ldrb	w7, [x1]
	add	x6, x6, :lo12:_ZNSt17_Function_handlerIFbRN8opendnp312HeaderWriterEEZNS0_8MContext12AddClassScanERKNS0_10ClassFieldEN7openpal12TimeDurationENS0_10TaskConfigEEUlS2_E_E10_M_managerERSt9_Any_dataRKSD_St18_Manager_operation
	mov	x1, x2
	ldr	x2, [x5]
	str	x2, [sp, 72]
	mov	x2, 0
	adrp	x5, _ZNSt17_Function_handlerIFbRN8opendnp312HeaderWriterEEZNS0_8MContext12AddClassScanERKNS0_10ClassFieldEN7openpal12TimeDurationENS0_10TaskConfigEEUlS2_E_E9_M_invokeERKSt9_Any_dataS2_
	add	x5, x5, :lo12:_ZNSt17_Function_handlerIFbRN8opendnp312HeaderWriterEEZNS0_8MContext12AddClassScanERKNS0_10ClassFieldEN7openpal12TimeDurationENS0_10TaskConfigEEUlS2_E_E9_M_invokeERKSt9_Any_dataS2_
	add	x20, sp, 40
	stp	xzr, xzr, [sp, 40]
	mov	x19, x8
	mov	x2, x20
	strb	w7, [sp, 40]
	stp	x6, x5, [sp, 56]
.LEHB35:
	bl	_ZN8opendnp38MContext7AddScanEN7openpal12TimeDurationERKSt8functionIFbRNS_12HeaderWriterEEENS_10TaskConfigE
.LEHE35:
	ldr	x3, [sp, 56]
	cbz	x3, .L1257
	mov	x1, x20
	mov	x0, x20
	mov	w2, 3
	blr	x3
.L1257:
	adrp	x1, :got:__stack_chk_guard
	ldr	x1, [x1, #:got_lo12:__stack_chk_guard]
	ldr	x0, [sp, 72]
	ldr	x2, [x1]
	subs	x0, x0, x2
	mov	x2, 0
	bne	.L1270
	mov	x0, x19
	ldp	x19, x20, [sp, 16]
	ldp	x29, x30, [sp], 80
	.cfi_remember_state
	.cfi_restore 30
	.cfi_restore 29
	.cfi_restore 19
	.cfi_restore 20
	.cfi_def_cfa_offset 0
	ret
.L1270:
	.cfi_restore_state
	bl	__stack_chk_fail
.L1262:
	ldr	x3, [sp, 56]
	mov	x19, x0
	cbz	x3, .L1260
	mov	x1, x20
	mov	x0, x20
	mov	w2, 3
	blr	x3
.L1260:
	mov	x0, x19
.LEHB36:
	bl	_Unwind_Resume
.LEHE36:
	.cfi_endproc
.LFE3509:
	.section	.gcc_except_table
.LLSDA3509:
	.byte	0xff
	.byte	0xff
	.byte	0x1
	.uleb128 .LLSDACSE3509-.LLSDACSB3509
.LLSDACSB3509:
	.uleb128 .LEHB35-.LFB3509
	.uleb128 .LEHE35-.LEHB35
	.uleb128 .L1262-.LFB3509
	.uleb128 0
	.uleb128 .LEHB36-.LFB3509
	.uleb128 .LEHE36-.LEHB36
	.uleb128 0
	.uleb128 0
.LLSDACSE3509:
	.text
	.size	_ZN8opendnp38MContext12AddClassScanERKNS_10ClassFieldEN7openpal12TimeDurationENS_10TaskConfigE, .-_ZN8opendnp38MContext12AddClassScanERKNS_10ClassFieldEN7openpal12TimeDurationENS_10TaskConfigE
	.align	2
	.p2align 4,,11
	.global	_ZN8opendnp38MContext17AddAllObjectsScanENS_16GroupVariationIDEN7openpal12TimeDurationENS_10TaskConfigE
	.type	_ZN8opendnp38MContext17AddAllObjectsScanENS_16GroupVariationIDEN7openpal12TimeDurationENS_10TaskConfigE, %function
_ZN8opendnp38MContext17AddAllObjectsScanENS_16GroupVariationIDEN7openpal12TimeDurationENS_10TaskConfigE:
.LFB3516:
	.cfi_startproc
	.cfi_personality 0x9b,DW.ref.__gxx_personality_v0
	.cfi_lsda 0x1b,.LLSDA3516
	stp	x29, x30, [sp, -80]!
	.cfi_def_cfa_offset 80
	.cfi_offset 29, -80
	.cfi_offset 30, -72
	adrp	x5, :got:__stack_chk_guard
	mov	w7, w1
	mov	x29, sp
	ldr	x6, [x5, #:got_lo12:__stack_chk_guard]
	stp	x19, x20, [sp, 16]
	.cfi_offset 19, -64
	.cfi_offset 20, -56
	mov	x1, x2
	adrp	x5, _ZNSt17_Function_handlerIFbRN8opendnp312HeaderWriterEEZNS0_8MContext17AddAllObjectsScanENS0_16GroupVariationIDEN7openpal12TimeDurationENS0_10TaskConfigEEUlS2_E_E9_M_invokeERKSt9_Any_dataS2_
	ldr	x2, [x6]
	str	x2, [sp, 72]
	mov	x2, 0
	add	x5, x5, :lo12:_ZNSt17_Function_handlerIFbRN8opendnp312HeaderWriterEEZNS0_8MContext17AddAllObjectsScanENS0_16GroupVariationIDEN7openpal12TimeDurationENS0_10TaskConfigEEUlS2_E_E9_M_invokeERKSt9_Any_dataS2_
	adrp	x6, _ZNSt17_Function_handlerIFbRN8opendnp312HeaderWriterEEZNS0_8MContext17AddAllObjectsScanENS0_16GroupVariationIDEN7openpal12TimeDurationENS0_10TaskConfigEEUlS2_E_E10_M_managerERSt9_Any_dataRKSB_St18_Manager_operation
	add	x6, x6, :lo12:_ZNSt17_Function_handlerIFbRN8opendnp312HeaderWriterEEZNS0_8MContext17AddAllObjectsScanENS0_16GroupVariationIDEN7openpal12TimeDurationENS0_10TaskConfigEEUlS2_E_E10_M_managerERSt9_Any_dataRKSB_St18_Manager_operation
	add	x19, sp, 40
	stp	xzr, xzr, [sp, 40]
	mov	x20, x8
	mov	x2, x19
	strh	w7, [sp, 40]
	stp	x6, x5, [sp, 56]
.LEHB37:
	bl	_ZN8opendnp38MContext7AddScanEN7openpal12TimeDurationERKSt8functionIFbRNS_12HeaderWriterEEENS_10TaskConfigE
.LEHE37:
	ldr	x3, [sp, 56]
	cbz	x3, .L1271
	mov	x1, x19
	mov	x0, x19
	mov	w2, 3
	blr	x3
.L1271:
	adrp	x1, :got:__stack_chk_guard
	ldr	x1, [x1, #:got_lo12:__stack_chk_guard]
	ldr	x0, [sp, 72]
	ldr	x2, [x1]
	subs	x0, x0, x2
	mov	x2, 0
	bne	.L1284
	mov	x0, x20
	ldp	x19, x20, [sp, 16]
	ldp	x29, x30, [sp], 80
	.cfi_remember_state
	.cfi_restore 30
	.cfi_restore 29
	.cfi_restore 19
	.cfi_restore 20
	.cfi_def_cfa_offset 0
	ret
.L1284:
	.cfi_restore_state
	bl	__stack_chk_fail
.L1276:
	ldr	x3, [sp, 56]
	mov	x20, x0
	cbz	x3, .L1274
	mov	x1, x19
	mov	x0, x19
	mov	w2, 3
	blr	x3
.L1274:
	mov	x0, x20
.LEHB38:
	bl	_Unwind_Resume
.LEHE38:
	.cfi_endproc
.LFE3516:
	.section	.gcc_except_table
.LLSDA3516:
	.byte	0xff
	.byte	0xff
	.byte	0x1
	.uleb128 .LLSDACSE3516-.LLSDACSB3516
.LLSDACSB3516:
	.uleb128 .LEHB37-.LFB3516
	.uleb128 .LEHE37-.LEHB37
	.uleb128 .L1276-.LFB3516
	.uleb128 0
	.uleb128 .LEHB38-.LFB3516
	.uleb128 .LEHE38-.LEHB38
	.uleb128 0
	.uleb128 0
.LLSDACSE3516:
	.text
	.size	_ZN8opendnp38MContext17AddAllObjectsScanENS_16GroupVariationIDEN7openpal12TimeDurationENS_10TaskConfigE, .-_ZN8opendnp38MContext17AddAllObjectsScanENS_16GroupVariationIDEN7openpal12TimeDurationENS_10TaskConfigE
	.align	2
	.p2align 4,,11
	.global	_ZN8opendnp38MContext12AddRangeScanENS_16GroupVariationIDEttN7openpal12TimeDurationENS_10TaskConfigE
	.type	_ZN8opendnp38MContext12AddRangeScanENS_16GroupVariationIDEttN7openpal12TimeDurationENS_10TaskConfigE, %function
_ZN8opendnp38MContext12AddRangeScanENS_16GroupVariationIDEttN7openpal12TimeDurationENS_10TaskConfigE:
.LFB3520:
	.cfi_startproc
	.cfi_personality 0x9b,DW.ref.__gxx_personality_v0
	.cfi_lsda 0x1b,.LLSDA3520
	stp	x29, x30, [sp, -80]!
	.cfi_def_cfa_offset 80
	.cfi_offset 29, -80
	.cfi_offset 30, -72
	adrp	x7, :got:__stack_chk_guard
	mov	x10, x4
	mov	x29, sp
	ldr	x7, [x7, #:got_lo12:__stack_chk_guard]
	stp	x19, x20, [sp, 16]
	.cfi_offset 19, -64
	.cfi_offset 20, -56
	mov	w9, w1
	ldr	x4, [x7]
	str	x4, [sp, 72]
	mov	x4, 0
	adrp	x7, _ZNSt17_Function_handlerIFbRN8opendnp312HeaderWriterEEZNS0_8MContext12AddRangeScanENS0_16GroupVariationIDEttN7openpal12TimeDurationENS0_10TaskConfigEEUlS2_E_E10_M_managerERSt9_Any_dataRKSB_St18_Manager_operation
	mov	x4, x6
	add	x7, x7, :lo12:_ZNSt17_Function_handlerIFbRN8opendnp312HeaderWriterEEZNS0_8MContext12AddRangeScanENS0_16GroupVariationIDEttN7openpal12TimeDurationENS0_10TaskConfigEEUlS2_E_E10_M_managerERSt9_Any_dataRKSB_St18_Manager_operation
	adrp	x6, _ZNSt17_Function_handlerIFbRN8opendnp312HeaderWriterEEZNS0_8MContext12AddRangeScanENS0_16GroupVariationIDEttN7openpal12TimeDurationENS0_10TaskConfigEEUlS2_E_E9_M_invokeERKSt9_Any_dataS2_
	add	x6, x6, :lo12:_ZNSt17_Function_handlerIFbRN8opendnp312HeaderWriterEEZNS0_8MContext12AddRangeScanENS0_16GroupVariationIDEttN7openpal12TimeDurationENS0_10TaskConfigEEUlS2_E_E9_M_invokeERKSt9_Any_dataS2_
	add	x19, sp, 40
	stp	xzr, xzr, [sp, 40]
	mov	x1, x10
	mov	x20, x8
	strh	w9, [sp, 40]
	strh	w2, [sp, 42]
	mov	x2, x19
	strh	w3, [sp, 44]
	mov	x3, x5
	stp	x7, x6, [sp, 56]
.LEHB39:
	bl	_ZN8opendnp38MContext7AddScanEN7openpal12TimeDurationERKSt8functionIFbRNS_12HeaderWriterEEENS_10TaskConfigE
.LEHE39:
	ldr	x3, [sp, 56]
	cbz	x3, .L1285
	mov	x1, x19
	mov	x0, x19
	mov	w2, 3
	blr	x3
.L1285:
	adrp	x1, :got:__stack_chk_guard
	ldr	x1, [x1, #:got_lo12:__stack_chk_guard]
	ldr	x0, [sp, 72]
	ldr	x2, [x1]
	subs	x0, x0, x2
	mov	x2, 0
	bne	.L1298
	mov	x0, x20
	ldp	x19, x20, [sp, 16]
	ldp	x29, x30, [sp], 80
	.cfi_remember_state
	.cfi_restore 30
	.cfi_restore 29
	.cfi_restore 19
	.cfi_restore 20
	.cfi_def_cfa_offset 0
	ret
.L1298:
	.cfi_restore_state
	bl	__stack_chk_fail
.L1290:
	ldr	x3, [sp, 56]
	mov	x20, x0
	cbz	x3, .L1288
	mov	x1, x19
	mov	x0, x19
	mov	w2, 3
	blr	x3
.L1288:
	mov	x0, x20
.LEHB40:
	bl	_Unwind_Resume
.LEHE40:
	.cfi_endproc
.LFE3520:
	.section	.gcc_except_table
.LLSDA3520:
	.byte	0xff
	.byte	0xff
	.byte	0x1
	.uleb128 .LLSDACSE3520-.LLSDACSB3520
.LLSDACSB3520:
	.uleb128 .LEHB39-.LFB3520
	.uleb128 .LEHE39-.LEHB39
	.uleb128 .L1290-.LFB3520
	.uleb128 0
	.uleb128 .LEHB40-.LFB3520
	.uleb128 .LEHE40-.LEHB40
	.uleb128 0
	.uleb128 0
.LLSDACSE3520:
	.text
	.size	_ZN8opendnp38MContext12AddRangeScanENS_16GroupVariationIDEttN7openpal12TimeDurationENS_10TaskConfigE, .-_ZN8opendnp38MContext12AddRangeScanENS_16GroupVariationIDEttN7openpal12TimeDurationENS_10TaskConfigE
	.align	2
	.p2align 4,,11
	.global	_ZN8opendnp38MContext4ScanERKSt8functionIFbRNS_12HeaderWriterEEENS_10TaskConfigE
	.type	_ZN8opendnp38MContext4ScanERKSt8functionIFbRNS_12HeaderWriterEEENS_10TaskConfigE, %function
_ZN8opendnp38MContext4ScanERKSt8functionIFbRNS_12HeaderWriterEEENS_10TaskConfigE:
.LFB3524:
	.cfi_startproc
	.cfi_personality 0x9b,DW.ref.__gxx_personality_v0
	.cfi_lsda 0x1b,.LLSDA3524
	sub	sp, sp, #176
	.cfi_def_cfa_offset 176
	adrp	x4, :got:__stack_chk_guard
	stp	x29, x30, [sp, 16]
	.cfi_offset 29, -160
	.cfi_offset 30, -152
	add	x29, sp, 16
	ldr	x4, [x4, #:got_lo12:__stack_chk_guard]
	stp	x19, x20, [sp, 32]
	.cfi_offset 19, -144
	.cfi_offset 20, -136
	mov	x20, x0
	stp	x21, x22, [sp, 48]
	.cfi_offset 21, -128
	.cfi_offset 22, -120
	mov	x22, x1
	stp	x23, x24, [sp, 64]
	.cfi_offset 23, -112
	.cfi_offset 24, -104
	mov	x24, x3
	stp	x25, x26, [sp, 80]
	.cfi_offset 25, -96
	.cfi_offset 26, -88
	mov	x25, x2
	stp	x27, x28, [sp, 96]
	.cfi_offset 27, -80
	.cfi_offset 28, -72
	ldr	x0, [x4]
	str	x0, [sp, 168]
	mov	x0, 0
.LEHB41:
	bl	_ZN7openpal12TimeDuration3MaxEv
	mov	x23, x0
	mov	x0, 176
	ldr	x28, [x20, 128]
	ldr	x26, [x20, 144]
	bl	_Znwm
.LEHE41:
	ldr	q0, [x20, 24]
	adrp	x4, :got:_ZTVSt23_Sp_counted_ptr_inplaceIN8opendnp312UserPollTaskESaIS1_ELN9__gnu_cxx12_Lock_policyE2EE
	movi	v1.2s, 0x1
	mov	x19, x0
	mov	x21, x0
	add	x27, x0, 8
	umov	x1, v0.d[1]
	str	q0, [sp, 128]
	ldr	x0, [x4, #:got_lo12:_ZTVSt23_Sp_counted_ptr_inplaceIN8opendnp312UserPollTaskESaIS1_ELN9__gnu_cxx12_Lock_policyE2EE]
	str	d1, [x19, 8]
	ldr	x4, [x20, 104]
	add	x0, x0, 16
	str	x0, [x21], 16
	cbz	x1, .L1300
	adrp	x0, :got:__libc_single_threaded
	ldr	x0, [x0, #:got_lo12:__libc_single_threaded]
	ldrb	w0, [x0]
	cbz	w0, .L1301
	ldr	w0, [x1, 8]
	add	w0, w0, 1
	str	w0, [x1, 8]
.L1300:
	ldr	q0, [x20, 40]
	umov	x1, v0.d[1]
	str	q0, [sp, 144]
	cbz	x1, .L1302
	adrp	x0, :got:__libc_single_threaded
	ldr	x0, [x0, #:got_lo12:__libc_single_threaded]
	ldrb	w0, [x0]
	cbz	w0, .L1303
	ldr	w0, [x1, 8]
	add	w0, w0, 1
	str	w0, [x1, 8]
.L1302:
	stp	x25, x24, [sp]
	add	x25, sp, 128
	mov	x6, x28
	mov	x5, x26
	mov	x3, x23
	mov	x1, x22
	mov	x0, x21
	mov	x7, x25
	mov	w2, 0
.LEHB42:
	bl	_ZN8opendnp312UserPollTaskC1ERKSt8functionIFbRNS_12HeaderWriterEEEbN7openpal12TimeDurationES9_RNS_18IMasterApplicationERNS_11ISOEHandlerENS8_6LoggerENS_10TaskConfigE
.LEHE42:
	adrp	x22, :got:__libc_single_threaded
	ldr	x23, [sp, 152]
	ldr	x0, [x22, #:got_lo12:__libc_single_threaded]
	ldrb	w0, [x0]
	cbz	x23, .L1305
	cbz	w0, .L1306
	ldr	w0, [x23, 8]
	sub	w1, w0, #1
	str	w1, [x23, 8]
.L1307:
	cmp	w0, 1
	beq	.L1358
.L1305:
	ldr	x0, [x22, #:got_lo12:__libc_single_threaded]
	ldr	x23, [sp, 136]
	ldrb	w0, [x0]
	cbz	x23, .L1312
	cbz	w0, .L1313
	ldr	w0, [x23, 8]
	sub	w1, w0, #1
	str	w1, [x23, 8]
.L1314:
	cmp	w0, 1
	beq	.L1359
.L1312:
	ldr	x0, [x22, #:got_lo12:__libc_single_threaded]
	stp	x21, x19, [sp, 128]
	ldrb	w0, [x0]
	cbz	w0, .L1360
	ldr	w0, [x19, 8]
	add	w0, w0, 1
	str	w0, [x19, 8]
.L1321:
	mov	x1, x25
	mov	x0, x20
.LEHB43:
	bl	_ZN8opendnp38MContext17ScheduleAdhocTaskERKSt10shared_ptrINS_11IMasterTaskEE
.LEHE43:
	ldr	x0, [x22, #:got_lo12:__libc_single_threaded]
	ldr	x20, [sp, 136]
	ldrb	w0, [x0]
	cbz	x20, .L1327
	cbz	w0, .L1323
	ldr	w0, [x20, 8]
	sub	w1, w0, #1
	str	w1, [x20, 8]
.L1324:
	cmp	w0, 1
	beq	.L1361
.L1327:
	ldr	x0, [x22, #:got_lo12:__libc_single_threaded]
	ldrb	w0, [x0]
	cbz	w0, .L1362
	ldr	w0, [x19, 8]
	sub	w1, w0, #1
	str	w1, [x19, 8]
.L1328:
	cmp	w0, 1
	beq	.L1363
.L1299:
	adrp	x0, :got:__stack_chk_guard
	ldr	x0, [x0, #:got_lo12:__stack_chk_guard]
	ldr	x2, [sp, 168]
	ldr	x1, [x0]
	subs	x2, x2, x1
	mov	x1, 0
	bne	.L1357
	ldp	x29, x30, [sp, 16]
	ldp	x19, x20, [sp, 32]
	ldp	x21, x22, [sp, 48]
	ldp	x23, x24, [sp, 64]
	ldp	x25, x26, [sp, 80]
	ldp	x27, x28, [sp, 96]
	add	sp, sp, 176
	.cfi_remember_state
	.cfi_restore 29
	.cfi_restore 30
	.cfi_restore 27
	.cfi_restore 28
	.cfi_restore 25
	.cfi_restore 26
	.cfi_restore 23
	.cfi_restore 24
	.cfi_restore 21
	.cfi_restore 22
	.cfi_restore 19
	.cfi_restore 20
	.cfi_def_cfa_offset 0
	ret
	.p2align 2,,3
.L1301:
	.cfi_restore_state
	add	x1, x1, 8
	mov	w0, 1
	str	x4, [sp, 120]
	bl	__aarch64_ldadd4_acq_rel
	ldr	x4, [sp, 120]
	b	.L1300
	.p2align 2,,3
.L1303:
	add	x1, x1, 8
	mov	w0, 1
	str	x4, [sp, 120]
	bl	__aarch64_ldadd4_acq_rel
	ldr	x4, [sp, 120]
	b	.L1302
	.p2align 2,,3
.L1360:
	mov	x1, x27
	mov	w0, 1
	bl	__aarch64_ldadd4_acq_rel
	b	.L1321
	.p2align 2,,3
.L1358:
	ldr	x1, [x23]
	mov	x0, x23
	ldr	x1, [x1, 16]
	blr	x1
	ldr	x0, [x22, #:got_lo12:__libc_single_threaded]
	ldrb	w0, [x0]
	cbz	w0, .L1309
	ldr	w0, [x23, 12]
	sub	w1, w0, #1
	str	w1, [x23, 12]
.L1310:
	cmp	w0, 1
	bne	.L1305
	ldr	x1, [x23]
	mov	x0, x23
	ldr	x1, [x1, 24]
	blr	x1
	b	.L1305
	.p2align 2,,3
.L1359:
	ldr	x1, [x23]
	mov	x0, x23
	ldr	x1, [x1, 16]
	blr	x1
	ldr	x0, [x22, #:got_lo12:__libc_single_threaded]
	ldrb	w0, [x0]
	cbz	w0, .L1316
	ldr	w0, [x23, 12]
	sub	w1, w0, #1
	str	w1, [x23, 12]
.L1317:
	cmp	w0, 1
	bne	.L1312
	ldr	x1, [x23]
	mov	x0, x23
	ldr	x1, [x1, 24]
	blr	x1
	b	.L1312
	.p2align 2,,3
.L1363:
	ldr	x1, [x19]
	mov	x0, x19
	ldr	x1, [x1, 16]
	blr	x1
	ldr	x22, [x22, #:got_lo12:__libc_single_threaded]
	ldrb	w0, [x22]
	cbz	w0, .L1331
	ldr	w0, [x19, 12]
	sub	w1, w0, #1
	str	w1, [x19, 12]
.L1332:
	cmp	w0, 1
	bne	.L1299
	adrp	x0, :got:__stack_chk_guard
	ldr	x0, [x0, #:got_lo12:__stack_chk_guard]
	ldr	x2, [sp, 168]
	ldr	x1, [x0]
	subs	x2, x2, x1
	mov	x1, 0
	bne	.L1357
	ldr	x1, [x19]
	mov	x0, x19
	ldp	x29, x30, [sp, 16]
	ldp	x19, x20, [sp, 32]
	ldp	x21, x22, [sp, 48]
	ldp	x23, x24, [sp, 64]
	ldp	x25, x26, [sp, 80]
	ldp	x27, x28, [sp, 96]
	ldr	x1, [x1, 24]
	add	sp, sp, 176
	.cfi_remember_state
	.cfi_restore 29
	.cfi_restore 30
	.cfi_restore 27
	.cfi_restore 28
	.cfi_restore 25
	.cfi_restore 26
	.cfi_restore 23
	.cfi_restore 24
	.cfi_restore 21
	.cfi_restore 22
	.cfi_restore 19
	.cfi_restore 20
	.cfi_def_cfa_offset 0
	mov	x16, x1
	br	x16
	.p2align 2,,3
.L1361:
	.cfi_restore_state
	ldr	x1, [x20]
	mov	x0, x20
	ldr	x1, [x1, 16]
	blr	x1
	ldr	x0, [x22, #:got_lo12:__libc_single_threaded]
	ldrb	w0, [x0]
	cbz	w0, .L1325
	ldr	w0, [x20, 12]
	sub	w1, w0, #1
	str	w1, [x20, 12]
.L1326:
	cmp	w0, 1
	bne	.L1327
	ldr	x1, [x20]
	mov	x0, x20
	ldr	x1, [x1, 24]
	blr	x1
	b	.L1327
	.p2align 2,,3
.L1306:
	add	x1, x23, 8
	mov	w0, -1
	bl	__aarch64_ldadd4_acq_rel
	b	.L1307
	.p2align 2,,3
.L1313:
	add	x1, x23, 8
	mov	w0, -1
	bl	__aarch64_ldadd4_acq_rel
	b	.L1314
	.p2align 2,,3
.L1362:
	mov	x1, x27
	mov	w0, -1
	bl	__aarch64_ldadd4_acq_rel
	b	.L1328
	.p2align 2,,3
.L1323:
	add	x1, x20, 8
	mov	w0, -1
	bl	__aarch64_ldadd4_acq_rel
	b	.L1324
	.p2align 2,,3
.L1331:
	add	x1, x19, 12
	mov	w0, -1
	bl	__aarch64_ldadd4_acq_rel
	b	.L1332
	.p2align 2,,3
.L1316:
	add	x1, x23, 12
	mov	w0, -1
	bl	__aarch64_ldadd4_acq_rel
	b	.L1317
	.p2align 2,,3
.L1309:
	add	x1, x23, 12
	mov	w0, -1
	bl	__aarch64_ldadd4_acq_rel
	b	.L1310
	.p2align 2,,3
.L1325:
	add	x1, x20, 12
	mov	w0, -1
	bl	__aarch64_ldadd4_acq_rel
	b	.L1326
.L1357:
	bl	__stack_chk_fail
.L1341:
	mov	x20, x0
	mov	x0, x25
	bl	_ZN7openpal6LoggerD1Ev
	mov	x1, 176
	mov	x0, x19
	bl	_ZdlPvm
	mov	x0, x20
.LEHB44:
	bl	_Unwind_Resume
.L1340:
	ldr	x1, [sp, 136]
	mov	x20, x0
	cbz	x1, .L1336
	mov	x0, x1
	bl	_ZNSt16_Sp_counted_baseILN9__gnu_cxx12_Lock_policyE2EE10_M_releaseEv
.L1336:
	mov	x0, x19
	bl	_ZNSt16_Sp_counted_baseILN9__gnu_cxx12_Lock_policyE2EE10_M_releaseEv
	mov	x0, x20
	bl	_Unwind_Resume
.LEHE44:
	.cfi_endproc
.LFE3524:
	.section	.gcc_except_table
.LLSDA3524:
	.byte	0xff
	.byte	0xff
	.byte	0x1
	.uleb128 .LLSDACSE3524-.LLSDACSB3524
.LLSDACSB3524:
	.uleb128 .LEHB41-.LFB3524
	.uleb128 .LEHE41-.LEHB41
	.uleb128 0
	.uleb128 0
	.uleb128 .LEHB42-.LFB3524
	.uleb128 .LEHE42-.LEHB42
	.uleb128 .L1341-.LFB3524
	.uleb128 0
	.uleb128 .LEHB43-.LFB3524
	.uleb128 .LEHE43-.LEHB43
	.uleb128 .L1340-.LFB3524
	.uleb128 0
	.uleb128 .LEHB44-.LFB3524
	.uleb128 .LEHE44-.LEHB44
	.uleb128 0
	.uleb128 0
.LLSDACSE3524:
	.text
	.size	_ZN8opendnp38MContext4ScanERKSt8functionIFbRNS_12HeaderWriterEEENS_10TaskConfigE, .-_ZN8opendnp38MContext4ScanERKSt8functionIFbRNS_12HeaderWriterEEENS_10TaskConfigE
	.align	2
	.p2align 4,,11
	.global	_ZN8opendnp38MContext11ScanClassesERKNS_10ClassFieldENS_10TaskConfigE
	.type	_ZN8opendnp38MContext11ScanClassesERKNS_10ClassFieldENS_10TaskConfigE, %function
_ZN8opendnp38MContext11ScanClassesERKNS_10ClassFieldENS_10TaskConfigE:
.LFB3525:
	.cfi_startproc
	.cfi_personality 0x9b,DW.ref.__gxx_personality_v0
	.cfi_lsda 0x1b,.LLSDA3525
	stp	x29, x30, [sp, -80]!
	.cfi_def_cfa_offset 80
	.cfi_offset 29, -80
	.cfi_offset 30, -72
	adrp	x5, :got:__stack_chk_guard
	adrp	x4, _ZNSt17_Function_handlerIFbRN8opendnp312HeaderWriterEEZNS0_8MContext11ScanClassesERKNS0_10ClassFieldENS0_10TaskConfigEEUlS2_E_E9_M_invokeERKSt9_Any_dataS2_
	mov	x29, sp
	ldr	x6, [x5, #:got_lo12:__stack_chk_guard]
	add	x4, x4, :lo12:_ZNSt17_Function_handlerIFbRN8opendnp312HeaderWriterEEZNS0_8MContext11ScanClassesERKNS0_10ClassFieldENS0_10TaskConfigEEUlS2_E_E9_M_invokeERKSt9_Any_dataS2_
	ldrb	w7, [x1]
	adrp	x5, _ZNSt17_Function_handlerIFbRN8opendnp312HeaderWriterEEZNS0_8MContext11ScanClassesERKNS0_10ClassFieldENS0_10TaskConfigEEUlS2_E_E10_M_managerERSt9_Any_dataRKSB_St18_Manager_operation
	add	x5, x5, :lo12:_ZNSt17_Function_handlerIFbRN8opendnp312HeaderWriterEEZNS0_8MContext11ScanClassesERKNS0_10ClassFieldENS0_10TaskConfigEEUlS2_E_E10_M_managerERSt9_Any_dataRKSB_St18_Manager_operation
	stp	x19, x20, [sp, 16]
	.cfi_offset 19, -64
	.cfi_offset 20, -56
	add	x19, sp, 40
	ldr	x1, [x6]
	str	x1, [sp, 72]
	mov	x1, 0
	stp	xzr, xzr, [sp, 40]
	mov	x1, x19
	strb	w7, [sp, 40]
	stp	x5, x4, [sp, 56]
.LEHB45:
	bl	_ZN8opendnp38MContext4ScanERKSt8functionIFbRNS_12HeaderWriterEEENS_10TaskConfigE
.LEHE45:
	ldr	x3, [sp, 56]
	cbz	x3, .L1364
	mov	x1, x19
	mov	x0, x19
	mov	w2, 3
	blr	x3
.L1364:
	adrp	x0, :got:__stack_chk_guard
	ldr	x0, [x0, #:got_lo12:__stack_chk_guard]
	ldr	x2, [sp, 72]
	ldr	x1, [x0]
	subs	x2, x2, x1
	mov	x1, 0
	bne	.L1377
	ldp	x19, x20, [sp, 16]
	ldp	x29, x30, [sp], 80
	.cfi_remember_state
	.cfi_restore 30
	.cfi_restore 29
	.cfi_restore 19
	.cfi_restore 20
	.cfi_def_cfa_offset 0
	ret
.L1377:
	.cfi_restore_state
	bl	__stack_chk_fail
.L1369:
	ldr	x3, [sp, 56]
	mov	x20, x0
	cbz	x3, .L1367
	mov	x1, x19
	mov	x0, x19
	mov	w2, 3
	blr	x3
.L1367:
	mov	x0, x20
.LEHB46:
	bl	_Unwind_Resume
.LEHE46:
	.cfi_endproc
.LFE3525:
	.section	.gcc_except_table
.LLSDA3525:
	.byte	0xff
	.byte	0xff
	.byte	0x1
	.uleb128 .LLSDACSE3525-.LLSDACSB3525
.LLSDACSB3525:
	.uleb128 .LEHB45-.LFB3525
	.uleb128 .LEHE45-.LEHB45
	.uleb128 .L1369-.LFB3525
	.uleb128 0
	.uleb128 .LEHB46-.LFB3525
	.uleb128 .LEHE46-.LEHB46
	.uleb128 0
	.uleb128 0
.LLSDACSE3525:
	.text
	.size	_ZN8opendnp38MContext11ScanClassesERKNS_10ClassFieldENS_10TaskConfigE, .-_ZN8opendnp38MContext11ScanClassesERKNS_10ClassFieldENS_10TaskConfigE
	.align	2
	.p2align 4,,11
	.global	_ZN8opendnp38MContext14ScanAllObjectsENS_16GroupVariationIDENS_10TaskConfigE
	.type	_ZN8opendnp38MContext14ScanAllObjectsENS_16GroupVariationIDENS_10TaskConfigE, %function
_ZN8opendnp38MContext14ScanAllObjectsENS_16GroupVariationIDENS_10TaskConfigE:
.LFB3529:
	.cfi_startproc
	.cfi_personality 0x9b,DW.ref.__gxx_personality_v0
	.cfi_lsda 0x1b,.LLSDA3529
	stp	x29, x30, [sp, -80]!
	.cfi_def_cfa_offset 80
	.cfi_offset 29, -80
	.cfi_offset 30, -72
	adrp	x6, :got:__stack_chk_guard
	mov	w7, w1
	mov	x29, sp
	ldr	x6, [x6, #:got_lo12:__stack_chk_guard]
	stp	x19, x20, [sp, 16]
	.cfi_offset 19, -64
	.cfi_offset 20, -56
	adrp	x4, _ZNSt17_Function_handlerIFbRN8opendnp312HeaderWriterEEZNS0_8MContext14ScanAllObjectsENS0_16GroupVariationIDENS0_10TaskConfigEEUlS2_E_E9_M_invokeERKSt9_Any_dataS2_
	ldr	x8, [x6]
	str	x8, [sp, 72]
	mov	x8, 0
	add	x4, x4, :lo12:_ZNSt17_Function_handlerIFbRN8opendnp312HeaderWriterEEZNS0_8MContext14ScanAllObjectsENS0_16GroupVariationIDENS0_10TaskConfigEEUlS2_E_E9_M_invokeERKSt9_Any_dataS2_
	adrp	x5, _ZNSt17_Function_handlerIFbRN8opendnp312HeaderWriterEEZNS0_8MContext14ScanAllObjectsENS0_16GroupVariationIDENS0_10TaskConfigEEUlS2_E_E10_M_managerERSt9_Any_dataRKS9_St18_Manager_operation
	add	x5, x5, :lo12:_ZNSt17_Function_handlerIFbRN8opendnp312HeaderWriterEEZNS0_8MContext14ScanAllObjectsENS0_16GroupVariationIDENS0_10TaskConfigEEUlS2_E_E10_M_managerERSt9_Any_dataRKS9_St18_Manager_operation
	add	x19, sp, 40
	stp	xzr, xzr, [sp, 40]
	mov	x1, x19
	strh	w7, [sp, 40]
	stp	x5, x4, [sp, 56]
.LEHB47:
	bl	_ZN8opendnp38MContext4ScanERKSt8functionIFbRNS_12HeaderWriterEEENS_10TaskConfigE
.LEHE47:
	ldr	x3, [sp, 56]
	cbz	x3, .L1378
	mov	x1, x19
	mov	x0, x19
	mov	w2, 3
	blr	x3
.L1378:
	adrp	x0, :got:__stack_chk_guard
	ldr	x0, [x0, #:got_lo12:__stack_chk_guard]
	ldr	x2, [sp, 72]
	ldr	x1, [x0]
	subs	x2, x2, x1
	mov	x1, 0
	bne	.L1391
	ldp	x19, x20, [sp, 16]
	ldp	x29, x30, [sp], 80
	.cfi_remember_state
	.cfi_restore 30
	.cfi_restore 29
	.cfi_restore 19
	.cfi_restore 20
	.cfi_def_cfa_offset 0
	ret
.L1391:
	.cfi_restore_state
	bl	__stack_chk_fail
.L1383:
	ldr	x3, [sp, 56]
	mov	x20, x0
	cbz	x3, .L1381
	mov	x1, x19
	mov	x0, x19
	mov	w2, 3
	blr	x3
.L1381:
	mov	x0, x20
.LEHB48:
	bl	_Unwind_Resume
.LEHE48:
	.cfi_endproc
.LFE3529:
	.section	.gcc_except_table
.LLSDA3529:
	.byte	0xff
	.byte	0xff
	.byte	0x1
	.uleb128 .LLSDACSE3529-.LLSDACSB3529
.LLSDACSB3529:
	.uleb128 .LEHB47-.LFB3529
	.uleb128 .LEHE47-.LEHB47
	.uleb128 .L1383-.LFB3529
	.uleb128 0
	.uleb128 .LEHB48-.LFB3529
	.uleb128 .LEHE48-.LEHB48
	.uleb128 0
	.uleb128 0
.LLSDACSE3529:
	.text
	.size	_ZN8opendnp38MContext14ScanAllObjectsENS_16GroupVariationIDENS_10TaskConfigE, .-_ZN8opendnp38MContext14ScanAllObjectsENS_16GroupVariationIDENS_10TaskConfigE
	.align	2
	.p2align 4,,11
	.global	_ZN8opendnp38MContext9ScanRangeENS_16GroupVariationIDEttNS_10TaskConfigE
	.type	_ZN8opendnp38MContext9ScanRangeENS_16GroupVariationIDEttNS_10TaskConfigE, %function
_ZN8opendnp38MContext9ScanRangeENS_16GroupVariationIDEttNS_10TaskConfigE:
.LFB3533:
	.cfi_startproc
	.cfi_personality 0x9b,DW.ref.__gxx_personality_v0
	.cfi_lsda 0x1b,.LLSDA3533
	stp	x29, x30, [sp, -80]!
	.cfi_def_cfa_offset 80
	.cfi_offset 29, -80
	.cfi_offset 30, -72
	adrp	x6, :got:__stack_chk_guard
	mov	x8, x4
	mov	x29, sp
	mov	w4, w1
	ldr	x1, [x6, #:got_lo12:__stack_chk_guard]
	stp	x19, x20, [sp, 16]
	.cfi_offset 19, -64
	.cfi_offset 20, -56
	mov	x9, x5
	ldr	x7, [x1]
	str	x7, [sp, 72]
	mov	x7, 0
	adrp	x5, _ZNSt17_Function_handlerIFbRN8opendnp312HeaderWriterEEZNS0_8MContext9ScanRangeENS0_16GroupVariationIDEttNS0_10TaskConfigEEUlS2_E_E9_M_invokeERKSt9_Any_dataS2_
	adrp	x6, _ZNSt17_Function_handlerIFbRN8opendnp312HeaderWriterEEZNS0_8MContext9ScanRangeENS0_16GroupVariationIDEttNS0_10TaskConfigEEUlS2_E_E10_M_managerERSt9_Any_dataRKS9_St18_Manager_operation
	add	x5, x5, :lo12:_ZNSt17_Function_handlerIFbRN8opendnp312HeaderWriterEEZNS0_8MContext9ScanRangeENS0_16GroupVariationIDEttNS0_10TaskConfigEEUlS2_E_E9_M_invokeERKSt9_Any_dataS2_
	add	x6, x6, :lo12:_ZNSt17_Function_handlerIFbRN8opendnp312HeaderWriterEEZNS0_8MContext9ScanRangeENS0_16GroupVariationIDEttNS0_10TaskConfigEEUlS2_E_E10_M_managerERSt9_Any_dataRKS9_St18_Manager_operation
	add	x19, sp, 40
	stp	xzr, xzr, [sp, 40]
	mov	x1, x19
	strh	w4, [sp, 40]
	strh	w2, [sp, 42]
	mov	x2, x8
	strh	w3, [sp, 44]
	mov	x3, x9
	stp	x6, x5, [sp, 56]
.LEHB49:
	bl	_ZN8opendnp38MContext4ScanERKSt8functionIFbRNS_12HeaderWriterEEENS_10TaskConfigE
.LEHE49:
	ldr	x3, [sp, 56]
	cbz	x3, .L1392
	mov	x1, x19
	mov	x0, x19
	mov	w2, 3
	blr	x3
.L1392:
	adrp	x0, :got:__stack_chk_guard
	ldr	x0, [x0, #:got_lo12:__stack_chk_guard]
	ldr	x2, [sp, 72]
	ldr	x1, [x0]
	subs	x2, x2, x1
	mov	x1, 0
	bne	.L1405
	ldp	x19, x20, [sp, 16]
	ldp	x29, x30, [sp], 80
	.cfi_remember_state
	.cfi_restore 30
	.cfi_restore 29
	.cfi_restore 19
	.cfi_restore 20
	.cfi_def_cfa_offset 0
	ret
.L1405:
	.cfi_restore_state
	bl	__stack_chk_fail
.L1397:
	ldr	x3, [sp, 56]
	mov	x20, x0
	cbz	x3, .L1395
	mov	x1, x19
	mov	x0, x19
	mov	w2, 3
	blr	x3
.L1395:
	mov	x0, x20
.LEHB50:
	bl	_Unwind_Resume
.LEHE50:
	.cfi_endproc
.LFE3533:
	.section	.gcc_except_table
.LLSDA3533:
	.byte	0xff
	.byte	0xff
	.byte	0x1
	.uleb128 .LLSDACSE3533-.LLSDACSB3533
.LLSDACSB3533:
	.uleb128 .LEHB49-.LFB3533
	.uleb128 .LEHE49-.LEHB49
	.uleb128 .L1397-.LFB3533
	.uleb128 0
	.uleb128 .LEHB50-.LFB3533
	.uleb128 .LEHE50-.LEHB50
	.uleb128 0
	.uleb128 0
.LLSDACSE3533:
	.text
	.size	_ZN8opendnp38MContext9ScanRangeENS_16GroupVariationIDEttNS_10TaskConfigE, .-_ZN8opendnp38MContext9ScanRangeENS_16GroupVariationIDEttNS_10TaskConfigE
	.section	.rodata.str1.8
	.align	3
.LC17:
	.string	"WRITE TimeAndInterval"
	.text
	.align	2
	.p2align 4,,11
	.global	_ZN8opendnp38MContext5WriteERKNS_15TimeAndIntervalEtNS_10TaskConfigE
	.type	_ZN8opendnp38MContext5WriteERKNS_15TimeAndIntervalEtNS_10TaskConfigE, %function
_ZN8opendnp38MContext5WriteERKNS_15TimeAndIntervalEtNS_10TaskConfigE:
.LFB3537:
	.cfi_startproc
	.cfi_personality 0x9b,DW.ref.__gxx_personality_v0
	.cfi_lsda 0x1b,.LLSDA3537
	stp	x29, x30, [sp, -256]!
	.cfi_def_cfa_offset 256
	.cfi_offset 29, -256
	.cfi_offset 30, -248
	adrp	x5, :got:__stack_chk_guard
	mov	x29, sp
	stp	x19, x20, [sp, 16]
	.cfi_offset 19, -240
	.cfi_offset 20, -232
	and	w19, w2, 65535
	stp	x3, x4, [sp, 96]
	ldp	x2, x3, [x1]
	stp	x21, x22, [sp, 32]
	.cfi_offset 21, -224
	.cfi_offset 22, -216
	mov	x21, x0
	ldr	x5, [x5, #:got_lo12:__stack_chk_guard]
	stp	x23, x24, [sp, 48]
	.cfi_offset 23, -208
	.cfi_offset 24, -200
	add	x23, sp, 144
	stp	x25, x26, [sp, 64]
	.cfi_offset 25, -192
	.cfi_offset 26, -184
	add	x25, sp, 184
	add	x24, sp, 200
	stp	x27, x28, [sp, 80]
	.cfi_offset 27, -176
	.cfi_offset 28, -168
	ldr	x0, [x5]
	str	x0, [sp, 248]
	mov	x0, 0
	stp	x2, x3, [sp, 120]
	mov	x0, 176
	ldr	x26, [x21, 144]
.LEHB51:
	bl	_Znwm
.LEHE51:
	adrp	x3, :got:_ZTVSt23_Sp_counted_ptr_inplaceIN8opendnp317EmptyResponseTaskESaIS1_ELN9__gnu_cxx12_Lock_policyE2EE
	movi	v0.2s, 0x1
	mov	x20, x0
	mov	x22, x0
	ldr	x3, [x3, #:got_lo12:_ZTVSt23_Sp_counted_ptr_inplaceIN8opendnp317EmptyResponseTaskESaIS1_ELN9__gnu_cxx12_Lock_policyE2EE]
	mov	x4, 21
	str	d0, [x20, 8]
	mov	x0, x25
	add	x3, x3, 16
	str	x3, [x22], 16
	mov	x1, x23
	mov	x2, 0
	str	x4, [sp, 144]
	str	x24, [sp, 184]
.LEHB52:
	bl	_ZNSt7__cxx1112basic_stringIcSt11char_traitsIcESaIcEE9_M_createERmm
.LEHE52:
	adrp	x2, .LC17
	add	x2, x2, :lo12:.LC17
	mov	x1, x0
	str	x1, [sp, 184]
	ldr	x0, [sp, 144]
	str	x0, [sp, 200]
	ldp	x4, x5, [x2]
	stp	x4, x5, [x1]
	mov	x0, 24
	ldr	x2, [x2, 13]
	str	x2, [x1, 13]
	ldr	x2, [sp, 184]
	ldr	x1, [sp, 144]
	str	x1, [sp, 192]
	strb	wzr, [x2, x1]
	stp	xzr, xzr, [sp, 216]
	stp	xzr, xzr, [sp, 232]
.LEHB53:
	bl	_Znwm
.LEHE53:
	adrp	x2, _ZNSt17_Function_handlerIFbRN8opendnp312HeaderWriterEEZNS0_8MContext5WriteERKNS0_15TimeAndIntervalEtNS0_10TaskConfigEEUlS2_E_E9_M_invokeERKSt9_Any_dataS2_
	ldr	q0, [x21, 24]
	strh	w19, [sp, 136]
	ldp	x4, x5, [sp, 120]
	add	x2, x2, :lo12:_ZNSt17_Function_handlerIFbRN8opendnp312HeaderWriterEEZNS0_8MContext5WriteERKNS0_15TimeAndIntervalEtNS0_10TaskConfigEEUlS2_E_E9_M_invokeERKSt9_Any_dataS2_
	umov	x1, v0.d[1]
	adrp	x3, _ZNSt17_Function_handlerIFbRN8opendnp312HeaderWriterEEZNS0_8MContext5WriteERKNS0_15TimeAndIntervalEtNS0_10TaskConfigEEUlS2_E_E10_M_managerERSt9_Any_dataRKSB_St18_Manager_operation
	ldr	x6, [sp, 136]
	add	x3, x3, :lo12:_ZNSt17_Function_handlerIFbRN8opendnp312HeaderWriterEEZNS0_8MContext5WriteERKNS0_15TimeAndIntervalEtNS0_10TaskConfigEEUlS2_E_E10_M_managerERSt9_Any_dataRKSB_St18_Manager_operation
	stp	x4, x5, [x0]
	add	x27, x20, 8
	str	x6, [x0, 16]
	str	x0, [sp, 216]
	stp	x3, x2, [sp, 232]
	str	q0, [sp, 144]
	cbz	x1, .L1408
	adrp	x19, :got:__libc_single_threaded
	ldr	x19, [x19, #:got_lo12:__libc_single_threaded]
	ldrb	w0, [x19]
	cbz	w0, .L1412
	ldr	w0, [x1, 8]
	add	w0, w0, 1
	str	w0, [x1, 8]
.L1408:
	ldr	q0, [x21, 40]
	umov	x1, v0.d[1]
	str	q0, [sp, 160]
	cbz	x1, .L1413
	adrp	x19, :got:__libc_single_threaded
	ldr	x19, [x19, #:got_lo12:__libc_single_threaded]
	ldrb	w0, [x19]
	cbz	w0, .L1414
	ldr	w0, [x1, 8]
	add	w0, w0, 1
	str	w0, [x1, 8]
.L1413:
	add	x28, sp, 216
	mov	x2, x25
	mov	x1, x26
	mov	x4, x28
	add	x6, sp, 96
	mov	x5, x23
	mov	x0, x22
	mov	w3, 2
.LEHB54:
	bl	_ZN8opendnp317EmptyResponseTaskC1ERNS_18IMasterApplicationERKNSt7__cxx1112basic_stringIcSt11char_traitsIcESaIcEEENS_12FunctionCodeERKSt8functionIFbRNS_12HeaderWriterEEEN7openpal6LoggerERKNS_10TaskConfigE
.LEHE54:
	ldr	x25, [sp, 168]
	adrp	x19, :got:__libc_single_threaded
	cbz	x25, .L1416
	ldr	x0, [x19, #:got_lo12:__libc_single_threaded]
	ldrb	w0, [x0]
	cbz	w0, .L1417
	ldr	w0, [x25, 8]
	sub	w1, w0, #1
	str	w1, [x25, 8]
.L1418:
	cmp	w0, 1
	beq	.L1480
.L1416:
	ldr	x25, [sp, 152]
	cbz	x25, .L1423
	ldr	x0, [x19, #:got_lo12:__libc_single_threaded]
	ldrb	w0, [x0]
	cbz	w0, .L1424
	ldr	w0, [x25, 8]
	sub	w1, w0, #1
	str	w1, [x25, 8]
.L1425:
	cmp	w0, 1
	beq	.L1481
.L1423:
	ldr	x3, [sp, 232]
	cbz	x3, .L1429
	mov	x1, x28
	mov	x0, x28
	mov	w2, 3
	blr	x3
.L1429:
	ldr	x0, [sp, 184]
	cmp	x0, x24
	beq	.L1430
	ldr	x1, [sp, 200]
	add	x1, x1, 1
	bl	_ZdlPvm
.L1430:
	ldr	x0, [x19, #:got_lo12:__libc_single_threaded]
	stp	x22, x20, [sp, 144]
	ldrb	w0, [x0]
	cbz	w0, .L1482
	ldr	w0, [x20, 8]
	add	w0, w0, 1
	str	w0, [x20, 8]
.L1435:
	mov	x1, x23
	mov	x0, x21
.LEHB55:
	bl	_ZN8opendnp38MContext17ScheduleAdhocTaskERKSt10shared_ptrINS_11IMasterTaskEE
.LEHE55:
	ldr	x0, [x19, #:got_lo12:__libc_single_threaded]
	ldr	x21, [sp, 152]
	ldrb	w0, [x0]
	cbz	x21, .L1441
	cbz	w0, .L1437
	ldr	w0, [x21, 8]
	sub	w1, w0, #1
	str	w1, [x21, 8]
.L1438:
	cmp	w0, 1
	beq	.L1483
.L1441:
	ldr	x0, [x19, #:got_lo12:__libc_single_threaded]
	ldrb	w0, [x0]
	cbz	w0, .L1484
	ldr	w0, [x20, 8]
	sub	w1, w0, #1
	str	w1, [x20, 8]
.L1442:
	cmp	w0, 1
	beq	.L1485
.L1406:
	adrp	x0, :got:__stack_chk_guard
	ldr	x0, [x0, #:got_lo12:__stack_chk_guard]
	ldr	x2, [sp, 248]
	ldr	x1, [x0]
	subs	x2, x2, x1
	mov	x1, 0
	bne	.L1486
	ldp	x19, x20, [sp, 16]
	ldp	x21, x22, [sp, 32]
	ldp	x23, x24, [sp, 48]
	ldp	x25, x26, [sp, 64]
	ldp	x27, x28, [sp, 80]
	ldp	x29, x30, [sp], 256
	.cfi_remember_state
	.cfi_restore 30
	.cfi_restore 29
	.cfi_restore 27
	.cfi_restore 28
	.cfi_restore 25
	.cfi_restore 26
	.cfi_restore 23
	.cfi_restore 24
	.cfi_restore 21
	.cfi_restore 22
	.cfi_restore 19
	.cfi_restore 20
	.cfi_def_cfa_offset 0
	ret
	.p2align 2,,3
.L1414:
	.cfi_restore_state
	add	x1, x1, 8
	mov	w0, 1
	bl	__aarch64_ldadd4_acq_rel
	b	.L1413
	.p2align 2,,3
.L1412:
	add	x1, x1, 8
	mov	w0, 1
	bl	__aarch64_ldadd4_acq_rel
	b	.L1408
	.p2align 2,,3
.L1482:
	mov	x1, x27
	mov	w0, 1
	bl	__aarch64_ldadd4_acq_rel
	b	.L1435
	.p2align 2,,3
.L1480:
	ldr	x1, [x25]
	mov	x0, x25
	ldr	x1, [x1, 16]
	blr	x1
	ldr	x0, [x19, #:got_lo12:__libc_single_threaded]
	ldrb	w0, [x0]
	cbz	w0, .L1420
	ldr	w0, [x25, 12]
	sub	w1, w0, #1
	str	w1, [x25, 12]
.L1421:
	cmp	w0, 1
	bne	.L1416
	ldr	x1, [x25]
	mov	x0, x25
	ldr	x1, [x1, 24]
	blr	x1
	b	.L1416
	.p2align 2,,3
.L1481:
	ldr	x1, [x25]
	mov	x0, x25
	ldr	x1, [x1, 16]
	blr	x1
	ldr	x0, [x19, #:got_lo12:__libc_single_threaded]
	ldrb	w0, [x0]
	cbz	w0, .L1427
	ldr	w0, [x25, 12]
	sub	w1, w0, #1
	str	w1, [x25, 12]
.L1428:
	cmp	w0, 1
	bne	.L1423
	ldr	x1, [x25]
	mov	x0, x25
	ldr	x1, [x1, 24]
	blr	x1
	b	.L1423
	.p2align 2,,3
.L1485:
	ldr	x1, [x20]
	mov	x0, x20
	ldr	x1, [x1, 16]
	blr	x1
	ldr	x19, [x19, #:got_lo12:__libc_single_threaded]
	ldrb	w0, [x19]
	cbz	w0, .L1445
	ldr	w0, [x20, 12]
	sub	w1, w0, #1
	str	w1, [x20, 12]
.L1446:
	cmp	w0, 1
	bne	.L1406
	ldr	x1, [x20]
	mov	x0, x20
	ldr	x1, [x1, 24]
	blr	x1
	b	.L1406
	.p2align 2,,3
.L1483:
	ldr	x1, [x21]
	mov	x0, x21
	ldr	x1, [x1, 16]
	blr	x1
	ldr	x0, [x19, #:got_lo12:__libc_single_threaded]
	ldrb	w0, [x0]
	cbz	w0, .L1439
	ldr	w0, [x21, 12]
	sub	w1, w0, #1
	str	w1, [x21, 12]
.L1440:
	cmp	w0, 1
	bne	.L1441
	ldr	x1, [x21]
	mov	x0, x21
	ldr	x1, [x1, 24]
	blr	x1
	b	.L1441
	.p2align 2,,3
.L1424:
	add	x1, x25, 8
	mov	w0, -1
	bl	__aarch64_ldadd4_acq_rel
	b	.L1425
	.p2align 2,,3
.L1417:
	add	x1, x25, 8
	mov	w0, -1
	bl	__aarch64_ldadd4_acq_rel
	b	.L1418
	.p2align 2,,3
.L1437:
	add	x1, x21, 8
	mov	w0, -1
	bl	__aarch64_ldadd4_acq_rel
	b	.L1438
	.p2align 2,,3
.L1484:
	mov	x1, x27
	mov	w0, -1
	bl	__aarch64_ldadd4_acq_rel
	b	.L1442
	.p2align 2,,3
.L1445:
	add	x1, x20, 12
	mov	w0, -1
	bl	__aarch64_ldadd4_acq_rel
	b	.L1446
	.p2align 2,,3
.L1439:
	add	x1, x21, 12
	mov	w0, -1
	bl	__aarch64_ldadd4_acq_rel
	b	.L1440
	.p2align 2,,3
.L1420:
	add	x1, x25, 12
	mov	w0, -1
	bl	__aarch64_ldadd4_acq_rel
	b	.L1421
	.p2align 2,,3
.L1427:
	add	x1, x25, 12
	mov	w0, -1
	bl	__aarch64_ldadd4_acq_rel
	b	.L1428
.L1486:
	bl	__stack_chk_fail
.L1457:
	mov	x19, x0
	mov	x0, x23
	bl	_ZN7openpal6LoggerD1Ev
	ldr	x3, [sp, 232]
	cbz	x3, .L1411
	mov	x1, x28
	mov	x0, x28
	mov	w2, 3
	blr	x3
.L1411:
	ldr	x0, [sp, 184]
	cmp	x0, x24
	beq	.L1434
	ldr	x1, [sp, 200]
	add	x1, x1, 1
	bl	_ZdlPvm
.L1434:
	mov	x1, 176
	mov	x0, x20
	bl	_ZdlPvm
	mov	x0, x19
.LEHB56:
	bl	_Unwind_Resume
.LEHE56:
.L1458:
	ldr	x3, [sp, 232]
	mov	x19, x0
	cbz	x3, .L1411
	add	x1, sp, 216
	mov	w2, 3
	mov	x0, x1
	blr	x3
	b	.L1411
.L1455:
	ldr	x1, [sp, 152]
	mov	x19, x0
	cbz	x1, .L1449
	mov	x0, x1
	bl	_ZNSt16_Sp_counted_baseILN9__gnu_cxx12_Lock_policyE2EE10_M_releaseEv
.L1449:
	mov	x0, x20
	bl	_ZNSt16_Sp_counted_baseILN9__gnu_cxx12_Lock_policyE2EE10_M_releaseEv
	mov	x0, x19
.LEHB57:
	bl	_Unwind_Resume
.LEHE57:
.L1456:
	mov	x19, x0
	b	.L1434
	.cfi_endproc
.LFE3537:
	.section	.gcc_except_table
.LLSDA3537:
	.byte	0xff
	.byte	0xff
	.byte	0x1
	.uleb128 .LLSDACSE3537-.LLSDACSB3537
.LLSDACSB3537:
	.uleb128 .LEHB51-.LFB3537
	.uleb128 .LEHE51-.LEHB51
	.uleb128 0
	.uleb128 0
	.uleb128 .LEHB52-.LFB3537
	.uleb128 .LEHE52-.LEHB52
	.uleb128 .L1456-.LFB3537
	.uleb128 0
	.uleb128 .LEHB53-.LFB3537
	.uleb128 .LEHE53-.LEHB53
	.uleb128 .L1458-.LFB3537
	.uleb128 0
	.uleb128 .LEHB54-.LFB3537
	.uleb128 .LEHE54-.LEHB54
	.uleb128 .L1457-.LFB3537
	.uleb128 0
	.uleb128 .LEHB55-.LFB3537
	.uleb128 .LEHE55-.LEHB55
	.uleb128 .L1455-.LFB3537
	.uleb128 0
	.uleb128 .LEHB56-.LFB3537
	.uleb128 .LEHE56-.LEHB56
	.uleb128 0
	.uleb128 0
	.uleb128 .LEHB57-.LFB3537
	.uleb128 .LEHE57-.LEHB57
	.uleb128 0
	.uleb128 0
.LLSDACSE3537:
	.text
	.size	_ZN8opendnp38MContext5WriteERKNS_15TimeAndIntervalEtNS_10TaskConfigE, .-_ZN8opendnp38MContext5WriteERKNS_15TimeAndIntervalEtNS_10TaskConfigE
	.align	2
	.p2align 4,,11
	.global	_ZN8opendnp38MContext7RestartENS_11RestartTypeERKSt8functionIFvRKNS_22RestartOperationResultEEENS_10TaskConfigE
	.type	_ZN8opendnp38MContext7RestartENS_11RestartTypeERKSt8functionIFvRKNS_22RestartOperationResultEEENS_10TaskConfigE, %function
_ZN8opendnp38MContext7RestartENS_11RestartTypeERKSt8functionIFvRKNS_22RestartOperationResultEEENS_10TaskConfigE:
.LFB3545:
	.cfi_startproc
	.cfi_personality 0x9b,DW.ref.__gxx_personality_v0
	.cfi_lsda 0x1b,.LLSDA3545
	stp	x29, x30, [sp, -144]!
	.cfi_def_cfa_offset 144
	.cfi_offset 29, -144
	.cfi_offset 30, -136
	adrp	x5, :got:__stack_chk_guard
	mov	x29, sp
	ldr	x5, [x5, #:got_lo12:__stack_chk_guard]
	stp	x19, x20, [sp, 16]
	.cfi_offset 19, -128
	.cfi_offset 20, -120
	mov	x20, x0
	stp	x21, x22, [sp, 32]
	mov	x0, 208
	.cfi_offset 21, -112
	.cfi_offset 22, -104
	mov	x21, x2
	stp	x23, x24, [sp, 48]
	.cfi_offset 23, -96
	.cfi_offset 24, -88
	and	w24, w1, 255
	stp	x25, x26, [sp, 64]
	.cfi_offset 25, -80
	.cfi_offset 26, -72
	stp	x3, x4, [sp, 80]
	ldr	x1, [x5]
	str	x1, [sp, 136]
	mov	x1, 0
	ldr	x25, [x20, 144]
.LEHB58:
	bl	_Znwm
.LEHE58:
	mov	x22, x0
	ldr	q0, [x20, 24]
	movi	v1.2s, 0x1
	adrp	x4, :got:_ZTVSt23_Sp_counted_ptr_inplaceIN8opendnp320RestartOperationTaskESaIS1_ELN9__gnu_cxx12_Lock_policyE2EE
	mov	x19, x0
	add	x23, x0, 8
	ldr	x4, [x4, #:got_lo12:_ZTVSt23_Sp_counted_ptr_inplaceIN8opendnp320RestartOperationTaskESaIS1_ELN9__gnu_cxx12_Lock_policyE2EE]
	umov	x1, v0.d[1]
	str	d1, [x0, 8]
	add	x4, x4, 16
	str	x4, [x22], 16
	str	q0, [sp, 96]
	cbz	x1, .L1488
	adrp	x0, :got:__libc_single_threaded
	ldr	x0, [x0, #:got_lo12:__libc_single_threaded]
	ldrb	w0, [x0]
	cbz	w0, .L1489
	ldr	w0, [x1, 8]
	add	w0, w0, 1
	str	w0, [x1, 8]
.L1488:
	ldr	q0, [x20, 40]
	umov	x1, v0.d[1]
	str	q0, [sp, 112]
	cbz	x1, .L1490
	adrp	x0, :got:__libc_single_threaded
	ldr	x0, [x0, #:got_lo12:__libc_single_threaded]
	ldrb	w0, [x0]
	cbz	w0, .L1491
	ldr	w0, [x1, 8]
	add	w0, w0, 1
	str	w0, [x1, 8]
.L1490:
	add	x26, sp, 96
	mov	x3, x21
	mov	w2, w24
	mov	x1, x25
	mov	x4, x26
	add	x5, sp, 80
	mov	x0, x22
.LEHB59:
	bl	_ZN8opendnp320RestartOperationTaskC1ERNS_18IMasterApplicationENS_11RestartTypeERKSt8functionIFvRKNS_22RestartOperationResultEEEN7openpal6LoggerERKNS_10TaskConfigE
.LEHE59:
	adrp	x21, :got:__libc_single_threaded
	ldr	x24, [sp, 120]
	ldr	x0, [x21, #:got_lo12:__libc_single_threaded]
	ldrb	w0, [x0]
	cbz	x24, .L1493
	cbz	w0, .L1494
	ldr	w0, [x24, 8]
	sub	w1, w0, #1
	str	w1, [x24, 8]
.L1495:
	cmp	w0, 1
	beq	.L1546
.L1493:
	ldr	x0, [x21, #:got_lo12:__libc_single_threaded]
	ldr	x24, [sp, 104]
	ldrb	w0, [x0]
	cbz	x24, .L1504
	cbz	w0, .L1500
	ldr	w0, [x24, 8]
	sub	w1, w0, #1
	str	w1, [x24, 8]
.L1501:
	cmp	w0, 1
	beq	.L1547
.L1504:
	ldr	x0, [x21, #:got_lo12:__libc_single_threaded]
	stp	x22, x19, [sp, 96]
	ldrb	w0, [x0]
	cbz	w0, .L1548
	ldr	w0, [x19, 8]
	add	w0, w0, 1
	str	w0, [x19, 8]
.L1506:
	mov	x1, x26
	mov	x0, x20
.LEHB60:
	bl	_ZN8opendnp38MContext17ScheduleAdhocTaskERKSt10shared_ptrINS_11IMasterTaskEE
.LEHE60:
	ldr	x0, [x21, #:got_lo12:__libc_single_threaded]
	ldr	x20, [sp, 104]
	ldrb	w0, [x0]
	cbz	x20, .L1512
	cbz	w0, .L1508
	ldr	w0, [x20, 8]
	sub	w1, w0, #1
	str	w1, [x20, 8]
.L1509:
	cmp	w0, 1
	beq	.L1549
.L1512:
	ldr	x0, [x21, #:got_lo12:__libc_single_threaded]
	ldrb	w0, [x0]
	cbz	w0, .L1550
	ldr	w0, [x19, 8]
	sub	w1, w0, #1
	str	w1, [x19, 8]
.L1513:
	cmp	w0, 1
	beq	.L1551
.L1487:
	adrp	x0, :got:__stack_chk_guard
	ldr	x0, [x0, #:got_lo12:__stack_chk_guard]
	ldr	x2, [sp, 136]
	ldr	x1, [x0]
	subs	x2, x2, x1
	mov	x1, 0
	bne	.L1552
	ldp	x19, x20, [sp, 16]
	ldp	x21, x22, [sp, 32]
	ldp	x23, x24, [sp, 48]
	ldp	x25, x26, [sp, 64]
	ldp	x29, x30, [sp], 144
	.cfi_remember_state
	.cfi_restore 30
	.cfi_restore 29
	.cfi_restore 25
	.cfi_restore 26
	.cfi_restore 23
	.cfi_restore 24
	.cfi_restore 21
	.cfi_restore 22
	.cfi_restore 19
	.cfi_restore 20
	.cfi_def_cfa_offset 0
	ret
	.p2align 2,,3
.L1489:
	.cfi_restore_state
	add	x1, x1, 8
	mov	w0, 1
	bl	__aarch64_ldadd4_acq_rel
	b	.L1488
	.p2align 2,,3
.L1548:
	mov	x1, x23
	mov	w0, 1
	bl	__aarch64_ldadd4_acq_rel
	b	.L1506
	.p2align 2,,3
.L1491:
	add	x1, x1, 8
	mov	w0, 1
	bl	__aarch64_ldadd4_acq_rel
	b	.L1490
	.p2align 2,,3
.L1546:
	ldr	x1, [x24]
	mov	x0, x24
	ldr	x1, [x1, 16]
	blr	x1
	ldr	x0, [x21, #:got_lo12:__libc_single_threaded]
	ldrb	w0, [x0]
	cbz	w0, .L1497
	ldr	w0, [x24, 12]
	sub	w1, w0, #1
	str	w1, [x24, 12]
.L1498:
	cmp	w0, 1
	bne	.L1493
	ldr	x1, [x24]
	mov	x0, x24
	ldr	x1, [x1, 24]
	blr	x1
	b	.L1493
	.p2align 2,,3
.L1547:
	ldr	x1, [x24]
	mov	x0, x24
	ldr	x1, [x1, 16]
	blr	x1
	ldr	x0, [x21, #:got_lo12:__libc_single_threaded]
	ldrb	w0, [x0]
	cbz	w0, .L1502
	ldr	w0, [x24, 12]
	sub	w1, w0, #1
	str	w1, [x24, 12]
.L1503:
	cmp	w0, 1
	bne	.L1504
	ldr	x1, [x24]
	mov	x0, x24
	ldr	x1, [x1, 24]
	blr	x1
	b	.L1504
	.p2align 2,,3
.L1551:
	ldr	x1, [x19]
	mov	x0, x19
	ldr	x1, [x1, 16]
	blr	x1
	ldr	x21, [x21, #:got_lo12:__libc_single_threaded]
	ldrb	w0, [x21]
	cbz	w0, .L1516
	ldr	w0, [x19, 12]
	sub	w1, w0, #1
	str	w1, [x19, 12]
.L1517:
	cmp	w0, 1
	bne	.L1487
	ldr	x1, [x19]
	mov	x0, x19
	ldr	x1, [x1, 24]
	blr	x1
	b	.L1487
	.p2align 2,,3
.L1549:
	ldr	x1, [x20]
	mov	x0, x20
	ldr	x1, [x1, 16]
	blr	x1
	ldr	x0, [x21, #:got_lo12:__libc_single_threaded]
	ldrb	w0, [x0]
	cbz	w0, .L1510
	ldr	w0, [x20, 12]
	sub	w1, w0, #1
	str	w1, [x20, 12]
.L1511:
	cmp	w0, 1
	bne	.L1512
	ldr	x1, [x20]
	mov	x0, x20
	ldr	x1, [x1, 24]
	blr	x1
	b	.L1512
	.p2align 2,,3
.L1494:
	add	x1, x24, 8
	mov	w0, -1
	bl	__aarch64_ldadd4_acq_rel
	b	.L1495
	.p2align 2,,3
.L1500:
	add	x1, x24, 8
	mov	w0, -1
	bl	__aarch64_ldadd4_acq_rel
	b	.L1501
	.p2align 2,,3
.L1508:
	add	x1, x20, 8
	mov	w0, -1
	bl	__aarch64_ldadd4_acq_rel
	b	.L1509
	.p2align 2,,3
.L1550:
	mov	x1, x23
	mov	w0, -1
	bl	__aarch64_ldadd4_acq_rel
	b	.L1513
	.p2align 2,,3
.L1516:
	add	x1, x19, 12
	mov	w0, -1
	bl	__aarch64_ldadd4_acq_rel
	b	.L1517
	.p2align 2,,3
.L1497:
	add	x1, x24, 12
	mov	w0, -1
	bl	__aarch64_ldadd4_acq_rel
	b	.L1498
	.p2align 2,,3
.L1510:
	add	x1, x20, 12
	mov	w0, -1
	bl	__aarch64_ldadd4_acq_rel
	b	.L1511
	.p2align 2,,3
.L1502:
	add	x1, x24, 12
	mov	w0, -1
	bl	__aarch64_ldadd4_acq_rel
	b	.L1503
.L1552:
	bl	__stack_chk_fail
.L1526:
	ldr	x1, [sp, 104]
	mov	x20, x0
	cbz	x1, .L1520
	mov	x0, x1
	bl	_ZNSt16_Sp_counted_baseILN9__gnu_cxx12_Lock_policyE2EE10_M_releaseEv
.L1520:
	mov	x0, x19
	bl	_ZNSt16_Sp_counted_baseILN9__gnu_cxx12_Lock_policyE2EE10_M_releaseEv
	mov	x0, x20
.LEHB61:
	bl	_Unwind_Resume
.L1527:
	mov	x20, x0
	mov	x0, x26
	bl	_ZN7openpal6LoggerD1Ev
	mov	x1, 208
	mov	x0, x19
	bl	_ZdlPvm
	mov	x0, x20
	bl	_Unwind_Resume
.LEHE61:
	.cfi_endproc
.LFE3545:
	.section	.gcc_except_table
.LLSDA3545:
	.byte	0xff
	.byte	0xff
	.byte	0x1
	.uleb128 .LLSDACSE3545-.LLSDACSB3545
.LLSDACSB3545:
	.uleb128 .LEHB58-.LFB3545
	.uleb128 .LEHE58-.LEHB58
	.uleb128 0
	.uleb128 0
	.uleb128 .LEHB59-.LFB3545
	.uleb128 .LEHE59-.LEHB59
	.uleb128 .L1527-.LFB3545
	.uleb128 0
	.uleb128 .LEHB60-.LFB3545
	.uleb128 .LEHE60-.LEHB60
	.uleb128 .L1526-.LFB3545
	.uleb128 0
	.uleb128 .LEHB61-.LFB3545
	.uleb128 .LEHE61-.LEHB61
	.uleb128 0
	.uleb128 0
.LLSDACSE3545:
	.text
	.size	_ZN8opendnp38MContext7RestartENS_11RestartTypeERKSt8functionIFvRKNS_22RestartOperationResultEEENS_10TaskConfigE, .-_ZN8opendnp38MContext7RestartENS_11RestartTypeERKSt8functionIFvRKNS_22RestartOperationResultEEENS_10TaskConfigE
	.align	2
	.p2align 4,,11
	.global	_ZN8opendnp38MContext15PerformFunctionERKNSt7__cxx1112basic_stringIcSt11char_traitsIcESaIcEEENS_12FunctionCodeERKSt8functionIFbRNS_12HeaderWriterEEENS_10TaskConfigE
	.type	_ZN8opendnp38MContext15PerformFunctionERKNSt7__cxx1112basic_stringIcSt11char_traitsIcESaIcEEENS_12FunctionCodeERKSt8functionIFbRNS_12HeaderWriterEEENS_10TaskConfigE, %function
_ZN8opendnp38MContext15PerformFunctionERKNSt7__cxx1112basic_stringIcSt11char_traitsIcESaIcEEENS_12FunctionCodeERKSt8functionIFbRNS_12HeaderWriterEEENS_10TaskConfigE:
.LFB3552:
	.cfi_startproc
	.cfi_personality 0x9b,DW.ref.__gxx_personality_v0
	.cfi_lsda 0x1b,.LLSDA3552
	stp	x29, x30, [sp, -160]!
	.cfi_def_cfa_offset 160
	.cfi_offset 29, -160
	.cfi_offset 30, -152
	adrp	x6, :got:__stack_chk_guard
	mov	x29, sp
	ldr	x6, [x6, #:got_lo12:__stack_chk_guard]
	stp	x19, x20, [sp, 16]
	.cfi_offset 19, -144
	.cfi_offset 20, -136
	mov	x20, x0
	stp	x21, x22, [sp, 32]
	.cfi_offset 21, -128
	.cfi_offset 22, -120
	mov	x21, x1
	stp	x23, x24, [sp, 48]
	stp	x25, x26, [sp, 64]
	.cfi_offset 23, -112
	.cfi_offset 24, -104
	.cfi_offset 25, -96
	.cfi_offset 26, -88
	mov	x26, x3
	and	w25, w2, 255
	stp	x4, x5, [sp, 96]
	ldr	x23, [x0, 144]
	str	x27, [sp, 80]
	.cfi_offset 27, -80
	ldr	x0, [x6]
	str	x0, [sp, 152]
	mov	x0, 0
	mov	x0, 176
.LEHB62:
	bl	_Znwm
.LEHE62:
	ldr	q0, [x20, 24]
	movi	v1.2s, 0x1
	adrp	x5, :got:_ZTVSt23_Sp_counted_ptr_inplaceIN8opendnp317EmptyResponseTaskESaIS1_ELN9__gnu_cxx12_Lock_policyE2EE
	mov	x22, x0
	mov	x19, x0
	add	x24, x0, 8
	ldr	x5, [x5, #:got_lo12:_ZTVSt23_Sp_counted_ptr_inplaceIN8opendnp317EmptyResponseTaskESaIS1_ELN9__gnu_cxx12_Lock_policyE2EE]
	umov	x1, v0.d[1]
	str	d1, [x0, 8]
	add	x5, x5, 16
	str	x5, [x22], 16
	str	q0, [sp, 112]
	cbz	x1, .L1554
	adrp	x0, :got:__libc_single_threaded
	ldr	x0, [x0, #:got_lo12:__libc_single_threaded]
	ldrb	w0, [x0]
	cbz	w0, .L1555
	ldr	w0, [x1, 8]
	add	w0, w0, 1
	str	w0, [x1, 8]
.L1554:
	ldr	q0, [x20, 40]
	umov	x1, v0.d[1]
	str	q0, [sp, 128]
	cbz	x1, .L1556
	adrp	x0, :got:__libc_single_threaded
	ldr	x0, [x0, #:got_lo12:__libc_single_threaded]
	ldrb	w0, [x0]
	cbz	w0, .L1557
	ldr	w0, [x1, 8]
	add	w0, w0, 1
	str	w0, [x1, 8]
.L1556:
	add	x27, sp, 112
	mov	x4, x26
	mov	w3, w25
	mov	x2, x21
	mov	x1, x23
	mov	x5, x27
	add	x6, sp, 96
	mov	x0, x22
.LEHB63:
	bl	_ZN8opendnp317EmptyResponseTaskC1ERNS_18IMasterApplicationERKNSt7__cxx1112basic_stringIcSt11char_traitsIcESaIcEEENS_12FunctionCodeERKSt8functionIFbRNS_12HeaderWriterEEEN7openpal6LoggerERKNS_10TaskConfigE
.LEHE63:
	adrp	x21, :got:__libc_single_threaded
	ldr	x23, [sp, 136]
	ldr	x0, [x21, #:got_lo12:__libc_single_threaded]
	ldrb	w0, [x0]
	cbz	x23, .L1559
	cbz	w0, .L1560
	ldr	w0, [x23, 8]
	sub	w1, w0, #1
	str	w1, [x23, 8]
.L1561:
	cmp	w0, 1
	beq	.L1612
.L1559:
	ldr	x0, [x21, #:got_lo12:__libc_single_threaded]
	ldr	x23, [sp, 120]
	ldrb	w0, [x0]
	cbz	x23, .L1570
	cbz	w0, .L1566
	ldr	w0, [x23, 8]
	sub	w1, w0, #1
	str	w1, [x23, 8]
.L1567:
	cmp	w0, 1
	beq	.L1613
.L1570:
	ldr	x0, [x21, #:got_lo12:__libc_single_threaded]
	stp	x22, x19, [sp, 112]
	ldrb	w0, [x0]
	cbz	w0, .L1614
	ldr	w0, [x19, 8]
	add	w0, w0, 1
	str	w0, [x19, 8]
.L1572:
	mov	x1, x27
	mov	x0, x20
.LEHB64:
	bl	_ZN8opendnp38MContext17ScheduleAdhocTaskERKSt10shared_ptrINS_11IMasterTaskEE
.LEHE64:
	ldr	x0, [x21, #:got_lo12:__libc_single_threaded]
	ldr	x20, [sp, 120]
	ldrb	w0, [x0]
	cbz	x20, .L1578
	cbz	w0, .L1574
	ldr	w0, [x20, 8]
	sub	w1, w0, #1
	str	w1, [x20, 8]
.L1575:
	cmp	w0, 1
	beq	.L1615
.L1578:
	ldr	x0, [x21, #:got_lo12:__libc_single_threaded]
	ldrb	w0, [x0]
	cbz	w0, .L1616
	ldr	w0, [x19, 8]
	sub	w1, w0, #1
	str	w1, [x19, 8]
.L1579:
	cmp	w0, 1
	beq	.L1617
.L1553:
	adrp	x0, :got:__stack_chk_guard
	ldr	x0, [x0, #:got_lo12:__stack_chk_guard]
	ldr	x2, [sp, 152]
	ldr	x1, [x0]
	subs	x2, x2, x1
	mov	x1, 0
	bne	.L1618
	ldp	x19, x20, [sp, 16]
	ldp	x21, x22, [sp, 32]
	ldp	x23, x24, [sp, 48]
	ldp	x25, x26, [sp, 64]
	ldr	x27, [sp, 80]
	ldp	x29, x30, [sp], 160
	.cfi_remember_state
	.cfi_restore 30
	.cfi_restore 29
	.cfi_restore 27
	.cfi_restore 25
	.cfi_restore 26
	.cfi_restore 23
	.cfi_restore 24
	.cfi_restore 21
	.cfi_restore 22
	.cfi_restore 19
	.cfi_restore 20
	.cfi_def_cfa_offset 0
	ret
	.p2align 2,,3
.L1555:
	.cfi_restore_state
	add	x1, x1, 8
	mov	w0, 1
	bl	__aarch64_ldadd4_acq_rel
	b	.L1554
	.p2align 2,,3
.L1614:
	mov	x1, x24
	mov	w0, 1
	bl	__aarch64_ldadd4_acq_rel
	b	.L1572
	.p2align 2,,3
.L1557:
	add	x1, x1, 8
	mov	w0, 1
	bl	__aarch64_ldadd4_acq_rel
	b	.L1556
	.p2align 2,,3
.L1612:
	ldr	x1, [x23]
	mov	x0, x23
	ldr	x1, [x1, 16]
	blr	x1
	ldr	x0, [x21, #:got_lo12:__libc_single_threaded]
	ldrb	w0, [x0]
	cbz	w0, .L1563
	ldr	w0, [x23, 12]
	sub	w1, w0, #1
	str	w1, [x23, 12]
.L1564:
	cmp	w0, 1
	bne	.L1559
	ldr	x1, [x23]
	mov	x0, x23
	ldr	x1, [x1, 24]
	blr	x1
	b	.L1559
	.p2align 2,,3
.L1613:
	ldr	x1, [x23]
	mov	x0, x23
	ldr	x1, [x1, 16]
	blr	x1
	ldr	x0, [x21, #:got_lo12:__libc_single_threaded]
	ldrb	w0, [x0]
	cbz	w0, .L1568
	ldr	w0, [x23, 12]
	sub	w1, w0, #1
	str	w1, [x23, 12]
.L1569:
	cmp	w0, 1
	bne	.L1570
	ldr	x1, [x23]
	mov	x0, x23
	ldr	x1, [x1, 24]
	blr	x1
	b	.L1570
	.p2align 2,,3
.L1617:
	ldr	x1, [x19]
	mov	x0, x19
	ldr	x1, [x1, 16]
	blr	x1
	ldr	x21, [x21, #:got_lo12:__libc_single_threaded]
	ldrb	w0, [x21]
	cbz	w0, .L1582
	ldr	w0, [x19, 12]
	sub	w1, w0, #1
	str	w1, [x19, 12]
.L1583:
	cmp	w0, 1
	bne	.L1553
	ldr	x1, [x19]
	mov	x0, x19
	ldr	x1, [x1, 24]
	blr	x1
	b	.L1553
	.p2align 2,,3
.L1615:
	ldr	x1, [x20]
	mov	x0, x20
	ldr	x1, [x1, 16]
	blr	x1
	ldr	x0, [x21, #:got_lo12:__libc_single_threaded]
	ldrb	w0, [x0]
	cbz	w0, .L1576
	ldr	w0, [x20, 12]
	sub	w1, w0, #1
	str	w1, [x20, 12]
.L1577:
	cmp	w0, 1
	bne	.L1578
	ldr	x1, [x20]
	mov	x0, x20
	ldr	x1, [x1, 24]
	blr	x1
	b	.L1578
	.p2align 2,,3
.L1560:
	add	x1, x23, 8
	mov	w0, -1
	bl	__aarch64_ldadd4_acq_rel
	b	.L1561
	.p2align 2,,3
.L1566:
	add	x1, x23, 8
	mov	w0, -1
	bl	__aarch64_ldadd4_acq_rel
	b	.L1567
	.p2align 2,,3
.L1574:
	add	x1, x20, 8
	mov	w0, -1
	bl	__aarch64_ldadd4_acq_rel
	b	.L1575
	.p2align 2,,3
.L1616:
	mov	x1, x24
	mov	w0, -1
	bl	__aarch64_ldadd4_acq_rel
	b	.L1579
	.p2align 2,,3
.L1582:
	add	x1, x19, 12
	mov	w0, -1
	bl	__aarch64_ldadd4_acq_rel
	b	.L1583
	.p2align 2,,3
.L1563:
	add	x1, x23, 12
	mov	w0, -1
	bl	__aarch64_ldadd4_acq_rel
	b	.L1564
	.p2align 2,,3
.L1576:
	add	x1, x20, 12
	mov	w0, -1
	bl	__aarch64_ldadd4_acq_rel
	b	.L1577
	.p2align 2,,3
.L1568:
	add	x1, x23, 12
	mov	w0, -1
	bl	__aarch64_ldadd4_acq_rel
	b	.L1569
.L1618:
	bl	__stack_chk_fail
.L1592:
	ldr	x1, [sp, 120]
	mov	x20, x0
	cbz	x1, .L1586
	mov	x0, x1
	bl	_ZNSt16_Sp_counted_baseILN9__gnu_cxx12_Lock_policyE2EE10_M_releaseEv
.L1586:
	mov	x0, x19
	bl	_ZNSt16_Sp_counted_baseILN9__gnu_cxx12_Lock_policyE2EE10_M_releaseEv
	mov	x0, x20
.LEHB65:
	bl	_Unwind_Resume
.L1593:
	mov	x20, x0
	mov	x0, x27
	bl	_ZN7openpal6LoggerD1Ev
	mov	x1, 176
	mov	x0, x19
	bl	_ZdlPvm
	mov	x0, x20
	bl	_Unwind_Resume
.LEHE65:
	.cfi_endproc
.LFE3552:
	.section	.gcc_except_table
.LLSDA3552:
	.byte	0xff
	.byte	0xff
	.byte	0x1
	.uleb128 .LLSDACSE3552-.LLSDACSB3552
.LLSDACSB3552:
	.uleb128 .LEHB62-.LFB3552
	.uleb128 .LEHE62-.LEHB62
	.uleb128 0
	.uleb128 0
	.uleb128 .LEHB63-.LFB3552
	.uleb128 .LEHE63-.LEHB63
	.uleb128 .L1593-.LFB3552
	.uleb128 0
	.uleb128 .LEHB64-.LFB3552
	.uleb128 .LEHE64-.LEHB64
	.uleb128 .L1592-.LFB3552
	.uleb128 0
	.uleb128 .LEHB65-.LFB3552
	.uleb128 .LEHE65-.LEHB65
	.uleb128 0
	.uleb128 0
.LLSDACSE3552:
	.text
	.size	_ZN8opendnp38MContext15PerformFunctionERKNSt7__cxx1112basic_stringIcSt11char_traitsIcESaIcEEENS_12FunctionCodeERKSt8functionIFbRNS_12HeaderWriterEEENS_10TaskConfigE, .-_ZN8opendnp38MContext15PerformFunctionERKNSt7__cxx1112basic_stringIcSt11char_traitsIcESaIcEEENS_12FunctionCodeERKSt8functionIFbRNS_12HeaderWriterEEENS_10TaskConfigE
	.section	.text.startup,"ax",@progbits
	.align	2
	.p2align 4,,11
	.type	_GLOBAL__sub_I_MasterContext.cpp, %function
_GLOBAL__sub_I_MasterContext.cpp:
.LFB5203:
	.cfi_startproc
	mov	x0, 5000
	b	_ZN7openpal12TimeDuration12MillisecondsEl
	.cfi_endproc
.LFE5203:
