	.arch armv8-a
	.file	"RestartOperationTask.cpp"
	.text
	.section	.text._ZNK8opendnp311IMasterTask10IsAuthTaskEv,"axG",@progbits,_ZNK8opendnp311IMasterTask10IsAuthTaskEv,comdat
	.align	2
	.p2align 4,,11
	.weak	_ZNK8opendnp311IMasterTask10IsAuthTaskEv
	.type	_ZNK8opendnp311IMasterTask10IsAuthTaskEv, %function
_ZNK8opendnp311IMasterTask10IsAuthTaskEv:
.LFB2455:
	.cfi_startproc
	mov	w0, 0
	ret
	.cfi_endproc
.LFE2455:
	.size	_ZNK8opendnp311IMasterTask10IsAuthTaskEv, .-_ZNK8opendnp311IMasterTask10IsAuthTaskEv
	.section	.text._ZN8opendnp311IMasterTask10InitializeEv,"axG",@progbits,_ZN8opendnp311IMasterTask10InitializeEv,comdat
	.align	2
	.p2align 4,,11
	.weak	_ZN8opendnp311IMasterTask10InitializeEv
	.type	_ZN8opendnp311IMasterTask10InitializeEv, %function
_ZN8opendnp311IMasterTask10InitializeEv:
.LFB2456:
	.cfi_startproc
	ret
	.cfi_endproc
.LFE2456:
	.size	_ZN8opendnp311IMasterTask10InitializeEv, .-_ZN8opendnp311IMasterTask10InitializeEv
	.section	.text._ZNK8opendnp321SimpleRequestTaskBase11IsRecurringEv,"axG",@progbits,_ZNK8opendnp321SimpleRequestTaskBase11IsRecurringEv,comdat
	.align	2
	.p2align 4,,11
	.weak	_ZNK8opendnp321SimpleRequestTaskBase11IsRecurringEv
	.type	_ZNK8opendnp321SimpleRequestTaskBase11IsRecurringEv, %function
_ZNK8opendnp321SimpleRequestTaskBase11IsRecurringEv:
.LFB2457:
	.cfi_startproc
	mov	w0, 0
	ret
	.cfi_endproc
.LFE2457:
	.size	_ZNK8opendnp321SimpleRequestTaskBase11IsRecurringEv, .-_ZNK8opendnp321SimpleRequestTaskBase11IsRecurringEv
	.section	.text._ZNK8opendnp321SimpleRequestTaskBase8PriorityEv,"axG",@progbits,_ZNK8opendnp321SimpleRequestTaskBase8PriorityEv,comdat
	.align	2
	.p2align 4,,11
	.weak	_ZNK8opendnp321SimpleRequestTaskBase8PriorityEv
	.type	_ZNK8opendnp321SimpleRequestTaskBase8PriorityEv, %function
_ZNK8opendnp321SimpleRequestTaskBase8PriorityEv:
.LFB2458:
	.cfi_startproc
	ldr	w0, [x0, 92]
	ret
	.cfi_endproc
.LFE2458:
	.size	_ZNK8opendnp321SimpleRequestTaskBase8PriorityEv, .-_ZNK8opendnp321SimpleRequestTaskBase8PriorityEv
	.section	.text._ZNK8opendnp321SimpleRequestTaskBase19BlocksLowerPriorityEv,"axG",@progbits,_ZNK8opendnp321SimpleRequestTaskBase19BlocksLowerPriorityEv,comdat
	.align	2
	.p2align 4,,11
	.weak	_ZNK8opendnp321SimpleRequestTaskBase19BlocksLowerPriorityEv
	.type	_ZNK8opendnp321SimpleRequestTaskBase19BlocksLowerPriorityEv, %function
_ZNK8opendnp321SimpleRequestTaskBase19BlocksLowerPriorityEv:
.LFB2459:
	.cfi_startproc
	mov	w0, 0
	ret
	.cfi_endproc
.LFE2459:
	.size	_ZNK8opendnp321SimpleRequestTaskBase19BlocksLowerPriorityEv, .-_ZNK8opendnp321SimpleRequestTaskBase19BlocksLowerPriorityEv
	.section	.text._ZNK8opendnp321SimpleRequestTaskBase9IsEnabledEv,"axG",@progbits,_ZNK8opendnp321SimpleRequestTaskBase9IsEnabledEv,comdat
	.align	2
	.p2align 4,,11
	.weak	_ZNK8opendnp321SimpleRequestTaskBase9IsEnabledEv
	.type	_ZNK8opendnp321SimpleRequestTaskBase9IsEnabledEv, %function
_ZNK8opendnp321SimpleRequestTaskBase9IsEnabledEv:
.LFB2460:
	.cfi_startproc
	mov	w0, 1
	ret
	.cfi_endproc
.LFE2460:
	.size	_ZNK8opendnp321SimpleRequestTaskBase9IsEnabledEv, .-_ZNK8opendnp321SimpleRequestTaskBase9IsEnabledEv
	.section	.text._ZNK8opendnp321SimpleRequestTaskBase11GetTaskTypeEv,"axG",@progbits,_ZNK8opendnp321SimpleRequestTaskBase11GetTaskTypeEv,comdat
	.align	2
	.p2align 4,,11
	.weak	_ZNK8opendnp321SimpleRequestTaskBase11GetTaskTypeEv
	.type	_ZNK8opendnp321SimpleRequestTaskBase11GetTaskTypeEv, %function
_ZNK8opendnp321SimpleRequestTaskBase11GetTaskTypeEv:
.LFB2461:
	.cfi_startproc
	mov	w0, 7
	ret
	.cfi_endproc
.LFE2461:
	.size	_ZNK8opendnp321SimpleRequestTaskBase11GetTaskTypeEv, .-_ZNK8opendnp321SimpleRequestTaskBase11GetTaskTypeEv
	.section	.text._ZN8opendnp312IAPDUHandler14OnHeaderResultERKNS_12HeaderRecordERKNS_8IINFieldE,"axG",@progbits,_ZN8opendnp312IAPDUHandler14OnHeaderResultERKNS_12HeaderRecordERKNS_8IINFieldE,comdat
	.align	2
	.p2align 4,,11
	.weak	_ZN8opendnp312IAPDUHandler14OnHeaderResultERKNS_12HeaderRecordERKNS_8IINFieldE
	.type	_ZN8opendnp312IAPDUHandler14OnHeaderResultERKNS_12HeaderRecordERKNS_8IINFieldE, %function
_ZN8opendnp312IAPDUHandler14OnHeaderResultERKNS_12HeaderRecordERKNS_8IINFieldE:
.LFB2620:
	.cfi_startproc
	ret
	.cfi_endproc
.LFE2620:
	.size	_ZN8opendnp312IAPDUHandler14OnHeaderResultERKNS_12HeaderRecordERKNS_8IINFieldE, .-_ZN8opendnp312IAPDUHandler14OnHeaderResultERKNS_12HeaderRecordERKNS_8IINFieldE
	.text
	.align	2
	.p2align 4,,11
	.global	_ZN8opendnp320RestartOperationTask9IsAllowedEjNS_14GroupVariationENS_13QualifierCodeE
	.type	_ZN8opendnp320RestartOperationTask9IsAllowedEjNS_14GroupVariationENS_13QualifierCodeE, %function
_ZN8opendnp320RestartOperationTask9IsAllowedEjNS_14GroupVariationENS_13QualifierCodeE:
.LFB2652:
	.cfi_startproc
	and	w2, w2, 65535
	mov	w0, 0
	cbnz	w1, .L11
	mov	w0, -13313
	add	w2, w2, w0
	and	w2, w2, 65535
	cmp	w2, 1
	cset	w0, ls
.L11:
	ret
	.cfi_endproc
.LFE2652:
	.size	_ZN8opendnp320RestartOperationTask9IsAllowedEjNS_14GroupVariationENS_13QualifierCodeE, .-_ZN8opendnp320RestartOperationTask9IsAllowedEjNS_14GroupVariationENS_13QualifierCodeE
	.align	2
	.p2align 4,,11
	.type	_ZNSt17_Function_handlerIFbRN8opendnp312HeaderWriterEEZNS0_20RestartOperationTaskC4ERNS0_18IMasterApplicationENS0_11RestartTypeERKSt8functionIFvRKNS0_22RestartOperationResultEEEN7openpal6LoggerERKNS0_10TaskConfigEEUlS2_E_E9_M_invokeERKSt9_Any_dataS2_, %function
_ZNSt17_Function_handlerIFbRN8opendnp312HeaderWriterEEZNS0_20RestartOperationTaskC4ERNS0_18IMasterApplicationENS0_11RestartTypeERKSt8functionIFvRKNS0_22RestartOperationResultEEEN7openpal6LoggerERKNS0_10TaskConfigEEUlS2_E_E9_M_invokeERKSt9_Any_dataS2_:
.LFB3104:
	.cfi_startproc
	mov	w0, 1
	ret
	.cfi_endproc
.LFE3104:
	.size	_ZNSt17_Function_handlerIFbRN8opendnp312HeaderWriterEEZNS0_20RestartOperationTaskC4ERNS0_18IMasterApplicationENS0_11RestartTypeERKSt8functionIFvRKNS0_22RestartOperationResultEEEN7openpal6LoggerERKNS0_10TaskConfigEEUlS2_E_E9_M_invokeERKSt9_Any_dataS2_, .-_ZNSt17_Function_handlerIFbRN8opendnp312HeaderWriterEEZNS0_20RestartOperationTaskC4ERNS0_18IMasterApplicationENS0_11RestartTypeERKSt8functionIFvRKNS0_22RestartOperationResultEEEN7openpal6LoggerERKNS0_10TaskConfigEEUlS2_E_E9_M_invokeERKSt9_Any_dataS2_
	.align	2
	.p2align 4,,11
	.type	_ZNSt17_Function_handlerIFbRN8opendnp312HeaderWriterEEZNS0_20RestartOperationTaskC4ERNS0_18IMasterApplicationENS0_11RestartTypeERKSt8functionIFvRKNS0_22RestartOperationResultEEEN7openpal6LoggerERKNS0_10TaskConfigEEUlS2_E_E10_M_managerERSt9_Any_dataRKSN_St18_Manager_operation, %function
_ZNSt17_Function_handlerIFbRN8opendnp312HeaderWriterEEZNS0_20RestartOperationTaskC4ERNS0_18IMasterApplicationENS0_11RestartTypeERKSt8functionIFvRKNS0_22RestartOperationResultEEEN7openpal6LoggerERKNS0_10TaskConfigEEUlS2_E_E10_M_managerERSt9_Any_dataRKSN_St18_Manager_operation:
.LFB3106:
	.cfi_startproc
	cbz	w2, .L15
	cmp	w2, 1
	bne	.L17
	str	x1, [x0]
.L17:
	mov	w0, 0
	ret
	.p2align 2,,3
.L15:
	adrp	x1, .LANCHOR0
	add	x1, x1, :lo12:.LANCHOR0
	str	x1, [x0]
	mov	w0, 0
	ret
	.cfi_endproc
.LFE3106:
	.size	_ZNSt17_Function_handlerIFbRN8opendnp312HeaderWriterEEZNS0_20RestartOperationTaskC4ERNS0_18IMasterApplicationENS0_11RestartTypeERKSt8functionIFvRKNS0_22RestartOperationResultEEEN7openpal6LoggerERKNS0_10TaskConfigEEUlS2_E_E10_M_managerERSt9_Any_dataRKSN_St18_Manager_operation, .-_ZNSt17_Function_handlerIFbRN8opendnp312HeaderWriterEEZNS0_20RestartOperationTaskC4ERNS0_18IMasterApplicationENS0_11RestartTypeERKSt8functionIFvRKNS0_22RestartOperationResultEEEN7openpal6LoggerERKNS0_10TaskConfigEEUlS2_E_E10_M_managerERSt9_Any_dataRKSN_St18_Manager_operation
	.section	.text._ZN8opendnp314FunctorVisitorINS_11Group52Var2EZNKS_11ICollectionIS1_E13ReadOnlyValueERS1_EUlRKS1_E_E7OnValueES6_,"axG",@progbits,_ZN8opendnp314FunctorVisitorINS_11Group52Var2EZNKS_11ICollectionIS1_E13ReadOnlyValueERS1_EUlRKS1_E_E7OnValueES6_,comdat
	.align	2
	.p2align 4,,11
	.weak	_ZN8opendnp314FunctorVisitorINS_11Group52Var2EZNKS_11ICollectionIS1_E13ReadOnlyValueERS1_EUlRKS1_E_E7OnValueES6_
	.type	_ZN8opendnp314FunctorVisitorINS_11Group52Var2EZNKS_11ICollectionIS1_E13ReadOnlyValueERS1_EUlRKS1_E_E7OnValueES6_, %function
_ZN8opendnp314FunctorVisitorINS_11Group52Var2EZNKS_11ICollectionIS1_E13ReadOnlyValueERS1_EUlRKS1_E_E7OnValueES6_:
.LFB3399:
	.cfi_startproc
	ldr	x0, [x0, 8]
	ldrh	w1, [x1]
	strh	w1, [x0]
	ret
	.cfi_endproc
.LFE3399:
	.size	_ZN8opendnp314FunctorVisitorINS_11Group52Var2EZNKS_11ICollectionIS1_E13ReadOnlyValueERS1_EUlRKS1_E_E7OnValueES6_, .-_ZN8opendnp314FunctorVisitorINS_11Group52Var2EZNKS_11ICollectionIS1_E13ReadOnlyValueERS1_EUlRKS1_E_E7OnValueES6_
	.section	.text._ZN8opendnp314FunctorVisitorINS_11Group52Var1EZNKS_11ICollectionIS1_E13ReadOnlyValueERS1_EUlRKS1_E_E7OnValueES6_,"axG",@progbits,_ZN8opendnp314FunctorVisitorINS_11Group52Var1EZNKS_11ICollectionIS1_E13ReadOnlyValueERS1_EUlRKS1_E_E7OnValueES6_,comdat
	.align	2
	.p2align 4,,11
	.weak	_ZN8opendnp314FunctorVisitorINS_11Group52Var1EZNKS_11ICollectionIS1_E13ReadOnlyValueERS1_EUlRKS1_E_E7OnValueES6_
	.type	_ZN8opendnp314FunctorVisitorINS_11Group52Var1EZNKS_11ICollectionIS1_E13ReadOnlyValueERS1_EUlRKS1_E_E7OnValueES6_, %function
_ZN8opendnp314FunctorVisitorINS_11Group52Var1EZNKS_11ICollectionIS1_E13ReadOnlyValueERS1_EUlRKS1_E_E7OnValueES6_:
.LFB3400:
	.cfi_startproc
	ldr	x0, [x0, 8]
	ldrh	w1, [x1]
	strh	w1, [x0]
	ret
	.cfi_endproc
.LFE3400:
	.size	_ZN8opendnp314FunctorVisitorINS_11Group52Var1EZNKS_11ICollectionIS1_E13ReadOnlyValueERS1_EUlRKS1_E_E7OnValueES6_, .-_ZN8opendnp314FunctorVisitorINS_11Group52Var1EZNKS_11ICollectionIS1_E13ReadOnlyValueERS1_EUlRKS1_E_E7OnValueES6_
	.text
	.align	2
	.p2align 4,,11
	.global	_ZNK8opendnp320RestartOperationTask4NameEv
	.type	_ZNK8opendnp320RestartOperationTask4NameEv, %function
_ZNK8opendnp320RestartOperationTask4NameEv:
.LFB2653:
	.cfi_startproc
	ldrb	w0, [x0, 88]
	b	_ZN8opendnp320FunctionCodeToStringENS_12FunctionCodeE
	.cfi_endproc
.LFE2653:
	.size	_ZNK8opendnp320RestartOperationTask4NameEv, .-_ZNK8opendnp320RestartOperationTask4NameEv
	.align	2
	.p2align 4,,11
	.global	_ZN8opendnp320RestartOperationTask14OnTaskCompleteENS_14TaskCompletionEN7openpal18MonotonicTimestampE
	.type	_ZN8opendnp320RestartOperationTask14OnTaskCompleteENS_14TaskCompletionEN7openpal18MonotonicTimestampE, %function
_ZN8opendnp320RestartOperationTask14OnTaskCompleteENS_14TaskCompletionEN7openpal18MonotonicTimestampE:
.LFB2658:
	.cfi_startproc
	stp	x29, x30, [sp, -80]!
	.cfi_def_cfa_offset 80
	.cfi_offset 29, -80
	.cfi_offset 30, -72
	adrp	x2, :got:__stack_chk_guard
	mov	x29, sp
	ldr	x2, [x2, #:got_lo12:__stack_chk_guard]
	stp	x19, x20, [sp, 16]
	.cfi_offset 19, -64
	.cfi_offset 20, -56
	and	w20, w1, 255
	ldr	x1, [x2]
	str	x1, [sp, 72]
	mov	x1, 0
	mov	x19, x0
	add	x0, x0, 128
	bl	_ZNK8opendnp312IAPDUHandler6ErrorsEv
	ubfx	x1, x0, 8, 8
	orr	w1, w1, w0
	add	x0, x19, 152
	tst	w1, 255
	beq	.L22
	mov	w1, 1
	strb	w1, [sp, 40]
	ldr	x1, [x0, 16]
	ldr	x2, [x19, 184]
	str	x2, [sp, 48]
	cbz	x1, .L25
	ldr	x2, [x0, 24]
	add	x1, sp, 40
	blr	x2
	b	.L24
	.p2align 2,,3
.L22:
	ldr	x1, [x19, 184]
	str	x1, [sp, 64]
	ldr	x1, [x0, 16]
	strb	w20, [sp, 56]
	cbz	x1, .L25
	ldr	x2, [x0, 24]
	add	x1, sp, 56
	blr	x2
.L24:
	bl	_ZN7openpal18MonotonicTimestamp3MaxEv
	mov	x1, x0
	adrp	x2, :got:__stack_chk_guard
	mov	x0, 0
	ldr	x2, [x2, #:got_lo12:__stack_chk_guard]
	ldr	x4, [sp, 72]
	ldr	x3, [x2]
	subs	x4, x4, x3
	mov	x3, 0
	bne	.L31
	ldp	x19, x20, [sp, 16]
	ldp	x29, x30, [sp], 80
	.cfi_remember_state
	.cfi_restore 30
	.cfi_restore 29
	.cfi_restore 19
	.cfi_restore 20
	.cfi_def_cfa_offset 0
	ret
.L25:
	.cfi_restore_state
	bl	_ZSt25__throw_bad_function_callv
.L31:
	bl	__stack_chk_fail
	.cfi_endproc
.LFE2658:
	.size	_ZN8opendnp320RestartOperationTask14OnTaskCompleteENS_14TaskCompletionEN7openpal18MonotonicTimestampE, .-_ZN8opendnp320RestartOperationTask14OnTaskCompleteENS_14TaskCompletionEN7openpal18MonotonicTimestampE
	.align	2
	.p2align 4,,11
	.global	_ZN8opendnp320RestartOperationTask15ProcessResponseERKNS_18APDUResponseHeaderERKN7openpal6RSliceE
	.type	_ZN8opendnp320RestartOperationTask15ProcessResponseERKNS_18APDUResponseHeaderERKN7openpal6RSliceE, %function
_ZN8opendnp320RestartOperationTask15ProcessResponseERKNS_18APDUResponseHeaderERKN7openpal6RSliceE:
.LFB2654:
	.cfi_startproc
	stp	x29, x30, [sp, -48]!
	.cfi_def_cfa_offset 48
	.cfi_offset 29, -48
	.cfi_offset 30, -40
	mov	x29, sp
	stp	x19, x20, [sp, 16]
	.cfi_offset 19, -32
	.cfi_offset 20, -24
	mov	x19, x0
	mov	x20, x1
	str	x21, [sp, 32]
	.cfi_offset 21, -16
	mov	x21, x2
	bl	_ZN8opendnp311IMasterTask22ValidateSingleResponseERKNS_18APDUResponseHeaderE
	tst	w0, 255
	bne	.L33
.L35:
	mov	w0, 0
	ldp	x19, x20, [sp, 16]
	ldr	x21, [sp, 32]
	ldp	x29, x30, [sp], 48
	.cfi_remember_state
	.cfi_restore 30
	.cfi_restore 29
	.cfi_restore 21
	.cfi_restore 19
	.cfi_restore 20
	.cfi_def_cfa_offset 0
	ret
	.p2align 2,,3
.L33:
	.cfi_restore_state
	mov	x1, x20
	mov	x0, x19
	bl	_ZN8opendnp311IMasterTask27ValidateInternalIndicationsERKNS_18APDUResponseHeaderE
	tst	w0, 255
	beq	.L35
	ldr	w0, [x21]
	cbz	w0, .L35
	mov	x0, 1
	mov	x3, 0
	bfi	x3, x0, 0, 8
	mov	x1, 8192
	add	x2, x19, 16
	mov	x0, x21
	bfi	x3, x1, 32, 32
	add	x1, x19, 128
	bl	_ZN8opendnp310APDUParser5ParseERKN7openpal6RSliceERNS_12IAPDUHandlerEPNS1_6LoggerENS_14ParserSettingsE
	tst	w0, 255
	cset	w0, eq
	ldp	x19, x20, [sp, 16]
	lsl	w0, w0, 1
	ldr	x21, [sp, 32]
	ldp	x29, x30, [sp], 48
	.cfi_restore 30
	.cfi_restore 29
	.cfi_restore 21
	.cfi_restore 19
	.cfi_restore 20
	.cfi_def_cfa_offset 0
	ret
	.cfi_endproc
.LFE2654:
	.size	_ZN8opendnp320RestartOperationTask15ProcessResponseERKNS_18APDUResponseHeaderERKN7openpal6RSliceE, .-_ZN8opendnp320RestartOperationTask15ProcessResponseERKNS_18APDUResponseHeaderERKN7openpal6RSliceE
	.align	2
	.p2align 4,,11
	.global	_ZN8opendnp320RestartOperationTask13ProcessHeaderERKNS_11CountHeaderERKNS_11ICollectionINS_11Group52Var1EEE
	.type	_ZN8opendnp320RestartOperationTask13ProcessHeaderERKNS_11CountHeaderERKNS_11ICollectionINS_11Group52Var1EEE, %function
_ZN8opendnp320RestartOperationTask13ProcessHeaderERKNS_11CountHeaderERKNS_11ICollectionINS_11Group52Var1EEE:
.LFB2655:
	.cfi_startproc
	stp	x29, x30, [sp, -80]!
	.cfi_def_cfa_offset 80
	.cfi_offset 29, -80
	.cfi_offset 30, -72
	adrp	x1, :got:__stack_chk_guard
	mov	x29, sp
	ldr	x1, [x1, #:got_lo12:__stack_chk_guard]
	stp	x19, x20, [sp, 16]
	.cfi_offset 19, -64
	.cfi_offset 20, -56
	mov	x19, x2
	str	x21, [sp, 32]
	.cfi_offset 21, -48
	add	x21, sp, 48
	mov	x20, x0
	mov	x0, x21
	ldr	x2, [x1]
	str	x2, [sp, 72]
	mov	x2, 0
	bl	_ZN8opendnp311Group52Var1C1Ev
	ldr	x1, [x19]
	mov	x0, x19
	ldr	x1, [x1]
	blr	x1
	cmp	x0, 1
	beq	.L44
	mov	w1, 10
	add	x0, sp, 56
	strh	wzr, [sp, 56]
	bl	_ZN8opendnp38IINField6SetBitENS_6IINBitE
	ldrh	w1, [sp, 56]
.L45:
	adrp	x0, :got:__stack_chk_guard
	ldr	x0, [x0, #:got_lo12:__stack_chk_guard]
	ldr	x3, [sp, 72]
	ldr	x2, [x0]
	subs	x3, x3, x2
	mov	x2, 0
	bne	.L48
	mov	w0, w1
	ldp	x19, x20, [sp, 16]
	ldr	x21, [sp, 32]
	ldp	x29, x30, [sp], 80
	.cfi_remember_state
	.cfi_restore 30
	.cfi_restore 29
	.cfi_restore 21
	.cfi_restore 19
	.cfi_restore 20
	.cfi_def_cfa_offset 0
	ret
	.p2align 2,,3
.L44:
	.cfi_restore_state
	adrp	x2, :got:_ZTVN8opendnp314FunctorVisitorINS_11Group52Var1EZNKS_11ICollectionIS1_E13ReadOnlyValueERS1_EUlRKS1_E_EE
	add	x1, sp, 56
	ldr	x3, [x19]
	mov	x0, x19
	ldr	x2, [x2, #:got_lo12:_ZTVN8opendnp314FunctorVisitorINS_11Group52Var1EZNKS_11ICollectionIS1_E13ReadOnlyValueERS1_EUlRKS1_E_EE]
	ldr	x3, [x3, 8]
	add	x2, x2, 16
	stp	x2, x21, [sp, 56]
	blr	x3
	ldrh	w0, [sp, 48]
	bl	_ZN7openpal12TimeDuration7SecondsEl
	str	x0, [x20, 184]
	mov	w1, 0
	b	.L45
.L48:
	bl	__stack_chk_fail
	.cfi_endproc
.LFE2655:
	.size	_ZN8opendnp320RestartOperationTask13ProcessHeaderERKNS_11CountHeaderERKNS_11ICollectionINS_11Group52Var1EEE, .-_ZN8opendnp320RestartOperationTask13ProcessHeaderERKNS_11CountHeaderERKNS_11ICollectionINS_11Group52Var1EEE
	.align	2
	.p2align 4,,11
	.global	_ZN8opendnp320RestartOperationTask13ProcessHeaderERKNS_11CountHeaderERKNS_11ICollectionINS_11Group52Var2EEE
	.type	_ZN8opendnp320RestartOperationTask13ProcessHeaderERKNS_11CountHeaderERKNS_11ICollectionINS_11Group52Var2EEE, %function
_ZN8opendnp320RestartOperationTask13ProcessHeaderERKNS_11CountHeaderERKNS_11ICollectionINS_11Group52Var2EEE:
.LFB2656:
	.cfi_startproc
	stp	x29, x30, [sp, -80]!
	.cfi_def_cfa_offset 80
	.cfi_offset 29, -80
	.cfi_offset 30, -72
	adrp	x1, :got:__stack_chk_guard
	mov	x29, sp
	ldr	x1, [x1, #:got_lo12:__stack_chk_guard]
	stp	x19, x20, [sp, 16]
	.cfi_offset 19, -64
	.cfi_offset 20, -56
	mov	x19, x2
	str	x21, [sp, 32]
	.cfi_offset 21, -48
	add	x21, sp, 48
	mov	x20, x0
	mov	x0, x21
	ldr	x2, [x1]
	str	x2, [sp, 72]
	mov	x2, 0
	bl	_ZN8opendnp311Group52Var2C1Ev
	ldr	x1, [x19]
	mov	x0, x19
	ldr	x1, [x1]
	blr	x1
	cmp	x0, 1
	beq	.L50
	mov	w1, 10
	add	x0, sp, 56
	strh	wzr, [sp, 56]
	bl	_ZN8opendnp38IINField6SetBitENS_6IINBitE
	ldrh	w1, [sp, 56]
.L51:
	adrp	x0, :got:__stack_chk_guard
	ldr	x0, [x0, #:got_lo12:__stack_chk_guard]
	ldr	x3, [sp, 72]
	ldr	x2, [x0]
	subs	x3, x3, x2
	mov	x2, 0
	bne	.L54
	mov	w0, w1
	ldp	x19, x20, [sp, 16]
	ldr	x21, [sp, 32]
	ldp	x29, x30, [sp], 80
	.cfi_remember_state
	.cfi_restore 30
	.cfi_restore 29
	.cfi_restore 21
	.cfi_restore 19
	.cfi_restore 20
	.cfi_def_cfa_offset 0
	ret
	.p2align 2,,3
.L50:
	.cfi_restore_state
	adrp	x2, :got:_ZTVN8opendnp314FunctorVisitorINS_11Group52Var2EZNKS_11ICollectionIS1_E13ReadOnlyValueERS1_EUlRKS1_E_EE
	add	x1, sp, 56
	ldr	x3, [x19]
	mov	x0, x19
	ldr	x2, [x2, #:got_lo12:_ZTVN8opendnp314FunctorVisitorINS_11Group52Var2EZNKS_11ICollectionIS1_E13ReadOnlyValueERS1_EUlRKS1_E_EE]
	ldr	x3, [x3, 8]
	add	x2, x2, 16
	stp	x2, x21, [sp, 56]
	blr	x3
	ldrh	w0, [sp, 48]
	bl	_ZN7openpal12TimeDuration12MillisecondsEl
	str	x0, [x20, 184]
	mov	w1, 0
	b	.L51
.L54:
	bl	__stack_chk_fail
	.cfi_endproc
.LFE2656:
	.size	_ZN8opendnp320RestartOperationTask13ProcessHeaderERKNS_11CountHeaderERKNS_11ICollectionINS_11Group52Var2EEE, .-_ZN8opendnp320RestartOperationTask13ProcessHeaderERKNS_11CountHeaderERKNS_11ICollectionINS_11Group52Var2EEE
	.align	2
	.p2align 4,,11
	.global	_ZThn128_N8opendnp320RestartOperationTask9IsAllowedEjNS_14GroupVariationENS_13QualifierCodeE
	.type	_ZThn128_N8opendnp320RestartOperationTask9IsAllowedEjNS_14GroupVariationENS_13QualifierCodeE, %function
_ZThn128_N8opendnp320RestartOperationTask9IsAllowedEjNS_14GroupVariationENS_13QualifierCodeE:
.LFB3414:
	.cfi_startproc
	and	w2, w2, 65535
	mov	w0, 0
	cbnz	w1, .L56
	mov	w0, -13313
	add	w2, w2, w0
	and	w2, w2, 65535
	cmp	w2, 1
	cset	w0, ls
.L56:
	ret
	.cfi_endproc
.LFE3414:
	.size	_ZThn128_N8opendnp320RestartOperationTask9IsAllowedEjNS_14GroupVariationENS_13QualifierCodeE, .-_ZThn128_N8opendnp320RestartOperationTask9IsAllowedEjNS_14GroupVariationENS_13QualifierCodeE
	.section	.text._ZN8opendnp320RestartOperationTaskD2Ev,"axG",@progbits,_ZN8opendnp320RestartOperationTaskD5Ev,comdat
	.align	2
	.p2align 4,,11
	.weak	_ZN8opendnp320RestartOperationTaskD2Ev
	.type	_ZN8opendnp320RestartOperationTaskD2Ev, %function
_ZN8opendnp320RestartOperationTaskD2Ev:
.LFB3373:
	.cfi_startproc
	.cfi_personality 0x9b,DW.ref.__gxx_personality_v0
	.cfi_lsda 0x1b,.LLSDA3373
	stp	x29, x30, [sp, -32]!
	.cfi_def_cfa_offset 32
	.cfi_offset 29, -32
	.cfi_offset 30, -24
	add	x1, x0, 152
	adrp	x2, :got:_ZTVN8opendnp320RestartOperationTaskE
	mov	x29, sp
	ldr	x3, [x1, 16]
	str	x19, [sp, 16]
	.cfi_offset 19, -16
	mov	x19, x0
	ldr	x0, [x2, #:got_lo12:_ZTVN8opendnp320RestartOperationTaskE]
	add	x2, x0, 16
	add	x0, x0, 160
	str	x2, [x19]
	str	x0, [x19, 128]
	cbz	x3, .L59
	mov	x0, x1
	mov	w2, 3
	blr	x3
.L59:
	adrp	x0, :got:_ZTVN8opendnp321SimpleRequestTaskBaseE
	mov	x1, x19
	ldr	x0, [x0, #:got_lo12:_ZTVN8opendnp321SimpleRequestTaskBaseE]
	add	x0, x0, 16
	str	x0, [x1], 96
	ldr	x3, [x1, 16]
	cbz	x3, .L60
	mov	x0, x1
	mov	w2, 3
	blr	x3
.L60:
	mov	x0, x19
	ldr	x19, [sp, 16]
	ldp	x29, x30, [sp], 32
	.cfi_restore 30
	.cfi_restore 29
	.cfi_restore 19
	.cfi_def_cfa_offset 0
	b	_ZN8opendnp311IMasterTaskD2Ev
	.cfi_endproc
.LFE3373:
	.global	__gxx_personality_v0
	.section	.gcc_except_table._ZN8opendnp320RestartOperationTaskD2Ev,"aG",@progbits,_ZN8opendnp320RestartOperationTaskD5Ev,comdat
.LLSDA3373:
	.byte	0xff
	.byte	0xff
	.byte	0x1
	.uleb128 .LLSDACSE3373-.LLSDACSB3373
.LLSDACSB3373:
.LLSDACSE3373:
	.section	.text._ZN8opendnp320RestartOperationTaskD2Ev,"axG",@progbits,_ZN8opendnp320RestartOperationTaskD5Ev,comdat
	.size	_ZN8opendnp320RestartOperationTaskD2Ev, .-_ZN8opendnp320RestartOperationTaskD2Ev
	.weak	_ZN8opendnp320RestartOperationTaskD1Ev
	.set	_ZN8opendnp320RestartOperationTaskD1Ev,_ZN8opendnp320RestartOperationTaskD2Ev
	.section	.text._ZN8opendnp320RestartOperationTaskD0Ev,"axG",@progbits,_ZN8opendnp320RestartOperationTaskD5Ev,comdat
	.align	2
	.p2align 4,,11
	.weak	_ZN8opendnp320RestartOperationTaskD0Ev
	.type	_ZN8opendnp320RestartOperationTaskD0Ev, %function
_ZN8opendnp320RestartOperationTaskD0Ev:
.LFB3375:
	.cfi_startproc
	.cfi_personality 0x9b,DW.ref.__gxx_personality_v0
	.cfi_lsda 0x1b,.LLSDA3375
	stp	x29, x30, [sp, -32]!
	.cfi_def_cfa_offset 32
	.cfi_offset 29, -32
	.cfi_offset 30, -24
	add	x1, x0, 152
	adrp	x2, :got:_ZTVN8opendnp320RestartOperationTaskE
	mov	x29, sp
	ldr	x3, [x1, 16]
	str	x19, [sp, 16]
	.cfi_offset 19, -16
	mov	x19, x0
	ldr	x0, [x2, #:got_lo12:_ZTVN8opendnp320RestartOperationTaskE]
	add	x2, x0, 16
	add	x0, x0, 160
	str	x2, [x19]
	str	x0, [x19, 128]
	cbz	x3, .L69
	mov	x0, x1
	mov	w2, 3
	blr	x3
.L69:
	adrp	x0, :got:_ZTVN8opendnp321SimpleRequestTaskBaseE
	mov	x1, x19
	ldr	x0, [x0, #:got_lo12:_ZTVN8opendnp321SimpleRequestTaskBaseE]
	add	x0, x0, 16
	str	x0, [x1], 96
	ldr	x3, [x1, 16]
	cbz	x3, .L70
	mov	x0, x1
	mov	w2, 3
	blr	x3
.L70:
	mov	x0, x19
	bl	_ZN8opendnp311IMasterTaskD2Ev
	mov	x0, x19
	mov	x1, 192
	ldr	x19, [sp, 16]
	ldp	x29, x30, [sp], 32
	.cfi_restore 30
	.cfi_restore 29
	.cfi_restore 19
	.cfi_def_cfa_offset 0
	b	_ZdlPvm
	.cfi_endproc
.LFE3375:
	.section	.gcc_except_table._ZN8opendnp320RestartOperationTaskD0Ev,"aG",@progbits,_ZN8opendnp320RestartOperationTaskD5Ev,comdat
.LLSDA3375:
	.byte	0xff
	.byte	0xff
	.byte	0x1
	.uleb128 .LLSDACSE3375-.LLSDACSB3375
.LLSDACSB3375:
.LLSDACSE3375:
	.section	.text._ZN8opendnp320RestartOperationTaskD0Ev,"axG",@progbits,_ZN8opendnp320RestartOperationTaskD5Ev,comdat
	.size	_ZN8opendnp320RestartOperationTaskD0Ev, .-_ZN8opendnp320RestartOperationTaskD0Ev
	.text
	.align	2
	.p2align 4,,11
	.global	_ZThn128_N8opendnp320RestartOperationTask13ProcessHeaderERKNS_11CountHeaderERKNS_11ICollectionINS_11Group52Var1EEE
	.type	_ZThn128_N8opendnp320RestartOperationTask13ProcessHeaderERKNS_11CountHeaderERKNS_11ICollectionINS_11Group52Var1EEE, %function
_ZThn128_N8opendnp320RestartOperationTask13ProcessHeaderERKNS_11CountHeaderERKNS_11ICollectionINS_11Group52Var1EEE:
.LFB3415:
	.cfi_startproc
	stp	x29, x30, [sp, -80]!
	.cfi_def_cfa_offset 80
	.cfi_offset 29, -80
	.cfi_offset 30, -72
	adrp	x1, :got:__stack_chk_guard
	mov	x29, sp
	ldr	x1, [x1, #:got_lo12:__stack_chk_guard]
	stp	x19, x20, [sp, 16]
	.cfi_offset 19, -64
	.cfi_offset 20, -56
	mov	x19, x2
	str	x21, [sp, 32]
	.cfi_offset 21, -48
	add	x20, sp, 48
	mov	x21, x0
	mov	x0, x20
	ldr	x2, [x1]
	str	x2, [sp, 72]
	mov	x2, 0
	bl	_ZN8opendnp311Group52Var1C1Ev
	ldr	x1, [x19]
	mov	x0, x19
	ldr	x1, [x1]
	blr	x1
	cmp	x0, 1
	beq	.L79
	mov	w1, 10
	add	x0, sp, 56
	strh	wzr, [sp, 56]
	bl	_ZN8opendnp38IINField6SetBitENS_6IINBitE
	ldrh	w1, [sp, 56]
.L80:
	adrp	x0, :got:__stack_chk_guard
	ldr	x0, [x0, #:got_lo12:__stack_chk_guard]
	ldr	x3, [sp, 72]
	ldr	x2, [x0]
	subs	x3, x3, x2
	mov	x2, 0
	bne	.L83
	mov	w0, w1
	ldp	x19, x20, [sp, 16]
	ldr	x21, [sp, 32]
	ldp	x29, x30, [sp], 80
	.cfi_remember_state
	.cfi_restore 30
	.cfi_restore 29
	.cfi_restore 21
	.cfi_restore 19
	.cfi_restore 20
	.cfi_def_cfa_offset 0
	ret
	.p2align 2,,3
.L79:
	.cfi_restore_state
	adrp	x2, :got:_ZTVN8opendnp314FunctorVisitorINS_11Group52Var1EZNKS_11ICollectionIS1_E13ReadOnlyValueERS1_EUlRKS1_E_EE
	add	x1, sp, 56
	ldr	x3, [x19]
	mov	x0, x19
	ldr	x2, [x2, #:got_lo12:_ZTVN8opendnp314FunctorVisitorINS_11Group52Var1EZNKS_11ICollectionIS1_E13ReadOnlyValueERS1_EUlRKS1_E_EE]
	sub	x21, x21, #128
	ldr	x3, [x3, 8]
	add	x2, x2, 16
	stp	x2, x20, [sp, 56]
	blr	x3
	ldrh	w0, [sp, 48]
	bl	_ZN7openpal12TimeDuration7SecondsEl
	str	x0, [x21, 184]
	mov	w1, 0
	b	.L80
.L83:
	bl	__stack_chk_fail
	.cfi_endproc
.LFE3415:
	.size	_ZThn128_N8opendnp320RestartOperationTask13ProcessHeaderERKNS_11CountHeaderERKNS_11ICollectionINS_11Group52Var1EEE, .-_ZThn128_N8opendnp320RestartOperationTask13ProcessHeaderERKNS_11CountHeaderERKNS_11ICollectionINS_11Group52Var1EEE
	.align	2
	.p2align 4,,11
	.global	_ZThn128_N8opendnp320RestartOperationTask13ProcessHeaderERKNS_11CountHeaderERKNS_11ICollectionINS_11Group52Var2EEE
	.type	_ZThn128_N8opendnp320RestartOperationTask13ProcessHeaderERKNS_11CountHeaderERKNS_11ICollectionINS_11Group52Var2EEE, %function
_ZThn128_N8opendnp320RestartOperationTask13ProcessHeaderERKNS_11CountHeaderERKNS_11ICollectionINS_11Group52Var2EEE:
.LFB3416:
	.cfi_startproc
	stp	x29, x30, [sp, -80]!
	.cfi_def_cfa_offset 80
	.cfi_offset 29, -80
	.cfi_offset 30, -72
	adrp	x1, :got:__stack_chk_guard
	mov	x29, sp
	ldr	x1, [x1, #:got_lo12:__stack_chk_guard]
	stp	x19, x20, [sp, 16]
	.cfi_offset 19, -64
	.cfi_offset 20, -56
	mov	x19, x2
	str	x21, [sp, 32]
	.cfi_offset 21, -48
	add	x20, sp, 48
	mov	x21, x0
	mov	x0, x20
	ldr	x2, [x1]
	str	x2, [sp, 72]
	mov	x2, 0
	bl	_ZN8opendnp311Group52Var2C1Ev
	ldr	x1, [x19]
	mov	x0, x19
	ldr	x1, [x1]
	blr	x1
	cmp	x0, 1
	beq	.L85
	mov	w1, 10
	add	x0, sp, 56
	strh	wzr, [sp, 56]
	bl	_ZN8opendnp38IINField6SetBitENS_6IINBitE
	ldrh	w1, [sp, 56]
.L86:
	adrp	x0, :got:__stack_chk_guard
	ldr	x0, [x0, #:got_lo12:__stack_chk_guard]
	ldr	x3, [sp, 72]
	ldr	x2, [x0]
	subs	x3, x3, x2
	mov	x2, 0
	bne	.L89
	mov	w0, w1
	ldp	x19, x20, [sp, 16]
	ldr	x21, [sp, 32]
	ldp	x29, x30, [sp], 80
	.cfi_remember_state
	.cfi_restore 30
	.cfi_restore 29
	.cfi_restore 21
	.cfi_restore 19
	.cfi_restore 20
	.cfi_def_cfa_offset 0
	ret
	.p2align 2,,3
.L85:
	.cfi_restore_state
	adrp	x2, :got:_ZTVN8opendnp314FunctorVisitorINS_11Group52Var2EZNKS_11ICollectionIS1_E13ReadOnlyValueERS1_EUlRKS1_E_EE
	add	x1, sp, 56
	ldr	x3, [x19]
	mov	x0, x19
	ldr	x2, [x2, #:got_lo12:_ZTVN8opendnp314FunctorVisitorINS_11Group52Var2EZNKS_11ICollectionIS1_E13ReadOnlyValueERS1_EUlRKS1_E_EE]
	sub	x21, x21, #128
	ldr	x3, [x3, 8]
	add	x2, x2, 16
	stp	x2, x20, [sp, 56]
	blr	x3
	ldrh	w0, [sp, 48]
	bl	_ZN7openpal12TimeDuration12MillisecondsEl
	str	x0, [x21, 184]
	mov	w1, 0
	b	.L86
.L89:
	bl	__stack_chk_fail
	.cfi_endproc
.LFE3416:
	.size	_ZThn128_N8opendnp320RestartOperationTask13ProcessHeaderERKNS_11CountHeaderERKNS_11ICollectionINS_11Group52Var2EEE, .-_ZThn128_N8opendnp320RestartOperationTask13ProcessHeaderERKNS_11CountHeaderERKNS_11ICollectionINS_11Group52Var2EEE
	.global	__aarch64_ldadd4_acq_rel
	.section	.text._ZN7openpal6LoggerD2Ev,"axG",@progbits,_ZN7openpal6LoggerD5Ev,comdat
	.align	2
	.p2align 4,,11
	.weak	_ZN7openpal6LoggerD2Ev
	.type	_ZN7openpal6LoggerD2Ev, %function
_ZN7openpal6LoggerD2Ev:
.LFB2070:
	.cfi_startproc
	stp	x29, x30, [sp, -48]!
	.cfi_def_cfa_offset 48
	.cfi_offset 29, -48
	.cfi_offset 30, -40
	mov	x29, sp
	stp	x19, x20, [sp, 16]
	.cfi_offset 19, -32
	.cfi_offset 20, -24
	mov	x19, x0
	ldr	x20, [x0, 24]
	str	x21, [sp, 32]
	.cfi_offset 21, -16
	cbz	x20, .L92
	adrp	x21, :got:__libc_single_threaded
	ldr	x0, [x21, #:got_lo12:__libc_single_threaded]
	ldrb	w0, [x0]
	cbz	w0, .L93
	ldr	w0, [x20, 8]
	sub	w1, w0, #1
	str	w1, [x20, 8]
.L94:
	cmp	w0, 1
	beq	.L106
.L92:
	ldr	x19, [x19, 8]
	cbz	x19, .L90
	adrp	x21, :got:__libc_single_threaded
	ldr	x0, [x21, #:got_lo12:__libc_single_threaded]
	ldrb	w0, [x0]
	cbz	w0, .L100
	ldr	w0, [x19, 8]
	sub	w1, w0, #1
	str	w1, [x19, 8]
.L101:
	cmp	w0, 1
	beq	.L107
.L90:
	ldp	x19, x20, [sp, 16]
	ldr	x21, [sp, 32]
	ldp	x29, x30, [sp], 48
	.cfi_remember_state
	.cfi_restore 30
	.cfi_restore 29
	.cfi_restore 21
	.cfi_restore 19
	.cfi_restore 20
	.cfi_def_cfa_offset 0
	ret
	.p2align 2,,3
.L106:
	.cfi_restore_state
	ldr	x1, [x20]
	mov	x0, x20
	ldr	x1, [x1, 16]
	blr	x1
	ldr	x21, [x21, #:got_lo12:__libc_single_threaded]
	ldrb	w0, [x21]
	cbz	w0, .L96
	ldr	w0, [x20, 12]
	sub	w1, w0, #1
	str	w1, [x20, 12]
.L97:
	cmp	w0, 1
	bne	.L92
	ldr	x1, [x20]
	mov	x0, x20
	ldr	x1, [x1, 24]
	blr	x1
	b	.L92
	.p2align 2,,3
.L107:
	ldr	x1, [x19]
	mov	x0, x19
	ldr	x1, [x1, 16]
	blr	x1
	ldr	x21, [x21, #:got_lo12:__libc_single_threaded]
	ldrb	w0, [x21]
	cbz	w0, .L103
	ldr	w0, [x19, 12]
	sub	w1, w0, #1
	str	w1, [x19, 12]
.L104:
	cmp	w0, 1
	bne	.L90
	ldr	x1, [x19]
	mov	x0, x19
	ldp	x19, x20, [sp, 16]
	ldr	x21, [sp, 32]
	ldp	x29, x30, [sp], 48
	.cfi_remember_state
	.cfi_restore 30
	.cfi_restore 29
	.cfi_restore 21
	.cfi_restore 19
	.cfi_restore 20
	.cfi_def_cfa_offset 0
	ldr	x1, [x1, 24]
	mov	x16, x1
	br	x16
	.p2align 2,,3
.L100:
	.cfi_restore_state
	add	x1, x19, 8
	mov	w0, -1
	bl	__aarch64_ldadd4_acq_rel
	b	.L101
	.p2align 2,,3
.L93:
	add	x1, x20, 8
	mov	w0, -1
	bl	__aarch64_ldadd4_acq_rel
	b	.L94
	.p2align 2,,3
.L96:
	add	x1, x20, 12
	mov	w0, -1
	bl	__aarch64_ldadd4_acq_rel
	b	.L97
	.p2align 2,,3
.L103:
	add	x1, x19, 12
	mov	w0, -1
	bl	__aarch64_ldadd4_acq_rel
	b	.L104
	.cfi_endproc
.LFE2070:
	.size	_ZN7openpal6LoggerD2Ev, .-_ZN7openpal6LoggerD2Ev
	.weak	_ZN7openpal6LoggerD1Ev
	.set	_ZN7openpal6LoggerD1Ev,_ZN7openpal6LoggerD2Ev
	.text
	.align	2
	.p2align 4,,11
	.global	_ZN8opendnp320RestartOperationTask14ToFunctionCodeENS_11RestartTypeE
	.type	_ZN8opendnp320RestartOperationTask14ToFunctionCodeENS_11RestartTypeE, %function
_ZN8opendnp320RestartOperationTask14ToFunctionCodeENS_11RestartTypeE:
.LFB2657:
	.cfi_startproc
	tst	w0, 255
	cset	w0, ne
	add	w0, w0, 13
	ret
	.cfi_endproc
.LFE2657:
	.size	_ZN8opendnp320RestartOperationTask14ToFunctionCodeENS_11RestartTypeE, .-_ZN8opendnp320RestartOperationTask14ToFunctionCodeENS_11RestartTypeE
	.align	2
	.p2align 4,,11
	.global	_ZN8opendnp320RestartOperationTaskC2ERNS_18IMasterApplicationENS_11RestartTypeERKSt8functionIFvRKNS_22RestartOperationResultEEEN7openpal6LoggerERKNS_10TaskConfigE
	.type	_ZN8opendnp320RestartOperationTaskC2ERNS_18IMasterApplicationENS_11RestartTypeERKSt8functionIFvRKNS_22RestartOperationResultEEEN7openpal6LoggerERKNS_10TaskConfigE, %function
_ZN8opendnp320RestartOperationTaskC2ERNS_18IMasterApplicationENS_11RestartTypeERKSt8functionIFvRKNS_22RestartOperationResultEEEN7openpal6LoggerERKNS_10TaskConfigE:
.LFB2650:
	.cfi_startproc
	.cfi_personality 0x9b,DW.ref.__gxx_personality_v0
	.cfi_lsda 0x1b,.LLSDA2650
	stp	x29, x30, [sp, -160]!
	.cfi_def_cfa_offset 160
	.cfi_offset 29, -160
	.cfi_offset 30, -152
	adrp	x6, :got:__stack_chk_guard
	mov	x29, sp
	ldr	x6, [x6, #:got_lo12:__stack_chk_guard]
	stp	x19, x20, [sp, 16]
	.cfi_offset 19, -144
	.cfi_offset 20, -136
	mov	x20, x3
	stp	x21, x22, [sp, 32]
	.cfi_offset 21, -128
	.cfi_offset 22, -120
	mov	x22, x1
	mov	x21, x4
	stp	x23, x24, [sp, 48]
	mov	x19, x0
	.cfi_offset 23, -112
	.cfi_offset 24, -104
	mov	x24, x5
	str	x25, [sp, 64]
	.cfi_offset 25, -96
	mov	w0, w2
	ldr	x1, [x6]
	str	x1, [sp, 152]
	mov	x1, 0
.LEHB0:
	bl	_ZN8opendnp320RestartOperationTask14ToFunctionCodeENS_11RestartTypeE
.LEHE0:
	stp	xzr, xzr, [sp, 120]
	adrp	x2, _ZNSt17_Function_handlerIFbRN8opendnp312HeaderWriterEEZNS0_20RestartOperationTaskC4ERNS0_18IMasterApplicationENS0_11RestartTypeERKSt8functionIFvRKNS0_22RestartOperationResultEEEN7openpal6LoggerERKNS0_10TaskConfigEEUlS2_E_E9_M_invokeERKSt9_Any_dataS2_
	ldr	q0, [x21]
	add	x2, x2, :lo12:_ZNSt17_Function_handlerIFbRN8opendnp312HeaderWriterEEZNS0_20RestartOperationTaskC4ERNS0_18IMasterApplicationENS0_11RestartTypeERKSt8functionIFvRKNS0_22RestartOperationResultEEEN7openpal6LoggerERKNS0_10TaskConfigEEUlS2_E_E9_M_invokeERKSt9_Any_dataS2_
	adrp	x3, _ZNSt17_Function_handlerIFbRN8opendnp312HeaderWriterEEZNS0_20RestartOperationTaskC4ERNS0_18IMasterApplicationENS0_11RestartTypeERKSt8functionIFvRKNS0_22RestartOperationResultEEEN7openpal6LoggerERKNS0_10TaskConfigEEUlS2_E_E10_M_managerERSt9_Any_dataRKSN_St18_Manager_operation
	add	x3, x3, :lo12:_ZNSt17_Function_handlerIFbRN8opendnp312HeaderWriterEEZNS0_20RestartOperationTaskC4ERNS0_18IMasterApplicationENS0_11RestartTypeERKSt8functionIFvRKNS0_22RestartOperationResultEEEN7openpal6LoggerERKNS0_10TaskConfigEEUlS2_E_E10_M_managerERSt9_Any_dataRKSN_St18_Manager_operation
	stp	x3, x2, [sp, 136]
	mov	w23, w0
	umov	x1, v0.d[1]
	str	q0, [sp, 80]
	cbz	x1, .L112
	adrp	x0, :got:__libc_single_threaded
	ldr	x0, [x0, #:got_lo12:__libc_single_threaded]
	ldrb	w0, [x0]
	cbz	w0, .L113
	ldr	w0, [x1, 8]
	add	w0, w0, 1
	str	w0, [x1, 8]
.L112:
	ldr	q0, [x21, 16]
	umov	x1, v0.d[1]
	str	q0, [sp, 96]
	cbz	x1, .L114
	adrp	x0, :got:__libc_single_threaded
	ldr	x0, [x0, #:got_lo12:__libc_single_threaded]
	ldrb	w0, [x0]
	cbz	w0, .L115
	ldr	w0, [x1, 8]
	add	w0, w0, 1
	str	w0, [x1, 8]
.L114:
	add	x21, sp, 80
	add	x25, sp, 120
	mov	x6, x24
	mov	w2, w23
	mov	x1, x22
	mov	x5, x21
	mov	x4, x25
	mov	x0, x19
	mov	w3, 110
.LEHB1:
	bl	_ZN8opendnp321SimpleRequestTaskBaseC2ERNS_18IMasterApplicationENS_12FunctionCodeEiRKSt8functionIFbRNS_12HeaderWriterEEEN7openpal6LoggerERKNS_10TaskConfigE
.LEHE1:
	ldr	x21, [sp, 104]
	cbz	x21, .L117
	adrp	x22, :got:__libc_single_threaded
	ldr	x0, [x22, #:got_lo12:__libc_single_threaded]
	ldrb	w0, [x0]
	cbz	w0, .L118
	ldr	w0, [x21, 8]
	sub	w1, w0, #1
	str	w1, [x21, 8]
.L119:
	cmp	w0, 1
	beq	.L172
.L117:
	ldr	x21, [sp, 88]
	cbz	x21, .L124
	adrp	x22, :got:__libc_single_threaded
	ldr	x0, [x22, #:got_lo12:__libc_single_threaded]
	ldrb	w0, [x0]
	cbz	w0, .L125
	ldr	w0, [x21, 8]
	sub	w1, w0, #1
	str	w1, [x21, 8]
.L126:
	cmp	w0, 1
	beq	.L173
.L124:
	ldr	x3, [sp, 136]
	cbz	x3, .L130
	mov	x1, x25
	mov	x0, x25
	mov	w2, 3
	blr	x3
.L130:
	add	x0, x19, 128
.LEHB2:
	bl	_ZN8opendnp312IAPDUHandlerC2Ev
.LEHE2:
	adrp	x0, :got:_ZTVN8opendnp320RestartOperationTaskE
	add	x21, x19, 152
	ldr	x3, [x20, 16]
	stp	xzr, xzr, [x19, 152]
	ldr	x0, [x0, #:got_lo12:_ZTVN8opendnp320RestartOperationTaskE]
	add	x1, x0, 16
	add	x0, x0, 160
	str	x1, [x19]
	str	x0, [x19, 128]
	stp	xzr, xzr, [x21, 16]
	cbz	x3, .L131
	mov	x1, x20
	mov	x0, x21
	mov	w2, 2
.LEHB3:
	blr	x3
.LEHE3:
	ldr	q0, [x20, 16]
	str	q0, [x19, 168]
.L131:
.LEHB4:
	bl	_ZN7openpal12TimeDuration3MinEv
.LEHE4:
	adrp	x1, :got:__stack_chk_guard
	str	x0, [x19, 184]
	ldr	x1, [x1, #:got_lo12:__stack_chk_guard]
	ldr	x0, [sp, 152]
	ldr	x2, [x1]
	subs	x0, x0, x2
	mov	x2, 0
	bne	.L174
	ldp	x19, x20, [sp, 16]
	ldp	x21, x22, [sp, 32]
	ldp	x23, x24, [sp, 48]
	ldr	x25, [sp, 64]
	ldp	x29, x30, [sp], 160
	.cfi_remember_state
	.cfi_restore 30
	.cfi_restore 29
	.cfi_restore 25
	.cfi_restore 23
	.cfi_restore 24
	.cfi_restore 21
	.cfi_restore 22
	.cfi_restore 19
	.cfi_restore 20
	.cfi_def_cfa_offset 0
	ret
	.p2align 2,,3
.L115:
	.cfi_restore_state
	add	x1, x1, 8
	mov	w0, 1
	bl	__aarch64_ldadd4_acq_rel
	b	.L114
	.p2align 2,,3
.L113:
	add	x1, x1, 8
	mov	w0, 1
	bl	__aarch64_ldadd4_acq_rel
	b	.L112
	.p2align 2,,3
.L172:
	ldr	x1, [x21]
	mov	x0, x21
	ldr	x1, [x1, 16]
	blr	x1
	ldr	x22, [x22, #:got_lo12:__libc_single_threaded]
	ldrb	w0, [x22]
	cbz	w0, .L121
	ldr	w0, [x21, 12]
	sub	w1, w0, #1
	str	w1, [x21, 12]
.L122:
	cmp	w0, 1
	bne	.L117
	ldr	x1, [x21]
	mov	x0, x21
	ldr	x1, [x1, 24]
	blr	x1
	b	.L117
	.p2align 2,,3
.L173:
	ldr	x1, [x21]
	mov	x0, x21
	ldr	x1, [x1, 16]
	blr	x1
	ldr	x22, [x22, #:got_lo12:__libc_single_threaded]
	ldrb	w0, [x22]
	cbz	w0, .L128
	ldr	w0, [x21, 12]
	sub	w1, w0, #1
	str	w1, [x21, 12]
.L129:
	cmp	w0, 1
	bne	.L124
	ldr	x1, [x21]
	mov	x0, x21
	ldr	x1, [x1, 24]
	blr	x1
	b	.L124
	.p2align 2,,3
.L118:
	add	x1, x21, 8
	mov	w0, -1
	bl	__aarch64_ldadd4_acq_rel
	b	.L119
	.p2align 2,,3
.L125:
	add	x1, x21, 8
	mov	w0, -1
	bl	__aarch64_ldadd4_acq_rel
	b	.L126
	.p2align 2,,3
.L128:
	add	x1, x21, 12
	mov	w0, -1
	bl	__aarch64_ldadd4_acq_rel
	b	.L129
	.p2align 2,,3
.L121:
	add	x1, x21, 12
	mov	w0, -1
	bl	__aarch64_ldadd4_acq_rel
	b	.L122
.L174:
	bl	__stack_chk_fail
.L144:
	ldr	x3, [x21, 16]
	mov	x20, x0
	cbz	x3, .L135
	mov	x1, x21
	mov	x0, x21
	mov	w2, 3
	blr	x3
.L135:
	adrp	x0, :got:_ZTVN8opendnp321SimpleRequestTaskBaseE
	mov	x1, x19
	ldr	x0, [x0, #:got_lo12:_ZTVN8opendnp321SimpleRequestTaskBaseE]
	add	x0, x0, 16
	str	x0, [x1], 96
	ldr	x3, [x1, 16]
	cbz	x3, .L140
	mov	x0, x1
	mov	w2, 3
	blr	x3
.L140:
	mov	x0, x19
	bl	_ZN8opendnp311IMasterTaskD2Ev
	mov	x0, x20
.LEHB5:
	bl	_Unwind_Resume
.LEHE5:
.L145:
	ldr	x3, [x21, 16]
	mov	x20, x0
	cbz	x3, .L135
	mov	x1, x21
	mov	x0, x21
	mov	w2, 3
	blr	x3
	b	.L135
.L142:
	mov	x19, x0
	mov	x0, x21
	bl	_ZN7openpal6LoggerD1Ev
	ldr	x3, [sp, 136]
	cbz	x3, .L137
	mov	x1, x25
	mov	x0, x25
	mov	w2, 3
	blr	x3
.L137:
	mov	x0, x19
.LEHB6:
	bl	_Unwind_Resume
.LEHE6:
.L143:
	mov	x20, x0
	b	.L135
	.cfi_endproc
.LFE2650:
	.section	.gcc_except_table,"a",@progbits
.LLSDA2650:
	.byte	0xff
	.byte	0xff
	.byte	0x1
	.uleb128 .LLSDACSE2650-.LLSDACSB2650
.LLSDACSB2650:
	.uleb128 .LEHB0-.LFB2650
	.uleb128 .LEHE0-.LEHB0
	.uleb128 0
	.uleb128 0
	.uleb128 .LEHB1-.LFB2650
	.uleb128 .LEHE1-.LEHB1
	.uleb128 .L142-.LFB2650
	.uleb128 0
	.uleb128 .LEHB2-.LFB2650
	.uleb128 .LEHE2-.LEHB2
	.uleb128 .L143-.LFB2650
	.uleb128 0
	.uleb128 .LEHB3-.LFB2650
	.uleb128 .LEHE3-.LEHB3
	.uleb128 .L145-.LFB2650
	.uleb128 0
	.uleb128 .LEHB4-.LFB2650
	.uleb128 .LEHE4-.LEHB4
	.uleb128 .L144-.LFB2650
	.uleb128 0
	.uleb128 .LEHB5-.LFB2650
	.uleb128 .LEHE5-.LEHB5
	.uleb128 0
	.uleb128 0
	.uleb128 .LEHB6-.LFB2650
	.uleb128 .LEHE6-.LEHB6
	.uleb128 0
	.uleb128 0
.LLSDACSE2650:
	.text
	.size	_ZN8opendnp320RestartOperationTaskC2ERNS_18IMasterApplicationENS_11RestartTypeERKSt8functionIFvRKNS_22RestartOperationResultEEEN7openpal6LoggerERKNS_10TaskConfigE, .-_ZN8opendnp320RestartOperationTaskC2ERNS_18IMasterApplicationENS_11RestartTypeERKSt8functionIFvRKNS_22RestartOperationResultEEEN7openpal6LoggerERKNS_10TaskConfigE
	.global	_ZN8opendnp320RestartOperationTaskC1ERNS_18IMasterApplicationENS_11RestartTypeERKSt8functionIFvRKNS_22RestartOperationResultEEEN7openpal6LoggerERKNS_10TaskConfigE
	.set	_ZN8opendnp320RestartOperationTaskC1ERNS_18IMasterApplicationENS_11RestartTypeERKSt8functionIFvRKNS_22RestartOperationResultEEEN7openpal6LoggerERKNS_10TaskConfigE,_ZN8opendnp320RestartOperationTaskC2ERNS_18IMasterApplicationENS_11RestartTypeERKSt8functionIFvRKNS_22RestartOperationResultEEEN7openpal6LoggerERKNS_10TaskConfigE
	.weak	_ZTSN8opendnp320RestartOperationTaskE
	.section	.rodata._ZTSN8opendnp320RestartOperationTaskE,"aG",@progbits,_ZTSN8opendnp320RestartOperationTaskE,comdat
	.align	3
	.type	_ZTSN8opendnp320RestartOperationTaskE, %object
	.size	_ZTSN8opendnp320RestartOperationTaskE, 34
_ZTSN8opendnp320RestartOperationTaskE:
	.string	"N8opendnp320RestartOperationTaskE"
	.weak	_ZTIN8opendnp320RestartOperationTaskE
	.section	.data.rel.ro._ZTIN8opendnp320RestartOperationTaskE,"awG",@progbits,_ZTIN8opendnp320RestartOperationTaskE,comdat
	.align	3
	.type	_ZTIN8opendnp320RestartOperationTaskE, %object
	.size	_ZTIN8opendnp320RestartOperationTaskE, 56
_ZTIN8opendnp320RestartOperationTaskE:
	.xword	_ZTVN10__cxxabiv121__vmi_class_type_infoE+16
	.xword	_ZTSN8opendnp320RestartOperationTaskE
	.word	0
	.word	2
	.xword	_ZTIN8opendnp321SimpleRequestTaskBaseE
	.xword	2
	.xword	_ZTIN8opendnp312IAPDUHandlerE
	.xword	32768
	.weak	_ZTSN8opendnp38IVisitorINS_11Group52Var1EEE
	.section	.rodata._ZTSN8opendnp38IVisitorINS_11Group52Var1EEE,"aG",@progbits,_ZTSN8opendnp38IVisitorINS_11Group52Var1EEE,comdat
	.align	3
	.type	_ZTSN8opendnp38IVisitorINS_11Group52Var1EEE, %object
	.size	_ZTSN8opendnp38IVisitorINS_11Group52Var1EEE, 40
_ZTSN8opendnp38IVisitorINS_11Group52Var1EEE:
	.string	"N8opendnp38IVisitorINS_11Group52Var1EEE"
	.weak	_ZTIN8opendnp38IVisitorINS_11Group52Var1EEE
	.section	.data.rel.ro._ZTIN8opendnp38IVisitorINS_11Group52Var1EEE,"awG",@progbits,_ZTIN8opendnp38IVisitorINS_11Group52Var1EEE,comdat
	.align	3
	.type	_ZTIN8opendnp38IVisitorINS_11Group52Var1EEE, %object
	.size	_ZTIN8opendnp38IVisitorINS_11Group52Var1EEE, 16
_ZTIN8opendnp38IVisitorINS_11Group52Var1EEE:
	.xword	_ZTVN10__cxxabiv117__class_type_infoE+16
	.xword	_ZTSN8opendnp38IVisitorINS_11Group52Var1EEE
	.weak	_ZTSN8opendnp314FunctorVisitorINS_11Group52Var1EZNKS_11ICollectionIS1_E13ReadOnlyValueERS1_EUlRKS1_E_EE
	.section	.rodata._ZTSN8opendnp314FunctorVisitorINS_11Group52Var1EZNKS_11ICollectionIS1_E13ReadOnlyValueERS1_EUlRKS1_E_EE,"aG",@progbits,_ZTSN8opendnp314FunctorVisitorINS_11Group52Var1EZNKS_11ICollectionIS1_E13ReadOnlyValueERS1_EUlRKS1_E_EE,comdat
	.align	3
	.type	_ZTSN8opendnp314FunctorVisitorINS_11Group52Var1EZNKS_11ICollectionIS1_E13ReadOnlyValueERS1_EUlRKS1_E_EE, %object
	.size	_ZTSN8opendnp314FunctorVisitorINS_11Group52Var1EZNKS_11ICollectionIS1_E13ReadOnlyValueERS1_EUlRKS1_E_EE, 100
_ZTSN8opendnp314FunctorVisitorINS_11Group52Var1EZNKS_11ICollectionIS1_E13ReadOnlyValueERS1_EUlRKS1_E_EE:
	.string	"N8opendnp314FunctorVisitorINS_11Group52Var1EZNKS_11ICollectionIS1_E13ReadOnlyValueERS1_EUlRKS1_E_EE"
	.weak	_ZTIN8opendnp314FunctorVisitorINS_11Group52Var1EZNKS_11ICollectionIS1_E13ReadOnlyValueERS1_EUlRKS1_E_EE
	.section	.data.rel.ro._ZTIN8opendnp314FunctorVisitorINS_11Group52Var1EZNKS_11ICollectionIS1_E13ReadOnlyValueERS1_EUlRKS1_E_EE,"awG",@progbits,_ZTIN8opendnp314FunctorVisitorINS_11Group52Var1EZNKS_11ICollectionIS1_E13ReadOnlyValueERS1_EUlRKS1_E_EE,comdat
	.align	3
	.type	_ZTIN8opendnp314FunctorVisitorINS_11Group52Var1EZNKS_11ICollectionIS1_E13ReadOnlyValueERS1_EUlRKS1_E_EE, %object
	.size	_ZTIN8opendnp314FunctorVisitorINS_11Group52Var1EZNKS_11ICollectionIS1_E13ReadOnlyValueERS1_EUlRKS1_E_EE, 24
_ZTIN8opendnp314FunctorVisitorINS_11Group52Var1EZNKS_11ICollectionIS1_E13ReadOnlyValueERS1_EUlRKS1_E_EE:
	.xword	_ZTVN10__cxxabiv120__si_class_type_infoE+16
	.xword	_ZTSN8opendnp314FunctorVisitorINS_11Group52Var1EZNKS_11ICollectionIS1_E13ReadOnlyValueERS1_EUlRKS1_E_EE
	.xword	_ZTIN8opendnp38IVisitorINS_11Group52Var1EEE
	.weak	_ZTSN8opendnp38IVisitorINS_11Group52Var2EEE
	.section	.rodata._ZTSN8opendnp38IVisitorINS_11Group52Var2EEE,"aG",@progbits,_ZTSN8opendnp38IVisitorINS_11Group52Var2EEE,comdat
	.align	3
	.type	_ZTSN8opendnp38IVisitorINS_11Group52Var2EEE, %object
	.size	_ZTSN8opendnp38IVisitorINS_11Group52Var2EEE, 40
_ZTSN8opendnp38IVisitorINS_11Group52Var2EEE:
	.string	"N8opendnp38IVisitorINS_11Group52Var2EEE"
	.weak	_ZTIN8opendnp38IVisitorINS_11Group52Var2EEE
	.section	.data.rel.ro._ZTIN8opendnp38IVisitorINS_11Group52Var2EEE,"awG",@progbits,_ZTIN8opendnp38IVisitorINS_11Group52Var2EEE,comdat
	.align	3
	.type	_ZTIN8opendnp38IVisitorINS_11Group52Var2EEE, %object
	.size	_ZTIN8opendnp38IVisitorINS_11Group52Var2EEE, 16
_ZTIN8opendnp38IVisitorINS_11Group52Var2EEE:
	.xword	_ZTVN10__cxxabiv117__class_type_infoE+16
	.xword	_ZTSN8opendnp38IVisitorINS_11Group52Var2EEE
	.weak	_ZTSN8opendnp314FunctorVisitorINS_11Group52Var2EZNKS_11ICollectionIS1_E13ReadOnlyValueERS1_EUlRKS1_E_EE
	.section	.rodata._ZTSN8opendnp314FunctorVisitorINS_11Group52Var2EZNKS_11ICollectionIS1_E13ReadOnlyValueERS1_EUlRKS1_E_EE,"aG",@progbits,_ZTSN8opendnp314FunctorVisitorINS_11Group52Var2EZNKS_11ICollectionIS1_E13ReadOnlyValueERS1_EUlRKS1_E_EE,comdat
	.align	3
	.type	_ZTSN8opendnp314FunctorVisitorINS_11Group52Var2EZNKS_11ICollectionIS1_E13ReadOnlyValueERS1_EUlRKS1_E_EE, %object
	.size	_ZTSN8opendnp314FunctorVisitorINS_11Group52Var2EZNKS_11ICollectionIS1_E13ReadOnlyValueERS1_EUlRKS1_E_EE, 100
_ZTSN8opendnp314FunctorVisitorINS_11Group52Var2EZNKS_11ICollectionIS1_E13ReadOnlyValueERS1_EUlRKS1_E_EE:
	.string	"N8opendnp314FunctorVisitorINS_11Group52Var2EZNKS_11ICollectionIS1_E13ReadOnlyValueERS1_EUlRKS1_E_EE"
	.weak	_ZTIN8opendnp314FunctorVisitorINS_11Group52Var2EZNKS_11ICollectionIS1_E13ReadOnlyValueERS1_EUlRKS1_E_EE
	.section	.data.rel.ro._ZTIN8opendnp314FunctorVisitorINS_11Group52Var2EZNKS_11ICollectionIS1_E13ReadOnlyValueERS1_EUlRKS1_E_EE,"awG",@progbits,_ZTIN8opendnp314FunctorVisitorINS_11Group52Var2EZNKS_11ICollectionIS1_E13ReadOnlyValueERS1_EUlRKS1_E_EE,comdat
	.align	3
	.type	_ZTIN8opendnp314FunctorVisitorINS_11Group52Var2EZNKS_11ICollectionIS1_E13ReadOnlyValueERS1_EUlRKS1_E_EE, %object
	.size	_ZTIN8opendnp314FunctorVisitorINS_11Group52Var2EZNKS_11ICollectionIS1_E13ReadOnlyValueERS1_EUlRKS1_E_EE, 24
_ZTIN8opendnp314FunctorVisitorINS_11Group52Var2EZNKS_11ICollectionIS1_E13ReadOnlyValueERS1_EUlRKS1_E_EE:
	.xword	_ZTVN10__cxxabiv120__si_class_type_infoE+16
	.xword	_ZTSN8opendnp314FunctorVisitorINS_11Group52Var2EZNKS_11ICollectionIS1_E13ReadOnlyValueERS1_EUlRKS1_E_EE
	.xword	_ZTIN8opendnp38IVisitorINS_11Group52Var2EEE
	.weak	_ZTVN8opendnp320RestartOperationTaskE
	.section	.data.rel.ro._ZTVN8opendnp320RestartOperationTaskE,"awG",@progbits,_ZTVN8opendnp320RestartOperationTaskE,comdat
	.align	3
	.type	_ZTVN8opendnp320RestartOperationTaskE, %object
	.size	_ZTVN8opendnp320RestartOperationTaskE, 592
_ZTVN8opendnp320RestartOperationTaskE:
	.xword	0
	.xword	_ZTIN8opendnp320RestartOperationTaskE
	.xword	_ZN8opendnp320RestartOperationTaskD1Ev
	.xword	_ZN8opendnp320RestartOperationTaskD0Ev
	.xword	_ZNK8opendnp311IMasterTask10IsAuthTaskEv
	.xword	_ZNK8opendnp320RestartOperationTask4NameEv
	.xword	_ZNK8opendnp321SimpleRequestTaskBase8PriorityEv
	.xword	_ZNK8opendnp321SimpleRequestTaskBase19BlocksLowerPriorityEv
	.xword	_ZNK8opendnp321SimpleRequestTaskBase11IsRecurringEv
	.xword	_ZN8opendnp321SimpleRequestTaskBase12BuildRequestERNS_11APDURequestEh
	.xword	_ZN8opendnp311IMasterTask10InitializeEv
	.xword	_ZN8opendnp320RestartOperationTask15ProcessResponseERKNS_18APDUResponseHeaderERKN7openpal6RSliceE
	.xword	_ZN8opendnp320RestartOperationTask14OnTaskCompleteENS_14TaskCompletionEN7openpal18MonotonicTimestampE
	.xword	_ZNK8opendnp321SimpleRequestTaskBase9IsEnabledEv
	.xword	_ZNK8opendnp321SimpleRequestTaskBase11GetTaskTypeEv
	.xword	_ZN8opendnp320RestartOperationTask9IsAllowedEjNS_14GroupVariationENS_13QualifierCodeE
	.xword	_ZN8opendnp320RestartOperationTask13ProcessHeaderERKNS_11CountHeaderERKNS_11ICollectionINS_11Group52Var1EEE
	.xword	_ZN8opendnp320RestartOperationTask13ProcessHeaderERKNS_11CountHeaderERKNS_11ICollectionINS_11Group52Var2EEE
	.xword	-128
	.xword	_ZTIN8opendnp320RestartOperationTaskE
	.xword	_ZThn128_N8opendnp320RestartOperationTask9IsAllowedEjNS_14GroupVariationENS_13QualifierCodeE
	.xword	_ZN8opendnp312IAPDUHandler13ProcessHeaderERKNS_16AllObjectsHeaderE
	.xword	_ZN8opendnp312IAPDUHandler13ProcessHeaderERKNS_11RangeHeaderE
	.xword	_ZN8opendnp312IAPDUHandler13ProcessHeaderERKNS_11CountHeaderE
	.xword	_ZN8opendnp312IAPDUHandler13ProcessHeaderERKNS_16FreeFormatHeaderERKNS_12Group120Var1ERKN7openpal6RSliceE
	.xword	_ZN8opendnp312IAPDUHandler13ProcessHeaderERKNS_16FreeFormatHeaderERKNS_12Group120Var2ERKN7openpal6RSliceE
	.xword	_ZN8opendnp312IAPDUHandler13ProcessHeaderERKNS_16FreeFormatHeaderERKNS_12Group120Var5ERKN7openpal6RSliceE
	.xword	_ZN8opendnp312IAPDUHandler13ProcessHeaderERKNS_16FreeFormatHeaderERKNS_12Group120Var6ERKN7openpal6RSliceE
	.xword	_ZN8opendnp312IAPDUHandler13ProcessHeaderERKNS_16FreeFormatHeaderERKNS_12Group120Var8ERKN7openpal6RSliceE
	.xword	_ZN8opendnp312IAPDUHandler13ProcessHeaderERKNS_16FreeFormatHeaderERKNS_12Group120Var7ERKN7openpal6RSliceE
	.xword	_ZN8opendnp312IAPDUHandler13ProcessHeaderERKNS_16FreeFormatHeaderERKNS_12Group120Var9ERKN7openpal6RSliceE
	.xword	_ZN8opendnp312IAPDUHandler13ProcessHeaderERKNS_16FreeFormatHeaderERKNS_13Group120Var10ERKN7openpal6RSliceE
	.xword	_ZN8opendnp312IAPDUHandler13ProcessHeaderERKNS_16FreeFormatHeaderERKNS_13Group120Var11ERKN7openpal6RSliceE
	.xword	_ZN8opendnp312IAPDUHandler13ProcessHeaderERKNS_16FreeFormatHeaderERKNS_13Group120Var12ERKN7openpal6RSliceE
	.xword	_ZN8opendnp312IAPDUHandler13ProcessHeaderERKNS_16FreeFormatHeaderERKNS_13Group120Var13ERKN7openpal6RSliceE
	.xword	_ZN8opendnp312IAPDUHandler13ProcessHeaderERKNS_16FreeFormatHeaderERKNS_13Group120Var14ERKN7openpal6RSliceE
	.xword	_ZN8opendnp312IAPDUHandler13ProcessHeaderERKNS_16FreeFormatHeaderERKNS_13Group120Var15ERKN7openpal6RSliceE
	.xword	_ZN8opendnp312IAPDUHandler13ProcessHeaderERKNS_11CountHeaderERKNS_11ICollectionINS_11Group50Var1EEE
	.xword	_ZN8opendnp312IAPDUHandler13ProcessHeaderERKNS_11CountHeaderERKNS_11ICollectionINS_11Group51Var1EEE
	.xword	_ZN8opendnp312IAPDUHandler13ProcessHeaderERKNS_11CountHeaderERKNS_11ICollectionINS_11Group51Var2EEE
	.xword	_ZThn128_N8opendnp320RestartOperationTask13ProcessHeaderERKNS_11CountHeaderERKNS_11ICollectionINS_11Group52Var1EEE
	.xword	_ZThn128_N8opendnp320RestartOperationTask13ProcessHeaderERKNS_11CountHeaderERKNS_11ICollectionINS_11Group52Var2EEE
	.xword	_ZN8opendnp312IAPDUHandler13ProcessHeaderERKNS_11CountHeaderERKNS_11ICollectionINS_12Group120Var3EEE
	.xword	_ZN8opendnp312IAPDUHandler13ProcessHeaderERKNS_11CountHeaderERKNS_11ICollectionINS_12Group120Var4EEE
	.xword	_ZN8opendnp312IAPDUHandler13ProcessHeaderERKNS_11RangeHeaderERKNS_11ICollectionINS_7IndexedINS_8IINValueEEEEE
	.xword	_ZN8opendnp312IAPDUHandler13ProcessHeaderERKNS_11RangeHeaderERKNS_11ICollectionINS_7IndexedINS_6BinaryEEEEE
	.xword	_ZN8opendnp312IAPDUHandler13ProcessHeaderERKNS_11RangeHeaderERKNS_11ICollectionINS_7IndexedINS_15DoubleBitBinaryEEEEE
	.xword	_ZN8opendnp312IAPDUHandler13ProcessHeaderERKNS_11RangeHeaderERKNS_11ICollectionINS_7IndexedINS_18BinaryOutputStatusEEEEE
	.xword	_ZN8opendnp312IAPDUHandler13ProcessHeaderERKNS_11RangeHeaderERKNS_11ICollectionINS_7IndexedINS_7CounterEEEEE
	.xword	_ZN8opendnp312IAPDUHandler13ProcessHeaderERKNS_11RangeHeaderERKNS_11ICollectionINS_7IndexedINS_13FrozenCounterEEEEE
	.xword	_ZN8opendnp312IAPDUHandler13ProcessHeaderERKNS_11RangeHeaderERKNS_11ICollectionINS_7IndexedINS_6AnalogEEEEE
	.xword	_ZN8opendnp312IAPDUHandler13ProcessHeaderERKNS_11RangeHeaderERKNS_11ICollectionINS_7IndexedINS_18AnalogOutputStatusEEEEE
	.xword	_ZN8opendnp312IAPDUHandler13ProcessHeaderERKNS_11RangeHeaderERKNS_11ICollectionINS_7IndexedINS_11OctetStringEEEEE
	.xword	_ZN8opendnp312IAPDUHandler13ProcessHeaderERKNS_11RangeHeaderERKNS_11ICollectionINS_7IndexedINS_15TimeAndIntervalEEEEE
	.xword	_ZN8opendnp312IAPDUHandler13ProcessHeaderERKNS_11RangeHeaderERKNS_11ICollectionINS_7IndexedINS_12Group121Var1EEEEE
	.xword	_ZN8opendnp312IAPDUHandler13ProcessHeaderERKNS_12PrefixHeaderERKNS_11ICollectionINS_7IndexedINS_6BinaryEEEEE
	.xword	_ZN8opendnp312IAPDUHandler13ProcessHeaderERKNS_12PrefixHeaderERKNS_11ICollectionINS_7IndexedINS_18BinaryOutputStatusEEEEE
	.xword	_ZN8opendnp312IAPDUHandler13ProcessHeaderERKNS_12PrefixHeaderERKNS_11ICollectionINS_7IndexedINS_15DoubleBitBinaryEEEEE
	.xword	_ZN8opendnp312IAPDUHandler13ProcessHeaderERKNS_12PrefixHeaderERKNS_11ICollectionINS_7IndexedINS_7CounterEEEEE
	.xword	_ZN8opendnp312IAPDUHandler13ProcessHeaderERKNS_12PrefixHeaderERKNS_11ICollectionINS_7IndexedINS_13FrozenCounterEEEEE
	.xword	_ZN8opendnp312IAPDUHandler13ProcessHeaderERKNS_12PrefixHeaderERKNS_11ICollectionINS_7IndexedINS_6AnalogEEEEE
	.xword	_ZN8opendnp312IAPDUHandler13ProcessHeaderERKNS_12PrefixHeaderERKNS_11ICollectionINS_7IndexedINS_18AnalogOutputStatusEEEEE
	.xword	_ZN8opendnp312IAPDUHandler13ProcessHeaderERKNS_12PrefixHeaderERKNS_11ICollectionINS_7IndexedINS_11OctetStringEEEEE
	.xword	_ZN8opendnp312IAPDUHandler13ProcessHeaderERKNS_12PrefixHeaderERKNS_11ICollectionINS_7IndexedINS_15TimeAndIntervalEEEEE
	.xword	_ZN8opendnp312IAPDUHandler13ProcessHeaderERKNS_12PrefixHeaderERKNS_11ICollectionINS_7IndexedINS_18BinaryCommandEventEEEEE
	.xword	_ZN8opendnp312IAPDUHandler13ProcessHeaderERKNS_12PrefixHeaderERKNS_11ICollectionINS_7IndexedINS_18AnalogCommandEventEEEEE
	.xword	_ZN8opendnp312IAPDUHandler13ProcessHeaderERKNS_12PrefixHeaderERKNS_11ICollectionINS_7IndexedINS_12Group122Var1EEEEE
	.xword	_ZN8opendnp312IAPDUHandler13ProcessHeaderERKNS_12PrefixHeaderERKNS_11ICollectionINS_7IndexedINS_12Group122Var2EEEEE
	.xword	_ZN8opendnp312IAPDUHandler13ProcessHeaderERKNS_12PrefixHeaderERKNS_11ICollectionINS_7IndexedINS_23ControlRelayOutputBlockEEEEE
	.xword	_ZN8opendnp312IAPDUHandler13ProcessHeaderERKNS_12PrefixHeaderERKNS_11ICollectionINS_7IndexedINS_17AnalogOutputInt16EEEEE
	.xword	_ZN8opendnp312IAPDUHandler13ProcessHeaderERKNS_12PrefixHeaderERKNS_11ICollectionINS_7IndexedINS_17AnalogOutputInt32EEEEE
	.xword	_ZN8opendnp312IAPDUHandler13ProcessHeaderERKNS_12PrefixHeaderERKNS_11ICollectionINS_7IndexedINS_19AnalogOutputFloat32EEEEE
	.xword	_ZN8opendnp312IAPDUHandler13ProcessHeaderERKNS_12PrefixHeaderERKNS_11ICollectionINS_7IndexedINS_20AnalogOutputDouble64EEEEE
	.xword	_ZN8opendnp312IAPDUHandler14OnHeaderResultERKNS_12HeaderRecordERKNS_8IINFieldE
	.weak	_ZTVN8opendnp314FunctorVisitorINS_11Group52Var1EZNKS_11ICollectionIS1_E13ReadOnlyValueERS1_EUlRKS1_E_EE
	.section	.data.rel.ro._ZTVN8opendnp314FunctorVisitorINS_11Group52Var1EZNKS_11ICollectionIS1_E13ReadOnlyValueERS1_EUlRKS1_E_EE,"awG",@progbits,_ZTVN8opendnp314FunctorVisitorINS_11Group52Var1EZNKS_11ICollectionIS1_E13ReadOnlyValueERS1_EUlRKS1_E_EE,comdat
	.align	3
	.type	_ZTVN8opendnp314FunctorVisitorINS_11Group52Var1EZNKS_11ICollectionIS1_E13ReadOnlyValueERS1_EUlRKS1_E_EE, %object
	.size	_ZTVN8opendnp314FunctorVisitorINS_11Group52Var1EZNKS_11ICollectionIS1_E13ReadOnlyValueERS1_EUlRKS1_E_EE, 24
_ZTVN8opendnp314FunctorVisitorINS_11Group52Var1EZNKS_11ICollectionIS1_E13ReadOnlyValueERS1_EUlRKS1_E_EE:
	.xword	0
	.xword	_ZTIN8opendnp314FunctorVisitorINS_11Group52Var1EZNKS_11ICollectionIS1_E13ReadOnlyValueERS1_EUlRKS1_E_EE
	.xword	_ZN8opendnp314FunctorVisitorINS_11Group52Var1EZNKS_11ICollectionIS1_E13ReadOnlyValueERS1_EUlRKS1_E_E7OnValueES6_
	.weak	_ZTVN8opendnp314FunctorVisitorINS_11Group52Var2EZNKS_11ICollectionIS1_E13ReadOnlyValueERS1_EUlRKS1_E_EE
	.section	.data.rel.ro._ZTVN8opendnp314FunctorVisitorINS_11Group52Var2EZNKS_11ICollectionIS1_E13ReadOnlyValueERS1_EUlRKS1_E_EE,"awG",@progbits,_ZTVN8opendnp314FunctorVisitorINS_11Group52Var2EZNKS_11ICollectionIS1_E13ReadOnlyValueERS1_EUlRKS1_E_EE,comdat
	.align	3
	.type	_ZTVN8opendnp314FunctorVisitorINS_11Group52Var2EZNKS_11ICollectionIS1_E13ReadOnlyValueERS1_EUlRKS1_E_EE, %object
	.size	_ZTVN8opendnp314FunctorVisitorINS_11Group52Var2EZNKS_11ICollectionIS1_E13ReadOnlyValueERS1_EUlRKS1_E_EE, 24
_ZTVN8opendnp314FunctorVisitorINS_11Group52Var2EZNKS_11ICollectionIS1_E13ReadOnlyValueERS1_EUlRKS1_E_EE:
	.xword	0
	.xword	_ZTIN8opendnp314FunctorVisitorINS_11Group52Var2EZNKS_11ICollectionIS1_E13ReadOnlyValueERS1_EUlRKS1_E_EE
	.xword	_ZN8opendnp314FunctorVisitorINS_11Group52Var2EZNKS_11ICollectionIS1_E13ReadOnlyValueERS1_EUlRKS1_E_E7OnValueES6_
	.section	.rodata
	.align	3
	.type	_ZTSZN8opendnp320RestartOperationTaskC4ERNS_18IMasterApplicationENS_11RestartTypeERKSt8functionIFvRKNS_22RestartOperationResultEEEN7openpal6LoggerERKNS_10TaskConfigEEUlRNS_12HeaderWriterEE_, %object
	.size	_ZTSZN8opendnp320RestartOperationTaskC4ERNS_18IMasterApplicationENS_11RestartTypeERKSt8functionIFvRKNS_22RestartOperationResultEEEN7openpal6LoggerERKNS_10TaskConfigEEUlRNS_12HeaderWriterEE_, 187
_ZTSZN8opendnp320RestartOperationTaskC4ERNS_18IMasterApplicationENS_11RestartTypeERKSt8functionIFvRKNS_22RestartOperationResultEEEN7openpal6LoggerERKNS_10TaskConfigEEUlRNS_12HeaderWriterEE_:
	.string	"*ZN8opendnp320RestartOperationTaskC4ERNS_18IMasterApplicationENS_11RestartTypeERKSt8functionIFvRKNS_22RestartOperationResultEEEN7openpal6LoggerERKNS_10TaskConfigEEUlRNS_12HeaderWriterEE_"
	.section	.data.rel.ro,"aw"
	.align	3
	.set	.LANCHOR0,. + 0
	.type	_ZTIZN8opendnp320RestartOperationTaskC4ERNS_18IMasterApplicationENS_11RestartTypeERKSt8functionIFvRKNS_22RestartOperationResultEEEN7openpal6LoggerERKNS_10TaskConfigEEUlRNS_12HeaderWriterEE_, %object
	.size	_ZTIZN8opendnp320RestartOperationTaskC4ERNS_18IMasterApplicationENS_11RestartTypeERKSt8functionIFvRKNS_22RestartOperationResultEEEN7openpal6LoggerERKNS_10TaskConfigEEUlRNS_12HeaderWriterEE_, 16
_ZTIZN8opendnp320RestartOperationTaskC4ERNS_18IMasterApplicationENS_11RestartTypeERKSt8functionIFvRKNS_22RestartOperationResultEEEN7openpal6LoggerERKNS_10TaskConfigEEUlRNS_12HeaderWriterEE_:
	.xword	_ZTVN10__cxxabiv117__class_type_infoE+16
	.xword	_ZTSZN8opendnp320RestartOperationTaskC4ERNS_18IMasterApplicationENS_11RestartTypeERKSt8functionIFvRKNS_22RestartOperationResultEEEN7openpal6LoggerERKNS_10TaskConfigEEUlRNS_12HeaderWriterEE_
	.hidden	DW.ref.__gxx_personality_v0
	.weak	DW.ref.__gxx_personality_v0
	.section	.data.rel.local.DW.ref.__gxx_personality_v0,"awG",@progbits,DW.ref.__gxx_personality_v0,comdat
	.align	3
	.type	DW.ref.__gxx_personality_v0, %object
	.size	DW.ref.__gxx_personality_v0, 8
DW.ref.__gxx_personality_v0:
	.xword	__gxx_personality_v0
	.ident	"GCC: (Ubuntu 11.4.0-1ubuntu1~22.04) 11.4.0"
	.section	.note.GNU-stack,"",@progbits
