	.arch armv8-a
	.file	"UserPollTask.cpp"
	.text
	.section	.text._ZNK8opendnp311IMasterTask10IsAuthTaskEv,"axG",@progbits,_ZNK8opendnp311IMasterTask10IsAuthTaskEv,comdat
	.align	2
	.p2align 4,,11
	.weak	_ZNK8opendnp311IMasterTask10IsAuthTaskEv
	.type	_ZNK8opendnp311IMasterTask10IsAuthTaskEv, %function
_ZNK8opendnp311IMasterTask10IsAuthTaskEv:
.LFB2455:
	.cfi_startproc
	mov	w0, 0
	ret
	.cfi_endproc
.LFE2455:
	.size	_ZNK8opendnp311IMasterTask10IsAuthTaskEv, .-_ZNK8opendnp311IMasterTask10IsAuthTaskEv
	.section	.rodata._ZNK8opendnp312PollTaskBase4NameEv.str1.8,"aMS",@progbits,1
	.align	3
.LC0:
	.string	"Application Poll"
	.section	.text._ZNK8opendnp312PollTaskBase4NameEv,"axG",@progbits,_ZNK8opendnp312PollTaskBase4NameEv,comdat
	.align	2
	.p2align 4,,11
	.weak	_ZNK8opendnp312PollTaskBase4NameEv
	.type	_ZNK8opendnp312PollTaskBase4NameEv, %function
_ZNK8opendnp312PollTaskBase4NameEv:
.LFB2457:
	.cfi_startproc
	adrp	x0, .LC0
	add	x0, x0, :lo12:.LC0
	ret
	.cfi_endproc
.LFE2457:
	.size	_ZNK8opendnp312PollTaskBase4NameEv, .-_ZNK8opendnp312PollTaskBase4NameEv
	.section	.text._ZNK8opendnp312UserPollTask8PriorityEv,"axG",@progbits,_ZNK8opendnp312UserPollTask8PriorityEv,comdat
	.align	2
	.p2align 4,,11
	.weak	_ZNK8opendnp312UserPollTask8PriorityEv
	.type	_ZNK8opendnp312UserPollTask8PriorityEv, %function
_ZNK8opendnp312UserPollTask8PriorityEv:
.LFB2458:
	.cfi_startproc
	mov	w0, 190
	ret
	.cfi_endproc
.LFE2458:
	.size	_ZNK8opendnp312UserPollTask8PriorityEv, .-_ZNK8opendnp312UserPollTask8PriorityEv
	.section	.text._ZNK8opendnp312UserPollTask19BlocksLowerPriorityEv,"axG",@progbits,_ZNK8opendnp312UserPollTask19BlocksLowerPriorityEv,comdat
	.align	2
	.p2align 4,,11
	.weak	_ZNK8opendnp312UserPollTask19BlocksLowerPriorityEv
	.type	_ZNK8opendnp312UserPollTask19BlocksLowerPriorityEv, %function
_ZNK8opendnp312UserPollTask19BlocksLowerPriorityEv:
.LFB2459:
	.cfi_startproc
	mov	w0, 0
	ret
	.cfi_endproc
.LFE2459:
	.size	_ZNK8opendnp312UserPollTask19BlocksLowerPriorityEv, .-_ZNK8opendnp312UserPollTask19BlocksLowerPriorityEv
	.section	.text._ZNK8opendnp312UserPollTask11IsRecurringEv,"axG",@progbits,_ZNK8opendnp312UserPollTask11IsRecurringEv,comdat
	.align	2
	.p2align 4,,11
	.weak	_ZNK8opendnp312UserPollTask11IsRecurringEv
	.type	_ZNK8opendnp312UserPollTask11IsRecurringEv, %function
_ZNK8opendnp312UserPollTask11IsRecurringEv:
.LFB2460:
	.cfi_startproc
	ldrb	w0, [x0, 136]
	ret
	.cfi_endproc
.LFE2460:
	.size	_ZNK8opendnp312UserPollTask11IsRecurringEv, .-_ZNK8opendnp312UserPollTask11IsRecurringEv
	.section	.text._ZNK8opendnp312UserPollTask9IsEnabledEv,"axG",@progbits,_ZNK8opendnp312UserPollTask9IsEnabledEv,comdat
	.align	2
	.p2align 4,,11
	.weak	_ZNK8opendnp312UserPollTask9IsEnabledEv
	.type	_ZNK8opendnp312UserPollTask9IsEnabledEv, %function
_ZNK8opendnp312UserPollTask9IsEnabledEv:
.LFB2461:
	.cfi_startproc
	mov	w0, 1
	ret
	.cfi_endproc
.LFE2461:
	.size	_ZNK8opendnp312UserPollTask9IsEnabledEv, .-_ZNK8opendnp312UserPollTask9IsEnabledEv
	.section	.text._ZNK8opendnp312UserPollTask11GetTaskTypeEv,"axG",@progbits,_ZNK8opendnp312UserPollTask11GetTaskTypeEv,comdat
	.align	2
	.p2align 4,,11
	.weak	_ZNK8opendnp312UserPollTask11GetTaskTypeEv
	.type	_ZNK8opendnp312UserPollTask11GetTaskTypeEv, %function
_ZNK8opendnp312UserPollTask11GetTaskTypeEv:
.LFB2462:
	.cfi_startproc
	mov	w0, 7
	ret
	.cfi_endproc
.LFE2462:
	.size	_ZNK8opendnp312UserPollTask11GetTaskTypeEv, .-_ZNK8opendnp312UserPollTask11GetTaskTypeEv
	.section	.text._ZN8opendnp312UserPollTaskD2Ev,"axG",@progbits,_ZN8opendnp312UserPollTaskD5Ev,comdat
	.align	2
	.p2align 4,,11
	.weak	_ZN8opendnp312UserPollTaskD2Ev
	.type	_ZN8opendnp312UserPollTaskD2Ev, %function
_ZN8opendnp312UserPollTaskD2Ev:
.LFB3117:
	.cfi_startproc
	.cfi_personality 0x9b,DW.ref.__gxx_personality_v0
	.cfi_lsda 0x1b,.LLSDA3117
	stp	x29, x30, [sp, -32]!
	.cfi_def_cfa_offset 32
	.cfi_offset 29, -32
	.cfi_offset 30, -24
	adrp	x2, :got:_ZTVN8opendnp312UserPollTaskE
	mov	x1, x0
	mov	x29, sp
	ldr	x2, [x2, #:got_lo12:_ZTVN8opendnp312UserPollTaskE]
	str	x19, [sp, 16]
	.cfi_offset 19, -16
	mov	x19, x0
	add	x2, x2, 16
	str	x2, [x1], 104
	ldr	x3, [x1, 16]
	cbz	x3, .L10
	mov	x0, x1
	mov	w2, 3
	blr	x3
.L10:
	adrp	x1, :got:_ZTVN8opendnp312PollTaskBaseE
	mov	x0, x19
	ldr	x1, [x1, #:got_lo12:_ZTVN8opendnp312PollTaskBaseE]
	add	x1, x1, 16
	str	x1, [x19]
	ldr	x19, [sp, 16]
	ldp	x29, x30, [sp], 32
	.cfi_restore 30
	.cfi_restore 29
	.cfi_restore 19
	.cfi_def_cfa_offset 0
	b	_ZN8opendnp311IMasterTaskD2Ev
	.cfi_endproc
.LFE3117:
	.global	__gxx_personality_v0
	.section	.gcc_except_table._ZN8opendnp312UserPollTaskD2Ev,"aG",@progbits,_ZN8opendnp312UserPollTaskD5Ev,comdat
.LLSDA3117:
	.byte	0xff
	.byte	0xff
	.byte	0x1
	.uleb128 .LLSDACSE3117-.LLSDACSB3117
.LLSDACSB3117:
.LLSDACSE3117:
	.section	.text._ZN8opendnp312UserPollTaskD2Ev,"axG",@progbits,_ZN8opendnp312UserPollTaskD5Ev,comdat
	.size	_ZN8opendnp312UserPollTaskD2Ev, .-_ZN8opendnp312UserPollTaskD2Ev
	.weak	_ZN8opendnp312UserPollTaskD1Ev
	.set	_ZN8opendnp312UserPollTaskD1Ev,_ZN8opendnp312UserPollTaskD2Ev
	.text
	.align	2
	.p2align 4,,11
	.global	_ZN8opendnp312UserPollTask12BuildRequestERNS_11APDURequestEh
	.type	_ZN8opendnp312UserPollTask12BuildRequestERNS_11APDURequestEh, %function
_ZN8opendnp312UserPollTask12BuildRequestERNS_11APDURequestEh:
.LFB2473:
	.cfi_startproc
	stp	x29, x30, [sp, -96]!
	.cfi_def_cfa_offset 96
	.cfi_offset 29, -96
	.cfi_offset 30, -88
	adrp	x3, :got:__stack_chk_guard
	mov	x29, sp
	ldr	x3, [x3, #:got_lo12:__stack_chk_guard]
	stp	x19, x20, [sp, 16]
	.cfi_offset 19, -80
	.cfi_offset 20, -72
	mov	x19, x0
	stp	x21, x22, [sp, 32]
	.cfi_offset 21, -64
	.cfi_offset 22, -56
	mov	x20, x1
	mov	w1, 1
	ldr	x0, [x3]
	str	x0, [sp, 88]
	mov	x0, 0
	strh	wzr, [x19, 88]
	and	w22, w2, 255
	mov	x0, x20
	bl	_ZN8opendnp311APDUWrapper11SetFunctionENS_12FunctionCodeE
	add	x21, sp, 56
	mov	w0, w22
	bl	_ZN8opendnp315AppControlField7RequestEh
	mov	x2, x0
	strb	w0, [sp, 48]
	mov	x0, x20
	ubfx	x4, x2, 8, 8
	ubfx	x3, x2, 16, 8
	lsr	w1, w2, 24
	ubfx	x2, x2, 32, 8
	strb	w4, [sp, 49]
	strb	w3, [sp, 50]
	strb	w1, [sp, 51]
	strb	w2, [sp, 52]
	ldr	x1, [sp, 48]
	bl	_ZN8opendnp311APDUWrapper10SetControlENS_15AppControlFieldE
	mov	x0, x20
	mov	x8, x21
	bl	_ZN8opendnp311APDUWrapper9GetWriterEv
	add	x0, x19, 104
	ldr	x1, [x0, 16]
	cbz	x1, .L19
	ldr	x2, [x0, 24]
	mov	x1, x21
	blr	x2
	adrp	x1, :got:__stack_chk_guard
	ldr	x1, [x1, #:got_lo12:__stack_chk_guard]
	ldr	x3, [sp, 88]
	ldr	x2, [x1]
	subs	x3, x3, x2
	mov	x2, 0
	bne	.L20
	ldp	x19, x20, [sp, 16]
	ldp	x21, x22, [sp, 32]
	ldp	x29, x30, [sp], 96
	.cfi_remember_state
	.cfi_restore 30
	.cfi_restore 29
	.cfi_restore 21
	.cfi_restore 22
	.cfi_restore 19
	.cfi_restore 20
	.cfi_def_cfa_offset 0
	ret
.L19:
	.cfi_restore_state
	bl	_ZSt25__throw_bad_function_callv
.L20:
	bl	__stack_chk_fail
	.cfi_endproc
.LFE2473:
	.size	_ZN8opendnp312UserPollTask12BuildRequestERNS_11APDURequestEh, .-_ZN8opendnp312UserPollTask12BuildRequestERNS_11APDURequestEh
	.align	2
	.p2align 4,,11
	.global	_ZN8opendnp312UserPollTask14OnTaskCompleteENS_14TaskCompletionEN7openpal18MonotonicTimestampE
	.type	_ZN8opendnp312UserPollTask14OnTaskCompleteENS_14TaskCompletionEN7openpal18MonotonicTimestampE, %function
_ZN8opendnp312UserPollTask14OnTaskCompleteENS_14TaskCompletionEN7openpal18MonotonicTimestampE:
.LFB2474:
	.cfi_startproc
	stp	x29, x30, [sp, -64]!
	.cfi_def_cfa_offset 64
	.cfi_offset 29, -64
	.cfi_offset 30, -56
	adrp	x3, :got:__stack_chk_guard
	mov	x29, sp
	ldr	x3, [x3, #:got_lo12:__stack_chk_guard]
	str	x19, [sp, 16]
	.cfi_offset 19, -48
	str	x2, [sp, 40]
	and	w19, w1, 255
	ldr	x1, [x3]
	str	x1, [sp, 56]
	mov	x1, 0
	cmp	w19, 1
	beq	.L22
	cmp	w19, 255
	beq	.L23
	ldr	x1, [x0, 144]
	tbnz	x1, #63, .L30
	add	x1, x0, 144
	mov	w19, 0
	add	x0, sp, 40
	bl	_ZNK7openpal18MonotonicTimestamp3AddERKNS_12TimeDurationE
	mov	x1, x0
	b	.L25
	.p2align 2,,3
.L22:
	bl	_ZN7openpal18MonotonicTimestamp3MaxEv
	mov	x1, x0
.L25:
	adrp	x2, :got:__stack_chk_guard
	mov	x0, 0
	bfi	x0, x19, 0, 8
	ldr	x2, [x2, #:got_lo12:__stack_chk_guard]
	ldr	x4, [sp, 56]
	ldr	x3, [x2]
	subs	x4, x4, x3
	mov	x3, 0
	bne	.L31
	ldr	x19, [sp, 16]
	ldp	x29, x30, [sp], 64
	.cfi_remember_state
	.cfi_restore 30
	.cfi_restore 29
	.cfi_restore 19
	.cfi_def_cfa_offset 0
	ret
	.p2align 2,,3
.L23:
	.cfi_restore_state
	mov	x1, 0
	add	x0, sp, 48
	bl	_ZN7openpal18MonotonicTimestampC1El
	mov	w19, 0
	ldr	x1, [sp, 48]
	b	.L25
	.p2align 2,,3
.L30:
	bl	_ZN7openpal18MonotonicTimestamp3MaxEv
	mov	w19, 0
	mov	x1, x0
	b	.L25
.L31:
	bl	__stack_chk_fail
	.cfi_endproc
.LFE2474:
	.size	_ZN8opendnp312UserPollTask14OnTaskCompleteENS_14TaskCompletionEN7openpal18MonotonicTimestampE, .-_ZN8opendnp312UserPollTask14OnTaskCompleteENS_14TaskCompletionEN7openpal18MonotonicTimestampE
	.section	.text._ZN8opendnp312UserPollTaskD0Ev,"axG",@progbits,_ZN8opendnp312UserPollTaskD5Ev,comdat
	.align	2
	.p2align 4,,11
	.weak	_ZN8opendnp312UserPollTaskD0Ev
	.type	_ZN8opendnp312UserPollTaskD0Ev, %function
_ZN8opendnp312UserPollTaskD0Ev:
.LFB3119:
	.cfi_startproc
	.cfi_personality 0x9b,DW.ref.__gxx_personality_v0
	.cfi_lsda 0x1b,.LLSDA3119
	stp	x29, x30, [sp, -32]!
	.cfi_def_cfa_offset 32
	.cfi_offset 29, -32
	.cfi_offset 30, -24
	adrp	x2, :got:_ZTVN8opendnp312UserPollTaskE
	mov	x1, x0
	mov	x29, sp
	ldr	x2, [x2, #:got_lo12:_ZTVN8opendnp312UserPollTaskE]
	str	x19, [sp, 16]
	.cfi_offset 19, -16
	mov	x19, x0
	add	x2, x2, 16
	str	x2, [x1], 104
	ldr	x3, [x1, 16]
	cbz	x3, .L33
	mov	x0, x1
	mov	w2, 3
	blr	x3
.L33:
	adrp	x1, :got:_ZTVN8opendnp312PollTaskBaseE
	mov	x0, x19
	ldr	x1, [x1, #:got_lo12:_ZTVN8opendnp312PollTaskBaseE]
	add	x1, x1, 16
	str	x1, [x19]
	bl	_ZN8opendnp311IMasterTaskD2Ev
	mov	x0, x19
	mov	x1, 160
	ldr	x19, [sp, 16]
	ldp	x29, x30, [sp], 32
	.cfi_restore 30
	.cfi_restore 29
	.cfi_restore 19
	.cfi_def_cfa_offset 0
	b	_ZdlPvm
	.cfi_endproc
.LFE3119:
	.section	.gcc_except_table._ZN8opendnp312UserPollTaskD0Ev,"aG",@progbits,_ZN8opendnp312UserPollTaskD5Ev,comdat
.LLSDA3119:
	.byte	0xff
	.byte	0xff
	.byte	0x1
	.uleb128 .LLSDACSE3119-.LLSDACSB3119
.LLSDACSB3119:
.LLSDACSE3119:
	.section	.text._ZN8opendnp312UserPollTaskD0Ev,"axG",@progbits,_ZN8opendnp312UserPollTaskD5Ev,comdat
	.size	_ZN8opendnp312UserPollTaskD0Ev, .-_ZN8opendnp312UserPollTaskD0Ev
	.global	__aarch64_ldadd4_acq_rel
	.section	.text._ZN7openpal6LoggerD2Ev,"axG",@progbits,_ZN7openpal6LoggerD5Ev,comdat
	.align	2
	.p2align 4,,11
	.weak	_ZN7openpal6LoggerD2Ev
	.type	_ZN7openpal6LoggerD2Ev, %function
_ZN7openpal6LoggerD2Ev:
.LFB2070:
	.cfi_startproc
	stp	x29, x30, [sp, -48]!
	.cfi_def_cfa_offset 48
	.cfi_offset 29, -48
	.cfi_offset 30, -40
	mov	x29, sp
	stp	x19, x20, [sp, 16]
	.cfi_offset 19, -32
	.cfi_offset 20, -24
	mov	x19, x0
	ldr	x20, [x0, 24]
	str	x21, [sp, 32]
	.cfi_offset 21, -16
	cbz	x20, .L40
	adrp	x21, :got:__libc_single_threaded
	ldr	x0, [x21, #:got_lo12:__libc_single_threaded]
	ldrb	w0, [x0]
	cbz	w0, .L41
	ldr	w0, [x20, 8]
	sub	w1, w0, #1
	str	w1, [x20, 8]
.L42:
	cmp	w0, 1
	beq	.L54
.L40:
	ldr	x19, [x19, 8]
	cbz	x19, .L38
	adrp	x21, :got:__libc_single_threaded
	ldr	x0, [x21, #:got_lo12:__libc_single_threaded]
	ldrb	w0, [x0]
	cbz	w0, .L48
	ldr	w0, [x19, 8]
	sub	w1, w0, #1
	str	w1, [x19, 8]
.L49:
	cmp	w0, 1
	beq	.L55
.L38:
	ldp	x19, x20, [sp, 16]
	ldr	x21, [sp, 32]
	ldp	x29, x30, [sp], 48
	.cfi_remember_state
	.cfi_restore 30
	.cfi_restore 29
	.cfi_restore 21
	.cfi_restore 19
	.cfi_restore 20
	.cfi_def_cfa_offset 0
	ret
	.p2align 2,,3
.L54:
	.cfi_restore_state
	ldr	x1, [x20]
	mov	x0, x20
	ldr	x1, [x1, 16]
	blr	x1
	ldr	x21, [x21, #:got_lo12:__libc_single_threaded]
	ldrb	w0, [x21]
	cbz	w0, .L44
	ldr	w0, [x20, 12]
	sub	w1, w0, #1
	str	w1, [x20, 12]
.L45:
	cmp	w0, 1
	bne	.L40
	ldr	x1, [x20]
	mov	x0, x20
	ldr	x1, [x1, 24]
	blr	x1
	b	.L40
	.p2align 2,,3
.L55:
	ldr	x1, [x19]
	mov	x0, x19
	ldr	x1, [x1, 16]
	blr	x1
	ldr	x21, [x21, #:got_lo12:__libc_single_threaded]
	ldrb	w0, [x21]
	cbz	w0, .L51
	ldr	w0, [x19, 12]
	sub	w1, w0, #1
	str	w1, [x19, 12]
.L52:
	cmp	w0, 1
	bne	.L38
	ldr	x1, [x19]
	mov	x0, x19
	ldp	x19, x20, [sp, 16]
	ldr	x21, [sp, 32]
	ldp	x29, x30, [sp], 48
	.cfi_remember_state
	.cfi_restore 30
	.cfi_restore 29
	.cfi_restore 21
	.cfi_restore 19
	.cfi_restore 20
	.cfi_def_cfa_offset 0
	ldr	x1, [x1, 24]
	mov	x16, x1
	br	x16
	.p2align 2,,3
.L48:
	.cfi_restore_state
	add	x1, x19, 8
	mov	w0, -1
	bl	__aarch64_ldadd4_acq_rel
	b	.L49
	.p2align 2,,3
.L41:
	add	x1, x20, 8
	mov	w0, -1
	bl	__aarch64_ldadd4_acq_rel
	b	.L42
	.p2align 2,,3
.L44:
	add	x1, x20, 12
	mov	w0, -1
	bl	__aarch64_ldadd4_acq_rel
	b	.L45
	.p2align 2,,3
.L51:
	add	x1, x19, 12
	mov	w0, -1
	bl	__aarch64_ldadd4_acq_rel
	b	.L52
	.cfi_endproc
.LFE2070:
	.size	_ZN7openpal6LoggerD2Ev, .-_ZN7openpal6LoggerD2Ev
	.weak	_ZN7openpal6LoggerD1Ev
	.set	_ZN7openpal6LoggerD1Ev,_ZN7openpal6LoggerD2Ev
	.text
	.align	2
	.p2align 4,,11
	.global	_ZN8opendnp312UserPollTaskC2ERKSt8functionIFbRNS_12HeaderWriterEEEbN7openpal12TimeDurationES9_RNS_18IMasterApplicationERNS_11ISOEHandlerENS8_6LoggerENS_10TaskConfigE
	.type	_ZN8opendnp312UserPollTaskC2ERKSt8functionIFbRNS_12HeaderWriterEEEbN7openpal12TimeDurationES9_RNS_18IMasterApplicationERNS_11ISOEHandlerENS8_6LoggerENS_10TaskConfigE, %function
_ZN8opendnp312UserPollTaskC2ERKSt8functionIFbRNS_12HeaderWriterEEEbN7openpal12TimeDurationES9_RNS_18IMasterApplicationERNS_11ISOEHandlerENS8_6LoggerENS_10TaskConfigE:
.LFB2471:
	.cfi_startproc
	.cfi_personality 0x9b,DW.ref.__gxx_personality_v0
	.cfi_lsda 0x1b,.LLSDA2471
	stp	x29, x30, [sp, -144]!
	.cfi_def_cfa_offset 144
	.cfi_offset 29, -144
	.cfi_offset 30, -136
	adrp	x8, :got:__stack_chk_guard
	mov	x29, sp
	ldr	x8, [x8, #:got_lo12:__stack_chk_guard]
	stp	x19, x20, [sp, 16]
	.cfi_offset 19, -128
	.cfi_offset 20, -120
	mov	x20, x7
	stp	x21, x22, [sp, 32]
	mov	x19, x0
	.cfi_offset 21, -112
	.cfi_offset 22, -104
	mov	x21, x1
	stp	x23, x24, [sp, 48]
	mov	x1, 0
	.cfi_offset 23, -96
	.cfi_offset 24, -88
	mov	x23, x3
	stp	x25, x26, [sp, 64]
	.cfi_offset 25, -80
	.cfi_offset 26, -72
	mov	x22, x4
	mov	x25, x5
	ldr	x0, [x8]
	str	x0, [sp, 136]
	mov	x0, 0
	mov	x26, x6
	and	w24, w2, 255
	add	x0, sp, 88
.LEHB0:
	bl	_ZN7openpal18MonotonicTimestampC1El
.LEHE0:
	ldr	q0, [x20]
	umov	x1, v0.d[1]
	str	q0, [sp, 96]
	cbz	x1, .L57
	adrp	x0, :got:__libc_single_threaded
	ldr	x0, [x0, #:got_lo12:__libc_single_threaded]
	ldrb	w0, [x0]
	cbz	w0, .L58
	ldr	w0, [x1, 8]
	add	w0, w0, 1
	str	w0, [x1, 8]
.L57:
	ldr	q0, [x20, 16]
	umov	x1, v0.d[1]
	str	q0, [sp, 112]
	cbz	x1, .L59
	adrp	x0, :got:__libc_single_threaded
	ldr	x0, [x0, #:got_lo12:__libc_single_threaded]
	ldrb	w0, [x0]
	cbz	w0, .L60
	ldr	w0, [x1, 8]
	add	w0, w0, 1
	str	w0, [x1, 8]
.L59:
	ldp	x5, x6, [sp, 144]
	add	x20, sp, 96
	ldr	x3, [sp, 88]
	mov	x2, x26
	mov	x1, x25
	mov	x4, x20
	mov	x0, x19
.LEHB1:
	bl	_ZN8opendnp312PollTaskBaseC2ERNS_18IMasterApplicationERNS_11ISOEHandlerEN7openpal18MonotonicTimestampENS5_6LoggerENS_10TaskConfigE
.LEHE1:
	ldr	x20, [sp, 120]
	cbz	x20, .L62
	adrp	x25, :got:__libc_single_threaded
	ldr	x0, [x25, #:got_lo12:__libc_single_threaded]
	ldrb	w0, [x0]
	cbz	w0, .L63
	ldr	w0, [x20, 8]
	sub	w1, w0, #1
	str	w1, [x20, 8]
.L64:
	cmp	w0, 1
	beq	.L96
.L62:
	ldr	x20, [sp, 104]
	cbz	x20, .L69
	adrp	x25, :got:__libc_single_threaded
	ldr	x0, [x25, #:got_lo12:__libc_single_threaded]
	ldrb	w0, [x0]
	cbz	w0, .L70
	ldr	w0, [x20, 8]
	sub	w1, w0, #1
	str	w1, [x20, 8]
.L71:
	cmp	w0, 1
	beq	.L97
.L69:
	adrp	x0, :got:_ZTVN8opendnp312UserPollTaskE
	mov	x20, x19
	ldr	x3, [x21, 16]
	ldr	x0, [x0, #:got_lo12:_ZTVN8opendnp312UserPollTaskE]
	add	x0, x0, 16
	str	x0, [x20], 104
	stp	xzr, xzr, [x19, 104]
	stp	xzr, xzr, [x20, 16]
	cbz	x3, .L75
	mov	x1, x21
	mov	x0, x20
	mov	w2, 2
.LEHB2:
	blr	x3
.LEHE2:
	ldr	q0, [x21, 16]
	str	q0, [x19, 120]
.L75:
	adrp	x0, :got:__stack_chk_guard
	strb	w24, [x19, 136]
	ldr	x0, [x0, #:got_lo12:__stack_chk_guard]
	stp	x23, x22, [x19, 144]
	ldr	x2, [sp, 136]
	ldr	x1, [x0]
	subs	x2, x2, x1
	mov	x1, 0
	bne	.L98
	ldp	x19, x20, [sp, 16]
	ldp	x21, x22, [sp, 32]
	ldp	x23, x24, [sp, 48]
	ldp	x25, x26, [sp, 64]
	ldp	x29, x30, [sp], 144
	.cfi_remember_state
	.cfi_restore 30
	.cfi_restore 29
	.cfi_restore 25
	.cfi_restore 26
	.cfi_restore 23
	.cfi_restore 24
	.cfi_restore 21
	.cfi_restore 22
	.cfi_restore 19
	.cfi_restore 20
	.cfi_def_cfa_offset 0
	ret
	.p2align 2,,3
.L60:
	.cfi_restore_state
	add	x1, x1, 8
	mov	w0, 1
	bl	__aarch64_ldadd4_acq_rel
	b	.L59
	.p2align 2,,3
.L58:
	add	x1, x1, 8
	mov	w0, 1
	bl	__aarch64_ldadd4_acq_rel
	b	.L57
	.p2align 2,,3
.L96:
	ldr	x1, [x20]
	mov	x0, x20
	ldr	x1, [x1, 16]
	blr	x1
	ldr	x25, [x25, #:got_lo12:__libc_single_threaded]
	ldrb	w0, [x25]
	cbz	w0, .L66
	ldr	w0, [x20, 12]
	sub	w1, w0, #1
	str	w1, [x20, 12]
.L67:
	cmp	w0, 1
	bne	.L62
	ldr	x1, [x20]
	mov	x0, x20
	ldr	x1, [x1, 24]
	blr	x1
	b	.L62
	.p2align 2,,3
.L97:
	ldr	x1, [x20]
	mov	x0, x20
	ldr	x1, [x1, 16]
	blr	x1
	ldr	x25, [x25, #:got_lo12:__libc_single_threaded]
	ldrb	w0, [x25]
	cbz	w0, .L73
	ldr	w0, [x20, 12]
	sub	w1, w0, #1
	str	w1, [x20, 12]
.L74:
	cmp	w0, 1
	bne	.L69
	ldr	x1, [x20]
	mov	x0, x20
	ldr	x1, [x1, 24]
	blr	x1
	b	.L69
	.p2align 2,,3
.L63:
	add	x1, x20, 8
	mov	w0, -1
	bl	__aarch64_ldadd4_acq_rel
	b	.L64
	.p2align 2,,3
.L70:
	add	x1, x20, 8
	mov	w0, -1
	bl	__aarch64_ldadd4_acq_rel
	b	.L71
	.p2align 2,,3
.L73:
	add	x1, x20, 12
	mov	w0, -1
	bl	__aarch64_ldadd4_acq_rel
	b	.L74
	.p2align 2,,3
.L66:
	add	x1, x20, 12
	mov	w0, -1
	bl	__aarch64_ldadd4_acq_rel
	b	.L67
.L98:
	bl	__stack_chk_fail
.L80:
	mov	x19, x0
	mov	x0, x20
	bl	_ZN7openpal6LoggerD1Ev
	mov	x0, x19
.LEHB3:
	bl	_Unwind_Resume
.LEHE3:
.L81:
	ldr	x3, [x20, 16]
	mov	x21, x0
	cbz	x3, .L77
	mov	x1, x20
	mov	x0, x20
	mov	w2, 3
	blr	x3
.L77:
	adrp	x1, :got:_ZTVN8opendnp312PollTaskBaseE
	mov	x0, x19
	ldr	x1, [x1, #:got_lo12:_ZTVN8opendnp312PollTaskBaseE]
	add	x1, x1, 16
	str	x1, [x19]
	bl	_ZN8opendnp311IMasterTaskD2Ev
	mov	x0, x21
.LEHB4:
	bl	_Unwind_Resume
.LEHE4:
	.cfi_endproc
.LFE2471:
	.section	.gcc_except_table,"a",@progbits
.LLSDA2471:
	.byte	0xff
	.byte	0xff
	.byte	0x1
	.uleb128 .LLSDACSE2471-.LLSDACSB2471
.LLSDACSB2471:
	.uleb128 .LEHB0-.LFB2471
	.uleb128 .LEHE0-.LEHB0
	.uleb128 0
	.uleb128 0
	.uleb128 .LEHB1-.LFB2471
	.uleb128 .LEHE1-.LEHB1
	.uleb128 .L80-.LFB2471
	.uleb128 0
	.uleb128 .LEHB2-.LFB2471
	.uleb128 .LEHE2-.LEHB2
	.uleb128 .L81-.LFB2471
	.uleb128 0
	.uleb128 .LEHB3-.LFB2471
	.uleb128 .LEHE3-.LEHB3
	.uleb128 0
	.uleb128 0
	.uleb128 .LEHB4-.LFB2471
	.uleb128 .LEHE4-.LEHB4
	.uleb128 0
	.uleb128 0
.LLSDACSE2471:
	.text
	.size	_ZN8opendnp312UserPollTaskC2ERKSt8functionIFbRNS_12HeaderWriterEEEbN7openpal12TimeDurationES9_RNS_18IMasterApplicationERNS_11ISOEHandlerENS8_6LoggerENS_10TaskConfigE, .-_ZN8opendnp312UserPollTaskC2ERKSt8functionIFbRNS_12HeaderWriterEEEbN7openpal12TimeDurationES9_RNS_18IMasterApplicationERNS_11ISOEHandlerENS8_6LoggerENS_10TaskConfigE
	.global	_ZN8opendnp312UserPollTaskC1ERKSt8functionIFbRNS_12HeaderWriterEEEbN7openpal12TimeDurationES9_RNS_18IMasterApplicationERNS_11ISOEHandlerENS8_6LoggerENS_10TaskConfigE
	.set	_ZN8opendnp312UserPollTaskC1ERKSt8functionIFbRNS_12HeaderWriterEEEbN7openpal12TimeDurationES9_RNS_18IMasterApplicationERNS_11ISOEHandlerENS8_6LoggerENS_10TaskConfigE,_ZN8opendnp312UserPollTaskC2ERKSt8functionIFbRNS_12HeaderWriterEEEbN7openpal12TimeDurationES9_RNS_18IMasterApplicationERNS_11ISOEHandlerENS8_6LoggerENS_10TaskConfigE
	.weak	_ZTSN8opendnp312UserPollTaskE
	.section	.rodata._ZTSN8opendnp312UserPollTaskE,"aG",@progbits,_ZTSN8opendnp312UserPollTaskE,comdat
	.align	3
	.type	_ZTSN8opendnp312UserPollTaskE, %object
	.size	_ZTSN8opendnp312UserPollTaskE, 26
_ZTSN8opendnp312UserPollTaskE:
	.string	"N8opendnp312UserPollTaskE"
	.weak	_ZTIN8opendnp312UserPollTaskE
	.section	.data.rel.ro._ZTIN8opendnp312UserPollTaskE,"awG",@progbits,_ZTIN8opendnp312UserPollTaskE,comdat
	.align	3
	.type	_ZTIN8opendnp312UserPollTaskE, %object
	.size	_ZTIN8opendnp312UserPollTaskE, 24
_ZTIN8opendnp312UserPollTaskE:
	.xword	_ZTVN10__cxxabiv120__si_class_type_infoE+16
	.xword	_ZTSN8opendnp312UserPollTaskE
	.xword	_ZTIN8opendnp312PollTaskBaseE
	.weak	_ZTVN8opendnp312UserPollTaskE
	.section	.data.rel.ro._ZTVN8opendnp312UserPollTaskE,"awG",@progbits,_ZTVN8opendnp312UserPollTaskE,comdat
	.align	3
	.type	_ZTVN8opendnp312UserPollTaskE, %object
	.size	_ZTVN8opendnp312UserPollTaskE, 120
_ZTVN8opendnp312UserPollTaskE:
	.xword	0
	.xword	_ZTIN8opendnp312UserPollTaskE
	.xword	_ZN8opendnp312UserPollTaskD1Ev
	.xword	_ZN8opendnp312UserPollTaskD0Ev
	.xword	_ZNK8opendnp311IMasterTask10IsAuthTaskEv
	.xword	_ZNK8opendnp312PollTaskBase4NameEv
	.xword	_ZNK8opendnp312UserPollTask8PriorityEv
	.xword	_ZNK8opendnp312UserPollTask19BlocksLowerPriorityEv
	.xword	_ZNK8opendnp312UserPollTask11IsRecurringEv
	.xword	_ZN8opendnp312UserPollTask12BuildRequestERNS_11APDURequestEh
	.xword	_ZN8opendnp312PollTaskBase10InitializeEv
	.xword	_ZN8opendnp312PollTaskBase15ProcessResponseERKNS_18APDUResponseHeaderERKN7openpal6RSliceE
	.xword	_ZN8opendnp312UserPollTask14OnTaskCompleteENS_14TaskCompletionEN7openpal18MonotonicTimestampE
	.xword	_ZNK8opendnp312UserPollTask9IsEnabledEv
	.xword	_ZNK8opendnp312UserPollTask11GetTaskTypeEv
	.hidden	DW.ref.__gxx_personality_v0
	.weak	DW.ref.__gxx_personality_v0
	.section	.data.rel.local.DW.ref.__gxx_personality_v0,"awG",@progbits,DW.ref.__gxx_personality_v0,comdat
	.align	3
	.type	DW.ref.__gxx_personality_v0, %object
	.size	DW.ref.__gxx_personality_v0, 8
DW.ref.__gxx_personality_v0:
	.xword	__gxx_personality_v0
	.ident	"GCC: (Ubuntu 11.4.0-1ubuntu1~22.04) 11.4.0"
	.section	.note.GNU-stack,"",@progbits
